Archive member included to satisfy reference by file (symbol)

/Users/Luca/src/vexilla/src/gcc-arm-none-eabi-5_4-2016q3/bin/../lib/gcc/arm-none-eabi/5.4.1/armv7-m/libgcc.a(_arm_addsubdf3.o)
                              bin/obj/vexprintf.o (__aeabi_dsub)
/Users/Luca/src/vexilla/src/gcc-arm-none-eabi-5_4-2016q3/bin/../lib/gcc/arm-none-eabi/5.4.1/armv7-m/libgcc.a(_arm_muldivdf3.o)
                              bin/obj/vexprintf.o (__aeabi_dmul)
/Users/Luca/src/vexilla/src/gcc-arm-none-eabi-5_4-2016q3/bin/../lib/gcc/arm-none-eabi/5.4.1/armv7-m/libgcc.a(_arm_cmpdf2.o)
                              bin/obj/vexprintf.o (__aeabi_dcmplt)
/Users/Luca/src/vexilla/src/gcc-arm-none-eabi-5_4-2016q3/bin/../lib/gcc/arm-none-eabi/5.4.1/armv7-m/libgcc.a(_arm_fixdfsi.o)
                              bin/obj/smartmotor.o (__aeabi_d2iz)
/Users/Luca/src/vexilla/src/gcc-arm-none-eabi-5_4-2016q3/bin/../lib/gcc/arm-none-eabi/5.4.1/armv7-m/libgcc.a(_arm_fixunsdfsi.o)
                              bin/obj/vexprintf.o (__aeabi_d2uiz)
/Users/Luca/src/vexilla/src/gcc-arm-none-eabi-5_4-2016q3/bin/../lib/gcc/arm-none-eabi/5.4.1/armv7-m/libgcc.a(_arm_truncdfsf2.o)
                              bin/obj/smartmotor.o (__aeabi_d2f)
/Users/Luca/src/vexilla/src/gcc-arm-none-eabi-5_4-2016q3/bin/../lib/gcc/arm-none-eabi/5.4.1/armv7-m/libgcc.a(_arm_addsubsf3.o)
                              bin/obj/smartmotor.o (__aeabi_fsub)
/Users/Luca/src/vexilla/src/gcc-arm-none-eabi-5_4-2016q3/bin/../lib/gcc/arm-none-eabi/5.4.1/armv7-m/libgcc.a(_arm_muldivsf3.o)
                              bin/obj/vexaudio.o (__aeabi_fmul)
/Users/Luca/src/vexilla/src/gcc-arm-none-eabi-5_4-2016q3/bin/../lib/gcc/arm-none-eabi/5.4.1/armv7-m/libgcc.a(_arm_cmpsf2.o)
                              bin/obj/smartmotor.o (__aeabi_fcmpeq)
/Users/Luca/src/vexilla/src/gcc-arm-none-eabi-5_4-2016q3/bin/../lib/gcc/arm-none-eabi/5.4.1/armv7-m/libgcc.a(_arm_fixsfsi.o)
                              bin/obj/smartmotor.o (__aeabi_f2iz)
/Users/Luca/src/vexilla/src/gcc-arm-none-eabi-5_4-2016q3/bin/../lib/gcc/arm-none-eabi/5.4.1/armv7-m/libgcc.a(_arm_fixunssfsi.o)
                              bin/obj/vexaudio.o (__aeabi_f2uiz)
/Users/Luca/src/vexilla/src/gcc-arm-none-eabi-5_4-2016q3/bin/../lib/gcc/arm-none-eabi/5.4.1/../../../../arm-none-eabi/lib/armv7-m/libc.a(lib_a-atoi.o)
                              bin/obj/vexmotor.o (atoi)
/Users/Luca/src/vexilla/src/gcc-arm-none-eabi-5_4-2016q3/bin/../lib/gcc/arm-none-eabi/5.4.1/../../../../arm-none-eabi/lib/armv7-m/libc.a(lib_a-memset.o)
                              bin/obj/syscalls.o (memset)
/Users/Luca/src/vexilla/src/gcc-arm-none-eabi-5_4-2016q3/bin/../lib/gcc/arm-none-eabi/5.4.1/../../../../arm-none-eabi/lib/armv7-m/libc.a(lib_a-strcasecmp.o)
                              bin/obj/vexshell.o (strcasecmp)
/Users/Luca/src/vexilla/src/gcc-arm-none-eabi-5_4-2016q3/bin/../lib/gcc/arm-none-eabi/5.4.1/../../../../arm-none-eabi/lib/armv7-m/libc.a(lib_a-strchr.o)
                              bin/obj/vexshell.o (strchr)
/Users/Luca/src/vexilla/src/gcc-arm-none-eabi-5_4-2016q3/bin/../lib/gcc/arm-none-eabi/5.4.1/../../../../arm-none-eabi/lib/armv7-m/libc.a(lib_a-strncpy.o)
                              bin/obj/vexlcd.o (strncpy)
/Users/Luca/src/vexilla/src/gcc-arm-none-eabi-5_4-2016q3/bin/../lib/gcc/arm-none-eabi/5.4.1/../../../../arm-none-eabi/lib/armv7-m/libc.a(lib_a-strspn.o)
                              bin/obj/vexshell.o (strspn)
/Users/Luca/src/vexilla/src/gcc-arm-none-eabi-5_4-2016q3/bin/../lib/gcc/arm-none-eabi/5.4.1/../../../../arm-none-eabi/lib/armv7-m/libc.a(lib_a-strtol.o)
                              /Users/Luca/src/vexilla/src/gcc-arm-none-eabi-5_4-2016q3/bin/../lib/gcc/arm-none-eabi/5.4.1/../../../../arm-none-eabi/lib/armv7-m/libc.a(lib_a-atoi.o) (_strtol_r)
/Users/Luca/src/vexilla/src/gcc-arm-none-eabi-5_4-2016q3/bin/../lib/gcc/arm-none-eabi/5.4.1/../../../../arm-none-eabi/lib/armv7-m/libc.a(lib_a-impure.o)
                              /Users/Luca/src/vexilla/src/gcc-arm-none-eabi-5_4-2016q3/bin/../lib/gcc/arm-none-eabi/5.4.1/../../../../arm-none-eabi/lib/armv7-m/libc.a(lib_a-strtol.o) (_impure_ptr)
/Users/Luca/src/vexilla/src/gcc-arm-none-eabi-5_4-2016q3/bin/../lib/gcc/arm-none-eabi/5.4.1/../../../../arm-none-eabi/lib/armv7-m/libc.a(lib_a-locale.o)
                              /Users/Luca/src/vexilla/src/gcc-arm-none-eabi-5_4-2016q3/bin/../lib/gcc/arm-none-eabi/5.4.1/../../../../arm-none-eabi/lib/armv7-m/libc.a(lib_a-strtol.o) (__locale_ctype_ptr_l)
/Users/Luca/src/vexilla/src/gcc-arm-none-eabi-5_4-2016q3/bin/../lib/gcc/arm-none-eabi/5.4.1/../../../../arm-none-eabi/lib/armv7-m/libc.a(lib_a-mbtowc_r.o)
                              /Users/Luca/src/vexilla/src/gcc-arm-none-eabi-5_4-2016q3/bin/../lib/gcc/arm-none-eabi/5.4.1/../../../../arm-none-eabi/lib/armv7-m/libc.a(lib_a-locale.o) (__ascii_mbtowc)
/Users/Luca/src/vexilla/src/gcc-arm-none-eabi-5_4-2016q3/bin/../lib/gcc/arm-none-eabi/5.4.1/../../../../arm-none-eabi/lib/armv7-m/libc.a(lib_a-strcmp.o)
                              /Users/Luca/src/vexilla/src/gcc-arm-none-eabi-5_4-2016q3/bin/../lib/gcc/arm-none-eabi/5.4.1/../../../../arm-none-eabi/lib/armv7-m/libc.a(lib_a-locale.o) (strcmp)
/Users/Luca/src/vexilla/src/gcc-arm-none-eabi-5_4-2016q3/bin/../lib/gcc/arm-none-eabi/5.4.1/../../../../arm-none-eabi/lib/armv7-m/libc.a(lib_a-wctomb_r.o)
                              /Users/Luca/src/vexilla/src/gcc-arm-none-eabi-5_4-2016q3/bin/../lib/gcc/arm-none-eabi/5.4.1/../../../../arm-none-eabi/lib/armv7-m/libc.a(lib_a-locale.o) (__ascii_wctomb)
/Users/Luca/src/vexilla/src/gcc-arm-none-eabi-5_4-2016q3/bin/../lib/gcc/arm-none-eabi/5.4.1/../../../../arm-none-eabi/lib/armv7-m/libc.a(lib_a-ctype_.o)
                              /Users/Luca/src/vexilla/src/gcc-arm-none-eabi-5_4-2016q3/bin/../lib/gcc/arm-none-eabi/5.4.1/../../../../arm-none-eabi/lib/armv7-m/libc.a(lib_a-locale.o) (_ctype_)

Discarded input sections

 .text          0x0000000000000000        0x0 bin/obj/crt0.o
 .data          0x0000000000000000        0x0 bin/obj/crt0.o
 .bss           0x0000000000000000        0x0 bin/obj/crt0.o
 .text.__early_init
                0x0000000000000000        0x4 bin/obj/crt0.o
 .text          0x0000000000000000        0x0 bin/obj/vectors.o
 .data          0x0000000000000000        0x0 bin/obj/vectors.o
 .bss           0x0000000000000000        0x0 bin/obj/vectors.o
 .text          0x0000000000000000        0x0 bin/obj/chcore.o
 .data          0x0000000000000000        0x0 bin/obj/chcore.o
 .bss           0x0000000000000000        0x0 bin/obj/chcore.o
 .text          0x0000000000000000        0x0 bin/obj/chcore_v7m.o
 .data          0x0000000000000000        0x0 bin/obj/chcore_v7m.o
 .bss           0x0000000000000000        0x0 bin/obj/chcore_v7m.o
 .text          0x0000000000000000        0x0 bin/obj/nvic.o
 .data          0x0000000000000000        0x0 bin/obj/nvic.o
 .bss           0x0000000000000000        0x0 bin/obj/nvic.o
 .text          0x0000000000000000        0x0 bin/obj/chsys.o
 .data          0x0000000000000000        0x0 bin/obj/chsys.o
 .bss           0x0000000000000000        0x0 bin/obj/chsys.o
 .text          0x0000000000000000        0x0 bin/obj/chdebug.o
 .data          0x0000000000000000        0x0 bin/obj/chdebug.o
 .bss           0x0000000000000000        0x0 bin/obj/chdebug.o
 .debug_info    0x0000000000000000       0x80 bin/obj/chdebug.o
 .debug_abbrev  0x0000000000000000       0x26 bin/obj/chdebug.o
 .debug_aranges
                0x0000000000000000       0x18 bin/obj/chdebug.o
 .debug_line    0x0000000000000000       0x1d bin/obj/chdebug.o
 .debug_str     0x0000000000000000      0x1c3 bin/obj/chdebug.o
 .comment       0x0000000000000000       0x6f bin/obj/chdebug.o
 .ARM.attributes
                0x0000000000000000       0x33 bin/obj/chdebug.o
 .text          0x0000000000000000        0x0 bin/obj/chlists.o
 .data          0x0000000000000000        0x0 bin/obj/chlists.o
 .bss           0x0000000000000000        0x0 bin/obj/chlists.o
 .debug_info    0x0000000000000000       0x80 bin/obj/chlists.o
 .debug_abbrev  0x0000000000000000       0x26 bin/obj/chlists.o
 .debug_aranges
                0x0000000000000000       0x18 bin/obj/chlists.o
 .debug_line    0x0000000000000000       0x1d bin/obj/chlists.o
 .debug_str     0x0000000000000000      0x1c3 bin/obj/chlists.o
 .comment       0x0000000000000000       0x6f bin/obj/chlists.o
 .ARM.attributes
                0x0000000000000000       0x33 bin/obj/chlists.o
 .text          0x0000000000000000        0x0 bin/obj/chvt.o
 .data          0x0000000000000000        0x0 bin/obj/chvt.o
 .bss           0x0000000000000000        0x0 bin/obj/chvt.o
 .text          0x0000000000000000        0x0 bin/obj/chschd.o
 .data          0x0000000000000000        0x0 bin/obj/chschd.o
 .bss           0x0000000000000000        0x0 bin/obj/chschd.o
 .text.chSchRescheduleS
                0x0000000000000000       0x18 bin/obj/chschd.o
 .text          0x0000000000000000        0x0 bin/obj/chthreads.o
 .data          0x0000000000000000        0x0 bin/obj/chthreads.o
 .bss           0x0000000000000000        0x0 bin/obj/chthreads.o
 .text.chThdSetPriority
                0x0000000000000000       0x30 bin/obj/chthreads.o
 .text.chThdResume
                0x0000000000000000       0x1c bin/obj/chthreads.o
 .text.chThdTerminate
                0x0000000000000000       0x18 bin/obj/chthreads.o
 .text.chThdYield
                0x0000000000000000       0x28 bin/obj/chthreads.o
 .text          0x0000000000000000        0x0 bin/obj/chdynamic.o
 .data          0x0000000000000000        0x0 bin/obj/chdynamic.o
 .bss           0x0000000000000000        0x0 bin/obj/chdynamic.o
 .text.chThdAddRef
                0x0000000000000000       0x14 bin/obj/chdynamic.o
 .text.chThdCreateFromMemoryPool
                0x0000000000000000       0x44 bin/obj/chdynamic.o
 .text          0x0000000000000000        0x0 bin/obj/chregistry.o
 .data          0x0000000000000000        0x0 bin/obj/chregistry.o
 .bss           0x0000000000000000        0x0 bin/obj/chregistry.o
 .text          0x0000000000000000        0x0 bin/obj/chsem.o
 .data          0x0000000000000000        0x0 bin/obj/chsem.o
 .bss           0x0000000000000000        0x0 bin/obj/chsem.o
 .text.chSemInit
                0x0000000000000000        0x8 bin/obj/chsem.o
 .text.chSemResetI
                0x0000000000000000       0x28 bin/obj/chsem.o
 .text.chSemReset
                0x0000000000000000       0x18 bin/obj/chsem.o
 .text.chSemWait
                0x0000000000000000       0x44 bin/obj/chsem.o
 .text.chSemWaitS
                0x0000000000000000       0x34 bin/obj/chsem.o
 .text.chSemWaitTimeout
                0x0000000000000000       0x4c bin/obj/chsem.o
 .text.chSemWaitTimeoutS
                0x0000000000000000       0x3c bin/obj/chsem.o
 .text.chSemSignal
                0x0000000000000000       0x34 bin/obj/chsem.o
 .text.chSemSignalI
                0x0000000000000000       0x24 bin/obj/chsem.o
 .text.chSemAddCounterI
                0x0000000000000000       0x30 bin/obj/chsem.o
 .text.chSemSignalWait
                0x0000000000000000       0x6c bin/obj/chsem.o
 .debug_info    0x0000000000000000      0xb75 bin/obj/chsem.o
 .debug_abbrev  0x0000000000000000      0x30b bin/obj/chsem.o
 .debug_loc     0x0000000000000000      0x652 bin/obj/chsem.o
 .debug_aranges
                0x0000000000000000       0x70 bin/obj/chsem.o
 .debug_ranges  0x0000000000000000      0x1b0 bin/obj/chsem.o
 .debug_line    0x0000000000000000      0x3ac bin/obj/chsem.o
 .debug_str     0x0000000000000000      0x4b7 bin/obj/chsem.o
 .comment       0x0000000000000000       0x6f bin/obj/chsem.o
 .debug_frame   0x0000000000000000      0x158 bin/obj/chsem.o
 .ARM.attributes
                0x0000000000000000       0x33 bin/obj/chsem.o
 .text          0x0000000000000000        0x0 bin/obj/chmtx.o
 .data          0x0000000000000000        0x0 bin/obj/chmtx.o
 .bss           0x0000000000000000        0x0 bin/obj/chmtx.o
 .text.chMtxTryLock
                0x0000000000000000       0x30 bin/obj/chmtx.o
 .text.chMtxTryLockS
                0x0000000000000000       0x20 bin/obj/chmtx.o
 .text.chMtxUnlockS
                0x0000000000000000       0x50 bin/obj/chmtx.o
 .text.chMtxUnlockAll
                0x0000000000000000       0x54 bin/obj/chmtx.o
 .text          0x0000000000000000        0x0 bin/obj/chcond.o
 .data          0x0000000000000000        0x0 bin/obj/chcond.o
 .bss           0x0000000000000000        0x0 bin/obj/chcond.o
 .text.chCondInit
                0x0000000000000000        0x8 bin/obj/chcond.o
 .text.chCondSignal
                0x0000000000000000       0x30 bin/obj/chcond.o
 .text.chCondSignalI
                0x0000000000000000       0x20 bin/obj/chcond.o
 .text.chCondBroadcast
                0x0000000000000000       0x34 bin/obj/chcond.o
 .text.chCondBroadcastI
                0x0000000000000000       0x24 bin/obj/chcond.o
 .text.chCondWaitS
                0x0000000000000000       0x44 bin/obj/chcond.o
 .text.chCondWait
                0x0000000000000000       0x14 bin/obj/chcond.o
 .text.chCondWaitTimeoutS
                0x0000000000000000       0x4c bin/obj/chcond.o
 .text.chCondWaitTimeout
                0x0000000000000000       0x14 bin/obj/chcond.o
 .debug_info    0x0000000000000000      0x9a3 bin/obj/chcond.o
 .debug_abbrev  0x0000000000000000      0x2a5 bin/obj/chcond.o
 .debug_loc     0x0000000000000000      0x37b bin/obj/chcond.o
 .debug_aranges
                0x0000000000000000       0x60 bin/obj/chcond.o
 .debug_ranges  0x0000000000000000       0xd0 bin/obj/chcond.o
 .debug_line    0x0000000000000000      0x320 bin/obj/chcond.o
 .debug_str     0x0000000000000000      0x4a5 bin/obj/chcond.o
 .comment       0x0000000000000000       0x6f bin/obj/chcond.o
 .debug_frame   0x0000000000000000      0x120 bin/obj/chcond.o
 .ARM.attributes
                0x0000000000000000       0x33 bin/obj/chcond.o
 .text          0x0000000000000000        0x0 bin/obj/chevents.o
 .data          0x0000000000000000        0x0 bin/obj/chevents.o
 .bss           0x0000000000000000        0x0 bin/obj/chevents.o
 .text.chEvtGetAndClearEvents
                0x0000000000000000       0x24 bin/obj/chevents.o
 .text.chEvtAddEvents
                0x0000000000000000       0x1c bin/obj/chevents.o
 .text.chEvtGetAndClearFlags
                0x0000000000000000       0x18 bin/obj/chevents.o
 .text.chEvtSignal
                0x0000000000000000       0x18 bin/obj/chevents.o
 .text.chEvtBroadcastFlags
                0x0000000000000000       0x18 bin/obj/chevents.o
 .text.chEvtGetAndClearFlagsI
                0x0000000000000000        0xc bin/obj/chevents.o
 .text.chEvtDispatch
                0x0000000000000000       0x34 bin/obj/chevents.o
 .text.chEvtWaitOne
                0x0000000000000000       0x3c bin/obj/chevents.o
 .text.chEvtWaitAny
                0x0000000000000000       0x38 bin/obj/chevents.o
 .text.chEvtWaitAll
                0x0000000000000000       0x34 bin/obj/chevents.o
 .text.chEvtWaitOneTimeout
                0x0000000000000000       0x54 bin/obj/chevents.o
 .text.chEvtWaitAllTimeout
                0x0000000000000000       0x50 bin/obj/chevents.o
 .text          0x0000000000000000        0x0 bin/obj/chmsg.o
 .data          0x0000000000000000        0x0 bin/obj/chmsg.o
 .bss           0x0000000000000000        0x0 bin/obj/chmsg.o
 .text.chMsgSend
                0x0000000000000000       0x40 bin/obj/chmsg.o
 .text.chMsgWait
                0x0000000000000000       0x3c bin/obj/chmsg.o
 .text.chMsgRelease
                0x0000000000000000       0x14 bin/obj/chmsg.o
 .debug_info    0x0000000000000000      0x64f bin/obj/chmsg.o
 .debug_abbrev  0x0000000000000000      0x1ed bin/obj/chmsg.o
 .debug_loc     0x0000000000000000       0xe5 bin/obj/chmsg.o
 .debug_aranges
                0x0000000000000000       0x30 bin/obj/chmsg.o
 .debug_ranges  0x0000000000000000       0x68 bin/obj/chmsg.o
 .debug_line    0x0000000000000000      0x211 bin/obj/chmsg.o
 .debug_str     0x0000000000000000      0x3f0 bin/obj/chmsg.o
 .comment       0x0000000000000000       0x6f bin/obj/chmsg.o
 .debug_frame   0x0000000000000000       0x68 bin/obj/chmsg.o
 .ARM.attributes
                0x0000000000000000       0x33 bin/obj/chmsg.o
 .text          0x0000000000000000        0x0 bin/obj/chmboxes.o
 .data          0x0000000000000000        0x0 bin/obj/chmboxes.o
 .bss           0x0000000000000000        0x0 bin/obj/chmboxes.o
 .text.chMBInit
                0x0000000000000000       0x28 bin/obj/chmboxes.o
 .text.chMBReset
                0x0000000000000000       0x34 bin/obj/chmboxes.o
 .text.chMBPost
                0x0000000000000000       0x44 bin/obj/chmboxes.o
 .text.chMBPostS
                0x0000000000000000       0x38 bin/obj/chmboxes.o
 .text.chMBPostI
                0x0000000000000000       0x34 bin/obj/chmboxes.o
 .text.chMBPostAhead
                0x0000000000000000       0x4c bin/obj/chmboxes.o
 .text.chMBPostAheadS
                0x0000000000000000       0x38 bin/obj/chmboxes.o
 .text.chMBPostAheadI
                0x0000000000000000       0x30 bin/obj/chmboxes.o
 .text.chMBFetch
                0x0000000000000000       0x44 bin/obj/chmboxes.o
 .text.chMBFetchS
                0x0000000000000000       0x38 bin/obj/chmboxes.o
 .text.chMBFetchI
                0x0000000000000000       0x38 bin/obj/chmboxes.o
 .debug_info    0x0000000000000000      0xca2 bin/obj/chmboxes.o
 .debug_abbrev  0x0000000000000000      0x2e2 bin/obj/chmboxes.o
 .debug_loc     0x0000000000000000      0x780 bin/obj/chmboxes.o
 .debug_aranges
                0x0000000000000000       0x70 bin/obj/chmboxes.o
 .debug_ranges  0x0000000000000000      0x108 bin/obj/chmboxes.o
 .debug_line    0x0000000000000000      0x318 bin/obj/chmboxes.o
 .debug_str     0x0000000000000000      0x47f bin/obj/chmboxes.o
 .comment       0x0000000000000000       0x6f bin/obj/chmboxes.o
 .debug_frame   0x0000000000000000      0x16c bin/obj/chmboxes.o
 .ARM.attributes
                0x0000000000000000       0x33 bin/obj/chmboxes.o
 .text          0x0000000000000000        0x0 bin/obj/chqueues.o
 .data          0x0000000000000000        0x0 bin/obj/chqueues.o
 .bss           0x0000000000000000        0x0 bin/obj/chqueues.o
 .text.chOQResetI
                0x0000000000000000       0x30 bin/obj/chqueues.o
 .text          0x0000000000000000        0x0 bin/obj/chmemcore.o
 .data          0x0000000000000000        0x0 bin/obj/chmemcore.o
 .bss           0x0000000000000000        0x0 bin/obj/chmemcore.o
 .text.chCoreAllocI
                0x0000000000000000       0x2c bin/obj/chmemcore.o
 .text          0x0000000000000000        0x0 bin/obj/chheap.o
 .data          0x0000000000000000        0x0 bin/obj/chheap.o
 .bss           0x0000000000000000        0x0 bin/obj/chheap.o
 .text.chHeapInit
                0x0000000000000000       0x14 bin/obj/chheap.o
 .text          0x0000000000000000        0x0 bin/obj/chmempools.o
 .data          0x0000000000000000        0x0 bin/obj/chmempools.o
 .bss           0x0000000000000000        0x0 bin/obj/chmempools.o
 .text.chPoolInit
                0x0000000000000000        0xc bin/obj/chmempools.o
 .text.chPoolLoadArray
                0x0000000000000000       0x24 bin/obj/chmempools.o
 .text.chPoolAllocI
                0x0000000000000000       0x18 bin/obj/chmempools.o
 .text.chPoolAlloc
                0x0000000000000000       0x2c bin/obj/chmempools.o
 .text.chPoolFreeI
                0x0000000000000000        0x8 bin/obj/chmempools.o
 .text          0x0000000000000000        0x0 bin/obj/hal.o
 .data          0x0000000000000000        0x0 bin/obj/hal.o
 .bss           0x0000000000000000        0x0 bin/obj/hal.o
 .text.halIsCounterWithin
                0x0000000000000000       0x28 bin/obj/hal.o
 .text.halPolledDelay
                0x0000000000000000       0x28 bin/obj/hal.o
 .text          0x0000000000000000        0x0 bin/obj/adc.o
 .data          0x0000000000000000        0x0 bin/obj/adc.o
 .bss           0x0000000000000000        0x0 bin/obj/adc.o
 .text.adcStop  0x0000000000000000       0x1c bin/obj/adc.o
 .text.adcStartConversionI
                0x0000000000000000       0x14 bin/obj/adc.o
 .text.adcStopConversion
                0x0000000000000000       0x3c bin/obj/adc.o
 .text.adcStopConversionI
                0x0000000000000000       0x30 bin/obj/adc.o
 .text.adcConvert
                0x0000000000000000       0x38 bin/obj/adc.o
 .text.adcAcquireBus
                0x0000000000000000        0x8 bin/obj/adc.o
 .text.adcReleaseBus
                0x0000000000000000        0x4 bin/obj/adc.o
 .text          0x0000000000000000        0x0 bin/obj/can.o
 .data          0x0000000000000000        0x0 bin/obj/can.o
 .bss           0x0000000000000000        0x0 bin/obj/can.o
 .debug_info    0x0000000000000000       0xa7 bin/obj/can.o
 .debug_abbrev  0x0000000000000000       0x4b bin/obj/can.o
 .debug_aranges
                0x0000000000000000       0x18 bin/obj/can.o
 .debug_line    0x0000000000000000      0x126 bin/obj/can.o
 .debug_str     0x0000000000000000      0x1db bin/obj/can.o
 .comment       0x0000000000000000       0x6f bin/obj/can.o
 .ARM.attributes
                0x0000000000000000       0x33 bin/obj/can.o
 .text          0x0000000000000000        0x0 bin/obj/ext.o
 .data          0x0000000000000000        0x0 bin/obj/ext.o
 .bss           0x0000000000000000        0x0 bin/obj/ext.o
 .text.extStop  0x0000000000000000       0x1c bin/obj/ext.o
 .text.extChannelDisable
                0x0000000000000000       0x14 bin/obj/ext.o
 .text.extSetChannelModeI
                0x0000000000000000       0x20 bin/obj/ext.o
 .text          0x0000000000000000        0x0 bin/obj/gpt.o
 .data          0x0000000000000000        0x0 bin/obj/gpt.o
 .bss           0x0000000000000000        0x0 bin/obj/gpt.o
 .text.gptStop  0x0000000000000000       0x1c bin/obj/gpt.o
 .text.gptChangeInterval
                0x0000000000000000       0x14 bin/obj/gpt.o
 .text.gptStartContinuous
                0x0000000000000000       0x18 bin/obj/gpt.o
 .text.gptStartContinuousI
                0x0000000000000000        0x8 bin/obj/gpt.o
 .text.gptStopTimer
                0x0000000000000000       0x18 bin/obj/gpt.o
 .text.gptStopTimerI
                0x0000000000000000        0x8 bin/obj/gpt.o
 .text.gptPolledDelay
                0x0000000000000000       0x14 bin/obj/gpt.o
 .text          0x0000000000000000        0x0 bin/obj/i2c.o
 .data          0x0000000000000000        0x0 bin/obj/i2c.o
 .bss           0x0000000000000000        0x0 bin/obj/i2c.o
 .text.i2cMasterReceiveTimeout
                0x0000000000000000       0x34 bin/obj/i2c.o
 .text          0x0000000000000000        0x0 bin/obj/icu.o
 .data          0x0000000000000000        0x0 bin/obj/icu.o
 .bss           0x0000000000000000        0x0 bin/obj/icu.o
 .debug_info    0x0000000000000000       0xa7 bin/obj/icu.o
 .debug_abbrev  0x0000000000000000       0x4b bin/obj/icu.o
 .debug_aranges
                0x0000000000000000       0x18 bin/obj/icu.o
 .debug_line    0x0000000000000000      0x126 bin/obj/icu.o
 .debug_str     0x0000000000000000      0x1db bin/obj/icu.o
 .comment       0x0000000000000000       0x6f bin/obj/icu.o
 .ARM.attributes
                0x0000000000000000       0x33 bin/obj/icu.o
 .text          0x0000000000000000        0x0 bin/obj/mac.o
 .data          0x0000000000000000        0x0 bin/obj/mac.o
 .bss           0x0000000000000000        0x0 bin/obj/mac.o
 .debug_info    0x0000000000000000       0xa7 bin/obj/mac.o
 .debug_abbrev  0x0000000000000000       0x4b bin/obj/mac.o
 .debug_aranges
                0x0000000000000000       0x18 bin/obj/mac.o
 .debug_line    0x0000000000000000      0x126 bin/obj/mac.o
 .debug_str     0x0000000000000000      0x1db bin/obj/mac.o
 .comment       0x0000000000000000       0x6f bin/obj/mac.o
 .ARM.attributes
                0x0000000000000000       0x33 bin/obj/mac.o
 .text          0x0000000000000000        0x0 bin/obj/mmc_spi.o
 .data          0x0000000000000000        0x0 bin/obj/mmc_spi.o
 .bss           0x0000000000000000        0x0 bin/obj/mmc_spi.o
 .debug_info    0x0000000000000000       0xa7 bin/obj/mmc_spi.o
 .debug_abbrev  0x0000000000000000       0x4b bin/obj/mmc_spi.o
 .debug_aranges
                0x0000000000000000       0x18 bin/obj/mmc_spi.o
 .debug_line    0x0000000000000000      0x126 bin/obj/mmc_spi.o
 .debug_str     0x0000000000000000      0x1df bin/obj/mmc_spi.o
 .comment       0x0000000000000000       0x6f bin/obj/mmc_spi.o
 .ARM.attributes
                0x0000000000000000       0x33 bin/obj/mmc_spi.o
 .text          0x0000000000000000        0x0 bin/obj/mmcsd.o
 .data          0x0000000000000000        0x0 bin/obj/mmcsd.o
 .bss           0x0000000000000000        0x0 bin/obj/mmcsd.o
 .debug_info    0x0000000000000000       0xa7 bin/obj/mmcsd.o
 .debug_abbrev  0x0000000000000000       0x4b bin/obj/mmcsd.o
 .debug_aranges
                0x0000000000000000       0x18 bin/obj/mmcsd.o
 .debug_line    0x0000000000000000      0x126 bin/obj/mmcsd.o
 .debug_str     0x0000000000000000      0x1dd bin/obj/mmcsd.o
 .comment       0x0000000000000000       0x6f bin/obj/mmcsd.o
 .ARM.attributes
                0x0000000000000000       0x33 bin/obj/mmcsd.o
 .text          0x0000000000000000        0x0 bin/obj/pal.o
 .data          0x0000000000000000        0x0 bin/obj/pal.o
 .bss           0x0000000000000000        0x0 bin/obj/pal.o
 .text.palReadBus
                0x0000000000000000       0x10 bin/obj/pal.o
 .text.palWriteBus
                0x0000000000000000       0x20 bin/obj/pal.o
 .text.palSetBusMode
                0x0000000000000000       0x14 bin/obj/pal.o
 .debug_info    0x0000000000000000      0x257 bin/obj/pal.o
 .debug_abbrev  0x0000000000000000      0x13a bin/obj/pal.o
 .debug_loc     0x0000000000000000       0x8f bin/obj/pal.o
 .debug_aranges
                0x0000000000000000       0x30 bin/obj/pal.o
 .debug_ranges  0x0000000000000000       0x20 bin/obj/pal.o
 .debug_line    0x0000000000000000      0x267 bin/obj/pal.o
 .debug_str     0x0000000000000000      0x292 bin/obj/pal.o
 .comment       0x0000000000000000       0x6f bin/obj/pal.o
 .debug_frame   0x0000000000000000       0x58 bin/obj/pal.o
 .ARM.attributes
                0x0000000000000000       0x33 bin/obj/pal.o
 .text          0x0000000000000000        0x0 bin/obj/pwm.o
 .data          0x0000000000000000        0x0 bin/obj/pwm.o
 .bss           0x0000000000000000        0x0 bin/obj/pwm.o
 .debug_info    0x0000000000000000       0xa7 bin/obj/pwm.o
 .debug_abbrev  0x0000000000000000       0x4b bin/obj/pwm.o
 .debug_aranges
                0x0000000000000000       0x18 bin/obj/pwm.o
 .debug_line    0x0000000000000000      0x126 bin/obj/pwm.o
 .debug_str     0x0000000000000000      0x1db bin/obj/pwm.o
 .comment       0x0000000000000000       0x6f bin/obj/pwm.o
 .ARM.attributes
                0x0000000000000000       0x33 bin/obj/pwm.o
 .text          0x0000000000000000        0x0 bin/obj/rtc.o
 .data          0x0000000000000000        0x0 bin/obj/rtc.o
 .bss           0x0000000000000000        0x0 bin/obj/rtc.o
 .debug_info    0x0000000000000000       0xa7 bin/obj/rtc.o
 .debug_abbrev  0x0000000000000000       0x4b bin/obj/rtc.o
 .debug_aranges
                0x0000000000000000       0x18 bin/obj/rtc.o
 .debug_line    0x0000000000000000      0x126 bin/obj/rtc.o
 .debug_str     0x0000000000000000      0x1db bin/obj/rtc.o
 .comment       0x0000000000000000       0x6f bin/obj/rtc.o
 .ARM.attributes
                0x0000000000000000       0x33 bin/obj/rtc.o
 .text          0x0000000000000000        0x0 bin/obj/sdc.o
 .data          0x0000000000000000        0x0 bin/obj/sdc.o
 .bss           0x0000000000000000        0x0 bin/obj/sdc.o
 .debug_info    0x0000000000000000       0xa7 bin/obj/sdc.o
 .debug_abbrev  0x0000000000000000       0x4b bin/obj/sdc.o
 .debug_aranges
                0x0000000000000000       0x18 bin/obj/sdc.o
 .debug_line    0x0000000000000000      0x126 bin/obj/sdc.o
 .debug_str     0x0000000000000000      0x1db bin/obj/sdc.o
 .comment       0x0000000000000000       0x6f bin/obj/sdc.o
 .ARM.attributes
                0x0000000000000000       0x33 bin/obj/sdc.o
 .text          0x0000000000000000        0x0 bin/obj/serial.o
 .data          0x0000000000000000        0x0 bin/obj/serial.o
 .bss           0x0000000000000000        0x0 bin/obj/serial.o
 .text.sdStop   0x0000000000000000       0x30 bin/obj/serial.o
 .text.sdRequestDataI
                0x0000000000000000       0x20 bin/obj/serial.o
 .text          0x0000000000000000        0x0 bin/obj/serial_usb.o
 .data          0x0000000000000000        0x0 bin/obj/serial_usb.o
 .bss           0x0000000000000000        0x0 bin/obj/serial_usb.o
 .debug_info    0x0000000000000000       0xa7 bin/obj/serial_usb.o
 .debug_abbrev  0x0000000000000000       0x4b bin/obj/serial_usb.o
 .debug_aranges
                0x0000000000000000       0x18 bin/obj/serial_usb.o
 .debug_line    0x0000000000000000      0x126 bin/obj/serial_usb.o
 .debug_str     0x0000000000000000      0x1e2 bin/obj/serial_usb.o
 .comment       0x0000000000000000       0x6f bin/obj/serial_usb.o
 .ARM.attributes
                0x0000000000000000       0x33 bin/obj/serial_usb.o
 .text          0x0000000000000000        0x0 bin/obj/spi.o
 .data          0x0000000000000000        0x0 bin/obj/spi.o
 .bss           0x0000000000000000        0x0 bin/obj/spi.o
 .text.spiStop  0x0000000000000000       0x20 bin/obj/spi.o
 .text.spiSelect
                0x0000000000000000       0x14 bin/obj/spi.o
 .text.spiUnselect
                0x0000000000000000       0x14 bin/obj/spi.o
 .text.spiStartIgnore
                0x0000000000000000       0x18 bin/obj/spi.o
 .text.spiStartExchange
                0x0000000000000000       0x1c bin/obj/spi.o
 .text.spiStartSend
                0x0000000000000000       0x18 bin/obj/spi.o
 .text.spiStartReceive
                0x0000000000000000       0x18 bin/obj/spi.o
 .text.spiIgnore
                0x0000000000000000       0x2c bin/obj/spi.o
 .text.spiExchange
                0x0000000000000000       0x30 bin/obj/spi.o
 .text.spiSend  0x0000000000000000       0x2c bin/obj/spi.o
 .text.spiReceive
                0x0000000000000000       0x2c bin/obj/spi.o
 .text.spiAcquireBus
                0x0000000000000000        0x8 bin/obj/spi.o
 .text.spiReleaseBus
                0x0000000000000000        0x4 bin/obj/spi.o
 .text          0x0000000000000000        0x0 bin/obj/tm.o
 .data          0x0000000000000000        0x0 bin/obj/tm.o
 .bss           0x0000000000000000        0x0 bin/obj/tm.o
 .text.tmObjectInit
                0x0000000000000000       0x24 bin/obj/tm.o
 .text          0x0000000000000000        0x0 bin/obj/uart.o
 .data          0x0000000000000000        0x0 bin/obj/uart.o
 .bss           0x0000000000000000        0x0 bin/obj/uart.o
 .debug_info    0x0000000000000000       0xa7 bin/obj/uart.o
 .debug_abbrev  0x0000000000000000       0x4b bin/obj/uart.o
 .debug_aranges
                0x0000000000000000       0x18 bin/obj/uart.o
 .debug_line    0x0000000000000000      0x126 bin/obj/uart.o
 .debug_str     0x0000000000000000      0x1dc bin/obj/uart.o
 .comment       0x0000000000000000       0x6f bin/obj/uart.o
 .ARM.attributes
                0x0000000000000000       0x33 bin/obj/uart.o
 .text          0x0000000000000000        0x0 bin/obj/usb.o
 .data          0x0000000000000000        0x0 bin/obj/usb.o
 .bss           0x0000000000000000        0x0 bin/obj/usb.o
 .debug_info    0x0000000000000000       0xa7 bin/obj/usb.o
 .debug_abbrev  0x0000000000000000       0x4b bin/obj/usb.o
 .debug_aranges
                0x0000000000000000       0x18 bin/obj/usb.o
 .debug_line    0x0000000000000000      0x126 bin/obj/usb.o
 .debug_str     0x0000000000000000      0x1db bin/obj/usb.o
 .comment       0x0000000000000000       0x6f bin/obj/usb.o
 .ARM.attributes
                0x0000000000000000       0x33 bin/obj/usb.o
 .text          0x0000000000000000        0x0 bin/obj/stm32_dma.o
 .data          0x0000000000000000        0x0 bin/obj/stm32_dma.o
 .bss           0x0000000000000000        0x0 bin/obj/stm32_dma.o
 .text          0x0000000000000000        0x0 bin/obj/hal_lld.o
 .data          0x0000000000000000        0x0 bin/obj/hal_lld.o
 .bss           0x0000000000000000        0x0 bin/obj/hal_lld.o
 .text          0x0000000000000000        0x0 bin/obj/adc_lld.o
 .data          0x0000000000000000        0x0 bin/obj/adc_lld.o
 .bss           0x0000000000000000        0x0 bin/obj/adc_lld.o
 .text.adc_lld_stop
                0x0000000000000000       0x38 bin/obj/adc_lld.o
 .text.adc_lld_stop_conversion
                0x0000000000000000       0x24 bin/obj/adc_lld.o
 .text          0x0000000000000000        0x0 bin/obj/ext_lld_isr.o
 .data          0x0000000000000000        0x0 bin/obj/ext_lld_isr.o
 .bss           0x0000000000000000        0x0 bin/obj/ext_lld_isr.o
 .text.ext_lld_exti_irq_disable
                0x0000000000000000       0x44 bin/obj/ext_lld_isr.o
 .text          0x0000000000000000        0x0 bin/obj/can_lld.o
 .data          0x0000000000000000        0x0 bin/obj/can_lld.o
 .bss           0x0000000000000000        0x0 bin/obj/can_lld.o
 .debug_info    0x0000000000000000       0xa7 bin/obj/can_lld.o
 .debug_abbrev  0x0000000000000000       0x4b bin/obj/can_lld.o
 .debug_aranges
                0x0000000000000000       0x18 bin/obj/can_lld.o
 .debug_line    0x0000000000000000      0x126 bin/obj/can_lld.o
 .debug_str     0x0000000000000000      0x1eb bin/obj/can_lld.o
 .comment       0x0000000000000000       0x6f bin/obj/can_lld.o
 .ARM.attributes
                0x0000000000000000       0x33 bin/obj/can_lld.o
 .text          0x0000000000000000        0x0 bin/obj/ext_lld.o
 .data          0x0000000000000000        0x0 bin/obj/ext_lld.o
 .bss           0x0000000000000000        0x0 bin/obj/ext_lld.o
 .text.ext_lld_stop
                0x0000000000000000       0x24 bin/obj/ext_lld.o
 .text.ext_lld_channel_disable
                0x0000000000000000       0x2c bin/obj/ext_lld.o
 .text          0x0000000000000000        0x0 bin/obj/mac_lld.o
 .data          0x0000000000000000        0x0 bin/obj/mac_lld.o
 .bss           0x0000000000000000        0x0 bin/obj/mac_lld.o
 .debug_info    0x0000000000000000       0xa7 bin/obj/mac_lld.o
 .debug_abbrev  0x0000000000000000       0x4b bin/obj/mac_lld.o
 .debug_aranges
                0x0000000000000000       0x18 bin/obj/mac_lld.o
 .debug_line    0x0000000000000000      0x126 bin/obj/mac_lld.o
 .debug_str     0x0000000000000000      0x1eb bin/obj/mac_lld.o
 .comment       0x0000000000000000       0x6f bin/obj/mac_lld.o
 .ARM.attributes
                0x0000000000000000       0x33 bin/obj/mac_lld.o
 .text          0x0000000000000000        0x0 bin/obj/sdc_lld.o
 .data          0x0000000000000000        0x0 bin/obj/sdc_lld.o
 .bss           0x0000000000000000        0x0 bin/obj/sdc_lld.o
 .debug_info    0x0000000000000000       0xa7 bin/obj/sdc_lld.o
 .debug_abbrev  0x0000000000000000       0x4b bin/obj/sdc_lld.o
 .debug_aranges
                0x0000000000000000       0x18 bin/obj/sdc_lld.o
 .debug_line    0x0000000000000000      0x126 bin/obj/sdc_lld.o
 .debug_str     0x0000000000000000      0x1eb bin/obj/sdc_lld.o
 .comment       0x0000000000000000       0x6f bin/obj/sdc_lld.o
 .ARM.attributes
                0x0000000000000000       0x33 bin/obj/sdc_lld.o
 .text          0x0000000000000000        0x0 bin/obj/pal_lld.o
 .data          0x0000000000000000        0x0 bin/obj/pal_lld.o
 .bss           0x0000000000000000        0x0 bin/obj/pal_lld.o
 .text          0x0000000000000000        0x0 bin/obj/i2c_lld.o
 .data          0x0000000000000000        0x0 bin/obj/i2c_lld.o
 .bss           0x0000000000000000        0x0 bin/obj/i2c_lld.o
 .text.i2c_lld_master_receive_timeout
                0x0000000000000000       0xdc bin/obj/i2c_lld.o
 .text          0x0000000000000000        0x0 bin/obj/rtc_lld.o
 .data          0x0000000000000000        0x0 bin/obj/rtc_lld.o
 .bss           0x0000000000000000        0x0 bin/obj/rtc_lld.o
 .debug_info    0x0000000000000000       0xa7 bin/obj/rtc_lld.o
 .debug_abbrev  0x0000000000000000       0x4b bin/obj/rtc_lld.o
 .debug_aranges
                0x0000000000000000       0x18 bin/obj/rtc_lld.o
 .debug_line    0x0000000000000000      0x126 bin/obj/rtc_lld.o
 .debug_str     0x0000000000000000      0x1f1 bin/obj/rtc_lld.o
 .comment       0x0000000000000000       0x6f bin/obj/rtc_lld.o
 .ARM.attributes
                0x0000000000000000       0x33 bin/obj/rtc_lld.o
 .text          0x0000000000000000        0x0 bin/obj/spi_lld.o
 .data          0x0000000000000000        0x0 bin/obj/spi_lld.o
 .bss           0x0000000000000000        0x0 bin/obj/spi_lld.o
 .text.spi_lld_stop
                0x0000000000000000       0x3c bin/obj/spi_lld.o
 .text.spi_lld_ignore
                0x0000000000000000       0x3c bin/obj/spi_lld.o
 .text.spi_lld_exchange
                0x0000000000000000       0x38 bin/obj/spi_lld.o
 .text.spi_lld_send
                0x0000000000000000       0x38 bin/obj/spi_lld.o
 .text.spi_lld_receive
                0x0000000000000000       0x38 bin/obj/spi_lld.o
 .bss.dummyrx   0x0000000000000000        0x2 bin/obj/spi_lld.o
 .text          0x0000000000000000        0x0 bin/obj/gpt_lld.o
 .data          0x0000000000000000        0x0 bin/obj/gpt_lld.o
 .bss           0x0000000000000000        0x0 bin/obj/gpt_lld.o
 .text.gpt_lld_stop
                0x0000000000000000       0x6c bin/obj/gpt_lld.o
 .text.gpt_lld_stop_timer
                0x0000000000000000       0x14 bin/obj/gpt_lld.o
 .text.gpt_lld_polled_delay
                0x0000000000000000       0x20 bin/obj/gpt_lld.o
 .text          0x0000000000000000        0x0 bin/obj/icu_lld.o
 .data          0x0000000000000000        0x0 bin/obj/icu_lld.o
 .bss           0x0000000000000000        0x0 bin/obj/icu_lld.o
 .debug_info    0x0000000000000000       0xa7 bin/obj/icu_lld.o
 .debug_abbrev  0x0000000000000000       0x4b bin/obj/icu_lld.o
 .debug_aranges
                0x0000000000000000       0x18 bin/obj/icu_lld.o
 .debug_line    0x0000000000000000      0x126 bin/obj/icu_lld.o
 .debug_str     0x0000000000000000      0x1f1 bin/obj/icu_lld.o
 .comment       0x0000000000000000       0x6f bin/obj/icu_lld.o
 .ARM.attributes
                0x0000000000000000       0x33 bin/obj/icu_lld.o
 .text          0x0000000000000000        0x0 bin/obj/pwm_lld.o
 .data          0x0000000000000000        0x0 bin/obj/pwm_lld.o
 .bss           0x0000000000000000        0x0 bin/obj/pwm_lld.o
 .debug_info    0x0000000000000000       0xa7 bin/obj/pwm_lld.o
 .debug_abbrev  0x0000000000000000       0x4b bin/obj/pwm_lld.o
 .debug_aranges
                0x0000000000000000       0x18 bin/obj/pwm_lld.o
 .debug_line    0x0000000000000000      0x126 bin/obj/pwm_lld.o
 .debug_str     0x0000000000000000      0x1f1 bin/obj/pwm_lld.o
 .comment       0x0000000000000000       0x6f bin/obj/pwm_lld.o
 .ARM.attributes
                0x0000000000000000       0x33 bin/obj/pwm_lld.o
 .text          0x0000000000000000        0x0 bin/obj/serial_lld.o
 .data          0x0000000000000000        0x0 bin/obj/serial_lld.o
 .bss           0x0000000000000000        0x0 bin/obj/serial_lld.o
 .text.sd_lld_stop
                0x0000000000000000       0x6c bin/obj/serial_lld.o
 .text          0x0000000000000000        0x0 bin/obj/uart_lld.o
 .data          0x0000000000000000        0x0 bin/obj/uart_lld.o
 .bss           0x0000000000000000        0x0 bin/obj/uart_lld.o
 .debug_info    0x0000000000000000       0xa7 bin/obj/uart_lld.o
 .debug_abbrev  0x0000000000000000       0x4b bin/obj/uart_lld.o
 .debug_aranges
                0x0000000000000000       0x18 bin/obj/uart_lld.o
 .debug_line    0x0000000000000000      0x126 bin/obj/uart_lld.o
 .debug_str     0x0000000000000000      0x1f4 bin/obj/uart_lld.o
 .comment       0x0000000000000000       0x6f bin/obj/uart_lld.o
 .ARM.attributes
                0x0000000000000000       0x33 bin/obj/uart_lld.o
 .text          0x0000000000000000        0x0 bin/obj/usb_lld.o
 .data          0x0000000000000000        0x0 bin/obj/usb_lld.o
 .bss           0x0000000000000000        0x0 bin/obj/usb_lld.o
 .debug_info    0x0000000000000000       0xa7 bin/obj/usb_lld.o
 .debug_abbrev  0x0000000000000000       0x4b bin/obj/usb_lld.o
 .debug_aranges
                0x0000000000000000       0x18 bin/obj/usb_lld.o
 .debug_line    0x0000000000000000      0x126 bin/obj/usb_lld.o
 .debug_str     0x0000000000000000      0x1f1 bin/obj/usb_lld.o
 .comment       0x0000000000000000       0x6f bin/obj/usb_lld.o
 .ARM.attributes
                0x0000000000000000       0x33 bin/obj/usb_lld.o
 .text          0x0000000000000000        0x0 bin/obj/board.o
 .data          0x0000000000000000        0x0 bin/obj/board.o
 .bss           0x0000000000000000        0x0 bin/obj/board.o
 .text          0x0000000000000000        0x0 bin/obj/evtimer.o
 .data          0x0000000000000000        0x0 bin/obj/evtimer.o
 .bss           0x0000000000000000        0x0 bin/obj/evtimer.o
 .text.tmrcb    0x0000000000000000       0x2c bin/obj/evtimer.o
 .text.evtStart
                0x0000000000000000       0x2c bin/obj/evtimer.o
 .text.evtStop  0x0000000000000000       0x18 bin/obj/evtimer.o
 .debug_info    0x0000000000000000      0x685 bin/obj/evtimer.o
 .debug_abbrev  0x0000000000000000      0x17f bin/obj/evtimer.o
 .debug_loc     0x0000000000000000       0x9a bin/obj/evtimer.o
 .debug_aranges
                0x0000000000000000       0x30 bin/obj/evtimer.o
 .debug_ranges  0x0000000000000000       0x50 bin/obj/evtimer.o
 .debug_line    0x0000000000000000      0x1f4 bin/obj/evtimer.o
 .debug_str     0x0000000000000000      0x43f bin/obj/evtimer.o
 .comment       0x0000000000000000       0x6f bin/obj/evtimer.o
 .debug_frame   0x0000000000000000       0x64 bin/obj/evtimer.o
 .ARM.attributes
                0x0000000000000000       0x33 bin/obj/evtimer.o
 .text          0x0000000000000000        0x0 bin/obj/syscalls.o
 .data          0x0000000000000000        0x0 bin/obj/syscalls.o
 .bss           0x0000000000000000        0x0 bin/obj/syscalls.o
 .text._read_r  0x0000000000000000        0xc bin/obj/syscalls.o
 .text._lseek_r
                0x0000000000000000        0x4 bin/obj/syscalls.o
 .text._write_r
                0x0000000000000000        0x4 bin/obj/syscalls.o
 .text._close_r
                0x0000000000000000        0x4 bin/obj/syscalls.o
 .text._sbrk_r  0x0000000000000000       0x18 bin/obj/syscalls.o
 .text._fstat_r
                0x0000000000000000       0x18 bin/obj/syscalls.o
 .text._isatty_r
                0x0000000000000000        0x4 bin/obj/syscalls.o
 .debug_info    0x0000000000000000      0xc76 bin/obj/syscalls.o
 .debug_abbrev  0x0000000000000000      0x209 bin/obj/syscalls.o
 .debug_loc     0x0000000000000000      0x183 bin/obj/syscalls.o
 .debug_aranges
                0x0000000000000000       0x50 bin/obj/syscalls.o
 .debug_ranges  0x0000000000000000       0x40 bin/obj/syscalls.o
 .debug_line    0x0000000000000000      0x261 bin/obj/syscalls.o
 .debug_str     0x0000000000000000      0x729 bin/obj/syscalls.o
 .comment       0x0000000000000000       0x6f bin/obj/syscalls.o
 .debug_frame   0x0000000000000000       0x98 bin/obj/syscalls.o
 .ARM.attributes
                0x0000000000000000       0x33 bin/obj/syscalls.o
 .text          0x0000000000000000        0x0 bin/obj/chprintf.o
 .data          0x0000000000000000        0x0 bin/obj/chprintf.o
 .bss           0x0000000000000000        0x0 bin/obj/chprintf.o
 .text.chsnprintf
                0x0000000000000000       0x3c bin/obj/chprintf.o
 .text          0x0000000000000000        0x0 bin/obj/vexshell.o
 .data          0x0000000000000000        0x0 bin/obj/vexshell.o
 .bss           0x0000000000000000        0x0 bin/obj/vexshell.o
 .text.shellCreateStatic
                0x0000000000000000       0x1c bin/obj/vexshell.o
 .text          0x0000000000000000        0x0 bin/obj/vexcortex.o
 .data          0x0000000000000000        0x0 bin/obj/vexcortex.o
 .bss           0x0000000000000000        0x0 bin/obj/vexcortex.o
 .text.vexTaskIsRegistered
                0x0000000000000000       0x20 bin/obj/vexcortex.o
 .text.vexTaskPersistentGet
                0x0000000000000000       0x34 bin/obj/vexcortex.o
 .text.vexTaskPersistentSet
                0x0000000000000000       0x30 bin/obj/vexcortex.o
 .text.vexTaskDebug
                0x0000000000000000       0x60 bin/obj/vexcortex.o
 .text.vexTaskEmergencyStop
                0x0000000000000000       0x20 bin/obj/vexcortex.o
 .text.vexWatchdogInit
                0x0000000000000000       0x28 bin/obj/vexcortex.o
 .text.vexWatchdogReload
                0x0000000000000000       0x10 bin/obj/vexcortex.o
 .text.vexWatchdogResetFlagGet
                0x0000000000000000       0x10 bin/obj/vexcortex.o
 .text          0x0000000000000000        0x0 bin/obj/vexdigital.o
 .data          0x0000000000000000        0x0 bin/obj/vexdigital.o
 .bss           0x0000000000000000        0x0 bin/obj/vexdigital.o
 .text.vexDigitalModeGet
                0x0000000000000000       0x1c bin/obj/vexdigital.o
 .text          0x0000000000000000        0x0 bin/obj/vexconfig.o
 .data          0x0000000000000000        0x0 bin/obj/vexconfig.o
 .bss           0x0000000000000000        0x0 bin/obj/vexconfig.o
 .text          0x0000000000000000        0x0 bin/obj/vexext.o
 .data          0x0000000000000000        0x0 bin/obj/vexext.o
 .bss           0x0000000000000000        0x0 bin/obj/vexext.o
 .text          0x0000000000000000        0x0 bin/obj/vexencoder.o
 .data          0x0000000000000000        0x0 bin/obj/vexencoder.o
 .bss           0x0000000000000000        0x0 bin/obj/vexencoder.o
 .text.vexEncoderStop
                0x0000000000000000       0x38 bin/obj/vexencoder.o
 .text          0x0000000000000000        0x0 bin/obj/vexsonar.o
 .data          0x0000000000000000        0x0 bin/obj/vexsonar.o
 .bss           0x0000000000000000        0x0 bin/obj/vexsonar.o
 .text.vexSonarStart
                0x0000000000000000       0x20 bin/obj/vexsonar.o
 .text.vexSonarStop
                0x0000000000000000       0x20 bin/obj/vexsonar.o
 .text          0x0000000000000000        0x0 bin/obj/vexmotor.o
 .data          0x0000000000000000        0x0 bin/obj/vexmotor.o
 .bss           0x0000000000000000        0x0 bin/obj/vexmotor.o
 .text.vexMotorPositionSet
                0x0000000000000000       0x44 bin/obj/vexmotor.o
 .text          0x0000000000000000        0x0 bin/obj/vexspi.o
 .data          0x0000000000000000        0x0 bin/obj/vexspi.o
 .bss           0x0000000000000000        0x0 bin/obj/vexspi.o
 .text.vexSpiTeamnameSet
                0x0000000000000000       0x28 bin/obj/vexspi.o
 .text.vexSpiModeStandalone
                0x0000000000000000        0xc bin/obj/vexspi.o
 .text          0x0000000000000000        0x0 bin/obj/vexlcd.o
 .data          0x0000000000000000        0x0 bin/obj/vexlcd.o
 .bss           0x0000000000000000        0x0 bin/obj/vexlcd.o
 .text.vexLcdSet
                0x0000000000000000        0xc bin/obj/vexlcd.o
 .text.vexLcdSetAt
                0x0000000000000000       0x38 bin/obj/vexlcd.o
 .text.vexLcdPrintfAt
                0x0000000000000000       0x68 bin/obj/vexlcd.o
 .text.vexLcdClearLine
                0x0000000000000000       0x14 bin/obj/vexlcd.o
 .text.vexLcdBacklight
                0x0000000000000000       0x30 bin/obj/vexlcd.o
 .text.vexLcdButtonGet
                0x0000000000000000       0x1c bin/obj/vexlcd.o
 .text.vexLcdSendMessage
                0x0000000000000000        0xc bin/obj/vexlcd.o
 .text          0x0000000000000000        0x0 bin/obj/vexanalog.o
 .data          0x0000000000000000        0x0 bin/obj/vexanalog.o
 .bss           0x0000000000000000        0x0 bin/obj/vexanalog.o
 .text          0x0000000000000000        0x0 bin/obj/vexctl.o
 .data          0x0000000000000000        0x0 bin/obj/vexctl.o
 .bss           0x0000000000000000        0x0 bin/obj/vexctl.o
 .text.vexControllerCompetitionStateSet
                0x0000000000000000       0x34 bin/obj/vexctl.o
 .text.vexControllerReleaseWait
                0x0000000000000000       0x28 bin/obj/vexctl.o
 .text          0x0000000000000000        0x0 bin/obj/vexime.o
 .data          0x0000000000000000        0x0 bin/obj/vexime.o
 .bss           0x0000000000000000        0x0 bin/obj/vexime.o
 .text.vexImeGetPtr
                0x0000000000000000       0x18 bin/obj/vexime.o
 .text.vexImeGetChannelMax
                0x0000000000000000        0xc bin/obj/vexime.o
 .text.vexImeMotorGetCount
                0x0000000000000000       0x3c bin/obj/vexime.o
 .text.vexIMEGetStatus
                0x0000000000000000       0x50 bin/obj/vexime.o
 .text.vexIMEGetScratchpad
                0x0000000000000000       0x58 bin/obj/vexime.o
 .text.vexIMESetScratchpad
                0x0000000000000000       0x94 bin/obj/vexime.o
 .text          0x0000000000000000        0x0 bin/obj/vexprintf.o
 .data          0x0000000000000000        0x0 bin/obj/vexprintf.o
 .bss           0x0000000000000000        0x0 bin/obj/vexprintf.o
 .text.vex_printf
                0x0000000000000000       0x5c bin/obj/vexprintf.o
 .text.vex_vprintf
                0x0000000000000000       0x54 bin/obj/vexprintf.o
 .text.vex_vchprintf
                0x0000000000000000       0x54 bin/obj/vexprintf.o
 .text.vex_sprintf
                0x0000000000000000       0x58 bin/obj/vexprintf.o
 .text.vex_snprintf
                0x0000000000000000       0x60 bin/obj/vexprintf.o
 .text.vex_vsprintf
                0x0000000000000000       0x50 bin/obj/vexprintf.o
 .text          0x0000000000000000        0x0 bin/obj/vexaudio.o
 .data          0x0000000000000000        0x0 bin/obj/vexaudio.o
 .bss           0x0000000000000000        0x0 bin/obj/vexaudio.o
 .text.VSL_CreateSineWave.part.0
                0x0000000000000000       0x3c bin/obj/vexaudio.o
 .text.VSL_InitTimer.part.1
                0x0000000000000000       0x40 bin/obj/vexaudio.o
 .text.vexAudioStopSound
                0x0000000000000000       0x2c bin/obj/vexaudio.o
 .text.vexAudioInitChipToneSong
                0x0000000000000000       0x84 bin/obj/vexaudio.o
 .text.vexAudioDeinitChipToneSong
                0x0000000000000000       0x20 bin/obj/vexaudio.o
 .text.vexAudioStopChipToneSong
                0x0000000000000000       0x14 bin/obj/vexaudio.o
 .text.vexAudioSetNextChipTone
                0x0000000000000000       0x40 bin/obj/vexaudio.o
 .text.vexAudioDebugChipTone
                0x0000000000000000       0x44 bin/obj/vexaudio.o
 .text.VSL_Factorize
                0x0000000000000000       0x5c bin/obj/vexaudio.o
 .text.VSL_CreateSineWave
                0x0000000000000000        0xc bin/obj/vexaudio.o
 .text.VSL_InitTimer
                0x0000000000000000       0x30 bin/obj/vexaudio.o
 .text.VSL_Init
                0x0000000000000000       0x9c bin/obj/vexaudio.o
 .text.vexAudioPlaySound
                0x0000000000000000       0xd8 bin/obj/vexaudio.o
 .text.vexAudioPlaySoundWait
                0x0000000000000000       0x3c bin/obj/vexaudio.o
 .text.vexAudioPlayNextChipTone
                0x0000000000000000       0x68 bin/obj/vexaudio.o
 .text.vexAudioStartChipToneSong
                0x0000000000000000       0x24 bin/obj/vexaudio.o
 .text.vexAudioTask
                0x0000000000000000       0xa4 bin/obj/vexaudio.o
 .text.VSL_Deinit
                0x0000000000000000       0x28 bin/obj/vexaudio.o
 .rodata.sinPreCalc
                0x0000000000000000       0x80 bin/obj/vexaudio.o
 .bss.vslThread
                0x0000000000000000        0x4 bin/obj/vexaudio.o
 .bss.Sine12bit
                0x0000000000000000       0x40 bin/obj/vexaudio.o
 .bss.vslSem    0x0000000000000000        0xc bin/obj/vexaudio.o
 .data.current_amplitude.7451
                0x0000000000000000        0x4 bin/obj/vexaudio.o
 .bss.ctPlayPtr
                0x0000000000000000        0x4 bin/obj/vexaudio.o
 .bss.ctRepeat  0x0000000000000000        0x4 bin/obj/vexaudio.o
 .bss.ctSetPtr  0x0000000000000000        0x4 bin/obj/vexaudio.o
 .rodata.str1.4
                0x0000000000000000       0x12 bin/obj/vexaudio.o
 .bss.ctAmplitude
                0x0000000000000000        0x4 bin/obj/vexaudio.o
 .bss.VSL_ctarray
                0x0000000000000000        0x4 bin/obj/vexaudio.o
 .bss.ctSize    0x0000000000000000        0x4 bin/obj/vexaudio.o
 .data.sound_done
                0x0000000000000000        0x4 bin/obj/vexaudio.o
 .bss.VSL_Counter
                0x0000000000000000        0x4 bin/obj/vexaudio.o
 .debug_info    0x0000000000000000     0x137d bin/obj/vexaudio.o
 .debug_abbrev  0x0000000000000000      0x3e6 bin/obj/vexaudio.o
 .debug_loc     0x0000000000000000      0x5b8 bin/obj/vexaudio.o
 .debug_aranges
                0x0000000000000000       0xa8 bin/obj/vexaudio.o
 .debug_ranges  0x0000000000000000       0xf8 bin/obj/vexaudio.o
 .debug_line    0x0000000000000000      0x553 bin/obj/vexaudio.o
 .debug_str     0x0000000000000000      0xac7 bin/obj/vexaudio.o
 .comment       0x0000000000000000       0x6f bin/obj/vexaudio.o
 .debug_frame   0x0000000000000000      0x25c bin/obj/vexaudio.o
 .ARM.attributes
                0x0000000000000000       0x33 bin/obj/vexaudio.o
 .text          0x0000000000000000        0x0 bin/obj/vexrttl.o
 .data          0x0000000000000000        0x0 bin/obj/vexrttl.o
 .bss           0x0000000000000000        0x0 bin/obj/vexrttl.o
 .text.vexAudioPlayRtttl
                0x0000000000000000      0x32c bin/obj/vexrttl.o
 .rodata.notefreq
                0x0000000000000000       0x30 bin/obj/vexrttl.o
 .rodata.str1.4
                0x0000000000000000        0x1 bin/obj/vexrttl.o
 .bss.name      0x0000000000000000       0x30 bin/obj/vexrttl.o
 .debug_info    0x0000000000000000      0x394 bin/obj/vexrttl.o
 .debug_abbrev  0x0000000000000000      0x16d bin/obj/vexrttl.o
 .debug_loc     0x0000000000000000      0x447 bin/obj/vexrttl.o
 .debug_aranges
                0x0000000000000000       0x20 bin/obj/vexrttl.o
 .debug_ranges  0x0000000000000000       0x90 bin/obj/vexrttl.o
 .debug_line    0x0000000000000000      0x25e bin/obj/vexrttl.o
 .debug_str     0x0000000000000000      0x41b bin/obj/vexrttl.o
 .comment       0x0000000000000000       0x6f bin/obj/vexrttl.o
 .debug_frame   0x0000000000000000       0x4c bin/obj/vexrttl.o
 .ARM.attributes
                0x0000000000000000       0x33 bin/obj/vexrttl.o
 .text          0x0000000000000000        0x0 bin/obj/vexsensor.o
 .data          0x0000000000000000        0x0 bin/obj/vexsensor.o
 .bss           0x0000000000000000        0x0 bin/obj/vexsensor.o
 .text.vexSensorIsAnalog
                0x0000000000000000        0xc bin/obj/vexsensor.o
 .text.vexSensorValueGet
                0x0000000000000000       0x90 bin/obj/vexsensor.o
 .text.vexSensorValueSet
                0x0000000000000000       0x4c bin/obj/vexsensor.o
 .debug_info    0x0000000000000000      0x4cf bin/obj/vexsensor.o
 .debug_abbrev  0x0000000000000000      0x138 bin/obj/vexsensor.o
 .debug_loc     0x0000000000000000      0x26e bin/obj/vexsensor.o
 .debug_aranges
                0x0000000000000000       0x30 bin/obj/vexsensor.o
 .debug_ranges  0x0000000000000000       0x80 bin/obj/vexsensor.o
 .debug_line    0x0000000000000000      0x256 bin/obj/vexsensor.o
 .debug_str     0x0000000000000000      0x6c1 bin/obj/vexsensor.o
 .comment       0x0000000000000000       0x6f bin/obj/vexsensor.o
 .debug_frame   0x0000000000000000       0xa4 bin/obj/vexsensor.o
 .ARM.attributes
                0x0000000000000000       0x33 bin/obj/vexsensor.o
 .text          0x0000000000000000        0x0 bin/obj/vexbkup.o
 .data          0x0000000000000000        0x0 bin/obj/vexbkup.o
 .bss           0x0000000000000000        0x0 bin/obj/vexbkup.o
 .text.vexBkupInit
                0x0000000000000000       0x20 bin/obj/vexbkup.o
 .text.vexBkupRegisterWrite
                0x0000000000000000       0x28 bin/obj/vexbkup.o
 .text.vexBkupRegisterRead
                0x0000000000000000       0x30 bin/obj/vexbkup.o
 .text.vexBkupDebug
                0x0000000000000000       0x9c bin/obj/vexbkup.o
 .rodata.str1.4
                0x0000000000000000       0x38 bin/obj/vexbkup.o
 .debug_info    0x0000000000000000      0xa88 bin/obj/vexbkup.o
 .debug_abbrev  0x0000000000000000      0x205 bin/obj/vexbkup.o
 .debug_loc     0x0000000000000000      0x1ff bin/obj/vexbkup.o
 .debug_aranges
                0x0000000000000000       0x38 bin/obj/vexbkup.o
 .debug_ranges  0x0000000000000000       0x28 bin/obj/vexbkup.o
 .debug_line    0x0000000000000000      0x301 bin/obj/vexbkup.o
 .debug_str     0x0000000000000000      0x5d6 bin/obj/vexbkup.o
 .comment       0x0000000000000000       0x6f bin/obj/vexbkup.o
 .debug_frame   0x0000000000000000       0x6c bin/obj/vexbkup.o
 .ARM.attributes
                0x0000000000000000       0x33 bin/obj/vexbkup.o
 .text          0x0000000000000000        0x0 bin/obj/vextest.o
 .data          0x0000000000000000        0x0 bin/obj/vextest.o
 .bss           0x0000000000000000        0x0 bin/obj/vextest.o
 .text          0x0000000000000000        0x0 bin/obj/robotc_glue.o
 .data          0x0000000000000000        0x0 bin/obj/robotc_glue.o
 .bss           0x0000000000000000        0x0 bin/obj/robotc_glue.o
 .text.vexRobotcTask
                0x0000000000000000       0x1c bin/obj/robotc_glue.o
 .text.StartTaskWithPriority
                0x0000000000000000       0x98 bin/obj/robotc_glue.o
 .text.StopTask
                0x0000000000000000       0x6c bin/obj/robotc_glue.o
 .data.init.7450
                0x0000000000000000        0x1 bin/obj/robotc_glue.o
 .rodata.str1.4
                0x0000000000000000        0xc bin/obj/robotc_glue.o
 .text          0x0000000000000000        0x0 bin/obj/smartmotor.o
 .data          0x0000000000000000        0x0 bin/obj/smartmotor.o
 .bss           0x0000000000000000        0x0 bin/obj/smartmotor.o
 .text.SmartMotorSlewRateTask
                0x0000000000000000      0x178 bin/obj/smartmotor.o
 .text.SmartMotorGetPtr
                0x0000000000000000       0x18 bin/obj/smartmotor.o
 .text.SmartMotorControllerGetPtr
                0x0000000000000000       0x18 bin/obj/smartmotor.o
 .text.SmartMotorGetLimitCmd
                0x0000000000000000       0x20 bin/obj/smartmotor.o
 .text._SmartMotorSetLimitCurent
                0x0000000000000000       0x20 bin/obj/smartmotor.o
 .text.SmartMotorSetFreeRpm
                0x0000000000000000       0x74 bin/obj/smartmotor.o
 .text.SmartMotorSetSlewRate
                0x0000000000000000       0x1c bin/obj/smartmotor.o
 .text.SmartMotorSetControllerStatusLed
                0x0000000000000000       0x1c bin/obj/smartmotor.o
 .text.SmartMotorSetPowerExpanderStatusPort
                0x0000000000000000       0x14 bin/obj/smartmotor.o
 .text.SmartMotorPtcMonitorEnable
                0x0000000000000000       0x18 bin/obj/smartmotor.o
 .text.SmartMotorPtcMonitorDisable
                0x0000000000000000        0xc bin/obj/smartmotor.o
 .text.SmartMotorCurrentMonitorEnable
                0x0000000000000000       0x18 bin/obj/smartmotor.o
 .text.SmartMotorCurrentMonitorDisable
                0x0000000000000000        0xc bin/obj/smartmotor.o
 .text.SmartMotorRun
                0x0000000000000000       0x24 bin/obj/smartmotor.o
 .text.SmartMotorStop
                0x0000000000000000       0x2c bin/obj/smartmotor.o
 .text.SmartMotorDebugStatus
                0x0000000000000000       0xd8 bin/obj/smartmotor.o
 .text._SetMotor
                0x0000000000000000       0x6c bin/obj/smartmotor.o
 .text.SmartMotorsInit
                0x0000000000000000      0x2f8 bin/obj/smartmotor.o
 .text.SmartMotorLinkMotors
                0x0000000000000000       0x44 bin/obj/smartmotor.o
 .text.SmartMotorsSetEncoderGearing
                0x0000000000000000       0x28 bin/obj/smartmotor.o
 .text._SmartMotorsAddPowerExtender
                0x0000000000000000       0x74 bin/obj/smartmotor.o
 .text._SmartMotorSetRpmSensor
                0x0000000000000000       0x38 bin/obj/smartmotor.o
 .text.SmartMotorSpeed
                0x0000000000000000       0x7c bin/obj/smartmotor.o
 .text.SmartMotorSimulateSpeed
                0x0000000000000000       0xd0 bin/obj/smartmotor.o
 .text.SmartMotorCurrent
                0x0000000000000000      0x4dc bin/obj/smartmotor.o
 .text.SmartMotorControllerCurrent
                0x0000000000000000       0x40 bin/obj/smartmotor.o
 .text.SmartMotorSafeCommand
                0x0000000000000000      0x194 bin/obj/smartmotor.o
 .text.SmartMotorTemperature
                0x0000000000000000       0x4c bin/obj/smartmotor.o
 .text.SmartMotorControllerTemperature
                0x0000000000000000       0x4c bin/obj/smartmotor.o
 .text.SmartMotorMonitorPtc
                0x0000000000000000       0x6c bin/obj/smartmotor.o
 .text.SmartMotorControllerMonitorPtc
                0x0000000000000000       0xc8 bin/obj/smartmotor.o
 .text.SmartMotorMonitorCurrent
                0x0000000000000000       0x78 bin/obj/smartmotor.o
 .text.SmartMotorControllerSetLed
                0x0000000000000000       0x3c bin/obj/smartmotor.o
 .text.SmartMotorTask
                0x0000000000000000      0x2a8 bin/obj/smartmotor.o
 .bss.PtcLimitEnabled
                0x0000000000000000        0x2 bin/obj/smartmotor.o
 .bss.CurrentLimitEnabled
                0x0000000000000000        0x2 bin/obj/smartmotor.o
 .data.delayTimeMs.8947
                0x0000000000000000        0x4 bin/obj/smartmotor.o
 .rodata.str1.4
                0x0000000000000000       0xa3 bin/obj/smartmotor.o
 .rodata.spd_table.8862
                0x0000000000000000       0x14 bin/obj/smartmotor.o
 .text          0x0000000000000000        0x0 bin/obj/apollo.o
 .data          0x0000000000000000        0x0 bin/obj/apollo.o
 .bss           0x0000000000000000        0x0 bin/obj/apollo.o
 .text.apolloUpdateJoystickAnalog
                0x0000000000000000       0x30 bin/obj/apollo.o
 .text          0x0000000000000000        0x0 bin/obj/pidlib.o
 .data          0x0000000000000000        0x0 bin/obj/pidlib.o
 .bss           0x0000000000000000        0x0 bin/obj/pidlib.o
 .text.PidControllerUpdate
                0x0000000000000000      0x200 bin/obj/pidlib.o
 .text.PidControllerMakeLut
                0x0000000000000000      0x11c bin/obj/pidlib.o
 .text.PidControllerInit
                0x0000000000000000       0x74 bin/obj/pidlib.o
 .text.PidControllerInitWithBias
                0x0000000000000000       0x20 bin/obj/pidlib.o
 .bss.PidDriveLut
                0x0000000000000000      0x100 bin/obj/pidlib.o
 .debug_info    0x0000000000000000      0x66e bin/obj/pidlib.o
 .debug_abbrev  0x0000000000000000      0x26a bin/obj/pidlib.o
 .debug_loc     0x0000000000000000      0x2da bin/obj/pidlib.o
 .debug_aranges
                0x0000000000000000       0x38 bin/obj/pidlib.o
 .debug_ranges  0x0000000000000000       0xc8 bin/obj/pidlib.o
 .debug_line    0x0000000000000000      0x2ef bin/obj/pidlib.o
 .debug_str     0x0000000000000000      0x5d8 bin/obj/pidlib.o
 .comment       0x0000000000000000       0x6f bin/obj/pidlib.o
 .debug_frame   0x0000000000000000       0xec bin/obj/pidlib.o
 .ARM.attributes
                0x0000000000000000       0x33 bin/obj/pidlib.o
 .text          0x0000000000000000        0x0 bin/obj/vexgyro.o
 .data          0x0000000000000000        0x0 bin/obj/vexgyro.o
 .bss           0x0000000000000000        0x0 bin/obj/vexgyro.o
 .text.vexGyroTask
                0x0000000000000000       0xc0 bin/obj/vexgyro.o
 .text.vexGyroInit.part.0
                0x0000000000000000       0x34 bin/obj/vexgyro.o
 .text.vexGyroGet
                0x0000000000000000        0xc bin/obj/vexgyro.o
 .text.vexGyroInit
                0x0000000000000000        0xc bin/obj/vexgyro.o
 .text.vexGyroReset
                0x0000000000000000       0x34 bin/obj/vexgyro.o
 .bss.gyroThread
                0x0000000000000000        0x4 bin/obj/vexgyro.o
 .rodata.GyroJitterRange
                0x0000000000000000        0x4 bin/obj/vexgyro.o
 .rodata.str1.4
                0x0000000000000000        0x5 bin/obj/vexgyro.o
 .bss.GyroValue
                0x0000000000000000        0x4 bin/obj/vexgyro.o
 .bss.waVexGyroTask
                0x0000000000000000      0x2b0 bin/obj/vexgyro.o
 .bss.gyroAnalogPin
                0x0000000000000000        0x1 bin/obj/vexgyro.o
 .debug_info    0x0000000000000000      0x7f2 bin/obj/vexgyro.o
 .debug_abbrev  0x0000000000000000      0x271 bin/obj/vexgyro.o
 .debug_loc     0x0000000000000000      0x17c bin/obj/vexgyro.o
 .debug_aranges
                0x0000000000000000       0x40 bin/obj/vexgyro.o
 .debug_ranges  0x0000000000000000       0x48 bin/obj/vexgyro.o
 .debug_line    0x0000000000000000      0x2c3 bin/obj/vexgyro.o
 .debug_str     0x0000000000000000      0x705 bin/obj/vexgyro.o
 .comment       0x0000000000000000       0x6f bin/obj/vexgyro.o
 .debug_frame   0x0000000000000000       0xa0 bin/obj/vexgyro.o
 .ARM.attributes
                0x0000000000000000       0x33 bin/obj/vexgyro.o
 .text          0x0000000000000000        0x0 bin/obj/vexflash.o
 .data          0x0000000000000000        0x0 bin/obj/vexflash.o
 .bss           0x0000000000000000        0x0 bin/obj/vexflash.o
 .text.vexFlashUserParamRead
                0x0000000000000000       0x78 bin/obj/vexflash.o
 .text.vexFlashUserParamWrite
                0x0000000000000000       0xe4 bin/obj/vexflash.o
 .text.vexFlashUserParamInit
                0x0000000000000000       0x48 bin/obj/vexflash.o
 .bss.erase_done.7546
                0x0000000000000000        0x2 bin/obj/vexflash.o
 .bss.params    0x0000000000000000       0x28 bin/obj/vexflash.o
 .bss.user_param_write_limit.7539
                0x0000000000000000        0x2 bin/obj/vexflash.o
 .debug_info    0x0000000000000000      0x494 bin/obj/vexflash.o
 .debug_abbrev  0x0000000000000000      0x198 bin/obj/vexflash.o
 .debug_loc     0x0000000000000000      0x416 bin/obj/vexflash.o
 .debug_aranges
                0x0000000000000000       0x30 bin/obj/vexflash.o
 .debug_ranges  0x0000000000000000       0x20 bin/obj/vexflash.o
 .debug_line    0x0000000000000000      0x26f bin/obj/vexflash.o
 .debug_str     0x0000000000000000      0x4ed bin/obj/vexflash.o
 .comment       0x0000000000000000       0x6f bin/obj/vexflash.o
 .debug_frame   0x0000000000000000       0x88 bin/obj/vexflash.o
 .ARM.attributes
                0x0000000000000000       0x33 bin/obj/vexflash.o
 .text          0x0000000000000000        0x0 bin/obj/stm32_flash.o
 .data          0x0000000000000000        0x0 bin/obj/stm32_flash.o
 .bss           0x0000000000000000        0x0 bin/obj/stm32_flash.o
 .text.FLASH_GetBank1Status
                0x0000000000000000       0x28 bin/obj/stm32_flash.o
 .text.FLASH_WaitForLastOperation
                0x0000000000000000       0x24 bin/obj/stm32_flash.o
 .text.FLASH_ErasePage
                0x0000000000000000       0x40 bin/obj/stm32_flash.o
 .text.FLASH_ClearFlag
                0x0000000000000000        0xc bin/obj/stm32_flash.o
 .text.FLASH_ProgramWord
                0x0000000000000000       0x68 bin/obj/stm32_flash.o
 .text.FLASH_ProgramHalfWord
                0x0000000000000000       0x38 bin/obj/stm32_flash.o
 .text.FLASH_UnlockBank1
                0x0000000000000000       0x18 bin/obj/stm32_flash.o
 .debug_info    0x0000000000000000      0x3af bin/obj/stm32_flash.o
 .debug_abbrev  0x0000000000000000      0x1df bin/obj/stm32_flash.o
 .debug_loc     0x0000000000000000      0x221 bin/obj/stm32_flash.o
 .debug_aranges
                0x0000000000000000       0x50 bin/obj/stm32_flash.o
 .debug_ranges  0x0000000000000000       0x40 bin/obj/stm32_flash.o
 .debug_line    0x0000000000000000      0x26f bin/obj/stm32_flash.o
 .debug_str     0x0000000000000000      0x342 bin/obj/stm32_flash.o
 .comment       0x0000000000000000       0x6f bin/obj/stm32_flash.o
 .debug_frame   0x0000000000000000       0xcc bin/obj/stm32_flash.o
 .ARM.attributes
                0x0000000000000000       0x33 bin/obj/stm32_flash.o
 .text          0x0000000000000000        0x0 bin/obj/vexuser.o
 .data          0x0000000000000000        0x0 bin/obj/vexuser.o
 .bss           0x0000000000000000        0x0 bin/obj/vexuser.o
 .text          0x0000000000000000        0x0 bin/obj/main.o
 .data          0x0000000000000000        0x0 bin/obj/main.o
 .bss           0x0000000000000000        0x0 bin/obj/main.o
 .data          0x0000000000000000        0x0 /Users/Luca/src/vexilla/src/gcc-arm-none-eabi-5_4-2016q3/bin/../lib/gcc/arm-none-eabi/5.4.1/armv7-m/libgcc.a(_arm_addsubdf3.o)
 .bss           0x0000000000000000        0x0 /Users/Luca/src/vexilla/src/gcc-arm-none-eabi-5_4-2016q3/bin/../lib/gcc/arm-none-eabi/5.4.1/armv7-m/libgcc.a(_arm_addsubdf3.o)
 .data          0x0000000000000000        0x0 /Users/Luca/src/vexilla/src/gcc-arm-none-eabi-5_4-2016q3/bin/../lib/gcc/arm-none-eabi/5.4.1/armv7-m/libgcc.a(_arm_muldivdf3.o)
 .bss           0x0000000000000000        0x0 /Users/Luca/src/vexilla/src/gcc-arm-none-eabi-5_4-2016q3/bin/../lib/gcc/arm-none-eabi/5.4.1/armv7-m/libgcc.a(_arm_muldivdf3.o)
 .data          0x0000000000000000        0x0 /Users/Luca/src/vexilla/src/gcc-arm-none-eabi-5_4-2016q3/bin/../lib/gcc/arm-none-eabi/5.4.1/armv7-m/libgcc.a(_arm_cmpdf2.o)
 .bss           0x0000000000000000        0x0 /Users/Luca/src/vexilla/src/gcc-arm-none-eabi-5_4-2016q3/bin/../lib/gcc/arm-none-eabi/5.4.1/armv7-m/libgcc.a(_arm_cmpdf2.o)
 .text          0x0000000000000000       0x50 /Users/Luca/src/vexilla/src/gcc-arm-none-eabi-5_4-2016q3/bin/../lib/gcc/arm-none-eabi/5.4.1/armv7-m/libgcc.a(_arm_fixdfsi.o)
 .data          0x0000000000000000        0x0 /Users/Luca/src/vexilla/src/gcc-arm-none-eabi-5_4-2016q3/bin/../lib/gcc/arm-none-eabi/5.4.1/armv7-m/libgcc.a(_arm_fixdfsi.o)
 .bss           0x0000000000000000        0x0 /Users/Luca/src/vexilla/src/gcc-arm-none-eabi-5_4-2016q3/bin/../lib/gcc/arm-none-eabi/5.4.1/armv7-m/libgcc.a(_arm_fixdfsi.o)
 .ARM.attributes
                0x0000000000000000       0x1d /Users/Luca/src/vexilla/src/gcc-arm-none-eabi-5_4-2016q3/bin/../lib/gcc/arm-none-eabi/5.4.1/armv7-m/libgcc.a(_arm_fixdfsi.o)
 .data          0x0000000000000000        0x0 /Users/Luca/src/vexilla/src/gcc-arm-none-eabi-5_4-2016q3/bin/../lib/gcc/arm-none-eabi/5.4.1/armv7-m/libgcc.a(_arm_fixunsdfsi.o)
 .bss           0x0000000000000000        0x0 /Users/Luca/src/vexilla/src/gcc-arm-none-eabi-5_4-2016q3/bin/../lib/gcc/arm-none-eabi/5.4.1/armv7-m/libgcc.a(_arm_fixunsdfsi.o)
 .text          0x0000000000000000       0xa0 /Users/Luca/src/vexilla/src/gcc-arm-none-eabi-5_4-2016q3/bin/../lib/gcc/arm-none-eabi/5.4.1/armv7-m/libgcc.a(_arm_truncdfsf2.o)
 .data          0x0000000000000000        0x0 /Users/Luca/src/vexilla/src/gcc-arm-none-eabi-5_4-2016q3/bin/../lib/gcc/arm-none-eabi/5.4.1/armv7-m/libgcc.a(_arm_truncdfsf2.o)
 .bss           0x0000000000000000        0x0 /Users/Luca/src/vexilla/src/gcc-arm-none-eabi-5_4-2016q3/bin/../lib/gcc/arm-none-eabi/5.4.1/armv7-m/libgcc.a(_arm_truncdfsf2.o)
 .ARM.attributes
                0x0000000000000000       0x1d /Users/Luca/src/vexilla/src/gcc-arm-none-eabi-5_4-2016q3/bin/../lib/gcc/arm-none-eabi/5.4.1/armv7-m/libgcc.a(_arm_truncdfsf2.o)
 .text          0x0000000000000000      0x21c /Users/Luca/src/vexilla/src/gcc-arm-none-eabi-5_4-2016q3/bin/../lib/gcc/arm-none-eabi/5.4.1/armv7-m/libgcc.a(_arm_addsubsf3.o)
 .data          0x0000000000000000        0x0 /Users/Luca/src/vexilla/src/gcc-arm-none-eabi-5_4-2016q3/bin/../lib/gcc/arm-none-eabi/5.4.1/armv7-m/libgcc.a(_arm_addsubsf3.o)
 .bss           0x0000000000000000        0x0 /Users/Luca/src/vexilla/src/gcc-arm-none-eabi-5_4-2016q3/bin/../lib/gcc/arm-none-eabi/5.4.1/armv7-m/libgcc.a(_arm_addsubsf3.o)
 .ARM.attributes
                0x0000000000000000       0x1d /Users/Luca/src/vexilla/src/gcc-arm-none-eabi-5_4-2016q3/bin/../lib/gcc/arm-none-eabi/5.4.1/armv7-m/libgcc.a(_arm_addsubsf3.o)
 .text          0x0000000000000000      0x2a0 /Users/Luca/src/vexilla/src/gcc-arm-none-eabi-5_4-2016q3/bin/../lib/gcc/arm-none-eabi/5.4.1/armv7-m/libgcc.a(_arm_muldivsf3.o)
 .data          0x0000000000000000        0x0 /Users/Luca/src/vexilla/src/gcc-arm-none-eabi-5_4-2016q3/bin/../lib/gcc/arm-none-eabi/5.4.1/armv7-m/libgcc.a(_arm_muldivsf3.o)
 .bss           0x0000000000000000        0x0 /Users/Luca/src/vexilla/src/gcc-arm-none-eabi-5_4-2016q3/bin/../lib/gcc/arm-none-eabi/5.4.1/armv7-m/libgcc.a(_arm_muldivsf3.o)
 .ARM.attributes
                0x0000000000000000       0x1d /Users/Luca/src/vexilla/src/gcc-arm-none-eabi-5_4-2016q3/bin/../lib/gcc/arm-none-eabi/5.4.1/armv7-m/libgcc.a(_arm_muldivsf3.o)
 .text          0x0000000000000000       0xec /Users/Luca/src/vexilla/src/gcc-arm-none-eabi-5_4-2016q3/bin/../lib/gcc/arm-none-eabi/5.4.1/armv7-m/libgcc.a(_arm_cmpsf2.o)
 .data          0x0000000000000000        0x0 /Users/Luca/src/vexilla/src/gcc-arm-none-eabi-5_4-2016q3/bin/../lib/gcc/arm-none-eabi/5.4.1/armv7-m/libgcc.a(_arm_cmpsf2.o)
 .bss           0x0000000000000000        0x0 /Users/Luca/src/vexilla/src/gcc-arm-none-eabi-5_4-2016q3/bin/../lib/gcc/arm-none-eabi/5.4.1/armv7-m/libgcc.a(_arm_cmpsf2.o)
 .ARM.attributes
                0x0000000000000000       0x1d /Users/Luca/src/vexilla/src/gcc-arm-none-eabi-5_4-2016q3/bin/../lib/gcc/arm-none-eabi/5.4.1/armv7-m/libgcc.a(_arm_cmpsf2.o)
 .data          0x0000000000000000        0x0 /Users/Luca/src/vexilla/src/gcc-arm-none-eabi-5_4-2016q3/bin/../lib/gcc/arm-none-eabi/5.4.1/armv7-m/libgcc.a(_arm_fixsfsi.o)
 .bss           0x0000000000000000        0x0 /Users/Luca/src/vexilla/src/gcc-arm-none-eabi-5_4-2016q3/bin/../lib/gcc/arm-none-eabi/5.4.1/armv7-m/libgcc.a(_arm_fixsfsi.o)
 .text          0x0000000000000000       0x40 /Users/Luca/src/vexilla/src/gcc-arm-none-eabi-5_4-2016q3/bin/../lib/gcc/arm-none-eabi/5.4.1/armv7-m/libgcc.a(_arm_fixunssfsi.o)
 .data          0x0000000000000000        0x0 /Users/Luca/src/vexilla/src/gcc-arm-none-eabi-5_4-2016q3/bin/../lib/gcc/arm-none-eabi/5.4.1/armv7-m/libgcc.a(_arm_fixunssfsi.o)
 .bss           0x0000000000000000        0x0 /Users/Luca/src/vexilla/src/gcc-arm-none-eabi-5_4-2016q3/bin/../lib/gcc/arm-none-eabi/5.4.1/armv7-m/libgcc.a(_arm_fixunssfsi.o)
 .ARM.attributes
                0x0000000000000000       0x1d /Users/Luca/src/vexilla/src/gcc-arm-none-eabi-5_4-2016q3/bin/../lib/gcc/arm-none-eabi/5.4.1/armv7-m/libgcc.a(_arm_fixunssfsi.o)
 .text          0x0000000000000000        0x0 /Users/Luca/src/vexilla/src/gcc-arm-none-eabi-5_4-2016q3/bin/../lib/gcc/arm-none-eabi/5.4.1/../../../../arm-none-eabi/lib/armv7-m/libc.a(lib_a-atoi.o)
 .data          0x0000000000000000        0x0 /Users/Luca/src/vexilla/src/gcc-arm-none-eabi-5_4-2016q3/bin/../lib/gcc/arm-none-eabi/5.4.1/../../../../arm-none-eabi/lib/armv7-m/libc.a(lib_a-atoi.o)
 .bss           0x0000000000000000        0x0 /Users/Luca/src/vexilla/src/gcc-arm-none-eabi-5_4-2016q3/bin/../lib/gcc/arm-none-eabi/5.4.1/../../../../arm-none-eabi/lib/armv7-m/libc.a(lib_a-atoi.o)
 .text._atoi_r  0x0000000000000000        0x8 /Users/Luca/src/vexilla/src/gcc-arm-none-eabi-5_4-2016q3/bin/../lib/gcc/arm-none-eabi/5.4.1/../../../../arm-none-eabi/lib/armv7-m/libc.a(lib_a-atoi.o)
 .text          0x0000000000000000        0x0 /Users/Luca/src/vexilla/src/gcc-arm-none-eabi-5_4-2016q3/bin/../lib/gcc/arm-none-eabi/5.4.1/../../../../arm-none-eabi/lib/armv7-m/libc.a(lib_a-memset.o)
 .data          0x0000000000000000        0x0 /Users/Luca/src/vexilla/src/gcc-arm-none-eabi-5_4-2016q3/bin/../lib/gcc/arm-none-eabi/5.4.1/../../../../arm-none-eabi/lib/armv7-m/libc.a(lib_a-memset.o)
 .bss           0x0000000000000000        0x0 /Users/Luca/src/vexilla/src/gcc-arm-none-eabi-5_4-2016q3/bin/../lib/gcc/arm-none-eabi/5.4.1/../../../../arm-none-eabi/lib/armv7-m/libc.a(lib_a-memset.o)
 .text.memset   0x0000000000000000       0x9c /Users/Luca/src/vexilla/src/gcc-arm-none-eabi-5_4-2016q3/bin/../lib/gcc/arm-none-eabi/5.4.1/../../../../arm-none-eabi/lib/armv7-m/libc.a(lib_a-memset.o)
 .debug_frame   0x0000000000000000       0x34 /Users/Luca/src/vexilla/src/gcc-arm-none-eabi-5_4-2016q3/bin/../lib/gcc/arm-none-eabi/5.4.1/../../../../arm-none-eabi/lib/armv7-m/libc.a(lib_a-memset.o)
 .ARM.attributes
                0x0000000000000000       0x2d /Users/Luca/src/vexilla/src/gcc-arm-none-eabi-5_4-2016q3/bin/../lib/gcc/arm-none-eabi/5.4.1/../../../../arm-none-eabi/lib/armv7-m/libc.a(lib_a-memset.o)
 .text          0x0000000000000000        0x0 /Users/Luca/src/vexilla/src/gcc-arm-none-eabi-5_4-2016q3/bin/../lib/gcc/arm-none-eabi/5.4.1/../../../../arm-none-eabi/lib/armv7-m/libc.a(lib_a-strcasecmp.o)
 .data          0x0000000000000000        0x0 /Users/Luca/src/vexilla/src/gcc-arm-none-eabi-5_4-2016q3/bin/../lib/gcc/arm-none-eabi/5.4.1/../../../../arm-none-eabi/lib/armv7-m/libc.a(lib_a-strcasecmp.o)
 .bss           0x0000000000000000        0x0 /Users/Luca/src/vexilla/src/gcc-arm-none-eabi-5_4-2016q3/bin/../lib/gcc/arm-none-eabi/5.4.1/../../../../arm-none-eabi/lib/armv7-m/libc.a(lib_a-strcasecmp.o)
 .text          0x0000000000000000        0x0 /Users/Luca/src/vexilla/src/gcc-arm-none-eabi-5_4-2016q3/bin/../lib/gcc/arm-none-eabi/5.4.1/../../../../arm-none-eabi/lib/armv7-m/libc.a(lib_a-strchr.o)
 .data          0x0000000000000000        0x0 /Users/Luca/src/vexilla/src/gcc-arm-none-eabi-5_4-2016q3/bin/../lib/gcc/arm-none-eabi/5.4.1/../../../../arm-none-eabi/lib/armv7-m/libc.a(lib_a-strchr.o)
 .bss           0x0000000000000000        0x0 /Users/Luca/src/vexilla/src/gcc-arm-none-eabi-5_4-2016q3/bin/../lib/gcc/arm-none-eabi/5.4.1/../../../../arm-none-eabi/lib/armv7-m/libc.a(lib_a-strchr.o)
 .text          0x0000000000000000        0x0 /Users/Luca/src/vexilla/src/gcc-arm-none-eabi-5_4-2016q3/bin/../lib/gcc/arm-none-eabi/5.4.1/../../../../arm-none-eabi/lib/armv7-m/libc.a(lib_a-strncpy.o)
 .data          0x0000000000000000        0x0 /Users/Luca/src/vexilla/src/gcc-arm-none-eabi-5_4-2016q3/bin/../lib/gcc/arm-none-eabi/5.4.1/../../../../arm-none-eabi/lib/armv7-m/libc.a(lib_a-strncpy.o)
 .bss           0x0000000000000000        0x0 /Users/Luca/src/vexilla/src/gcc-arm-none-eabi-5_4-2016q3/bin/../lib/gcc/arm-none-eabi/5.4.1/../../../../arm-none-eabi/lib/armv7-m/libc.a(lib_a-strncpy.o)
 .text          0x0000000000000000        0x0 /Users/Luca/src/vexilla/src/gcc-arm-none-eabi-5_4-2016q3/bin/../lib/gcc/arm-none-eabi/5.4.1/../../../../arm-none-eabi/lib/armv7-m/libc.a(lib_a-strspn.o)
 .data          0x0000000000000000        0x0 /Users/Luca/src/vexilla/src/gcc-arm-none-eabi-5_4-2016q3/bin/../lib/gcc/arm-none-eabi/5.4.1/../../../../arm-none-eabi/lib/armv7-m/libc.a(lib_a-strspn.o)
 .bss           0x0000000000000000        0x0 /Users/Luca/src/vexilla/src/gcc-arm-none-eabi-5_4-2016q3/bin/../lib/gcc/arm-none-eabi/5.4.1/../../../../arm-none-eabi/lib/armv7-m/libc.a(lib_a-strspn.o)
 .text          0x0000000000000000        0x0 /Users/Luca/src/vexilla/src/gcc-arm-none-eabi-5_4-2016q3/bin/../lib/gcc/arm-none-eabi/5.4.1/../../../../arm-none-eabi/lib/armv7-m/libc.a(lib_a-strtol.o)
 .data          0x0000000000000000        0x0 /Users/Luca/src/vexilla/src/gcc-arm-none-eabi-5_4-2016q3/bin/../lib/gcc/arm-none-eabi/5.4.1/../../../../arm-none-eabi/lib/armv7-m/libc.a(lib_a-strtol.o)
 .bss           0x0000000000000000        0x0 /Users/Luca/src/vexilla/src/gcc-arm-none-eabi-5_4-2016q3/bin/../lib/gcc/arm-none-eabi/5.4.1/../../../../arm-none-eabi/lib/armv7-m/libc.a(lib_a-strtol.o)
 .text._strtol_r
                0x0000000000000000       0x24 /Users/Luca/src/vexilla/src/gcc-arm-none-eabi-5_4-2016q3/bin/../lib/gcc/arm-none-eabi/5.4.1/../../../../arm-none-eabi/lib/armv7-m/libc.a(lib_a-strtol.o)
 .text.strtol_l
                0x0000000000000000       0x20 /Users/Luca/src/vexilla/src/gcc-arm-none-eabi-5_4-2016q3/bin/../lib/gcc/arm-none-eabi/5.4.1/../../../../arm-none-eabi/lib/armv7-m/libc.a(lib_a-strtol.o)
 .text          0x0000000000000000        0x0 /Users/Luca/src/vexilla/src/gcc-arm-none-eabi-5_4-2016q3/bin/../lib/gcc/arm-none-eabi/5.4.1/../../../../arm-none-eabi/lib/armv7-m/libc.a(lib_a-impure.o)
 .data          0x0000000000000000        0x0 /Users/Luca/src/vexilla/src/gcc-arm-none-eabi-5_4-2016q3/bin/../lib/gcc/arm-none-eabi/5.4.1/../../../../arm-none-eabi/lib/armv7-m/libc.a(lib_a-impure.o)
 .bss           0x0000000000000000        0x0 /Users/Luca/src/vexilla/src/gcc-arm-none-eabi-5_4-2016q3/bin/../lib/gcc/arm-none-eabi/5.4.1/../../../../arm-none-eabi/lib/armv7-m/libc.a(lib_a-impure.o)
 .rodata._global_impure_ptr
                0x0000000000000000        0x4 /Users/Luca/src/vexilla/src/gcc-arm-none-eabi-5_4-2016q3/bin/../lib/gcc/arm-none-eabi/5.4.1/../../../../arm-none-eabi/lib/armv7-m/libc.a(lib_a-impure.o)
 .text          0x0000000000000000        0x0 /Users/Luca/src/vexilla/src/gcc-arm-none-eabi-5_4-2016q3/bin/../lib/gcc/arm-none-eabi/5.4.1/../../../../arm-none-eabi/lib/armv7-m/libc.a(lib_a-locale.o)
 .data          0x0000000000000000        0x0 /Users/Luca/src/vexilla/src/gcc-arm-none-eabi-5_4-2016q3/bin/../lib/gcc/arm-none-eabi/5.4.1/../../../../arm-none-eabi/lib/armv7-m/libc.a(lib_a-locale.o)
 .bss           0x0000000000000000        0x0 /Users/Luca/src/vexilla/src/gcc-arm-none-eabi-5_4-2016q3/bin/../lib/gcc/arm-none-eabi/5.4.1/../../../../arm-none-eabi/lib/armv7-m/libc.a(lib_a-locale.o)
 .text._setlocale_r
                0x0000000000000000       0x40 /Users/Luca/src/vexilla/src/gcc-arm-none-eabi-5_4-2016q3/bin/../lib/gcc/arm-none-eabi/5.4.1/../../../../arm-none-eabi/lib/armv7-m/libc.a(lib_a-locale.o)
 .text.__locale_mb_cur_max
                0x0000000000000000       0x1c /Users/Luca/src/vexilla/src/gcc-arm-none-eabi-5_4-2016q3/bin/../lib/gcc/arm-none-eabi/5.4.1/../../../../arm-none-eabi/lib/armv7-m/libc.a(lib_a-locale.o)
 .text.setlocale
                0x0000000000000000       0x10 /Users/Luca/src/vexilla/src/gcc-arm-none-eabi-5_4-2016q3/bin/../lib/gcc/arm-none-eabi/5.4.1/../../../../arm-none-eabi/lib/armv7-m/libc.a(lib_a-locale.o)
 .bss._PathLocale
                0x0000000000000000        0x4 /Users/Luca/src/vexilla/src/gcc-arm-none-eabi-5_4-2016q3/bin/../lib/gcc/arm-none-eabi/5.4.1/../../../../arm-none-eabi/lib/armv7-m/libc.a(lib_a-locale.o)
 .text          0x0000000000000000        0x0 /Users/Luca/src/vexilla/src/gcc-arm-none-eabi-5_4-2016q3/bin/../lib/gcc/arm-none-eabi/5.4.1/../../../../arm-none-eabi/lib/armv7-m/libc.a(lib_a-mbtowc_r.o)
 .data          0x0000000000000000        0x0 /Users/Luca/src/vexilla/src/gcc-arm-none-eabi-5_4-2016q3/bin/../lib/gcc/arm-none-eabi/5.4.1/../../../../arm-none-eabi/lib/armv7-m/libc.a(lib_a-mbtowc_r.o)
 .bss           0x0000000000000000        0x0 /Users/Luca/src/vexilla/src/gcc-arm-none-eabi-5_4-2016q3/bin/../lib/gcc/arm-none-eabi/5.4.1/../../../../arm-none-eabi/lib/armv7-m/libc.a(lib_a-mbtowc_r.o)
 .text._mbtowc_r
                0x0000000000000000       0x24 /Users/Luca/src/vexilla/src/gcc-arm-none-eabi-5_4-2016q3/bin/../lib/gcc/arm-none-eabi/5.4.1/../../../../arm-none-eabi/lib/armv7-m/libc.a(lib_a-mbtowc_r.o)
 .text          0x0000000000000000      0x1bc /Users/Luca/src/vexilla/src/gcc-arm-none-eabi-5_4-2016q3/bin/../lib/gcc/arm-none-eabi/5.4.1/../../../../arm-none-eabi/lib/armv7-m/libc.a(lib_a-strcmp.o)
 .data          0x0000000000000000        0x0 /Users/Luca/src/vexilla/src/gcc-arm-none-eabi-5_4-2016q3/bin/../lib/gcc/arm-none-eabi/5.4.1/../../../../arm-none-eabi/lib/armv7-m/libc.a(lib_a-strcmp.o)
 .bss           0x0000000000000000        0x0 /Users/Luca/src/vexilla/src/gcc-arm-none-eabi-5_4-2016q3/bin/../lib/gcc/arm-none-eabi/5.4.1/../../../../arm-none-eabi/lib/armv7-m/libc.a(lib_a-strcmp.o)
 .debug_frame   0x0000000000000000       0x34 /Users/Luca/src/vexilla/src/gcc-arm-none-eabi-5_4-2016q3/bin/../lib/gcc/arm-none-eabi/5.4.1/../../../../arm-none-eabi/lib/armv7-m/libc.a(lib_a-strcmp.o)
 .ARM.attributes
                0x0000000000000000       0x1b /Users/Luca/src/vexilla/src/gcc-arm-none-eabi-5_4-2016q3/bin/../lib/gcc/arm-none-eabi/5.4.1/../../../../arm-none-eabi/lib/armv7-m/libc.a(lib_a-strcmp.o)
 .text          0x0000000000000000        0x0 /Users/Luca/src/vexilla/src/gcc-arm-none-eabi-5_4-2016q3/bin/../lib/gcc/arm-none-eabi/5.4.1/../../../../arm-none-eabi/lib/armv7-m/libc.a(lib_a-wctomb_r.o)
 .data          0x0000000000000000        0x0 /Users/Luca/src/vexilla/src/gcc-arm-none-eabi-5_4-2016q3/bin/../lib/gcc/arm-none-eabi/5.4.1/../../../../arm-none-eabi/lib/armv7-m/libc.a(lib_a-wctomb_r.o)
 .bss           0x0000000000000000        0x0 /Users/Luca/src/vexilla/src/gcc-arm-none-eabi-5_4-2016q3/bin/../lib/gcc/arm-none-eabi/5.4.1/../../../../arm-none-eabi/lib/armv7-m/libc.a(lib_a-wctomb_r.o)
 .text._wctomb_r
                0x0000000000000000       0x24 /Users/Luca/src/vexilla/src/gcc-arm-none-eabi-5_4-2016q3/bin/../lib/gcc/arm-none-eabi/5.4.1/../../../../arm-none-eabi/lib/armv7-m/libc.a(lib_a-wctomb_r.o)
 .text          0x0000000000000000        0x0 /Users/Luca/src/vexilla/src/gcc-arm-none-eabi-5_4-2016q3/bin/../lib/gcc/arm-none-eabi/5.4.1/../../../../arm-none-eabi/lib/armv7-m/libc.a(lib_a-ctype_.o)
 .data          0x0000000000000000        0x0 /Users/Luca/src/vexilla/src/gcc-arm-none-eabi-5_4-2016q3/bin/../lib/gcc/arm-none-eabi/5.4.1/../../../../arm-none-eabi/lib/armv7-m/libc.a(lib_a-ctype_.o)
 .bss           0x0000000000000000        0x0 /Users/Luca/src/vexilla/src/gcc-arm-none-eabi-5_4-2016q3/bin/../lib/gcc/arm-none-eabi/5.4.1/../../../../arm-none-eabi/lib/armv7-m/libc.a(lib_a-ctype_.o)

Memory Configuration

Name             Origin             Length             Attributes
flash            0x0000000008000000 0x0000000000060000
ram              0x0000000020000000 0x0000000000010000
*default*        0x0000000000000000 0xffffffffffffffff

Linker script and memory map

LOAD bin/obj/crt0.o
LOAD bin/obj/vectors.o
LOAD bin/obj/chcore.o
LOAD bin/obj/chcore_v7m.o
LOAD bin/obj/nvic.o
LOAD bin/obj/chsys.o
LOAD bin/obj/chdebug.o
LOAD bin/obj/chlists.o
LOAD bin/obj/chvt.o
LOAD bin/obj/chschd.o
LOAD bin/obj/chthreads.o
LOAD bin/obj/chdynamic.o
LOAD bin/obj/chregistry.o
LOAD bin/obj/chsem.o
LOAD bin/obj/chmtx.o
LOAD bin/obj/chcond.o
LOAD bin/obj/chevents.o
LOAD bin/obj/chmsg.o
LOAD bin/obj/chmboxes.o
LOAD bin/obj/chqueues.o
LOAD bin/obj/chmemcore.o
LOAD bin/obj/chheap.o
LOAD bin/obj/chmempools.o
LOAD bin/obj/hal.o
LOAD bin/obj/adc.o
LOAD bin/obj/can.o
LOAD bin/obj/ext.o
LOAD bin/obj/gpt.o
LOAD bin/obj/i2c.o
LOAD bin/obj/icu.o
LOAD bin/obj/mac.o
LOAD bin/obj/mmc_spi.o
LOAD bin/obj/mmcsd.o
LOAD bin/obj/pal.o
LOAD bin/obj/pwm.o
LOAD bin/obj/rtc.o
LOAD bin/obj/sdc.o
LOAD bin/obj/serial.o
LOAD bin/obj/serial_usb.o
LOAD bin/obj/spi.o
LOAD bin/obj/tm.o
LOAD bin/obj/uart.o
LOAD bin/obj/usb.o
LOAD bin/obj/stm32_dma.o
LOAD bin/obj/hal_lld.o
LOAD bin/obj/adc_lld.o
LOAD bin/obj/ext_lld_isr.o
LOAD bin/obj/can_lld.o
LOAD bin/obj/ext_lld.o
LOAD bin/obj/mac_lld.o
LOAD bin/obj/sdc_lld.o
LOAD bin/obj/pal_lld.o
LOAD bin/obj/i2c_lld.o
LOAD bin/obj/rtc_lld.o
LOAD bin/obj/spi_lld.o
LOAD bin/obj/gpt_lld.o
LOAD bin/obj/icu_lld.o
LOAD bin/obj/pwm_lld.o
LOAD bin/obj/serial_lld.o
LOAD bin/obj/uart_lld.o
LOAD bin/obj/usb_lld.o
LOAD bin/obj/board.o
LOAD bin/obj/evtimer.o
LOAD bin/obj/syscalls.o
LOAD bin/obj/chprintf.o
LOAD bin/obj/vexshell.o
LOAD bin/obj/vexcortex.o
LOAD bin/obj/vexdigital.o
LOAD bin/obj/vexconfig.o
LOAD bin/obj/vexext.o
LOAD bin/obj/vexencoder.o
LOAD bin/obj/vexsonar.o
LOAD bin/obj/vexmotor.o
LOAD bin/obj/vexspi.o
LOAD bin/obj/vexlcd.o
LOAD bin/obj/vexanalog.o
LOAD bin/obj/vexctl.o
LOAD bin/obj/vexime.o
LOAD bin/obj/vexprintf.o
LOAD bin/obj/vexaudio.o
LOAD bin/obj/vexrttl.o
LOAD bin/obj/vexsensor.o
LOAD bin/obj/vexbkup.o
LOAD bin/obj/vextest.o
LOAD bin/obj/robotc_glue.o
LOAD bin/obj/smartmotor.o
LOAD bin/obj/apollo.o
LOAD bin/obj/pidlib.o
LOAD bin/obj/vexgyro.o
LOAD bin/obj/vexflash.o
LOAD bin/obj/stm32_flash.o
LOAD bin/obj/vexuser.o
LOAD bin/obj/main.o
LOAD /Users/Luca/src/vexilla/src/gcc-arm-none-eabi-5_4-2016q3/bin/../lib/gcc/arm-none-eabi/5.4.1/../../../../arm-none-eabi/lib/armv7-m/libm.a
START GROUP
LOAD /Users/Luca/src/vexilla/src/gcc-arm-none-eabi-5_4-2016q3/bin/../lib/gcc/arm-none-eabi/5.4.1/armv7-m/libgcc.a
LOAD /Users/Luca/src/vexilla/src/gcc-arm-none-eabi-5_4-2016q3/bin/../lib/gcc/arm-none-eabi/5.4.1/../../../../arm-none-eabi/lib/armv7-m/libc.a
END GROUP
                0x0000000000000400                __main_stack_size__ = 0x400
                0x0000000000000400                __process_stack_size__ = 0x400
                0x0000000020000000                __ram_start__ = ORIGIN (ram)
                0x0000000000010000                __ram_size__ = LENGTH (ram)
                0x0000000020010000                __ram_end__ = (__ram_start__ + __ram_size__)
                0x0000000000000000                . = 0x0
                0x0000000000000000                _text = .

startup         0x0000000008000000      0x130
 *(vectors)
 vectors        0x0000000008000000      0x130 bin/obj/vectors.o
                0x0000000008000000                _vectors

constructors    0x0000000008000130        0x0
                0x0000000008000130                PROVIDE (__init_array_start, .)
 *(SORT(.init_array.*))
 *(.init_array)
                0x0000000008000130                PROVIDE (__init_array_end, .)

destructors     0x0000000008000130        0x0
                0x0000000008000130                PROVIDE (__fini_array_start, .)
 *(.fini_array)
 *(SORT(.fini_array.*))
                0x0000000008000130                PROVIDE (__fini_array_end, .)

.text           0x0000000008000130     0x9471
 *(.text.startup.*)
 .text.startup.main
                0x0000000008000130       0x60 bin/obj/main.o
                0x0000000008000130                main
 *(.text)
 .text          0x0000000008000190      0x370 /Users/Luca/src/vexilla/src/gcc-arm-none-eabi-5_4-2016q3/bin/../lib/gcc/arm-none-eabi/5.4.1/armv7-m/libgcc.a(_arm_addsubdf3.o)
                0x0000000008000190                __aeabi_drsub
                0x0000000008000198                __subdf3
                0x0000000008000198                __aeabi_dsub
                0x000000000800019c                __aeabi_dadd
                0x000000000800019c                __adddf3
                0x0000000008000414                __aeabi_ui2d
                0x0000000008000414                __floatunsidf
                0x0000000008000434                __floatsidf
                0x0000000008000434                __aeabi_i2d
                0x0000000008000458                __extendsfdf2
                0x0000000008000458                __aeabi_f2d
                0x0000000008000494                __aeabi_ul2d
                0x0000000008000494                __floatundidf
                0x00000000080004a4                __aeabi_l2d
                0x00000000080004a4                __floatdidf
 .text          0x0000000008000500      0x424 /Users/Luca/src/vexilla/src/gcc-arm-none-eabi-5_4-2016q3/bin/../lib/gcc/arm-none-eabi/5.4.1/armv7-m/libgcc.a(_arm_muldivdf3.o)
                0x0000000008000500                __aeabi_dmul
                0x0000000008000500                __muldf3
                0x0000000008000754                __aeabi_ddiv
                0x0000000008000754                __divdf3
 *fill*         0x0000000008000924        0xc 
 .text          0x0000000008000930      0x110 /Users/Luca/src/vexilla/src/gcc-arm-none-eabi-5_4-2016q3/bin/../lib/gcc/arm-none-eabi/5.4.1/armv7-m/libgcc.a(_arm_cmpdf2.o)
                0x0000000008000930                __gtdf2
                0x0000000008000930                __gedf2
                0x0000000008000938                __ltdf2
                0x0000000008000938                __ledf2
                0x0000000008000940                __eqdf2
                0x0000000008000940                __nedf2
                0x0000000008000940                __cmpdf2
                0x00000000080009bc                __aeabi_cdrcmple
                0x00000000080009cc                __aeabi_cdcmple
                0x00000000080009cc                __aeabi_cdcmpeq
                0x00000000080009dc                __aeabi_dcmpeq
                0x00000000080009f0                __aeabi_dcmplt
                0x0000000008000a04                __aeabi_dcmple
                0x0000000008000a18                __aeabi_dcmpge
                0x0000000008000a2c                __aeabi_dcmpgt
 .text          0x0000000008000a40       0x40 /Users/Luca/src/vexilla/src/gcc-arm-none-eabi-5_4-2016q3/bin/../lib/gcc/arm-none-eabi/5.4.1/armv7-m/libgcc.a(_arm_fixunsdfsi.o)
                0x0000000008000a40                __fixunsdfsi
                0x0000000008000a40                __aeabi_d2uiz
 .text          0x0000000008000a80       0x4c /Users/Luca/src/vexilla/src/gcc-arm-none-eabi-5_4-2016q3/bin/../lib/gcc/arm-none-eabi/5.4.1/armv7-m/libgcc.a(_arm_fixsfsi.o)
                0x0000000008000a80                __fixsfsi
                0x0000000008000a80                __aeabi_f2iz
 *(.text.*)
 *fill*         0x0000000008000acc        0x4 
 .text.__late_init
                0x0000000008000ad0        0x4 bin/obj/crt0.o
                0x0000000008000ad0                __late_init
 *fill*         0x0000000008000ad4        0xc 
 .text._default_exit
                0x0000000008000ae0        0x4 bin/obj/crt0.o
                0x0000000008000ae0                _default_exit
 *fill*         0x0000000008000ae4        0xc 
 .text.ResetHandler
                0x0000000008000af0      0x104 bin/obj/crt0.o
                0x0000000008000af0                ResetHandler
 *fill*         0x0000000008000bf4        0xc 
 .text._unhandled_exception
                0x0000000008000c00        0x4 bin/obj/vectors.o
                0x0000000008000c00                Vector20
                0x0000000008000c00                NMIVector
                0x0000000008000c00                Vector11C
                0x0000000008000c00                Vector8C
                0x0000000008000c00                Vector110
                0x0000000008000c00                VectorC8
                0x0000000008000c00                Vector94
                0x0000000008000c00                VectorA8
                0x0000000008000c00                VectorB4
                0x0000000008000c00                VectorEC
                0x0000000008000c00                UsageFaultVector
                0x0000000008000c00                DebugMonitorVector
                0x0000000008000c00                Vector40
                0x0000000008000c00                VectorF8
                0x0000000008000c00                PendSVVector
                0x0000000008000c00                Vector118
                0x0000000008000c00                VectorCC
                0x0000000008000c00                Vector54
                0x0000000008000c00                Vector98
                0x0000000008000c00                Vector24
                0x0000000008000c00                BusFaultVector
                0x0000000008000c00                VectorD0
                0x0000000008000c00                HardFaultVector
                0x0000000008000c00                VectorF0
                0x0000000008000c00                Vector100
                0x0000000008000c00                VectorF4
                0x0000000008000c00                MemManageVector
                0x0000000008000c00                VectorA0
                0x0000000008000c00                VectorC4
                0x0000000008000c00                Vector90
                0x0000000008000c00                Vector114
                0x0000000008000c00                Vector1C
                0x0000000008000c00                Vector48
                0x0000000008000c00                Vector4C
                0x0000000008000c00                _unhandled_exception
                0x0000000008000c00                Vector88
                0x0000000008000c00                Vector104
                0x0000000008000c00                Vector10C
                0x0000000008000c00                Vector50
                0x0000000008000c00                Vector28
                0x0000000008000c00                VectorFC
                0x0000000008000c00                Vector34
                0x0000000008000c00                VectorAC
 *fill*         0x0000000008000c04        0xc 
 .text.port_halt
                0x0000000008000c10        0x4 bin/obj/chcore.o
                0x0000000008000c10                port_halt
 *fill*         0x0000000008000c14        0xc 
 .text._port_switch_from_isr
                0x0000000008000c20        0x8 bin/obj/chcore_v7m.o
                0x0000000008000c20                _port_switch_from_isr
 *fill*         0x0000000008000c28        0x8 
 .text.SVCallVector
                0x0000000008000c30       0x14 bin/obj/chcore_v7m.o
                0x0000000008000c30                SVCallVector
 *fill*         0x0000000008000c44        0xc 
 .text._port_init
                0x0000000008000c50       0x30 bin/obj/chcore_v7m.o
                0x0000000008000c50                _port_init
 .text._port_irq_epilogue
                0x0000000008000c80       0x74 bin/obj/chcore_v7m.o
                0x0000000008000c80                _port_irq_epilogue
 *fill*         0x0000000008000cf4        0xc 
 .text.SysTickVector
                0x0000000008000d00       0x1c bin/obj/chcore_v7m.o
                0x0000000008000d00                SysTickVector
 *fill*         0x0000000008000d1c        0x4 
 .text._port_switch
                0x0000000008000d20       0x10 bin/obj/chcore_v7m.o
                0x0000000008000d20                _port_switch
 .text._port_thread_start
                0x0000000008000d30       0x10 bin/obj/chcore_v7m.o
                0x0000000008000d30                _port_thread_start
 .text.nvicEnableVector
                0x0000000008000d40       0x48 bin/obj/nvic.o
                0x0000000008000d40                nvicEnableVector
 *fill*         0x0000000008000d88        0x8 
 .text.nvicDisableVector
                0x0000000008000d90       0x40 bin/obj/nvic.o
                0x0000000008000d90                nvicDisableVector
 .text.nvicSetSystemHandlerPriority
                0x0000000008000dd0       0x28 bin/obj/nvic.o
                0x0000000008000dd0                nvicSetSystemHandlerPriority
 *fill*         0x0000000008000df8        0x8 
 .text._idle_thread
                0x0000000008000e00       0x14 bin/obj/chsys.o
                0x0000000008000e00                _idle_thread
 *fill*         0x0000000008000e14        0xc 
 .text.chSysInit
                0x0000000008000e20       0x60 bin/obj/chsys.o
                0x0000000008000e20                chSysInit
 .text.chSysTimerHandlerI
                0x0000000008000e80       0x58 bin/obj/chsys.o
                0x0000000008000e80                chSysTimerHandlerI
 *fill*         0x0000000008000ed8        0x8 
 .text._vt_init
                0x0000000008000ee0       0x18 bin/obj/chvt.o
                0x0000000008000ee0                _vt_init
 *fill*         0x0000000008000ef8        0x8 
 .text.chVTSetI
                0x0000000008000f00       0x38 bin/obj/chvt.o
                0x0000000008000f00                chVTSetI
 *fill*         0x0000000008000f38        0x8 
 .text.chVTResetI
                0x0000000008000f40       0x24 bin/obj/chvt.o
                0x0000000008000f40                chVTResetI
 *fill*         0x0000000008000f64        0xc 
 .text.wakeup   0x0000000008000f70       0x6c bin/obj/chschd.o
 *fill*         0x0000000008000fdc        0x4 
 .text._scheduler_init
                0x0000000008000fe0       0x14 bin/obj/chschd.o
                0x0000000008000fe0                _scheduler_init
 *fill*         0x0000000008000ff4        0xc 
 .text.chSchReadyI
                0x0000000008001000       0x28 bin/obj/chschd.o
                0x0000000008001000                chSchReadyI
 *fill*         0x0000000008001028        0x8 
 .text.chSchGoSleepS
                0x0000000008001030       0x28 bin/obj/chschd.o
                0x0000000008001030                chSchGoSleepS
 *fill*         0x0000000008001058        0x8 
 .text.chSchGoSleepTimeoutS
                0x0000000008001060       0x44 bin/obj/chschd.o
                0x0000000008001060                chSchGoSleepTimeoutS
 *fill*         0x00000000080010a4        0xc 
 .text.chSchWakeupS
                0x00000000080010b0       0x58 bin/obj/chschd.o
                0x00000000080010b0                chSchWakeupS
 *fill*         0x0000000008001108        0x8 
 .text.chSchDoRescheduleBehind
                0x0000000008001110       0x40 bin/obj/chschd.o
                0x0000000008001110                chSchDoRescheduleBehind
 .text.chSchDoRescheduleAhead
                0x0000000008001150       0x3c bin/obj/chschd.o
                0x0000000008001150                chSchDoRescheduleAhead
 *fill*         0x000000000800118c        0x4 
 .text.chSchDoReschedule
                0x0000000008001190       0x14 bin/obj/chschd.o
                0x0000000008001190                chSchDoReschedule
 *fill*         0x00000000080011a4        0xc 
 .text._thread_init
                0x00000000080011b0       0x44 bin/obj/chthreads.o
                0x00000000080011b0                _thread_init
 *fill*         0x00000000080011f4        0xc 
 .text.chThdCreateI
                0x0000000008001200       0x58 bin/obj/chthreads.o
                0x0000000008001200                chThdCreateI
 *fill*         0x0000000008001258        0x8 
 .text.chThdCreateStatic
                0x0000000008001260       0x74 bin/obj/chthreads.o
                0x0000000008001260                chThdCreateStatic
 *fill*         0x00000000080012d4        0xc 
 .text.chThdSleep
                0x00000000080012e0       0x18 bin/obj/chthreads.o
                0x00000000080012e0                chThdSleep
 *fill*         0x00000000080012f8        0x8 
 .text.chThdSleepUntil
                0x0000000008001300       0x24 bin/obj/chthreads.o
                0x0000000008001300                chThdSleepUntil
 *fill*         0x0000000008001324        0xc 
 .text.chThdExitS
                0x0000000008001330       0x40 bin/obj/chthreads.o
                0x0000000008001330                chThdExitS
 .text.chThdExit
                0x0000000008001370        0xc bin/obj/chthreads.o
                0x0000000008001370                chThdExit
 *fill*         0x000000000800137c        0x4 
 .text.chThdWait
                0x0000000008001380       0x38 bin/obj/chthreads.o
                0x0000000008001380                chThdWait
 *fill*         0x00000000080013b8        0x8 
 .text.chThdRelease
                0x00000000080013c0       0x50 bin/obj/chdynamic.o
                0x00000000080013c0                chThdRelease
 .text.chThdCreateFromHeap
                0x0000000008001410       0x3c bin/obj/chdynamic.o
                0x0000000008001410                chThdCreateFromHeap
 *fill*         0x000000000800144c        0x4 
 .text.chRegFirstThread
                0x0000000008001450       0x1c bin/obj/chregistry.o
                0x0000000008001450                chRegFirstThread
 *fill*         0x000000000800146c        0x4 
 .text.chRegNextThread
                0x0000000008001470       0x2c bin/obj/chregistry.o
                0x0000000008001470                chRegNextThread
 *fill*         0x000000000800149c        0x4 
 .text.chMtxInit
                0x00000000080014a0        0xc bin/obj/chmtx.o
                0x00000000080014a0                chMtxInit
 *fill*         0x00000000080014ac        0x4 
 .text.chMtxLockS
                0x00000000080014b0       0xc8 bin/obj/chmtx.o
                0x00000000080014b0                chMtxLockS
 *fill*         0x0000000008001578        0x8 
 .text.chMtxLock
                0x0000000008001580       0x14 bin/obj/chmtx.o
                0x0000000008001580                chMtxLock
 *fill*         0x0000000008001594        0xc 
 .text.chMtxUnlock
                0x00000000080015a0       0x64 bin/obj/chmtx.o
                0x00000000080015a0                chMtxUnlock
 *fill*         0x0000000008001604        0xc 
 .text.chEvtRegisterMask
                0x0000000008001610       0x28 bin/obj/chevents.o
                0x0000000008001610                chEvtRegisterMask
 *fill*         0x0000000008001638        0x8 
 .text.chEvtUnregister
                0x0000000008001640       0x2c bin/obj/chevents.o
                0x0000000008001640                chEvtUnregister
 *fill*         0x000000000800166c        0x4 
 .text.chEvtSignalI
                0x0000000008001670       0x2c bin/obj/chevents.o
                0x0000000008001670                chEvtSignalI
 *fill*         0x000000000800169c        0x4 
 .text.chEvtBroadcastFlagsI
                0x00000000080016a0       0x24 bin/obj/chevents.o
                0x00000000080016a0                chEvtBroadcastFlagsI
 *fill*         0x00000000080016c4        0xc 
 .text.chEvtWaitAnyTimeout
                0x00000000080016d0       0x54 bin/obj/chevents.o
                0x00000000080016d0                chEvtWaitAnyTimeout
 *fill*         0x0000000008001724        0xc 
 .text.qwait    0x0000000008001730       0x28 bin/obj/chqueues.o
 *fill*         0x0000000008001758        0x8 
 .text.chIQInit
                0x0000000008001760       0x20 bin/obj/chqueues.o
                0x0000000008001760                chIQInit
 .text.chIQResetI
                0x0000000008001780       0x2c bin/obj/chqueues.o
                0x0000000008001780                chIQResetI
 *fill*         0x00000000080017ac        0x4 
 .text.chIQPutI
                0x00000000080017b0       0x54 bin/obj/chqueues.o
                0x00000000080017b0                chIQPutI
 *fill*         0x0000000008001804        0xc 
 .text.chIQGetTimeout
                0x0000000008001810       0x50 bin/obj/chqueues.o
                0x0000000008001810                chIQGetTimeout
 .text.chIQReadTimeout
                0x0000000008001860       0x70 bin/obj/chqueues.o
                0x0000000008001860                chIQReadTimeout
 .text.chOQInit
                0x00000000080018d0       0x1c bin/obj/chqueues.o
                0x00000000080018d0                chOQInit
 *fill*         0x00000000080018ec        0x4 
 .text.chOQPutTimeout
                0x00000000080018f0       0x54 bin/obj/chqueues.o
                0x00000000080018f0                chOQPutTimeout
 *fill*         0x0000000008001944        0xc 
 .text.chOQGetI
                0x0000000008001950       0x48 bin/obj/chqueues.o
                0x0000000008001950                chOQGetI
 *fill*         0x0000000008001998        0x8 
 .text.chOQWriteTimeout
                0x00000000080019a0       0x80 bin/obj/chqueues.o
                0x00000000080019a0                chOQWriteTimeout
 .text._core_init
                0x0000000008001a20       0x28 bin/obj/chmemcore.o
                0x0000000008001a20                _core_init
 *fill*         0x0000000008001a48        0x8 
 .text.chCoreAlloc
                0x0000000008001a50       0x38 bin/obj/chmemcore.o
                0x0000000008001a50                chCoreAlloc
 *fill*         0x0000000008001a88        0x8 
 .text.chCoreStatus
                0x0000000008001a90       0x14 bin/obj/chmemcore.o
                0x0000000008001a90                chCoreStatus
 *fill*         0x0000000008001aa4        0xc 
 .text._heap_init
                0x0000000008001ab0       0x1c bin/obj/chheap.o
                0x0000000008001ab0                _heap_init
 *fill*         0x0000000008001acc        0x4 
 .text.chHeapAlloc
                0x0000000008001ad0       0x80 bin/obj/chheap.o
                0x0000000008001ad0                chHeapAlloc
 .text.chHeapFree
                0x0000000008001b50       0x94 bin/obj/chheap.o
                0x0000000008001b50                chHeapFree
 *fill*         0x0000000008001be4        0xc 
 .text.chHeapStatus
                0x0000000008001bf0       0x40 bin/obj/chheap.o
                0x0000000008001bf0                chHeapStatus
 .text.chPoolFree
                0x0000000008001c30       0x14 bin/obj/chmempools.o
                0x0000000008001c30                chPoolFree
 *fill*         0x0000000008001c44        0xc 
 .text.halInit  0x0000000008001c50       0x34 bin/obj/hal.o
                0x0000000008001c50                halInit
 *fill*         0x0000000008001c84        0xc 
 .text.adcInit  0x0000000008001c90        0x4 bin/obj/adc.o
                0x0000000008001c90                adcInit
 *fill*         0x0000000008001c94        0xc 
 .text.adcObjectInit
                0x0000000008001ca0       0x18 bin/obj/adc.o
                0x0000000008001ca0                adcObjectInit
 *fill*         0x0000000008001cb8        0x8 
 .text.adcStart
                0x0000000008001cc0       0x1c bin/obj/adc.o
                0x0000000008001cc0                adcStart
 *fill*         0x0000000008001cdc        0x4 
 .text.adcStartConversion
                0x0000000008001ce0       0x20 bin/obj/adc.o
                0x0000000008001ce0                adcStartConversion
 .text.extInit  0x0000000008001d00        0x4 bin/obj/ext.o
                0x0000000008001d00                extInit
 *fill*         0x0000000008001d04        0xc 
 .text.extObjectInit
                0x0000000008001d10        0xc bin/obj/ext.o
                0x0000000008001d10                extObjectInit
 *fill*         0x0000000008001d1c        0x4 
 .text.extStart
                0x0000000008001d20       0x1c bin/obj/ext.o
                0x0000000008001d20                extStart
 *fill*         0x0000000008001d3c        0x4 
 .text.extChannelEnable
                0x0000000008001d40       0x14 bin/obj/ext.o
                0x0000000008001d40                extChannelEnable
 *fill*         0x0000000008001d54        0xc 
 .text.gptInit  0x0000000008001d60        0x4 bin/obj/gpt.o
                0x0000000008001d60                gptInit
 *fill*         0x0000000008001d64        0xc 
 .text.gptObjectInit
                0x0000000008001d70        0xc bin/obj/gpt.o
                0x0000000008001d70                gptObjectInit
 *fill*         0x0000000008001d7c        0x4 
 .text.gptStart
                0x0000000008001d80       0x1c bin/obj/gpt.o
                0x0000000008001d80                gptStart
 *fill*         0x0000000008001d9c        0x4 
 .text.gptStartOneShot
                0x0000000008001da0       0x18 bin/obj/gpt.o
                0x0000000008001da0                gptStartOneShot
 *fill*         0x0000000008001db8        0x8 
 .text.gptStartOneShotI
                0x0000000008001dc0        0x8 bin/obj/gpt.o
                0x0000000008001dc0                gptStartOneShotI
 *fill*         0x0000000008001dc8        0x8 
 .text.i2cInit  0x0000000008001dd0        0x4 bin/obj/i2c.o
                0x0000000008001dd0                i2cInit
 *fill*         0x0000000008001dd4        0xc 
 .text.i2cObjectInit
                0x0000000008001de0       0x10 bin/obj/i2c.o
                0x0000000008001de0                i2cObjectInit
 .text.i2cStart
                0x0000000008001df0       0x1c bin/obj/i2c.o
                0x0000000008001df0                i2cStart
 *fill*         0x0000000008001e0c        0x4 
 .text.i2cStop  0x0000000008001e10       0x1c bin/obj/i2c.o
                0x0000000008001e10                i2cStop
 *fill*         0x0000000008001e2c        0x4 
 .text.i2cGetErrors
                0x0000000008001e30        0x4 bin/obj/i2c.o
                0x0000000008001e30                i2cGetErrors
 *fill*         0x0000000008001e34        0xc 
 .text.i2cMasterTransmitTimeout
                0x0000000008001e40       0x44 bin/obj/i2c.o
                0x0000000008001e40                i2cMasterTransmitTimeout
 *fill*         0x0000000008001e84        0xc 
 .text.i2cAcquireBus
                0x0000000008001e90        0x8 bin/obj/i2c.o
                0x0000000008001e90                i2cAcquireBus
 *fill*         0x0000000008001e98        0x8 
 .text.i2cReleaseBus
                0x0000000008001ea0        0x4 bin/obj/i2c.o
                0x0000000008001ea0                i2cReleaseBus
 *fill*         0x0000000008001ea4        0xc 
 .text.readt    0x0000000008001eb0        0x8 bin/obj/serial.o
 *fill*         0x0000000008001eb8        0x8 
 .text.read     0x0000000008001ec0        0xc bin/obj/serial.o
 *fill*         0x0000000008001ecc        0x4 
 .text.writet   0x0000000008001ed0        0x8 bin/obj/serial.o
 *fill*         0x0000000008001ed8        0x8 
 .text.write    0x0000000008001ee0        0xc bin/obj/serial.o
 *fill*         0x0000000008001eec        0x4 
 .text.gett     0x0000000008001ef0        0x8 bin/obj/serial.o
 *fill*         0x0000000008001ef8        0x8 
 .text.get      0x0000000008001f00        0xc bin/obj/serial.o
 *fill*         0x0000000008001f0c        0x4 
 .text.putt     0x0000000008001f10        0x8 bin/obj/serial.o
 *fill*         0x0000000008001f18        0x8 
 .text.put      0x0000000008001f20        0xc bin/obj/serial.o
 *fill*         0x0000000008001f2c        0x4 
 .text.sdInit   0x0000000008001f30        0x4 bin/obj/serial.o
                0x0000000008001f30                sdInit
 *fill*         0x0000000008001f34        0xc 
 .text.sdObjectInit
                0x0000000008001f40       0x40 bin/obj/serial.o
                0x0000000008001f40                sdObjectInit
 .text.sdStart  0x0000000008001f80       0x1c bin/obj/serial.o
                0x0000000008001f80                sdStart
 *fill*         0x0000000008001f9c        0x4 
 .text.sdIncomingDataI
                0x0000000008001fa0       0x3c bin/obj/serial.o
                0x0000000008001fa0                sdIncomingDataI
 *fill*         0x0000000008001fdc        0x4 
 .text.spiInit  0x0000000008001fe0        0x4 bin/obj/spi.o
                0x0000000008001fe0                spiInit
 *fill*         0x0000000008001fe4        0xc 
 .text.spiObjectInit
                0x0000000008001ff0       0x10 bin/obj/spi.o
                0x0000000008001ff0                spiObjectInit
 .text.spiStart
                0x0000000008002000       0x1c bin/obj/spi.o
                0x0000000008002000                spiStart
 *fill*         0x000000000800201c        0x4 
 .text.tm_start
                0x0000000008002020        0xc bin/obj/tm.o
 *fill*         0x000000000800202c        0x4 
 .text.tm_stop  0x0000000008002030       0x2c bin/obj/tm.o
 *fill*         0x000000000800205c        0x4 
 .text.tmInit   0x0000000008002060       0x40 bin/obj/tm.o
                0x0000000008002060                tmInit
 .text.Vector6C
                0x00000000080020a0       0x28 bin/obj/stm32_dma.o
                0x00000000080020a0                Vector6C
 *fill*         0x00000000080020c8        0x8 
 .text.Vector70
                0x00000000080020d0       0x28 bin/obj/stm32_dma.o
                0x00000000080020d0                Vector70
 *fill*         0x00000000080020f8        0x8 
 .text.Vector74
                0x0000000008002100       0x28 bin/obj/stm32_dma.o
                0x0000000008002100                Vector74
 *fill*         0x0000000008002128        0x8 
 .text.Vector78
                0x0000000008002130       0x28 bin/obj/stm32_dma.o
                0x0000000008002130                Vector78
 *fill*         0x0000000008002158        0x8 
 .text.Vector7C
                0x0000000008002160       0x28 bin/obj/stm32_dma.o
                0x0000000008002160                Vector7C
 *fill*         0x0000000008002188        0x8 
 .text.Vector80
                0x0000000008002190       0x28 bin/obj/stm32_dma.o
                0x0000000008002190                Vector80
 *fill*         0x00000000080021b8        0x8 
 .text.Vector84
                0x00000000080021c0       0x28 bin/obj/stm32_dma.o
                0x00000000080021c0                Vector84
 *fill*         0x00000000080021e8        0x8 
 .text.Vector120
                0x00000000080021f0       0x28 bin/obj/stm32_dma.o
                0x00000000080021f0                Vector120
 *fill*         0x0000000008002218        0x8 
 .text.Vector124
                0x0000000008002220       0x28 bin/obj/stm32_dma.o
                0x0000000008002220                Vector124
 *fill*         0x0000000008002248        0x8 
 .text.Vector128
                0x0000000008002250       0x28 bin/obj/stm32_dma.o
                0x0000000008002250                Vector128
 *fill*         0x0000000008002278        0x8 
 .text.Vector12C
                0x0000000008002280       0x44 bin/obj/stm32_dma.o
                0x0000000008002280                Vector12C
 *fill*         0x00000000080022c4        0xc 
 .text.dmaInit  0x00000000080022d0       0x4c bin/obj/stm32_dma.o
                0x00000000080022d0                dmaInit
 *fill*         0x000000000800231c        0x4 
 .text.dmaStreamAllocate
                0x0000000008002320       0x80 bin/obj/stm32_dma.o
                0x0000000008002320                dmaStreamAllocate
 .text.dmaStreamRelease
                0x00000000080023a0       0x44 bin/obj/stm32_dma.o
                0x00000000080023a0                dmaStreamRelease
 *fill*         0x00000000080023e4        0xc 
 .text.hal_lld_init
                0x00000000080023f0       0x70 bin/obj/hal_lld.o
                0x00000000080023f0                hal_lld_init
 .text.stm32_clock_init
                0x0000000008002460       0x88 bin/obj/hal_lld.o
                0x0000000008002460                stm32_clock_init
 *fill*         0x00000000080024e8        0x8 
 .text.adc_lld_serve_rx_interrupt
                0x00000000080024f0      0x108 bin/obj/adc_lld.o
 *fill*         0x00000000080025f8        0x8 
 .text.adc_lld_init
                0x0000000008002600       0x68 bin/obj/adc_lld.o
                0x0000000008002600                adc_lld_init
 *fill*         0x0000000008002668        0x8 
 .text.adc_lld_start
                0x0000000008002670       0x4c bin/obj/adc_lld.o
                0x0000000008002670                adc_lld_start
 *fill*         0x00000000080026bc        0x4 
 .text.adc_lld_start_conversion
                0x00000000080026c0       0x74 bin/obj/adc_lld.o
                0x00000000080026c0                adc_lld_start_conversion
 *fill*         0x0000000008002734        0xc 
 .text.Vector58
                0x0000000008002740       0x24 bin/obj/ext_lld_isr.o
                0x0000000008002740                Vector58
 *fill*         0x0000000008002764        0xc 
 .text.Vector5C
                0x0000000008002770       0x24 bin/obj/ext_lld_isr.o
                0x0000000008002770                Vector5C
 *fill*         0x0000000008002794        0xc 
 .text.Vector60
                0x00000000080027a0       0x24 bin/obj/ext_lld_isr.o
                0x00000000080027a0                Vector60
 *fill*         0x00000000080027c4        0xc 
 .text.Vector64
                0x00000000080027d0       0x24 bin/obj/ext_lld_isr.o
                0x00000000080027d0                Vector64
 *fill*         0x00000000080027f4        0xc 
 .text.Vector68
                0x0000000008002800       0x24 bin/obj/ext_lld_isr.o
                0x0000000008002800                Vector68
 *fill*         0x0000000008002824        0xc 
 .text.Vector9C
                0x0000000008002830       0x6c bin/obj/ext_lld_isr.o
                0x0000000008002830                Vector9C
 *fill*         0x000000000800289c        0x4 
 .text.VectorE0
                0x00000000080028a0       0x7c bin/obj/ext_lld_isr.o
                0x00000000080028a0                VectorE0
 *fill*         0x000000000800291c        0x4 
 .text.Vector44
                0x0000000008002920       0x28 bin/obj/ext_lld_isr.o
                0x0000000008002920                Vector44
 *fill*         0x0000000008002948        0x8 
 .text.VectorE4
                0x0000000008002950       0x28 bin/obj/ext_lld_isr.o
                0x0000000008002950                VectorE4
 *fill*         0x0000000008002978        0x8 
 .text.VectorE8
                0x0000000008002980       0x28 bin/obj/ext_lld_isr.o
                0x0000000008002980                VectorE8
 *fill*         0x00000000080029a8        0x8 
 .text.ext_lld_exti_irq_enable
                0x00000000080029b0       0x58 bin/obj/ext_lld_isr.o
                0x00000000080029b0                ext_lld_exti_irq_enable
 *fill*         0x0000000008002a08        0x8 
 .text.ext_lld_init
                0x0000000008002a10        0xc bin/obj/ext_lld.o
                0x0000000008002a10                ext_lld_init
 *fill*         0x0000000008002a1c        0x4 
 .text.ext_lld_channel_enable
                0x0000000008002a20       0x98 bin/obj/ext_lld.o
                0x0000000008002a20                ext_lld_channel_enable
 *fill*         0x0000000008002ab8        0x8 
 .text.ext_lld_start
                0x0000000008002ac0       0x64 bin/obj/ext_lld.o
                0x0000000008002ac0                ext_lld_start
 *fill*         0x0000000008002b24        0xc 
 .text._pal_lld_init
                0x0000000008002b30       0x94 bin/obj/pal_lld.o
                0x0000000008002b30                _pal_lld_init
 *fill*         0x0000000008002bc4        0xc 
 .text._pal_lld_setgroupmode
                0x0000000008002bd0       0x68 bin/obj/pal_lld.o
                0x0000000008002bd0                _pal_lld_setgroupmode
 *fill*         0x0000000008002c38        0x8 
 .text.i2c_lld_abort_operation
                0x0000000008002c40       0x44 bin/obj/i2c_lld.o
 *fill*         0x0000000008002c84        0xc 
 .text.i2c_lld_safety_timeout
                0x0000000008002c90       0x2c bin/obj/i2c_lld.o
 *fill*         0x0000000008002cbc        0x4 
 .text.i2c_lld_serve_tx_end_irq
                0x0000000008002cc0       0x30 bin/obj/i2c_lld.o
 .text.i2c_lld_serve_rx_end_irq
                0x0000000008002cf0       0x68 bin/obj/i2c_lld.o
 *fill*         0x0000000008002d58        0x8 
 .text.VectorBC
                0x0000000008002d60      0x110 bin/obj/i2c_lld.o
                0x0000000008002d60                VectorBC
 .text.VectorC0
                0x0000000008002e70       0xe8 bin/obj/i2c_lld.o
                0x0000000008002e70                VectorC0
 *fill*         0x0000000008002f58        0x8 
 .text.i2c_lld_init
                0x0000000008002f60       0x2c bin/obj/i2c_lld.o
                0x0000000008002f60                i2c_lld_init
 *fill*         0x0000000008002f8c        0x4 
 .text.i2c_lld_start
                0x0000000008002f90      0x160 bin/obj/i2c_lld.o
                0x0000000008002f90                i2c_lld_start
 .text.i2c_lld_stop
                0x00000000080030f0       0x44 bin/obj/i2c_lld.o
                0x00000000080030f0                i2c_lld_stop
 *fill*         0x0000000008003134        0xc 
 .text.i2c_lld_master_transmit_timeout
                0x0000000008003140       0xf8 bin/obj/i2c_lld.o
                0x0000000008003140                i2c_lld_master_transmit_timeout
 *fill*         0x0000000008003238        0x8 
 .text.spi_lld_serve_tx_interrupt
                0x0000000008003240        0xc bin/obj/spi_lld.o
 *fill*         0x000000000800324c        0x4 
 .text.spi_lld_serve_rx_interrupt
                0x0000000008003250       0x74 bin/obj/spi_lld.o
 *fill*         0x00000000080032c4        0xc 
 .text.spi_lld_init
                0x00000000080032d0       0x40 bin/obj/spi_lld.o
                0x00000000080032d0                spi_lld_init
 .text.spi_lld_start
                0x0000000008003310       0x98 bin/obj/spi_lld.o
                0x0000000008003310                spi_lld_start
 *fill*         0x00000000080033a8        0x8 
 .text.spi_lld_select
                0x00000000080033b0       0x10 bin/obj/spi_lld.o
                0x00000000080033b0                spi_lld_select
 .text.spi_lld_unselect
                0x00000000080033c0       0x10 bin/obj/spi_lld.o
                0x00000000080033c0                spi_lld_unselect
 .text.spi_lld_polled_exchange
                0x00000000080033d0       0x10 bin/obj/spi_lld.o
                0x00000000080033d0                spi_lld_polled_exchange
 .text.VectorA4
                0x00000000080033e0       0x34 bin/obj/gpt_lld.o
                0x00000000080033e0                VectorA4
 *fill*         0x0000000008003414        0xc 
 .text.VectorB0
                0x0000000008003420       0x34 bin/obj/gpt_lld.o
                0x0000000008003420                VectorB0
 *fill*         0x0000000008003454        0xc 
 .text.Vector108
                0x0000000008003460       0x34 bin/obj/gpt_lld.o
                0x0000000008003460                Vector108
 *fill*         0x0000000008003494        0xc 
 .text.gpt_lld_init
                0x00000000080034a0       0x40 bin/obj/gpt_lld.o
                0x00000000080034a0                gpt_lld_init
 .text.gpt_lld_start
                0x00000000080034e0       0xb4 bin/obj/gpt_lld.o
                0x00000000080034e0                gpt_lld_start
 *fill*         0x0000000008003594        0xc 
 .text.gpt_lld_start_timer
                0x00000000080035a0       0x1c bin/obj/gpt_lld.o
                0x00000000080035a0                gpt_lld_start_timer
 *fill*         0x00000000080035bc        0x4 
 .text.notify1  0x00000000080035c0       0x14 bin/obj/serial_lld.o
 *fill*         0x00000000080035d4        0xc 
 .text.notify2  0x00000000080035e0       0x14 bin/obj/serial_lld.o
 *fill*         0x00000000080035f4        0xc 
 .text.notify3  0x0000000008003600       0x14 bin/obj/serial_lld.o
 *fill*         0x0000000008003614        0xc 
 .text.serve_interrupt
                0x0000000008003620       0xf0 bin/obj/serial_lld.o
 .text.VectorD4
                0x0000000008003710       0x14 bin/obj/serial_lld.o
                0x0000000008003710                VectorD4
 *fill*         0x0000000008003724        0xc 
 .text.VectorD8
                0x0000000008003730       0x14 bin/obj/serial_lld.o
                0x0000000008003730                VectorD8
 *fill*         0x0000000008003744        0xc 
 .text.VectorDC
                0x0000000008003750       0x14 bin/obj/serial_lld.o
                0x0000000008003750                VectorDC
 *fill*         0x0000000008003764        0xc 
 .text.sd_lld_init
                0x0000000008003770       0x60 bin/obj/serial_lld.o
                0x0000000008003770                sd_lld_init
 .text.sd_lld_start
                0x00000000080037d0       0xc4 bin/obj/serial_lld.o
                0x00000000080037d0                sd_lld_start
 *fill*         0x0000000008003894        0xc 
 .text.__early_init
                0x00000000080038a0        0x4 bin/obj/board.o
                0x00000000080038a0                __early_init
 *fill*         0x00000000080038a4        0xc 
 .text.boardInit
                0x00000000080038b0       0x10 bin/obj/board.o
                0x00000000080038b0                boardInit
 .text.ltoa     0x00000000080038c0       0x44 bin/obj/chprintf.o
 *fill*         0x0000000008003904        0xc 
 .text.chvprintf
                0x0000000008003910      0x2c4 bin/obj/chprintf.o
                0x0000000008003910                chvprintf
 *fill*         0x0000000008003bd4        0xc 
 .text.cmd_flags
                0x0000000008003be0       0xf4 bin/obj/vexshell.o
 *fill*         0x0000000008003cd4        0xc 
 .text.cmd_systime
                0x0000000008003ce0       0x28 bin/obj/vexshell.o
 *fill*         0x0000000008003d08        0x8 
 .text.cmd_info
                0x0000000008003d10       0xf4 bin/obj/vexshell.o
 *fill*         0x0000000008003e04        0xc 
 .text.cmd_reboot
                0x0000000008003e10       0x40 bin/obj/vexshell.o
 .text.cmd_threads
                0x0000000008003e50       0x88 bin/obj/vexshell.o
 *fill*         0x0000000008003ed8        0x8 
 .text.cmd_mem  0x0000000008003ee0       0x78 bin/obj/vexshell.o
 *fill*         0x0000000008003f58        0x8 
 .text._strtok.constprop.5
                0x0000000008003f60       0x40 bin/obj/vexshell.o
 .text.shellInit
                0x0000000008003fa0        0xc bin/obj/vexshell.o
                0x0000000008003fa0                shellInit
 *fill*         0x0000000008003fac        0x4 
 .text.shellCreate
                0x0000000008003fb0       0x18 bin/obj/vexshell.o
                0x0000000008003fb0                shellCreate
 *fill*         0x0000000008003fc8        0x8 
 .text.shellGetLine
                0x0000000008003fd0      0x1cc bin/obj/vexshell.o
                0x0000000008003fd0                shellGetLine
 *fill*         0x000000000800419c        0x4 
 .text.shell_thread
                0x00000000080041a0      0x1f4 bin/obj/vexshell.o
 *fill*         0x0000000008004394        0xc 
 .text.vexCortexMonitorTask
                0x00000000080043a0      0x14c bin/obj/vexcortex.o
 *fill*         0x00000000080044ec        0x4 
 .text.vexCortexSystemTask
                0x00000000080044f0       0x4c bin/obj/vexcortex.o
 *fill*         0x000000000800453c        0x4 
 .text.vexTaskRegisterPersistant
                0x0000000008004540       0x6c bin/obj/vexcortex.o
                0x0000000008004540                vexTaskRegisterPersistant
 *fill*         0x00000000080045ac        0x4 
 .text.vexTaskRegister
                0x00000000080045b0        0x8 bin/obj/vexcortex.o
                0x00000000080045b0                vexTaskRegister
 *fill*         0x00000000080045b8        0x8 
 .text.vexSleep
                0x00000000080045c0       0xb8 bin/obj/vexcortex.o
                0x00000000080045c0                vexSleep
 *fill*         0x0000000008004678        0x8 
 .text.vexCortexInit
                0x0000000008004680       0xec bin/obj/vexcortex.o
                0x0000000008004680                vexCortexInit
 *fill*         0x000000000800476c        0x4 
 .text.vexConsoleInit
                0x0000000008004770       0x10 bin/obj/vexcortex.o
                0x0000000008004770                vexConsoleInit
 .text._vi_cb   0x0000000008004780       0x44 bin/obj/vexdigital.o
 *fill*         0x00000000080047c4        0xc 
 .text.vexDigitalModeSet
                0x00000000080047d0       0x3c bin/obj/vexdigital.o
                0x00000000080047d0                vexDigitalModeSet
 *fill*         0x000000000800480c        0x4 
 .text.vexDigitalPinSet
                0x0000000008004810       0x30 bin/obj/vexdigital.o
                0x0000000008004810                vexDigitalPinSet
 .text.vexDigitalPinGet
                0x0000000008004840       0x28 bin/obj/vexdigital.o
                0x0000000008004840                vexDigitalPinGet
 *fill*         0x0000000008004868        0x8 
 .text.vexDigitalIntrSet
                0x0000000008004870       0x74 bin/obj/vexdigital.o
                0x0000000008004870                vexDigitalIntrSet
 *fill*         0x00000000080048e4        0xc 
 .text.vexDigitalIntrRun
                0x00000000080048f0       0x30 bin/obj/vexdigital.o
                0x00000000080048f0                vexDigitalIntrRun
 .text.vexDigitalIntrCountGet
                0x0000000008004920       0x1c bin/obj/vexdigital.o
                0x0000000008004920                vexDigitalIntrCountGet
 *fill*         0x000000000800493c        0x4 
 .text.vexDigitalConfigure
                0x0000000008004940      0x134 bin/obj/vexconfig.o
                0x0000000008004940                vexDigitalConfigure
 *fill*         0x0000000008004a74        0xc 
 .text.vexDigitalTypeGet
                0x0000000008004a80       0x1c bin/obj/vexconfig.o
                0x0000000008004a80                vexDigitalTypeGet
 *fill*         0x0000000008004a9c        0x4 
 .text.vexDigitalTypeGetName
                0x0000000008004aa0       0xac bin/obj/vexconfig.o
                0x0000000008004aa0                vexDigitalTypeGetName
 *fill*         0x0000000008004b4c        0x4 
 .text.vexDigitalChannelGet
                0x0000000008004b50       0x1c bin/obj/vexconfig.o
                0x0000000008004b50                vexDigitalChannelGet
 *fill*         0x0000000008004b6c        0x4 
 .text.vexDigitalCfgGet
                0x0000000008004b70       0x1c bin/obj/vexconfig.o
                0x0000000008004b70                vexDigitalCfgGet
 *fill*         0x0000000008004b8c        0x4 
 .text.vexMotorConfigure
                0x0000000008004b90       0xd4 bin/obj/vexconfig.o
                0x0000000008004b90                vexMotorConfigure
 *fill*         0x0000000008004c64        0xc 
 .text.vexExtSet
                0x0000000008004c70       0x54 bin/obj/vexext.o
                0x0000000008004c70                vexExtSet
 *fill*         0x0000000008004cc4        0xc 
 .text.vexExtIrqInit
                0x0000000008004cd0       0x10 bin/obj/vexext.o
                0x0000000008004cd0                vexExtIrqInit
 .text._vqe_1_cb_a
                0x0000000008004ce0       0x44 bin/obj/vexencoder.o
 *fill*         0x0000000008004d24        0xc 
 .text._vqe_1_cb_b
                0x0000000008004d30       0x44 bin/obj/vexencoder.o
 *fill*         0x0000000008004d74        0xc 
 .text._vqe_2_cb_a
                0x0000000008004d80       0x44 bin/obj/vexencoder.o
 *fill*         0x0000000008004dc4        0xc 
 .text._vqe_2_cb_b
                0x0000000008004dd0       0x44 bin/obj/vexencoder.o
 *fill*         0x0000000008004e14        0xc 
 .text._vqe_3_cb_a
                0x0000000008004e20       0x44 bin/obj/vexencoder.o
 *fill*         0x0000000008004e64        0xc 
 .text._vqe_3_cb_b
                0x0000000008004e70       0x44 bin/obj/vexencoder.o
 *fill*         0x0000000008004eb4        0xc 
 .text._vqe_4_cb_a
                0x0000000008004ec0       0x44 bin/obj/vexencoder.o
 *fill*         0x0000000008004f04        0xc 
 .text._vqe_4_cb_b
                0x0000000008004f10       0x44 bin/obj/vexencoder.o
 *fill*         0x0000000008004f54        0xc 
 .text._vqe_5_cb_a
                0x0000000008004f60       0x44 bin/obj/vexencoder.o
 *fill*         0x0000000008004fa4        0xc 
 .text._vqe_5_cb_b
                0x0000000008004fb0       0x44 bin/obj/vexencoder.o
 *fill*         0x0000000008004ff4        0xc 
 .text.vexEncoderInit
                0x0000000008005000       0x2c bin/obj/vexencoder.o
                0x0000000008005000                vexEncoderInit
 *fill*         0x000000000800502c        0x4 
 .text.vexEncoderAdd
                0x0000000008005030       0xb0 bin/obj/vexencoder.o
                0x0000000008005030                vexEncoderAdd
 .text.vexEncoderStart
                0x00000000080050e0       0x38 bin/obj/vexencoder.o
                0x00000000080050e0                vexEncoderStart
 *fill*         0x0000000008005118        0x8 
 .text.vexEncoderStartAll
                0x0000000008005120       0x14 bin/obj/vexencoder.o
                0x0000000008005120                vexEncoderStartAll
 *fill*         0x0000000008005134        0xc 
 .text.vexEncoderGet
                0x0000000008005140       0x20 bin/obj/vexencoder.o
                0x0000000008005140                vexEncoderGet
 .text.vexEncoderSet
                0x0000000008005160       0x1c bin/obj/vexencoder.o
                0x0000000008005160                vexEncoderSet
 *fill*         0x000000000800517c        0x4 
 .text.vexEncoderGetId
                0x0000000008005180       0x20 bin/obj/vexencoder.o
                0x0000000008005180                vexEncoderGetId
 .text.vexEncoderDebug
                0x00000000080051a0       0x38 bin/obj/vexencoder.o
                0x00000000080051a0                vexEncoderDebug
 *fill*         0x00000000080051d8        0x8 
 .text._vs_echo_cb
                0x00000000080051e0       0x5c bin/obj/vexsonar.o
 *fill*         0x000000000800523c        0x4 
 .text._vs_gpt_cb
                0x0000000008005240       0x74 bin/obj/vexsonar.o
 *fill*         0x00000000080052b4        0xc 
 .text.vexSonarAdd
                0x00000000080052c0       0x78 bin/obj/vexsonar.o
                0x00000000080052c0                vexSonarAdd
 *fill*         0x0000000008005338        0x8 
 .text.vexSonarStartAll
                0x0000000008005340       0x2c bin/obj/vexsonar.o
                0x0000000008005340                vexSonarStartAll
 *fill*         0x000000000800536c        0x4 
 .text.vexSonarRun
                0x0000000008005370       0x4c bin/obj/vexsonar.o
                0x0000000008005370                vexSonarRun
 *fill*         0x00000000080053bc        0x4 
 .text.vexSonarPing
                0x00000000080053c0       0x3c bin/obj/vexsonar.o
                0x00000000080053c0                vexSonarPing
 *fill*         0x00000000080053fc        0x4 
 .text.VexSonarTask
                0x0000000008005400       0xf8 bin/obj/vexsonar.o
 *fill*         0x00000000080054f8        0x8 
 .text.vexSonarGetCm
                0x0000000008005500       0x1c bin/obj/vexsonar.o
                0x0000000008005500                vexSonarGetCm
 *fill*         0x000000000800551c        0x4 
 .text.vexSonarGetInch
                0x0000000008005520       0x1c bin/obj/vexsonar.o
                0x0000000008005520                vexSonarGetInch
 *fill*         0x000000000800553c        0x4 
 .text.vexSonarDebug
                0x0000000008005540       0x50 bin/obj/vexsonar.o
                0x0000000008005540                vexSonarDebug
 .text.vexMotorPositionGet.part.1
                0x0000000008005590       0x38 bin/obj/vexmotor.o
 *fill*         0x00000000080055c8        0x8 
 .text.vexMotorSet
                0x00000000080055d0       0x28 bin/obj/vexmotor.o
                0x00000000080055d0                vexMotorSet
 *fill*         0x00000000080055f8        0x8 
 .text.vexMotorGet
                0x0000000008005600       0x1c bin/obj/vexmotor.o
                0x0000000008005600                vexMotorGet
 *fill*         0x000000000800561c        0x4 
 .text.vexMotorStopAll
                0x0000000008005620       0x1c bin/obj/vexmotor.o
                0x0000000008005620                vexMotorStopAll
 *fill*         0x000000000800563c        0x4 
 .text.vexMotorTypeSet
                0x0000000008005640       0x18 bin/obj/vexmotor.o
                0x0000000008005640                vexMotorTypeSet
 *fill*         0x0000000008005658        0x8 
 .text.vexMotorTypeGet
                0x0000000008005660       0x1c bin/obj/vexmotor.o
                0x0000000008005660                vexMotorTypeGet
 *fill*         0x000000000800567c        0x4 
 .text.vexMotorDirectionSet
                0x0000000008005680       0x18 bin/obj/vexmotor.o
                0x0000000008005680                vexMotorDirectionSet
 *fill*         0x0000000008005698        0x8 
 .text.vexMotorDirectionGet
                0x00000000080056a0       0x1c bin/obj/vexmotor.o
                0x00000000080056a0                vexMotorDirectionGet
 *fill*         0x00000000080056bc        0x4 
 .text.vexMotorPositionGet
                0x00000000080056c0       0x10 bin/obj/vexmotor.o
                0x00000000080056c0                vexMotorPositionGet
 .text.vexMotorPositionGetCallback
                0x00000000080056d0       0x1c bin/obj/vexmotor.o
                0x00000000080056d0                vexMotorPositionGetCallback
 *fill*         0x00000000080056ec        0x4 
 .text.vexMotorPositionSetCallback
                0x00000000080056f0       0x1c bin/obj/vexmotor.o
                0x00000000080056f0                vexMotorPositionSetCallback
 *fill*         0x000000000800570c        0x4 
 .text.vexMotorEncoderIdCallback
                0x0000000008005710       0x1c bin/obj/vexmotor.o
                0x0000000008005710                vexMotorEncoderIdCallback
 *fill*         0x000000000800572c        0x4 
 .text.vexMotorEncoderIdGet
                0x0000000008005730       0x24 bin/obj/vexmotor.o
                0x0000000008005730                vexMotorEncoderIdGet
 *fill*         0x0000000008005754        0xc 
 .text.vexMotorDebug
                0x0000000008005760       0xe8 bin/obj/vexmotor.o
                0x0000000008005760                vexMotorDebug
 *fill*         0x0000000008005848        0x8 
 .text._vexMotorPwmInit
                0x0000000008005850      0x140 bin/obj/vexmotor.o
                0x0000000008005850                _vexMotorPwmInit
 .text.vexMotorInit
                0x0000000008005990       0x3c bin/obj/vexmotor.o
                0x0000000008005990                vexMotorInit
 *fill*         0x00000000080059cc        0x4 
 .text._vexMotorPwmSet_0
                0x00000000080059d0       0x58 bin/obj/vexmotor.o
                0x00000000080059d0                _vexMotorPwmSet_0
 *fill*         0x0000000008005a28        0x8 
 .text._vexMotorPwmSet_9
                0x0000000008005a30       0x64 bin/obj/vexmotor.o
                0x0000000008005a30                _vexMotorPwmSet_9
 *fill*         0x0000000008005a94        0xc 
 .text.VectorB8
                0x0000000008005aa0      0x12c bin/obj/vexmotor.o
                0x0000000008005aa0                VectorB8
 *fill*         0x0000000008005bcc        0x4 
 .text._vspi_gpt_cb
                0x0000000008005bd0       0x24 bin/obj/vexspi.o
 *fill*         0x0000000008005bf4        0xc 
 .text.chprintf
                0x0000000008005c00       0x20 bin/obj/vexspi.o
 .text.vexSpiInit
                0x0000000008005c20       0x54 bin/obj/vexspi.o
                0x0000000008005c20                vexSpiInit
 *fill*         0x0000000008005c74        0xc 
 .text.vexSpiGetOnlineStatus
                0x0000000008005c80        0xc bin/obj/vexspi.o
                0x0000000008005c80                vexSpiGetOnlineStatus
 *fill*         0x0000000008005c8c        0x4 
 .text.vexSpiGetJoystickDataPtr
                0x0000000008005c90       0x14 bin/obj/vexspi.o
                0x0000000008005c90                vexSpiGetJoystickDataPtr
 *fill*         0x0000000008005ca4        0xc 
 .text.vexSpiGetControl
                0x0000000008005cb0        0xc bin/obj/vexspi.o
                0x0000000008005cb0                vexSpiGetControl
 *fill*         0x0000000008005cbc        0x4 
 .text.vexSpiGetMainBattery
                0x0000000008005cc0       0x18 bin/obj/vexspi.o
                0x0000000008005cc0                vexSpiGetMainBattery
 *fill*         0x0000000008005cd8        0x8 
 .text.vexSpiGetBackupBattery
                0x0000000008005ce0       0x18 bin/obj/vexspi.o
                0x0000000008005ce0                vexSpiGetBackupBattery
 *fill*         0x0000000008005cf8        0x8 
 .text.vexSpiSetMotor
                0x0000000008005d00       0x2c bin/obj/vexspi.o
                0x0000000008005d00                vexSpiSetMotor
 *fill*         0x0000000008005d2c        0x4 
 .text.vexSpiTickDelay
                0x0000000008005d30       0x34 bin/obj/vexspi.o
                0x0000000008005d30                vexSpiTickDelay
 *fill*         0x0000000008005d64        0xc 
 .text.vexSpiSend
                0x0000000008005d70      0x138 bin/obj/vexspi.o
                0x0000000008005d70                vexSpiSend
 *fill*         0x0000000008005ea8        0x8 
 .text.vexSpiDebug
                0x0000000008005eb0      0x170 bin/obj/vexspi.o
                0x0000000008005eb0                vexSpiDebug
 .text.vexLcdSet.part.0
                0x0000000008006020       0x24 bin/obj/vexlcd.o
 *fill*         0x0000000008006044        0xc 
 .text.vexLcdSendMessage.part.2
                0x0000000008006050       0x9c bin/obj/vexlcd.o
 *fill*         0x00000000080060ec        0x4 
 .text.vexLcdInit
                0x00000000080060f0       0xb8 bin/obj/vexlcd.o
                0x00000000080060f0                vexLcdInit
 *fill*         0x00000000080061a8        0x8 
 .text.vexLcdPrintf
                0x00000000080061b0       0x44 bin/obj/vexlcd.o
                0x00000000080061b0                vexLcdPrintf
 *fill*         0x00000000080061f4        0xc 
 .text.vexLcdCheckReceiveMessage
                0x0000000008006200       0x7c bin/obj/vexlcd.o
                0x0000000008006200                vexLcdCheckReceiveMessage
 *fill*         0x000000000800627c        0x4 
 .text.VexLcdUpdate
                0x0000000008006280       0xd0 bin/obj/vexlcd.o
 .text.vexLcdDebug
                0x0000000008006350       0x98 bin/obj/vexlcd.o
                0x0000000008006350                vexLcdDebug
 *fill*         0x00000000080063e8        0x8 
 .text.vexAdcInit
                0x00000000080063f0       0x30 bin/obj/vexanalog.o
                0x00000000080063f0                vexAdcInit
 .text.vexAdcGet
                0x0000000008006420       0x18 bin/obj/vexanalog.o
                0x0000000008006420                vexAdcGet
 *fill*         0x0000000008006438        0x8 
 .text.vexAdcDebug
                0x0000000008006440       0x28 bin/obj/vexanalog.o
                0x0000000008006440                vexAdcDebug
 *fill*         0x0000000008006468        0x8 
 .text.vexControllerCompetitonState
                0x0000000008006470       0x20 bin/obj/vexctl.o
                0x0000000008006470                vexControllerCompetitonState
 .text.vexControllerGet
                0x0000000008006490      0x124 bin/obj/vexctl.o
                0x0000000008006490                vexControllerGet
 *fill*         0x00000000080065b4        0xc 
 .text.vexImeGetCount
                0x00000000080065c0       0x24 bin/obj/vexime.o
                0x00000000080065c0                vexImeGetCount
 *fill*         0x00000000080065e4        0xc 
 .text.vexImeSetCount
                0x00000000080065f0       0x20 bin/obj/vexime.o
                0x00000000080065f0                vexImeSetCount
 .text.vexImeGetId
                0x0000000008006610       0x1c bin/obj/vexime.o
                0x0000000008006610                vexImeGetId
 *fill*         0x000000000800662c        0x4 
 .text.vexImeSetType
                0x0000000008006630       0x3c bin/obj/vexime.o
                0x0000000008006630                vexImeSetType
 *fill*         0x000000000800666c        0x4 
 .text.vexImeSetMotor
                0x0000000008006670       0x18 bin/obj/vexime.o
                0x0000000008006670                vexImeSetMotor
 *fill*         0x0000000008006688        0x8 
 .text.vexImeInit
                0x0000000008006690       0x64 bin/obj/vexime.o
                0x0000000008006690                vexImeInit
 *fill*         0x00000000080066f4        0xc 
 .text.vexIMEDataInit
                0x0000000008006700       0x5c bin/obj/vexime.o
                0x0000000008006700                vexIMEDataInit
 *fill*         0x000000000800675c        0x4 
 .text.vexIMEResetAll
                0x0000000008006760       0x4c bin/obj/vexime.o
                0x0000000008006760                vexIMEResetAll
 *fill*         0x00000000080067ac        0x4 
 .text.vexIMEHandleErrors
                0x00000000080067b0       0x74 bin/obj/vexime.o
                0x00000000080067b0                vexIMEHandleErrors
 *fill*         0x0000000008006824        0xc 
 .text.vexIMEGetVersion
                0x0000000008006830       0x58 bin/obj/vexime.o
                0x0000000008006830                vexIMEGetVersion
 *fill*         0x0000000008006888        0x8 
 .text.vexIMEGetVendor
                0x0000000008006890       0x54 bin/obj/vexime.o
                0x0000000008006890                vexIMEGetVendor
 *fill*         0x00000000080068e4        0xc 
 .text.vexIMEGetDeviceId
                0x00000000080068f0       0x58 bin/obj/vexime.o
                0x00000000080068f0                vexIMEGetDeviceId
 *fill*         0x0000000008006948        0x8 
 .text.vexIMEGetData
                0x0000000008006950       0x58 bin/obj/vexime.o
                0x0000000008006950                vexIMEGetData
 *fill*         0x00000000080069a8        0x8 
 .text.vexIMEUpdateCounts
                0x00000000080069b0       0x80 bin/obj/vexime.o
                0x00000000080069b0                vexIMEUpdateCounts
 .text.vexIMEClearCounters
                0x0000000008006a30       0x50 bin/obj/vexime.o
                0x0000000008006a30                vexIMEClearCounters
 .text.vexIMEDisableTermination
                0x0000000008006a80       0x50 bin/obj/vexime.o
                0x0000000008006a80                vexIMEDisableTermination
 .text.vexIMEEnableTermination
                0x0000000008006ad0       0x50 bin/obj/vexime.o
                0x0000000008006ad0                vexIMEEnableTermination
 .text.vexIMESetAddr
                0x0000000008006b20       0x58 bin/obj/vexime.o
                0x0000000008006b20                vexIMESetAddr
 *fill*         0x0000000008006b78        0x8 
 .text.vexIMEFindEncoders
                0x0000000008006b80      0x108 bin/obj/vexime.o
                0x0000000008006b80                vexIMEFindEncoders
 *fill*         0x0000000008006c88        0x8 
 .text.vexIMEPrintBuf
                0x0000000008006c90       0x74 bin/obj/vexime.o
                0x0000000008006c90                vexIMEPrintBuf
 *fill*         0x0000000008006d04        0xc 
 .text.vexImeTask
                0x0000000008006d10      0x108 bin/obj/vexime.o
 *fill*         0x0000000008006e18        0x8 
 .text.vexIMEDebug
                0x0000000008006e20      0x128 bin/obj/vexime.o
                0x0000000008006e20                vexIMEDebug
 *fill*         0x0000000008006f48        0x8 
 .text.vex_printc
                0x0000000008006f50       0xb0 bin/obj/vexprintf.o
 .text.vex_prints
                0x0000000008007000       0xac bin/obj/vexprintf.o
 *fill*         0x00000000080070ac        0x4 
 .text.vex_printi
                0x00000000080070b0       0xc4 bin/obj/vexprintf.o
 *fill*         0x0000000008007174        0xc 
 .text.vex_print
                0x0000000008007180      0x3d8 bin/obj/vexprintf.o
 *fill*         0x0000000008007558        0x8 
 .text.vex_chprintf
                0x0000000008007560       0x5c bin/obj/vexprintf.o
                0x0000000008007560                vex_chprintf
 *fill*         0x00000000080075bc        0x4 
 .text.vex_vsnprintf
                0x00000000080075c0       0x5c bin/obj/vexprintf.o
                0x00000000080075c0                vex_vsnprintf
 *fill*         0x000000000800761c        0x4 
 .text.vexTestThread
                0x0000000008007620       0x1c bin/obj/vextest.o
 *fill*         0x000000000800763c        0x4 
 .text.vexTest  0x0000000008007640       0x24 bin/obj/vextest.o
                0x0000000008007640                vexTest
 *fill*         0x0000000008007664        0xc 
 .text.vexTestDebug
                0x0000000008007670        0x4 bin/obj/vextest.o
                0x0000000008007670                vexTestDebug
 *fill*         0x0000000008007674        0xc 
 .text.CleanupTask
                0x0000000008007680       0x28 bin/obj/robotc_glue.o
                0x0000000008007680                CleanupTask
 *fill*         0x00000000080076a8        0x8 
 .text.SmartMotorGetSpeed
                0x00000000080076b0       0x1c bin/obj/smartmotor.o
                0x00000000080076b0                SmartMotorGetSpeed
 *fill*         0x00000000080076cc        0x4 
 .text._SmartMotorGetCurrent
                0x00000000080076d0       0x3c bin/obj/smartmotor.o
                0x00000000080076d0                _SmartMotorGetCurrent
 *fill*         0x000000000800770c        0x4 
 .text.SmartMotorGetTemperature
                0x0000000008007710       0x1c bin/obj/smartmotor.o
                0x0000000008007710                SmartMotorGetTemperature
 *fill*         0x000000000800772c        0x4 
 .text.SmartMotorGetControllerCurrent
                0x0000000008007730       0x1c bin/obj/smartmotor.o
                0x0000000008007730                SmartMotorGetControllerCurrent
 *fill*         0x000000000800774c        0x4 
 .text.SmartMotorGetControllerTemperature
                0x0000000008007750       0x1c bin/obj/smartmotor.o
                0x0000000008007750                SmartMotorGetControllerTemperature
 *fill*         0x000000000800776c        0x4 
 .text.apolloPut
                0x0000000008007770       0x34 bin/obj/apollo.o
 *fill*         0x00000000080077a4        0xc 
 .text.vt100_printf
                0x00000000080077b0       0x3c bin/obj/apollo.o
 *fill*         0x00000000080077ec        0x4 
 .text.vt100_drawbox
                0x00000000080077f0       0xe0 bin/obj/apollo.o
                0x00000000080077f0                vt100_drawbox
 .text.apolloScreenSetup
                0x00000000080078d0       0x9c bin/obj/apollo.o
                0x00000000080078d0                apolloScreenSetup
 *fill*         0x000000000800796c        0x4 
 .text.apolloMotorSetup
                0x0000000008007970       0x78 bin/obj/apollo.o
                0x0000000008007970                apolloMotorSetup
 *fill*         0x00000000080079e8        0x8 
 .text.apolloDigitalSetup
                0x00000000080079f0       0x58 bin/obj/apollo.o
                0x00000000080079f0                apolloDigitalSetup
 *fill*         0x0000000008007a48        0x8 
 .text.apolloAnalogSetup
                0x0000000008007a50       0x50 bin/obj/apollo.o
                0x0000000008007a50                apolloAnalogSetup
 .text.apolloJoystickSetup
                0x0000000008007aa0      0x100 bin/obj/apollo.o
                0x0000000008007aa0                apolloJoystickSetup
 .text.apolloUpdateMotor
                0x0000000008007ba0       0xd4 bin/obj/apollo.o
                0x0000000008007ba0                apolloUpdateMotor
 *fill*         0x0000000008007c74        0xc 
 .text.apolloUpdateCortex
                0x0000000008007c80       0x50 bin/obj/apollo.o
                0x0000000008007c80                apolloUpdateCortex
 .text.apolloUpdateDigital
                0x0000000008007cd0       0xbc bin/obj/apollo.o
                0x0000000008007cd0                apolloUpdateDigital
 *fill*         0x0000000008007d8c        0x4 
 .text.apolloUpdateAnalog
                0x0000000008007d90       0x28 bin/obj/apollo.o
                0x0000000008007d90                apolloUpdateAnalog
 *fill*         0x0000000008007db8        0x8 
 .text.apolloUpdateSystem
                0x0000000008007dc0       0xac bin/obj/apollo.o
                0x0000000008007dc0                apolloUpdateSystem
 *fill*         0x0000000008007e6c        0x4 
 .text.apolloUpdateJoystickButton
                0x0000000008007e70       0x50 bin/obj/apollo.o
                0x0000000008007e70                apolloUpdateJoystickButton
 .text.apolloInit
                0x0000000008007ec0       0x54 bin/obj/apollo.o
                0x0000000008007ec0                apolloInit
 *fill*         0x0000000008007f14        0xc 
 .text.apolloDeinit
                0x0000000008007f20       0x34 bin/obj/apollo.o
                0x0000000008007f20                apolloDeinit
 *fill*         0x0000000008007f54        0xc 
 .text.apolloUpdate
                0x0000000008007f60      0x284 bin/obj/apollo.o
                0x0000000008007f60                apolloUpdate
 *fill*         0x00000000080081e4        0xc 
 .text.vexUserSetup
                0x00000000080081f0       0x20 bin/obj/vexuser.o
                0x00000000080081f0                vexUserSetup
 .text.vexUserInit
                0x0000000008008210        0x4 bin/obj/vexuser.o
                0x0000000008008210                vexUserInit
 *fill*         0x0000000008008214        0xc 
 .text.vexAutonomous
                0x0000000008008220       0x14 bin/obj/vexuser.o
                0x0000000008008220                vexAutonomous
 *fill*         0x0000000008008234        0xc 
 .text.vexOperator
                0x0000000008008240       0x64 bin/obj/vexuser.o
                0x0000000008008240                vexOperator
 *fill*         0x00000000080082a4        0xc 
 .text.cmd_apollo
                0x00000000080082b0       0x20 bin/obj/main.o
 .text.atoi     0x00000000080082d0        0x8 /Users/Luca/src/vexilla/src/gcc-arm-none-eabi-5_4-2016q3/bin/../lib/gcc/arm-none-eabi/5.4.1/../../../../arm-none-eabi/lib/armv7-m/libc.a(lib_a-atoi.o)
                0x00000000080082d0                atoi
 *fill*         0x00000000080082d8        0x8 
 .text.strcasecmp
                0x00000000080082e0       0x44 /Users/Luca/src/vexilla/src/gcc-arm-none-eabi-5_4-2016q3/bin/../lib/gcc/arm-none-eabi/5.4.1/../../../../arm-none-eabi/lib/armv7-m/libc.a(lib_a-strcasecmp.o)
                0x00000000080082e0                strcasecmp
 *fill*         0x0000000008008324        0xc 
 .text.strchr   0x0000000008008330       0xd0 /Users/Luca/src/vexilla/src/gcc-arm-none-eabi-5_4-2016q3/bin/../lib/gcc/arm-none-eabi/5.4.1/../../../../arm-none-eabi/lib/armv7-m/libc.a(lib_a-strchr.o)
                0x0000000008008330                strchr
 .text.strncpy  0x0000000008008400       0x68 /Users/Luca/src/vexilla/src/gcc-arm-none-eabi-5_4-2016q3/bin/../lib/gcc/arm-none-eabi/5.4.1/../../../../arm-none-eabi/lib/armv7-m/libc.a(lib_a-strncpy.o)
                0x0000000008008400                strncpy
 *fill*         0x0000000008008468        0x8 
 .text.strspn   0x0000000008008470       0x34 /Users/Luca/src/vexilla/src/gcc-arm-none-eabi-5_4-2016q3/bin/../lib/gcc/arm-none-eabi/5.4.1/../../../../arm-none-eabi/lib/armv7-m/libc.a(lib_a-strspn.o)
                0x0000000008008470                strspn
 *fill*         0x00000000080084a4        0xc 
 .text._strtol_l.isra.0
                0x00000000080084b0      0x138 /Users/Luca/src/vexilla/src/gcc-arm-none-eabi-5_4-2016q3/bin/../lib/gcc/arm-none-eabi/5.4.1/../../../../arm-none-eabi/lib/armv7-m/libc.a(lib_a-strtol.o)
 *fill*         0x00000000080085e8        0x8 
 .text.strtol   0x00000000080085f0       0x2c /Users/Luca/src/vexilla/src/gcc-arm-none-eabi-5_4-2016q3/bin/../lib/gcc/arm-none-eabi/5.4.1/../../../../arm-none-eabi/lib/armv7-m/libc.a(lib_a-strtol.o)
                0x00000000080085f0                strtol
 *fill*         0x000000000800861c        0x4 
 .text.__get_current_locale
                0x0000000008008620       0x18 /Users/Luca/src/vexilla/src/gcc-arm-none-eabi-5_4-2016q3/bin/../lib/gcc/arm-none-eabi/5.4.1/../../../../arm-none-eabi/lib/armv7-m/libc.a(lib_a-locale.o)
 *fill*         0x0000000008008638        0x8 
 .text.__locale_ctype_ptr_l
                0x0000000008008640        0x8 /Users/Luca/src/vexilla/src/gcc-arm-none-eabi-5_4-2016q3/bin/../lib/gcc/arm-none-eabi/5.4.1/../../../../arm-none-eabi/lib/armv7-m/libc.a(lib_a-locale.o)
                0x0000000008008640                __locale_ctype_ptr_l
 *fill*         0x0000000008008648        0x8 
 .text.__locale_ctype_ptr
                0x0000000008008650       0x14 /Users/Luca/src/vexilla/src/gcc-arm-none-eabi-5_4-2016q3/bin/../lib/gcc/arm-none-eabi/5.4.1/../../../../arm-none-eabi/lib/armv7-m/libc.a(lib_a-locale.o)
                0x0000000008008650                __locale_ctype_ptr
 *fill*         0x0000000008008664        0xc 
 .text.__ascii_mbtowc
                0x0000000008008670       0x2c /Users/Luca/src/vexilla/src/gcc-arm-none-eabi-5_4-2016q3/bin/../lib/gcc/arm-none-eabi/5.4.1/../../../../arm-none-eabi/lib/armv7-m/libc.a(lib_a-mbtowc_r.o)
                0x0000000008008670                __ascii_mbtowc
 *fill*         0x000000000800869c        0x4 
 .text.__ascii_wctomb
                0x00000000080086a0       0x1c /Users/Luca/src/vexilla/src/gcc-arm-none-eabi-5_4-2016q3/bin/../lib/gcc/arm-none-eabi/5.4.1/../../../../arm-none-eabi/lib/armv7-m/libc.a(lib_a-wctomb_r.o)
                0x00000000080086a0                __ascii_wctomb
 *(.rodata)
 *fill*         0x00000000080086bc        0x4 
 .rodata        0x00000000080086c0        0x4 bin/obj/vexshell.o
 *(.rodata.*)
 *fill*         0x00000000080086c4        0xc 
 .rodata.str1.4
                0x00000000080086d0        0x5 bin/obj/chsys.o
 *fill*         0x00000000080086d5        0xb 
 .rodata.ch_debug
                0x00000000080086e0       0x16 bin/obj/chregistry.o
                0x00000000080086e0                ch_debug
 *fill*         0x00000000080086f6        0xa 
 .rodata.vmt    0x0000000008008700       0x20 bin/obj/serial.o
 .rodata._stm32_dma_streams
                0x0000000008008720       0x90 bin/obj/stm32_dma.o
                0x0000000008008720                _stm32_dma_streams
 .rodata.cfgtab.6619
                0x00000000080087b0       0x12 bin/obj/pal_lld.o
 *fill*         0x00000000080087c2        0xe 
 .rodata.default_config
                0x00000000080087d0        0xc bin/obj/serial_lld.o
 *fill*         0x00000000080087dc        0x4 
 .rodata.pal_default_config
                0x00000000080087e0       0x54 bin/obj/board.o
                0x00000000080087e0                pal_default_config
 *fill*         0x0000000008008834        0xc 
 .rodata.str1.4
                0x0000000008008840        0x7 bin/obj/chprintf.o
 *fill*         0x0000000008008847        0x9 
 .rodata.states.7835
                0x0000000008008850       0x3c bin/obj/vexshell.o
 *fill*         0x000000000800888c        0x4 
 .rodata.str1.4
                0x0000000008008890      0x55a bin/obj/vexshell.o
                                        0x562 (size before relaxing)
 *fill*         0x0000000008008dea        0x6 
 .rodata.lcd_config
                0x0000000008008df0        0xc bin/obj/vexcortex.o
 *fill*         0x0000000008008dfc        0x4 
 .rodata.console_config
                0x0000000008008e00        0xc bin/obj/vexcortex.o
 *fill*         0x0000000008008e0c        0x4 
 .rodata.str1.4
                0x0000000008008e10       0x4c bin/obj/vexcortex.o
                                         0x70 (size before relaxing)
 *fill*         0x0000000008008e5c        0x4 
 .rodata.str1.4
                0x0000000008008e60       0x3b bin/obj/vexconfig.o
                                         0x3f (size before relaxing)
 *fill*         0x0000000008008e9b        0x5 
 .rodata._vqe_cb_a
                0x0000000008008ea0       0x14 bin/obj/vexencoder.o
 *fill*         0x0000000008008eb4        0xc 
 .rodata._vqe_cb_b
                0x0000000008008ec0       0x14 bin/obj/vexencoder.o
 *fill*         0x0000000008008ed4        0xc 
 .rodata.str1.4
                0x0000000008008ee0       0x11 bin/obj/vexencoder.o
 *fill*         0x0000000008008ef1        0xf 
 .rodata.vexSonarGpt
                0x0000000008008f00        0xc bin/obj/vexsonar.o
 *fill*         0x0000000008008f0c        0x4 
 .rodata.str1.4
                0x0000000008008f10       0x30 bin/obj/vexsonar.o
 .rodata.str1.4
                0x0000000008008f40       0x5d bin/obj/vexmotor.o
                                         0x65 (size before relaxing)
 *fill*         0x0000000008008f9d        0x3 
 .rodata.txInitData
                0x0000000008008fa0       0x20 bin/obj/vexspi.o
 .rodata.vexSpiGpt
                0x0000000008008fc0        0xc bin/obj/vexspi.o
 *fill*         0x0000000008008fcc        0x4 
 .rodata.str1.4
                0x0000000008008fd0       0x67 bin/obj/vexspi.o
                                         0x6b (size before relaxing)
 *fill*         0x0000000008009037        0x9 
 .rodata.str1.4
                0x0000000008009040       0x45 bin/obj/vexlcd.o
                                         0x49 (size before relaxing)
 *fill*         0x0000000008009085        0xb 
 .rodata.str1.4
                0x0000000008009090       0x13 bin/obj/vexanalog.o
 *fill*         0x00000000080090a3        0xd 
 .rodata.str1.4
                0x00000000080090b0       0xf7 bin/obj/vexime.o
                                        0x10b (size before relaxing)
 *fill*         0x00000000080091a7        0x9 
 .rodata.imeI2cConfig
                0x00000000080091b0        0xc bin/obj/vexime.o
 *fill*         0x00000000080091bc        0x4 
 .rodata.str1.4
                0x00000000080091c0        0x2 bin/obj/vexprintf.o
                                          0xb (size before relaxing)
 *fill*         0x00000000080091c2        0xe 
 .rodata.round_nums
                0x00000000080091d0       0x40 bin/obj/vexprintf.o
 .rodata.str1.4
                0x0000000008009210        0x5 bin/obj/vextest.o
 *fill*         0x0000000008009215        0xb 
 .rodata.str1.4
                0x0000000008009220      0x1cb bin/obj/apollo.o
                                        0x1db (size before relaxing)
 *fill*         0x00000000080093eb        0x5 
 .rodata.str1.4
                0x00000000080093f0       0x11 bin/obj/vexuser.o
 *fill*         0x0000000008009401        0xf 
 .rodata.commands
                0x0000000008009410       0x50 bin/obj/main.o
 .rodata.shell_cfg1
                0x0000000008009460        0x8 bin/obj/main.o
 *fill*         0x0000000008009468        0x8 
 .rodata.str1.4
                0x0000000008009470       0x1f bin/obj/main.o
                                         0x2f (size before relaxing)
 *fill*         0x000000000800948f        0x1 
 .rodata.str1.4
                0x0000000008009490        0xc /Users/Luca/src/vexilla/src/gcc-arm-none-eabi-5_4-2016q3/bin/../lib/gcc/arm-none-eabi/5.4.1/../../../../arm-none-eabi/lib/armv7-m/libc.a(lib_a-locale.o)
                                         0x12 (size before relaxing)
 *fill*         0x000000000800949c        0x4 
 .rodata._ctype_
                0x00000000080094a0      0x101 /Users/Luca/src/vexilla/src/gcc-arm-none-eabi-5_4-2016q3/bin/../lib/gcc/arm-none-eabi/5.4.1/../../../../arm-none-eabi/lib/armv7-m/libc.a(lib_a-ctype_.o)
                0x00000000080094a0                _ctype_
 *(.glue_7t)
 .glue_7t       0x00000000080095a1        0x0 linker stubs
 *(.glue_7)
 .glue_7        0x00000000080095a1        0x0 linker stubs
 *(.gcc*)

.vfp11_veneer   0x00000000080095a4        0x0
 .vfp11_veneer  0x00000000080095a4        0x0 linker stubs

.v4_bx          0x00000000080095a4        0x0
 .v4_bx         0x00000000080095a4        0x0 linker stubs

.iplt           0x00000000080095a4        0x0
 .iplt          0x00000000080095a4        0x0 bin/obj/crt0.o

.rel.dyn        0x00000000080095a4        0x0
 .rel.iplt      0x00000000080095a4        0x0 bin/obj/crt0.o

.ARM.extab
 *(.ARM.extab* .gnu.linkonce.armextab.*)

.ARM.exidx      0x00000000080095a1        0x0
                [!provide]                        PROVIDE (__exidx_start, .)
 *(.ARM.exidx* .gnu.linkonce.armexidx.*)
                [!provide]                        PROVIDE (__exidx_end, .)

.eh_frame_hdr
 *(.eh_frame_hdr)

.eh_frame
 *(.eh_frame)

.textalign      0x00000000080095a1        0x7
                0x00000000080095a8                . = ALIGN (0x8)
 *fill*         0x00000000080095a1        0x7 
                0x00000000080095a8                . = ALIGN (0x4)
                0x00000000080095a8                _etext = .
                0x00000000080095a8                _textdata = _etext

.stacks         0x0000000020000000      0x800
                0x0000000020000000                . = ALIGN (0x8)
                0x0000000020000000                __main_stack_base__ = .
                0x0000000020000400                . = (. + __main_stack_size__)
 *fill*         0x0000000020000000      0x400 
                0x0000000020000400                . = ALIGN (0x8)
                0x0000000020000400                __main_stack_end__ = .
                0x0000000020000400                __process_stack_base__ = .
                0x0000000020000400                __main_thread_stack_base__ = .
                0x0000000020000800                . = (. + __process_stack_size__)
 *fill*         0x0000000020000400      0x400 
                0x0000000020000800                . = ALIGN (0x8)
                0x0000000020000800                __process_stack_end__ = .
                0x0000000020000800                __main_thread_stack_end__ = .

.data           0x0000000020000800      0x8d0 load address 0x00000000080095a8
                0x0000000020000800                . = ALIGN (0x4)
                0x0000000020000800                PROVIDE (_data, .)
 *(.data)
                0x0000000020000800                . = ALIGN (0x4)
 *(.data.*)
 .data.shell_echo
                0x0000000020000800        0x1 bin/obj/vexshell.o
 .data.shell_bufr
                0x0000000020000801        0x1 bin/obj/vexshell.o
 *fill*         0x0000000020000802        0x2 
 .data.local_commands
                0x0000000020000804       0x38 bin/obj/vexshell.o
 .data.task_terminate
                0x000000002000083c        0x4 bin/obj/vexcortex.o
 .data.vexioDefinition
                0x0000000020000840       0x90 bin/obj/vexdigital.o
                0x0000000020000840                vexioDefinition
 .data.vexDefConfig
                0x00000000200008d0       0x48 bin/obj/vexconfig.o
 .data.vexExtCfg
                0x0000000020000918       0x98 bin/obj/vexext.o
 .data.spicfg   0x00000000200009b0        0xc bin/obj/vexspi.o
 .data.spiTeamName
                0x00000000200009bc       0x10 bin/obj/vexspi.o
 .data.vexLcdData
                0x00000000200009cc       0xc0 bin/obj/vexlcd.o
 .data.adccg    0x0000000020000a8c       0x28 bin/obj/vexanalog.o
 .data.mConfig  0x0000000020000ab4       0x3c bin/obj/vexuser.o
 .data.dConfig  0x0000000020000af0       0x48 bin/obj/vexuser.o
 .data.impure_data
                0x0000000020000b38      0x428 /Users/Luca/src/vexilla/src/gcc-arm-none-eabi-5_4-2016q3/bin/../lib/gcc/arm-none-eabi/5.4.1/../../../../arm-none-eabi/lib/armv7-m/libc.a(lib_a-impure.o)
 .data._impure_ptr
                0x0000000020000f60        0x4 /Users/Luca/src/vexilla/src/gcc-arm-none-eabi-5_4-2016q3/bin/../lib/gcc/arm-none-eabi/5.4.1/../../../../arm-none-eabi/lib/armv7-m/libc.a(lib_a-impure.o)
                0x0000000020000f60                _impure_ptr
 .data.__global_locale
                0x0000000020000f64      0x16c /Users/Luca/src/vexilla/src/gcc-arm-none-eabi-5_4-2016q3/bin/../lib/gcc/arm-none-eabi/5.4.1/../../../../arm-none-eabi/lib/armv7-m/libc.a(lib_a-locale.o)
                0x0000000020000f64                __global_locale
                0x00000000200010d0                . = ALIGN (0x4)
 *(.ramtext)
                0x00000000200010d0                . = ALIGN (0x4)
                0x00000000200010d0                PROVIDE (_edata, .)

.igot.plt       0x00000000200010d0        0x0 load address 0x0000000008009e78
 .igot.plt      0x00000000200010d0        0x0 bin/obj/crt0.o

.bss            0x00000000200010d0     0x2210 load address 0x0000000008009e78
                0x00000000200010d0                . = ALIGN (0x4)
                0x00000000200010d0                PROVIDE (_bss_start, .)
 *(.bss)
                0x00000000200010d0                . = ALIGN (0x4)
 *(.bss.*)
 .bss.mainthread.4904
                0x00000000200010d0       0x48 bin/obj/chsys.o
 .bss._idle_thread_wa
                0x0000000020001118       0xc0 bin/obj/chsys.o
                0x0000000020001118                _idle_thread_wa
 .bss.vtlist    0x00000000200011d8       0x10 bin/obj/chvt.o
                0x00000000200011d8                vtlist
 .bss.rlist     0x00000000200011e8       0x1c bin/obj/chschd.o
                0x00000000200011e8                rlist
 .bss.endmem    0x0000000020001204        0x4 bin/obj/chmemcore.o
 .bss.nextmem   0x0000000020001208        0x4 bin/obj/chmemcore.o
 *fill*         0x000000002000120c        0x4 
 .bss.default_heap
                0x0000000020001210       0x20 bin/obj/chheap.o
 .bss.measurement_offset
                0x0000000020001230        0x4 bin/obj/tm.o
 .bss.dma_isr_redir
                0x0000000020001234       0x60 bin/obj/stm32_dma.o
 .bss.dma_streams_mask
                0x0000000020001294        0x4 bin/obj/stm32_dma.o
 .bss.ADCD1     0x0000000020001298       0x34 bin/obj/adc_lld.o
                0x0000000020001298                ADCD1
 .bss.EXTD1     0x00000000200012cc        0x8 bin/obj/ext_lld.o
                0x00000000200012cc                EXTD1
 .bss.I2CD1     0x00000000200012d4       0x38 bin/obj/i2c_lld.o
                0x00000000200012d4                I2CD1
 .bss.dummytx   0x000000002000130c        0x2 bin/obj/spi_lld.o
 *fill*         0x000000002000130e        0x2 
 .bss.SPID1     0x0000000020001310       0x30 bin/obj/spi_lld.o
                0x0000000020001310                SPID1
 .bss.GPTD1     0x0000000020001340       0x10 bin/obj/gpt_lld.o
                0x0000000020001340                GPTD1
 .bss.GPTD2     0x0000000020001350       0x10 bin/obj/gpt_lld.o
                0x0000000020001350                GPTD2
 .bss.GPTD5     0x0000000020001360       0x10 bin/obj/gpt_lld.o
                0x0000000020001360                GPTD5
 .bss.SD1       0x0000000020001370       0xd8 bin/obj/serial_lld.o
                0x0000000020001370                SD1
 .bss.SD2       0x0000000020001448       0xd8 bin/obj/serial_lld.o
                0x0000000020001448                SD2
 .bss.SD3       0x0000000020001520       0xd8 bin/obj/serial_lld.o
                0x0000000020001520                SD3
 .bss.shell_terminated
                0x00000000200015f8        0x4 bin/obj/vexshell.o
                0x00000000200015f8                shell_terminated
 .bss.history.7898
                0x00000000200015fc       0x40 bin/obj/vexshell.o
 *fill*         0x000000002000163c        0x4 
 .bss.waVexUserTask
                0x0000000020001640      0x2b0 bin/obj/vexcortex.o
 .bss.waVexCortexSystemTask
                0x00000000200018f0      0x180 bin/obj/vexcortex.o
 .bss.myThreads
                0x0000000020001a70      0x1e0 bin/obj/vexcortex.o
 .bss.waVexCortexMonitorTask
                0x0000000020001c50      0x280 bin/obj/vexcortex.o
 .bss.vexKillAll
                0x0000000020001ed0        0x1 bin/obj/vexcortex.o
 *fill*         0x0000000020001ed1        0x3 
 .bss.vexQuadEncoders
                0x0000000020001ed4       0x8c bin/obj/vexencoder.o
 .bss.vexSonarThread
                0x0000000020001f60        0x4 bin/obj/vexsonar.o
 *fill*         0x0000000020001f64        0x4 
 .bss.waVexSonarTask
                0x0000000020001f68      0x180 bin/obj/vexsonar.o
 .bss.nextSonar
                0x00000000200020e8        0x1 bin/obj/vexsonar.o
 *fill*         0x00000000200020e9        0x3 
 .bss.vexSonars
                0x00000000200020ec       0xa0 bin/obj/vexsonar.o
 .bss.nextState
                0x000000002000218c        0x1 bin/obj/vexsonar.o
 *fill*         0x000000002000218d        0x1 
 .bss.m0_cur_value
                0x000000002000218e        0x2 bin/obj/vexmotor.o
 .bss.m9_new_value
                0x0000000020002190        0x2 bin/obj/vexmotor.o
 .bss.m9_cur_value
                0x0000000020002192        0x2 bin/obj/vexmotor.o
 .bss.vexMotors
                0x0000000020002194       0xc8 bin/obj/vexmotor.o
 .bss.m0_new_value
                0x000000002000225c        0x2 bin/obj/vexmotor.o
 *fill*         0x000000002000225e        0x2 
 .bss.PwmTimer  0x0000000020002260        0x4 bin/obj/vexmotor.o
 .bss.vexSpiData
                0x0000000020002264       0x68 bin/obj/vexspi.o
 .bss.spiThread
                0x00000000200022cc        0x4 bin/obj/vexspi.o
 .bss.lcd_running
                0x00000000200022d0        0x2 bin/obj/vexlcd.o
 *fill*         0x00000000200022d2        0x2 
 .bss.lcd_buffer
                0x00000000200022d4       0x20 bin/obj/vexlcd.o
 *fill*         0x00000000200022f4        0x4 
 .bss.waVexLcdUpdate
                0x00000000200022f8      0x180 bin/obj/vexlcd.o
 .bss.adccfg    0x0000000020002478        0x4 bin/obj/vexanalog.o
 .bss.samples_buf
                0x000000002000247c       0x10 bin/obj/vexanalog.o
 .bss.vexLocalCompState
                0x000000002000248c        0x2 bin/obj/vexctl.o
 *fill*         0x000000002000248e        0x2 
 .bss.waVexImeTask
                0x0000000020002490      0x280 bin/obj/vexime.o
 .bss.vexImes   0x0000000020002710      0x37c bin/obj/vexime.o
 .bss.pdefs1    0x0000000020002a8c       0x64 bin/obj/vexprintf.o
 .bss.pdefs2    0x0000000020002af0       0x64 bin/obj/vexprintf.o
 *fill*         0x0000000020002b54        0x4 
 .bss.waVexTestThread
                0x0000000020002b58      0x180 bin/obj/vextest.o
 .bss.rcTasks   0x0000000020002cd8       0x50 bin/obj/robotc_glue.o
 .bss.sMotors   0x0000000020002d28      0x4d8 bin/obj/smartmotor.o
 .bss.sPorts    0x0000000020003200       0x9c bin/obj/smartmotor.o
 .bss.count.7994
                0x000000002000329c        0x4 bin/obj/apollo.o
 .bss.buffer.7998
                0x00000000200032a0       0x40 bin/obj/apollo.o
                0x00000000200032e0                . = ALIGN (0x4)
 *(COMMON)
                0x00000000200032e0                . = ALIGN (0x4)
                0x00000000200032e0                PROVIDE (_bss_end, .)
                [!provide]                        PROVIDE (end, .)
                0x00000000200032e0                _end = .
                0x00000000200032e0                __heap_base__ = _end
                0x0000000020010000                __heap_end__ = __ram_end__
OUTPUT(bin/output.elf elf32-littlearm)

.debug_info     0x0000000000000000    0x27f92
 .debug_info    0x0000000000000000      0x2a8 bin/obj/crt0.o
 .debug_info    0x00000000000002a8      0x1d4 bin/obj/vectors.o
 .debug_info    0x000000000000047c       0x99 bin/obj/chcore.o
 .debug_info    0x0000000000000515      0x820 bin/obj/chcore_v7m.o
 .debug_info    0x0000000000000d35      0x40d bin/obj/nvic.o
 .debug_info    0x0000000000001142      0x80e bin/obj/chsys.o
 .debug_info    0x0000000000001950      0x20c bin/obj/chvt.o
 .debug_info    0x0000000000001b5c      0x9c4 bin/obj/chschd.o
 .debug_info    0x0000000000002520      0xbd9 bin/obj/chthreads.o
 .debug_info    0x00000000000030f9      0x83c bin/obj/chdynamic.o
 .debug_info    0x0000000000003935      0x62a bin/obj/chregistry.o
 .debug_info    0x0000000000003f5f      0x9e2 bin/obj/chmtx.o
 .debug_info    0x0000000000004941      0xd79 bin/obj/chevents.o
 .debug_info    0x00000000000056ba      0xbd4 bin/obj/chqueues.o
 .debug_info    0x000000000000628e      0x226 bin/obj/chmemcore.o
 .debug_info    0x00000000000064b4      0x6f5 bin/obj/chheap.o
 .debug_info    0x0000000000006ba9      0x413 bin/obj/chmempools.o
 .debug_info    0x0000000000006fbc      0x3c9 bin/obj/hal.o
 .debug_info    0x0000000000007385      0xda4 bin/obj/adc.o
 .debug_info    0x0000000000008129      0x48c bin/obj/ext.o
 .debug_info    0x00000000000085b5      0x7fd bin/obj/gpt.o
 .debug_info    0x0000000000008db2      0xb23 bin/obj/i2c.o
 .debug_info    0x00000000000098d5      0xefb bin/obj/serial.o
 .debug_info    0x000000000000a7d0      0xffb bin/obj/spi.o
 .debug_info    0x000000000000b7cb      0x2df bin/obj/tm.o
 .debug_info    0x000000000000baaa      0x7c0 bin/obj/stm32_dma.o
 .debug_info    0x000000000000c26a      0x39d bin/obj/hal_lld.o
 .debug_info    0x000000000000c607      0xbc0 bin/obj/adc_lld.o
 .debug_info    0x000000000000d1c7      0x842 bin/obj/ext_lld_isr.o
 .debug_info    0x000000000000da09      0x43d bin/obj/ext_lld.o
 .debug_info    0x000000000000de46      0x39f bin/obj/pal_lld.o
 .debug_info    0x000000000000e1e5     0x1465 bin/obj/i2c_lld.o
 .debug_info    0x000000000000f64a      0xc15 bin/obj/spi_lld.o
 .debug_info    0x000000000001025f      0x71b bin/obj/gpt_lld.o
 .debug_info    0x000000000001097a      0xeaf bin/obj/serial_lld.o
 .debug_info    0x0000000000011829      0x227 bin/obj/board.o
 .debug_info    0x0000000000011a50      0x5f0 bin/obj/chprintf.o
 .debug_info    0x0000000000012040     0x1ced bin/obj/vexshell.o
 .debug_info    0x0000000000013d2d     0x1972 bin/obj/vexcortex.o
 .debug_info    0x000000000001569f      0x659 bin/obj/vexdigital.o
 .debug_info    0x0000000000015cf8      0x63f bin/obj/vexconfig.o
 .debug_info    0x0000000000016337      0x3b4 bin/obj/vexext.o
 .debug_info    0x00000000000166eb      0xf3c bin/obj/vexencoder.o
 .debug_info    0x0000000000017627     0x1189 bin/obj/vexsonar.o
 .debug_info    0x00000000000187b0     0x12b5 bin/obj/vexmotor.o
 .debug_info    0x0000000000019a65     0x1607 bin/obj/vexspi.o
 .debug_info    0x000000000001b06c     0x1595 bin/obj/vexlcd.o
 .debug_info    0x000000000001c601      0xb4e bin/obj/vexanalog.o
 .debug_info    0x000000000001d14f      0x4fa bin/obj/vexctl.o
 .debug_info    0x000000000001d649     0x1ded bin/obj/vexime.o
 .debug_info    0x000000000001f436     0x16c4 bin/obj/vexprintf.o
 .debug_info    0x0000000000020afa      0x710 bin/obj/vextest.o
 .debug_info    0x000000000002120a      0x760 bin/obj/robotc_glue.o
 .debug_info    0x000000000002196a     0x1dd2 bin/obj/smartmotor.o
 .debug_info    0x000000000002373c     0x3226 bin/obj/apollo.o
 .debug_info    0x0000000000026962      0xa4a bin/obj/vexuser.o
 .debug_info    0x00000000000273ac      0xbe6 bin/obj/main.o

.debug_abbrev   0x0000000000000000     0x8451
 .debug_abbrev  0x0000000000000000      0x10f bin/obj/crt0.o
 .debug_abbrev  0x000000000000010f       0xb2 bin/obj/vectors.o
 .debug_abbrev  0x00000000000001c1       0x42 bin/obj/chcore.o
 .debug_abbrev  0x0000000000000203      0x236 bin/obj/chcore_v7m.o
 .debug_abbrev  0x0000000000000439      0x10e bin/obj/nvic.o
 .debug_abbrev  0x0000000000000547      0x203 bin/obj/chsys.o
 .debug_abbrev  0x000000000000074a      0x108 bin/obj/chvt.o
 .debug_abbrev  0x0000000000000852      0x302 bin/obj/chschd.o
 .debug_abbrev  0x0000000000000b54      0x316 bin/obj/chthreads.o
 .debug_abbrev  0x0000000000000e6a      0x204 bin/obj/chdynamic.o
 .debug_abbrev  0x000000000000106e      0x17e bin/obj/chregistry.o
 .debug_abbrev  0x00000000000011ec      0x2d2 bin/obj/chmtx.o
 .debug_abbrev  0x00000000000014be      0x2b4 bin/obj/chevents.o
 .debug_abbrev  0x0000000000001772      0x32f bin/obj/chqueues.o
 .debug_abbrev  0x0000000000001aa1      0x15b bin/obj/chmemcore.o
 .debug_abbrev  0x0000000000001bfc      0x1d2 bin/obj/chheap.o
 .debug_abbrev  0x0000000000001dce      0x1f4 bin/obj/chmempools.o
 .debug_abbrev  0x0000000000001fc2      0x1a5 bin/obj/hal.o
 .debug_abbrev  0x0000000000002167      0x2b3 bin/obj/adc.o
 .debug_abbrev  0x000000000000241a      0x181 bin/obj/ext.o
 .debug_abbrev  0x000000000000259b      0x1fd bin/obj/gpt.o
 .debug_abbrev  0x0000000000002798      0x23b bin/obj/i2c.o
 .debug_abbrev  0x00000000000029d3      0x26d bin/obj/serial.o
 .debug_abbrev  0x0000000000002c40      0x243 bin/obj/spi.o
 .debug_abbrev  0x0000000000002e83      0x19a bin/obj/tm.o
 .debug_abbrev  0x000000000000301d      0x212 bin/obj/stm32_dma.o
 .debug_abbrev  0x000000000000322f      0x119 bin/obj/hal_lld.o
 .debug_abbrev  0x0000000000003348      0x29c bin/obj/adc_lld.o
 .debug_abbrev  0x00000000000035e4      0x1d3 bin/obj/ext_lld_isr.o
 .debug_abbrev  0x00000000000037b7      0x202 bin/obj/ext_lld.o
 .debug_abbrev  0x00000000000039b9      0x12a bin/obj/pal_lld.o
 .debug_abbrev  0x0000000000003ae3      0x3a3 bin/obj/i2c_lld.o
 .debug_abbrev  0x0000000000003e86      0x2bc bin/obj/spi_lld.o
 .debug_abbrev  0x0000000000004142      0x22c bin/obj/gpt_lld.o
 .debug_abbrev  0x000000000000436e      0x303 bin/obj/serial_lld.o
 .debug_abbrev  0x0000000000004671      0x11e bin/obj/board.o
 .debug_abbrev  0x000000000000478f      0x253 bin/obj/chprintf.o
 .debug_abbrev  0x00000000000049e2      0x43d bin/obj/vexshell.o
 .debug_abbrev  0x0000000000004e1f      0x34f bin/obj/vexcortex.o
 .debug_abbrev  0x000000000000516e      0x28f bin/obj/vexdigital.o
 .debug_abbrev  0x00000000000053fd      0x162 bin/obj/vexconfig.o
 .debug_abbrev  0x000000000000555f      0x1a6 bin/obj/vexext.o
 .debug_abbrev  0x0000000000005705      0x2be bin/obj/vexencoder.o
 .debug_abbrev  0x00000000000059c3      0x34d bin/obj/vexsonar.o
 .debug_abbrev  0x0000000000005d10      0x3fd bin/obj/vexmotor.o
 .debug_abbrev  0x000000000000610d      0x362 bin/obj/vexspi.o
 .debug_abbrev  0x000000000000646f      0x3e4 bin/obj/vexlcd.o
 .debug_abbrev  0x0000000000006853      0x241 bin/obj/vexanalog.o
 .debug_abbrev  0x0000000000006a94      0x18f bin/obj/vexctl.o
 .debug_abbrev  0x0000000000006c23      0x3b7 bin/obj/vexime.o
 .debug_abbrev  0x0000000000006fda      0x39e bin/obj/vexprintf.o
 .debug_abbrev  0x0000000000007378      0x1c9 bin/obj/vextest.o
 .debug_abbrev  0x0000000000007541      0x248 bin/obj/robotc_glue.o
 .debug_abbrev  0x0000000000007789      0x46c bin/obj/smartmotor.o
 .debug_abbrev  0x0000000000007bf5      0x41d bin/obj/apollo.o
 .debug_abbrev  0x0000000000008012      0x20d bin/obj/vexuser.o
 .debug_abbrev  0x000000000000821f      0x232 bin/obj/main.o

.debug_loc      0x0000000000000000     0xda81
 .debug_loc     0x0000000000000000       0xba bin/obj/crt0.o
 .debug_loc     0x00000000000000ba       0x5a bin/obj/chcore_v7m.o
 .debug_loc     0x0000000000000114      0x148 bin/obj/nvic.o
 .debug_loc     0x000000000000025c       0x31 bin/obj/chsys.o
 .debug_loc     0x000000000000028d       0x86 bin/obj/chvt.o
 .debug_loc     0x0000000000000313      0x32e bin/obj/chschd.o
 .debug_loc     0x0000000000000641      0x49d bin/obj/chthreads.o
 .debug_loc     0x0000000000000ade      0x1d0 bin/obj/chdynamic.o
 .debug_loc     0x0000000000000cae       0x3f bin/obj/chregistry.o
 .debug_loc     0x0000000000000ced      0x3b4 bin/obj/chmtx.o
 .debug_loc     0x00000000000010a1      0x609 bin/obj/chevents.o
 .debug_loc     0x00000000000016aa      0x51a bin/obj/chqueues.o
 .debug_loc     0x0000000000001bc4       0xb0 bin/obj/chmemcore.o
 .debug_loc     0x0000000000001c74      0x3a1 bin/obj/chheap.o
 .debug_loc     0x0000000000002015      0x1b4 bin/obj/chmempools.o
 .debug_loc     0x00000000000021c9       0xce bin/obj/hal.o
 .debug_loc     0x0000000000002297      0x3f3 bin/obj/adc.o
 .debug_loc     0x000000000000268a      0x19e bin/obj/ext.o
 .debug_loc     0x0000000000002828      0x2ab bin/obj/gpt.o
 .debug_loc     0x0000000000002ad3      0x205 bin/obj/i2c.o
 .debug_loc     0x0000000000002cd8      0x4e4 bin/obj/serial.o
 .debug_loc     0x00000000000031bc      0x468 bin/obj/spi.o
 .debug_loc     0x0000000000003624       0x48 bin/obj/tm.o
 .debug_loc     0x000000000000366c      0x216 bin/obj/stm32_dma.o
 .debug_loc     0x0000000000003882      0x2e6 bin/obj/adc_lld.o
 .debug_loc     0x0000000000003b68       0xbe bin/obj/ext_lld_isr.o
 .debug_loc     0x0000000000003c26      0x221 bin/obj/ext_lld.o
 .debug_loc     0x0000000000003e47       0xf0 bin/obj/pal_lld.o
 .debug_loc     0x0000000000003f37      0x727 bin/obj/i2c_lld.o
 .debug_loc     0x000000000000465e      0x254 bin/obj/spi_lld.o
 .debug_loc     0x00000000000048b2      0x20d bin/obj/gpt_lld.o
 .debug_loc     0x0000000000004abf      0x22d bin/obj/serial_lld.o
 .debug_loc     0x0000000000004cec      0x73f bin/obj/chprintf.o
 .debug_loc     0x000000000000542b      0xca5 bin/obj/vexshell.o
 .debug_loc     0x00000000000060d0      0x3fa bin/obj/vexcortex.o
 .debug_loc     0x00000000000064ca      0x32a bin/obj/vexdigital.o
 .debug_loc     0x00000000000067f4      0x48b bin/obj/vexconfig.o
 .debug_loc     0x0000000000006c7f       0x6b bin/obj/vexext.o
 .debug_loc     0x0000000000006cea      0x884 bin/obj/vexencoder.o
 .debug_loc     0x000000000000756e      0x269 bin/obj/vexsonar.o
 .debug_loc     0x00000000000077d7      0x627 bin/obj/vexmotor.o
 .debug_loc     0x0000000000007dfe      0x412 bin/obj/vexspi.o
 .debug_loc     0x0000000000008210      0x935 bin/obj/vexlcd.o
 .debug_loc     0x0000000000008b45       0xd1 bin/obj/vexanalog.o
 .debug_loc     0x0000000000008c16      0x200 bin/obj/vexctl.o
 .debug_loc     0x0000000000008e16      0xc28 bin/obj/vexime.o
 .debug_loc     0x0000000000009a3e     0x137f bin/obj/vexprintf.o
 .debug_loc     0x000000000000adbd       0x21 bin/obj/vextest.o
 .debug_loc     0x000000000000adde      0x18b bin/obj/robotc_glue.o
 .debug_loc     0x000000000000af69     0x14da bin/obj/smartmotor.o
 .debug_loc     0x000000000000c443     0x14e7 bin/obj/apollo.o
 .debug_loc     0x000000000000d92a       0x68 bin/obj/vexuser.o
 .debug_loc     0x000000000000d992       0xef bin/obj/main.o

.debug_aranges  0x0000000000000000     0x1510
 .debug_aranges
                0x0000000000000000       0x30 bin/obj/crt0.o
 .debug_aranges
                0x0000000000000030       0x20 bin/obj/vectors.o
 .debug_aranges
                0x0000000000000050       0x20 bin/obj/chcore.o
 .debug_aranges
                0x0000000000000070       0x50 bin/obj/chcore_v7m.o
 .debug_aranges
                0x00000000000000c0       0x30 bin/obj/nvic.o
 .debug_aranges
                0x00000000000000f0       0x30 bin/obj/chsys.o
 .debug_aranges
                0x0000000000000120       0x30 bin/obj/chvt.o
 .debug_aranges
                0x0000000000000150       0x68 bin/obj/chschd.o
 .debug_aranges
                0x00000000000001b8       0x78 bin/obj/chthreads.o
 .debug_aranges
                0x0000000000000230       0x38 bin/obj/chdynamic.o
 .debug_aranges
                0x0000000000000268       0x28 bin/obj/chregistry.o
 .debug_aranges
                0x0000000000000290       0x58 bin/obj/chmtx.o
 .debug_aranges
                0x00000000000002e8       0xa0 bin/obj/chevents.o
 .debug_aranges
                0x0000000000000388       0x70 bin/obj/chqueues.o
 .debug_aranges
                0x00000000000003f8       0x38 bin/obj/chmemcore.o
 .debug_aranges
                0x0000000000000430       0x40 bin/obj/chheap.o
 .debug_aranges
                0x0000000000000470       0x48 bin/obj/chmempools.o
 .debug_aranges
                0x00000000000004b8       0x30 bin/obj/hal.o
 .debug_aranges
                0x00000000000004e8       0x70 bin/obj/adc.o
 .debug_aranges
                0x0000000000000558       0x50 bin/obj/ext.o
 .debug_aranges
                0x00000000000005a8       0x78 bin/obj/gpt.o
 .debug_aranges
                0x0000000000000620       0x60 bin/obj/i2c.o
 .debug_aranges
                0x0000000000000680       0x88 bin/obj/serial.o
 .debug_aranges
                0x0000000000000708       0x98 bin/obj/spi.o
 .debug_aranges
                0x00000000000007a0       0x38 bin/obj/tm.o
 .debug_aranges
                0x00000000000007d8       0x88 bin/obj/stm32_dma.o
 .debug_aranges
                0x0000000000000860       0x28 bin/obj/hal_lld.o
 .debug_aranges
                0x0000000000000888       0x48 bin/obj/adc_lld.o
 .debug_aranges
                0x00000000000008d0       0x78 bin/obj/ext_lld_isr.o
 .debug_aranges
                0x0000000000000948       0x40 bin/obj/ext_lld.o
 .debug_aranges
                0x0000000000000988       0x28 bin/obj/pal_lld.o
 .debug_aranges
                0x00000000000009b0       0x70 bin/obj/i2c_lld.o
 .debug_aranges
                0x0000000000000a20       0x78 bin/obj/spi_lld.o
 .debug_aranges
                0x0000000000000a98       0x60 bin/obj/gpt_lld.o
 .debug_aranges
                0x0000000000000af8       0x68 bin/obj/serial_lld.o
 .debug_aranges
                0x0000000000000b60       0x28 bin/obj/board.o
 .debug_aranges
                0x0000000000000b88       0x30 bin/obj/chprintf.o
 .debug_aranges
                0x0000000000000bb8       0x78 bin/obj/vexshell.o
 .debug_aranges
                0x0000000000000c30       0x90 bin/obj/vexcortex.o
 .debug_aranges
                0x0000000000000cc0       0x58 bin/obj/vexdigital.o
 .debug_aranges
                0x0000000000000d18       0x48 bin/obj/vexconfig.o
 .debug_aranges
                0x0000000000000d60       0x28 bin/obj/vexext.o
 .debug_aranges
                0x0000000000000d88       0xb0 bin/obj/vexencoder.o
 .debug_aranges
                0x0000000000000e38       0x78 bin/obj/vexsonar.o
 .debug_aranges
                0x0000000000000eb0       0xb8 bin/obj/vexmotor.o
 .debug_aranges
                0x0000000000000f68       0x88 bin/obj/vexspi.o
 .debug_aranges
                0x0000000000000ff0       0x88 bin/obj/vexlcd.o
 .debug_aranges
                0x0000000000001078       0x30 bin/obj/vexanalog.o
 .debug_aranges
                0x00000000000010a8       0x38 bin/obj/vexctl.o
 .debug_aranges
                0x00000000000010e0       0xf8 bin/obj/vexime.o
 .debug_aranges
                0x00000000000011d8       0x78 bin/obj/vexprintf.o
 .debug_aranges
                0x0000000000001250       0x30 bin/obj/vextest.o
 .debug_aranges
                0x0000000000001280       0x38 bin/obj/robotc_glue.o
 .debug_aranges
                0x00000000000012b8      0x150 bin/obj/smartmotor.o
 .debug_aranges
                0x0000000000001408       0xa8 bin/obj/apollo.o
 .debug_aranges
                0x00000000000014b0       0x38 bin/obj/vexuser.o
 .debug_aranges
                0x00000000000014e8       0x28 bin/obj/main.o

.debug_ranges   0x0000000000000000     0x2268
 .debug_ranges  0x0000000000000000       0x50 bin/obj/crt0.o
 .debug_ranges  0x0000000000000050       0x10 bin/obj/vectors.o
 .debug_ranges  0x0000000000000060       0x10 bin/obj/chcore.o
 .debug_ranges  0x0000000000000070       0x58 bin/obj/chcore_v7m.o
 .debug_ranges  0x00000000000000c8       0x20 bin/obj/nvic.o
 .debug_ranges  0x00000000000000e8       0x38 bin/obj/chsys.o
 .debug_ranges  0x0000000000000120       0x20 bin/obj/chvt.o
 .debug_ranges  0x0000000000000140      0x188 bin/obj/chschd.o
 .debug_ranges  0x00000000000002c8      0x118 bin/obj/chthreads.o
 .debug_ranges  0x00000000000003e0       0x58 bin/obj/chdynamic.o
 .debug_ranges  0x0000000000000438       0x30 bin/obj/chregistry.o
 .debug_ranges  0x0000000000000468      0x148 bin/obj/chmtx.o
 .debug_ranges  0x00000000000005b0      0x108 bin/obj/chevents.o
 .debug_ranges  0x00000000000006b8       0xd8 bin/obj/chqueues.o
 .debug_ranges  0x0000000000000790       0x28 bin/obj/chmemcore.o
 .debug_ranges  0x00000000000007b8       0x30 bin/obj/chheap.o
 .debug_ranges  0x00000000000007e8       0xc8 bin/obj/chmempools.o
 .debug_ranges  0x00000000000008b0       0x40 bin/obj/hal.o
 .debug_ranges  0x00000000000008f0       0xd8 bin/obj/adc.o
 .debug_ranges  0x00000000000009c8       0x70 bin/obj/ext.o
 .debug_ranges  0x0000000000000a38       0x98 bin/obj/gpt.o
 .debug_ranges  0x0000000000000ad0       0x80 bin/obj/i2c.o
 .debug_ranges  0x0000000000000b50       0xa8 bin/obj/serial.o
 .debug_ranges  0x0000000000000bf8      0x100 bin/obj/spi.o
 .debug_ranges  0x0000000000000cf8       0x78 bin/obj/tm.o
 .debug_ranges  0x0000000000000d70       0x78 bin/obj/stm32_dma.o
 .debug_ranges  0x0000000000000de8       0x30 bin/obj/hal_lld.o
 .debug_ranges  0x0000000000000e18       0x88 bin/obj/adc_lld.o
 .debug_ranges  0x0000000000000ea0       0x68 bin/obj/ext_lld_isr.o
 .debug_ranges  0x0000000000000f08       0x60 bin/obj/ext_lld.o
 .debug_ranges  0x0000000000000f68       0x18 bin/obj/pal_lld.o
 .debug_ranges  0x0000000000000f80      0x148 bin/obj/i2c_lld.o
 .debug_ranges  0x00000000000010c8       0x68 bin/obj/spi_lld.o
 .debug_ranges  0x0000000000001130       0x50 bin/obj/gpt_lld.o
 .debug_ranges  0x0000000000001180       0x88 bin/obj/serial_lld.o
 .debug_ranges  0x0000000000001208       0x18 bin/obj/board.o
 .debug_ranges  0x0000000000001220       0x20 bin/obj/chprintf.o
 .debug_ranges  0x0000000000001240      0x100 bin/obj/vexshell.o
 .debug_ranges  0x0000000000001340       0xa0 bin/obj/vexcortex.o
 .debug_ranges  0x00000000000013e0       0x68 bin/obj/vexdigital.o
 .debug_ranges  0x0000000000001448       0x38 bin/obj/vexconfig.o
 .debug_ranges  0x0000000000001480       0x18 bin/obj/vexext.o
 .debug_ranges  0x0000000000001498       0xa0 bin/obj/vexencoder.o
 .debug_ranges  0x0000000000001538       0xb8 bin/obj/vexsonar.o
 .debug_ranges  0x00000000000015f0      0x140 bin/obj/vexmotor.o
 .debug_ranges  0x0000000000001730       0x78 bin/obj/vexspi.o
 .debug_ranges  0x00000000000017a8      0x110 bin/obj/vexlcd.o
 .debug_ranges  0x00000000000018b8       0x20 bin/obj/vexanalog.o
 .debug_ranges  0x00000000000018d8       0x28 bin/obj/vexctl.o
 .debug_ranges  0x0000000000001900       0xe8 bin/obj/vexime.o
 .debug_ranges  0x00000000000019e8      0x218 bin/obj/vexprintf.o
 .debug_ranges  0x0000000000001c00       0x20 bin/obj/vextest.o
 .debug_ranges  0x0000000000001c20       0x40 bin/obj/robotc_glue.o
 .debug_ranges  0x0000000000001c60      0x400 bin/obj/smartmotor.o
 .debug_ranges  0x0000000000002060      0x1c8 bin/obj/apollo.o
 .debug_ranges  0x0000000000002228       0x28 bin/obj/vexuser.o
 .debug_ranges  0x0000000000002250       0x18 bin/obj/main.o

.debug_line     0x0000000000000000     0xcfa2
 .debug_line    0x0000000000000000      0x17b bin/obj/crt0.o
 .debug_line    0x000000000000017b      0x12e bin/obj/vectors.o
 .debug_line    0x00000000000002a9       0x58 bin/obj/chcore.o
 .debug_line    0x0000000000000301      0x25c bin/obj/chcore_v7m.o
 .debug_line    0x000000000000055d      0x160 bin/obj/nvic.o
 .debug_line    0x00000000000006bd      0x220 bin/obj/chsys.o
 .debug_line    0x00000000000008dd      0x1ac bin/obj/chvt.o
 .debug_line    0x0000000000000a89      0x3b6 bin/obj/chschd.o
 .debug_line    0x0000000000000e3f      0x419 bin/obj/chthreads.o
 .debug_line    0x0000000000001258      0x2a7 bin/obj/chdynamic.o
 .debug_line    0x00000000000014ff      0x256 bin/obj/chregistry.o
 .debug_line    0x0000000000001755      0x389 bin/obj/chmtx.o
 .debug_line    0x0000000000001ade      0x36d bin/obj/chevents.o
 .debug_line    0x0000000000001e4b      0x3eb bin/obj/chqueues.o
 .debug_line    0x0000000000002236      0x1d7 bin/obj/chmemcore.o
 .debug_line    0x000000000000240d      0x2f7 bin/obj/chheap.o
 .debug_line    0x0000000000002704      0x25b bin/obj/chmempools.o
 .debug_line    0x000000000000295f      0x30c bin/obj/hal.o
 .debug_line    0x0000000000002c6b      0x3de bin/obj/adc.o
 .debug_line    0x0000000000003049      0x226 bin/obj/ext.o
 .debug_line    0x000000000000326f      0x2a3 bin/obj/gpt.o
 .debug_line    0x0000000000003512      0x393 bin/obj/i2c.o
 .debug_line    0x00000000000038a5      0x3fe bin/obj/serial.o
 .debug_line    0x0000000000003ca3      0x44c bin/obj/spi.o
 .debug_line    0x00000000000040ef      0x246 bin/obj/tm.o
 .debug_line    0x0000000000004335      0x37e bin/obj/stm32_dma.o
 .debug_line    0x00000000000046b3      0x233 bin/obj/hal_lld.o
 .debug_line    0x00000000000048e6      0x40e bin/obj/adc_lld.o
 .debug_line    0x0000000000004cf4      0x35c bin/obj/ext_lld_isr.o
 .debug_line    0x0000000000005050      0x28c bin/obj/ext_lld.o
 .debug_line    0x00000000000052dc      0x220 bin/obj/pal_lld.o
 .debug_line    0x00000000000054fc      0x5a1 bin/obj/i2c_lld.o
 .debug_line    0x0000000000005a9d      0x499 bin/obj/spi_lld.o
 .debug_line    0x0000000000005f36      0x388 bin/obj/gpt_lld.o
 .debug_line    0x00000000000062be      0x455 bin/obj/serial_lld.o
 .debug_line    0x0000000000006713      0x1fb bin/obj/board.o
 .debug_line    0x000000000000690e      0x324 bin/obj/chprintf.o
 .debug_line    0x0000000000006c32      0x5e7 bin/obj/vexshell.o
 .debug_line    0x0000000000007219      0x603 bin/obj/vexcortex.o
 .debug_line    0x000000000000781c      0x302 bin/obj/vexdigital.o
 .debug_line    0x0000000000007b1e      0x305 bin/obj/vexconfig.o
 .debug_line    0x0000000000007e23      0x25d bin/obj/vexext.o
 .debug_line    0x0000000000008080      0x54e bin/obj/vexencoder.o
 .debug_line    0x00000000000085ce      0x534 bin/obj/vexsonar.o
 .debug_line    0x0000000000008b02      0x677 bin/obj/vexmotor.o
 .debug_line    0x0000000000009179      0x61f bin/obj/vexspi.o
 .debug_line    0x0000000000009798      0x573 bin/obj/vexlcd.o
 .debug_line    0x0000000000009d0b      0x348 bin/obj/vexanalog.o
 .debug_line    0x000000000000a053      0x229 bin/obj/vexctl.o
 .debug_line    0x000000000000a27c      0x78a bin/obj/vexime.o
 .debug_line    0x000000000000aa06      0x75f bin/obj/vexprintf.o
 .debug_line    0x000000000000b165      0x2b8 bin/obj/vextest.o
 .debug_line    0x000000000000b41d      0x2e2 bin/obj/robotc_glue.o
 .debug_line    0x000000000000b6ff      0x9b6 bin/obj/smartmotor.o
 .debug_line    0x000000000000c0b5      0x893 bin/obj/apollo.o
 .debug_line    0x000000000000c948      0x287 bin/obj/vexuser.o
 .debug_line    0x000000000000cbcf      0x3d3 bin/obj/main.o

.debug_str      0x0000000000000000     0x5282
 .debug_str     0x0000000000000000      0x285 bin/obj/crt0.o
                                        0x2d0 (size before relaxing)
 .debug_str     0x0000000000000285      0x156 bin/obj/vectors.o
                                        0x30a (size before relaxing)
 .debug_str     0x00000000000003db       0x32 bin/obj/chcore.o
                                        0x1d2 (size before relaxing)
 .debug_str     0x000000000000040d      0x2e1 bin/obj/chcore_v7m.o
                                        0x4c6 (size before relaxing)
 .debug_str     0x00000000000006ee       0xa3 bin/obj/nvic.o
                                        0x2dc (size before relaxing)
 .debug_str     0x0000000000000791      0x207 bin/obj/chsys.o
                                        0x5ad (size before relaxing)
 .debug_str     0x0000000000000998       0x3b bin/obj/chvt.o
                                        0x25d (size before relaxing)
 .debug_str     0x00000000000009d3       0xda bin/obj/chschd.o
                                        0x4d3 (size before relaxing)
 .debug_str     0x0000000000000aad       0xdf bin/obj/chthreads.o
                                        0x53e (size before relaxing)
 .debug_str     0x0000000000000b8c      0x112 bin/obj/chdynamic.o
                                        0x4c0 (size before relaxing)
 .debug_str     0x0000000000000c9e       0x47 bin/obj/chregistry.o
                                        0x4cc (size before relaxing)
 .debug_str     0x0000000000000ce5       0x96 bin/obj/chmtx.o
                                        0x458 (size before relaxing)
 .debug_str     0x0000000000000d7b      0x1be bin/obj/chevents.o
                                        0x57c (size before relaxing)
 .debug_str     0x0000000000000f39      0x12b bin/obj/chqueues.o
                                        0x4e3 (size before relaxing)
 .debug_str     0x0000000000001064       0x75 bin/obj/chmemcore.o
                                        0x252 (size before relaxing)
 .debug_str     0x00000000000010d9       0x4d bin/obj/chheap.o
                                        0x447 (size before relaxing)
 .debug_str     0x0000000000001126       0x5a bin/obj/chmempools.o
                                        0x2a0 (size before relaxing)
 .debug_str     0x0000000000001180      0x15f bin/obj/hal.o
                                        0x342 (size before relaxing)
 .debug_str     0x00000000000012df      0x2e8 bin/obj/adc.o
                                        0x6ff (size before relaxing)
 .debug_str     0x00000000000015c7      0x143 bin/obj/ext.o
                                        0x341 (size before relaxing)
 .debug_str     0x000000000000170a      0x203 bin/obj/gpt.o
                                        0x3f1 (size before relaxing)
 .debug_str     0x000000000000190d      0x2d2 bin/obj/i2c.o
                                        0x6d6 (size before relaxing)
 .debug_str     0x0000000000001bdf      0x128 bin/obj/serial.o
                                        0x65b (size before relaxing)
 .debug_str     0x0000000000001d07      0x21d bin/obj/spi.o
                                        0x6ec (size before relaxing)
 .debug_str     0x0000000000001f24       0x6c bin/obj/tm.o
                                        0x2a3 (size before relaxing)
 .debug_str     0x0000000000001f90      0x528 bin/obj/stm32_dma.o
                                        0x7dc (size before relaxing)
 .debug_str     0x00000000000024b8       0xc4 bin/obj/hal_lld.o
                                        0x34b (size before relaxing)
 .debug_str     0x000000000000257c       0x61 bin/obj/adc_lld.o
                                        0x6cd (size before relaxing)
 .debug_str     0x00000000000025dd       0xe2 bin/obj/ext_lld_isr.o
                                        0x721 (size before relaxing)
 .debug_str     0x00000000000026bf       0x50 bin/obj/ext_lld.o
                                        0x382 (size before relaxing)
 .debug_str     0x000000000000270f       0x66 bin/obj/pal_lld.o
                                        0x31e (size before relaxing)
 .debug_str     0x0000000000002775      0x130 bin/obj/i2c_lld.o
                                        0xc90 (size before relaxing)
 .debug_str     0x00000000000028a5       0x9c bin/obj/spi_lld.o
                                        0x702 (size before relaxing)
 .debug_str     0x0000000000002941       0x78 bin/obj/gpt_lld.o
                                        0x439 (size before relaxing)
 .debug_str     0x00000000000029b9       0x8c bin/obj/serial_lld.o
                                        0x692 (size before relaxing)
 .debug_str     0x0000000000002a45       0x46 bin/obj/board.o
                                        0x2c3 (size before relaxing)
 .debug_str     0x0000000000002a8b      0x10a bin/obj/chprintf.o
                                        0x316 (size before relaxing)
 .debug_str     0x0000000000002b95      0x375 bin/obj/vexshell.o
                                        0x8ed (size before relaxing)
 .debug_str     0x0000000000002f0a      0x3c7 bin/obj/vexcortex.o
                                        0xdc2 (size before relaxing)
 .debug_str     0x00000000000032d1      0x119 bin/obj/vexdigital.o
                                        0x582 (size before relaxing)
 .debug_str     0x00000000000033ea      0x3e9 bin/obj/vexconfig.o
                                        0x7b0 (size before relaxing)
 .debug_str     0x00000000000037d3       0x2f bin/obj/vexext.o
                                        0x46a (size before relaxing)
 .debug_str     0x0000000000003802      0x201 bin/obj/vexencoder.o
                                        0x76f (size before relaxing)
 .debug_str     0x0000000000003a03      0x1c3 bin/obj/vexsonar.o
                                        0xaa2 (size before relaxing)
 .debug_str     0x0000000000003bc6      0x1f2 bin/obj/vexmotor.o
                                        0xca3 (size before relaxing)
 .debug_str     0x0000000000003db8      0x1b9 bin/obj/vexspi.o
                                        0xb22 (size before relaxing)
 .debug_str     0x0000000000003f71      0x1cc bin/obj/vexlcd.o
                                        0x9cc (size before relaxing)
 .debug_str     0x000000000000413d       0x57 bin/obj/vexanalog.o
                                        0x7db (size before relaxing)
 .debug_str     0x0000000000004194      0x205 bin/obj/vexctl.o
                                        0x678 (size before relaxing)
 .debug_str     0x0000000000004399      0x2f2 bin/obj/vexime.o
                                        0xcb4 (size before relaxing)
 .debug_str     0x000000000000468b      0x1bf bin/obj/vexprintf.o
                                        0x95a (size before relaxing)
 .debug_str     0x000000000000484a       0x51 bin/obj/vextest.o
                                        0x5dc (size before relaxing)
 .debug_str     0x000000000000489b       0x70 bin/obj/robotc_glue.o
                                        0x5f4 (size before relaxing)
 .debug_str     0x000000000000490b      0x717 bin/obj/smartmotor.o
                                        0xead (size before relaxing)
 .debug_str     0x0000000000005022      0x207 bin/obj/apollo.o
                                        0xd56 (size before relaxing)
 .debug_str     0x0000000000005229       0x34 bin/obj/vexuser.o
                                        0x9f3 (size before relaxing)
 .debug_str     0x000000000000525d       0x25 bin/obj/main.o
                                        0x7e1 (size before relaxing)

.comment        0x0000000000000000       0x6e
 .comment       0x0000000000000000       0x6e bin/obj/crt0.o
                                         0x6f (size before relaxing)
 .comment       0x000000000000006e       0x6f bin/obj/vectors.o
 .comment       0x000000000000006e       0x6f bin/obj/chcore.o
 .comment       0x000000000000006e       0x6f bin/obj/chcore_v7m.o
 .comment       0x000000000000006e       0x6f bin/obj/nvic.o
 .comment       0x000000000000006e       0x6f bin/obj/chsys.o
 .comment       0x000000000000006e       0x6f bin/obj/chvt.o
 .comment       0x000000000000006e       0x6f bin/obj/chschd.o
 .comment       0x000000000000006e       0x6f bin/obj/chthreads.o
 .comment       0x000000000000006e       0x6f bin/obj/chdynamic.o
 .comment       0x000000000000006e       0x6f bin/obj/chregistry.o
 .comment       0x000000000000006e       0x6f bin/obj/chmtx.o
 .comment       0x000000000000006e       0x6f bin/obj/chevents.o
 .comment       0x000000000000006e       0x6f bin/obj/chqueues.o
 .comment       0x000000000000006e       0x6f bin/obj/chmemcore.o
 .comment       0x000000000000006e       0x6f bin/obj/chheap.o
 .comment       0x000000000000006e       0x6f bin/obj/chmempools.o
 .comment       0x000000000000006e       0x6f bin/obj/hal.o
 .comment       0x000000000000006e       0x6f bin/obj/adc.o
 .comment       0x000000000000006e       0x6f bin/obj/ext.o
 .comment       0x000000000000006e       0x6f bin/obj/gpt.o
 .comment       0x000000000000006e       0x6f bin/obj/i2c.o
 .comment       0x000000000000006e       0x6f bin/obj/serial.o
 .comment       0x000000000000006e       0x6f bin/obj/spi.o
 .comment       0x000000000000006e       0x6f bin/obj/tm.o
 .comment       0x000000000000006e       0x6f bin/obj/stm32_dma.o
 .comment       0x000000000000006e       0x6f bin/obj/hal_lld.o
 .comment       0x000000000000006e       0x6f bin/obj/adc_lld.o
 .comment       0x000000000000006e       0x6f bin/obj/ext_lld_isr.o
 .comment       0x000000000000006e       0x6f bin/obj/ext_lld.o
 .comment       0x000000000000006e       0x6f bin/obj/pal_lld.o
 .comment       0x000000000000006e       0x6f bin/obj/i2c_lld.o
 .comment       0x000000000000006e       0x6f bin/obj/spi_lld.o
 .comment       0x000000000000006e       0x6f bin/obj/gpt_lld.o
 .comment       0x000000000000006e       0x6f bin/obj/serial_lld.o
 .comment       0x000000000000006e       0x6f bin/obj/board.o
 .comment       0x000000000000006e       0x6f bin/obj/chprintf.o
 .comment       0x000000000000006e       0x6f bin/obj/vexshell.o
 .comment       0x000000000000006e       0x6f bin/obj/vexcortex.o
 .comment       0x000000000000006e       0x6f bin/obj/vexdigital.o
 .comment       0x000000000000006e       0x6f bin/obj/vexconfig.o
 .comment       0x000000000000006e       0x6f bin/obj/vexext.o
 .comment       0x000000000000006e       0x6f bin/obj/vexencoder.o
 .comment       0x000000000000006e       0x6f bin/obj/vexsonar.o
 .comment       0x000000000000006e       0x6f bin/obj/vexmotor.o
 .comment       0x000000000000006e       0x6f bin/obj/vexspi.o
 .comment       0x000000000000006e       0x6f bin/obj/vexlcd.o
 .comment       0x000000000000006e       0x6f bin/obj/vexanalog.o
 .comment       0x000000000000006e       0x6f bin/obj/vexctl.o
 .comment       0x000000000000006e       0x6f bin/obj/vexime.o
 .comment       0x000000000000006e       0x6f bin/obj/vexprintf.o
 .comment       0x000000000000006e       0x6f bin/obj/vextest.o
 .comment       0x000000000000006e       0x6f bin/obj/robotc_glue.o
 .comment       0x000000000000006e       0x6f bin/obj/smartmotor.o
 .comment       0x000000000000006e       0x6f bin/obj/apollo.o
 .comment       0x000000000000006e       0x6f bin/obj/vexuser.o
 .comment       0x000000000000006e       0x6f bin/obj/main.o

.ARM.attributes
                0x0000000000000000       0x31
 .ARM.attributes
                0x0000000000000000       0x33 bin/obj/crt0.o
 .ARM.attributes
                0x0000000000000033       0x33 bin/obj/vectors.o
 .ARM.attributes
                0x0000000000000066       0x33 bin/obj/chcore.o
 .ARM.attributes
                0x0000000000000099       0x33 bin/obj/chcore_v7m.o
 .ARM.attributes
                0x00000000000000cc       0x33 bin/obj/nvic.o
 .ARM.attributes
                0x00000000000000ff       0x33 bin/obj/chsys.o
 .ARM.attributes
                0x0000000000000132       0x33 bin/obj/chvt.o
 .ARM.attributes
                0x0000000000000165       0x33 bin/obj/chschd.o
 .ARM.attributes
                0x0000000000000198       0x33 bin/obj/chthreads.o
 .ARM.attributes
                0x00000000000001cb       0x33 bin/obj/chdynamic.o
 .ARM.attributes
                0x00000000000001fe       0x33 bin/obj/chregistry.o
 .ARM.attributes
                0x0000000000000231       0x33 bin/obj/chmtx.o
 .ARM.attributes
                0x0000000000000264       0x33 bin/obj/chevents.o
 .ARM.attributes
                0x0000000000000297       0x33 bin/obj/chqueues.o
 .ARM.attributes
                0x00000000000002ca       0x33 bin/obj/chmemcore.o
 .ARM.attributes
                0x00000000000002fd       0x33 bin/obj/chheap.o
 .ARM.attributes
                0x0000000000000330       0x33 bin/obj/chmempools.o
 .ARM.attributes
                0x0000000000000363       0x33 bin/obj/hal.o
 .ARM.attributes
                0x0000000000000396       0x33 bin/obj/adc.o
 .ARM.attributes
                0x00000000000003c9       0x33 bin/obj/ext.o
 .ARM.attributes
                0x00000000000003fc       0x33 bin/obj/gpt.o
 .ARM.attributes
                0x000000000000042f       0x33 bin/obj/i2c.o
 .ARM.attributes
                0x0000000000000462       0x33 bin/obj/serial.o
 .ARM.attributes
                0x0000000000000495       0x33 bin/obj/spi.o
 .ARM.attributes
                0x00000000000004c8       0x33 bin/obj/tm.o
 .ARM.attributes
                0x00000000000004fb       0x33 bin/obj/stm32_dma.o
 .ARM.attributes
                0x000000000000052e       0x33 bin/obj/hal_lld.o
 .ARM.attributes
                0x0000000000000561       0x33 bin/obj/adc_lld.o
 .ARM.attributes
                0x0000000000000594       0x33 bin/obj/ext_lld_isr.o
 .ARM.attributes
                0x00000000000005c7       0x33 bin/obj/ext_lld.o
 .ARM.attributes
                0x00000000000005fa       0x33 bin/obj/pal_lld.o
 .ARM.attributes
                0x000000000000062d       0x33 bin/obj/i2c_lld.o
 .ARM.attributes
                0x0000000000000660       0x33 bin/obj/spi_lld.o
 .ARM.attributes
                0x0000000000000693       0x33 bin/obj/gpt_lld.o
 .ARM.attributes
                0x00000000000006c6       0x33 bin/obj/serial_lld.o
 .ARM.attributes
                0x00000000000006f9       0x33 bin/obj/board.o
 .ARM.attributes
                0x000000000000072c       0x33 bin/obj/chprintf.o
 .ARM.attributes
                0x000000000000075f       0x33 bin/obj/vexshell.o
 .ARM.attributes
                0x0000000000000792       0x33 bin/obj/vexcortex.o
 .ARM.attributes
                0x00000000000007c5       0x33 bin/obj/vexdigital.o
 .ARM.attributes
                0x00000000000007f8       0x33 bin/obj/vexconfig.o
 .ARM.attributes
                0x000000000000082b       0x33 bin/obj/vexext.o
 .ARM.attributes
                0x000000000000085e       0x33 bin/obj/vexencoder.o
 .ARM.attributes
                0x0000000000000891       0x33 bin/obj/vexsonar.o
 .ARM.attributes
                0x00000000000008c4       0x33 bin/obj/vexmotor.o
 .ARM.attributes
                0x00000000000008f7       0x33 bin/obj/vexspi.o
 .ARM.attributes
                0x000000000000092a       0x33 bin/obj/vexlcd.o
 .ARM.attributes
                0x000000000000095d       0x33 bin/obj/vexanalog.o
 .ARM.attributes
                0x0000000000000990       0x33 bin/obj/vexctl.o
 .ARM.attributes
                0x00000000000009c3       0x33 bin/obj/vexime.o
 .ARM.attributes
                0x00000000000009f6       0x33 bin/obj/vexprintf.o
 .ARM.attributes
                0x0000000000000a29       0x33 bin/obj/vextest.o
 .ARM.attributes
                0x0000000000000a5c       0x33 bin/obj/robotc_glue.o
 .ARM.attributes
                0x0000000000000a8f       0x33 bin/obj/smartmotor.o
 .ARM.attributes
                0x0000000000000ac2       0x33 bin/obj/apollo.o
 .ARM.attributes
                0x0000000000000af5       0x33 bin/obj/vexuser.o
 .ARM.attributes
                0x0000000000000b28       0x33 bin/obj/main.o
 .ARM.attributes
                0x0000000000000b5b       0x1d /Users/Luca/src/vexilla/src/gcc-arm-none-eabi-5_4-2016q3/bin/../lib/gcc/arm-none-eabi/5.4.1/armv7-m/libgcc.a(_arm_addsubdf3.o)
 .ARM.attributes
                0x0000000000000b78       0x1d /Users/Luca/src/vexilla/src/gcc-arm-none-eabi-5_4-2016q3/bin/../lib/gcc/arm-none-eabi/5.4.1/armv7-m/libgcc.a(_arm_muldivdf3.o)
 .ARM.attributes
                0x0000000000000b95       0x1d /Users/Luca/src/vexilla/src/gcc-arm-none-eabi-5_4-2016q3/bin/../lib/gcc/arm-none-eabi/5.4.1/armv7-m/libgcc.a(_arm_cmpdf2.o)
 .ARM.attributes
                0x0000000000000bb2       0x1d /Users/Luca/src/vexilla/src/gcc-arm-none-eabi-5_4-2016q3/bin/../lib/gcc/arm-none-eabi/5.4.1/armv7-m/libgcc.a(_arm_fixunsdfsi.o)
 .ARM.attributes
                0x0000000000000bcf       0x1d /Users/Luca/src/vexilla/src/gcc-arm-none-eabi-5_4-2016q3/bin/../lib/gcc/arm-none-eabi/5.4.1/armv7-m/libgcc.a(_arm_fixsfsi.o)
 .ARM.attributes
                0x0000000000000bec       0x2d /Users/Luca/src/vexilla/src/gcc-arm-none-eabi-5_4-2016q3/bin/../lib/gcc/arm-none-eabi/5.4.1/../../../../arm-none-eabi/lib/armv7-m/libc.a(lib_a-atoi.o)
 .ARM.attributes
                0x0000000000000c19       0x2d /Users/Luca/src/vexilla/src/gcc-arm-none-eabi-5_4-2016q3/bin/../lib/gcc/arm-none-eabi/5.4.1/../../../../arm-none-eabi/lib/armv7-m/libc.a(lib_a-strcasecmp.o)
 .ARM.attributes
                0x0000000000000c46       0x2d /Users/Luca/src/vexilla/src/gcc-arm-none-eabi-5_4-2016q3/bin/../lib/gcc/arm-none-eabi/5.4.1/../../../../arm-none-eabi/lib/armv7-m/libc.a(lib_a-strchr.o)
 .ARM.attributes
                0x0000000000000c73       0x2d /Users/Luca/src/vexilla/src/gcc-arm-none-eabi-5_4-2016q3/bin/../lib/gcc/arm-none-eabi/5.4.1/../../../../arm-none-eabi/lib/armv7-m/libc.a(lib_a-strncpy.o)
 .ARM.attributes
                0x0000000000000ca0       0x2d /Users/Luca/src/vexilla/src/gcc-arm-none-eabi-5_4-2016q3/bin/../lib/gcc/arm-none-eabi/5.4.1/../../../../arm-none-eabi/lib/armv7-m/libc.a(lib_a-strspn.o)
 .ARM.attributes
                0x0000000000000ccd       0x2d /Users/Luca/src/vexilla/src/gcc-arm-none-eabi-5_4-2016q3/bin/../lib/gcc/arm-none-eabi/5.4.1/../../../../arm-none-eabi/lib/armv7-m/libc.a(lib_a-strtol.o)
 .ARM.attributes
                0x0000000000000cfa       0x2d /Users/Luca/src/vexilla/src/gcc-arm-none-eabi-5_4-2016q3/bin/../lib/gcc/arm-none-eabi/5.4.1/../../../../arm-none-eabi/lib/armv7-m/libc.a(lib_a-impure.o)
 .ARM.attributes
                0x0000000000000d27       0x2d /Users/Luca/src/vexilla/src/gcc-arm-none-eabi-5_4-2016q3/bin/../lib/gcc/arm-none-eabi/5.4.1/../../../../arm-none-eabi/lib/armv7-m/libc.a(lib_a-locale.o)
 .ARM.attributes
                0x0000000000000d54       0x2d /Users/Luca/src/vexilla/src/gcc-arm-none-eabi-5_4-2016q3/bin/../lib/gcc/arm-none-eabi/5.4.1/../../../../arm-none-eabi/lib/armv7-m/libc.a(lib_a-mbtowc_r.o)
 .ARM.attributes
                0x0000000000000d81       0x2d /Users/Luca/src/vexilla/src/gcc-arm-none-eabi-5_4-2016q3/bin/../lib/gcc/arm-none-eabi/5.4.1/../../../../arm-none-eabi/lib/armv7-m/libc.a(lib_a-wctomb_r.o)
 .ARM.attributes
                0x0000000000000dae       0x2d /Users/Luca/src/vexilla/src/gcc-arm-none-eabi-5_4-2016q3/bin/../lib/gcc/arm-none-eabi/5.4.1/../../../../arm-none-eabi/lib/armv7-m/libc.a(lib_a-ctype_.o)

.debug_frame    0x0000000000000000     0x44c4
 .debug_frame   0x0000000000000000       0x50 bin/obj/crt0.o
 .debug_frame   0x0000000000000050       0x20 bin/obj/vectors.o
 .debug_frame   0x0000000000000070       0x20 bin/obj/chcore.o
 .debug_frame   0x0000000000000090       0xa0 bin/obj/chcore_v7m.o
 .debug_frame   0x0000000000000130       0x74 bin/obj/nvic.o
 .debug_frame   0x00000000000001a4       0x5c bin/obj/chsys.o
 .debug_frame   0x0000000000000200       0x4c bin/obj/chvt.o
 .debug_frame   0x000000000000024c      0x15c bin/obj/chschd.o
 .debug_frame   0x00000000000003a8      0x178 bin/obj/chthreads.o
 .debug_frame   0x0000000000000520       0x84 bin/obj/chdynamic.o
 .debug_frame   0x00000000000005a4       0x3c bin/obj/chregistry.o
 .debug_frame   0x00000000000005e0       0xec bin/obj/chmtx.o
 .debug_frame   0x00000000000006cc      0x1f4 bin/obj/chevents.o
 .debug_frame   0x00000000000008c0      0x190 bin/obj/chqueues.o
 .debug_frame   0x0000000000000a50       0x68 bin/obj/chmemcore.o
 .debug_frame   0x0000000000000ab8       0xb4 bin/obj/chheap.o
 .debug_frame   0x0000000000000b6c       0x88 bin/obj/chmempools.o
 .debug_frame   0x0000000000000bf4       0x50 bin/obj/hal.o
 .debug_frame   0x0000000000000c44      0x134 bin/obj/adc.o
 .debug_frame   0x0000000000000d78       0xc0 bin/obj/ext.o
 .debug_frame   0x0000000000000e38      0x118 bin/obj/gpt.o
 .debug_frame   0x0000000000000f50       0xec bin/obj/i2c.o
 .debug_frame   0x000000000000103c      0x148 bin/obj/serial.o
 .debug_frame   0x0000000000001184      0x1a8 bin/obj/spi.o
 .debug_frame   0x000000000000132c       0x6c bin/obj/tm.o
 .debug_frame   0x0000000000001398      0x1dc bin/obj/stm32_dma.o
 .debug_frame   0x0000000000001574       0x58 bin/obj/hal_lld.o
 .debug_frame   0x00000000000015cc      0x11c bin/obj/adc_lld.o
 .debug_frame   0x00000000000016e8      0x198 bin/obj/ext_lld_isr.o
 .debug_frame   0x0000000000001880       0xa4 bin/obj/ext_lld.o
 .debug_frame   0x0000000000001924       0x60 bin/obj/pal_lld.o
 .debug_frame   0x0000000000001984      0x1fc bin/obj/i2c_lld.o
 .debug_frame   0x0000000000001b80      0x174 bin/obj/spi_lld.o
 .debug_frame   0x0000000000001cf4      0x108 bin/obj/gpt_lld.o
 .debug_frame   0x0000000000001dfc      0x118 bin/obj/serial_lld.o
 .debug_frame   0x0000000000001f14       0x30 bin/obj/board.o
 .debug_frame   0x0000000000001f44       0xb0 bin/obj/chprintf.o
 .debug_frame   0x0000000000001ff4      0x1d8 bin/obj/vexshell.o
 .debug_frame   0x00000000000021cc      0x220 bin/obj/vexcortex.o
 .debug_frame   0x00000000000023ec       0xc4 bin/obj/vexdigital.o
 .debug_frame   0x00000000000024b0       0xb4 bin/obj/vexconfig.o
 .debug_frame   0x0000000000002564       0x4c bin/obj/vexext.o
 .debug_frame   0x00000000000025b0      0x224 bin/obj/vexencoder.o
 .debug_frame   0x00000000000027d4      0x178 bin/obj/vexsonar.o
 .debug_frame   0x000000000000294c      0x240 bin/obj/vexmotor.o
 .debug_frame   0x0000000000002b8c      0x188 bin/obj/vexspi.o
 .debug_frame   0x0000000000002d14      0x234 bin/obj/vexlcd.o
 .debug_frame   0x0000000000002f48       0x60 bin/obj/vexanalog.o
 .debug_frame   0x0000000000002fa8       0x88 bin/obj/vexctl.o
 .debug_frame   0x0000000000003030      0x418 bin/obj/vexime.o
 .debug_frame   0x0000000000003448      0x2e0 bin/obj/vexprintf.o
 .debug_frame   0x0000000000003728       0x58 bin/obj/vextest.o
 .debug_frame   0x0000000000003780       0xd8 bin/obj/robotc_glue.o
 .debug_frame   0x0000000000003858      0x56c bin/obj/smartmotor.o
 .debug_frame   0x0000000000003dc4      0x37c bin/obj/apollo.o
 .debug_frame   0x0000000000004140       0x7c bin/obj/vexuser.o
 .debug_frame   0x00000000000041bc       0x4c bin/obj/main.o
 .debug_frame   0x0000000000004208       0x30 /Users/Luca/src/vexilla/src/gcc-arm-none-eabi-5_4-2016q3/bin/../lib/gcc/arm-none-eabi/5.4.1/../../../../arm-none-eabi/lib/armv7-m/libc.a(lib_a-atoi.o)
 .debug_frame   0x0000000000004238       0x30 /Users/Luca/src/vexilla/src/gcc-arm-none-eabi-5_4-2016q3/bin/../lib/gcc/arm-none-eabi/5.4.1/../../../../arm-none-eabi/lib/armv7-m/libc.a(lib_a-strcasecmp.o)
 .debug_frame   0x0000000000004268       0x4c /Users/Luca/src/vexilla/src/gcc-arm-none-eabi-5_4-2016q3/bin/../lib/gcc/arm-none-eabi/5.4.1/../../../../arm-none-eabi/lib/armv7-m/libc.a(lib_a-strchr.o)
 .debug_frame   0x00000000000042b4       0x34 /Users/Luca/src/vexilla/src/gcc-arm-none-eabi-5_4-2016q3/bin/../lib/gcc/arm-none-eabi/5.4.1/../../../../arm-none-eabi/lib/armv7-m/libc.a(lib_a-strncpy.o)
 .debug_frame   0x00000000000042e8       0x34 /Users/Luca/src/vexilla/src/gcc-arm-none-eabi-5_4-2016q3/bin/../lib/gcc/arm-none-eabi/5.4.1/../../../../arm-none-eabi/lib/armv7-m/libc.a(lib_a-strspn.o)
 .debug_frame   0x000000000000431c       0x9c /Users/Luca/src/vexilla/src/gcc-arm-none-eabi-5_4-2016q3/bin/../lib/gcc/arm-none-eabi/5.4.1/../../../../arm-none-eabi/lib/armv7-m/libc.a(lib_a-strtol.o)
 .debug_frame   0x00000000000043b8       0x84 /Users/Luca/src/vexilla/src/gcc-arm-none-eabi-5_4-2016q3/bin/../lib/gcc/arm-none-eabi/5.4.1/../../../../arm-none-eabi/lib/armv7-m/libc.a(lib_a-locale.o)
 .debug_frame   0x000000000000443c       0x4c /Users/Luca/src/vexilla/src/gcc-arm-none-eabi-5_4-2016q3/bin/../lib/gcc/arm-none-eabi/5.4.1/../../../../arm-none-eabi/lib/armv7-m/libc.a(lib_a-mbtowc_r.o)
 .debug_frame   0x0000000000004488       0x3c /Users/Luca/src/vexilla/src/gcc-arm-none-eabi-5_4-2016q3/bin/../lib/gcc/arm-none-eabi/5.4.1/../../../../arm-none-eabi/lib/armv7-m/libc.a(lib_a-wctomb_r.o)

Cross Reference Table

Symbol                                            File
ADCD1                                             bin/obj/adc_lld.o
                                                  bin/obj/vexanalog.o
BusFaultVector                                    bin/obj/vectors.o
CleanupTask                                       bin/obj/robotc_glue.o
                                                  bin/obj/vexcortex.o
DebugMonitorVector                                bin/obj/vectors.o
EXTD1                                             bin/obj/ext_lld.o
                                                  bin/obj/vexsonar.o
                                                  bin/obj/vexencoder.o
                                                  bin/obj/vexext.o
                                                  bin/obj/vexdigital.o
                                                  bin/obj/ext_lld_isr.o
FLASH_ClearFlag                                   bin/obj/stm32_flash.o
                                                  bin/obj/vexflash.o
FLASH_ErasePage                                   bin/obj/stm32_flash.o
                                                  bin/obj/vexflash.o
FLASH_GetBank1Status                              bin/obj/stm32_flash.o
FLASH_ProgramHalfWord                             bin/obj/stm32_flash.o
FLASH_ProgramWord                                 bin/obj/stm32_flash.o
                                                  bin/obj/vexflash.o
FLASH_UnlockBank1                                 bin/obj/stm32_flash.o
                                                  bin/obj/vexflash.o
FLASH_WaitForLastOperation                        bin/obj/stm32_flash.o
GPTD1                                             bin/obj/gpt_lld.o
GPTD2                                             bin/obj/gpt_lld.o
                                                  bin/obj/vexspi.o
GPTD5                                             bin/obj/gpt_lld.o
                                                  bin/obj/vexsonar.o
GyroJitterRange                                   bin/obj/vexgyro.o
HardFaultVector                                   bin/obj/vectors.o
I2CD1                                             bin/obj/i2c_lld.o
                                                  bin/obj/vexcortex.o
MemManageVector                                   bin/obj/vectors.o
NMIVector                                         bin/obj/vectors.o
PendSVVector                                      bin/obj/vectors.o
PidControllerInit                                 bin/obj/pidlib.o
PidControllerInitWithBias                         bin/obj/pidlib.o
PidControllerMakeLut                              bin/obj/pidlib.o
PidControllerUpdate                               bin/obj/pidlib.o
ResetHandler                                      bin/obj/crt0.o
                                                  bin/obj/vectors.o
SD1                                               bin/obj/serial_lld.o
                                                  bin/obj/main.o
                                                  bin/obj/apollo.o
                                                  bin/obj/vexprintf.o
                                                  bin/obj/vexcortex.o
SD2                                               bin/obj/serial_lld.o
                                                  bin/obj/vexcortex.o
SD3                                               bin/obj/serial_lld.o
                                                  bin/obj/vexcortex.o
SPID1                                             bin/obj/spi_lld.o
                                                  bin/obj/vexspi.o
SVCallVector                                      bin/obj/chcore_v7m.o
                                                  bin/obj/vectors.o
SmartMotorControllerCurrent                       bin/obj/smartmotor.o
SmartMotorControllerGetPtr                        bin/obj/smartmotor.o
SmartMotorControllerMonitorPtc                    bin/obj/smartmotor.o
SmartMotorControllerSetLed                        bin/obj/smartmotor.o
SmartMotorControllerTemperature                   bin/obj/smartmotor.o
SmartMotorCurrent                                 bin/obj/smartmotor.o
SmartMotorCurrentMonitorDisable                   bin/obj/smartmotor.o
SmartMotorCurrentMonitorEnable                    bin/obj/smartmotor.o
SmartMotorDebugStatus                             bin/obj/smartmotor.o
SmartMotorGetControllerCurrent                    bin/obj/smartmotor.o
                                                  bin/obj/apollo.o
SmartMotorGetControllerTemperature                bin/obj/smartmotor.o
                                                  bin/obj/apollo.o
SmartMotorGetLimitCmd                             bin/obj/smartmotor.o
SmartMotorGetPtr                                  bin/obj/smartmotor.o
SmartMotorGetSpeed                                bin/obj/smartmotor.o
                                                  bin/obj/apollo.o
SmartMotorGetTemperature                          bin/obj/smartmotor.o
                                                  bin/obj/apollo.o
SmartMotorLinkMotors                              bin/obj/smartmotor.o
SmartMotorMonitorCurrent                          bin/obj/smartmotor.o
SmartMotorMonitorPtc                              bin/obj/smartmotor.o
SmartMotorPtcMonitorDisable                       bin/obj/smartmotor.o
SmartMotorPtcMonitorEnable                        bin/obj/smartmotor.o
SmartMotorRun                                     bin/obj/smartmotor.o
SmartMotorSafeCommand                             bin/obj/smartmotor.o
SmartMotorSetControllerStatusLed                  bin/obj/smartmotor.o
SmartMotorSetFreeRpm                              bin/obj/smartmotor.o
SmartMotorSetPowerExpanderStatusPort              bin/obj/smartmotor.o
SmartMotorSetSlewRate                             bin/obj/smartmotor.o
SmartMotorSimulateSpeed                           bin/obj/smartmotor.o
SmartMotorSlewRateTask                            bin/obj/smartmotor.o
SmartMotorSpeed                                   bin/obj/smartmotor.o
SmartMotorStop                                    bin/obj/smartmotor.o
SmartMotorTask                                    bin/obj/smartmotor.o
SmartMotorTemperature                             bin/obj/smartmotor.o
SmartMotorsInit                                   bin/obj/smartmotor.o
SmartMotorsSetEncoderGearing                      bin/obj/smartmotor.o
StartTaskWithPriority                             bin/obj/robotc_glue.o
                                                  bin/obj/smartmotor.o
StopTask                                          bin/obj/robotc_glue.o
                                                  bin/obj/smartmotor.o
SysTickVector                                     bin/obj/chcore_v7m.o
                                                  bin/obj/vectors.o
UsageFaultVector                                  bin/obj/vectors.o
VSL_CreateSineWave                                bin/obj/vexaudio.o
VSL_Deinit                                        bin/obj/vexaudio.o
VSL_Factorize                                     bin/obj/vexaudio.o
VSL_Init                                          bin/obj/vexaudio.o
VSL_InitTimer                                     bin/obj/vexaudio.o
Vector100                                         bin/obj/vectors.o
Vector104                                         bin/obj/vectors.o
Vector108                                         bin/obj/gpt_lld.o
                                                  bin/obj/vectors.o
Vector10C                                         bin/obj/vectors.o
Vector110                                         bin/obj/vectors.o
Vector114                                         bin/obj/vectors.o
Vector118                                         bin/obj/vectors.o
Vector11C                                         bin/obj/vectors.o
Vector120                                         bin/obj/stm32_dma.o
                                                  bin/obj/vectors.o
Vector124                                         bin/obj/stm32_dma.o
                                                  bin/obj/vectors.o
Vector128                                         bin/obj/stm32_dma.o
                                                  bin/obj/vectors.o
Vector12C                                         bin/obj/stm32_dma.o
                                                  bin/obj/vectors.o
Vector1C                                          bin/obj/vectors.o
Vector20                                          bin/obj/vectors.o
Vector24                                          bin/obj/vectors.o
Vector28                                          bin/obj/vectors.o
Vector34                                          bin/obj/vectors.o
Vector40                                          bin/obj/vectors.o
Vector44                                          bin/obj/ext_lld_isr.o
                                                  bin/obj/vectors.o
Vector48                                          bin/obj/vectors.o
Vector4C                                          bin/obj/vectors.o
Vector50                                          bin/obj/vectors.o
Vector54                                          bin/obj/vectors.o
Vector58                                          bin/obj/ext_lld_isr.o
                                                  bin/obj/vectors.o
Vector5C                                          bin/obj/ext_lld_isr.o
                                                  bin/obj/vectors.o
Vector60                                          bin/obj/ext_lld_isr.o
                                                  bin/obj/vectors.o
Vector64                                          bin/obj/ext_lld_isr.o
                                                  bin/obj/vectors.o
Vector68                                          bin/obj/ext_lld_isr.o
                                                  bin/obj/vectors.o
Vector6C                                          bin/obj/stm32_dma.o
                                                  bin/obj/vectors.o
Vector70                                          bin/obj/stm32_dma.o
                                                  bin/obj/vectors.o
Vector74                                          bin/obj/stm32_dma.o
                                                  bin/obj/vectors.o
Vector78                                          bin/obj/stm32_dma.o
                                                  bin/obj/vectors.o
Vector7C                                          bin/obj/stm32_dma.o
                                                  bin/obj/vectors.o
Vector80                                          bin/obj/stm32_dma.o
                                                  bin/obj/vectors.o
Vector84                                          bin/obj/stm32_dma.o
                                                  bin/obj/vectors.o
Vector88                                          bin/obj/vectors.o
Vector8C                                          bin/obj/vectors.o
Vector90                                          bin/obj/vectors.o
Vector94                                          bin/obj/vectors.o
Vector98                                          bin/obj/vectors.o
Vector9C                                          bin/obj/ext_lld_isr.o
                                                  bin/obj/vectors.o
VectorA0                                          bin/obj/vectors.o
VectorA4                                          bin/obj/gpt_lld.o
                                                  bin/obj/vectors.o
VectorA8                                          bin/obj/vectors.o
VectorAC                                          bin/obj/vectors.o
VectorB0                                          bin/obj/gpt_lld.o
                                                  bin/obj/vectors.o
VectorB4                                          bin/obj/vectors.o
VectorB8                                          bin/obj/vexmotor.o
                                                  bin/obj/vectors.o
VectorBC                                          bin/obj/i2c_lld.o
                                                  bin/obj/vectors.o
VectorC0                                          bin/obj/i2c_lld.o
                                                  bin/obj/vectors.o
VectorC4                                          bin/obj/vectors.o
VectorC8                                          bin/obj/vectors.o
VectorCC                                          bin/obj/vectors.o
VectorD0                                          bin/obj/vectors.o
VectorD4                                          bin/obj/serial_lld.o
                                                  bin/obj/vectors.o
VectorD8                                          bin/obj/serial_lld.o
                                                  bin/obj/vectors.o
VectorDC                                          bin/obj/serial_lld.o
                                                  bin/obj/vectors.o
VectorE0                                          bin/obj/ext_lld_isr.o
                                                  bin/obj/vectors.o
VectorE4                                          bin/obj/ext_lld_isr.o
                                                  bin/obj/vectors.o
VectorE8                                          bin/obj/ext_lld_isr.o
                                                  bin/obj/vectors.o
VectorEC                                          bin/obj/vectors.o
VectorF0                                          bin/obj/vectors.o
VectorF4                                          bin/obj/vectors.o
VectorF8                                          bin/obj/vectors.o
VectorFC                                          bin/obj/vectors.o
_PathLocale                                       /Users/Luca/src/vexilla/src/gcc-arm-none-eabi-5_4-2016q3/bin/../lib/gcc/arm-none-eabi/5.4.1/../../../../arm-none-eabi/lib/armv7-m/libc.a(lib_a-locale.o)
_SetMotor                                         bin/obj/smartmotor.o
_SmartMotorGetCurrent                             bin/obj/smartmotor.o
                                                  bin/obj/apollo.o
_SmartMotorSetLimitCurent                         bin/obj/smartmotor.o
_SmartMotorSetRpmSensor                           bin/obj/smartmotor.o
_SmartMotorsAddPowerExtender                      bin/obj/smartmotor.o
__adddf3                                          /Users/Luca/src/vexilla/src/gcc-arm-none-eabi-5_4-2016q3/bin/../lib/gcc/arm-none-eabi/5.4.1/armv7-m/libgcc.a(_arm_addsubdf3.o)
__addsf3                                          /Users/Luca/src/vexilla/src/gcc-arm-none-eabi-5_4-2016q3/bin/../lib/gcc/arm-none-eabi/5.4.1/armv7-m/libgcc.a(_arm_addsubsf3.o)
__aeabi_cdcmpeq                                   /Users/Luca/src/vexilla/src/gcc-arm-none-eabi-5_4-2016q3/bin/../lib/gcc/arm-none-eabi/5.4.1/armv7-m/libgcc.a(_arm_cmpdf2.o)
__aeabi_cdcmple                                   /Users/Luca/src/vexilla/src/gcc-arm-none-eabi-5_4-2016q3/bin/../lib/gcc/arm-none-eabi/5.4.1/armv7-m/libgcc.a(_arm_cmpdf2.o)
__aeabi_cdrcmple                                  /Users/Luca/src/vexilla/src/gcc-arm-none-eabi-5_4-2016q3/bin/../lib/gcc/arm-none-eabi/5.4.1/armv7-m/libgcc.a(_arm_cmpdf2.o)
__aeabi_cfcmpeq                                   /Users/Luca/src/vexilla/src/gcc-arm-none-eabi-5_4-2016q3/bin/../lib/gcc/arm-none-eabi/5.4.1/armv7-m/libgcc.a(_arm_cmpsf2.o)
__aeabi_cfcmple                                   /Users/Luca/src/vexilla/src/gcc-arm-none-eabi-5_4-2016q3/bin/../lib/gcc/arm-none-eabi/5.4.1/armv7-m/libgcc.a(_arm_cmpsf2.o)
__aeabi_cfrcmple                                  /Users/Luca/src/vexilla/src/gcc-arm-none-eabi-5_4-2016q3/bin/../lib/gcc/arm-none-eabi/5.4.1/armv7-m/libgcc.a(_arm_cmpsf2.o)
__aeabi_d2f                                       /Users/Luca/src/vexilla/src/gcc-arm-none-eabi-5_4-2016q3/bin/../lib/gcc/arm-none-eabi/5.4.1/armv7-m/libgcc.a(_arm_truncdfsf2.o)
                                                  bin/obj/smartmotor.o
__aeabi_d2iz                                      /Users/Luca/src/vexilla/src/gcc-arm-none-eabi-5_4-2016q3/bin/../lib/gcc/arm-none-eabi/5.4.1/armv7-m/libgcc.a(_arm_fixdfsi.o)
                                                  bin/obj/pidlib.o
                                                  bin/obj/smartmotor.o
__aeabi_d2uiz                                     /Users/Luca/src/vexilla/src/gcc-arm-none-eabi-5_4-2016q3/bin/../lib/gcc/arm-none-eabi/5.4.1/armv7-m/libgcc.a(_arm_fixunsdfsi.o)
                                                  bin/obj/vexprintf.o
__aeabi_dadd                                      /Users/Luca/src/vexilla/src/gcc-arm-none-eabi-5_4-2016q3/bin/../lib/gcc/arm-none-eabi/5.4.1/armv7-m/libgcc.a(_arm_addsubdf3.o)
                                                  bin/obj/pidlib.o
                                                  bin/obj/smartmotor.o
                                                  bin/obj/vexprintf.o
__aeabi_dcmpeq                                    /Users/Luca/src/vexilla/src/gcc-arm-none-eabi-5_4-2016q3/bin/../lib/gcc/arm-none-eabi/5.4.1/armv7-m/libgcc.a(_arm_cmpdf2.o)
__aeabi_dcmpge                                    /Users/Luca/src/vexilla/src/gcc-arm-none-eabi-5_4-2016q3/bin/../lib/gcc/arm-none-eabi/5.4.1/armv7-m/libgcc.a(_arm_cmpdf2.o)
__aeabi_dcmpgt                                    /Users/Luca/src/vexilla/src/gcc-arm-none-eabi-5_4-2016q3/bin/../lib/gcc/arm-none-eabi/5.4.1/armv7-m/libgcc.a(_arm_cmpdf2.o)
                                                  bin/obj/smartmotor.o
__aeabi_dcmple                                    /Users/Luca/src/vexilla/src/gcc-arm-none-eabi-5_4-2016q3/bin/../lib/gcc/arm-none-eabi/5.4.1/armv7-m/libgcc.a(_arm_cmpdf2.o)
__aeabi_dcmplt                                    /Users/Luca/src/vexilla/src/gcc-arm-none-eabi-5_4-2016q3/bin/../lib/gcc/arm-none-eabi/5.4.1/armv7-m/libgcc.a(_arm_cmpdf2.o)
                                                  bin/obj/smartmotor.o
                                                  bin/obj/vexprintf.o
__aeabi_ddiv                                      /Users/Luca/src/vexilla/src/gcc-arm-none-eabi-5_4-2016q3/bin/../lib/gcc/arm-none-eabi/5.4.1/armv7-m/libgcc.a(_arm_muldivdf3.o)
                                                  bin/obj/pidlib.o
                                                  bin/obj/apollo.o
                                                  bin/obj/smartmotor.o
__aeabi_dmul                                      /Users/Luca/src/vexilla/src/gcc-arm-none-eabi-5_4-2016q3/bin/../lib/gcc/arm-none-eabi/5.4.1/armv7-m/libgcc.a(_arm_muldivdf3.o)
                                                  bin/obj/pidlib.o
                                                  bin/obj/smartmotor.o
                                                  bin/obj/vexprintf.o
__aeabi_drsub                                     /Users/Luca/src/vexilla/src/gcc-arm-none-eabi-5_4-2016q3/bin/../lib/gcc/arm-none-eabi/5.4.1/armv7-m/libgcc.a(_arm_addsubdf3.o)
__aeabi_dsub                                      /Users/Luca/src/vexilla/src/gcc-arm-none-eabi-5_4-2016q3/bin/../lib/gcc/arm-none-eabi/5.4.1/armv7-m/libgcc.a(_arm_addsubdf3.o)
                                                  bin/obj/pidlib.o
                                                  bin/obj/smartmotor.o
                                                  bin/obj/vexprintf.o
__aeabi_f2d                                       /Users/Luca/src/vexilla/src/gcc-arm-none-eabi-5_4-2016q3/bin/../lib/gcc/arm-none-eabi/5.4.1/armv7-m/libgcc.a(_arm_addsubdf3.o)
                                                  bin/obj/pidlib.o
                                                  bin/obj/apollo.o
                                                  bin/obj/smartmotor.o
__aeabi_f2iz                                      /Users/Luca/src/vexilla/src/gcc-arm-none-eabi-5_4-2016q3/bin/../lib/gcc/arm-none-eabi/5.4.1/armv7-m/libgcc.a(_arm_fixsfsi.o)
                                                  bin/obj/pidlib.o
                                                  bin/obj/apollo.o
                                                  bin/obj/smartmotor.o
__aeabi_f2uiz                                     /Users/Luca/src/vexilla/src/gcc-arm-none-eabi-5_4-2016q3/bin/../lib/gcc/arm-none-eabi/5.4.1/armv7-m/libgcc.a(_arm_fixunssfsi.o)
                                                  bin/obj/pidlib.o
                                                  bin/obj/smartmotor.o
                                                  bin/obj/vexaudio.o
__aeabi_fadd                                      /Users/Luca/src/vexilla/src/gcc-arm-none-eabi-5_4-2016q3/bin/../lib/gcc/arm-none-eabi/5.4.1/armv7-m/libgcc.a(_arm_addsubsf3.o)
                                                  bin/obj/pidlib.o
                                                  bin/obj/smartmotor.o
                                                  bin/obj/vexaudio.o
__aeabi_fcmpeq                                    /Users/Luca/src/vexilla/src/gcc-arm-none-eabi-5_4-2016q3/bin/../lib/gcc/arm-none-eabi/5.4.1/armv7-m/libgcc.a(_arm_cmpsf2.o)
                                                  bin/obj/pidlib.o
                                                  bin/obj/smartmotor.o
__aeabi_fcmpge                                    /Users/Luca/src/vexilla/src/gcc-arm-none-eabi-5_4-2016q3/bin/../lib/gcc/arm-none-eabi/5.4.1/armv7-m/libgcc.a(_arm_cmpsf2.o)
                                                  bin/obj/smartmotor.o
__aeabi_fcmpgt                                    /Users/Luca/src/vexilla/src/gcc-arm-none-eabi-5_4-2016q3/bin/../lib/gcc/arm-none-eabi/5.4.1/armv7-m/libgcc.a(_arm_cmpsf2.o)
                                                  bin/obj/pidlib.o
                                                  bin/obj/smartmotor.o
__aeabi_fcmple                                    /Users/Luca/src/vexilla/src/gcc-arm-none-eabi-5_4-2016q3/bin/../lib/gcc/arm-none-eabi/5.4.1/armv7-m/libgcc.a(_arm_cmpsf2.o)
                                                  bin/obj/smartmotor.o
__aeabi_fcmplt                                    /Users/Luca/src/vexilla/src/gcc-arm-none-eabi-5_4-2016q3/bin/../lib/gcc/arm-none-eabi/5.4.1/armv7-m/libgcc.a(_arm_cmpsf2.o)
                                                  bin/obj/pidlib.o
                                                  bin/obj/smartmotor.o
__aeabi_fdiv                                      /Users/Luca/src/vexilla/src/gcc-arm-none-eabi-5_4-2016q3/bin/../lib/gcc/arm-none-eabi/5.4.1/armv7-m/libgcc.a(_arm_muldivsf3.o)
                                                  bin/obj/pidlib.o
                                                  bin/obj/smartmotor.o
__aeabi_fmul                                      /Users/Luca/src/vexilla/src/gcc-arm-none-eabi-5_4-2016q3/bin/../lib/gcc/arm-none-eabi/5.4.1/armv7-m/libgcc.a(_arm_muldivsf3.o)
                                                  bin/obj/pidlib.o
                                                  bin/obj/smartmotor.o
                                                  bin/obj/vexaudio.o
__aeabi_frsub                                     /Users/Luca/src/vexilla/src/gcc-arm-none-eabi-5_4-2016q3/bin/../lib/gcc/arm-none-eabi/5.4.1/armv7-m/libgcc.a(_arm_addsubsf3.o)
__aeabi_fsub                                      /Users/Luca/src/vexilla/src/gcc-arm-none-eabi-5_4-2016q3/bin/../lib/gcc/arm-none-eabi/5.4.1/armv7-m/libgcc.a(_arm_addsubsf3.o)
                                                  bin/obj/pidlib.o
                                                  bin/obj/smartmotor.o
__aeabi_i2d                                       /Users/Luca/src/vexilla/src/gcc-arm-none-eabi-5_4-2016q3/bin/../lib/gcc/arm-none-eabi/5.4.1/armv7-m/libgcc.a(_arm_addsubdf3.o)
                                                  bin/obj/apollo.o
                                                  bin/obj/smartmotor.o
__aeabi_i2f                                       /Users/Luca/src/vexilla/src/gcc-arm-none-eabi-5_4-2016q3/bin/../lib/gcc/arm-none-eabi/5.4.1/armv7-m/libgcc.a(_arm_addsubsf3.o)
                                                  bin/obj/pidlib.o
                                                  bin/obj/smartmotor.o
                                                  bin/obj/vexaudio.o
__aeabi_l2d                                       /Users/Luca/src/vexilla/src/gcc-arm-none-eabi-5_4-2016q3/bin/../lib/gcc/arm-none-eabi/5.4.1/armv7-m/libgcc.a(_arm_addsubdf3.o)
__aeabi_l2f                                       /Users/Luca/src/vexilla/src/gcc-arm-none-eabi-5_4-2016q3/bin/../lib/gcc/arm-none-eabi/5.4.1/armv7-m/libgcc.a(_arm_addsubsf3.o)
__aeabi_ui2d                                      /Users/Luca/src/vexilla/src/gcc-arm-none-eabi-5_4-2016q3/bin/../lib/gcc/arm-none-eabi/5.4.1/armv7-m/libgcc.a(_arm_addsubdf3.o)
                                                  bin/obj/vexprintf.o
__aeabi_ui2f                                      /Users/Luca/src/vexilla/src/gcc-arm-none-eabi-5_4-2016q3/bin/../lib/gcc/arm-none-eabi/5.4.1/armv7-m/libgcc.a(_arm_addsubsf3.o)
                                                  bin/obj/smartmotor.o
__aeabi_ul2d                                      /Users/Luca/src/vexilla/src/gcc-arm-none-eabi-5_4-2016q3/bin/../lib/gcc/arm-none-eabi/5.4.1/armv7-m/libgcc.a(_arm_addsubdf3.o)
__aeabi_ul2f                                      /Users/Luca/src/vexilla/src/gcc-arm-none-eabi-5_4-2016q3/bin/../lib/gcc/arm-none-eabi/5.4.1/armv7-m/libgcc.a(_arm_addsubsf3.o)
__ascii_mbtowc                                    /Users/Luca/src/vexilla/src/gcc-arm-none-eabi-5_4-2016q3/bin/../lib/gcc/arm-none-eabi/5.4.1/../../../../arm-none-eabi/lib/armv7-m/libc.a(lib_a-mbtowc_r.o)
                                                  /Users/Luca/src/vexilla/src/gcc-arm-none-eabi-5_4-2016q3/bin/../lib/gcc/arm-none-eabi/5.4.1/../../../../arm-none-eabi/lib/armv7-m/libc.a(lib_a-locale.o)
__ascii_wctomb                                    /Users/Luca/src/vexilla/src/gcc-arm-none-eabi-5_4-2016q3/bin/../lib/gcc/arm-none-eabi/5.4.1/../../../../arm-none-eabi/lib/armv7-m/libc.a(lib_a-wctomb_r.o)
                                                  /Users/Luca/src/vexilla/src/gcc-arm-none-eabi-5_4-2016q3/bin/../lib/gcc/arm-none-eabi/5.4.1/../../../../arm-none-eabi/lib/armv7-m/libc.a(lib_a-locale.o)
__cmpdf2                                          /Users/Luca/src/vexilla/src/gcc-arm-none-eabi-5_4-2016q3/bin/../lib/gcc/arm-none-eabi/5.4.1/armv7-m/libgcc.a(_arm_cmpdf2.o)
__cmpsf2                                          /Users/Luca/src/vexilla/src/gcc-arm-none-eabi-5_4-2016q3/bin/../lib/gcc/arm-none-eabi/5.4.1/armv7-m/libgcc.a(_arm_cmpsf2.o)
__divdf3                                          /Users/Luca/src/vexilla/src/gcc-arm-none-eabi-5_4-2016q3/bin/../lib/gcc/arm-none-eabi/5.4.1/armv7-m/libgcc.a(_arm_muldivdf3.o)
__divsf3                                          /Users/Luca/src/vexilla/src/gcc-arm-none-eabi-5_4-2016q3/bin/../lib/gcc/arm-none-eabi/5.4.1/armv7-m/libgcc.a(_arm_muldivsf3.o)
__early_init                                      bin/obj/board.o
                                                  bin/obj/crt0.o
__eqdf2                                           /Users/Luca/src/vexilla/src/gcc-arm-none-eabi-5_4-2016q3/bin/../lib/gcc/arm-none-eabi/5.4.1/armv7-m/libgcc.a(_arm_cmpdf2.o)
__eqsf2                                           /Users/Luca/src/vexilla/src/gcc-arm-none-eabi-5_4-2016q3/bin/../lib/gcc/arm-none-eabi/5.4.1/armv7-m/libgcc.a(_arm_cmpsf2.o)
__extendsfdf2                                     /Users/Luca/src/vexilla/src/gcc-arm-none-eabi-5_4-2016q3/bin/../lib/gcc/arm-none-eabi/5.4.1/armv7-m/libgcc.a(_arm_addsubdf3.o)
__fini_array_end                                  bin/obj/crt0.o
__fini_array_start                                bin/obj/crt0.o
__fixdfsi                                         /Users/Luca/src/vexilla/src/gcc-arm-none-eabi-5_4-2016q3/bin/../lib/gcc/arm-none-eabi/5.4.1/armv7-m/libgcc.a(_arm_fixdfsi.o)
__fixsfsi                                         /Users/Luca/src/vexilla/src/gcc-arm-none-eabi-5_4-2016q3/bin/../lib/gcc/arm-none-eabi/5.4.1/armv7-m/libgcc.a(_arm_fixsfsi.o)
__fixunsdfsi                                      /Users/Luca/src/vexilla/src/gcc-arm-none-eabi-5_4-2016q3/bin/../lib/gcc/arm-none-eabi/5.4.1/armv7-m/libgcc.a(_arm_fixunsdfsi.o)
__fixunssfsi                                      /Users/Luca/src/vexilla/src/gcc-arm-none-eabi-5_4-2016q3/bin/../lib/gcc/arm-none-eabi/5.4.1/armv7-m/libgcc.a(_arm_fixunssfsi.o)
__floatdidf                                       /Users/Luca/src/vexilla/src/gcc-arm-none-eabi-5_4-2016q3/bin/../lib/gcc/arm-none-eabi/5.4.1/armv7-m/libgcc.a(_arm_addsubdf3.o)
__floatdisf                                       /Users/Luca/src/vexilla/src/gcc-arm-none-eabi-5_4-2016q3/bin/../lib/gcc/arm-none-eabi/5.4.1/armv7-m/libgcc.a(_arm_addsubsf3.o)
__floatsidf                                       /Users/Luca/src/vexilla/src/gcc-arm-none-eabi-5_4-2016q3/bin/../lib/gcc/arm-none-eabi/5.4.1/armv7-m/libgcc.a(_arm_addsubdf3.o)
__floatsisf                                       /Users/Luca/src/vexilla/src/gcc-arm-none-eabi-5_4-2016q3/bin/../lib/gcc/arm-none-eabi/5.4.1/armv7-m/libgcc.a(_arm_addsubsf3.o)
__floatundidf                                     /Users/Luca/src/vexilla/src/gcc-arm-none-eabi-5_4-2016q3/bin/../lib/gcc/arm-none-eabi/5.4.1/armv7-m/libgcc.a(_arm_addsubdf3.o)
__floatundisf                                     /Users/Luca/src/vexilla/src/gcc-arm-none-eabi-5_4-2016q3/bin/../lib/gcc/arm-none-eabi/5.4.1/armv7-m/libgcc.a(_arm_addsubsf3.o)
__floatunsidf                                     /Users/Luca/src/vexilla/src/gcc-arm-none-eabi-5_4-2016q3/bin/../lib/gcc/arm-none-eabi/5.4.1/armv7-m/libgcc.a(_arm_addsubdf3.o)
__floatunsisf                                     /Users/Luca/src/vexilla/src/gcc-arm-none-eabi-5_4-2016q3/bin/../lib/gcc/arm-none-eabi/5.4.1/armv7-m/libgcc.a(_arm_addsubsf3.o)
__gedf2                                           /Users/Luca/src/vexilla/src/gcc-arm-none-eabi-5_4-2016q3/bin/../lib/gcc/arm-none-eabi/5.4.1/armv7-m/libgcc.a(_arm_cmpdf2.o)
__gesf2                                           /Users/Luca/src/vexilla/src/gcc-arm-none-eabi-5_4-2016q3/bin/../lib/gcc/arm-none-eabi/5.4.1/armv7-m/libgcc.a(_arm_cmpsf2.o)
__global_locale                                   /Users/Luca/src/vexilla/src/gcc-arm-none-eabi-5_4-2016q3/bin/../lib/gcc/arm-none-eabi/5.4.1/../../../../arm-none-eabi/lib/armv7-m/libc.a(lib_a-locale.o)
                                                  /Users/Luca/src/vexilla/src/gcc-arm-none-eabi-5_4-2016q3/bin/../lib/gcc/arm-none-eabi/5.4.1/../../../../arm-none-eabi/lib/armv7-m/libc.a(lib_a-wctomb_r.o)
                                                  /Users/Luca/src/vexilla/src/gcc-arm-none-eabi-5_4-2016q3/bin/../lib/gcc/arm-none-eabi/5.4.1/../../../../arm-none-eabi/lib/armv7-m/libc.a(lib_a-mbtowc_r.o)
                                                  /Users/Luca/src/vexilla/src/gcc-arm-none-eabi-5_4-2016q3/bin/../lib/gcc/arm-none-eabi/5.4.1/../../../../arm-none-eabi/lib/armv7-m/libc.a(lib_a-strtol.o)
__gtdf2                                           /Users/Luca/src/vexilla/src/gcc-arm-none-eabi-5_4-2016q3/bin/../lib/gcc/arm-none-eabi/5.4.1/armv7-m/libgcc.a(_arm_cmpdf2.o)
__gtsf2                                           /Users/Luca/src/vexilla/src/gcc-arm-none-eabi-5_4-2016q3/bin/../lib/gcc/arm-none-eabi/5.4.1/armv7-m/libgcc.a(_arm_cmpsf2.o)
__heap_base__                                     bin/obj/chmemcore.o
__heap_end__                                      bin/obj/chmemcore.o
__init_array_end                                  bin/obj/crt0.o
__init_array_start                                bin/obj/crt0.o
__late_init                                       bin/obj/crt0.o
__ledf2                                           /Users/Luca/src/vexilla/src/gcc-arm-none-eabi-5_4-2016q3/bin/../lib/gcc/arm-none-eabi/5.4.1/armv7-m/libgcc.a(_arm_cmpdf2.o)
__lesf2                                           /Users/Luca/src/vexilla/src/gcc-arm-none-eabi-5_4-2016q3/bin/../lib/gcc/arm-none-eabi/5.4.1/armv7-m/libgcc.a(_arm_cmpsf2.o)
__locale_ctype_ptr                                /Users/Luca/src/vexilla/src/gcc-arm-none-eabi-5_4-2016q3/bin/../lib/gcc/arm-none-eabi/5.4.1/../../../../arm-none-eabi/lib/armv7-m/libc.a(lib_a-locale.o)
                                                  /Users/Luca/src/vexilla/src/gcc-arm-none-eabi-5_4-2016q3/bin/../lib/gcc/arm-none-eabi/5.4.1/../../../../arm-none-eabi/lib/armv7-m/libc.a(lib_a-strcasecmp.o)
__locale_ctype_ptr_l                              /Users/Luca/src/vexilla/src/gcc-arm-none-eabi-5_4-2016q3/bin/../lib/gcc/arm-none-eabi/5.4.1/../../../../arm-none-eabi/lib/armv7-m/libc.a(lib_a-locale.o)
                                                  /Users/Luca/src/vexilla/src/gcc-arm-none-eabi-5_4-2016q3/bin/../lib/gcc/arm-none-eabi/5.4.1/../../../../arm-none-eabi/lib/armv7-m/libc.a(lib_a-strtol.o)
__locale_mb_cur_max                               /Users/Luca/src/vexilla/src/gcc-arm-none-eabi-5_4-2016q3/bin/../lib/gcc/arm-none-eabi/5.4.1/../../../../arm-none-eabi/lib/armv7-m/libc.a(lib_a-locale.o)
__ltdf2                                           /Users/Luca/src/vexilla/src/gcc-arm-none-eabi-5_4-2016q3/bin/../lib/gcc/arm-none-eabi/5.4.1/armv7-m/libgcc.a(_arm_cmpdf2.o)
__ltsf2                                           /Users/Luca/src/vexilla/src/gcc-arm-none-eabi-5_4-2016q3/bin/../lib/gcc/arm-none-eabi/5.4.1/armv7-m/libgcc.a(_arm_cmpsf2.o)
__main_stack_base__                               bin/obj/crt0.o
__main_stack_end__                                bin/obj/vectors.o
                                                  bin/obj/crt0.o
__muldf3                                          /Users/Luca/src/vexilla/src/gcc-arm-none-eabi-5_4-2016q3/bin/../lib/gcc/arm-none-eabi/5.4.1/armv7-m/libgcc.a(_arm_muldivdf3.o)
__mulsf3                                          /Users/Luca/src/vexilla/src/gcc-arm-none-eabi-5_4-2016q3/bin/../lib/gcc/arm-none-eabi/5.4.1/armv7-m/libgcc.a(_arm_muldivsf3.o)
__nedf2                                           /Users/Luca/src/vexilla/src/gcc-arm-none-eabi-5_4-2016q3/bin/../lib/gcc/arm-none-eabi/5.4.1/armv7-m/libgcc.a(_arm_cmpdf2.o)
__nesf2                                           /Users/Luca/src/vexilla/src/gcc-arm-none-eabi-5_4-2016q3/bin/../lib/gcc/arm-none-eabi/5.4.1/armv7-m/libgcc.a(_arm_cmpsf2.o)
__process_stack_base__                            bin/obj/crt0.o
__process_stack_end__                             bin/obj/crt0.o
__subdf3                                          /Users/Luca/src/vexilla/src/gcc-arm-none-eabi-5_4-2016q3/bin/../lib/gcc/arm-none-eabi/5.4.1/armv7-m/libgcc.a(_arm_addsubdf3.o)
__subsf3                                          /Users/Luca/src/vexilla/src/gcc-arm-none-eabi-5_4-2016q3/bin/../lib/gcc/arm-none-eabi/5.4.1/armv7-m/libgcc.a(_arm_addsubsf3.o)
__truncdfsf2                                      /Users/Luca/src/vexilla/src/gcc-arm-none-eabi-5_4-2016q3/bin/../lib/gcc/arm-none-eabi/5.4.1/armv7-m/libgcc.a(_arm_truncdfsf2.o)
_atoi_r                                           /Users/Luca/src/vexilla/src/gcc-arm-none-eabi-5_4-2016q3/bin/../lib/gcc/arm-none-eabi/5.4.1/../../../../arm-none-eabi/lib/armv7-m/libc.a(lib_a-atoi.o)
_bss_end                                          bin/obj/crt0.o
_bss_start                                        bin/obj/crt0.o
_close_r                                          bin/obj/syscalls.o
_core_init                                        bin/obj/chmemcore.o
                                                  bin/obj/chsys.o
_ctype_                                           /Users/Luca/src/vexilla/src/gcc-arm-none-eabi-5_4-2016q3/bin/../lib/gcc/arm-none-eabi/5.4.1/../../../../arm-none-eabi/lib/armv7-m/libc.a(lib_a-ctype_.o)
                                                  /Users/Luca/src/vexilla/src/gcc-arm-none-eabi-5_4-2016q3/bin/../lib/gcc/arm-none-eabi/5.4.1/../../../../arm-none-eabi/lib/armv7-m/libc.a(lib_a-locale.o)
_data                                             bin/obj/vexshell.o
                                                  bin/obj/crt0.o
_default_exit                                     bin/obj/crt0.o
_edata                                            bin/obj/vexshell.o
                                                  bin/obj/crt0.o
_fstat_r                                          bin/obj/syscalls.o
_global_impure_ptr                                /Users/Luca/src/vexilla/src/gcc-arm-none-eabi-5_4-2016q3/bin/../lib/gcc/arm-none-eabi/5.4.1/../../../../arm-none-eabi/lib/armv7-m/libc.a(lib_a-impure.o)
_heap_init                                        bin/obj/chheap.o
                                                  bin/obj/chsys.o
_idle_thread                                      bin/obj/chsys.o
_idle_thread_wa                                   bin/obj/chsys.o
_impure_ptr                                       /Users/Luca/src/vexilla/src/gcc-arm-none-eabi-5_4-2016q3/bin/../lib/gcc/arm-none-eabi/5.4.1/../../../../arm-none-eabi/lib/armv7-m/libc.a(lib_a-impure.o)
                                                  /Users/Luca/src/vexilla/src/gcc-arm-none-eabi-5_4-2016q3/bin/../lib/gcc/arm-none-eabi/5.4.1/../../../../arm-none-eabi/lib/armv7-m/libc.a(lib_a-wctomb_r.o)
                                                  /Users/Luca/src/vexilla/src/gcc-arm-none-eabi-5_4-2016q3/bin/../lib/gcc/arm-none-eabi/5.4.1/../../../../arm-none-eabi/lib/armv7-m/libc.a(lib_a-mbtowc_r.o)
                                                  /Users/Luca/src/vexilla/src/gcc-arm-none-eabi-5_4-2016q3/bin/../lib/gcc/arm-none-eabi/5.4.1/../../../../arm-none-eabi/lib/armv7-m/libc.a(lib_a-locale.o)
                                                  /Users/Luca/src/vexilla/src/gcc-arm-none-eabi-5_4-2016q3/bin/../lib/gcc/arm-none-eabi/5.4.1/../../../../arm-none-eabi/lib/armv7-m/libc.a(lib_a-strtol.o)
_isatty_r                                         bin/obj/syscalls.o
_lseek_r                                          bin/obj/syscalls.o
_mbtowc_r                                         /Users/Luca/src/vexilla/src/gcc-arm-none-eabi-5_4-2016q3/bin/../lib/gcc/arm-none-eabi/5.4.1/../../../../arm-none-eabi/lib/armv7-m/libc.a(lib_a-mbtowc_r.o)
_pal_lld_init                                     bin/obj/pal_lld.o
                                                  bin/obj/hal.o
_pal_lld_setgroupmode                             bin/obj/pal_lld.o
                                                  bin/obj/vexmotor.o
                                                  bin/obj/vexdigital.o
                                                  bin/obj/pal.o
_port_init                                        bin/obj/chcore_v7m.o
                                                  bin/obj/chsys.o
_port_irq_epilogue                                bin/obj/chcore_v7m.o
                                                  bin/obj/vexmotor.o
                                                  bin/obj/serial_lld.o
                                                  bin/obj/gpt_lld.o
                                                  bin/obj/i2c_lld.o
                                                  bin/obj/ext_lld_isr.o
                                                  bin/obj/stm32_dma.o
_port_switch                                      bin/obj/chcore_v7m.o
                                                  bin/obj/chschd.o
_port_switch_from_isr                             bin/obj/chcore_v7m.o
_port_thread_start                                bin/obj/chcore_v7m.o
                                                  bin/obj/chthreads.o
_read_r                                           bin/obj/syscalls.o
_sbrk_r                                           bin/obj/syscalls.o
_scheduler_init                                   bin/obj/chschd.o
                                                  bin/obj/chsys.o
_setlocale_r                                      /Users/Luca/src/vexilla/src/gcc-arm-none-eabi-5_4-2016q3/bin/../lib/gcc/arm-none-eabi/5.4.1/../../../../arm-none-eabi/lib/armv7-m/libc.a(lib_a-locale.o)
_stm32_dma_streams                                bin/obj/stm32_dma.o
                                                  bin/obj/vexaudio.o
                                                  bin/obj/spi_lld.o
                                                  bin/obj/i2c_lld.o
                                                  bin/obj/adc_lld.o
_strtol_r                                         /Users/Luca/src/vexilla/src/gcc-arm-none-eabi-5_4-2016q3/bin/../lib/gcc/arm-none-eabi/5.4.1/../../../../arm-none-eabi/lib/armv7-m/libc.a(lib_a-strtol.o)
                                                  /Users/Luca/src/vexilla/src/gcc-arm-none-eabi-5_4-2016q3/bin/../lib/gcc/arm-none-eabi/5.4.1/../../../../arm-none-eabi/lib/armv7-m/libc.a(lib_a-atoi.o)
_textdata                                         bin/obj/vexshell.o
                                                  bin/obj/crt0.o
_thread_init                                      bin/obj/chthreads.o
                                                  bin/obj/chsys.o
_unhandled_exception                              bin/obj/vectors.o
_vectors                                          bin/obj/vectors.o
_vexMotorPwmInit                                  bin/obj/vexmotor.o
_vexMotorPwmSet_0                                 bin/obj/vexmotor.o
_vexMotorPwmSet_9                                 bin/obj/vexmotor.o
_vt_init                                          bin/obj/chvt.o
                                                  bin/obj/chsys.o
_wctomb_r                                         /Users/Luca/src/vexilla/src/gcc-arm-none-eabi-5_4-2016q3/bin/../lib/gcc/arm-none-eabi/5.4.1/../../../../arm-none-eabi/lib/armv7-m/libc.a(lib_a-wctomb_r.o)
_write_r                                          bin/obj/syscalls.o
adcAcquireBus                                     bin/obj/adc.o
adcConvert                                        bin/obj/adc.o
adcInit                                           bin/obj/adc.o
                                                  bin/obj/vexanalog.o
                                                  bin/obj/hal.o
adcObjectInit                                     bin/obj/adc.o
                                                  bin/obj/adc_lld.o
adcReleaseBus                                     bin/obj/adc.o
adcStart                                          bin/obj/adc.o
                                                  bin/obj/vexanalog.o
adcStartConversion                                bin/obj/adc.o
                                                  bin/obj/vexanalog.o
adcStartConversionI                               bin/obj/adc.o
adcStop                                           bin/obj/adc.o
adcStopConversion                                 bin/obj/adc.o
adcStopConversionI                                bin/obj/adc.o
adc_lld_init                                      bin/obj/adc_lld.o
                                                  bin/obj/adc.o
adc_lld_start                                     bin/obj/adc_lld.o
                                                  bin/obj/adc.o
adc_lld_start_conversion                          bin/obj/adc_lld.o
                                                  bin/obj/adc.o
adc_lld_stop                                      bin/obj/adc_lld.o
                                                  bin/obj/adc.o
adc_lld_stop_conversion                           bin/obj/adc_lld.o
                                                  bin/obj/adc.o
apolloAnalogSetup                                 bin/obj/apollo.o
apolloDeinit                                      bin/obj/apollo.o
                                                  bin/obj/main.o
apolloDigitalSetup                                bin/obj/apollo.o
apolloInit                                        bin/obj/apollo.o
                                                  bin/obj/main.o
apolloJoystickSetup                               bin/obj/apollo.o
apolloMotorSetup                                  bin/obj/apollo.o
apolloScreenSetup                                 bin/obj/apollo.o
apolloUpdate                                      bin/obj/apollo.o
                                                  bin/obj/main.o
apolloUpdateAnalog                                bin/obj/apollo.o
apolloUpdateCortex                                bin/obj/apollo.o
apolloUpdateDigital                               bin/obj/apollo.o
apolloUpdateJoystickAnalog                        bin/obj/apollo.o
apolloUpdateJoystickButton                        bin/obj/apollo.o
apolloUpdateMotor                                 bin/obj/apollo.o
apolloUpdateSystem                                bin/obj/apollo.o
atoi                                              /Users/Luca/src/vexilla/src/gcc-arm-none-eabi-5_4-2016q3/bin/../lib/gcc/arm-none-eabi/5.4.1/../../../../arm-none-eabi/lib/armv7-m/libc.a(lib_a-atoi.o)
                                                  bin/obj/vexspi.o
                                                  bin/obj/vexmotor.o
boardInit                                         bin/obj/board.o
                                                  bin/obj/hal.o
chCondBroadcast                                   bin/obj/chcond.o
chCondBroadcastI                                  bin/obj/chcond.o
chCondInit                                        bin/obj/chcond.o
chCondSignal                                      bin/obj/chcond.o
chCondSignalI                                     bin/obj/chcond.o
chCondWait                                        bin/obj/chcond.o
chCondWaitS                                       bin/obj/chcond.o
chCondWaitTimeout                                 bin/obj/chcond.o
chCondWaitTimeoutS                                bin/obj/chcond.o
chCoreAlloc                                       bin/obj/chmemcore.o
                                                  bin/obj/syscalls.o
                                                  bin/obj/chheap.o
chCoreAllocI                                      bin/obj/chmemcore.o
chCoreStatus                                      bin/obj/chmemcore.o
                                                  bin/obj/vexshell.o
chEvtAddEvents                                    bin/obj/chevents.o
chEvtBroadcastFlags                               bin/obj/chevents.o
chEvtBroadcastFlagsI                              bin/obj/chevents.o
                                                  bin/obj/vexaudio.o
                                                  bin/obj/vexcortex.o
                                                  bin/obj/vexshell.o
                                                  bin/obj/evtimer.o
                                                  bin/obj/serial_lld.o
                                                  bin/obj/serial.o
chEvtDispatch                                     bin/obj/chevents.o
chEvtGetAndClearEvents                            bin/obj/chevents.o
chEvtGetAndClearFlags                             bin/obj/chevents.o
chEvtGetAndClearFlagsI                            bin/obj/chevents.o
chEvtRegisterMask                                 bin/obj/chevents.o
                                                  bin/obj/vexaudio.o
                                                  bin/obj/vexcortex.o
chEvtSignal                                       bin/obj/chevents.o
chEvtSignalI                                      bin/obj/chevents.o
chEvtUnregister                                   bin/obj/chevents.o
                                                  bin/obj/vexaudio.o
                                                  bin/obj/vexcortex.o
chEvtWaitAll                                      bin/obj/chevents.o
chEvtWaitAllTimeout                               bin/obj/chevents.o
chEvtWaitAny                                      bin/obj/chevents.o
chEvtWaitAnyTimeout                               bin/obj/chevents.o
                                                  bin/obj/vexaudio.o
                                                  bin/obj/vexcortex.o
chEvtWaitOne                                      bin/obj/chevents.o
chEvtWaitOneTimeout                               bin/obj/chevents.o
chHeapAlloc                                       bin/obj/chheap.o
                                                  bin/obj/pidlib.o
                                                  bin/obj/vexaudio.o
                                                  bin/obj/vexime.o
                                                  bin/obj/chdynamic.o
chHeapFree                                        bin/obj/chheap.o
                                                  bin/obj/vexaudio.o
                                                  bin/obj/vexime.o
                                                  bin/obj/chdynamic.o
chHeapInit                                        bin/obj/chheap.o
chHeapStatus                                      bin/obj/chheap.o
                                                  bin/obj/vexshell.o
chIQGetTimeout                                    bin/obj/chqueues.o
                                                  bin/obj/vexlcd.o
                                                  bin/obj/serial.o
chIQInit                                          bin/obj/chqueues.o
                                                  bin/obj/serial.o
chIQPutI                                          bin/obj/chqueues.o
                                                  bin/obj/serial.o
chIQReadTimeout                                   bin/obj/chqueues.o
                                                  bin/obj/serial.o
chIQResetI                                        bin/obj/chqueues.o
                                                  bin/obj/vexlcd.o
                                                  bin/obj/serial.o
chMBFetch                                         bin/obj/chmboxes.o
chMBFetchI                                        bin/obj/chmboxes.o
chMBFetchS                                        bin/obj/chmboxes.o
chMBInit                                          bin/obj/chmboxes.o
chMBPost                                          bin/obj/chmboxes.o
chMBPostAhead                                     bin/obj/chmboxes.o
chMBPostAheadI                                    bin/obj/chmboxes.o
chMBPostAheadS                                    bin/obj/chmboxes.o
chMBPostI                                         bin/obj/chmboxes.o
chMBPostS                                         bin/obj/chmboxes.o
chMBReset                                         bin/obj/chmboxes.o
chMsgRelease                                      bin/obj/chmsg.o
chMsgSend                                         bin/obj/chmsg.o
chMsgWait                                         bin/obj/chmsg.o
chMtxInit                                         bin/obj/chmtx.o
                                                  bin/obj/vexprintf.o
                                                  bin/obj/spi.o
                                                  bin/obj/i2c.o
                                                  bin/obj/adc.o
                                                  bin/obj/chheap.o
chMtxLock                                         bin/obj/chmtx.o
                                                  bin/obj/vexprintf.o
                                                  bin/obj/spi.o
                                                  bin/obj/i2c.o
                                                  bin/obj/adc.o
                                                  bin/obj/chheap.o
chMtxLockS                                        bin/obj/chmtx.o
                                                  bin/obj/chcond.o
chMtxTryLock                                      bin/obj/chmtx.o
chMtxTryLockS                                     bin/obj/chmtx.o
chMtxUnlock                                       bin/obj/chmtx.o
                                                  bin/obj/vexprintf.o
                                                  bin/obj/spi.o
                                                  bin/obj/i2c.o
                                                  bin/obj/adc.o
                                                  bin/obj/chheap.o
chMtxUnlockAll                                    bin/obj/chmtx.o
chMtxUnlockS                                      bin/obj/chmtx.o
                                                  bin/obj/chcond.o
chOQGetI                                          bin/obj/chqueues.o
                                                  bin/obj/serial_lld.o
                                                  bin/obj/serial.o
chOQInit                                          bin/obj/chqueues.o
                                                  bin/obj/serial.o
chOQPutTimeout                                    bin/obj/chqueues.o
                                                  bin/obj/apollo.o
                                                  bin/obj/serial.o
chOQResetI                                        bin/obj/chqueues.o
                                                  bin/obj/serial.o
chOQWriteTimeout                                  bin/obj/chqueues.o
                                                  bin/obj/vexlcd.o
                                                  bin/obj/serial.o
chPoolAlloc                                       bin/obj/chmempools.o
                                                  bin/obj/chdynamic.o
chPoolAllocI                                      bin/obj/chmempools.o
chPoolFree                                        bin/obj/chmempools.o
                                                  bin/obj/chdynamic.o
chPoolFreeI                                       bin/obj/chmempools.o
chPoolInit                                        bin/obj/chmempools.o
chPoolLoadArray                                   bin/obj/chmempools.o
chRegFirstThread                                  bin/obj/chregistry.o
                                                  bin/obj/vexshell.o
chRegNextThread                                   bin/obj/chregistry.o
                                                  bin/obj/vexshell.o
chSchDoReschedule                                 bin/obj/chschd.o
                                                  bin/obj/chcore_v7m.o
chSchDoRescheduleAhead                            bin/obj/chschd.o
chSchDoRescheduleBehind                           bin/obj/chschd.o
                                                  bin/obj/chthreads.o
chSchGoSleepS                                     bin/obj/chschd.o
                                                  bin/obj/vexspi.o
                                                  bin/obj/i2c_lld.o
                                                  bin/obj/spi.o
                                                  bin/obj/adc.o
                                                  bin/obj/chmsg.o
                                                  bin/obj/chevents.o
                                                  bin/obj/chcond.o
                                                  bin/obj/chmtx.o
                                                  bin/obj/chsem.o
                                                  bin/obj/chthreads.o
chSchGoSleepTimeoutS                              bin/obj/chschd.o
                                                  bin/obj/chqueues.o
                                                  bin/obj/chevents.o
                                                  bin/obj/chcond.o
                                                  bin/obj/chsem.o
                                                  bin/obj/chthreads.o
chSchReadyI                                       bin/obj/chschd.o
                                                  bin/obj/vexspi.o
                                                  bin/obj/spi_lld.o
                                                  bin/obj/i2c_lld.o
                                                  bin/obj/adc_lld.o
                                                  bin/obj/adc.o
                                                  bin/obj/chqueues.o
                                                  bin/obj/chmsg.o
                                                  bin/obj/chevents.o
                                                  bin/obj/chcond.o
                                                  bin/obj/chmtx.o
                                                  bin/obj/chsem.o
                                                  bin/obj/chthreads.o
chSchRescheduleS                                  bin/obj/chschd.o
                                                  bin/obj/serial.o
                                                  bin/obj/chmboxes.o
                                                  bin/obj/chevents.o
                                                  bin/obj/chcond.o
                                                  bin/obj/chmtx.o
                                                  bin/obj/chsem.o
                                                  bin/obj/chthreads.o
chSchWakeupS                                      bin/obj/chschd.o
                                                  bin/obj/adc.o
                                                  bin/obj/chmsg.o
                                                  bin/obj/chcond.o
                                                  bin/obj/chmtx.o
                                                  bin/obj/chsem.o
                                                  bin/obj/chdynamic.o
                                                  bin/obj/chthreads.o
chSemAddCounterI                                  bin/obj/chsem.o
chSemInit                                         bin/obj/chsem.o
                                                  bin/obj/vexaudio.o
                                                  bin/obj/chmboxes.o
chSemReset                                        bin/obj/chsem.o
                                                  bin/obj/vexaudio.o
chSemResetI                                       bin/obj/chsem.o
                                                  bin/obj/chmboxes.o
chSemSignal                                       bin/obj/chsem.o
chSemSignalI                                      bin/obj/chsem.o
                                                  bin/obj/chmboxes.o
chSemSignalWait                                   bin/obj/chsem.o
chSemWait                                         bin/obj/chsem.o
                                                  bin/obj/vexaudio.o
chSemWaitS                                        bin/obj/chsem.o
chSemWaitTimeout                                  bin/obj/chsem.o
                                                  bin/obj/vexaudio.o
chSemWaitTimeoutS                                 bin/obj/chsem.o
                                                  bin/obj/chmboxes.o
chSysInit                                         bin/obj/chsys.o
                                                  bin/obj/main.o
chSysTimerHandlerI                                bin/obj/chsys.o
                                                  bin/obj/chcore_v7m.o
chThdAddRef                                       bin/obj/chdynamic.o
chThdCreateFromHeap                               bin/obj/chdynamic.o
                                                  bin/obj/robotc_glue.o
                                                  bin/obj/vexaudio.o
                                                  bin/obj/vexshell.o
chThdCreateFromMemoryPool                         bin/obj/chdynamic.o
chThdCreateI                                      bin/obj/chthreads.o
                                                  bin/obj/chdynamic.o
chThdCreateStatic                                 bin/obj/chthreads.o
                                                  bin/obj/vexgyro.o
                                                  bin/obj/vextest.o
                                                  bin/obj/vexime.o
                                                  bin/obj/vexlcd.o
                                                  bin/obj/vexsonar.o
                                                  bin/obj/vexcortex.o
                                                  bin/obj/vexshell.o
                                                  bin/obj/chsys.o
chThdExit                                         bin/obj/chthreads.o
                                                  bin/obj/vexcortex.o
                                                  bin/obj/chcore_v7m.o
chThdExitS                                        bin/obj/chthreads.o
                                                  bin/obj/vexshell.o
chThdRelease                                      bin/obj/chdynamic.o
                                                  bin/obj/main.o
                                                  bin/obj/chregistry.o
                                                  bin/obj/chthreads.o
chThdResume                                       bin/obj/chthreads.o
                                                  bin/obj/robotc_glue.o
chThdSetPriority                                  bin/obj/chthreads.o
chThdSleep                                        bin/obj/chthreads.o
                                                  bin/obj/main.o
                                                  bin/obj/vexgyro.o
                                                  bin/obj/apollo.o
                                                  bin/obj/vextest.o
                                                  bin/obj/vexprintf.o
                                                  bin/obj/vexime.o
                                                  bin/obj/vexlcd.o
                                                  bin/obj/vexsonar.o
                                                  bin/obj/vexcortex.o
                                                  bin/obj/vexshell.o
chThdSleepUntil                                   bin/obj/chthreads.o
                                                  bin/obj/vexsonar.o
chThdTerminate                                    bin/obj/chthreads.o
                                                  bin/obj/vexgyro.o
                                                  bin/obj/robotc_glue.o
chThdWait                                         bin/obj/chthreads.o
                                                  bin/obj/vexgyro.o
                                                  bin/obj/robotc_glue.o
                                                  bin/obj/vexcortex.o
chThdYield                                        bin/obj/chthreads.o
chVTResetI                                        bin/obj/chvt.o
                                                  bin/obj/evtimer.o
                                                  bin/obj/i2c_lld.o
                                                  bin/obj/chschd.o
chVTSetI                                          bin/obj/chvt.o
                                                  bin/obj/evtimer.o
                                                  bin/obj/i2c_lld.o
                                                  bin/obj/chschd.o
ch_debug                                          bin/obj/chregistry.o
                                                  bin/obj/chsys.o
chsnprintf                                        bin/obj/chprintf.o
chvprintf                                         bin/obj/chprintf.o
                                                  bin/obj/vexspi.o
dmaInit                                           bin/obj/stm32_dma.o
                                                  bin/obj/hal_lld.o
dmaStreamAllocate                                 bin/obj/stm32_dma.o
                                                  bin/obj/vexaudio.o
                                                  bin/obj/spi_lld.o
                                                  bin/obj/i2c_lld.o
                                                  bin/obj/adc_lld.o
dmaStreamRelease                                  bin/obj/stm32_dma.o
                                                  bin/obj/spi_lld.o
                                                  bin/obj/i2c_lld.o
                                                  bin/obj/adc_lld.o
evtStart                                          bin/obj/evtimer.o
evtStop                                           bin/obj/evtimer.o
extChannelDisable                                 bin/obj/ext.o
                                                  bin/obj/vexsonar.o
                                                  bin/obj/vexencoder.o
extChannelEnable                                  bin/obj/ext.o
                                                  bin/obj/vexsonar.o
                                                  bin/obj/vexencoder.o
                                                  bin/obj/vexdigital.o
extInit                                           bin/obj/ext.o
                                                  bin/obj/hal.o
extObjectInit                                     bin/obj/ext.o
                                                  bin/obj/ext_lld.o
extSetChannelModeI                                bin/obj/ext.o
extStart                                          bin/obj/ext.o
                                                  bin/obj/vexext.o
extStop                                           bin/obj/ext.o
ext_lld_channel_disable                           bin/obj/ext_lld.o
                                                  bin/obj/ext.o
ext_lld_channel_enable                            bin/obj/ext_lld.o
                                                  bin/obj/ext.o
ext_lld_exti_irq_disable                          bin/obj/ext_lld_isr.o
                                                  bin/obj/ext_lld.o
ext_lld_exti_irq_enable                           bin/obj/ext_lld_isr.o
                                                  bin/obj/ext_lld.o
ext_lld_init                                      bin/obj/ext_lld.o
                                                  bin/obj/ext.o
ext_lld_start                                     bin/obj/ext_lld.o
                                                  bin/obj/ext.o
ext_lld_stop                                      bin/obj/ext_lld.o
                                                  bin/obj/ext.o
gptChangeInterval                                 bin/obj/gpt.o
gptInit                                           bin/obj/gpt.o
                                                  bin/obj/hal.o
gptObjectInit                                     bin/obj/gpt.o
                                                  bin/obj/gpt_lld.o
gptPolledDelay                                    bin/obj/gpt.o
gptStart                                          bin/obj/gpt.o
                                                  bin/obj/vexspi.o
                                                  bin/obj/vexsonar.o
gptStartContinuous                                bin/obj/gpt.o
gptStartContinuousI                               bin/obj/gpt.o
gptStartOneShot                                   bin/obj/gpt.o
                                                  bin/obj/vexsonar.o
gptStartOneShotI                                  bin/obj/gpt.o
                                                  bin/obj/vexspi.o
                                                  bin/obj/vexsonar.o
gptStop                                           bin/obj/gpt.o
gptStopTimer                                      bin/obj/gpt.o
gptStopTimerI                                     bin/obj/gpt.o
gpt_lld_init                                      bin/obj/gpt_lld.o
                                                  bin/obj/gpt.o
gpt_lld_polled_delay                              bin/obj/gpt_lld.o
                                                  bin/obj/gpt.o
gpt_lld_start                                     bin/obj/gpt_lld.o
                                                  bin/obj/gpt.o
gpt_lld_start_timer                               bin/obj/gpt_lld.o
                                                  bin/obj/gpt.o
gpt_lld_stop                                      bin/obj/gpt_lld.o
                                                  bin/obj/gpt.o
gpt_lld_stop_timer                                bin/obj/gpt_lld.o
                                                  bin/obj/gpt.o
halInit                                           bin/obj/hal.o
                                                  bin/obj/main.o
halIsCounterWithin                                bin/obj/hal.o
halPolledDelay                                    bin/obj/hal.o
hal_lld_init                                      bin/obj/hal_lld.o
                                                  bin/obj/hal.o
i2cAcquireBus                                     bin/obj/i2c.o
                                                  bin/obj/vexime.o
i2cGetErrors                                      bin/obj/i2c.o
                                                  bin/obj/vexime.o
i2cInit                                           bin/obj/i2c.o
                                                  bin/obj/vexcortex.o
                                                  bin/obj/hal.o
i2cMasterReceiveTimeout                           bin/obj/i2c.o
i2cMasterTransmitTimeout                          bin/obj/i2c.o
                                                  bin/obj/vexime.o
i2cObjectInit                                     bin/obj/i2c.o
                                                  bin/obj/i2c_lld.o
i2cReleaseBus                                     bin/obj/i2c.o
                                                  bin/obj/vexime.o
i2cStart                                          bin/obj/i2c.o
                                                  bin/obj/vexime.o
i2cStop                                           bin/obj/i2c.o
                                                  bin/obj/vexime.o
i2c_lld_init                                      bin/obj/i2c_lld.o
                                                  bin/obj/i2c.o
i2c_lld_master_receive_timeout                    bin/obj/i2c_lld.o
                                                  bin/obj/i2c.o
i2c_lld_master_transmit_timeout                   bin/obj/i2c_lld.o
                                                  bin/obj/i2c.o
i2c_lld_start                                     bin/obj/i2c_lld.o
                                                  bin/obj/i2c.o
i2c_lld_stop                                      bin/obj/i2c_lld.o
                                                  bin/obj/i2c.o
main                                              bin/obj/main.o
                                                  bin/obj/crt0.o
memset                                            /Users/Luca/src/vexilla/src/gcc-arm-none-eabi-5_4-2016q3/bin/../lib/gcc/arm-none-eabi/5.4.1/../../../../arm-none-eabi/lib/armv7-m/libc.a(lib_a-memset.o)
                                                  bin/obj/syscalls.o
msObjectInit                                      bin/obj/chprintf.o
nvicDisableVector                                 bin/obj/nvic.o
                                                  bin/obj/serial_lld.o
                                                  bin/obj/gpt_lld.o
                                                  bin/obj/i2c_lld.o
                                                  bin/obj/ext_lld_isr.o
                                                  bin/obj/stm32_dma.o
nvicEnableVector                                  bin/obj/nvic.o
                                                  bin/obj/vexmotor.o
                                                  bin/obj/serial_lld.o
                                                  bin/obj/gpt_lld.o
                                                  bin/obj/i2c_lld.o
                                                  bin/obj/ext_lld_isr.o
                                                  bin/obj/stm32_dma.o
nvicSetSystemHandlerPriority                      bin/obj/nvic.o
                                                  bin/obj/chcore_v7m.o
palReadBus                                        bin/obj/pal.o
palSetBusMode                                     bin/obj/pal.o
palWriteBus                                       bin/obj/pal.o
pal_default_config                                bin/obj/board.o
                                                  bin/obj/hal.o
port_halt                                         bin/obj/chcore.o
                                                  bin/obj/spi_lld.o
                                                  bin/obj/i2c_lld.o
rlist                                             bin/obj/chschd.o
                                                  bin/obj/vexuser.o
                                                  bin/obj/vexgyro.o
                                                  bin/obj/smartmotor.o
                                                  bin/obj/robotc_glue.o
                                                  bin/obj/vextest.o
                                                  bin/obj/vexaudio.o
                                                  bin/obj/vexime.o
                                                  bin/obj/vexlcd.o
                                                  bin/obj/vexspi.o
                                                  bin/obj/vexsonar.o
                                                  bin/obj/vexcortex.o
                                                  bin/obj/vexshell.o
                                                  bin/obj/i2c_lld.o
                                                  bin/obj/spi.o
                                                  bin/obj/adc.o
                                                  bin/obj/chqueues.o
                                                  bin/obj/chmsg.o
                                                  bin/obj/chevents.o
                                                  bin/obj/chcond.o
                                                  bin/obj/chmtx.o
                                                  bin/obj/chsem.o
                                                  bin/obj/chregistry.o
                                                  bin/obj/chthreads.o
                                                  bin/obj/chsys.o
                                                  bin/obj/chcore_v7m.o
sdIncomingDataI                                   bin/obj/serial.o
                                                  bin/obj/serial_lld.o
sdInit                                            bin/obj/serial.o
                                                  bin/obj/hal.o
sdObjectInit                                      bin/obj/serial.o
                                                  bin/obj/serial_lld.o
sdRequestDataI                                    bin/obj/serial.o
sdStart                                           bin/obj/serial.o
                                                  bin/obj/vexcortex.o
sdStop                                            bin/obj/serial.o
sd_lld_init                                       bin/obj/serial_lld.o
                                                  bin/obj/serial.o
sd_lld_start                                      bin/obj/serial_lld.o
                                                  bin/obj/serial.o
sd_lld_stop                                       bin/obj/serial_lld.o
                                                  bin/obj/serial.o
setlocale                                         /Users/Luca/src/vexilla/src/gcc-arm-none-eabi-5_4-2016q3/bin/../lib/gcc/arm-none-eabi/5.4.1/../../../../arm-none-eabi/lib/armv7-m/libc.a(lib_a-locale.o)
shellCreate                                       bin/obj/vexshell.o
                                                  bin/obj/main.o
shellCreateStatic                                 bin/obj/vexshell.o
shellGetLine                                      bin/obj/vexshell.o
shellInit                                         bin/obj/vexshell.o
                                                  bin/obj/main.o
shell_terminated                                  bin/obj/vexshell.o
spiAcquireBus                                     bin/obj/spi.o
spiExchange                                       bin/obj/spi.o
spiIgnore                                         bin/obj/spi.o
spiInit                                           bin/obj/spi.o
                                                  bin/obj/hal.o
spiObjectInit                                     bin/obj/spi.o
                                                  bin/obj/spi_lld.o
spiReceive                                        bin/obj/spi.o
spiReleaseBus                                     bin/obj/spi.o
spiSelect                                         bin/obj/spi.o
spiSend                                           bin/obj/spi.o
spiStart                                          bin/obj/spi.o
                                                  bin/obj/vexspi.o
spiStartExchange                                  bin/obj/spi.o
spiStartIgnore                                    bin/obj/spi.o
spiStartReceive                                   bin/obj/spi.o
spiStartSend                                      bin/obj/spi.o
spiStop                                           bin/obj/spi.o
spiUnselect                                       bin/obj/spi.o
spi_lld_exchange                                  bin/obj/spi_lld.o
                                                  bin/obj/spi.o
spi_lld_ignore                                    bin/obj/spi_lld.o
                                                  bin/obj/spi.o
spi_lld_init                                      bin/obj/spi_lld.o
                                                  bin/obj/spi.o
spi_lld_polled_exchange                           bin/obj/spi_lld.o
                                                  bin/obj/vexspi.o
spi_lld_receive                                   bin/obj/spi_lld.o
                                                  bin/obj/spi.o
spi_lld_select                                    bin/obj/spi_lld.o
                                                  bin/obj/vexspi.o
                                                  bin/obj/spi.o
spi_lld_send                                      bin/obj/spi_lld.o
                                                  bin/obj/spi.o
spi_lld_start                                     bin/obj/spi_lld.o
                                                  bin/obj/spi.o
spi_lld_stop                                      bin/obj/spi_lld.o
                                                  bin/obj/spi.o
spi_lld_unselect                                  bin/obj/spi_lld.o
                                                  bin/obj/vexspi.o
                                                  bin/obj/spi.o
stm32_clock_init                                  bin/obj/hal_lld.o
                                                  bin/obj/board.o
strcasecmp                                        /Users/Luca/src/vexilla/src/gcc-arm-none-eabi-5_4-2016q3/bin/../lib/gcc/arm-none-eabi/5.4.1/../../../../arm-none-eabi/lib/armv7-m/libc.a(lib_a-strcasecmp.o)
                                                  bin/obj/vexshell.o
strchr                                            /Users/Luca/src/vexilla/src/gcc-arm-none-eabi-5_4-2016q3/bin/../lib/gcc/arm-none-eabi/5.4.1/../../../../arm-none-eabi/lib/armv7-m/libc.a(lib_a-strchr.o)
                                                  bin/obj/vexshell.o
strcmp                                            /Users/Luca/src/vexilla/src/gcc-arm-none-eabi-5_4-2016q3/bin/../lib/gcc/arm-none-eabi/5.4.1/../../../../arm-none-eabi/lib/armv7-m/libc.a(lib_a-strcmp.o)
                                                  /Users/Luca/src/vexilla/src/gcc-arm-none-eabi-5_4-2016q3/bin/../lib/gcc/arm-none-eabi/5.4.1/../../../../arm-none-eabi/lib/armv7-m/libc.a(lib_a-locale.o)
strncpy                                           /Users/Luca/src/vexilla/src/gcc-arm-none-eabi-5_4-2016q3/bin/../lib/gcc/arm-none-eabi/5.4.1/../../../../arm-none-eabi/lib/armv7-m/libc.a(lib_a-strncpy.o)
                                                  bin/obj/vexlcd.o
strspn                                            /Users/Luca/src/vexilla/src/gcc-arm-none-eabi-5_4-2016q3/bin/../lib/gcc/arm-none-eabi/5.4.1/../../../../arm-none-eabi/lib/armv7-m/libc.a(lib_a-strspn.o)
                                                  bin/obj/vexshell.o
strtol                                            /Users/Luca/src/vexilla/src/gcc-arm-none-eabi-5_4-2016q3/bin/../lib/gcc/arm-none-eabi/5.4.1/../../../../arm-none-eabi/lib/armv7-m/libc.a(lib_a-strtol.o)
                                                  /Users/Luca/src/vexilla/src/gcc-arm-none-eabi-5_4-2016q3/bin/../lib/gcc/arm-none-eabi/5.4.1/../../../../arm-none-eabi/lib/armv7-m/libc.a(lib_a-atoi.o)
strtol_l                                          /Users/Luca/src/vexilla/src/gcc-arm-none-eabi-5_4-2016q3/bin/../lib/gcc/arm-none-eabi/5.4.1/../../../../arm-none-eabi/lib/armv7-m/libc.a(lib_a-strtol.o)
tmInit                                            bin/obj/tm.o
                                                  bin/obj/hal.o
tmObjectInit                                      bin/obj/tm.o
vexAdcDebug                                       bin/obj/vexanalog.o
                                                  bin/obj/main.o
vexAdcGet                                         bin/obj/vexanalog.o
                                                  bin/obj/vexgyro.o
                                                  bin/obj/apollo.o
                                                  bin/obj/smartmotor.o
                                                  bin/obj/vexsensor.o
vexAdcInit                                        bin/obj/vexanalog.o
                                                  bin/obj/vexcortex.o
vexAudioDebugChipTone                             bin/obj/vexaudio.o
vexAudioDeinitChipToneSong                        bin/obj/vexaudio.o
vexAudioInitChipToneSong                          bin/obj/vexaudio.o
                                                  bin/obj/vexrttl.o
vexAudioPlayNextChipTone                          bin/obj/vexaudio.o
vexAudioPlayRtttl                                 bin/obj/vexrttl.o
vexAudioPlaySound                                 bin/obj/vexaudio.o
vexAudioPlaySoundWait                             bin/obj/vexaudio.o
vexAudioSetNextChipTone                           bin/obj/vexaudio.o
                                                  bin/obj/vexrttl.o
vexAudioStartChipToneSong                         bin/obj/vexaudio.o
                                                  bin/obj/vexrttl.o
vexAudioStopChipToneSong                          bin/obj/vexaudio.o
vexAudioStopSound                                 bin/obj/vexaudio.o
vexAutonomous                                     bin/obj/vexuser.o
                                                  bin/obj/vexcortex.o
vexBkupDebug                                      bin/obj/vexbkup.o
vexBkupInit                                       bin/obj/vexbkup.o
vexBkupRegisterRead                               bin/obj/vexbkup.o
vexBkupRegisterWrite                              bin/obj/vexbkup.o
vexConsoleInit                                    bin/obj/vexcortex.o
                                                  bin/obj/main.o
vexControllerCompetitionStateSet                  bin/obj/vexctl.o
vexControllerCompetitonState                      bin/obj/vexctl.o
                                                  bin/obj/apollo.o
                                                  bin/obj/vexcortex.o
vexControllerGet                                  bin/obj/vexctl.o
                                                  bin/obj/vexuser.o
                                                  bin/obj/apollo.o
vexControllerReleaseWait                          bin/obj/vexctl.o
vexCortexInit                                     bin/obj/vexcortex.o
                                                  bin/obj/main.o
vexDigitalCfgGet                                  bin/obj/vexconfig.o
                                                  bin/obj/apollo.o
vexDigitalChannelGet                              bin/obj/vexconfig.o
                                                  bin/obj/apollo.o
                                                  bin/obj/vexsensor.o
vexDigitalConfigure                               bin/obj/vexconfig.o
                                                  bin/obj/vexuser.o
vexDigitalIntrCountGet                            bin/obj/vexdigital.o
                                                  bin/obj/apollo.o
vexDigitalIntrRun                                 bin/obj/vexdigital.o
                                                  bin/obj/vexcortex.o
vexDigitalIntrSet                                 bin/obj/vexdigital.o
                                                  bin/obj/vexconfig.o
vexDigitalModeGet                                 bin/obj/vexdigital.o
vexDigitalModeSet                                 bin/obj/vexdigital.o
                                                  bin/obj/vexsonar.o
                                                  bin/obj/vexencoder.o
                                                  bin/obj/vexconfig.o
vexDigitalPinGet                                  bin/obj/vexdigital.o
                                                  bin/obj/apollo.o
                                                  bin/obj/vexsensor.o
vexDigitalPinSet                                  bin/obj/vexdigital.o
                                                  bin/obj/smartmotor.o
                                                  bin/obj/vexsensor.o
                                                  bin/obj/vexsonar.o
vexDigitalTypeGet                                 bin/obj/vexconfig.o
                                                  bin/obj/apollo.o
                                                  bin/obj/vexsensor.o
vexDigitalTypeGetName                             bin/obj/vexconfig.o
                                                  bin/obj/apollo.o
vexEncoderAdd                                     bin/obj/vexencoder.o
                                                  bin/obj/vexconfig.o
vexEncoderDebug                                   bin/obj/vexencoder.o
                                                  bin/obj/main.o
vexEncoderGet                                     bin/obj/vexencoder.o
                                                  bin/obj/apollo.o
                                                  bin/obj/vexsensor.o
                                                  bin/obj/vexconfig.o
vexEncoderGetId                                   bin/obj/vexencoder.o
                                                  bin/obj/vexconfig.o
vexEncoderInit                                    bin/obj/vexencoder.o
                                                  bin/obj/vexcortex.o
vexEncoderSet                                     bin/obj/vexencoder.o
                                                  bin/obj/vexsensor.o
                                                  bin/obj/vexconfig.o
vexEncoderStart                                   bin/obj/vexencoder.o
vexEncoderStartAll                                bin/obj/vexencoder.o
                                                  bin/obj/vexcortex.o
vexEncoderStop                                    bin/obj/vexencoder.o
vexExtIrqInit                                     bin/obj/vexext.o
                                                  bin/obj/vexcortex.o
vexExtSet                                         bin/obj/vexext.o
                                                  bin/obj/vexsonar.o
                                                  bin/obj/vexencoder.o
                                                  bin/obj/vexdigital.o
vexFlashUserParamInit                             bin/obj/vexflash.o
vexFlashUserParamRead                             bin/obj/vexflash.o
vexFlashUserParamWrite                            bin/obj/vexflash.o
vexGyroGet                                        bin/obj/vexgyro.o
vexGyroInit                                       bin/obj/vexgyro.o
vexGyroReset                                      bin/obj/vexgyro.o
vexIMEClearCounters                               bin/obj/vexime.o
vexIMEDataInit                                    bin/obj/vexime.o
vexIMEDebug                                       bin/obj/vexime.o
                                                  bin/obj/main.o
vexIMEDisableTermination                          bin/obj/vexime.o
vexIMEEnableTermination                           bin/obj/vexime.o
vexIMEFindEncoders                                bin/obj/vexime.o
vexIMEGetData                                     bin/obj/vexime.o
vexIMEGetDeviceId                                 bin/obj/vexime.o
vexIMEGetScratchpad                               bin/obj/vexime.o
vexIMEGetStatus                                   bin/obj/vexime.o
vexIMEGetVendor                                   bin/obj/vexime.o
vexIMEGetVersion                                  bin/obj/vexime.o
vexIMEHandleErrors                                bin/obj/vexime.o
vexIMEPrintBuf                                    bin/obj/vexime.o
vexIMEResetAll                                    bin/obj/vexime.o
vexIMESetAddr                                     bin/obj/vexime.o
vexIMESetScratchpad                               bin/obj/vexime.o
vexIMEUpdateCounts                                bin/obj/vexime.o
vexImeGetChannelMax                               bin/obj/vexime.o
vexImeGetCount                                    bin/obj/vexime.o
                                                  bin/obj/vexsensor.o
                                                  bin/obj/vexconfig.o
vexImeGetId                                       bin/obj/vexime.o
                                                  bin/obj/vexconfig.o
vexImeGetPtr                                      bin/obj/vexime.o
vexImeInit                                        bin/obj/vexime.o
                                                  bin/obj/vexcortex.o
vexImeMotorGetCount                               bin/obj/vexime.o
vexImeSetCount                                    bin/obj/vexime.o
                                                  bin/obj/vexsensor.o
                                                  bin/obj/vexconfig.o
vexImeSetMotor                                    bin/obj/vexime.o
                                                  bin/obj/vexconfig.o
vexImeSetType                                     bin/obj/vexime.o
                                                  bin/obj/vexconfig.o
vexLcdBacklight                                   bin/obj/vexlcd.o
vexLcdButtonGet                                   bin/obj/vexlcd.o
vexLcdCheckReceiveMessage                         bin/obj/vexlcd.o
vexLcdClearLine                                   bin/obj/vexlcd.o
vexLcdDebug                                       bin/obj/vexlcd.o
                                                  bin/obj/main.o
vexLcdInit                                        bin/obj/vexlcd.o
                                                  bin/obj/vexcortex.o
vexLcdPrintf                                      bin/obj/vexlcd.o
                                                  bin/obj/vexcortex.o
vexLcdPrintfAt                                    bin/obj/vexlcd.o
vexLcdSendMessage                                 bin/obj/vexlcd.o
vexLcdSet                                         bin/obj/vexlcd.o
vexLcdSetAt                                       bin/obj/vexlcd.o
vexMotorConfigure                                 bin/obj/vexconfig.o
                                                  bin/obj/vexuser.o
vexMotorDebug                                     bin/obj/vexmotor.o
                                                  bin/obj/main.o
vexMotorDirectionGet                              bin/obj/vexmotor.o
                                                  bin/obj/apollo.o
                                                  bin/obj/vexcortex.o
vexMotorDirectionSet                              bin/obj/vexmotor.o
                                                  bin/obj/vexconfig.o
vexMotorEncoderIdCallback                         bin/obj/vexmotor.o
                                                  bin/obj/vexconfig.o
vexMotorEncoderIdGet                              bin/obj/vexmotor.o
                                                  bin/obj/apollo.o
                                                  bin/obj/smartmotor.o
vexMotorGet                                       bin/obj/vexmotor.o
                                                  bin/obj/apollo.o
                                                  bin/obj/smartmotor.o
                                                  bin/obj/vexcortex.o
vexMotorInit                                      bin/obj/vexmotor.o
                                                  bin/obj/vexcortex.o
vexMotorPositionGet                               bin/obj/vexmotor.o
                                                  bin/obj/apollo.o
                                                  bin/obj/smartmotor.o
vexMotorPositionGetCallback                       bin/obj/vexmotor.o
                                                  bin/obj/vexconfig.o
vexMotorPositionSet                               bin/obj/vexmotor.o
vexMotorPositionSetCallback                       bin/obj/vexmotor.o
                                                  bin/obj/vexconfig.o
vexMotorSet                                       bin/obj/vexmotor.o
                                                  bin/obj/vexuser.o
                                                  bin/obj/smartmotor.o
vexMotorStopAll                                   bin/obj/vexmotor.o
                                                  bin/obj/vexcortex.o
vexMotorTypeGet                                   bin/obj/vexmotor.o
                                                  bin/obj/apollo.o
                                                  bin/obj/smartmotor.o
vexMotorTypeSet                                   bin/obj/vexmotor.o
                                                  bin/obj/vexconfig.o
vexOperator                                       bin/obj/vexuser.o
                                                  bin/obj/vexcortex.o
vexSensorIsAnalog                                 bin/obj/vexsensor.o
                                                  bin/obj/pidlib.o
vexSensorValueGet                                 bin/obj/vexsensor.o
                                                  bin/obj/pidlib.o
vexSensorValueSet                                 bin/obj/vexsensor.o
vexSleep                                          bin/obj/vexcortex.o
                                                  bin/obj/vexuser.o
                                                  bin/obj/smartmotor.o
                                                  bin/obj/vexctl.o
vexSonarAdd                                       bin/obj/vexsonar.o
                                                  bin/obj/vexconfig.o
vexSonarDebug                                     bin/obj/vexsonar.o
                                                  bin/obj/main.o
vexSonarGetCm                                     bin/obj/vexsonar.o
                                                  bin/obj/apollo.o
                                                  bin/obj/vexsensor.o
vexSonarGetInch                                   bin/obj/vexsonar.o
                                                  bin/obj/apollo.o
                                                  bin/obj/vexsensor.o
vexSonarPing                                      bin/obj/vexsonar.o
vexSonarRun                                       bin/obj/vexsonar.o
                                                  bin/obj/vexcortex.o
vexSonarStart                                     bin/obj/vexsonar.o
vexSonarStartAll                                  bin/obj/vexsonar.o
                                                  bin/obj/vexcortex.o
vexSonarStop                                      bin/obj/vexsonar.o
vexSpiDebug                                       bin/obj/vexspi.o
                                                  bin/obj/main.o
vexSpiGetBackupBattery                            bin/obj/vexspi.o
                                                  bin/obj/apollo.o
vexSpiGetControl                                  bin/obj/vexspi.o
                                                  bin/obj/vexctl.o
vexSpiGetJoystickDataPtr                          bin/obj/vexspi.o
                                                  bin/obj/vexctl.o
vexSpiGetMainBattery                              bin/obj/vexspi.o
                                                  bin/obj/apollo.o
                                                  bin/obj/smartmotor.o
vexSpiGetOnlineStatus                             bin/obj/vexspi.o
                                                  bin/obj/main.o
                                                  bin/obj/vexcortex.o
vexSpiInit                                        bin/obj/vexspi.o
                                                  bin/obj/vexcortex.o
vexSpiModeStandalone                              bin/obj/vexspi.o
vexSpiSend                                        bin/obj/vexspi.o
                                                  bin/obj/vexcortex.o
vexSpiSetMotor                                    bin/obj/vexspi.o
                                                  bin/obj/vexcortex.o
vexSpiTeamnameSet                                 bin/obj/vexspi.o
vexSpiTickDelay                                   bin/obj/vexspi.o
vexTaskDebug                                      bin/obj/vexcortex.o
vexTaskEmergencyStop                              bin/obj/vexcortex.o
vexTaskIsRegistered                               bin/obj/vexcortex.o
vexTaskPersistentGet                              bin/obj/vexcortex.o
vexTaskPersistentSet                              bin/obj/vexcortex.o
vexTaskRegister                                   bin/obj/vexcortex.o
                                                  bin/obj/vexuser.o
                                                  bin/obj/robotc_glue.o
vexTaskRegisterPersistant                         bin/obj/vexcortex.o
                                                  bin/obj/smartmotor.o
vexTest                                           bin/obj/vextest.o
                                                  bin/obj/vexcortex.o
vexTestDebug                                      bin/obj/vextest.o
                                                  bin/obj/main.o
vexUserInit                                       bin/obj/vexuser.o
                                                  bin/obj/vexcortex.o
vexUserSetup                                      bin/obj/vexuser.o
                                                  bin/obj/vexcortex.o
vexWatchdogInit                                   bin/obj/vexcortex.o
vexWatchdogReload                                 bin/obj/vexcortex.o
vexWatchdogResetFlagGet                           bin/obj/vexcortex.o
vex_chprintf                                      bin/obj/vexprintf.o
                                                  bin/obj/vexbkup.o
                                                  bin/obj/vexime.o
                                                  bin/obj/vexanalog.o
                                                  bin/obj/vexlcd.o
                                                  bin/obj/vexmotor.o
                                                  bin/obj/vexsonar.o
                                                  bin/obj/vexencoder.o
                                                  bin/obj/vexcortex.o
                                                  bin/obj/vexshell.o
vex_printf                                        bin/obj/vexprintf.o
                                                  bin/obj/smartmotor.o
                                                  bin/obj/vexaudio.o
vex_snprintf                                      bin/obj/vexprintf.o
vex_sprintf                                       bin/obj/vexprintf.o
vex_vchprintf                                     bin/obj/vexprintf.o
vex_vprintf                                       bin/obj/vexprintf.o
vex_vsnprintf                                     bin/obj/vexprintf.o
                                                  bin/obj/apollo.o
                                                  bin/obj/vexlcd.o
vex_vsprintf                                      bin/obj/vexprintf.o
vexioDefinition                                   bin/obj/vexdigital.o
                                                  bin/obj/vexsonar.o
                                                  bin/obj/vexencoder.o
vt100_drawbox                                     bin/obj/apollo.o
vtlist                                            bin/obj/chvt.o
                                                  bin/obj/apollo.o
                                                  bin/obj/smartmotor.o
                                                  bin/obj/vexprintf.o
                                                  bin/obj/vexsonar.o
                                                  bin/obj/vexshell.o
                                                  bin/obj/chthreads.o
                                                  bin/obj/chsys.o
