ARM GAS  /var/folders/6q/x_mk5n_j3p7_c40r_2k_78980000gn/T//ccnbUMDA.s 			page 1


   1              		.syntax unified
   2              		.cpu cortex-m3
   3              		.fpu softvfp
   4              		.eabi_attribute 20, 1
   5              		.eabi_attribute 21, 1
   6              		.eabi_attribute 23, 3
   7              		.eabi_attribute 24, 1
   8              		.eabi_attribute 25, 1
   9              		.eabi_attribute 26, 1
  10              		.eabi_attribute 30, 2
  11              		.eabi_attribute 34, 1
  12              		.eabi_attribute 18, 4
  13              		.thumb
  14              		.syntax unified
  15              		.file	"adc.c"
  16              		.text
  17              	.Ltext0:
  18              		.cfi_sections	.debug_frame
  19              		.section	.text.adcInit,"ax",%progbits
  20              		.align	2
  21              		.p2align 4,,15
  22              		.global	adcInit
  23              		.thumb
  24              		.thumb_func
  25              		.type	adcInit, %function
  26              	adcInit:
  27              	.LFB63:
  28              		.file 1 "../ChibiOS/os/hal/src/adc.c"
  29              		.loc 1 68 0
  30              		.cfi_startproc
  31              		@ args = 0, pretend = 0, frame = 0
  32              		@ frame_needed = 0, uses_anonymous_args = 0
  33              		@ link register save eliminated.
  34              		.loc 1 70 0
  35 0000 FFF7FEBF 		b	adc_lld_init
  36              	.LVL0:
  37              		.cfi_endproc
  38              	.LFE63:
  39              		.size	adcInit, .-adcInit
  40              		.section	.text.adcObjectInit,"ax",%progbits
  41              		.align	2
  42              		.p2align 4,,15
  43              		.global	adcObjectInit
  44              		.thumb
  45              		.thumb_func
  46              		.type	adcObjectInit, %function
  47              	adcObjectInit:
  48              	.LFB64:
  49              		.loc 1 80 0
  50              		.cfi_startproc
  51              		@ args = 0, pretend = 0, frame = 0
  52              		@ frame_needed = 0, uses_anonymous_args = 0
  53              		@ link register save eliminated.
  54              	.LVL1:
  55              		.loc 1 83 0
  56 0000 0023     		movs	r3, #0
  57              		.loc 1 82 0
ARM GAS  /var/folders/6q/x_mk5n_j3p7_c40r_2k_78980000gn/T//ccnbUMDA.s 			page 2


  58 0002 0122     		movs	r2, #1
  59 0004 0270     		strb	r2, [r0]
  60              		.loc 1 83 0
  61 0006 4360     		str	r3, [r0, #4]
  62              		.loc 1 84 0
  63 0008 8360     		str	r3, [r0, #8]
  64              		.loc 1 85 0
  65 000a C360     		str	r3, [r0, #12]
  66              		.loc 1 86 0
  67 000c 0361     		str	r3, [r0, #16]
  68              		.loc 1 88 0
  69 000e 4361     		str	r3, [r0, #20]
  70              		.loc 1 92 0
  71 0010 1830     		adds	r0, r0, #24
  72              	.LVL2:
  73 0012 FFF7FEBF 		b	chMtxInit
  74              	.LVL3:
  75              		.cfi_endproc
  76              	.LFE64:
  77              		.size	adcObjectInit, .-adcObjectInit
  78 0016 00BF     		.section	.text.adcStart,"ax",%progbits
  79              		.align	2
  80              		.p2align 4,,15
  81              		.global	adcStart
  82              		.thumb
  83              		.thumb_func
  84              		.type	adcStart, %function
  85              	adcStart:
  86              	.LFB65:
  87              		.loc 1 111 0
  88              		.cfi_startproc
  89              		@ args = 0, pretend = 0, frame = 0
  90              		@ frame_needed = 0, uses_anonymous_args = 0
  91              	.LVL4:
  92 0000 10B5     		push	{r4, lr}
  93              		.cfi_def_cfa_offset 8
  94              		.cfi_offset 4, -8
  95              		.cfi_offset 14, -4
  96              	.LBB10:
  97              		.loc 1 115 0
  98 0002 2023     		movs	r3, #32
  99              	.LBE10:
 100              		.loc 1 111 0
 101 0004 0446     		mov	r4, r0
 102              	.LBB11:
 103              		.loc 1 115 0
 104              		.syntax unified
 105              	@ 115 "../ChibiOS/os/hal/src/adc.c" 1
 106 0006 83F31188 		msr     BASEPRI, r3
 107              	@ 0 "" 2
 108              		.thumb
 109              		.syntax unified
 110              	.LBE11:
 111              		.loc 1 118 0
 112 000a 4160     		str	r1, [r0, #4]
 113              		.loc 1 119 0
 114 000c FFF7FEFF 		bl	adc_lld_start
ARM GAS  /var/folders/6q/x_mk5n_j3p7_c40r_2k_78980000gn/T//ccnbUMDA.s 			page 3


 115              	.LVL5:
 116              		.loc 1 120 0
 117 0010 0223     		movs	r3, #2
 118 0012 2370     		strb	r3, [r4]
 119              	.LBB12:
 120              		.loc 1 121 0
 121 0014 0023     		movs	r3, #0
 122              		.syntax unified
 123              	@ 121 "../ChibiOS/os/hal/src/adc.c" 1
 124 0016 83F31188 		msr     BASEPRI, r3
 125              	@ 0 "" 2
 126              		.thumb
 127              		.syntax unified
 128 001a 10BD     		pop	{r4, pc}
 129              	.LBE12:
 130              		.cfi_endproc
 131              	.LFE65:
 132              		.size	adcStart, .-adcStart
 133              		.section	.text.adcStop,"ax",%progbits
 134              		.align	2
 135              		.p2align 4,,15
 136              		.global	adcStop
 137              		.thumb
 138              		.thumb_func
 139              		.type	adcStop, %function
 140              	adcStop:
 141              	.LFB66:
 142              		.loc 1 131 0
 143              		.cfi_startproc
 144              		@ args = 0, pretend = 0, frame = 0
 145              		@ frame_needed = 0, uses_anonymous_args = 0
 146              	.LVL6:
 147 0000 10B5     		push	{r4, lr}
 148              		.cfi_def_cfa_offset 8
 149              		.cfi_offset 4, -8
 150              		.cfi_offset 14, -4
 151              	.LBB13:
 152              		.loc 1 135 0
 153 0002 2023     		movs	r3, #32
 154              	.LBE13:
 155              		.loc 1 131 0
 156 0004 0446     		mov	r4, r0
 157              	.LBB14:
 158              		.loc 1 135 0
 159              		.syntax unified
 160              	@ 135 "../ChibiOS/os/hal/src/adc.c" 1
 161 0006 83F31188 		msr     BASEPRI, r3
 162              	@ 0 "" 2
 163              		.thumb
 164              		.syntax unified
 165              	.LBE14:
 166              		.loc 1 138 0
 167 000a FFF7FEFF 		bl	adc_lld_stop
 168              	.LVL7:
 169              		.loc 1 139 0
 170 000e 0123     		movs	r3, #1
 171 0010 2370     		strb	r3, [r4]
ARM GAS  /var/folders/6q/x_mk5n_j3p7_c40r_2k_78980000gn/T//ccnbUMDA.s 			page 4


 172              	.LBB15:
 173              		.loc 1 140 0
 174 0012 0023     		movs	r3, #0
 175              		.syntax unified
 176              	@ 140 "../ChibiOS/os/hal/src/adc.c" 1
 177 0014 83F31188 		msr     BASEPRI, r3
 178              	@ 0 "" 2
 179              		.thumb
 180              		.syntax unified
 181 0018 10BD     		pop	{r4, pc}
 182              	.LBE15:
 183              		.cfi_endproc
 184              	.LFE66:
 185              		.size	adcStop, .-adcStop
 186 001a 00BF     		.section	.text.adcStartConversion,"ax",%progbits
 187              		.align	2
 188              		.p2align 4,,15
 189              		.global	adcStartConversion
 190              		.thumb
 191              		.thumb_func
 192              		.type	adcStartConversion, %function
 193              	adcStartConversion:
 194              	.LFB67:
 195              		.loc 1 162 0
 196              		.cfi_startproc
 197              		@ args = 0, pretend = 0, frame = 0
 198              		@ frame_needed = 0, uses_anonymous_args = 0
 199              	.LVL8:
 200 0000 38B5     		push	{r3, r4, r5, lr}
 201              		.cfi_def_cfa_offset 16
 202              		.cfi_offset 3, -16
 203              		.cfi_offset 4, -12
 204              		.cfi_offset 5, -8
 205              		.cfi_offset 14, -4
 206              		.loc 1 162 0
 207 0002 1D46     		mov	r5, r3
 208              	.LBB16:
 209              		.loc 1 164 0
 210 0004 2023     		movs	r3, #32
 211              	.LVL9:
 212              		.syntax unified
 213              	@ 164 "../ChibiOS/os/hal/src/adc.c" 1
 214 0006 83F31188 		msr     BASEPRI, r3
 215              	@ 0 "" 2
 216              	.LVL10:
 217              		.thumb
 218              		.syntax unified
 219              	.LBE16:
 220              	.LBB17:
 221              	.LBB18:
 222              		.loc 1 204 0
 223 000a 0323     		movs	r3, #3
 224 000c 0370     		strb	r3, [r0]
 225              		.loc 1 201 0
 226 000e 8260     		str	r2, [r0, #8]
 227              		.loc 1 202 0
 228 0010 C560     		str	r5, [r0, #12]
ARM GAS  /var/folders/6q/x_mk5n_j3p7_c40r_2k_78980000gn/T//ccnbUMDA.s 			page 5


 229              		.loc 1 203 0
 230 0012 0161     		str	r1, [r0, #16]
 231              		.loc 1 205 0
 232 0014 FFF7FEFF 		bl	adc_lld_start_conversion
 233              	.LVL11:
 234              	.LBE18:
 235              	.LBE17:
 236              	.LBB19:
 237              		.loc 1 166 0
 238 0018 0023     		movs	r3, #0
 239              		.syntax unified
 240              	@ 166 "../ChibiOS/os/hal/src/adc.c" 1
 241 001a 83F31188 		msr     BASEPRI, r3
 242              	@ 0 "" 2
 243              		.thumb
 244              		.syntax unified
 245 001e 38BD     		pop	{r3, r4, r5, pc}
 246              	.LBE19:
 247              		.cfi_endproc
 248              	.LFE67:
 249              		.size	adcStartConversion, .-adcStartConversion
 250              		.section	.text.adcStartConversionI,"ax",%progbits
 251              		.align	2
 252              		.p2align 4,,15
 253              		.global	adcStartConversionI
 254              		.thumb
 255              		.thumb_func
 256              		.type	adcStartConversionI, %function
 257              	adcStartConversionI:
 258              	.LFB68:
 259              		.loc 1 190 0
 260              		.cfi_startproc
 261              		@ args = 0, pretend = 0, frame = 0
 262              		@ frame_needed = 0, uses_anonymous_args = 0
 263              		@ link register save eliminated.
 264              	.LVL12:
 265 0000 30B4     		push	{r4, r5}
 266              		.cfi_def_cfa_offset 8
 267              		.cfi_offset 4, -8
 268              		.cfi_offset 5, -4
 269              		.loc 1 204 0
 270 0002 0325     		movs	r5, #3
 271 0004 0570     		strb	r5, [r0]
 272              		.loc 1 201 0
 273 0006 8260     		str	r2, [r0, #8]
 274              		.loc 1 202 0
 275 0008 C360     		str	r3, [r0, #12]
 276              		.loc 1 203 0
 277 000a 0161     		str	r1, [r0, #16]
 278              		.loc 1 206 0
 279 000c 30BC     		pop	{r4, r5}
 280              		.cfi_restore 5
 281              		.cfi_restore 4
 282              		.cfi_def_cfa_offset 0
 283              		.loc 1 205 0
 284 000e FFF7FEBF 		b	adc_lld_start_conversion
 285              	.LVL13:
ARM GAS  /var/folders/6q/x_mk5n_j3p7_c40r_2k_78980000gn/T//ccnbUMDA.s 			page 6


 286              		.cfi_endproc
 287              	.LFE68:
 288              		.size	adcStartConversionI, .-adcStartConversionI
 289 0012 00BF     		.section	.text.adcStopConversion,"ax",%progbits
 290              		.align	2
 291              		.p2align 4,,15
 292              		.global	adcStopConversion
 293              		.thumb
 294              		.thumb_func
 295              		.type	adcStopConversion, %function
 296              	adcStopConversion:
 297              	.LFB69:
 298              		.loc 1 218 0
 299              		.cfi_startproc
 300              		@ args = 0, pretend = 0, frame = 0
 301              		@ frame_needed = 0, uses_anonymous_args = 0
 302              	.LVL14:
 303              	.LBB20:
 304              		.loc 1 222 0
 305 0000 2023     		movs	r3, #32
 306              		.syntax unified
 307              	@ 222 "../ChibiOS/os/hal/src/adc.c" 1
 308 0002 83F31188 		msr     BASEPRI, r3
 309              	@ 0 "" 2
 310              		.thumb
 311              		.syntax unified
 312              	.LBE20:
 313              		.loc 1 226 0
 314 0006 0378     		ldrb	r3, [r0]	@ zero_extendqisi2
 315 0008 022B     		cmp	r3, #2
 316 000a 12D0     		beq	.L19
 317              		.loc 1 218 0
 318 000c 10B5     		push	{r4, lr}
 319              		.cfi_def_cfa_offset 8
 320              		.cfi_offset 4, -8
 321              		.cfi_offset 14, -4
 322 000e 0446     		mov	r4, r0
 323              		.loc 1 227 0
 324 0010 FFF7FEFF 		bl	adc_lld_stop_conversion
 325              	.LVL15:
 326              		.loc 1 230 0
 327 0014 6069     		ldr	r0, [r4, #20]
 328              		.loc 1 228 0
 329 0016 0023     		movs	r3, #0
 330              		.loc 1 229 0
 331 0018 0222     		movs	r2, #2
 332              		.loc 1 228 0
 333 001a 2361     		str	r3, [r4, #16]
 334              		.loc 1 229 0
 335 001c 2270     		strb	r2, [r4]
 336              		.loc 1 230 0
 337 001e 20B1     		cbz	r0, .L13
 338              	.LVL16:
 339              	.LBB21:
 340              		.loc 1 230 0 is_stmt 0 discriminator 1
 341 0020 6361     		str	r3, [r4, #20]
 342 0022 6FF00101 		mvn	r1, #1
ARM GAS  /var/folders/6q/x_mk5n_j3p7_c40r_2k_78980000gn/T//ccnbUMDA.s 			page 7


 343 0026 FFF7FEFF 		bl	chSchWakeupS
 344              	.LVL17:
 345              	.L13:
 346              	.LBE21:
 347              	.LBB22:
 348              		.loc 1 232 0 is_stmt 1
 349 002a 0023     		movs	r3, #0
 350              		.syntax unified
 351              	@ 232 "../ChibiOS/os/hal/src/adc.c" 1
 352 002c 83F31188 		msr     BASEPRI, r3
 353              	@ 0 "" 2
 354              		.thumb
 355              		.syntax unified
 356 0030 10BD     		pop	{r4, pc}
 357              	.LVL18:
 358              	.L19:
 359              		.cfi_def_cfa_offset 0
 360              		.cfi_restore 4
 361              		.cfi_restore 14
 362 0032 0023     		movs	r3, #0
 363              		.syntax unified
 364              	@ 232 "../ChibiOS/os/hal/src/adc.c" 1
 365 0034 83F31188 		msr     BASEPRI, r3
 366              	@ 0 "" 2
 367              		.thumb
 368              		.syntax unified
 369 0038 7047     		bx	lr
 370              	.LBE22:
 371              		.cfi_endproc
 372              	.LFE69:
 373              		.size	adcStopConversion, .-adcStopConversion
 374 003a 00BF     		.section	.text.adcStopConversionI,"ax",%progbits
 375              		.align	2
 376              		.p2align 4,,15
 377              		.global	adcStopConversionI
 378              		.thumb
 379              		.thumb_func
 380              		.type	adcStopConversionI, %function
 381              	adcStopConversionI:
 382              	.LFB70:
 383              		.loc 1 245 0
 384              		.cfi_startproc
 385              		@ args = 0, pretend = 0, frame = 0
 386              		@ frame_needed = 0, uses_anonymous_args = 0
 387              	.LVL19:
 388              		.loc 1 254 0
 389 0000 0378     		ldrb	r3, [r0]	@ zero_extendqisi2
 390 0002 022B     		cmp	r3, #2
 391 0004 12D0     		beq	.L29
 392              		.loc 1 245 0
 393 0006 10B5     		push	{r4, lr}
 394              		.cfi_def_cfa_offset 8
 395              		.cfi_offset 4, -8
 396              		.cfi_offset 14, -4
 397 0008 0446     		mov	r4, r0
 398              		.loc 1 255 0
 399 000a FFF7FEFF 		bl	adc_lld_stop_conversion
ARM GAS  /var/folders/6q/x_mk5n_j3p7_c40r_2k_78980000gn/T//ccnbUMDA.s 			page 8


 400              	.LVL20:
 401              		.loc 1 258 0
 402 000e 6369     		ldr	r3, [r4, #20]
 403              		.loc 1 256 0
 404 0010 0022     		movs	r2, #0
 405              		.loc 1 257 0
 406 0012 0221     		movs	r1, #2
 407              		.loc 1 256 0
 408 0014 2261     		str	r2, [r4, #16]
 409              		.loc 1 257 0
 410 0016 2170     		strb	r1, [r4]
 411              		.loc 1 258 0
 412 0018 4BB1     		cbz	r3, .L21
 413              	.LVL21:
 414              	.LBB23:
 415              		.loc 1 258 0 is_stmt 0 discriminator 1
 416 001a 6FF00101 		mvn	r1, #1
 417 001e 6261     		str	r2, [r4, #20]
 418 0020 5962     		str	r1, [r3, #36]
 419 0022 1846     		mov	r0, r3
 420              	.LBE23:
 421              		.loc 1 260 0 is_stmt 1 discriminator 1
 422 0024 BDE81040 		pop	{r4, lr}
 423              		.cfi_restore 14
 424              		.cfi_restore 4
 425              		.cfi_def_cfa_offset 0
 426              	.LVL22:
 427              	.LBB24:
 428              		.loc 1 258 0 discriminator 1
 429 0028 FFF7FEBF 		b	chSchReadyI
 430              	.LVL23:
 431              	.L29:
 432 002c 7047     		bx	lr
 433              	.LVL24:
 434              	.L21:
 435              		.cfi_def_cfa_offset 8
 436              		.cfi_offset 4, -8
 437              		.cfi_offset 14, -4
 438 002e 10BD     		pop	{r4, pc}
 439              	.LBE24:
 440              		.cfi_endproc
 441              	.LFE70:
 442              		.size	adcStopConversionI, .-adcStopConversionI
 443              		.section	.text.adcConvert,"ax",%progbits
 444              		.align	2
 445              		.p2align 4,,15
 446              		.global	adcConvert
 447              		.thumb
 448              		.thumb_func
 449              		.type	adcConvert, %function
 450              	adcConvert:
 451              	.LFB71:
 452              		.loc 1 289 0
 453              		.cfi_startproc
 454              		@ args = 0, pretend = 0, frame = 0
 455              		@ frame_needed = 0, uses_anonymous_args = 0
 456              	.LVL25:
ARM GAS  /var/folders/6q/x_mk5n_j3p7_c40r_2k_78980000gn/T//ccnbUMDA.s 			page 9


 457 0000 70B5     		push	{r4, r5, r6, lr}
 458              		.cfi_def_cfa_offset 16
 459              		.cfi_offset 4, -16
 460              		.cfi_offset 5, -12
 461              		.cfi_offset 6, -8
 462              		.cfi_offset 14, -4
 463              		.loc 1 289 0
 464 0002 1E46     		mov	r6, r3
 465 0004 0446     		mov	r4, r0
 466              	.LBB25:
 467              		.loc 1 292 0
 468 0006 2023     		movs	r3, #32
 469              	.LVL26:
 470              		.syntax unified
 471              	@ 292 "../ChibiOS/os/hal/src/adc.c" 1
 472 0008 83F31188 		msr     BASEPRI, r3
 473              	@ 0 "" 2
 474              	.LVL27:
 475              		.thumb
 476              		.syntax unified
 477              	.LBE25:
 478              	.LBB26:
 479              	.LBB27:
 480              		.loc 1 204 0
 481 000c 0323     		movs	r3, #3
 482              	.LBE27:
 483              	.LBE26:
 484              		.loc 1 295 0
 485 000e 094D     		ldr	r5, .L32
 486              	.LBB29:
 487              	.LBB28:
 488              		.loc 1 201 0
 489 0010 8260     		str	r2, [r0, #8]
 490              		.loc 1 203 0
 491 0012 0161     		str	r1, [r0, #16]
 492              		.loc 1 202 0
 493 0014 C660     		str	r6, [r0, #12]
 494              		.loc 1 204 0
 495 0016 0370     		strb	r3, [r0]
 496              		.loc 1 205 0
 497 0018 FFF7FEFF 		bl	adc_lld_start_conversion
 498              	.LVL28:
 499              	.LBE28:
 500              	.LBE29:
 501              		.loc 1 295 0
 502 001c AB69     		ldr	r3, [r5, #24]
 503              		.loc 1 296 0
 504 001e 0220     		movs	r0, #2
 505              		.loc 1 295 0
 506 0020 6361     		str	r3, [r4, #20]
 507              		.loc 1 296 0
 508 0022 FFF7FEFF 		bl	chSchGoSleepS
 509              	.LVL29:
 510              		.loc 1 297 0
 511 0026 AA69     		ldr	r2, [r5, #24]
 512              	.LBB30:
 513              		.loc 1 298 0
ARM GAS  /var/folders/6q/x_mk5n_j3p7_c40r_2k_78980000gn/T//ccnbUMDA.s 			page 10


 514 0028 0023     		movs	r3, #0
 515              	.LBE30:
 516              		.loc 1 297 0
 517 002a 506A     		ldr	r0, [r2, #36]
 518              	.LVL30:
 519              	.LBB31:
 520              		.loc 1 298 0
 521              		.syntax unified
 522              	@ 298 "../ChibiOS/os/hal/src/adc.c" 1
 523 002c 83F31188 		msr     BASEPRI, r3
 524              	@ 0 "" 2
 525              		.thumb
 526              		.syntax unified
 527              	.LBE31:
 528              		.loc 1 300 0
 529 0030 70BD     		pop	{r4, r5, r6, pc}
 530              	.LVL31:
 531              	.L33:
 532 0032 00BF     		.align	2
 533              	.L32:
 534 0034 00000000 		.word	rlist
 535              		.cfi_endproc
 536              	.LFE71:
 537              		.size	adcConvert, .-adcConvert
 538              		.section	.text.adcAcquireBus,"ax",%progbits
 539              		.align	2
 540              		.p2align 4,,15
 541              		.global	adcAcquireBus
 542              		.thumb
 543              		.thumb_func
 544              		.type	adcAcquireBus, %function
 545              	adcAcquireBus:
 546              	.LFB72:
 547              		.loc 1 315 0
 548              		.cfi_startproc
 549              		@ args = 0, pretend = 0, frame = 0
 550              		@ frame_needed = 0, uses_anonymous_args = 0
 551              		@ link register save eliminated.
 552              	.LVL32:
 553              		.loc 1 320 0
 554 0000 1830     		adds	r0, r0, #24
 555              	.LVL33:
 556 0002 FFF7FEBF 		b	chMtxLock
 557              	.LVL34:
 558              		.cfi_endproc
 559              	.LFE72:
 560              		.size	adcAcquireBus, .-adcAcquireBus
 561 0006 00BF     		.section	.text.adcReleaseBus,"ax",%progbits
 562              		.align	2
 563              		.p2align 4,,15
 564              		.global	adcReleaseBus
 565              		.thumb
 566              		.thumb_func
 567              		.type	adcReleaseBus, %function
 568              	adcReleaseBus:
 569              	.LFB73:
 570              		.loc 1 335 0
ARM GAS  /var/folders/6q/x_mk5n_j3p7_c40r_2k_78980000gn/T//ccnbUMDA.s 			page 11


 571              		.cfi_startproc
 572              		@ args = 0, pretend = 0, frame = 0
 573              		@ frame_needed = 0, uses_anonymous_args = 0
 574              		@ link register save eliminated.
 575              	.LVL35:
 576              		.loc 1 341 0
 577 0000 FFF7FEBF 		b	chMtxUnlock
 578              	.LVL36:
 579              		.cfi_endproc
 580              	.LFE73:
 581              		.size	adcReleaseBus, .-adcReleaseBus
 582              		.text
 583              	.Letext0:
 584              		.file 2 "/Users/Luca/src/vexilla/src/gcc-arm-none-eabi-5_4-2016q3/lib/gcc/arm-none-eabi/5.4.1/incl
 585              		.file 3 "/Users/Luca/src/vexilla/src/gcc-arm-none-eabi-5_4-2016q3/arm-none-eabi/include/machine/_d
 586              		.file 4 "/Users/Luca/src/vexilla/src/gcc-arm-none-eabi-5_4-2016q3/arm-none-eabi/include/sys/_stdin
 587              		.file 5 "../ChibiOS/os/ports/GCC/ARMCMx/chtypes.h"
 588              		.file 6 "../ChibiOS/os/kernel/include/chlists.h"
 589              		.file 7 "../ChibiOS/os/kernel/include/chthreads.h"
 590              		.file 8 "../ChibiOS/os/ports/GCC/ARMCMx/chcore_v7m.h"
 591              		.file 9 "../ChibiOS/os/kernel/include/chschd.h"
 592              		.file 10 "../ChibiOS/os/kernel/include/chmtx.h"
 593              		.file 11 "../ChibiOS/os/hal/platforms/STM32F1xx/stm32f10x.h"
 594              		.file 12 "../ChibiOS/os/hal/platforms/STM32F1xx/stm32_dma.h"
 595              		.file 13 "../ChibiOS/os/hal/include/adc.h"
 596              		.file 14 "../ChibiOS/os/hal/platforms/STM32F1xx/adc_lld.h"
 597              		.file 15 "../ChibiOS/os/ports/common/ARMCMx/CMSIS/include/core_cm3.h"