ARM GAS  /var/folders/6q/x_mk5n_j3p7_c40r_2k_78980000gn/T//ccCxRUFN.s 			page 1


   1              		.syntax unified
   2              		.cpu cortex-m3
   3              		.fpu softvfp
   4              		.eabi_attribute 20, 1
   5              		.eabi_attribute 21, 1
   6              		.eabi_attribute 23, 3
   7              		.eabi_attribute 24, 1
   8              		.eabi_attribute 25, 1
   9              		.eabi_attribute 26, 1
  10              		.eabi_attribute 30, 2
  11              		.eabi_attribute 34, 1
  12              		.eabi_attribute 18, 4
  13              		.thumb
  14              		.syntax unified
  15              		.file	"adc_lld.c"
  16              		.text
  17              	.Ltext0:
  18              		.cfi_sections	.debug_frame
  19              		.section	.text.adc_lld_serve_rx_interrupt,"ax",%progbits
  20              		.align	2
  21              		.p2align 4,,15
  22              		.thumb
  23              		.thumb_func
  24              		.type	adc_lld_serve_rx_interrupt, %function
  25              	adc_lld_serve_rx_interrupt:
  26              	.LFB63:
  27              		.file 1 "../ChibiOS/os/hal/platforms/STM32F1xx/adc_lld.c"
  28              		.loc 1 57 0
  29              		.cfi_startproc
  30              		@ args = 0, pretend = 0, frame = 0
  31              		@ frame_needed = 0, uses_anonymous_args = 0
  32              	.LVL0:
  33 0000 2DE9F041 		push	{r4, r5, r6, r7, r8, lr}
  34              		.cfi_def_cfa_offset 24
  35              		.cfi_offset 4, -24
  36              		.cfi_offset 5, -20
  37              		.cfi_offset 6, -16
  38              		.cfi_offset 7, -12
  39              		.cfi_offset 8, -8
  40              		.cfi_offset 14, -4
  41              		.loc 1 60 0
  42 0004 0D07     		lsls	r5, r1, #28
  43              		.loc 1 57 0
  44 0006 0446     		mov	r4, r0
  45              		.loc 1 60 0
  46 0008 2BD5     		bpl	.L2
  47              	.LVL1:
  48              	.LBB13:
  49              	.LBB14:
  50              		.loc 1 228 0
  51 000a C36A     		ldr	r3, [r0, #44]
  52              	.LBE14:
  53              	.LBE13:
  54              		.loc 1 63 0
  55 000c 0569     		ldr	r5, [r0, #16]
  56              	.LBB17:
  57              	.LBB15:
ARM GAS  /var/folders/6q/x_mk5n_j3p7_c40r_2k_78980000gn/T//ccCxRUFN.s 			page 2


  58              		.loc 1 228 0
  59 000e 93E84200 		ldmia	r3, {r1, r6}
  60              	.LVL2:
  61 0012 0A68     		ldr	r2, [r1]
  62              	.LBE15:
  63              	.LBE17:
  64              		.loc 1 63 0
  65 0014 AD68     		ldr	r5, [r5, #8]
  66              	.LBB18:
  67              	.LBB16:
  68              		.loc 1 228 0
  69 0016 22F00F02 		bic	r2, r2, #15
  70 001a 0A60     		str	r2, [r1]
  71 001c 197A     		ldrb	r1, [r3, #8]	@ zero_extendqisi2
  72              		.loc 1 229 0
  73 001e 826A     		ldr	r2, [r0, #40]
  74              		.loc 1 228 0
  75 0020 0F23     		movs	r3, #15
  76 0022 8B40     		lsls	r3, r3, r1
  77              		.loc 1 229 0
  78 0024 0021     		movs	r1, #0
  79              		.loc 1 228 0
  80 0026 3360     		str	r3, [r6]
  81              		.loc 1 229 0
  82 0028 9160     		str	r1, [r2, #8]
  83              	.LVL3:
  84              	.LBE16:
  85              	.LBE18:
  86              		.loc 1 63 0
  87 002a 3DB1     		cbz	r5, .L4
  88              		.loc 1 63 0 is_stmt 0 discriminator 1
  89 002c 0523     		movs	r3, #5
  90 002e 0370     		strb	r3, [r0]
  91 0030 A847     		blx	r5
  92              	.LVL4:
  93 0032 2378     		ldrb	r3, [r4]	@ zero_extendqisi2
  94 0034 052B     		cmp	r3, #5
  95 0036 04BF     		itt	eq
  96 0038 0223     		moveq	r3, #2
  97 003a 2370     		strbeq	r3, [r4]
  98              	.L4:
  99              		.loc 1 63 0 discriminator 5
 100 003c 0022     		movs	r2, #0
 101 003e 2261     		str	r2, [r4, #16]
 102              	.LBB19:
 103 0040 2023     		movs	r3, #32
 104              		.syntax unified
 105              	@ 63 "../ChibiOS/os/hal/platforms/STM32F1xx/adc_lld.c" 1
 106 0042 83F31188 		msr     BASEPRI, r3
 107              	@ 0 "" 2
 108              		.thumb
 109              		.syntax unified
 110              	.LBE19:
 111 0046 6369     		ldr	r3, [r4, #20]
 112 0048 33B1     		cbz	r3, .L13
 113              	.LVL5:
 114              	.LBB20:
ARM GAS  /var/folders/6q/x_mk5n_j3p7_c40r_2k_78980000gn/T//ccCxRUFN.s 			page 3


 115              		.loc 1 63 0 discriminator 6
 116 004a 4FF0FF31 		mov	r1, #-1
 117 004e 6261     		str	r2, [r4, #20]
 118 0050 1846     		mov	r0, r3
 119 0052 5962     		str	r1, [r3, #36]
 120 0054 FFF7FEFF 		bl	chSchReadyI
 121              	.LVL6:
 122              	.L13:
 123              	.LBE20:
 124              	.LBB21:
 125              		.loc 1 68 0 is_stmt 1 discriminator 12
 126 0058 0023     		movs	r3, #0
 127              		.syntax unified
 128              	@ 68 "../ChibiOS/os/hal/platforms/STM32F1xx/adc_lld.c" 1
 129 005a 83F31188 		msr     BASEPRI, r3
 130              	@ 0 "" 2
 131              		.thumb
 132              		.syntax unified
 133 005e BDE8F081 		pop	{r4, r5, r6, r7, r8, pc}
 134              	.LVL7:
 135              	.L2:
 136              	.LBE21:
 137              		.loc 1 66 0
 138 0062 8A07     		lsls	r2, r1, #30
 139 0064 28D5     		bpl	.L8
 140              		.loc 1 68 0
 141 0066 0369     		ldr	r3, [r0, #16]
 142 0068 1A78     		ldrb	r2, [r3]	@ zero_extendqisi2
 143 006a 002A     		cmp	r2, #0
 144 006c 31D1     		bne	.L34
 145              	.LVL8:
 146              	.LBB22:
 147              	.LBB23:
 148              		.loc 1 228 0
 149 006e C16A     		ldr	r1, [r0, #44]
 150              	.LVL9:
 151              	.LBE23:
 152              	.LBE22:
 153              		.loc 1 68 0
 154 0070 5E68     		ldr	r6, [r3, #4]
 155              	.LBB25:
 156              	.LBB24:
 157              		.loc 1 228 0
 158 0072 91E8A000 		ldmia	r1, {r5, r7}
 159 0076 2B68     		ldr	r3, [r5]
 160 0078 23F00F03 		bic	r3, r3, #15
 161 007c 2B60     		str	r3, [r5]
 162 007e 0D7A     		ldrb	r5, [r1, #8]	@ zero_extendqisi2
 163 0080 0F23     		movs	r3, #15
 164              		.loc 1 229 0
 165 0082 816A     		ldr	r1, [r0, #40]
 166              		.loc 1 228 0
 167 0084 AB40     		lsls	r3, r3, r5
 168 0086 3B60     		str	r3, [r7]
 169              		.loc 1 229 0
 170 0088 8A60     		str	r2, [r1, #8]
 171              	.LVL10:
ARM GAS  /var/folders/6q/x_mk5n_j3p7_c40r_2k_78980000gn/T//ccCxRUFN.s 			page 4


 172              	.LBE24:
 173              	.LBE25:
 174              		.loc 1 68 0
 175 008a 002E     		cmp	r6, #0
 176 008c 32D0     		beq	.L11
 177              		.loc 1 68 0 is_stmt 0 discriminator 6
 178 008e 0423     		movs	r3, #4
 179 0090 0370     		strb	r3, [r0]
 180 0092 C268     		ldr	r2, [r0, #12]
 181 0094 8168     		ldr	r1, [r0, #8]
 182 0096 B047     		blx	r6
 183              	.LVL11:
 184 0098 2378     		ldrb	r3, [r4]	@ zero_extendqisi2
 185 009a 042B     		cmp	r3, #4
 186 009c 2AD0     		beq	.L11
 187              	.L12:
 188              	.LBB26:
 189              		.loc 1 68 0 discriminator 9
 190 009e 2023     		movs	r3, #32
 191              		.syntax unified
 192              	@ 68 "../ChibiOS/os/hal/platforms/STM32F1xx/adc_lld.c" 1
 193 00a0 83F31188 		msr     BASEPRI, r3
 194              	@ 0 "" 2
 195              		.thumb
 196              		.syntax unified
 197              	.LBE26:
 198 00a4 6369     		ldr	r3, [r4, #20]
 199 00a6 002B     		cmp	r3, #0
 200 00a8 D6D0     		beq	.L13
 201              	.LVL12:
 202              	.LBB27:
 203              		.loc 1 68 0 discriminator 10
 204 00aa 0022     		movs	r2, #0
 205 00ac 6261     		str	r2, [r4, #20]
 206 00ae 1846     		mov	r0, r3
 207 00b0 5A62     		str	r2, [r3, #36]
 208 00b2 FFF7FEFF 		bl	chSchReadyI
 209              	.LVL13:
 210 00b6 CFE7     		b	.L13
 211              	.LVL14:
 212              	.L8:
 213              	.LBE27:
 214              		.loc 1 70 0 is_stmt 1
 215 00b8 4B07     		lsls	r3, r1, #29
 216 00ba 08D5     		bpl	.L1
 217              		.loc 1 72 0
 218 00bc 0369     		ldr	r3, [r0, #16]
 219 00be 5B68     		ldr	r3, [r3, #4]
 220 00c0 2BB1     		cbz	r3, .L1
 221              		.loc 1 75 0 discriminator 1
 222 00c2 BDE8F041 		pop	{r4, r5, r6, r7, r8, lr}
 223              		.cfi_remember_state
 224              		.cfi_restore 14
 225              		.cfi_restore 8
 226              		.cfi_restore 7
 227              		.cfi_restore 6
 228              		.cfi_restore 5
ARM GAS  /var/folders/6q/x_mk5n_j3p7_c40r_2k_78980000gn/T//ccCxRUFN.s 			page 5


 229              		.cfi_restore 4
 230              		.cfi_def_cfa_offset 0
 231              		.loc 1 72 0 discriminator 1
 232 00c6 C268     		ldr	r2, [r0, #12]
 233 00c8 8168     		ldr	r1, [r0, #8]
 234              	.LVL15:
 235 00ca 5208     		lsrs	r2, r2, #1
 236 00cc 1847     		bx	r3	@ indirect register sibling call
 237              	.LVL16:
 238              	.L1:
 239              		.cfi_restore_state
 240 00ce BDE8F081 		pop	{r4, r5, r6, r7, r8, pc}
 241              	.L34:
 242              		.loc 1 68 0 discriminator 1
 243 00d2 5D68     		ldr	r5, [r3, #4]
 244 00d4 002D     		cmp	r5, #0
 245 00d6 FAD0     		beq	.L1
 246              		.loc 1 68 0 is_stmt 0 discriminator 3
 247 00d8 C268     		ldr	r2, [r0, #12]
 248 00da 012A     		cmp	r2, #1
 249 00dc 0FD9     		bls	.L10
 250              	.LBB28:
 251              		.loc 1 68 0 discriminator 4
 252 00de 5B88     		ldrh	r3, [r3, #2]
 253 00e0 5208     		lsrs	r2, r2, #1
 254              	.LVL17:
 255 00e2 02FB03F3 		mul	r3, r2, r3
 256 00e6 8168     		ldr	r1, [r0, #8]
 257              	.LVL18:
 258 00e8 01EB4301 		add	r1, r1, r3, lsl #1
 259 00ec 2B46     		mov	r3, r5
 260              	.LBE28:
 261              		.loc 1 75 0 is_stmt 1 discriminator 4
 262 00ee BDE8F041 		pop	{r4, r5, r6, r7, r8, lr}
 263              		.cfi_remember_state
 264              		.cfi_restore 14
 265              		.cfi_restore 8
 266              		.cfi_restore 7
 267              		.cfi_restore 6
 268              		.cfi_restore 5
 269              		.cfi_restore 4
 270              		.cfi_def_cfa_offset 0
 271              	.LBB29:
 272              		.loc 1 68 0 discriminator 4
 273 00f2 1847     		bx	r3	@ indirect register sibling call
 274              	.LVL19:
 275              	.L11:
 276              		.cfi_restore_state
 277              	.LBE29:
 278              		.loc 1 68 0 is_stmt 0 discriminator 8
 279 00f4 0222     		movs	r2, #2
 280 00f6 0023     		movs	r3, #0
 281 00f8 2270     		strb	r2, [r4]
 282 00fa 2361     		str	r3, [r4, #16]
 283 00fc CFE7     		b	.L12
 284              	.LVL20:
 285              	.L10:
ARM GAS  /var/folders/6q/x_mk5n_j3p7_c40r_2k_78980000gn/T//ccCxRUFN.s 			page 6


 286              		.loc 1 68 0 discriminator 5
 287 00fe 2B46     		mov	r3, r5
 288              		.loc 1 75 0 is_stmt 1 discriminator 5
 289 0100 BDE8F041 		pop	{r4, r5, r6, r7, r8, lr}
 290              		.cfi_restore 14
 291              		.cfi_restore 8
 292              		.cfi_restore 7
 293              		.cfi_restore 6
 294              		.cfi_restore 5
 295              		.cfi_restore 4
 296              		.cfi_def_cfa_offset 0
 297              		.loc 1 68 0 discriminator 5
 298 0104 8168     		ldr	r1, [r0, #8]
 299              	.LVL21:
 300 0106 1847     		bx	r3	@ indirect register sibling call
 301              	.LVL22:
 302              		.cfi_endproc
 303              	.LFE63:
 304              		.size	adc_lld_serve_rx_interrupt, .-adc_lld_serve_rx_interrupt
 305              		.section	.text.adc_lld_init,"ax",%progbits
 306              		.align	2
 307              		.p2align 4,,15
 308              		.global	adc_lld_init
 309              		.thumb
 310              		.thumb_func
 311              		.type	adc_lld_init, %function
 312              	adc_lld_init:
 313              	.LFB64:
 314              		.loc 1 90 0
 315              		.cfi_startproc
 316              		@ args = 0, pretend = 0, frame = 0
 317              		@ frame_needed = 0, uses_anonymous_args = 0
 318 0000 F8B5     		push	{r3, r4, r5, r6, r7, lr}
 319              		.cfi_def_cfa_offset 24
 320              		.cfi_offset 3, -24
 321              		.cfi_offset 4, -20
 322              		.cfi_offset 5, -16
 323              		.cfi_offset 6, -12
 324              		.cfi_offset 7, -8
 325              		.cfi_offset 14, -4
 326              		.loc 1 94 0
 327 0002 154C     		ldr	r4, .L41
 328              		.loc 1 97 0
 329 0004 42F28A55 		movw	r5, #9610
 330              		.loc 1 94 0
 331 0008 2046     		mov	r0, r4
 332 000a FFF7FEFF 		bl	adcObjectInit
 333              	.LVL23:
 334              		.loc 1 95 0
 335 000e 134B     		ldr	r3, .L41+4
 336              		.loc 1 103 0
 337 0010 1348     		ldr	r0, .L41+8
 338              		.loc 1 109 0
 339 0012 1946     		mov	r1, r3
 340              		.loc 1 103 0
 341 0014 8269     		ldr	r2, [r0, #24]
 342              		.loc 1 96 0
ARM GAS  /var/folders/6q/x_mk5n_j3p7_c40r_2k_78980000gn/T//ccCxRUFN.s 			page 7


 343 0016 134E     		ldr	r6, .L41+12
 344              		.loc 1 97 0
 345 0018 2563     		str	r5, [r4, #48]
 346              		.loc 1 96 0
 347 001a E662     		str	r6, [r4, #44]
 348              		.loc 1 104 0
 349 001c 0027     		movs	r7, #0
 350              		.loc 1 103 0
 351 001e 42F40072 		orr	r2, r2, #512
 352              		.loc 1 105 0
 353 0022 0126     		movs	r6, #1
 354              		.loc 1 108 0
 355 0024 0925     		movs	r5, #9
 356              		.loc 1 95 0
 357 0026 A362     		str	r3, [r4, #40]
 358              		.loc 1 103 0
 359 0028 8261     		str	r2, [r0, #24]
 360              		.loc 1 104 0
 361 002a 5F60     		str	r7, [r3, #4]
 362              		.loc 1 105 0
 363 002c 9E60     		str	r6, [r3, #8]
 364              		.loc 1 108 0
 365 002e 9D60     		str	r5, [r3, #8]
 366              	.L36:
 367              		.loc 1 109 0 discriminator 1
 368 0030 8B68     		ldr	r3, [r1, #8]
 369 0032 0A4A     		ldr	r2, .L41+4
 370 0034 1B07     		lsls	r3, r3, #28
 371 0036 FBD4     		bmi	.L36
 372              		.loc 1 114 0
 373 0038 1146     		mov	r1, r2
 374              		.loc 1 113 0
 375 003a 0523     		movs	r3, #5
 376 003c 9360     		str	r3, [r2, #8]
 377              	.L37:
 378              		.loc 1 114 0 discriminator 1
 379 003e 8B68     		ldr	r3, [r1, #8]
 380 0040 064A     		ldr	r2, .L41+4
 381 0042 13F00403 		ands	r3, r3, #4
 382 0046 FAD1     		bne	.L37
 383              		.loc 1 119 0
 384 0048 0549     		ldr	r1, .L41+8
 385              		.loc 1 118 0
 386 004a 9360     		str	r3, [r2, #8]
 387              		.loc 1 119 0
 388 004c 8B69     		ldr	r3, [r1, #24]
 389 004e 23F40073 		bic	r3, r3, #512
 390 0052 8B61     		str	r3, [r1, #24]
 391 0054 F8BD     		pop	{r3, r4, r5, r6, r7, pc}
 392              	.L42:
 393 0056 00BF     		.align	2
 394              	.L41:
 395 0058 00000000 		.word	.LANCHOR0
 396 005c 00240140 		.word	1073816576
 397 0060 00100240 		.word	1073876992
 398 0064 00000000 		.word	_stm32_dma_streams
 399              		.cfi_endproc
ARM GAS  /var/folders/6q/x_mk5n_j3p7_c40r_2k_78980000gn/T//ccCxRUFN.s 			page 8


 400              	.LFE64:
 401              		.size	adc_lld_init, .-adc_lld_init
 402              		.section	.text.adc_lld_start,"ax",%progbits
 403              		.align	2
 404              		.p2align 4,,15
 405              		.global	adc_lld_start
 406              		.thumb
 407              		.thumb_func
 408              		.type	adc_lld_start, %function
 409              	adc_lld_start:
 410              	.LFB65:
 411              		.loc 1 130 0
 412              		.cfi_startproc
 413              		@ args = 0, pretend = 0, frame = 0
 414              		@ frame_needed = 0, uses_anonymous_args = 0
 415              	.LVL24:
 416              		.loc 1 133 0
 417 0000 0378     		ldrb	r3, [r0]	@ zero_extendqisi2
 418 0002 012B     		cmp	r3, #1
 419 0004 00D0     		beq	.L48
 420 0006 7047     		bx	lr
 421              	.L48:
 422              		.loc 1 135 0
 423 0008 0C4B     		ldr	r3, .L50
 424              		.loc 1 130 0
 425 000a 10B5     		push	{r4, lr}
 426              		.cfi_def_cfa_offset 8
 427              		.cfi_offset 4, -8
 428              		.cfi_offset 14, -4
 429              		.loc 1 135 0
 430 000c 9842     		cmp	r0, r3
 431 000e 0446     		mov	r4, r0
 432 0010 04D0     		beq	.L49
 433              	.LVL25:
 434              	.L45:
 435              		.loc 1 149 0
 436 0012 A36A     		ldr	r3, [r4, #40]
 437 0014 0022     		movs	r2, #0
 438 0016 5A60     		str	r2, [r3, #4]
 439              		.loc 1 150 0
 440 0018 9A60     		str	r2, [r3, #8]
 441 001a 10BD     		pop	{r4, pc}
 442              	.LVL26:
 443              	.L49:
 444              	.LBB30:
 445              		.loc 1 137 0
 446 001c 0346     		mov	r3, r0
 447 001e 084A     		ldr	r2, .L50+4
 448 0020 0521     		movs	r1, #5
 449 0022 C06A     		ldr	r0, [r0, #44]
 450              	.LVL27:
 451 0024 FFF7FEFF 		bl	dmaStreamAllocate
 452              	.LVL28:
 453              		.loc 1 142 0
 454 0028 E36A     		ldr	r3, [r4, #44]
 455 002a 0649     		ldr	r1, .L50+8
 456 002c 1B68     		ldr	r3, [r3]
ARM GAS  /var/folders/6q/x_mk5n_j3p7_c40r_2k_78980000gn/T//ccCxRUFN.s 			page 9


 457              		.loc 1 143 0
 458 002e 064A     		ldr	r2, .L50+12
 459              		.loc 1 142 0
 460 0030 9960     		str	r1, [r3, #8]
 461              		.loc 1 143 0
 462 0032 9369     		ldr	r3, [r2, #24]
 463 0034 43F40073 		orr	r3, r3, #512
 464 0038 9361     		str	r3, [r2, #24]
 465 003a EAE7     		b	.L45
 466              	.L51:
 467              		.align	2
 468              	.L50:
 469 003c 00000000 		.word	.LANCHOR0
 470 0040 00000000 		.word	adc_lld_serve_rx_interrupt
 471 0044 4C240140 		.word	1073816652
 472 0048 00100240 		.word	1073876992
 473              	.LBE30:
 474              		.cfi_endproc
 475              	.LFE65:
 476              		.size	adc_lld_start, .-adc_lld_start
 477              		.section	.text.adc_lld_stop,"ax",%progbits
 478              		.align	2
 479              		.p2align 4,,15
 480              		.global	adc_lld_stop
 481              		.thumb
 482              		.thumb_func
 483              		.type	adc_lld_stop, %function
 484              	adc_lld_stop:
 485              	.LFB66:
 486              		.loc 1 161 0
 487              		.cfi_startproc
 488              		@ args = 0, pretend = 0, frame = 0
 489              		@ frame_needed = 0, uses_anonymous_args = 0
 490              	.LVL29:
 491 0000 08B5     		push	{r3, lr}
 492              		.cfi_def_cfa_offset 8
 493              		.cfi_offset 3, -8
 494              		.cfi_offset 14, -4
 495              		.loc 1 164 0
 496 0002 0378     		ldrb	r3, [r0]	@ zero_extendqisi2
 497 0004 022B     		cmp	r3, #2
 498 0006 00D0     		beq	.L55
 499              	.LVL30:
 500              	.L52:
 501 0008 08BD     		pop	{r3, pc}
 502              	.LVL31:
 503              	.L55:
 504              		.loc 1 166 0
 505 000a 084B     		ldr	r3, .L56
 506 000c 9842     		cmp	r0, r3
 507 000e FBD1     		bne	.L52
 508              		.loc 1 167 0
 509 0010 074B     		ldr	r3, .L56+4
 510 0012 0022     		movs	r2, #0
 511              		.loc 1 169 0
 512 0014 C06A     		ldr	r0, [r0, #44]
 513              	.LVL32:
ARM GAS  /var/folders/6q/x_mk5n_j3p7_c40r_2k_78980000gn/T//ccCxRUFN.s 			page 10


 514              		.loc 1 167 0
 515 0016 5A60     		str	r2, [r3, #4]
 516              		.loc 1 168 0
 517 0018 9A60     		str	r2, [r3, #8]
 518              		.loc 1 169 0
 519 001a FFF7FEFF 		bl	dmaStreamRelease
 520              	.LVL33:
 521              		.loc 1 170 0
 522 001e 054A     		ldr	r2, .L56+8
 523 0020 9369     		ldr	r3, [r2, #24]
 524 0022 23F40073 		bic	r3, r3, #512
 525 0026 9361     		str	r3, [r2, #24]
 526              		.loc 1 174 0
 527 0028 EEE7     		b	.L52
 528              	.L57:
 529 002a 00BF     		.align	2
 530              	.L56:
 531 002c 00000000 		.word	.LANCHOR0
 532 0030 00240140 		.word	1073816576
 533 0034 00100240 		.word	1073876992
 534              		.cfi_endproc
 535              	.LFE66:
 536              		.size	adc_lld_stop, .-adc_lld_stop
 537              		.section	.text.adc_lld_start_conversion,"ax",%progbits
 538              		.align	2
 539              		.p2align 4,,15
 540              		.global	adc_lld_start_conversion
 541              		.thumb
 542              		.thumb_func
 543              		.type	adc_lld_start_conversion, %function
 544              	adc_lld_start_conversion:
 545              	.LFB67:
 546              		.loc 1 183 0
 547              		.cfi_startproc
 548              		@ args = 0, pretend = 0, frame = 0
 549              		@ frame_needed = 0, uses_anonymous_args = 0
 550              		@ link register save eliminated.
 551              	.LVL34:
 552              		.loc 1 185 0
 553 0000 0369     		ldr	r3, [r0, #16]
 554              	.LVL35:
 555              		.loc 1 183 0
 556 0002 F0B4     		push	{r4, r5, r6, r7}
 557              		.cfi_def_cfa_offset 16
 558              		.cfi_offset 4, -16
 559              		.cfi_offset 5, -12
 560              		.cfi_offset 6, -8
 561              		.cfi_offset 7, -4
 562              		.loc 1 189 0
 563 0004 1A78     		ldrb	r2, [r3]	@ zero_extendqisi2
 564              		.loc 1 188 0
 565 0006 016B     		ldr	r1, [r0, #48]
 566              	.LVL36:
 567              		.loc 1 189 0
 568 0008 002A     		cmp	r2, #0
 569 000a 2BD1     		bne	.L59
 570 000c C268     		ldr	r2, [r0, #12]
ARM GAS  /var/folders/6q/x_mk5n_j3p7_c40r_2k_78980000gn/T//ccCxRUFN.s 			page 11


 571              	.L60:
 572              		.loc 1 198 0
 573 000e 5D88     		ldrh	r5, [r3, #2]
 574              		.loc 1 197 0
 575 0010 C46A     		ldr	r4, [r0, #44]
 576              		.loc 1 198 0
 577 0012 02FB05F2 		mul	r2, r2, r5
 578              		.loc 1 197 0
 579 0016 2468     		ldr	r4, [r4]
 580 0018 8668     		ldr	r6, [r0, #8]
 581              		.loc 1 204 0
 582 001a DD68     		ldr	r5, [r3, #12]
 583              		.loc 1 197 0
 584 001c E660     		str	r6, [r4, #12]
 585              		.loc 1 198 0
 586 001e 6260     		str	r2, [r4, #4]
 587              		.loc 1 200 0
 588 0020 2160     		str	r1, [r4]
 589              		.loc 1 201 0
 590 0022 2668     		ldr	r6, [r4]
 591              		.loc 1 205 0
 592 0024 1969     		ldr	r1, [r3, #16]
 593              	.LVL37:
 594              		.loc 1 204 0
 595 0026 826A     		ldr	r2, [r0, #40]
 596              		.loc 1 206 0
 597 0028 11F4841F 		tst	r1, #1081344
 598              		.loc 1 204 0
 599 002c 45F48070 		orr	r0, r5, #256
 600              	.LVL38:
 601              		.loc 1 201 0
 602 0030 46F00106 		orr	r6, r6, #1
 603 0034 2660     		str	r6, [r4]
 604              	.LVL39:
 605              		.loc 1 204 0
 606 0036 5060     		str	r0, [r2, #4]
 607              		.loc 1 205 0
 608 0038 14BF     		ite	ne
 609 003a 41F48070 		orrne	r0, r1, #256
 610              		.loc 1 207 0
 611 003e 41F48170 		orreq	r0, r1, #258
 612              		.loc 1 209 0
 613 0042 5F69     		ldr	r7, [r3, #20]
 614              		.loc 1 210 0
 615 0044 9E69     		ldr	r6, [r3, #24]
 616              		.loc 1 211 0
 617 0046 DD69     		ldr	r5, [r3, #28]
 618              		.loc 1 212 0
 619 0048 1C6A     		ldr	r4, [r3, #32]
 620              		.loc 1 207 0
 621 004a 40F00100 		orr	r0, r0, #1
 622              	.LVL40:
 623              		.loc 1 213 0
 624 004e 5B6A     		ldr	r3, [r3, #36]
 625              	.LVL41:
 626              		.loc 1 208 0
 627 0050 0143     		orrs	r1, r1, r0
ARM GAS  /var/folders/6q/x_mk5n_j3p7_c40r_2k_78980000gn/T//ccCxRUFN.s 			page 12


 628 0052 9160     		str	r1, [r2, #8]
 629              		.loc 1 209 0
 630 0054 D760     		str	r7, [r2, #12]
 631              		.loc 1 210 0
 632 0056 1661     		str	r6, [r2, #16]
 633              		.loc 1 211 0
 634 0058 D562     		str	r5, [r2, #44]
 635              		.loc 1 212 0
 636 005a 1463     		str	r4, [r2, #48]
 637              		.loc 1 213 0
 638 005c 5363     		str	r3, [r2, #52]
 639              		.loc 1 217 0
 640 005e F0BC     		pop	{r4, r5, r6, r7}
 641              		.cfi_remember_state
 642              		.cfi_restore 7
 643              		.cfi_restore 6
 644              		.cfi_restore 5
 645              		.cfi_restore 4
 646              		.cfi_def_cfa_offset 0
 647              		.loc 1 216 0
 648 0060 9060     		str	r0, [r2, #8]
 649              		.loc 1 217 0
 650 0062 7047     		bx	lr
 651              	.LVL42:
 652              	.L59:
 653              		.cfi_restore_state
 654              		.loc 1 191 0
 655 0064 C268     		ldr	r2, [r0, #12]
 656 0066 012A     		cmp	r2, #1
 657              		.loc 1 190 0
 658 0068 94BF     		ite	ls
 659 006a 41F02001 		orrls	r1, r1, #32
 660              	.LVL43:
 661              		.loc 1 194 0
 662 006e 41F02401 		orrhi	r1, r1, #36
 663              	.LVL44:
 664 0072 CCE7     		b	.L60
 665              		.cfi_endproc
 666              	.LFE67:
 667              		.size	adc_lld_start_conversion, .-adc_lld_start_conversion
 668              		.section	.text.adc_lld_stop_conversion,"ax",%progbits
 669              		.align	2
 670              		.p2align 4,,15
 671              		.global	adc_lld_stop_conversion
 672              		.thumb
 673              		.thumb_func
 674              		.type	adc_lld_stop_conversion, %function
 675              	adc_lld_stop_conversion:
 676              	.LFB68:
 677              		.loc 1 226 0
 678              		.cfi_startproc
 679              		@ args = 0, pretend = 0, frame = 0
 680              		@ frame_needed = 0, uses_anonymous_args = 0
 681              		@ link register save eliminated.
 682              	.LVL45:
 683              		.loc 1 228 0
 684 0000 C26A     		ldr	r2, [r0, #44]
ARM GAS  /var/folders/6q/x_mk5n_j3p7_c40r_2k_78980000gn/T//ccCxRUFN.s 			page 13


 685              		.loc 1 226 0
 686 0002 30B4     		push	{r4, r5}
 687              		.cfi_def_cfa_offset 8
 688              		.cfi_offset 4, -8
 689              		.cfi_offset 5, -4
 690              		.loc 1 229 0
 691 0004 846A     		ldr	r4, [r0, #40]
 692              		.loc 1 228 0
 693 0006 92E82100 		ldmia	r2, {r0, r5}
 694              	.LVL46:
 695 000a 0168     		ldr	r1, [r0]
 696 000c 0F23     		movs	r3, #15
 697 000e 21F00F01 		bic	r1, r1, #15
 698 0012 0160     		str	r1, [r0]
 699 0014 117A     		ldrb	r1, [r2, #8]	@ zero_extendqisi2
 700              		.loc 1 229 0
 701 0016 0022     		movs	r2, #0
 702              		.loc 1 228 0
 703 0018 8B40     		lsls	r3, r3, r1
 704 001a 2B60     		str	r3, [r5]
 705              		.loc 1 229 0
 706 001c A260     		str	r2, [r4, #8]
 707              		.loc 1 230 0
 708 001e 30BC     		pop	{r4, r5}
 709              		.cfi_restore 5
 710              		.cfi_restore 4
 711              		.cfi_def_cfa_offset 0
 712 0020 7047     		bx	lr
 713              		.cfi_endproc
 714              	.LFE68:
 715              		.size	adc_lld_stop_conversion, .-adc_lld_stop_conversion
 716              		.global	ADCD1
 717 0022 00BF     		.section	.bss.ADCD1,"aw",%nobits
 718              		.align	2
 719              		.set	.LANCHOR0,. + 0
 720              		.type	ADCD1, %object
 721              		.size	ADCD1, 52
 722              	ADCD1:
 723 0000 00000000 		.space	52
 723      00000000 
 723      00000000 
 723      00000000 
 723      00000000 
 724              		.text
 725              	.Letext0:
 726              		.file 2 "/Users/Luca/src/vexilla/src/gcc-arm-none-eabi-5_4-2016q3/lib/gcc/arm-none-eabi/5.4.1/incl
 727              		.file 3 "/Users/Luca/src/vexilla/src/gcc-arm-none-eabi-5_4-2016q3/arm-none-eabi/include/machine/_d
 728              		.file 4 "/Users/Luca/src/vexilla/src/gcc-arm-none-eabi-5_4-2016q3/arm-none-eabi/include/sys/_stdin
 729              		.file 5 "../ChibiOS/os/ports/GCC/ARMCMx/chtypes.h"
 730              		.file 6 "../ChibiOS/os/kernel/include/chlists.h"
 731              		.file 7 "../ChibiOS/os/kernel/include/chthreads.h"
 732              		.file 8 "../ChibiOS/os/ports/GCC/ARMCMx/chcore_v7m.h"
 733              		.file 9 "../ChibiOS/os/kernel/include/chmtx.h"
 734              		.file 10 "../ChibiOS/os/hal/platforms/STM32F1xx/stm32f10x.h"
 735              		.file 11 "../ChibiOS/os/hal/platforms/STM32F1xx/stm32_dma.h"
 736              		.file 12 "../ChibiOS/os/hal/include/adc.h"
 737              		.file 13 "../ChibiOS/os/hal/platforms/STM32F1xx/adc_lld.h"
ARM GAS  /var/folders/6q/x_mk5n_j3p7_c40r_2k_78980000gn/T//ccCxRUFN.s 			page 14


 738              		.file 14 "../ChibiOS/os/ports/common/ARMCMx/CMSIS/include/core_cm3.h"
 739              		.file 15 "../ChibiOS/os/kernel/include/chschd.h"