ARM GAS  /var/folders/6q/x_mk5n_j3p7_c40r_2k_78980000gn/T//cc1NseUK.s 			page 1


   1              		.syntax unified
   2              		.cpu cortex-m3
   3              		.fpu softvfp
   4              		.eabi_attribute 20, 1
   5              		.eabi_attribute 21, 1
   6              		.eabi_attribute 23, 3
   7              		.eabi_attribute 24, 1
   8              		.eabi_attribute 25, 1
   9              		.eabi_attribute 26, 1
  10              		.eabi_attribute 30, 2
  11              		.eabi_attribute 34, 1
  12              		.eabi_attribute 18, 4
  13              		.thumb
  14              		.syntax unified
  15              		.file	"apollo.c"
  16              		.text
  17              	.Ltext0:
  18              		.cfi_sections	.debug_frame
  19              		.section	.text.apolloPut,"ax",%progbits
  20              		.align	2
  21              		.p2align 4,,15
  22              		.thumb
  23              		.thumb_func
  24              		.type	apolloPut, %function
  25              	apolloPut:
  26              	.LFB64:
  27              		.file 1 "../convex-vexilla/cortex/opt/apollo.c"
  28              		.loc 1 83 0
  29              		.cfi_startproc
  30              		@ args = 0, pretend = 0, frame = 0
  31              		@ frame_needed = 0, uses_anonymous_args = 0
  32              	.LVL0:
  33 0000 08B5     		push	{r3, lr}
  34              		.cfi_def_cfa_offset 8
  35              		.cfi_offset 3, -8
  36              		.cfi_offset 14, -4
  37              		.loc 1 87 0
  38 0002 0146     		mov	r1, r0
  39 0004 4FF0FF32 		mov	r2, #-1
  40 0008 0848     		ldr	r0, .L7
  41              	.LVL1:
  42 000a FFF7FEFF 		bl	chOQPutTimeout
  43              	.LVL2:
  44              		.loc 1 90 0
  45 000e 084A     		ldr	r2, .L7+4
  46 0010 1368     		ldr	r3, [r2]
  47 0012 0133     		adds	r3, r3, #1
  48 0014 202B     		cmp	r3, #32
  49 0016 01D0     		beq	.L2
  50 0018 1360     		str	r3, [r2]
  51 001a 08BD     		pop	{r3, pc}
  52              	.L2:
  53              	.LVL3:
  54              	.LBB148:
  55              	.LBB149:
  56              		.loc 1 92 0
  57 001c 0023     		movs	r3, #0
ARM GAS  /var/folders/6q/x_mk5n_j3p7_c40r_2k_78980000gn/T//cc1NseUK.s 			page 2


  58 001e 1360     		str	r3, [r2]
  59              		.loc 1 93 0
  60 0020 0820     		movs	r0, #8
  61              	.LBE149:
  62              	.LBE148:
  63              		.loc 1 95 0
  64 0022 BDE80840 		pop	{r3, lr}
  65              		.cfi_restore 14
  66              		.cfi_restore 3
  67              		.cfi_def_cfa_offset 0
  68              	.LBB151:
  69              	.LBB150:
  70              		.loc 1 93 0
  71 0026 FFF7FEBF 		b	chThdSleep
  72              	.LVL4:
  73              	.L8:
  74 002a 00BF     		.align	2
  75              	.L7:
  76 002c 30000000 		.word	SD1+48
  77 0030 00000000 		.word	.LANCHOR0
  78              	.LBE150:
  79              	.LBE151:
  80              		.cfi_endproc
  81              	.LFE64:
  82              		.size	apolloPut, .-apolloPut
  83              		.section	.text.vt100_printf,"ax",%progbits
  84              		.align	2
  85              		.p2align 4,,15
  86              		.thumb
  87              		.thumb_func
  88              		.type	vt100_printf, %function
  89              	vt100_printf:
  90              	.LFB65:
  91              		.loc 1 109 0
  92              		.cfi_startproc
  93              		@ args = 4, pretend = 16, frame = 8
  94              		@ frame_needed = 0, uses_anonymous_args = 1
  95              	.LVL5:
  96 0000 0FB4     		push	{r0, r1, r2, r3}
  97              		.cfi_def_cfa_offset 16
  98              		.cfi_offset 0, -16
  99              		.cfi_offset 1, -12
 100              		.cfi_offset 2, -8
 101              		.cfi_offset 3, -4
 102 0002 30B5     		push	{r4, r5, lr}
 103              		.cfi_def_cfa_offset 28
 104              		.cfi_offset 4, -28
 105              		.cfi_offset 5, -24
 106              		.cfi_offset 14, -20
 107 0004 83B0     		sub	sp, sp, #12
 108              		.cfi_def_cfa_offset 40
 109              		.loc 1 109 0
 110 0006 06AD     		add	r5, sp, #24
 111 0008 55F8042B 		ldr	r2, [r5], #4
 112 000c 0A4C     		ldr	r4, .L15
 113              		.loc 1 117 0
 114 000e 2B46     		mov	r3, r5
ARM GAS  /var/folders/6q/x_mk5n_j3p7_c40r_2k_78980000gn/T//cc1NseUK.s 			page 3


 115 0010 4021     		movs	r1, #64
 116 0012 601C     		adds	r0, r4, #1
 117              		.loc 1 115 0
 118 0014 0195     		str	r5, [sp, #4]
 119 0016 6518     		adds	r5, r4, r1
 120              		.loc 1 117 0
 121 0018 FFF7FEFF 		bl	vex_vsnprintf
 122              	.LVL6:
 123 001c 03E0     		b	.L10
 124              	.LVL7:
 125              	.L11:
 126              		.loc 1 120 0 discriminator 4
 127 001e FFF7FEFF 		bl	apolloPut
 128              	.LVL8:
 129              		.loc 1 119 0 discriminator 4
 130 0022 AC42     		cmp	r4, r5
 131 0024 03D0     		beq	.L9
 132              	.LVL9:
 133              	.L10:
 134              		.loc 1 119 0 is_stmt 0 discriminator 3
 135 0026 14F8010F 		ldrb	r0, [r4, #1]!	@ zero_extendqisi2
 136              	.LVL10:
 137 002a 0028     		cmp	r0, #0
 138 002c F7D1     		bne	.L11
 139              	.LVL11:
 140              	.L9:
 141              		.loc 1 123 0 is_stmt 1
 142 002e 03B0     		add	sp, sp, #12
 143              		.cfi_def_cfa_offset 28
 144              		@ sp needed
 145 0030 BDE83040 		pop	{r4, r5, lr}
 146              		.cfi_restore 14
 147              		.cfi_restore 5
 148              		.cfi_restore 4
 149              		.cfi_def_cfa_offset 16
 150 0034 04B0     		add	sp, sp, #16
 151              		.cfi_restore 3
 152              		.cfi_restore 2
 153              		.cfi_restore 1
 154              		.cfi_restore 0
 155              		.cfi_def_cfa_offset 0
 156 0036 7047     		bx	lr
 157              	.L16:
 158              		.align	2
 159              	.L15:
 160 0038 FFFFFFFF 		.word	.LANCHOR1-1
 161              		.cfi_endproc
 162              	.LFE65:
 163              		.size	vt100_printf, .-vt100_printf
 164              		.section	.text.vt100_drawbox,"ax",%progbits
 165              		.align	2
 166              		.p2align 4,,15
 167              		.global	vt100_drawbox
 168              		.thumb
 169              		.thumb_func
 170              		.type	vt100_drawbox, %function
 171              	vt100_drawbox:
ARM GAS  /var/folders/6q/x_mk5n_j3p7_c40r_2k_78980000gn/T//cc1NseUK.s 			page 4


 172              	.LFB73:
 173              		.loc 1 180 0
 174              		.cfi_startproc
 175              		@ args = 0, pretend = 0, frame = 0
 176              		@ frame_needed = 0, uses_anonymous_args = 0
 177              	.LVL12:
 178 0000 2DE9F84F 		push	{r3, r4, r5, r6, r7, r8, r9, r10, fp, lr}
 179              		.cfi_def_cfa_offset 40
 180              		.cfi_offset 3, -40
 181              		.cfi_offset 4, -36
 182              		.cfi_offset 5, -32
 183              		.cfi_offset 6, -28
 184              		.cfi_offset 7, -24
 185              		.cfi_offset 8, -20
 186              		.cfi_offset 9, -16
 187              		.cfi_offset 10, -12
 188              		.cfi_offset 11, -8
 189              		.cfi_offset 14, -4
 190              		.loc 1 180 0
 191 0004 8146     		mov	r9, r0
 192 0006 1746     		mov	r7, r2
 193              	.LBB152:
 194              	.LBB153:
 195              		.loc 1 163 0
 196 0008 3448     		ldr	r0, .L39
 197              	.LVL13:
 198 000a 4A46     		mov	r2, r9
 199              	.LVL14:
 200              	.LBE153:
 201              	.LBE152:
 202              		.loc 1 180 0
 203 000c 9A46     		mov	r10, r3
 204 000e 8846     		mov	r8, r1
 205              	.LVL15:
 206              		.loc 1 186 0
 207 0010 BE1E     		subs	r6, r7, #2
 208              	.LBB155:
 209              	.LBB154:
 210              		.loc 1 163 0
 211 0012 FFF7FEFF 		bl	vt100_printf
 212              	.LVL16:
 213              	.LBE154:
 214              	.LBE155:
 215              		.loc 1 185 0
 216 0016 6C20     		movs	r0, #108
 217 0018 FFF7FEFF 		bl	apolloPut
 218              	.LVL17:
 219              		.loc 1 186 0
 220 001c 002E     		cmp	r6, #0
 221 001e 3EDD     		ble	.L18
 222              		.loc 1 186 0 is_stmt 0 discriminator 3
 223 0020 0024     		movs	r4, #0
 224              	.LVL18:
 225              	.L19:
 226 0022 0134     		adds	r4, r4, #1
 227              	.LVL19:
 228              		.loc 1 187 0 is_stmt 1 discriminator 3
ARM GAS  /var/folders/6q/x_mk5n_j3p7_c40r_2k_78980000gn/T//cc1NseUK.s 			page 5


 229 0024 7120     		movs	r0, #113
 230 0026 FFF7FEFF 		bl	apolloPut
 231              	.LVL20:
 232              		.loc 1 186 0 discriminator 3
 233 002a B442     		cmp	r4, r6
 234 002c F9D1     		bne	.L19
 235              		.loc 1 188 0
 236 002e 6B20     		movs	r0, #107
 237              		.loc 1 191 0
 238 0030 0AF1FF3B 		add	fp, r10, #-1
 239              		.loc 1 188 0
 240 0034 FFF7FEFF 		bl	apolloPut
 241              	.LVL21:
 242              		.loc 1 191 0
 243 0038 BBF1010F 		cmp	fp, #1
 244 003c 42DD     		ble	.L38
 245              	.L26:
 246 003e 4F44     		add	r7, r7, r9
 247              	.LVL22:
 248 0040 013F     		subs	r7, r7, #1
 249              		.loc 1 186 0 discriminator 3
 250 0042 0124     		movs	r4, #1
 251              	.LVL23:
 252              	.L21:
 253 0044 04EB0805 		add	r5, r4, r8
 254              	.LVL24:
 255              	.LBB156:
 256              	.LBB157:
 257              		.loc 1 163 0 discriminator 3
 258 0048 2946     		mov	r1, r5
 259 004a 4A46     		mov	r2, r9
 260 004c 2348     		ldr	r0, .L39
 261 004e FFF7FEFF 		bl	vt100_printf
 262              	.LVL25:
 263              	.LBE157:
 264              	.LBE156:
 265              		.loc 1 193 0 discriminator 3
 266 0052 7820     		movs	r0, #120
 267 0054 FFF7FEFF 		bl	apolloPut
 268              	.LVL26:
 269              	.LBB158:
 270              	.LBB159:
 271              		.loc 1 163 0 discriminator 3
 272 0058 3A46     		mov	r2, r7
 273 005a 2946     		mov	r1, r5
 274 005c 1F48     		ldr	r0, .L39
 275 005e FFF7FEFF 		bl	vt100_printf
 276              	.LVL27:
 277              	.LBE159:
 278              	.LBE158:
 279              		.loc 1 191 0 discriminator 3
 280 0062 0134     		adds	r4, r4, #1
 281              	.LVL28:
 282              		.loc 1 196 0 discriminator 3
 283 0064 7820     		movs	r0, #120
 284 0066 FFF7FEFF 		bl	apolloPut
 285              	.LVL29:
ARM GAS  /var/folders/6q/x_mk5n_j3p7_c40r_2k_78980000gn/T//cc1NseUK.s 			page 6


 286              		.loc 1 191 0 discriminator 3
 287 006a 5C45     		cmp	r4, fp
 288 006c EADB     		blt	.L21
 289              	.LVL30:
 290              	.LBB160:
 291              	.LBB161:
 292              		.loc 1 163 0
 293 006e 08EB0A01 		add	r1, r8, r10
 294 0072 0139     		subs	r1, r1, #1
 295              	.LVL31:
 296 0074 4A46     		mov	r2, r9
 297 0076 1948     		ldr	r0, .L39
 298 0078 FFF7FEFF 		bl	vt100_printf
 299              	.LVL32:
 300              	.LBE161:
 301              	.LBE160:
 302              		.loc 1 201 0
 303 007c 6D20     		movs	r0, #109
 304 007e FFF7FEFF 		bl	apolloPut
 305              	.LVL33:
 306              		.loc 1 202 0
 307 0082 002E     		cmp	r6, #0
 308 0084 06DD     		ble	.L23
 309              	.L22:
 310              		.loc 1 186 0 discriminator 3
 311 0086 0024     		movs	r4, #0
 312              	.LVL34:
 313              	.L24:
 314              		.loc 1 202 0 discriminator 3
 315 0088 0134     		adds	r4, r4, #1
 316              	.LVL35:
 317              		.loc 1 203 0 discriminator 3
 318 008a 7120     		movs	r0, #113
 319 008c FFF7FEFF 		bl	apolloPut
 320              	.LVL36:
 321              		.loc 1 202 0 discriminator 3
 322 0090 B442     		cmp	r4, r6
 323 0092 F9DB     		blt	.L24
 324              	.LVL37:
 325              	.L23:
 326              		.loc 1 204 0
 327 0094 6A20     		movs	r0, #106
 328              		.loc 1 205 0
 329 0096 BDE8F84F 		pop	{r3, r4, r5, r6, r7, r8, r9, r10, fp, lr}
 330              		.cfi_remember_state
 331              		.cfi_restore 14
 332              		.cfi_restore 11
 333              		.cfi_restore 10
 334              		.cfi_restore 9
 335              		.cfi_restore 8
 336              		.cfi_restore 7
 337              		.cfi_restore 6
 338              		.cfi_restore 5
 339              		.cfi_restore 4
 340              		.cfi_restore 3
 341              		.cfi_def_cfa_offset 0
 342              	.LVL38:
ARM GAS  /var/folders/6q/x_mk5n_j3p7_c40r_2k_78980000gn/T//cc1NseUK.s 			page 7


 343              		.loc 1 204 0
 344 009a FFF7FEBF 		b	apolloPut
 345              	.LVL39:
 346              	.L18:
 347              		.cfi_restore_state
 348              		.loc 1 188 0
 349 009e 6B20     		movs	r0, #107
 350              		.loc 1 191 0
 351 00a0 0AF1FF3B 		add	fp, r10, #-1
 352              		.loc 1 188 0
 353 00a4 FFF7FEFF 		bl	apolloPut
 354              	.LVL40:
 355              		.loc 1 191 0
 356 00a8 BBF1010F 		cmp	fp, #1
 357 00ac C7DC     		bgt	.L26
 358              	.LVL41:
 359              	.LBB164:
 360              	.LBB162:
 361              		.loc 1 163 0
 362 00ae 08EB0A01 		add	r1, r8, r10
 363 00b2 0139     		subs	r1, r1, #1
 364              	.LVL42:
 365 00b4 4A46     		mov	r2, r9
 366 00b6 0948     		ldr	r0, .L39
 367 00b8 FFF7FEFF 		bl	vt100_printf
 368              	.LVL43:
 369              	.LBE162:
 370              	.LBE164:
 371              		.loc 1 201 0
 372 00bc 6D20     		movs	r0, #109
 373 00be FFF7FEFF 		bl	apolloPut
 374              	.LVL44:
 375 00c2 E7E7     		b	.L23
 376              	.LVL45:
 377              	.L38:
 378              	.LBB165:
 379              	.LBB163:
 380              		.loc 1 163 0
 381 00c4 08EB0A01 		add	r1, r8, r10
 382 00c8 0139     		subs	r1, r1, #1
 383              	.LVL46:
 384 00ca 4A46     		mov	r2, r9
 385 00cc 0348     		ldr	r0, .L39
 386 00ce FFF7FEFF 		bl	vt100_printf
 387              	.LVL47:
 388              	.LBE163:
 389              	.LBE165:
 390              		.loc 1 201 0
 391 00d2 6D20     		movs	r0, #109
 392 00d4 FFF7FEFF 		bl	apolloPut
 393              	.LVL48:
 394 00d8 D5E7     		b	.L22
 395              	.L40:
 396 00da 00BF     		.align	2
 397              	.L39:
 398 00dc 00000000 		.word	.LC0
 399              		.cfi_endproc
ARM GAS  /var/folders/6q/x_mk5n_j3p7_c40r_2k_78980000gn/T//cc1NseUK.s 			page 8


 400              	.LFE73:
 401              		.size	vt100_drawbox, .-vt100_drawbox
 402              		.section	.text.apolloScreenSetup,"ax",%progbits
 403              		.align	2
 404              		.p2align 4,,15
 405              		.global	apolloScreenSetup
 406              		.thumb
 407              		.thumb_func
 408              		.type	apolloScreenSetup, %function
 409              	apolloScreenSetup:
 410              	.LFB74:
 411              		.loc 1 219 0
 412              		.cfi_startproc
 413              		@ args = 0, pretend = 0, frame = 0
 414              		@ frame_needed = 0, uses_anonymous_args = 0
 415              		.loc 1 221 0
 416 0000 0121     		movs	r1, #1
 417              		.loc 1 219 0
 418 0002 10B5     		push	{r4, lr}
 419              		.cfi_def_cfa_offset 8
 420              		.cfi_offset 4, -8
 421              		.cfi_offset 14, -4
 422              		.loc 1 221 0
 423 0004 0846     		mov	r0, r1
 424 0006 1823     		movs	r3, #24
 425 0008 5022     		movs	r2, #80
 426 000a FFF7FEFF 		bl	vt100_drawbox
 427              	.LVL49:
 428              		.loc 1 224 0
 429 000e 0121     		movs	r1, #1
 430 0010 0846     		mov	r0, r1
 431 0012 0F23     		movs	r3, #15
 432 0014 2922     		movs	r2, #41
 433              	.LBB166:
 434              	.LBB167:
 435              		.loc 1 163 0
 436 0016 204C     		ldr	r4, .L43
 437              	.LBE167:
 438              	.LBE166:
 439              		.loc 1 224 0
 440 0018 FFF7FEFF 		bl	vt100_drawbox
 441              	.LVL50:
 442              		.loc 1 226 0
 443 001c 0F23     		movs	r3, #15
 444 001e 1522     		movs	r2, #21
 445 0020 0121     		movs	r1, #1
 446 0022 2920     		movs	r0, #41
 447 0024 FFF7FEFF 		bl	vt100_drawbox
 448              	.LVL51:
 449              		.loc 1 228 0
 450 0028 0F23     		movs	r3, #15
 451 002a 1422     		movs	r2, #20
 452 002c 0121     		movs	r1, #1
 453 002e 3D20     		movs	r0, #61
 454 0030 FFF7FEFF 		bl	vt100_drawbox
 455              	.LVL52:
 456              	.LBB169:
ARM GAS  /var/folders/6q/x_mk5n_j3p7_c40r_2k_78980000gn/T//cc1NseUK.s 			page 9


 457              	.LBB168:
 458              		.loc 1 163 0
 459 0034 2046     		mov	r0, r4
 460 0036 0122     		movs	r2, #1
 461 0038 0F21     		movs	r1, #15
 462 003a FFF7FEFF 		bl	vt100_printf
 463              	.LVL53:
 464              	.LBE168:
 465              	.LBE169:
 466              		.loc 1 232 0
 467 003e 7420     		movs	r0, #116
 468 0040 FFF7FEFF 		bl	apolloPut
 469              	.LVL54:
 470              	.LBB170:
 471              	.LBB171:
 472              		.loc 1 163 0
 473 0044 2046     		mov	r0, r4
 474 0046 5022     		movs	r2, #80
 475 0048 0F21     		movs	r1, #15
 476 004a FFF7FEFF 		bl	vt100_printf
 477              	.LVL55:
 478              	.LBE171:
 479              	.LBE170:
 480              		.loc 1 234 0
 481 004e 7520     		movs	r0, #117
 482 0050 FFF7FEFF 		bl	apolloPut
 483              	.LVL56:
 484              	.LBB172:
 485              	.LBB173:
 486              		.loc 1 163 0
 487 0054 2046     		mov	r0, r4
 488 0056 2922     		movs	r2, #41
 489 0058 0121     		movs	r1, #1
 490 005a FFF7FEFF 		bl	vt100_printf
 491              	.LVL57:
 492              	.LBE173:
 493              	.LBE172:
 494              		.loc 1 237 0
 495 005e 7720     		movs	r0, #119
 496 0060 FFF7FEFF 		bl	apolloPut
 497              	.LVL58:
 498              	.LBB174:
 499              	.LBB175:
 500              		.loc 1 163 0
 501 0064 2046     		mov	r0, r4
 502 0066 3D22     		movs	r2, #61
 503 0068 0121     		movs	r1, #1
 504 006a FFF7FEFF 		bl	vt100_printf
 505              	.LVL59:
 506              	.LBE175:
 507              	.LBE174:
 508              		.loc 1 239 0
 509 006e 7720     		movs	r0, #119
 510 0070 FFF7FEFF 		bl	apolloPut
 511              	.LVL60:
 512              	.LBB176:
 513              	.LBB177:
ARM GAS  /var/folders/6q/x_mk5n_j3p7_c40r_2k_78980000gn/T//cc1NseUK.s 			page 10


 514              		.loc 1 163 0
 515 0074 2046     		mov	r0, r4
 516 0076 2922     		movs	r2, #41
 517 0078 0F21     		movs	r1, #15
 518 007a FFF7FEFF 		bl	vt100_printf
 519              	.LVL61:
 520              	.LBE177:
 521              	.LBE176:
 522              		.loc 1 242 0
 523 007e 7620     		movs	r0, #118
 524 0080 FFF7FEFF 		bl	apolloPut
 525              	.LVL62:
 526              	.LBB178:
 527              	.LBB179:
 528              		.loc 1 163 0
 529 0084 2046     		mov	r0, r4
 530 0086 3D22     		movs	r2, #61
 531 0088 0F21     		movs	r1, #15
 532 008a FFF7FEFF 		bl	vt100_printf
 533              	.LVL63:
 534              	.LBE179:
 535              	.LBE178:
 536              		.loc 1 246 0
 537 008e BDE81040 		pop	{r4, lr}
 538              		.cfi_restore 14
 539              		.cfi_restore 4
 540              		.cfi_def_cfa_offset 0
 541              		.loc 1 244 0
 542 0092 7620     		movs	r0, #118
 543 0094 FFF7FEBF 		b	apolloPut
 544              	.LVL64:
 545              	.L44:
 546              		.align	2
 547              	.L43:
 548 0098 00000000 		.word	.LC0
 549              		.cfi_endproc
 550              	.LFE74:
 551              		.size	apolloScreenSetup, .-apolloScreenSetup
 552              		.section	.text.apolloMotorSetup,"ax",%progbits
 553              		.align	2
 554              		.p2align 4,,15
 555              		.global	apolloMotorSetup
 556              		.thumb
 557              		.thumb_func
 558              		.type	apolloMotorSetup, %function
 559              	apolloMotorSetup:
 560              	.LFB75:
 561              		.loc 1 253 0
 562              		.cfi_startproc
 563              		@ args = 0, pretend = 0, frame = 0
 564              		@ frame_needed = 0, uses_anonymous_args = 0
 565              	.LVL65:
 566              	.LBB180:
 567              	.LBB181:
 568              		.loc 1 163 0
 569 0000 0222     		movs	r2, #2
 570              	.LBE181:
ARM GAS  /var/folders/6q/x_mk5n_j3p7_c40r_2k_78980000gn/T//cc1NseUK.s 			page 11


 571              	.LBE180:
 572              		.loc 1 253 0
 573 0002 10B5     		push	{r4, lr}
 574              		.cfi_def_cfa_offset 8
 575              		.cfi_offset 4, -8
 576              		.cfi_offset 14, -4
 577              	.LBB183:
 578              	.LBB182:
 579              		.loc 1 163 0
 580 0004 1146     		mov	r1, r2
 581 0006 1648     		ldr	r0, .L49
 582 0008 FFF7FEFF 		bl	vt100_printf
 583              	.LVL66:
 584              	.LBE182:
 585              	.LBE183:
 586              	.LBB184:
 587              	.LBB185:
 588              		.loc 1 167 0
 589 000c 0721     		movs	r1, #7
 590 000e 1548     		ldr	r0, .L49+4
 591 0010 FFF7FEFF 		bl	vt100_printf
 592              	.LVL67:
 593              	.LBE185:
 594              	.LBE184:
 595              		.loc 1 260 0
 596 0014 1448     		ldr	r0, .L49+8
 597 0016 FFF7FEFF 		bl	vt100_printf
 598              	.LVL68:
 599              	.LBB186:
 600              	.LBB187:
 601              		.loc 1 167 0
 602 001a 0021     		movs	r1, #0
 603 001c 1148     		ldr	r0, .L49+4
 604 001e FFF7FEFF 		bl	vt100_printf
 605              	.LVL69:
 606              	.LBE187:
 607              	.LBE186:
 608              		.loc 1 263 0
 609 0022 0124     		movs	r4, #1
 610              	.LVL70:
 611              	.L46:
 612              	.LBB188:
 613              	.LBB189:
 614              		.loc 1 163 0 discriminator 3
 615 0024 A11C     		adds	r1, r4, #2
 616              	.LVL71:
 617 0026 0322     		movs	r2, #3
 618 0028 0D48     		ldr	r0, .L49
 619 002a FFF7FEFF 		bl	vt100_printf
 620              	.LVL72:
 621              	.LBE189:
 622              	.LBE188:
 623              		.loc 1 265 0 discriminator 3
 624 002e 2146     		mov	r1, r4
 625 0030 0E48     		ldr	r0, .L49+12
 626              		.loc 1 263 0 discriminator 3
 627 0032 0134     		adds	r4, r4, #1
ARM GAS  /var/folders/6q/x_mk5n_j3p7_c40r_2k_78980000gn/T//cc1NseUK.s 			page 12


 628              	.LVL73:
 629              		.loc 1 265 0 discriminator 3
 630 0034 FFF7FEFF 		bl	vt100_printf
 631              	.LVL74:
 632              		.loc 1 263 0 discriminator 3
 633 0038 0B2C     		cmp	r4, #11
 634 003a F3D1     		bne	.L46
 635              	.LVL75:
 636              	.LBB190:
 637              	.LBB191:
 638              		.loc 1 163 0
 639 003c 0322     		movs	r2, #3
 640 003e 0D21     		movs	r1, #13
 641 0040 0748     		ldr	r0, .L49
 642 0042 FFF7FEFF 		bl	vt100_printf
 643              	.LVL76:
 644              	.LBE191:
 645              	.LBE190:
 646              		.loc 1 269 0
 647 0046 0A48     		ldr	r0, .L49+16
 648 0048 FFF7FEFF 		bl	vt100_printf
 649              	.LVL77:
 650              	.LBB192:
 651              	.LBB193:
 652              		.loc 1 163 0
 653 004c 0448     		ldr	r0, .L49
 654 004e 0322     		movs	r2, #3
 655 0050 0E21     		movs	r1, #14
 656 0052 FFF7FEFF 		bl	vt100_printf
 657              	.LVL78:
 658              	.LBE193:
 659              	.LBE192:
 660              		.loc 1 272 0
 661 0056 BDE81040 		pop	{r4, lr}
 662              		.cfi_restore 14
 663              		.cfi_restore 4
 664              		.cfi_def_cfa_offset 0
 665              	.LVL79:
 666              		.loc 1 271 0
 667 005a 0648     		ldr	r0, .L49+20
 668 005c FFF7FEBF 		b	vt100_printf
 669              	.LVL80:
 670              	.L50:
 671              		.align	2
 672              	.L49:
 673 0060 00000000 		.word	.LC0
 674 0064 0C000000 		.word	.LC1
 675 0068 14000000 		.word	.LC2
 676 006c 3C000000 		.word	.LC3
 677 0070 40000000 		.word	.LC4
 678 0074 48000000 		.word	.LC5
 679              		.cfi_endproc
 680              	.LFE75:
 681              		.size	apolloMotorSetup, .-apolloMotorSetup
 682              		.section	.text.apolloDigitalSetup,"ax",%progbits
 683              		.align	2
 684              		.p2align 4,,15
ARM GAS  /var/folders/6q/x_mk5n_j3p7_c40r_2k_78980000gn/T//cc1NseUK.s 			page 13


 685              		.global	apolloDigitalSetup
 686              		.thumb
 687              		.thumb_func
 688              		.type	apolloDigitalSetup, %function
 689              	apolloDigitalSetup:
 690              	.LFB76:
 691              		.loc 1 279 0
 692              		.cfi_startproc
 693              		@ args = 0, pretend = 0, frame = 0
 694              		@ frame_needed = 0, uses_anonymous_args = 0
 695              	.LVL81:
 696 0000 10B5     		push	{r4, lr}
 697              		.cfi_def_cfa_offset 8
 698              		.cfi_offset 4, -8
 699              		.cfi_offset 14, -4
 700              	.LBB194:
 701              	.LBB195:
 702              		.loc 1 163 0
 703 0002 2A22     		movs	r2, #42
 704 0004 0221     		movs	r1, #2
 705 0006 1048     		ldr	r0, .L55
 706 0008 FFF7FEFF 		bl	vt100_printf
 707              	.LVL82:
 708              	.LBE195:
 709              	.LBE194:
 710              	.LBB196:
 711              	.LBB197:
 712              		.loc 1 167 0
 713 000c 0721     		movs	r1, #7
 714 000e 0F48     		ldr	r0, .L55+4
 715 0010 FFF7FEFF 		bl	vt100_printf
 716              	.LVL83:
 717              	.LBE197:
 718              	.LBE196:
 719              		.loc 1 286 0
 720 0014 0E48     		ldr	r0, .L55+8
 721 0016 FFF7FEFF 		bl	vt100_printf
 722              	.LVL84:
 723              	.LBB198:
 724              	.LBB199:
 725              		.loc 1 167 0
 726 001a 0021     		movs	r1, #0
 727 001c 0B48     		ldr	r0, .L55+4
 728 001e FFF7FEFF 		bl	vt100_printf
 729              	.LVL85:
 730              	.LBE199:
 731              	.LBE198:
 732              		.loc 1 289 0
 733 0022 0124     		movs	r4, #1
 734              	.LVL86:
 735              	.L52:
 736              	.LBB200:
 737              	.LBB201:
 738              		.loc 1 163 0 discriminator 3
 739 0024 A11C     		adds	r1, r4, #2
 740              	.LVL87:
 741 0026 2B22     		movs	r2, #43
ARM GAS  /var/folders/6q/x_mk5n_j3p7_c40r_2k_78980000gn/T//cc1NseUK.s 			page 14


 742 0028 0748     		ldr	r0, .L55
 743 002a FFF7FEFF 		bl	vt100_printf
 744              	.LVL88:
 745              	.LBE201:
 746              	.LBE200:
 747              		.loc 1 291 0 discriminator 3
 748 002e 601E     		subs	r0, r4, #1
 749 0030 40B2     		sxtb	r0, r0
 750 0032 FFF7FEFF 		bl	vexDigitalTypeGetName
 751              	.LVL89:
 752 0036 2146     		mov	r1, r4
 753 0038 0246     		mov	r2, r0
 754              		.loc 1 289 0 discriminator 3
 755 003a 0134     		adds	r4, r4, #1
 756              	.LVL90:
 757              		.loc 1 291 0 discriminator 3
 758 003c 0548     		ldr	r0, .L55+12
 759 003e FFF7FEFF 		bl	vt100_printf
 760              	.LVL91:
 761              		.loc 1 289 0 discriminator 3
 762 0042 0D2C     		cmp	r4, #13
 763 0044 EED1     		bne	.L52
 764              		.loc 1 293 0
 765 0046 10BD     		pop	{r4, pc}
 766              	.LVL92:
 767              	.L56:
 768              		.align	2
 769              	.L55:
 770 0048 00000000 		.word	.LC0
 771 004c 0C000000 		.word	.LC1
 772 0050 50000000 		.word	.LC6
 773 0054 64000000 		.word	.LC7
 774              		.cfi_endproc
 775              	.LFE76:
 776              		.size	apolloDigitalSetup, .-apolloDigitalSetup
 777              		.section	.text.apolloAnalogSetup,"ax",%progbits
 778              		.align	2
 779              		.p2align 4,,15
 780              		.global	apolloAnalogSetup
 781              		.thumb
 782              		.thumb_func
 783              		.type	apolloAnalogSetup, %function
 784              	apolloAnalogSetup:
 785              	.LFB77:
 786              		.loc 1 300 0
 787              		.cfi_startproc
 788              		@ args = 0, pretend = 0, frame = 0
 789              		@ frame_needed = 0, uses_anonymous_args = 0
 790              	.LVL93:
 791 0000 10B5     		push	{r4, lr}
 792              		.cfi_def_cfa_offset 8
 793              		.cfi_offset 4, -8
 794              		.cfi_offset 14, -4
 795              	.LBB202:
 796              	.LBB203:
 797              		.loc 1 163 0
 798 0002 3E22     		movs	r2, #62
ARM GAS  /var/folders/6q/x_mk5n_j3p7_c40r_2k_78980000gn/T//cc1NseUK.s 			page 15


 799 0004 0221     		movs	r1, #2
 800 0006 0E48     		ldr	r0, .L61
 801 0008 FFF7FEFF 		bl	vt100_printf
 802              	.LVL94:
 803              	.LBE203:
 804              	.LBE202:
 805              	.LBB204:
 806              	.LBB205:
 807              		.loc 1 167 0
 808 000c 0721     		movs	r1, #7
 809 000e 0D48     		ldr	r0, .L61+4
 810 0010 FFF7FEFF 		bl	vt100_printf
 811              	.LVL95:
 812              	.LBE205:
 813              	.LBE204:
 814              		.loc 1 307 0
 815 0014 0C48     		ldr	r0, .L61+8
 816 0016 FFF7FEFF 		bl	vt100_printf
 817              	.LVL96:
 818              	.LBB206:
 819              	.LBB207:
 820              		.loc 1 167 0
 821 001a 0021     		movs	r1, #0
 822 001c 0948     		ldr	r0, .L61+4
 823 001e FFF7FEFF 		bl	vt100_printf
 824              	.LVL97:
 825              	.LBE207:
 826              	.LBE206:
 827              		.loc 1 310 0
 828 0022 0124     		movs	r4, #1
 829              	.LVL98:
 830              	.L58:
 831              	.LBB208:
 832              	.LBB209:
 833              		.loc 1 163 0 discriminator 3
 834 0024 A11C     		adds	r1, r4, #2
 835              	.LVL99:
 836 0026 3F22     		movs	r2, #63
 837 0028 0548     		ldr	r0, .L61
 838 002a FFF7FEFF 		bl	vt100_printf
 839              	.LVL100:
 840              	.LBE209:
 841              	.LBE208:
 842              		.loc 1 312 0 discriminator 3
 843 002e 2146     		mov	r1, r4
 844 0030 0648     		ldr	r0, .L61+12
 845              		.loc 1 310 0 discriminator 3
 846 0032 0134     		adds	r4, r4, #1
 847              	.LVL101:
 848              		.loc 1 312 0 discriminator 3
 849 0034 FFF7FEFF 		bl	vt100_printf
 850              	.LVL102:
 851              		.loc 1 310 0 discriminator 3
 852 0038 092C     		cmp	r4, #9
 853 003a F3D1     		bne	.L58
 854              		.loc 1 314 0
 855 003c 10BD     		pop	{r4, pc}
ARM GAS  /var/folders/6q/x_mk5n_j3p7_c40r_2k_78980000gn/T//cc1NseUK.s 			page 16


 856              	.LVL103:
 857              	.L62:
 858 003e 00BF     		.align	2
 859              	.L61:
 860 0040 00000000 		.word	.LC0
 861 0044 0C000000 		.word	.LC1
 862 0048 6C000000 		.word	.LC8
 863 004c 3C000000 		.word	.LC3
 864              		.cfi_endproc
 865              	.LFE77:
 866              		.size	apolloAnalogSetup, .-apolloAnalogSetup
 867              		.section	.text.apolloJoystickSetup,"ax",%progbits
 868              		.align	2
 869              		.p2align 4,,15
 870              		.global	apolloJoystickSetup
 871              		.thumb
 872              		.thumb_func
 873              		.type	apolloJoystickSetup, %function
 874              	apolloJoystickSetup:
 875              	.LFB78:
 876              		.loc 1 321 0
 877              		.cfi_startproc
 878              		@ args = 0, pretend = 0, frame = 0
 879              		@ frame_needed = 0, uses_anonymous_args = 0
 880              	.LVL104:
 881              		.loc 1 322 0
 882 0000 0028     		cmp	r0, #0
 883              		.loc 1 321 0
 884 0002 F8B5     		push	{r3, r4, r5, r6, r7, lr}
 885              		.cfi_def_cfa_offset 24
 886              		.cfi_offset 3, -24
 887              		.cfi_offset 4, -20
 888              		.cfi_offset 5, -16
 889              		.cfi_offset 6, -12
 890              		.cfi_offset 7, -8
 891              		.cfi_offset 14, -4
 892              	.LBB210:
 893              	.LBB211:
 894              		.loc 1 167 0
 895 0004 4FF00701 		mov	r1, #7
 896              	.LBE211:
 897              	.LBE210:
 898              		.loc 1 322 0
 899 0008 14BF     		ite	ne
 900 000a 3027     		movne	r7, #48
 901 000c 0827     		moveq	r7, #8
 902              	.LVL105:
 903              	.LBB214:
 904              	.LBB212:
 905              		.loc 1 167 0
 906 000e 3048     		ldr	r0, .L67
 907              	.LVL106:
 908              	.LBE212:
 909              	.LBE214:
 910              		.loc 1 322 0
 911 0010 15BF     		itete	ne
 912 0012 2A24     		movne	r4, #42
ARM GAS  /var/folders/6q/x_mk5n_j3p7_c40r_2k_78980000gn/T//cc1NseUK.s 			page 17


 913 0014 0224     		moveq	r4, #2
 914 0016 3D25     		movne	r5, #61
 915 0018 1525     		moveq	r5, #21
 916 001a 14BF     		ite	ne
 917 001c 4326     		movne	r6, #67
 918 001e 1B26     		moveq	r6, #27
 919              	.LBB215:
 920              	.LBB213:
 921              		.loc 1 167 0
 922 0020 FFF7FEFF 		bl	vt100_printf
 923              	.LVL107:
 924              	.LBE213:
 925              	.LBE215:
 926              	.LBB216:
 927              	.LBB217:
 928              		.loc 1 163 0
 929 0024 3A46     		mov	r2, r7
 930 0026 1021     		movs	r1, #16
 931 0028 2A48     		ldr	r0, .L67+4
 932 002a FFF7FEFF 		bl	vt100_printf
 933              	.LVL108:
 934              	.LBE217:
 935              	.LBE216:
 936              		.loc 1 326 0
 937 002e 2A48     		ldr	r0, .L67+8
 938 0030 FFF7FEFF 		bl	vt100_printf
 939              	.LVL109:
 940              	.LBB218:
 941              	.LBB219:
 942              		.loc 1 163 0
 943 0034 3246     		mov	r2, r6
 944 0036 1021     		movs	r1, #16
 945 0038 2648     		ldr	r0, .L67+4
 946 003a FFF7FEFF 		bl	vt100_printf
 947              	.LVL110:
 948              	.LBE219:
 949              	.LBE218:
 950              		.loc 1 328 0
 951 003e 2748     		ldr	r0, .L67+12
 952 0040 FFF7FEFF 		bl	vt100_printf
 953              	.LVL111:
 954              	.LBB220:
 955              	.LBB221:
 956              		.loc 1 163 0
 957 0044 3246     		mov	r2, r6
 958 0046 1321     		movs	r1, #19
 959 0048 2248     		ldr	r0, .L67+4
 960 004a FFF7FEFF 		bl	vt100_printf
 961              	.LVL112:
 962              	.LBE221:
 963              	.LBE220:
 964              		.loc 1 330 0
 965 004e 2448     		ldr	r0, .L67+16
 966 0050 FFF7FEFF 		bl	vt100_printf
 967              	.LVL113:
 968              	.LBB222:
 969              	.LBB223:
ARM GAS  /var/folders/6q/x_mk5n_j3p7_c40r_2k_78980000gn/T//cc1NseUK.s 			page 18


 970              		.loc 1 163 0
 971 0054 2246     		mov	r2, r4
 972 0056 1121     		movs	r1, #17
 973 0058 1E48     		ldr	r0, .L67+4
 974 005a FFF7FEFF 		bl	vt100_printf
 975              	.LVL114:
 976              	.LBE223:
 977              	.LBE222:
 978              		.loc 1 333 0
 979 005e 2148     		ldr	r0, .L67+20
 980 0060 FFF7FEFF 		bl	vt100_printf
 981              	.LVL115:
 982              	.LBB224:
 983              	.LBB225:
 984              		.loc 1 163 0
 985 0064 2246     		mov	r2, r4
 986 0066 1221     		movs	r1, #18
 987 0068 1A48     		ldr	r0, .L67+4
 988 006a FFF7FEFF 		bl	vt100_printf
 989              	.LVL116:
 990              	.LBE225:
 991              	.LBE224:
 992              		.loc 1 335 0
 993 006e 1E48     		ldr	r0, .L67+24
 994 0070 FFF7FEFF 		bl	vt100_printf
 995              	.LVL117:
 996              	.LBB226:
 997              	.LBB227:
 998              		.loc 1 163 0
 999 0074 2246     		mov	r2, r4
 1000 0076 1321     		movs	r1, #19
 1001 0078 1648     		ldr	r0, .L67+4
 1002 007a FFF7FEFF 		bl	vt100_printf
 1003              	.LVL118:
 1004              	.LBE227:
 1005              	.LBE226:
 1006              		.loc 1 337 0
 1007 007e 1B48     		ldr	r0, .L67+28
 1008 0080 FFF7FEFF 		bl	vt100_printf
 1009              	.LVL119:
 1010              	.LBB228:
 1011              	.LBB229:
 1012              		.loc 1 163 0
 1013 0084 2246     		mov	r2, r4
 1014 0086 1421     		movs	r1, #20
 1015 0088 1248     		ldr	r0, .L67+4
 1016 008a FFF7FEFF 		bl	vt100_printf
 1017              	.LVL120:
 1018              	.LBE229:
 1019              	.LBE228:
 1020              		.loc 1 339 0
 1021 008e 1848     		ldr	r0, .L67+32
 1022 0090 FFF7FEFF 		bl	vt100_printf
 1023              	.LVL121:
 1024              	.LBB230:
 1025              	.LBB231:
 1026              		.loc 1 163 0
ARM GAS  /var/folders/6q/x_mk5n_j3p7_c40r_2k_78980000gn/T//cc1NseUK.s 			page 19


 1027 0094 2A46     		mov	r2, r5
 1028 0096 1121     		movs	r1, #17
 1029 0098 0E48     		ldr	r0, .L67+4
 1030 009a FFF7FEFF 		bl	vt100_printf
 1031              	.LVL122:
 1032              	.LBE231:
 1033              	.LBE230:
 1034              		.loc 1 342 0
 1035 009e 1548     		ldr	r0, .L67+36
 1036 00a0 FFF7FEFF 		bl	vt100_printf
 1037              	.LVL123:
 1038              	.LBB232:
 1039              	.LBB233:
 1040              		.loc 1 163 0
 1041 00a4 2A46     		mov	r2, r5
 1042 00a6 1221     		movs	r1, #18
 1043 00a8 0A48     		ldr	r0, .L67+4
 1044 00aa FFF7FEFF 		bl	vt100_printf
 1045              	.LVL124:
 1046              	.LBE233:
 1047              	.LBE232:
 1048              		.loc 1 344 0
 1049 00ae 1248     		ldr	r0, .L67+40
 1050 00b0 FFF7FEFF 		bl	vt100_printf
 1051              	.LVL125:
 1052              	.LBB234:
 1053              	.LBB235:
 1054              		.loc 1 163 0
 1055 00b4 2A46     		mov	r2, r5
 1056 00b6 1421     		movs	r1, #20
 1057 00b8 0648     		ldr	r0, .L67+4
 1058 00ba FFF7FEFF 		bl	vt100_printf
 1059              	.LVL126:
 1060              	.LBE235:
 1061              	.LBE234:
 1062              		.loc 1 346 0
 1063 00be 0F48     		ldr	r0, .L67+44
 1064 00c0 FFF7FEFF 		bl	vt100_printf
 1065              	.LVL127:
 1066              		.loc 1 348 0
 1067 00c4 BDE8F840 		pop	{r3, r4, r5, r6, r7, lr}
 1068              		.cfi_restore 14
 1069              		.cfi_restore 7
 1070              		.cfi_restore 6
 1071              		.cfi_restore 5
 1072              		.cfi_restore 4
 1073              		.cfi_restore 3
 1074              		.cfi_def_cfa_offset 0
 1075              	.LBB236:
 1076              	.LBB237:
 1077              		.loc 1 167 0
 1078 00c8 0021     		movs	r1, #0
 1079 00ca 0148     		ldr	r0, .L67
 1080 00cc FFF7FEBF 		b	vt100_printf
 1081              	.LVL128:
 1082              	.L68:
 1083              		.align	2
ARM GAS  /var/folders/6q/x_mk5n_j3p7_c40r_2k_78980000gn/T//cc1NseUK.s 			page 20


 1084              	.L67:
 1085 00d0 0C000000 		.word	.LC1
 1086 00d4 00000000 		.word	.LC0
 1087 00d8 80000000 		.word	.LC9
 1088 00dc 90000000 		.word	.LC10
 1089 00e0 A0000000 		.word	.LC11
 1090 00e4 B0000000 		.word	.LC12
 1091 00e8 B8000000 		.word	.LC13
 1092 00ec C0000000 		.word	.LC14
 1093 00f0 C8000000 		.word	.LC15
 1094 00f4 D0000000 		.word	.LC16
 1095 00f8 D8000000 		.word	.LC17
 1096 00fc E0000000 		.word	.LC18
 1097              	.LBE237:
 1098              	.LBE236:
 1099              		.cfi_endproc
 1100              	.LFE78:
 1101              		.size	apolloJoystickSetup, .-apolloJoystickSetup
 1102              		.global	__aeabi_f2iz
 1103              		.global	__aeabi_f2d
 1104              		.section	.text.apolloUpdateMotor,"ax",%progbits
 1105              		.align	2
 1106              		.p2align 4,,15
 1107              		.global	apolloUpdateMotor
 1108              		.thumb
 1109              		.thumb_func
 1110              		.type	apolloUpdateMotor, %function
 1111              	apolloUpdateMotor:
 1112              	.LFB79:
 1113              		.loc 1 360 0
 1114              		.cfi_startproc
 1115              		@ args = 0, pretend = 0, frame = 8
 1116              		@ frame_needed = 0, uses_anonymous_args = 0
 1117              	.LVL129:
 1118 0000 2DE9F04F 		push	{r4, r5, r6, r7, r8, r9, r10, fp, lr}
 1119              		.cfi_def_cfa_offset 36
 1120              		.cfi_offset 4, -36
 1121              		.cfi_offset 5, -32
 1122              		.cfi_offset 6, -28
 1123              		.cfi_offset 7, -24
 1124              		.cfi_offset 8, -20
 1125              		.cfi_offset 9, -16
 1126              		.cfi_offset 10, -12
 1127              		.cfi_offset 11, -8
 1128              		.cfi_offset 14, -4
 1129              		.loc 1 361 0
 1130 0004 04B2     		sxth	r4, r0
 1131              		.loc 1 360 0
 1132 0006 89B0     		sub	sp, sp, #36
 1133              		.cfi_def_cfa_offset 72
 1134              		.loc 1 360 0
 1135 0008 0546     		mov	r5, r0
 1136              		.loc 1 361 0
 1137 000a 2046     		mov	r0, r4
 1138              	.LVL130:
 1139 000c FFF7FEFF 		bl	vexMotorEncoderIdGet
 1140              	.LVL131:
ARM GAS  /var/folders/6q/x_mk5n_j3p7_c40r_2k_78980000gn/T//cc1NseUK.s 			page 21


 1141 0010 0646     		mov	r6, r0
 1142              	.LVL132:
 1143              		.loc 1 362 0
 1144 0012 2046     		mov	r0, r4
 1145 0014 FFF7FEFF 		bl	vexMotorGet
 1146              	.LVL133:
 1147 0018 0746     		mov	r7, r0
 1148              	.LVL134:
 1149              		.loc 1 363 0
 1150 001a 2046     		mov	r0, r4
 1151 001c FFF7FEFF 		bl	vexMotorPositionGet
 1152              	.LVL135:
 1153              		.loc 1 364 0
 1154 0020 4FFA85F9 		sxtb	r9, r5
 1155              		.loc 1 363 0
 1156 0024 8046     		mov	r8, r0
 1157              	.LVL136:
 1158              		.loc 1 364 0
 1159 0026 4846     		mov	r0, r9
 1160              	.LVL137:
 1161 0028 FFF7FEFF 		bl	SmartMotorGetSpeed
 1162              	.LVL138:
 1163              		.loc 1 365 0
 1164 002c 0021     		movs	r1, #0
 1165              		.loc 1 364 0
 1166 002e 8346     		mov	fp, r0
 1167              	.LVL139:
 1168              		.loc 1 365 0
 1169 0030 4846     		mov	r0, r9
 1170              	.LVL140:
 1171 0032 FFF7FEFF 		bl	_SmartMotorGetCurrent
 1172              	.LVL141:
 1173 0036 8246     		mov	r10, r0
 1174              	.LVL142:
 1175              		.loc 1 366 0
 1176 0038 4846     		mov	r0, r9
 1177              	.LVL143:
 1178 003a FFF7FEFF 		bl	SmartMotorGetTemperature
 1179              	.LVL144:
 1180              	.LBB238:
 1181              	.LBB239:
 1182              		.loc 1 163 0
 1183 003e E91C     		adds	r1, r5, #3
 1184              	.LBE239:
 1185              	.LBE238:
 1186              		.loc 1 366 0
 1187 0040 8146     		mov	r9, r0
 1188              	.LVL145:
 1189              	.LBB241:
 1190              	.LBB240:
 1191              		.loc 1 163 0
 1192 0042 0722     		movs	r2, #7
 1193 0044 1F48     		ldr	r0, .L76
 1194              	.LVL146:
 1195 0046 FFF7FEFF 		bl	vt100_printf
 1196              	.LVL147:
 1197              	.LBE240:
ARM GAS  /var/folders/6q/x_mk5n_j3p7_c40r_2k_78980000gn/T//cc1NseUK.s 			page 22


 1198              	.LBE241:
 1199              		.loc 1 370 0
 1200 004a 2046     		mov	r0, r4
 1201 004c FFF7FEFF 		bl	vexMotorTypeGet
 1202              	.LVL148:
 1203 0050 38B3     		cbz	r0, .L70
 1204              		.loc 1 372 0
 1205 0052 2046     		mov	r0, r4
 1206 0054 FFF7FEFF 		bl	vexMotorDirectionGet
 1207              	.LVL149:
 1208 0058 0028     		cmp	r0, #0
 1209              		.loc 1 364 0
 1210 005a 5846     		mov	r0, fp
 1211              		.loc 1 372 0
 1212 005c 0CBF     		ite	eq
 1213 005e 4FF0200B 		moveq	fp, #32
 1214              	.LVL150:
 1215 0062 4FF0520B 		movne	fp, #82
 1216              		.loc 1 364 0
 1217 0066 FFF7FEFF 		bl	__aeabi_f2iz
 1218              	.LVL151:
 1219 006a 0790     		str	r0, [sp, #28]
 1220              		.loc 1 365 0
 1221 006c 5046     		mov	r0, r10
 1222 006e FFF7FEFF 		bl	__aeabi_f2d
 1223              	.LVL152:
 1224 0072 0446     		mov	r4, r0
 1225              		.loc 1 366 0
 1226 0074 4846     		mov	r0, r9
 1227              		.loc 1 365 0
 1228 0076 0D46     		mov	r5, r1
 1229              	.LVL153:
 1230              		.loc 1 366 0
 1231 0078 FFF7FEFF 		bl	__aeabi_f2d
 1232              	.LVL154:
 1233              		.loc 1 377 0
 1234 007c 002E     		cmp	r6, #0
 1235 007e 079B     		ldr	r3, [sp, #28]
 1236              		.loc 1 378 0
 1237 0080 CDE90401 		strd	r0, [sp, #16]
 1238 0084 CDE90245 		strd	r4, [sp, #8]
 1239              		.loc 1 377 0
 1240 0088 11DB     		blt	.L72
 1241              		.loc 1 378 0
 1242 008a 0193     		str	r3, [sp, #4]
 1243 008c CDF80080 		str	r8, [sp]
 1244 0090 3B46     		mov	r3, r7
 1245 0092 5A46     		mov	r2, fp
 1246 0094 3146     		mov	r1, r6
 1247 0096 0C48     		ldr	r0, .L76+4
 1248 0098 FFF7FEFF 		bl	vt100_printf
 1249              	.LVL155:
 1250              		.loc 1 384 0
 1251 009c 09B0     		add	sp, sp, #36
 1252              		.cfi_remember_state
 1253              		.cfi_def_cfa_offset 36
 1254              		@ sp needed
ARM GAS  /var/folders/6q/x_mk5n_j3p7_c40r_2k_78980000gn/T//cc1NseUK.s 			page 23


 1255 009e BDE8F08F 		pop	{r4, r5, r6, r7, r8, r9, r10, fp, pc}
 1256              	.LVL156:
 1257              	.L70:
 1258              		.cfi_restore_state
 1259              		.loc 1 383 0
 1260 00a2 0A48     		ldr	r0, .L76+8
 1261              		.loc 1 384 0
 1262 00a4 09B0     		add	sp, sp, #36
 1263              		.cfi_remember_state
 1264              		.cfi_def_cfa_offset 36
 1265              		@ sp needed
 1266 00a6 BDE8F04F 		pop	{r4, r5, r6, r7, r8, r9, r10, fp, lr}
 1267              		.cfi_restore 14
 1268              		.cfi_restore 11
 1269              		.cfi_restore 10
 1270              		.cfi_restore 9
 1271              		.cfi_restore 8
 1272              		.cfi_restore 7
 1273              		.cfi_restore 6
 1274              		.cfi_restore 5
 1275              		.cfi_restore 4
 1276              		.cfi_def_cfa_offset 0
 1277              	.LVL157:
 1278              		.loc 1 383 0
 1279 00aa FFF7FEBF 		b	vt100_printf
 1280              	.LVL158:
 1281              	.L72:
 1282              		.cfi_restore_state
 1283              		.loc 1 380 0
 1284 00ae 0093     		str	r3, [sp]
 1285 00b0 3A46     		mov	r2, r7
 1286 00b2 4346     		mov	r3, r8
 1287 00b4 5946     		mov	r1, fp
 1288 00b6 0648     		ldr	r0, .L76+12
 1289 00b8 FFF7FEFF 		bl	vt100_printf
 1290              	.LVL159:
 1291              		.loc 1 384 0
 1292 00bc 09B0     		add	sp, sp, #36
 1293              		.cfi_def_cfa_offset 36
 1294              		@ sp needed
 1295 00be BDE8F08F 		pop	{r4, r5, r6, r7, r8, r9, r10, fp, pc}
 1296              	.LVL160:
 1297              	.L77:
 1298 00c2 00BF     		.align	2
 1299              	.L76:
 1300 00c4 00000000 		.word	.LC0
 1301 00c8 E8000000 		.word	.LC19
 1302 00cc 28010000 		.word	.LC21
 1303 00d0 08010000 		.word	.LC20
 1304              		.cfi_endproc
 1305              	.LFE79:
 1306              		.size	apolloUpdateMotor, .-apolloUpdateMotor
 1307              		.section	.text.apolloUpdateCortex,"ax",%progbits
 1308              		.align	2
 1309              		.p2align 4,,15
 1310              		.global	apolloUpdateCortex
 1311              		.thumb
ARM GAS  /var/folders/6q/x_mk5n_j3p7_c40r_2k_78980000gn/T//cc1NseUK.s 			page 24


 1312              		.thumb_func
 1313              		.type	apolloUpdateCortex, %function
 1314              	apolloUpdateCortex:
 1315              	.LFB80:
 1316              		.loc 1 392 0
 1317              		.cfi_startproc
 1318              		@ args = 0, pretend = 0, frame = 0
 1319              		@ frame_needed = 0, uses_anonymous_args = 0
 1320              	.LVL161:
 1321 0000 F0B5     		push	{r4, r5, r6, r7, lr}
 1322              		.cfi_def_cfa_offset 20
 1323              		.cfi_offset 4, -20
 1324              		.cfi_offset 5, -16
 1325              		.cfi_offset 6, -12
 1326              		.cfi_offset 7, -8
 1327              		.cfi_offset 14, -4
 1328              		.loc 1 393 0
 1329 0002 05B2     		sxth	r5, r0
 1330              		.loc 1 392 0
 1331 0004 83B0     		sub	sp, sp, #12
 1332              		.cfi_def_cfa_offset 32
 1333              		.loc 1 392 0
 1334 0006 0446     		mov	r4, r0
 1335              		.loc 1 393 0
 1336 0008 2846     		mov	r0, r5
 1337              	.LVL162:
 1338 000a FFF7FEFF 		bl	SmartMotorGetControllerCurrent
 1339              	.LVL163:
 1340 000e 0746     		mov	r7, r0
 1341              	.LVL164:
 1342              		.loc 1 394 0
 1343 0010 2846     		mov	r0, r5
 1344              	.LVL165:
 1345 0012 FFF7FEFF 		bl	SmartMotorGetControllerTemperature
 1346              	.LVL166:
 1347              	.LBB242:
 1348              	.LBB243:
 1349              		.loc 1 163 0
 1350 0016 1D22     		movs	r2, #29
 1351              	.LBE243:
 1352              	.LBE242:
 1353              		.loc 1 394 0
 1354 0018 0646     		mov	r6, r0
 1355              	.LVL167:
 1356              	.LBB245:
 1357              	.LBB244:
 1358              		.loc 1 163 0
 1359 001a 04F10D01 		add	r1, r4, #13
 1360              	.LVL168:
 1361 001e 0A48     		ldr	r0, .L80
 1362              	.LVL169:
 1363 0020 FFF7FEFF 		bl	vt100_printf
 1364              	.LVL170:
 1365              	.LBE244:
 1366              	.LBE245:
 1367              		.loc 1 397 0
 1368 0024 3846     		mov	r0, r7
ARM GAS  /var/folders/6q/x_mk5n_j3p7_c40r_2k_78980000gn/T//cc1NseUK.s 			page 25


 1369 0026 FFF7FEFF 		bl	__aeabi_f2d
 1370              	.LVL171:
 1371 002a 0446     		mov	r4, r0
 1372              	.LVL172:
 1373 002c 3046     		mov	r0, r6
 1374 002e 0D46     		mov	r5, r1
 1375 0030 FFF7FEFF 		bl	__aeabi_f2d
 1376              	.LVL173:
 1377 0034 2246     		mov	r2, r4
 1378 0036 CDE90001 		strd	r0, [sp]
 1379 003a 2B46     		mov	r3, r5
 1380 003c 0348     		ldr	r0, .L80+4
 1381 003e FFF7FEFF 		bl	vt100_printf
 1382              	.LVL174:
 1383              		.loc 1 398 0
 1384 0042 03B0     		add	sp, sp, #12
 1385              		.cfi_def_cfa_offset 20
 1386              		@ sp needed
 1387 0044 F0BD     		pop	{r4, r5, r6, r7, pc}
 1388              	.LVL175:
 1389              	.L81:
 1390 0046 00BF     		.align	2
 1391              	.L80:
 1392 0048 00000000 		.word	.LC0
 1393 004c 4C010000 		.word	.LC22
 1394              		.cfi_endproc
 1395              	.LFE80:
 1396              		.size	apolloUpdateCortex, .-apolloUpdateCortex
 1397              		.section	.text.apolloUpdateDigital,"ax",%progbits
 1398              		.align	2
 1399              		.p2align 4,,15
 1400              		.global	apolloUpdateDigital
 1401              		.thumb
 1402              		.thumb_func
 1403              		.type	apolloUpdateDigital, %function
 1404              	apolloUpdateDigital:
 1405              	.LFB81:
 1406              		.loc 1 406 0
 1407              		.cfi_startproc
 1408              		@ args = 0, pretend = 0, frame = 0
 1409              		@ frame_needed = 0, uses_anonymous_args = 0
 1410              	.LVL176:
 1411 0000 10B5     		push	{r4, lr}
 1412              		.cfi_def_cfa_offset 8
 1413              		.cfi_offset 4, -8
 1414              		.cfi_offset 14, -4
 1415              	.LBB246:
 1416              	.LBB247:
 1417              		.loc 1 163 0
 1418 0002 C11C     		adds	r1, r0, #3
 1419              	.LVL177:
 1420 0004 3522     		movs	r2, #53
 1421              	.LBE247:
 1422              	.LBE246:
 1423              		.loc 1 411 0
 1424 0006 44B2     		sxtb	r4, r0
 1425              	.LBB249:
ARM GAS  /var/folders/6q/x_mk5n_j3p7_c40r_2k_78980000gn/T//cc1NseUK.s 			page 26


 1426              	.LBB248:
 1427              		.loc 1 163 0
 1428 0008 2A48     		ldr	r0, .L95
 1429              	.LVL178:
 1430 000a FFF7FEFF 		bl	vt100_printf
 1431              	.LVL179:
 1432              	.LBE248:
 1433              	.LBE249:
 1434              		.loc 1 411 0
 1435 000e 2046     		mov	r0, r4
 1436 0010 FFF7FEFF 		bl	vexDigitalTypeGet
 1437              	.LVL180:
 1438              		.loc 1 413 0
 1439 0014 0138     		subs	r0, r0, #1
 1440              	.LVL181:
 1441 0016 0728     		cmp	r0, #7
 1442 0018 0AD8     		bhi	.L82
 1443 001a DFE800F0 		tbb	[pc, r0]
 1444              	.L85:
 1445 001e 0A       		.byte	(.L86-.L85)/2
 1446 001f 0A       		.byte	(.L86-.L85)/2
 1447 0020 04       		.byte	(.L87-.L85)/2
 1448 0021 1C       		.byte	(.L88-.L85)/2
 1449 0022 2D       		.byte	(.L89-.L85)/2
 1450 0023 09       		.byte	(.L82-.L85)/2
 1451 0024 09       		.byte	(.L82-.L85)/2
 1452 0025 13       		.byte	(.L90-.L85)/2
 1453              		.p2align 1
 1454              	.L87:
 1455              		.loc 1 425 0
 1456 0026 2046     		mov	r0, r4
 1457 0028 FFF7FEFF 		bl	vexDigitalCfgGet
 1458              	.LVL182:
 1459 002c 0A28     		cmp	r0, #10
 1460 002e 34D0     		beq	.L94
 1461              	.L82:
 1462 0030 10BD     		pop	{r4, pc}
 1463              	.L86:
 1464              		.loc 1 419 0
 1465 0032 2046     		mov	r0, r4
 1466 0034 FFF7FEFF 		bl	vexDigitalPinGet
 1467              	.LVL183:
 1468              		.loc 1 440 0
 1469 0038 BDE81040 		pop	{r4, lr}
 1470              		.cfi_remember_state
 1471              		.cfi_restore 14
 1472              		.cfi_restore 4
 1473              		.cfi_def_cfa_offset 0
 1474              		.loc 1 419 0
 1475 003c 0146     		mov	r1, r0
 1476 003e 1E48     		ldr	r0, .L95+4
 1477 0040 FFF7FEBF 		b	vt100_printf
 1478              	.LVL184:
 1479              	.L90:
 1480              		.cfi_restore_state
 1481              		.loc 1 422 0
 1482 0044 2046     		mov	r0, r4
ARM GAS  /var/folders/6q/x_mk5n_j3p7_c40r_2k_78980000gn/T//cc1NseUK.s 			page 27


 1483 0046 FFF7FEFF 		bl	vexDigitalIntrCountGet
 1484              	.LVL185:
 1485              		.loc 1 440 0
 1486 004a BDE81040 		pop	{r4, lr}
 1487              		.cfi_remember_state
 1488              		.cfi_restore 14
 1489              		.cfi_restore 4
 1490              		.cfi_def_cfa_offset 0
 1491              		.loc 1 422 0
 1492 004e 0146     		mov	r1, r0
 1493 0050 1948     		ldr	r0, .L95+4
 1494 0052 FFF7FEBF 		b	vt100_printf
 1495              	.LVL186:
 1496              	.L88:
 1497              		.cfi_restore_state
 1498              		.loc 1 429 0
 1499 0056 2046     		mov	r0, r4
 1500 0058 FFF7FEFF 		bl	vexDigitalCfgGet
 1501              	.LVL187:
 1502 005c 0C28     		cmp	r0, #12
 1503 005e E7D1     		bne	.L82
 1504              		.loc 1 430 0
 1505 0060 2046     		mov	r0, r4
 1506 0062 FFF7FEFF 		bl	vexDigitalChannelGet
 1507              	.LVL188:
 1508 0066 C0B2     		uxtb	r0, r0
 1509 0068 FFF7FEFF 		bl	vexSonarGetCm
 1510              	.LVL189:
 1511              		.loc 1 440 0
 1512 006c BDE81040 		pop	{r4, lr}
 1513              		.cfi_remember_state
 1514              		.cfi_restore 14
 1515              		.cfi_restore 4
 1516              		.cfi_def_cfa_offset 0
 1517              		.loc 1 430 0
 1518 0070 0146     		mov	r1, r0
 1519 0072 1148     		ldr	r0, .L95+4
 1520 0074 FFF7FEBF 		b	vt100_printf
 1521              	.LVL190:
 1522              	.L89:
 1523              		.cfi_restore_state
 1524              		.loc 1 433 0
 1525 0078 2046     		mov	r0, r4
 1526 007a FFF7FEFF 		bl	vexDigitalCfgGet
 1527              	.LVL191:
 1528 007e 0C28     		cmp	r0, #12
 1529 0080 D6D1     		bne	.L82
 1530              		.loc 1 434 0
 1531 0082 2046     		mov	r0, r4
 1532 0084 FFF7FEFF 		bl	vexDigitalChannelGet
 1533              	.LVL192:
 1534 0088 C0B2     		uxtb	r0, r0
 1535 008a FFF7FEFF 		bl	vexSonarGetInch
 1536              	.LVL193:
 1537              		.loc 1 440 0
 1538 008e BDE81040 		pop	{r4, lr}
 1539              		.cfi_remember_state
ARM GAS  /var/folders/6q/x_mk5n_j3p7_c40r_2k_78980000gn/T//cc1NseUK.s 			page 28


 1540              		.cfi_restore 14
 1541              		.cfi_restore 4
 1542              		.cfi_def_cfa_offset 0
 1543              		.loc 1 434 0
 1544 0092 0146     		mov	r1, r0
 1545 0094 0848     		ldr	r0, .L95+4
 1546 0096 FFF7FEBF 		b	vt100_printf
 1547              	.LVL194:
 1548              	.L94:
 1549              		.cfi_restore_state
 1550              		.loc 1 426 0
 1551 009a 2046     		mov	r0, r4
 1552 009c FFF7FEFF 		bl	vexDigitalChannelGet
 1553              	.LVL195:
 1554 00a0 00B2     		sxth	r0, r0
 1555 00a2 FFF7FEFF 		bl	vexEncoderGet
 1556              	.LVL196:
 1557              		.loc 1 440 0
 1558 00a6 BDE81040 		pop	{r4, lr}
 1559              		.cfi_restore 14
 1560              		.cfi_restore 4
 1561              		.cfi_def_cfa_offset 0
 1562              		.loc 1 426 0
 1563 00aa 0146     		mov	r1, r0
 1564 00ac 0248     		ldr	r0, .L95+4
 1565 00ae FFF7FEBF 		b	vt100_printf
 1566              	.LVL197:
 1567              	.L96:
 1568 00b2 00BF     		.align	2
 1569              	.L95:
 1570 00b4 00000000 		.word	.LC0
 1571 00b8 5C010000 		.word	.LC23
 1572              		.cfi_endproc
 1573              	.LFE81:
 1574              		.size	apolloUpdateDigital, .-apolloUpdateDigital
 1575              		.section	.text.apolloUpdateAnalog,"ax",%progbits
 1576              		.align	2
 1577              		.p2align 4,,15
 1578              		.global	apolloUpdateAnalog
 1579              		.thumb
 1580              		.thumb_func
 1581              		.type	apolloUpdateAnalog, %function
 1582              	apolloUpdateAnalog:
 1583              	.LFB82:
 1584              		.loc 1 448 0
 1585              		.cfi_startproc
 1586              		@ args = 0, pretend = 0, frame = 0
 1587              		@ frame_needed = 0, uses_anonymous_args = 0
 1588              	.LVL198:
 1589 0000 10B5     		push	{r4, lr}
 1590              		.cfi_def_cfa_offset 8
 1591              		.cfi_offset 4, -8
 1592              		.cfi_offset 14, -4
 1593              		.loc 1 448 0
 1594 0002 0446     		mov	r4, r0
 1595              	.LVL199:
 1596              	.LBB250:
ARM GAS  /var/folders/6q/x_mk5n_j3p7_c40r_2k_78980000gn/T//cc1NseUK.s 			page 29


 1597              	.LBB251:
 1598              		.loc 1 163 0
 1599 0004 C11C     		adds	r1, r0, #3
 1600              	.LVL200:
 1601 0006 4922     		movs	r2, #73
 1602 0008 0548     		ldr	r0, .L99
 1603              	.LVL201:
 1604 000a FFF7FEFF 		bl	vt100_printf
 1605              	.LVL202:
 1606              	.LBE251:
 1607              	.LBE250:
 1608              		.loc 1 451 0
 1609 000e 20B2     		sxth	r0, r4
 1610 0010 FFF7FEFF 		bl	vexAdcGet
 1611              	.LVL203:
 1612              		.loc 1 452 0
 1613 0014 BDE81040 		pop	{r4, lr}
 1614              		.cfi_restore 14
 1615              		.cfi_restore 4
 1616              		.cfi_def_cfa_offset 0
 1617              	.LVL204:
 1618              		.loc 1 451 0
 1619 0018 0146     		mov	r1, r0
 1620 001a 0248     		ldr	r0, .L99+4
 1621 001c FFF7FEBF 		b	vt100_printf
 1622              	.LVL205:
 1623              	.L100:
 1624              		.align	2
 1625              	.L99:
 1626 0020 00000000 		.word	.LC0
 1627 0024 60010000 		.word	.LC24
 1628              		.cfi_endproc
 1629              	.LFE82:
 1630              		.size	apolloUpdateAnalog, .-apolloUpdateAnalog
 1631              		.global	__aeabi_i2d
 1632              		.global	__aeabi_ddiv
 1633              		.section	.text.apolloUpdateSystem,"ax",%progbits
 1634              		.align	2
 1635              		.p2align 4,,15
 1636              		.global	apolloUpdateSystem
 1637              		.thumb
 1638              		.thumb_func
 1639              		.type	apolloUpdateSystem, %function
 1640              	apolloUpdateSystem:
 1641              	.LFB83:
 1642              		.loc 1 459 0
 1643              		.cfi_startproc
 1644              		@ args = 0, pretend = 0, frame = 0
 1645              		@ frame_needed = 0, uses_anonymous_args = 0
 1646              		.loc 1 460 0
 1647 0000 204B     		ldr	r3, .L103
 1648              		.loc 1 459 0
 1649 0002 D0B5     		push	{r4, r6, r7, lr}
 1650              		.cfi_def_cfa_offset 16
 1651              		.cfi_offset 4, -16
 1652              		.cfi_offset 6, -12
 1653              		.cfi_offset 7, -8
ARM GAS  /var/folders/6q/x_mk5n_j3p7_c40r_2k_78980000gn/T//cc1NseUK.s 			page 30


 1654              		.cfi_offset 14, -4
 1655              		.loc 1 460 0
 1656 0004 DB68     		ldr	r3, [r3, #12]
 1657 0006 204C     		ldr	r4, .L103+4
 1658              	.LBB252:
 1659              	.LBB253:
 1660              		.loc 1 163 0
 1661 0008 0322     		movs	r2, #3
 1662              	.LBE253:
 1663              	.LBE252:
 1664              		.loc 1 460 0
 1665 000a A4FB0334 		umull	r3, r4, r4, r3
 1666              	.LBB255:
 1667              	.LBB254:
 1668              		.loc 1 163 0
 1669 000e 1721     		movs	r1, #23
 1670 0010 1E48     		ldr	r0, .L103+8
 1671 0012 FFF7FEFF 		bl	vt100_printf
 1672              	.LVL206:
 1673              	.LBE254:
 1674              	.LBE255:
 1675              		.loc 1 465 0
 1676 0016 1E49     		ldr	r1, .L103+12
 1677              		.loc 1 460 0
 1678 0018 A409     		lsrs	r4, r4, #6
 1679              	.LVL207:
 1680              		.loc 1 465 0
 1681 001a 81FB0431 		smull	r3, r1, r1, r4
 1682              		.loc 1 469 0
 1683 001e 1D48     		ldr	r0, .L103+16
 1684              		.loc 1 465 0
 1685 0020 2144     		add	r1, r1, r4
 1686 0022 C912     		asrs	r1, r1, #11
 1687              	.LVL208:
 1688              		.loc 1 469 0
 1689 0024 00FB0140 		mla	r0, r0, r1, r4
 1690 0028 1B4A     		ldr	r2, .L103+20
 1691 002a 84FB0267 		smull	r6, r7, r4, r2
 1692 002e 82FB0032 		smull	r3, r2, r2, r0
 1693 0032 E319     		adds	r3, r4, r7
 1694 0034 5B11     		asrs	r3, r3, #5
 1695 0036 0244     		add	r2, r2, r0
 1696 0038 C3EB0313 		rsb	r3, r3, r3, lsl #4
 1697 003c C017     		asrs	r0, r0, #31
 1698 003e A4EB8303 		sub	r3, r4, r3, lsl #2
 1699 0042 C0EB6212 		rsb	r2, r0, r2, asr #5
 1700 0046 1548     		ldr	r0, .L103+24
 1701 0048 FFF7FEFF 		bl	vt100_printf
 1702              	.LVL209:
 1703              		.loc 1 470 0
 1704 004c FFF7FEFF 		bl	vexSpiGetMainBattery
 1705              	.LVL210:
 1706 0050 FFF7FEFF 		bl	__aeabi_i2d
 1707              	.LVL211:
 1708 0054 0022     		movs	r2, #0
 1709 0056 124B     		ldr	r3, .L103+28
 1710 0058 FFF7FEFF 		bl	__aeabi_ddiv
ARM GAS  /var/folders/6q/x_mk5n_j3p7_c40r_2k_78980000gn/T//cc1NseUK.s 			page 31


 1711              	.LVL212:
 1712 005c 0246     		mov	r2, r0
 1713 005e 0B46     		mov	r3, r1
 1714 0060 1048     		ldr	r0, .L103+32
 1715 0062 FFF7FEFF 		bl	vt100_printf
 1716              	.LVL213:
 1717              		.loc 1 471 0
 1718 0066 FFF7FEFF 		bl	vexSpiGetBackupBattery
 1719              	.LVL214:
 1720 006a FFF7FEFF 		bl	__aeabi_i2d
 1721              	.LVL215:
 1722 006e 0022     		movs	r2, #0
 1723 0070 0B4B     		ldr	r3, .L103+28
 1724 0072 FFF7FEFF 		bl	__aeabi_ddiv
 1725              	.LVL216:
 1726              		.loc 1 472 0
 1727 0076 BDE8D040 		pop	{r4, r6, r7, lr}
 1728              		.cfi_restore 14
 1729              		.cfi_restore 7
 1730              		.cfi_restore 6
 1731              		.cfi_restore 4
 1732              		.cfi_def_cfa_offset 0
 1733              	.LVL217:
 1734              		.loc 1 471 0
 1735 007a 0246     		mov	r2, r0
 1736 007c 0B46     		mov	r3, r1
 1737 007e 0A48     		ldr	r0, .L103+36
 1738 0080 FFF7FEBF 		b	vt100_printf
 1739              	.LVL218:
 1740              	.L104:
 1741              		.align	2
 1742              	.L103:
 1743 0084 00000000 		.word	vtlist
 1744 0088 D34D6210 		.word	274877907
 1745 008c 00000000 		.word	.LC0
 1746 0090 C5B3A291 		.word	-1851608123
 1747 0094 F0F1FFFF 		.word	-3600
 1748 0098 89888888 		.word	-2004318071
 1749 009c 64010000 		.word	.LC25
 1750 00a0 00408F40 		.word	1083129856
 1751 00a4 78010000 		.word	.LC26
 1752 00a8 88010000 		.word	.LC27
 1753              		.cfi_endproc
 1754              	.LFE83:
 1755              		.size	apolloUpdateSystem, .-apolloUpdateSystem
 1756              		.section	.text.apolloUpdateJoystickButton,"ax",%progbits
 1757              		.align	2
 1758              		.p2align 4,,15
 1759              		.global	apolloUpdateJoystickButton
 1760              		.thumb
 1761              		.thumb_func
 1762              		.type	apolloUpdateJoystickButton, %function
 1763              	apolloUpdateJoystickButton:
 1764              	.LFB84:
 1765              		.loc 1 485 0
 1766              		.cfi_startproc
 1767              		@ args = 8, pretend = 0, frame = 0
ARM GAS  /var/folders/6q/x_mk5n_j3p7_c40r_2k_78980000gn/T//cc1NseUK.s 			page 32


 1768              		@ frame_needed = 0, uses_anonymous_args = 0
 1769              	.LVL219:
 1770 0000 2DE9F041 		push	{r4, r5, r6, r7, r8, lr}
 1771              		.cfi_def_cfa_offset 24
 1772              		.cfi_offset 4, -24
 1773              		.cfi_offset 5, -20
 1774              		.cfi_offset 6, -16
 1775              		.cfi_offset 7, -12
 1776              		.cfi_offset 8, -8
 1777              		.cfi_offset 14, -4
 1778              		.loc 1 486 0
 1779 0004 0028     		cmp	r0, #0
 1780              		.loc 1 485 0
 1781 0006 069C     		ldr	r4, [sp, #24]
 1782 0008 1546     		mov	r5, r2
 1783              	.LBB256:
 1784              	.LBB257:
 1785              		.loc 1 163 0
 1786 000a 01F11101 		add	r1, r1, #17
 1787              	.LVL220:
 1788 000e 14BF     		ite	ne
 1789 0010 3222     		movne	r2, #50
 1790              	.LVL221:
 1791 0012 0A22     		moveq	r2, #10
 1792 0014 0B48     		ldr	r0, .L110
 1793              	.LVL222:
 1794              	.LBE257:
 1795              	.LBE256:
 1796              		.loc 1 485 0
 1797 0016 1E46     		mov	r6, r3
 1798 0018 079F     		ldr	r7, [sp, #28]
 1799              	.LBB259:
 1800              	.LBB258:
 1801              		.loc 1 163 0
 1802 001a FFF7FEFF 		bl	vt100_printf
 1803              	.LVL223:
 1804              	.LBE258:
 1805              	.LBE259:
 1806              		.loc 1 489 0
 1807 001e 002C     		cmp	r4, #0
 1808 0020 08DB     		blt	.L107
 1809              		.loc 1 490 0
 1810 0022 0697     		str	r7, [sp, #24]
 1811 0024 2346     		mov	r3, r4
 1812 0026 3246     		mov	r2, r6
 1813 0028 2946     		mov	r1, r5
 1814              		.loc 1 493 0
 1815 002a BDE8F041 		pop	{r4, r5, r6, r7, r8, lr}
 1816              		.cfi_remember_state
 1817              		.cfi_restore 14
 1818              		.cfi_restore 8
 1819              		.cfi_restore 7
 1820              		.cfi_restore 6
 1821              		.cfi_restore 5
 1822              		.cfi_restore 4
 1823              		.cfi_def_cfa_offset 0
 1824              	.LVL224:
ARM GAS  /var/folders/6q/x_mk5n_j3p7_c40r_2k_78980000gn/T//cc1NseUK.s 			page 33


 1825              		.loc 1 490 0
 1826 002e 0648     		ldr	r0, .L110+4
 1827 0030 FFF7FEBF 		b	vt100_printf
 1828              	.LVL225:
 1829              	.L107:
 1830              		.cfi_restore_state
 1831              		.loc 1 492 0
 1832 0034 3246     		mov	r2, r6
 1833 0036 2946     		mov	r1, r5
 1834              		.loc 1 493 0
 1835 0038 BDE8F041 		pop	{r4, r5, r6, r7, r8, lr}
 1836              		.cfi_restore 14
 1837              		.cfi_restore 8
 1838              		.cfi_restore 7
 1839              		.cfi_restore 6
 1840              		.cfi_restore 5
 1841              		.cfi_restore 4
 1842              		.cfi_def_cfa_offset 0
 1843              	.LVL226:
 1844              		.loc 1 492 0
 1845 003c 0348     		ldr	r0, .L110+8
 1846 003e FFF7FEBF 		b	vt100_printf
 1847              	.LVL227:
 1848              	.L111:
 1849 0042 00BF     		.align	2
 1850              	.L110:
 1851 0044 00000000 		.word	.LC0
 1852 0048 98010000 		.word	.LC28
 1853 004c A8010000 		.word	.LC29
 1854              		.cfi_endproc
 1855              	.LFE84:
 1856              		.size	apolloUpdateJoystickButton, .-apolloUpdateJoystickButton
 1857              		.section	.text.apolloUpdateJoystickAnalog,"ax",%progbits
 1858              		.align	2
 1859              		.p2align 4,,15
 1860              		.global	apolloUpdateJoystickAnalog
 1861              		.thumb
 1862              		.thumb_func
 1863              		.type	apolloUpdateJoystickAnalog, %function
 1864              	apolloUpdateJoystickAnalog:
 1865              	.LFB85:
 1866              		.loc 1 504 0
 1867              		.cfi_startproc
 1868              		@ args = 0, pretend = 0, frame = 0
 1869              		@ frame_needed = 0, uses_anonymous_args = 0
 1870              	.LVL228:
 1871 0000 38B5     		push	{r3, r4, r5, lr}
 1872              		.cfi_def_cfa_offset 16
 1873              		.cfi_offset 3, -16
 1874              		.cfi_offset 4, -12
 1875              		.cfi_offset 5, -8
 1876              		.cfi_offset 14, -4
 1877              		.loc 1 504 0
 1878 0002 1446     		mov	r4, r2
 1879 0004 1D46     		mov	r5, r3
 1880              		.loc 1 505 0
 1881 0006 0028     		cmp	r0, #0
ARM GAS  /var/folders/6q/x_mk5n_j3p7_c40r_2k_78980000gn/T//cc1NseUK.s 			page 34


 1882              	.LBB260:
 1883              	.LBB261:
 1884              		.loc 1 163 0
 1885 0008 01F11101 		add	r1, r1, #17
 1886              	.LVL229:
 1887 000c 14BF     		ite	ne
 1888 000e 4422     		movne	r2, #68
 1889              	.LVL230:
 1890 0010 1C22     		moveq	r2, #28
 1891 0012 0548     		ldr	r0, .L116
 1892              	.LVL231:
 1893 0014 FFF7FEFF 		bl	vt100_printf
 1894              	.LVL232:
 1895              	.LBE261:
 1896              	.LBE260:
 1897              		.loc 1 509 0
 1898 0018 2A46     		mov	r2, r5
 1899 001a 2146     		mov	r1, r4
 1900              		.loc 1 510 0
 1901 001c BDE83840 		pop	{r3, r4, r5, lr}
 1902              		.cfi_restore 14
 1903              		.cfi_restore 5
 1904              		.cfi_restore 4
 1905              		.cfi_restore 3
 1906              		.cfi_def_cfa_offset 0
 1907              	.LVL233:
 1908              		.loc 1 509 0
 1909 0020 0248     		ldr	r0, .L116+4
 1910 0022 FFF7FEBF 		b	vt100_printf
 1911              	.LVL234:
 1912              	.L117:
 1913 0026 00BF     		.align	2
 1914              	.L116:
 1915 0028 00000000 		.word	.LC0
 1916 002c B0010000 		.word	.LC30
 1917              		.cfi_endproc
 1918              	.LFE85:
 1919              		.size	apolloUpdateJoystickAnalog, .-apolloUpdateJoystickAnalog
 1920              		.section	.text.apolloInit,"ax",%progbits
 1921              		.align	2
 1922              		.p2align 4,,15
 1923              		.global	apolloInit
 1924              		.thumb
 1925              		.thumb_func
 1926              		.type	apolloInit, %function
 1927              	apolloInit:
 1928              	.LFB86:
 1929              		.loc 1 517 0
 1930              		.cfi_startproc
 1931              		@ args = 0, pretend = 0, frame = 0
 1932              		@ frame_needed = 0, uses_anonymous_args = 0
 1933 0000 08B5     		push	{r3, lr}
 1934              		.cfi_def_cfa_offset 8
 1935              		.cfi_offset 3, -8
 1936              		.cfi_offset 14, -4
 1937              	.LBB262:
 1938              	.LBB263:
ARM GAS  /var/folders/6q/x_mk5n_j3p7_c40r_2k_78980000gn/T//cc1NseUK.s 			page 35


 1939              		.loc 1 151 0
 1940 0002 1048     		ldr	r0, .L122
 1941 0004 FFF7FEFF 		bl	vt100_printf
 1942              	.LVL235:
 1943              	.LBE263:
 1944              	.LBE262:
 1945              	.LBB264:
 1946              	.LBB265:
 1947              		.loc 1 143 0
 1948 0008 0F48     		ldr	r0, .L122+4
 1949 000a FFF7FEFF 		bl	vt100_printf
 1950              	.LVL236:
 1951              	.LBE265:
 1952              	.LBE264:
 1953              	.LBB266:
 1954              	.LBB267:
 1955              		.loc 1 155 0
 1956 000e 0F48     		ldr	r0, .L122+8
 1957 0010 FFF7FEFF 		bl	vt100_printf
 1958              	.LVL237:
 1959              	.LBE267:
 1960              	.LBE266:
 1961              		.loc 1 526 0
 1962 0014 FFF7FEFF 		bl	apolloScreenSetup
 1963              	.LVL238:
 1964              	.LBB268:
 1965              	.LBB269:
 1966              		.loc 1 159 0
 1967 0018 0D48     		ldr	r0, .L122+12
 1968 001a FFF7FEFF 		bl	vt100_printf
 1969              	.LVL239:
 1970              	.LBE269:
 1971              	.LBE268:
 1972              		.loc 1 531 0
 1973 001e FFF7FEFF 		bl	apolloMotorSetup
 1974              	.LVL240:
 1975              		.loc 1 532 0
 1976 0022 FFF7FEFF 		bl	apolloDigitalSetup
 1977              	.LVL241:
 1978              		.loc 1 533 0
 1979 0026 FFF7FEFF 		bl	apolloAnalogSetup
 1980              	.LVL242:
 1981              		.loc 1 534 0
 1982 002a 0020     		movs	r0, #0
 1983 002c FFF7FEFF 		bl	apolloJoystickSetup
 1984              	.LVL243:
 1985              		.loc 1 535 0
 1986 0030 FFF7FEFF 		bl	vexControllerCompetitonState
 1987              	.LVL244:
 1988 0034 8307     		lsls	r3, r0, #30
 1989 0036 00D4     		bmi	.L121
 1990 0038 08BD     		pop	{r3, pc}
 1991              	.L121:
 1992              		.loc 1 536 0
 1993 003a 0120     		movs	r0, #1
 1994              		.loc 1 537 0
 1995 003c BDE80840 		pop	{r3, lr}
ARM GAS  /var/folders/6q/x_mk5n_j3p7_c40r_2k_78980000gn/T//cc1NseUK.s 			page 36


 1996              		.cfi_restore 14
 1997              		.cfi_restore 3
 1998              		.cfi_def_cfa_offset 0
 1999              		.loc 1 536 0
 2000 0040 FFF7FEBF 		b	apolloJoystickSetup
 2001              	.LVL245:
 2002              	.L123:
 2003              		.align	2
 2004              	.L122:
 2005 0044 BC010000 		.word	.LC31
 2006 0048 C4010000 		.word	.LC32
 2007 004c CC010000 		.word	.LC33
 2008 0050 D0010000 		.word	.LC34
 2009              		.cfi_endproc
 2010              	.LFE86:
 2011              		.size	apolloInit, .-apolloInit
 2012              		.section	.text.apolloDeinit,"ax",%progbits
 2013              		.align	2
 2014              		.p2align 4,,15
 2015              		.global	apolloDeinit
 2016              		.thumb
 2017              		.thumb_func
 2018              		.type	apolloDeinit, %function
 2019              	apolloDeinit:
 2020              	.LFB87:
 2021              		.loc 1 544 0
 2022              		.cfi_startproc
 2023              		@ args = 0, pretend = 0, frame = 0
 2024              		@ frame_needed = 0, uses_anonymous_args = 0
 2025              	.LVL246:
 2026 0000 08B5     		push	{r3, lr}
 2027              		.cfi_def_cfa_offset 8
 2028              		.cfi_offset 3, -8
 2029              		.cfi_offset 14, -4
 2030              	.LBB270:
 2031              	.LBB271:
 2032              		.loc 1 163 0
 2033 0002 0122     		movs	r2, #1
 2034 0004 1821     		movs	r1, #24
 2035 0006 0748     		ldr	r0, .L126
 2036 0008 FFF7FEFF 		bl	vt100_printf
 2037              	.LVL247:
 2038              	.LBE271:
 2039              	.LBE270:
 2040              	.LBB272:
 2041              	.LBB273:
 2042              		.loc 1 151 0
 2043 000c 0648     		ldr	r0, .L126+4
 2044 000e FFF7FEFF 		bl	vt100_printf
 2045              	.LVL248:
 2046              	.LBE273:
 2047              	.LBE272:
 2048              	.LBB274:
 2049              	.LBB275:
 2050              		.loc 1 147 0
 2051 0012 0648     		ldr	r0, .L126+8
 2052 0014 FFF7FEFF 		bl	vt100_printf
ARM GAS  /var/folders/6q/x_mk5n_j3p7_c40r_2k_78980000gn/T//cc1NseUK.s 			page 37


 2053              	.LVL249:
 2054              	.LBE275:
 2055              	.LBE274:
 2056              		.loc 1 552 0
 2057 0018 BDE80840 		pop	{r3, lr}
 2058              		.cfi_restore 14
 2059              		.cfi_restore 3
 2060              		.cfi_def_cfa_offset 0
 2061              	.LBB276:
 2062              	.LBB277:
 2063              		.loc 1 159 0
 2064 001c 0448     		ldr	r0, .L126+12
 2065 001e FFF7FEBF 		b	vt100_printf
 2066              	.LVL250:
 2067              	.L127:
 2068 0022 00BF     		.align	2
 2069              	.L126:
 2070 0024 00000000 		.word	.LC0
 2071 0028 BC010000 		.word	.LC31
 2072 002c D4010000 		.word	.LC35
 2073 0030 D0010000 		.word	.LC34
 2074              	.LBE277:
 2075              	.LBE276:
 2076              		.cfi_endproc
 2077              	.LFE87:
 2078              		.size	apolloDeinit, .-apolloDeinit
 2079              		.section	.text.apolloUpdate,"ax",%progbits
 2080              		.align	2
 2081              		.p2align 4,,15
 2082              		.global	apolloUpdate
 2083              		.thumb
 2084              		.thumb_func
 2085              		.type	apolloUpdate, %function
 2086              	apolloUpdate:
 2087              	.LFB88:
 2088              		.loc 1 559 0
 2089              		.cfi_startproc
 2090              		@ args = 0, pretend = 0, frame = 0
 2091              		@ frame_needed = 0, uses_anonymous_args = 0
 2092              	.LVL251:
 2093 0000 70B5     		push	{r4, r5, r6, lr}
 2094              		.cfi_def_cfa_offset 16
 2095              		.cfi_offset 4, -16
 2096              		.cfi_offset 5, -12
 2097              		.cfi_offset 6, -8
 2098              		.cfi_offset 14, -4
 2099              		.loc 1 563 0
 2100 0002 0024     		movs	r4, #0
 2101              		.loc 1 559 0
 2102 0004 82B0     		sub	sp, sp, #8
 2103              		.cfi_def_cfa_offset 24
 2104              	.LVL252:
 2105              	.L129:
 2106              		.loc 1 564 0 discriminator 3
 2107 0006 2046     		mov	r0, r4
 2108              		.loc 1 563 0 discriminator 3
 2109 0008 0134     		adds	r4, r4, #1
ARM GAS  /var/folders/6q/x_mk5n_j3p7_c40r_2k_78980000gn/T//cc1NseUK.s 			page 38


 2110              	.LVL253:
 2111              		.loc 1 564 0 discriminator 3
 2112 000a FFF7FEFF 		bl	apolloUpdateMotor
 2113              	.LVL254:
 2114              		.loc 1 563 0 discriminator 3
 2115 000e 0A2C     		cmp	r4, #10
 2116 0010 F9D1     		bne	.L129
 2117 0012 0024     		movs	r4, #0
 2118              	.LVL255:
 2119              	.L130:
 2120              		.loc 1 568 0 discriminator 3
 2121 0014 2046     		mov	r0, r4
 2122              		.loc 1 567 0 discriminator 3
 2123 0016 0134     		adds	r4, r4, #1
 2124              	.LVL256:
 2125              		.loc 1 568 0 discriminator 3
 2126 0018 FFF7FEFF 		bl	apolloUpdateDigital
 2127              	.LVL257:
 2128              		.loc 1 567 0 discriminator 3
 2129 001c 0C2C     		cmp	r4, #12
 2130 001e F9D1     		bne	.L130
 2131 0020 0024     		movs	r4, #0
 2132              	.LVL258:
 2133              	.L131:
 2134              		.loc 1 572 0 discriminator 3
 2135 0022 2046     		mov	r0, r4
 2136              		.loc 1 571 0 discriminator 3
 2137 0024 0134     		adds	r4, r4, #1
 2138              	.LVL259:
 2139              		.loc 1 572 0 discriminator 3
 2140 0026 FFF7FEFF 		bl	apolloUpdateAnalog
 2141              	.LVL260:
 2142              		.loc 1 571 0 discriminator 3
 2143 002a 082C     		cmp	r4, #8
 2144 002c F9D1     		bne	.L131
 2145              		.loc 1 575 0
 2146 002e 0020     		movs	r0, #0
 2147 0030 FFF7FEFF 		bl	apolloUpdateCortex
 2148              	.LVL261:
 2149              		.loc 1 576 0
 2150 0034 0120     		movs	r0, #1
 2151 0036 FFF7FEFF 		bl	apolloUpdateCortex
 2152              	.LVL262:
 2153              		.loc 1 577 0
 2154 003a FFF7FEFF 		bl	apolloUpdateSystem
 2155              	.LVL263:
 2156              		.loc 1 580 0
 2157 003e 0D20     		movs	r0, #13
 2158 0040 FFF7FEFF 		bl	vexControllerGet
 2159              	.LVL264:
 2160 0044 0546     		mov	r5, r0
 2161 0046 0C20     		movs	r0, #12
 2162 0048 FFF7FEFF 		bl	vexControllerGet
 2163              	.LVL265:
 2164 004c 0646     		mov	r6, r0
 2165              	.LVL266:
 2166              	.LBB278:
ARM GAS  /var/folders/6q/x_mk5n_j3p7_c40r_2k_78980000gn/T//cc1NseUK.s 			page 39


 2167              	.LBB279:
 2168              	.LBB280:
 2169              	.LBB281:
 2170              		.loc 1 163 0
 2171 004e 0A22     		movs	r2, #10
 2172 0050 1121     		movs	r1, #17
 2173 0052 8948     		ldr	r0, .L140
 2174 0054 FFF7FEFF 		bl	vt100_printf
 2175              	.LVL267:
 2176              	.LBE281:
 2177              	.LBE280:
 2178              		.loc 1 492 0
 2179 0058 3246     		mov	r2, r6
 2180 005a 2946     		mov	r1, r5
 2181 005c 8748     		ldr	r0, .L140+4
 2182 005e FFF7FEFF 		bl	vt100_printf
 2183              	.LVL268:
 2184              	.LBE279:
 2185              	.LBE278:
 2186              		.loc 1 581 0
 2187 0062 0F20     		movs	r0, #15
 2188 0064 FFF7FEFF 		bl	vexControllerGet
 2189              	.LVL269:
 2190 0068 0546     		mov	r5, r0
 2191 006a 0E20     		movs	r0, #14
 2192 006c FFF7FEFF 		bl	vexControllerGet
 2193              	.LVL270:
 2194 0070 0646     		mov	r6, r0
 2195              	.LVL271:
 2196              	.LBB282:
 2197              	.LBB283:
 2198              	.LBB284:
 2199              	.LBB285:
 2200              		.loc 1 163 0
 2201 0072 0A22     		movs	r2, #10
 2202 0074 1221     		movs	r1, #18
 2203 0076 8048     		ldr	r0, .L140
 2204 0078 FFF7FEFF 		bl	vt100_printf
 2205              	.LVL272:
 2206              	.LBE285:
 2207              	.LBE284:
 2208              		.loc 1 492 0
 2209 007c 3246     		mov	r2, r6
 2210 007e 2946     		mov	r1, r5
 2211 0080 7E48     		ldr	r0, .L140+4
 2212 0082 FFF7FEFF 		bl	vt100_printf
 2213              	.LVL273:
 2214              	.LBE283:
 2215              	.LBE282:
 2216              		.loc 1 582 0
 2217 0086 0A20     		movs	r0, #10
 2218 0088 FFF7FEFF 		bl	vexControllerGet
 2219              	.LVL274:
 2220 008c 0546     		mov	r5, r0
 2221 008e 2046     		mov	r0, r4
 2222 0090 FFF7FEFF 		bl	vexControllerGet
 2223              	.LVL275:
ARM GAS  /var/folders/6q/x_mk5n_j3p7_c40r_2k_78980000gn/T//cc1NseUK.s 			page 40


 2224 0094 0446     		mov	r4, r0
 2225              	.LVL276:
 2226 0096 0920     		movs	r0, #9
 2227 0098 FFF7FEFF 		bl	vexControllerGet
 2228              	.LVL277:
 2229 009c 0646     		mov	r6, r0
 2230 009e 0B20     		movs	r0, #11
 2231 00a0 FFF7FEFF 		bl	vexControllerGet
 2232              	.LVL278:
 2233 00a4 2346     		mov	r3, r4
 2234 00a6 2A46     		mov	r2, r5
 2235 00a8 0221     		movs	r1, #2
 2236 00aa 0096     		str	r6, [sp]
 2237 00ac 0190     		str	r0, [sp, #4]
 2238 00ae 0020     		movs	r0, #0
 2239 00b0 FFF7FEFF 		bl	apolloUpdateJoystickButton
 2240              	.LVL279:
 2241              		.loc 1 583 0
 2242 00b4 0620     		movs	r0, #6
 2243 00b6 FFF7FEFF 		bl	vexControllerGet
 2244              	.LVL280:
 2245 00ba 0446     		mov	r4, r0
 2246 00bc 0420     		movs	r0, #4
 2247 00be FFF7FEFF 		bl	vexControllerGet
 2248              	.LVL281:
 2249 00c2 0546     		mov	r5, r0
 2250 00c4 0520     		movs	r0, #5
 2251 00c6 FFF7FEFF 		bl	vexControllerGet
 2252              	.LVL282:
 2253 00ca 0646     		mov	r6, r0
 2254 00cc 0720     		movs	r0, #7
 2255 00ce FFF7FEFF 		bl	vexControllerGet
 2256              	.LVL283:
 2257 00d2 2B46     		mov	r3, r5
 2258 00d4 2246     		mov	r2, r4
 2259 00d6 0321     		movs	r1, #3
 2260 00d8 0190     		str	r0, [sp, #4]
 2261 00da 0096     		str	r6, [sp]
 2262 00dc 0020     		movs	r0, #0
 2263 00de FFF7FEFF 		bl	apolloUpdateJoystickButton
 2264              	.LVL284:
 2265              		.loc 1 584 0
 2266 00e2 0320     		movs	r0, #3
 2267 00e4 FFF7FEFF 		bl	vexControllerGet
 2268              	.LVL285:
 2269 00e8 0446     		mov	r4, r0
 2270 00ea 0220     		movs	r0, #2
 2271 00ec FFF7FEFF 		bl	vexControllerGet
 2272              	.LVL286:
 2273 00f0 0546     		mov	r5, r0
 2274              	.LVL287:
 2275              	.LBB286:
 2276              	.LBB287:
 2277              	.LBB288:
 2278              	.LBB289:
 2279              		.loc 1 163 0
 2280 00f2 1C22     		movs	r2, #28
ARM GAS  /var/folders/6q/x_mk5n_j3p7_c40r_2k_78980000gn/T//cc1NseUK.s 			page 41


 2281 00f4 1121     		movs	r1, #17
 2282 00f6 6048     		ldr	r0, .L140
 2283 00f8 FFF7FEFF 		bl	vt100_printf
 2284              	.LVL288:
 2285              	.LBE289:
 2286              	.LBE288:
 2287              		.loc 1 509 0
 2288 00fc 2A46     		mov	r2, r5
 2289 00fe 2146     		mov	r1, r4
 2290 0100 5F48     		ldr	r0, .L140+8
 2291 0102 FFF7FEFF 		bl	vt100_printf
 2292              	.LVL289:
 2293              	.LBE287:
 2294              	.LBE286:
 2295              		.loc 1 585 0
 2296 0106 0020     		movs	r0, #0
 2297 0108 FFF7FEFF 		bl	vexControllerGet
 2298              	.LVL290:
 2299 010c 0446     		mov	r4, r0
 2300 010e 0120     		movs	r0, #1
 2301 0110 FFF7FEFF 		bl	vexControllerGet
 2302              	.LVL291:
 2303 0114 0546     		mov	r5, r0
 2304              	.LVL292:
 2305              	.LBB290:
 2306              	.LBB291:
 2307              	.LBB292:
 2308              	.LBB293:
 2309              		.loc 1 163 0
 2310 0116 1C22     		movs	r2, #28
 2311 0118 1221     		movs	r1, #18
 2312 011a 5748     		ldr	r0, .L140
 2313 011c FFF7FEFF 		bl	vt100_printf
 2314              	.LVL293:
 2315              	.LBE293:
 2316              	.LBE292:
 2317              		.loc 1 509 0
 2318 0120 2A46     		mov	r2, r5
 2319 0122 2146     		mov	r1, r4
 2320 0124 5648     		ldr	r0, .L140+8
 2321 0126 FFF7FEFF 		bl	vt100_printf
 2322              	.LVL294:
 2323              	.LBE291:
 2324              	.LBE290:
 2325              		.loc 1 586 0
 2326 012a 1020     		movs	r0, #16
 2327 012c FFF7FEFF 		bl	vexControllerGet
 2328              	.LVL295:
 2329 0130 0446     		mov	r4, r0
 2330 0132 1120     		movs	r0, #17
 2331 0134 FFF7FEFF 		bl	vexControllerGet
 2332              	.LVL296:
 2333 0138 0546     		mov	r5, r0
 2334              	.LVL297:
 2335              	.LBB294:
 2336              	.LBB295:
 2337              	.LBB296:
ARM GAS  /var/folders/6q/x_mk5n_j3p7_c40r_2k_78980000gn/T//cc1NseUK.s 			page 42


 2338              	.LBB297:
 2339              		.loc 1 163 0
 2340 013a 1C22     		movs	r2, #28
 2341 013c 1421     		movs	r1, #20
 2342 013e 4E48     		ldr	r0, .L140
 2343 0140 FFF7FEFF 		bl	vt100_printf
 2344              	.LVL298:
 2345              	.LBE297:
 2346              	.LBE296:
 2347              		.loc 1 509 0
 2348 0144 2A46     		mov	r2, r5
 2349 0146 2146     		mov	r1, r4
 2350 0148 4D48     		ldr	r0, .L140+8
 2351 014a FFF7FEFF 		bl	vt100_printf
 2352              	.LVL299:
 2353              	.LBE295:
 2354              	.LBE294:
 2355              		.loc 1 588 0
 2356 014e FFF7FEFF 		bl	vexControllerCompetitonState
 2357              	.LVL300:
 2358 0152 8307     		lsls	r3, r0, #30
 2359 0154 40F18880 		bpl	.L132
 2360              		.loc 1 591 0
 2361 0158 8D20     		movs	r0, #141
 2362 015a FFF7FEFF 		bl	vexControllerGet
 2363              	.LVL301:
 2364 015e 0446     		mov	r4, r0
 2365 0160 8C20     		movs	r0, #140
 2366 0162 FFF7FEFF 		bl	vexControllerGet
 2367              	.LVL302:
 2368 0166 0546     		mov	r5, r0
 2369              	.LVL303:
 2370              	.LBB298:
 2371              	.LBB299:
 2372              	.LBB300:
 2373              	.LBB301:
 2374              		.loc 1 163 0
 2375 0168 3222     		movs	r2, #50
 2376 016a 1121     		movs	r1, #17
 2377 016c 4248     		ldr	r0, .L140
 2378 016e FFF7FEFF 		bl	vt100_printf
 2379              	.LVL304:
 2380              	.LBE301:
 2381              	.LBE300:
 2382              		.loc 1 492 0
 2383 0172 2A46     		mov	r2, r5
 2384 0174 2146     		mov	r1, r4
 2385 0176 4148     		ldr	r0, .L140+4
 2386 0178 FFF7FEFF 		bl	vt100_printf
 2387              	.LVL305:
 2388              	.LBE299:
 2389              	.LBE298:
 2390              		.loc 1 592 0
 2391 017c 8F20     		movs	r0, #143
 2392 017e FFF7FEFF 		bl	vexControllerGet
 2393              	.LVL306:
 2394 0182 0446     		mov	r4, r0
ARM GAS  /var/folders/6q/x_mk5n_j3p7_c40r_2k_78980000gn/T//cc1NseUK.s 			page 43


 2395 0184 8E20     		movs	r0, #142
 2396 0186 FFF7FEFF 		bl	vexControllerGet
 2397              	.LVL307:
 2398 018a 0546     		mov	r5, r0
 2399              	.LVL308:
 2400              	.LBB302:
 2401              	.LBB303:
 2402              	.LBB304:
 2403              	.LBB305:
 2404              		.loc 1 163 0
 2405 018c 3222     		movs	r2, #50
 2406 018e 1221     		movs	r1, #18
 2407 0190 3948     		ldr	r0, .L140
 2408 0192 FFF7FEFF 		bl	vt100_printf
 2409              	.LVL309:
 2410              	.LBE305:
 2411              	.LBE304:
 2412              		.loc 1 492 0
 2413 0196 2A46     		mov	r2, r5
 2414 0198 2146     		mov	r1, r4
 2415 019a 3848     		ldr	r0, .L140+4
 2416 019c FFF7FEFF 		bl	vt100_printf
 2417              	.LVL310:
 2418              	.LBE303:
 2419              	.LBE302:
 2420              		.loc 1 593 0
 2421 01a0 8A20     		movs	r0, #138
 2422 01a2 FFF7FEFF 		bl	vexControllerGet
 2423              	.LVL311:
 2424 01a6 0446     		mov	r4, r0
 2425 01a8 8820     		movs	r0, #136
 2426 01aa FFF7FEFF 		bl	vexControllerGet
 2427              	.LVL312:
 2428 01ae 0546     		mov	r5, r0
 2429 01b0 8920     		movs	r0, #137
 2430 01b2 FFF7FEFF 		bl	vexControllerGet
 2431              	.LVL313:
 2432 01b6 0646     		mov	r6, r0
 2433 01b8 8B20     		movs	r0, #139
 2434 01ba FFF7FEFF 		bl	vexControllerGet
 2435              	.LVL314:
 2436 01be 2B46     		mov	r3, r5
 2437 01c0 2246     		mov	r2, r4
 2438 01c2 0221     		movs	r1, #2
 2439 01c4 0096     		str	r6, [sp]
 2440 01c6 0190     		str	r0, [sp, #4]
 2441 01c8 0120     		movs	r0, #1
 2442 01ca FFF7FEFF 		bl	apolloUpdateJoystickButton
 2443              	.LVL315:
 2444              		.loc 1 594 0
 2445 01ce 8620     		movs	r0, #134
 2446 01d0 FFF7FEFF 		bl	vexControllerGet
 2447              	.LVL316:
 2448 01d4 0446     		mov	r4, r0
 2449 01d6 8420     		movs	r0, #132
 2450 01d8 FFF7FEFF 		bl	vexControllerGet
 2451              	.LVL317:
ARM GAS  /var/folders/6q/x_mk5n_j3p7_c40r_2k_78980000gn/T//cc1NseUK.s 			page 44


 2452 01dc 0546     		mov	r5, r0
 2453 01de 8520     		movs	r0, #133
 2454 01e0 FFF7FEFF 		bl	vexControllerGet
 2455              	.LVL318:
 2456 01e4 0646     		mov	r6, r0
 2457 01e6 8720     		movs	r0, #135
 2458 01e8 FFF7FEFF 		bl	vexControllerGet
 2459              	.LVL319:
 2460 01ec 2B46     		mov	r3, r5
 2461 01ee 2246     		mov	r2, r4
 2462 01f0 0321     		movs	r1, #3
 2463 01f2 0190     		str	r0, [sp, #4]
 2464 01f4 0096     		str	r6, [sp]
 2465 01f6 0120     		movs	r0, #1
 2466 01f8 FFF7FEFF 		bl	apolloUpdateJoystickButton
 2467              	.LVL320:
 2468              		.loc 1 595 0
 2469 01fc 8320     		movs	r0, #131
 2470 01fe FFF7FEFF 		bl	vexControllerGet
 2471              	.LVL321:
 2472 0202 0446     		mov	r4, r0
 2473 0204 8220     		movs	r0, #130
 2474 0206 FFF7FEFF 		bl	vexControllerGet
 2475              	.LVL322:
 2476 020a 0546     		mov	r5, r0
 2477              	.LVL323:
 2478              	.LBB306:
 2479              	.LBB307:
 2480              	.LBB308:
 2481              	.LBB309:
 2482              		.loc 1 163 0
 2483 020c 4422     		movs	r2, #68
 2484 020e 1121     		movs	r1, #17
 2485 0210 1948     		ldr	r0, .L140
 2486 0212 FFF7FEFF 		bl	vt100_printf
 2487              	.LVL324:
 2488              	.LBE309:
 2489              	.LBE308:
 2490              		.loc 1 509 0
 2491 0216 2A46     		mov	r2, r5
 2492 0218 2146     		mov	r1, r4
 2493 021a 1948     		ldr	r0, .L140+8
 2494 021c FFF7FEFF 		bl	vt100_printf
 2495              	.LVL325:
 2496              	.LBE307:
 2497              	.LBE306:
 2498              		.loc 1 596 0
 2499 0220 8020     		movs	r0, #128
 2500 0222 FFF7FEFF 		bl	vexControllerGet
 2501              	.LVL326:
 2502 0226 0446     		mov	r4, r0
 2503 0228 8120     		movs	r0, #129
 2504 022a FFF7FEFF 		bl	vexControllerGet
 2505              	.LVL327:
 2506 022e 0546     		mov	r5, r0
 2507              	.LVL328:
 2508              	.LBB310:
ARM GAS  /var/folders/6q/x_mk5n_j3p7_c40r_2k_78980000gn/T//cc1NseUK.s 			page 45


 2509              	.LBB311:
 2510              	.LBB312:
 2511              	.LBB313:
 2512              		.loc 1 163 0
 2513 0230 4422     		movs	r2, #68
 2514 0232 1221     		movs	r1, #18
 2515 0234 1048     		ldr	r0, .L140
 2516 0236 FFF7FEFF 		bl	vt100_printf
 2517              	.LVL329:
 2518              	.LBE313:
 2519              	.LBE312:
 2520              		.loc 1 509 0
 2521 023a 2A46     		mov	r2, r5
 2522 023c 2146     		mov	r1, r4
 2523 023e 1048     		ldr	r0, .L140+8
 2524 0240 FFF7FEFF 		bl	vt100_printf
 2525              	.LVL330:
 2526              	.LBE311:
 2527              	.LBE310:
 2528              		.loc 1 597 0
 2529 0244 9020     		movs	r0, #144
 2530 0246 FFF7FEFF 		bl	vexControllerGet
 2531              	.LVL331:
 2532 024a 0446     		mov	r4, r0
 2533 024c 9120     		movs	r0, #145
 2534 024e FFF7FEFF 		bl	vexControllerGet
 2535              	.LVL332:
 2536 0252 0546     		mov	r5, r0
 2537              	.LVL333:
 2538              	.LBB314:
 2539              	.LBB315:
 2540              	.LBB316:
 2541              	.LBB317:
 2542              		.loc 1 163 0
 2543 0254 4422     		movs	r2, #68
 2544 0256 1421     		movs	r1, #20
 2545 0258 0748     		ldr	r0, .L140
 2546 025a FFF7FEFF 		bl	vt100_printf
 2547              	.LVL334:
 2548              	.LBE317:
 2549              	.LBE316:
 2550              		.loc 1 509 0
 2551 025e 2A46     		mov	r2, r5
 2552 0260 2146     		mov	r1, r4
 2553 0262 0748     		ldr	r0, .L140+8
 2554 0264 FFF7FEFF 		bl	vt100_printf
 2555              	.LVL335:
 2556              	.L132:
 2557              	.LBE315:
 2558              	.LBE314:
 2559              	.LBB318:
 2560              	.LBB319:
 2561              		.loc 1 163 0
 2562 0268 0348     		ldr	r0, .L140
 2563 026a 5022     		movs	r2, #80
 2564 026c 1821     		movs	r1, #24
 2565              	.LBE319:
ARM GAS  /var/folders/6q/x_mk5n_j3p7_c40r_2k_78980000gn/T//cc1NseUK.s 			page 46


 2566              	.LBE318:
 2567              		.loc 1 602 0
 2568 026e 02B0     		add	sp, sp, #8
 2569              		.cfi_def_cfa_offset 16
 2570              		@ sp needed
 2571 0270 BDE87040 		pop	{r4, r5, r6, lr}
 2572              		.cfi_restore 14
 2573              		.cfi_restore 6
 2574              		.cfi_restore 5
 2575              		.cfi_restore 4
 2576              		.cfi_def_cfa_offset 0
 2577              	.LBB321:
 2578              	.LBB320:
 2579              		.loc 1 163 0
 2580 0274 FFF7FEBF 		b	vt100_printf
 2581              	.LVL336:
 2582              	.L141:
 2583              		.align	2
 2584              	.L140:
 2585 0278 00000000 		.word	.LC0
 2586 027c A8010000 		.word	.LC29
 2587 0280 B0010000 		.word	.LC30
 2588              	.LBE320:
 2589              	.LBE321:
 2590              		.cfi_endproc
 2591              	.LFE88:
 2592              		.size	apolloUpdate, .-apolloUpdate
 2593              		.section	.bss.count.7994,"aw",%nobits
 2594              		.align	2
 2595              		.set	.LANCHOR0,. + 0
 2596              		.type	count.7994, %object
 2597              		.size	count.7994, 4
 2598              	count.7994:
 2599 0000 00000000 		.space	4
 2600              		.section	.rodata.str1.4,"aMS",%progbits,1
 2601              		.align	2
 2602              	.LC0:
 2603 0000 1B5B2564 		.ascii	"\033[%d;%dH\000"
 2603      3B256448 
 2603      00
 2604 0009 000000   		.space	3
 2605              	.LC1:
 2606 000c 1B5B2564 		.ascii	"\033[%dm\000"
 2606      6D00
 2607 0012 0000     		.space	2
 2608              	.LC2:
 2609 0014 204D5452 		.ascii	" MTR EID  CMD ENCODER  RPM  AMPS  TEMP \000"
 2609      20454944 
 2609      2020434D 
 2609      4420454E 
 2609      434F4445 
 2610              	.LC3:
 2611 003c 25326400 		.ascii	"%2d\000"
 2612              	.LC4:
 2613 0040 4320312D 		.ascii	"C 1-5 \000"
 2613      352000
 2614 0047 00       		.space	1
ARM GAS  /var/folders/6q/x_mk5n_j3p7_c40r_2k_78980000gn/T//cc1NseUK.s 			page 47


 2615              	.LC5:
 2616 0048 4320362D 		.ascii	"C 6-10\000"
 2616      313000
 2617 004f 00       		.space	1
 2618              	.LC6:
 2619 0050 20204449 		.ascii	"  DIGITAL          \000"
 2619      47495441 
 2619      4C202020 
 2619      20202020 
 2619      20202000 
 2620              	.LC7:
 2621 0064 25326420 		.ascii	"%2d %s\000"
 2621      257300
 2622 006b 00       		.space	1
 2623              	.LC8:
 2624 006c 2020414E 		.ascii	"  ANALOG          \000"
 2624      414C4F47 
 2624      20202020 
 2624      20202020 
 2624      202000
 2625 007f 00       		.space	1
 2626              	.LC9:
 2627 0080 20205520 		.ascii	"  U  D  L  R \000"
 2627      20442020 
 2627      4C202052 
 2627      2000
 2628 008e 0000     		.space	2
 2629              	.LC10:
 2630 0090 20202020 		.ascii	"    H     V \000"
 2630      48202020 
 2630      20205620 
 2630      00
 2631 009d 000000   		.space	3
 2632              	.LC11:
 2633 00a0 20202020 		.ascii	"    X     Y \000"
 2633      58202020 
 2633      20205920 
 2633      00
 2634 00ad 000000   		.space	3
 2635              	.LC12:
 2636 00b0 2042544E 		.ascii	" BTN5 \000"
 2636      352000
 2637 00b7 00       		.space	1
 2638              	.LC13:
 2639 00b8 2042544E 		.ascii	" BTN6 \000"
 2639      362000
 2640 00bf 00       		.space	1
 2641              	.LC14:
 2642 00c0 2042544E 		.ascii	" BTN7 \000"
 2642      372000
 2643 00c7 00       		.space	1
 2644              	.LC15:
 2645 00c8 2042544E 		.ascii	" BTN8 \000"
 2645      382000
 2646 00cf 00       		.space	1
 2647              	.LC16:
 2648 00d0 204A535F 		.ascii	" JS_1 \000"
ARM GAS  /var/folders/6q/x_mk5n_j3p7_c40r_2k_78980000gn/T//cc1NseUK.s 			page 48


 2648      312000
 2649 00d7 00       		.space	1
 2650              	.LC17:
 2651 00d8 204A535F 		.ascii	" JS_2 \000"
 2651      322000
 2652 00df 00       		.space	1
 2653              	.LC18:
 2654 00e0 20414343 		.ascii	" ACCL \000"
 2654      4C2000
 2655 00e7 00       		.space	1
 2656              	.LC19:
 2657 00e8 25326420 		.ascii	"%2d %c%4d %7d %4d %5.2f  %4.1f\000"
 2657      25632534 
 2657      64202537 
 2657      64202534 
 2657      64202535 
 2658 0107 00       		.space	1
 2659              	.LC20:
 2660 0108 2D2D2025 		.ascii	"-- %c%4d %7d %4d %5.2f  %4.1f\000"
 2660      63253464 
 2660      20253764 
 2660      20253464 
 2660      2025352E 
 2661 0126 0000     		.space	2
 2662              	.LC21:
 2663 0128 20202020 		.ascii	"    ----  ------  ---  ----  ----\000"
 2663      2D2D2D2D 
 2663      20202D2D 
 2663      2D2D2D2D 
 2663      20202D2D 
 2664 014a 0000     		.space	2
 2665              	.LC22:
 2666 014c 25352E32 		.ascii	"%5.2f  %4.1f\000"
 2666      66202025 
 2666      342E3166 
 2666      00
 2667 0159 000000   		.space	3
 2668              	.LC23:
 2669 015c 25376400 		.ascii	"%7d\000"
 2670              	.LC24:
 2671 0160 25346400 		.ascii	"%4d\000"
 2672              	.LC25:
 2673 0164 25303264 		.ascii	"%02d:%02d:%02d  \000"
 2673      3A253032 
 2673      643A2530 
 2673      32642020 
 2673      00
 2674 0175 000000   		.space	3
 2675              	.LC26:
 2676 0178 4D61696E 		.ascii	"Main %4.2fV  \000"
 2676      2025342E 
 2676      32665620 
 2676      2000
 2677 0186 0000     		.space	2
 2678              	.LC27:
 2679 0188 4261636B 		.ascii	"Backup %4.2fV\000"
 2679      75702025 
ARM GAS  /var/folders/6q/x_mk5n_j3p7_c40r_2k_78980000gn/T//cc1NseUK.s 			page 49


 2679      342E3266 
 2679      5600
 2680 0196 0000     		.space	2
 2681              	.LC28:
 2682 0198 25642020 		.ascii	"%d  %d  %d  %d\000"
 2682      25642020 
 2682      25642020 
 2682      256400
 2683 01a7 00       		.space	1
 2684              	.LC29:
 2685 01a8 25642020 		.ascii	"%d  %d\000"
 2685      256400
 2686 01af 00       		.space	1
 2687              	.LC30:
 2688 01b0 25346420 		.ascii	"%4d  %4d\000"
 2688      20253464 
 2688      00
 2689 01b9 000000   		.space	3
 2690              	.LC31:
 2691 01bc 1B5B324A 		.ascii	"\033[2J\000"
 2691      00
 2692 01c1 000000   		.space	3
 2693              	.LC32:
 2694 01c4 1B5B3F32 		.ascii	"\033[?25l\000"
 2694      356C00
 2695 01cb 00       		.space	1
 2696              	.LC33:
 2697 01cc 1B283000 		.ascii	"\033(0\000"
 2698              	.LC34:
 2699 01d0 1B284200 		.ascii	"\033(B\000"
 2700              	.LC35:
 2701 01d4 1B5B3F32 		.ascii	"\033[?25h\000"
 2701      356800
 2702              		.section	.bss.buffer.7998,"aw",%nobits
 2703              		.align	2
 2704              		.set	.LANCHOR1,. + 0
 2705              		.type	buffer.7998, %object
 2706              		.size	buffer.7998, 64
 2707              	buffer.7998:
 2708 0000 00000000 		.space	64
 2708      00000000 
 2708      00000000 
 2708      00000000 
 2708      00000000 
 2709              		.text
 2710              	.Letext0:
 2711              		.file 2 "/Users/Luca/src/vexilla/src/gcc-arm-none-eabi-5_4-2016q3/lib/gcc/arm-none-eabi/5.4.1/incl
 2712              		.file 3 "/Users/Luca/src/vexilla/src/gcc-arm-none-eabi-5_4-2016q3/arm-none-eabi/include/machine/_d
 2713              		.file 4 "/Users/Luca/src/vexilla/src/gcc-arm-none-eabi-5_4-2016q3/lib/gcc/arm-none-eabi/5.4.1/incl
 2714              		.file 5 "/Users/Luca/src/vexilla/src/gcc-arm-none-eabi-5_4-2016q3/arm-none-eabi/include/sys/_stdin
 2715              		.file 6 "../ChibiOS/os/ports/GCC/ARMCMx/chtypes.h"
 2716              		.file 7 "../ChibiOS/os/kernel/include/chlists.h"
 2717              		.file 8 "<built-in>"
 2718              		.file 9 "../ChibiOS/os/kernel/include/chthreads.h"
 2719              		.file 10 "../ChibiOS/os/ports/GCC/ARMCMx/chcore_v7m.h"
 2720              		.file 11 "../ChibiOS/os/kernel/include/chvt.h"
 2721              		.file 12 "../ChibiOS/os/kernel/include/chmtx.h"
ARM GAS  /var/folders/6q/x_mk5n_j3p7_c40r_2k_78980000gn/T//cc1NseUK.s 			page 50


 2722              		.file 13 "../ChibiOS/os/kernel/include/chevents.h"
 2723              		.file 14 "../ChibiOS/os/kernel/include/chqueues.h"
 2724              		.file 15 "../ChibiOS/os/hal/platforms/STM32F1xx/stm32f10x.h"
 2725              		.file 16 "../ChibiOS/os/hal/include/serial.h"
 2726              		.file 17 "../convex-vexilla/cortex/fw/vexmotor.h"
 2727              		.file 18 "../convex-vexilla/cortex/fw/vexconfig.h"
 2728              		.file 19 "../convex-vexilla/cortex/fw/vexctl.h"
 2729              		.file 20 "../ChibiOS/os/ports/common/ARMCMx/CMSIS/include/core_cm3.h"
 2730              		.file 21 "../convex-vexilla/cortex/fw/vexprintf.h"
 2731              		.file 22 "../convex-vexilla/cortex/opt/smartmotor.h"
 2732              		.file 23 "../convex-vexilla/cortex/fw/vexdigital.h"
 2733              		.file 24 "../convex-vexilla/cortex/fw/vexsonar.h"
 2734              		.file 25 "../convex-vexilla/cortex/fw/vexencoder.h"
 2735              		.file 26 "../convex-vexilla/cortex/fw/vexanalog.h"
 2736              		.file 27 "../convex-vexilla/cortex/fw/vexspi.h"
 2737              		.file 28 "../ChibiOS/os/hal/platforms/STM32/USARTv1/serial_lld.h"