ARM GAS  /var/folders/6q/x_mk5n_j3p7_c40r_2k_78980000gn/T//ccwzpgiy.s 			page 1


   1              		.syntax unified
   2              		.cpu cortex-m3
   3              		.fpu softvfp
   4              		.eabi_attribute 20, 1
   5              		.eabi_attribute 21, 1
   6              		.eabi_attribute 23, 3
   7              		.eabi_attribute 24, 1
   8              		.eabi_attribute 25, 1
   9              		.eabi_attribute 26, 1
  10              		.eabi_attribute 30, 2
  11              		.eabi_attribute 34, 1
  12              		.eabi_attribute 18, 4
  13              		.thumb
  14              		.syntax unified
  15              		.file	"chcore_v7m.c"
  16              		.text
  17              	.Ltext0:
  18              		.cfi_sections	.debug_frame
  19              		.section	.text._port_switch_from_isr,"ax",%progbits
  20              		.align	2
  21              		.p2align 4,,15
  22              		.global	_port_switch_from_isr
  23              		.thumb
  24              		.thumb_func
  25              		.type	_port_switch_from_isr, %function
  26              	_port_switch_from_isr:
  27              	.LFB11:
  28              		.file 1 "../ChibiOS/os/ports/GCC/ARMCMx/chcore_v7m.c"
  29              		.loc 1 207 0
  30              		.cfi_startproc
  31              		@ Naked Function: prologue and epilogue provided by programmer.
  32              		@ args = 0, pretend = 0, frame = 0
  33              		@ frame_needed = 0, uses_anonymous_args = 0
  34              		.loc 1 210 0
  35 0000 FFF7FEFF 		bl	chSchDoReschedule
  36              	.LVL0:
  37              		.loc 1 212 0
  38              		.syntax unified
  39              	@ 212 "../ChibiOS/os/ports/GCC/ARMCMx/chcore_v7m.c" 1
  40              		_port_exit_from_isr:
  41              	@ 0 "" 2
  42              		.loc 1 214 0
  43              	@ 214 "../ChibiOS/os/ports/GCC/ARMCMx/chcore_v7m.c" 1
  44 0004 00DF     		svc     #0
  45              	@ 0 "" 2
  46              		.loc 1 221 0
  47              		.thumb
  48              		.syntax unified
  49              		.cfi_endproc
  50              	.LFE11:
  51              		.size	_port_switch_from_isr, .-_port_switch_from_isr
  52 0006 00BF     		.section	.text.SVCallVector,"ax",%progbits
  53              		.align	2
  54              		.p2align 4,,15
  55              		.global	SVCallVector
  56              		.thumb
  57              		.thumb_func
ARM GAS  /var/folders/6q/x_mk5n_j3p7_c40r_2k_78980000gn/T//ccwzpgiy.s 			page 2


  58              		.type	SVCallVector, %function
  59              	SVCallVector:
  60              	.LFB8:
  61              		.loc 1 65 0
  62              		.cfi_startproc
  63              		@ args = 0, pretend = 0, frame = 0
  64              		@ frame_needed = 0, uses_anonymous_args = 0
  65              		@ link register save eliminated.
  66              		.loc 1 69 0
  67              		.syntax unified
  68              	@ 69 "../ChibiOS/os/ports/GCC/ARMCMx/chcore_v7m.c" 1
  69 0000 EFF30983 		mrs     r3, PSP
  70              	@ 0 "" 2
  71              	.LVL1:
  72              		.loc 1 80 0
  73              		.thumb
  74              		.syntax unified
  75 0004 2033     		adds	r3, r3, #32
  76              	.LVL2:
  77              		.syntax unified
  78              	@ 80 "../ChibiOS/os/ports/GCC/ARMCMx/chcore_v7m.c" 1
  79 0006 83F30988 		msr     PSP, r3
  80              	@ 0 "" 2
  81              		.thumb
  82              		.syntax unified
  83              	.LBB5:
  84              		.loc 1 81 0
  85 000a 0023     		movs	r3, #0
  86              	.LVL3:
  87              		.syntax unified
  88              	@ 81 "../ChibiOS/os/ports/GCC/ARMCMx/chcore_v7m.c" 1
  89 000c 83F31188 		msr     BASEPRI, r3
  90              	@ 0 "" 2
  91              		.thumb
  92              		.syntax unified
  93 0010 7047     		bx	lr
  94              	.LBE5:
  95              		.cfi_endproc
  96              	.LFE8:
  97              		.size	SVCallVector, .-SVCallVector
  98 0012 00BF     		.section	.text._port_init,"ax",%progbits
  99              		.align	2
 100              		.p2align 4,,15
 101              		.global	_port_init
 102              		.thumb
 103              		.thumb_func
 104              		.type	_port_init, %function
 105              	_port_init:
 106              	.LFB9:
 107              		.loc 1 118 0
 108              		.cfi_startproc
 109              		@ args = 0, pretend = 0, frame = 0
 110              		@ frame_needed = 0, uses_anonymous_args = 0
 111 0000 08B5     		push	{r3, lr}
 112              		.cfi_def_cfa_offset 8
 113              		.cfi_offset 3, -8
 114              		.cfi_offset 14, -4
ARM GAS  /var/folders/6q/x_mk5n_j3p7_c40r_2k_78980000gn/T//ccwzpgiy.s 			page 3


 115              		.loc 1 122 0
 116 0002 094A     		ldr	r2, .L5
 117              		.loc 1 121 0
 118 0004 094B     		ldr	r3, .L5+4
 119 0006 0021     		movs	r1, #0
 120 0008 9960     		str	r1, [r3, #8]
 121              		.loc 1 125 0
 122 000a 0720     		movs	r0, #7
 123              		.loc 1 122 0
 124 000c DA60     		str	r2, [r3, #12]
 125              		.loc 1 125 0
 126 000e 1021     		movs	r1, #16
 127 0010 FFF7FEFF 		bl	nvicSetSystemHandlerPriority
 128              	.LVL4:
 129              		.loc 1 127 0
 130 0014 2021     		movs	r1, #32
 131 0016 0A20     		movs	r0, #10
 132 0018 FFF7FEFF 		bl	nvicSetSystemHandlerPriority
 133              	.LVL5:
 134              		.loc 1 131 0
 135 001c BDE80840 		pop	{r3, lr}
 136              		.cfi_restore 14
 137              		.cfi_restore 3
 138              		.cfi_def_cfa_offset 0
 139              		.loc 1 129 0
 140 0020 8021     		movs	r1, #128
 141 0022 0B20     		movs	r0, #11
 142 0024 FFF7FEBF 		b	nvicSetSystemHandlerPriority
 143              	.LVL6:
 144              	.L6:
 145              		.align	2
 146              	.L5:
 147 0028 0003FA05 		.word	100270848
 148 002c 00ED00E0 		.word	-536810240
 149              		.cfi_endproc
 150              	.LFE9:
 151              		.size	_port_init, .-_port_init
 152              		.section	.text._port_irq_epilogue,"ax",%progbits
 153              		.align	2
 154              		.p2align 4,,15
 155              		.global	_port_irq_epilogue
 156              		.thumb
 157              		.thumb_func
 158              		.type	_port_irq_epilogue, %function
 159              	_port_irq_epilogue:
 160              	.LFB10:
 161              		.loc 1 148 0
 162              		.cfi_startproc
 163              		@ args = 0, pretend = 0, frame = 0
 164              		@ frame_needed = 0, uses_anonymous_args = 0
 165              		@ link register save eliminated.
 166              	.LBB13:
 167              		.loc 1 150 0
 168 0000 2023     		movs	r3, #32
 169              		.syntax unified
 170              	@ 150 "../ChibiOS/os/ports/GCC/ARMCMx/chcore_v7m.c" 1
 171 0002 83F31188 		msr     BASEPRI, r3
ARM GAS  /var/folders/6q/x_mk5n_j3p7_c40r_2k_78980000gn/T//ccwzpgiy.s 			page 4


 172              	@ 0 "" 2
 173              		.thumb
 174              		.syntax unified
 175              	.LBE13:
 176              		.loc 1 151 0
 177 0006 174B     		ldr	r3, .L15
 178 0008 5B68     		ldr	r3, [r3, #4]
 179 000a 13F40063 		ands	r3, r3, #2048
 180 000e 19D0     		beq	.L8
 181              	.LBB14:
 182              	.LBB15:
 183              		.loc 1 155 0
 184              		.syntax unified
 185              	@ 155 "../ChibiOS/os/ports/GCC/ARMCMx/chcore_v7m.c" 1
 186 0010 EFF30983 		mrs     r3, PSP
 187              	@ 0 "" 2
 188              	.LVL7:
 189              		.loc 1 160 0
 190              		.thumb
 191              		.syntax unified
 192 0014 A3F12002 		sub	r2, r3, #32
 193              	.LVL8:
 194              		.syntax unified
 195              	@ 160 "../ChibiOS/os/ports/GCC/ARMCMx/chcore_v7m.c" 1
 196 0018 82F30988 		msr     PSP, r2
 197              	@ 0 "" 2
 198              		.loc 1 165 0
 199              		.thumb
 200              		.syntax unified
 201 001c 1249     		ldr	r1, .L15+4
 202              		.loc 1 161 0
 203 001e 4FF08070 		mov	r0, #16777216
 204              		.loc 1 165 0
 205 0022 8A69     		ldr	r2, [r1, #24]
 206              	.LVL9:
 207              		.loc 1 161 0
 208 0024 43F8040C 		str	r0, [r3, #-4]
 209              		.loc 1 165 0
 210 0028 D07F     		ldrb	r0, [r2, #31]	@ zero_extendqisi2
 211 002a 70B1     		cbz	r0, .L9
 212 002c 0868     		ldr	r0, [r1]
 213 002e 9168     		ldr	r1, [r2, #8]
 214 0030 8268     		ldr	r2, [r0, #8]
 215 0032 8A42     		cmp	r2, r1
 216 0034 94BF     		ite	ls
 217 0036 0022     		movls	r2, #0
 218 0038 0122     		movhi	r2, #1
 219 003a 7AB1     		cbz	r2, .L11
 220              	.L14:
 221              		.loc 1 167 0
 222 003c 0B4A     		ldr	r2, .L15+8
 223 003e 43F8082C 		str	r2, [r3, #-8]
 224 0042 7047     		bx	lr
 225              	.LVL10:
 226              	.L8:
 227              	.LBE15:
 228              	.LBE14:
ARM GAS  /var/folders/6q/x_mk5n_j3p7_c40r_2k_78980000gn/T//ccwzpgiy.s 			page 5


 229              	.LBB17:
 230              		.loc 1 197 0
 231              		.syntax unified
 232              	@ 197 "../ChibiOS/os/ports/GCC/ARMCMx/chcore_v7m.c" 1
 233 0044 83F31188 		msr     BASEPRI, r3
 234              	@ 0 "" 2
 235              		.thumb
 236              		.syntax unified
 237 0048 7047     		bx	lr
 238              	.LVL11:
 239              	.L9:
 240              	.LBE17:
 241              	.LBB18:
 242              	.LBB16:
 243              		.loc 1 165 0
 244 004a 0868     		ldr	r0, [r1]
 245 004c 9168     		ldr	r1, [r2, #8]
 246 004e 8268     		ldr	r2, [r0, #8]
 247 0050 8A42     		cmp	r2, r1
 248 0052 34BF     		ite	cc
 249 0054 0022     		movcc	r2, #0
 250 0056 0122     		movcs	r2, #1
 251 0058 002A     		cmp	r2, #0
 252 005a EFD1     		bne	.L14
 253              	.L11:
 254              		.loc 1 176 0
 255 005c 044A     		ldr	r2, .L15+12
 256 005e 43F8082C 		str	r2, [r3, #-8]
 257 0062 7047     		bx	lr
 258              	.L16:
 259              		.align	2
 260              	.L15:
 261 0064 00ED00E0 		.word	-536810240
 262 0068 00000000 		.word	rlist
 263 006c 00000000 		.word	_port_switch_from_isr
 264 0070 04000000 		.word	_port_exit_from_isr
 265              	.LBE16:
 266              	.LBE18:
 267              		.cfi_endproc
 268              	.LFE10:
 269              		.size	_port_irq_epilogue, .-_port_irq_epilogue
 270              		.section	.text.SysTickVector,"ax",%progbits
 271              		.align	2
 272              		.p2align 4,,15
 273              		.global	SysTickVector
 274              		.thumb
 275              		.thumb_func
 276              		.type	SysTickVector, %function
 277              	SysTickVector:
 278              	.LFB7:
 279              		.loc 1 47 0
 280              		.cfi_startproc
 281              		@ args = 0, pretend = 0, frame = 0
 282              		@ frame_needed = 0, uses_anonymous_args = 0
 283 0000 08B5     		push	{r3, lr}
 284              		.cfi_def_cfa_offset 8
 285              		.cfi_offset 3, -8
ARM GAS  /var/folders/6q/x_mk5n_j3p7_c40r_2k_78980000gn/T//ccwzpgiy.s 			page 6


 286              		.cfi_offset 14, -4
 287              	.LBB19:
 288              		.loc 1 51 0
 289 0002 2023     		movs	r3, #32
 290              		.syntax unified
 291              	@ 51 "../ChibiOS/os/ports/GCC/ARMCMx/chcore_v7m.c" 1
 292 0004 83F31188 		msr     BASEPRI, r3
 293              	@ 0 "" 2
 294              		.thumb
 295              		.syntax unified
 296              	.LBE19:
 297              		.loc 1 52 0
 298 0008 FFF7FEFF 		bl	chSysTimerHandlerI
 299              	.LVL12:
 300              	.LBB20:
 301              		.loc 1 53 0
 302 000c 0023     		movs	r3, #0
 303              		.syntax unified
 304              	@ 53 "../ChibiOS/os/ports/GCC/ARMCMx/chcore_v7m.c" 1
 305 000e 83F31188 		msr     BASEPRI, r3
 306              	@ 0 "" 2
 307              		.thumb
 308              		.syntax unified
 309              	.LBE20:
 310              		.loc 1 56 0
 311 0012 BDE80840 		pop	{r3, lr}
 312              		.cfi_restore 14
 313              		.cfi_restore 3
 314              		.cfi_def_cfa_offset 0
 315              		.loc 1 55 0
 316 0016 FFF7FEBF 		b	_port_irq_epilogue
 317              	.LVL13:
 318              		.cfi_endproc
 319              	.LFE7:
 320              		.size	SysTickVector, .-SysTickVector
 321 001a 00BF     		.section	.text._port_switch,"ax",%progbits
 322              		.align	2
 323              		.p2align 4,,15
 324              		.global	_port_switch
 325              		.thumb
 326              		.thumb_func
 327              		.type	_port_switch, %function
 328              	_port_switch:
 329              	.LFB12:
 330              		.loc 1 236 0
 331              		.cfi_startproc
 332              		@ Naked Function: prologue and epilogue provided by programmer.
 333              		@ args = 0, pretend = 0, frame = 0
 334              		@ frame_needed = 0, uses_anonymous_args = 0
 335              	.LVL14:
 336              		.loc 1 238 0
 337              		.syntax unified
 338              	@ 238 "../ChibiOS/os/ports/GCC/ARMCMx/chcore_v7m.c" 1
 339 0000 2DE9F04F 		push    {r4, r5, r6, r7, r8, r9, r10, r11, lr}
 340              	@ 0 "" 2
 341              		.loc 1 244 0
 342              	@ 244 "../ChibiOS/os/ports/GCC/ARMCMx/chcore_v7m.c" 1
ARM GAS  /var/folders/6q/x_mk5n_j3p7_c40r_2k_78980000gn/T//ccwzpgiy.s 			page 7


 343 0004 C1F80CD0 		str     sp, [r1, #12]                          
 344 0008 D0F80CD0 		ldr     sp, [r0, #12]
 345              	@ 0 "" 2
 346              		.loc 1 250 0
 347              	@ 250 "../ChibiOS/os/ports/GCC/ARMCMx/chcore_v7m.c" 1
 348 000c BDE8F08F 		pop     {r4, r5, r6, r7, r8, r9, r10, r11, pc}
 349              	@ 0 "" 2
 350              		.loc 1 252 0
 351              		.thumb
 352              		.syntax unified
 353              		.cfi_endproc
 354              	.LFE12:
 355              		.size	_port_switch, .-_port_switch
 356              		.section	.text._port_thread_start,"ax",%progbits
 357              		.align	2
 358              		.p2align 4,,15
 359              		.global	_port_thread_start
 360              		.thumb
 361              		.thumb_func
 362              		.type	_port_thread_start, %function
 363              	_port_thread_start:
 364              	.LFB13:
 365              		.loc 1 259 0
 366              		.cfi_startproc
 367              		@ args = 0, pretend = 0, frame = 0
 368              		@ frame_needed = 0, uses_anonymous_args = 0
 369              		@ link register save eliminated.
 370              	.LBB21:
 371              		.loc 1 261 0
 372 0000 0023     		movs	r3, #0
 373              		.syntax unified
 374              	@ 261 "../ChibiOS/os/ports/GCC/ARMCMx/chcore_v7m.c" 1
 375 0002 83F31188 		msr     BASEPRI, r3
 376              	@ 0 "" 2
 377              		.thumb
 378              		.syntax unified
 379              	.LBE21:
 380              		.loc 1 262 0
 381              		.syntax unified
 382              	@ 262 "../ChibiOS/os/ports/GCC/ARMCMx/chcore_v7m.c" 1
 383 0006 2846     		mov     r0, r5                                 
 384 0008 A047     		blx     r4                                     
 385 000a FFF7FEFF 		bl      chThdExit
 386              	@ 0 "" 2
 387              		.thumb
 388              		.syntax unified
 389 000e 7047     		bx	lr
 390              		.cfi_endproc
 391              	.LFE13:
 392              		.size	_port_thread_start, .-_port_thread_start
 393              		.text
 394              	.Letext0:
 395              		.file 2 "/Users/Luca/src/vexilla/src/gcc-arm-none-eabi-5_4-2016q3/arm-none-eabi/include/machine/_d
 396              		.file 3 "/Users/Luca/src/vexilla/src/gcc-arm-none-eabi-5_4-2016q3/arm-none-eabi/include/sys/_stdin
 397              		.file 4 "../ChibiOS/os/ports/GCC/ARMCMx/chtypes.h"
 398              		.file 5 "../ChibiOS/os/kernel/include/chlists.h"
 399              		.file 6 "../ChibiOS/os/kernel/include/chthreads.h"
ARM GAS  /var/folders/6q/x_mk5n_j3p7_c40r_2k_78980000gn/T//ccwzpgiy.s 			page 8


 400              		.file 7 "../ChibiOS/os/ports/GCC/ARMCMx/chcore_v7m.h"
 401              		.file 8 "../ChibiOS/os/ports/common/ARMCMx/nvic.h"
 402              		.file 9 "../ChibiOS/os/kernel/include/chschd.h"
 403              		.file 10 "../ChibiOS/os/kernel/include/chmtx.h"
 404              		.file 11 "../ChibiOS/os/kernel/include/chsys.h"