ARM GAS  /var/folders/6q/x_mk5n_j3p7_c40r_2k_78980000gn/T//ccwzpgiy.s 			page 1


   1              		.syntax unified
   2              		.cpu cortex-m3
   3              		.fpu softvfp
   4              		.eabi_attribute 20, 1
   5              		.eabi_attribute 21, 1
   6              		.eabi_attribute 23, 3
   7              		.eabi_attribute 24, 1
   8              		.eabi_attribute 25, 1
   9              		.eabi_attribute 26, 1
  10              		.eabi_attribute 30, 2
  11              		.eabi_attribute 34, 1
  12              		.eabi_attribute 18, 4
  13              		.thumb
  14              		.syntax unified
  15              		.file	"chcore_v7m.c"
  16              		.text
  17              	.Ltext0:
  18              		.cfi_sections	.debug_frame
  19              		.section	.text._port_switch_from_isr,"ax",%progbits
  20              		.align	2
  21              		.p2align 4,,15
  22              		.global	_port_switch_from_isr
  23              		.thumb
  24              		.thumb_func
  25              		.type	_port_switch_from_isr, %function
  26              	_port_switch_from_isr:
  27              	.LFB11:
  28              		.file 1 "../ChibiOS/os/ports/GCC/ARMCMx/chcore_v7m.c"
  29              		.loc 1 207 0
  30              		.cfi_startproc
  31              		@ Naked Function: prologue and epilogue provided by programmer.
  32              		@ args = 0, pretend = 0, frame = 0
  33              		@ frame_needed = 0, uses_anonymous_args = 0
  34              		.loc 1 210 0
  35 0000 FFF7FEFF 		bl	chSchDoReschedule
  36              	.LVL0:
  37              		.loc 1 212 0
  38              		.syntax unified
  39              	@ 212 "../ChibiOS/os/ports/GCC/ARMCMx/chcore_v7m.c" 1
  40              		_port_exit_from_isr:
  41              	@ 0 "" 2
  42              		.loc 1 214 0
  43              	@ 214 "../ChibiOS/os/ports/GCC/ARMCMx/chcore_v7m.c" 1
  44 0004 00DF     		svc     #0
  45              	@ 0 "" 2
  46              		.loc 1 221 0
  47              		.thumb
  48              		.syntax unified
  49              		.cfi_endproc
  50              	.LFE11:
  51              		.size	_port_switch_from_isr, .-_port_switch_from_isr
  52 0006 00BF     		.section	.text.SVCallVector,"ax",%progbits
  53              		.align	2
  54              		.p2align 4,,15
  55              		.global	SVCallVector
  56              		.thumb
  57              		.thumb_func
ARM GAS  /var/folders/6q/x_mk5n_j3p7_c40r_2k_78980000gn/T//ccwzpgiy.s 			page 2


  58              		.type	SVCallVector, %function
  59              	SVCallVector:
  60              	.LFB8:
  61              		.loc 1 65 0
  62              		.cfi_startproc
  63              		@ args = 0, pretend = 0, frame = 0
  64              		@ frame_needed = 0, uses_anonymous_args = 0
  65              		@ link register save eliminated.
  66              		.loc 1 69 0
  67              		.syntax unified
  68              	@ 69 "../ChibiOS/os/ports/GCC/ARMCMx/chcore_v7m.c" 1
  69 0000 EFF30983 		mrs     r3, PSP
  70              	@ 0 "" 2
  71              	.LVL1:
  72              		.loc 1 80 0
  73              		.thumb
  74              		.syntax unified
  75 0004 2033     		adds	r3, r3, #32
  76              	.LVL2:
  77              		.syntax unified
  78              	@ 80 "../ChibiOS/os/ports/GCC/ARMCMx/chcore_v7m.c" 1
  79 0006 83F30988 		msr     PSP, r3
  80              	@ 0 "" 2
  81              		.thumb
  82              		.syntax unified
  83              	.LBB5:
  84              		.loc 1 81 0
  85 000a 0023     		movs	r3, #0
  86              	.LVL3:
  87              		.syntax unified
  88              	@ 81 "../ChibiOS/os/ports/GCC/ARMCMx/chcore_v7m.c" 1
  89 000c 83F31188 		msr     BASEPRI, r3
  90              	@ 0 "" 2
  91              		.thumb
  92              		.syntax unified
  93 0010 7047     		bx	lr
  94              	.LBE5:
  95              		.cfi_endproc
  96              	.LFE8:
  97              		.size	SVCallVector, .-SVCallVector
  98 0012 00BF     		.section	.text._port_init,"ax",%progbits
  99              		.align	2
 100              		.p2align 4,,15
 101              		.global	_port_init
 102              		.thumb
 103              		.thumb_func
 104              		.type	_port_init, %function
 105              	_port_init:
 106              	.LFB9:
 107              		.loc 1 118 0
 108              		.cfi_startproc
 109              		@ args = 0, pretend = 0, frame = 0
 110              		@ frame_needed = 0, uses_anonymous_args = 0
 111 0000 08B5     		push	{r3, lr}
 112              		.cfi_def_cfa_offset 8
 113              		.cfi_offset 3, -8
 114              		.cfi_offset 14, -4
ARM GAS  /var/folders/6q/x_mk5n_j3p7_c40r_2k_78980000gn/T//ccwzpgiy.s 			page 3


 115              		.loc 1 122 0
 116 0002 094A     		ldr	r2, .L5
 117              		.loc 1 121 0
 118 0004 094B     		ldr	r3, .L5+4
 119 0006 0021     		movs	r1, #0
 120 0008 9960     		str	r1, [r3, #8]
 121              		.loc 1 125 0
 122 000a 0720     		movs	r0, #7
 123              		.loc 1 122 0
 124 000c DA60     		str	r2, [r3, #12]
 125              		.loc 1 125 0
 126 000e 1021     		movs	r1, #16
 127 0010 FFF7FEFF 		bl	nvicSetSystemHandlerPriority
 128              	.LVL4:
 129              		.loc 1 127 0
 130 0014 2021     		movs	r1, #32
 131 0016 0A20     		movs	r0, #10
 132 0018 FFF7FEFF 		bl	nvicSetSystemHandlerPriority
 133              	.LVL5:
 134              		.loc 1 131 0
 135 001c BDE80840 		pop	{r3, lr}
 136              		.cfi_restore 14
 137              		.cfi_restore 3
 138              		.cfi_def_cfa_offset 0
 139              		.loc 1 129 0
 140 0020 8021     		movs	r1, #128
 141 0022 0B20     		movs	r0, #11
 142 0024 FFF7FEBF 		b	nvicSetSystemHandlerPriority
 143              	.LVL6:
 144              	.L6:
 145              		.align	2
 146              	.L5:
 147 0028 0003FA05 		.word	100270848
 148 002c 00ED00E0 		.word	-536810240
 149              		.cfi_endproc
 150              	.LFE9:
 151              		.size	_port_init, .-_port_init
 152              		.section	.text._port_irq_epilogue,"ax",%progbits
 153              		.align	2
 154              		.p2align 4,,15
 155              		.global	_port_irq_epilogue
 156              		.thumb
 157              		.thumb_func
 158              		.type	_port_irq_epilogue, %function
 159              	_port_irq_epilogue:
 160              	.LFB10:
 161              		.loc 1 148 0
 162              		.cfi_startproc
 163              		@ args = 0, pretend = 0, frame = 0
 164              		@ frame_needed = 0, uses_anonymous_args = 0
 165              		@ link register save eliminated.
 166              	.LBB13:
 167              		.loc 1 150 0
 168 0000 2023     		movs	r3, #32
 169              		.syntax unified
 170              	@ 150 "../ChibiOS/os/ports/GCC/ARMCMx/chcore_v7m.c" 1
 171 0002 83F31188 		msr     BASEPRI, r3
ARM GAS  /var/folders/6q/x_mk5n_j3p7_c40r_2k_78980000gn/T//ccwzpgiy.s 			page 4


 172              	@ 0 "" 2
 173              		.thumb
 174              		.syntax unified
 175              	.LBE13:
 176              		.loc 1 151 0
 177 0006 174B     		ldr	r3, .L15
 178 0008 5B68     		ldr	r3, [r3, #4]
 179 000a 13F40063 		ands	r3, r3, #2048
 180 000e 19D0     		beq	.L8
 181              	.LBB14:
 182              	.LBB15:
 183              		.loc 1 155 0
 184              		.syntax unified
 185              	@ 155 "../ChibiOS/os/ports/GCC/ARMCMx/chcore_v7m.c" 1
 186 0010 EFF30983 		mrs     r3, PSP
 187              	@ 0 "" 2
 188              	.LVL7:
 189              		.loc 1 160 0
 190              		.thumb
 191              		.syntax unified
 192 0014 A3F12002 		sub	r2, r3, #32
 193              	.LVL8:
 194              		.syntax unified
 195              	@ 160 "../ChibiOS/os/ports/GCC/ARMCMx/chcore_v7m.c" 1
 196 0018 82F30988 		msr     PSP, r2
 197              	@ 0 "" 2
 198              		.loc 1 165 0
 199              		.thumb
 200              		.syntax unified
 201 001c 1249     		ldr	r1, .L15+4
 202              		.loc 1 161 0
 203 001e 4FF08070 		mov	r0, #16777216
 204              		.loc 1 165 0
 205 0022 8A69     		ldr	r2, [r1, #24]
 206              	.LVL9:
 207              		.loc 1 161 0
 208 0024 43F8040C 		str	r0, [r3, #-4]
 209              		.loc 1 165 0
 210 0028 D07F     		ldrb	r0, [r2, #31]	@ zero_extendqisi2
 211 002a 70B1     		cbz	r0, .L9
 212 002c 0868     		ldr	r0, [r1]
 213 002e 9168     		ldr	r1, [r2, #8]
 214 0030 8268     		ldr	r2, [r0, #8]
 215 0032 8A42     		cmp	r2, r1
 216 0034 94BF     		ite	ls
 217 0036 0022     		movls	r2, #0
 218 0038 0122     		movhi	r2, #1
 219 003a 7AB1     		cbz	r2, .L11
 220              	.L14:
 221              		.loc 1 167 0
 222 003c 0B4A     		ldr	r2, .L15+8
 223 003e 43F8082C 		str	r2, [r3, #-8]
 224 0042 7047     		bx	lr
 225              	.LVL10:
 226              	.L8:
 227              	.LBE15:
 228              	.LBE14:
ARM GAS  /var/folders/6q/x_mk5n_j3p7_c40r_2k_78980000gn/T//ccwzpgiy.s 			page 5


 229              	.LBB17:
 230              		.loc 1 197 0
 231              		.syntax unified
 232              	@ 197 "../ChibiOS/os/ports/GCC/ARMCMx/chcore_v7m.c" 1
 233 0044 83F31188 		msr     BASEPRI, r3
 234              	@ 0 "" 2
 235              		.thumb
 236              		.syntax unified
 237 0048 7047     		bx	lr
 238              	.LVL11:
 239              	.L9:
 240              	.LBE17:
 241              	.LBB18:
 242              	.LBB16:
 243              		.loc 1 165 0
 244 004a 0868     		ldr	r0, [r1]
 245 004c 9168     		ldr	r1, [r2, #8]
 246 004e 8268     		ldr	r2, [r0, #8]
 247 0050 8A42     		cmp	r2, r1
 248 0052 34BF     		ite	cc
 249 0054 0022     		movcc	r2, #0
 250 0056 0122     		movcs	r2, #1
 251 0058 002A     		cmp	r2, #0
 252 005a EFD1     		bne	.L14
 253              	.L11:
 254              		.loc 1 176 0
 255 005c 044A     		ldr	r2, .L15+12
 256 005e 43F8082C 		str	r2, [r3, #-8]
 257 0062 7047     		bx	lr
 258              	.L16:
 259              		.align	2
 260              	.L15:
 261 0064 00ED00E0 		.word	-536810240
 262 0068 00000000 		.word	rlist
 263 006c 00000000 		.word	_port_switch_from_isr
 264 0070 04000000 		.word	_port_exit_from_isr
 265              	.LBE16:
 266              	.LBE18:
 267              		.cfi_endproc
 268              	.LFE10:
 269              		.size	_port_irq_epilogue, .-_port_irq_epilogue
 270              		.section	.text.SysTickVector,"ax",%progbits
 271              		.align	2
 272              		.p2align 4,,15
 273              		.global	SysTickVector
 274              		.thumb
 275              		.thumb_func
 276              		.type	SysTickVector, %function
 277              	SysTickVector:
 278              	.LFB7:
 279              		.loc 1 47 0
 280              		.cfi_startproc
 281              		@ args = 0, pretend = 0, frame = 0
 282              		@ frame_needed = 0, uses_anonymous_args = 0
 283 0000 08B5     		push	{r3, lr}
 284              		.cfi_def_cfa_offset 8
 285              		.cfi_offset 3, -8
ARM GAS  /var/folders/6q/x_mk5n_j3p7_c40r_2k_78980000gn/T//ccwzpgiy.s 			page 6


 286              		.cfi_offset 14, -4
 287              	.LBB19:
 288              		.loc 1 51 0
 289 0002 2023     		movs	r3, #32
 290              		.syntax unified
 291              	@ 51 "../ChibiOS/os/ports/GCC/ARMCMx/chcore_v7m.c" 1
 292 0004 83F31188 		msr     BASEPRI, r3
 293              	@ 0 "" 2
 294              		.thumb
 295              		.syntax unified
 296              	.LBE19:
 297              		.loc 1 52 0
 298 0008 FFF7FEFF 		bl	chSysTimerHandlerI
 299              	.LVL12:
 300              	.LBB20:
 301              		.loc 1 53 0
 302 000c 0023     		movs	r3, #0
 303              		.syntax unified
 304              	@ 53 "../ChibiOS/os/ports/GCC/ARMCMx/chcore_v7m.c" 1
 305 000e 83F31188 		msr     BASEPRI, r3
 306              	@ 0 "" 2
 307              		.thumb
 308              		.syntax unified
 309              	.LBE20:
 310              		.loc 1 56 0
 311 0012 BDE80840 		pop	{r3, lr}
 312              		.cfi_restore 14
 313              		.cfi_restore 3
 314              		.cfi_def_cfa_offset 0
 315              		.loc 1 55 0
 316 0016 FFF7FEBF 		b	_port_irq_epilogue
 317              	.LVL13:
 318              		.cfi_endproc
 319              	.LFE7:
 320              		.size	SysTickVector, .-SysTickVector
 321 001a 00BF     		.section	.text._port_switch,"ax",%progbits
 322              		.align	2
 323              		.p2align 4,,15
 324              		.global	_port_switch
 325              		.thumb
 326              		.thumb_func
 327              		.type	_port_switch, %function
 328              	_port_switch:
 329              	.LFB12:
 330              		.loc 1 236 0
 331              		.cfi_startproc
 332              		@ Naked Function: prologue and epilogue provided by programmer.
 333              		@ args = 0, pretend = 0, frame = 0
 334              		@ frame_needed = 0, uses_anonymous_args = 0
 335              	.LVL14:
 336              		.loc 1 238 0
 337              		.syntax unified
 338              	@ 238 "../ChibiOS/os/ports/GCC/ARMCMx/chcore_v7m.c" 1
 339 0000 2DE9F04F 		push    {r4, r5, r6, r7, r8, r9, r10, r11, lr}
 340              	@ 0 "" 2
 341              		.loc 1 244 0
 342              	@ 244 "../ChibiOS/os/ports/GCC/ARMCMx/chcore_v7m.c" 1
ARM GAS  /var/folders/6q/x_mk5n_j3p7_c40r_2k_78980000gn/T//ccwzpgiy.s 			page 7


 343 0004 C1F80CD0 		str     sp, [r1, #12]                          
 344 0008 D0F80CD0 		ldr     sp, [r0, #12]
 345              	@ 0 "" 2
 346              		.loc 1 250 0
 347              	@ 250 "../ChibiOS/os/ports/GCC/ARMCMx/chcore_v7m.c" 1
 348 000c BDE8F08F 		pop     {r4, r5, r6, r7, r8, r9, r10, r11, pc}
 349              	@ 0 "" 2
 350              		.loc 1 252 0
 351              		.thumb
 352              		.syntax unified
 353              		.cfi_endproc
 354              	.LFE12:
 355              		.size	_port_switch, .-_port_switch
 356              		.section	.text._port_thread_start,"ax",%progbits
 357              		.align	2
 358              		.p2align 4,,15
 359              		.global	_port_thread_start
 360              		.thumb
 361              		.thumb_func
 362              		.type	_port_thread_start, %function
 363              	_port_thread_start:
 364              	.LFB13:
 365              		.loc 1 259 0
 366              		.cfi_startproc
 367              		@ args = 0, pretend = 0, frame = 0
 368              		@ frame_needed = 0, uses_anonymous_args = 0
 369              		@ link register save eliminated.
 370              	.LBB21:
 371              		.loc 1 261 0
 372 0000 0023     		movs	r3, #0
 373              		.syntax unified
 374              	@ 261 "../ChibiOS/os/ports/GCC/ARMCMx/chcore_v7m.c" 1
 375 0002 83F31188 		msr     BASEPRI, r3
 376              	@ 0 "" 2
 377              		.thumb
 378              		.syntax unified
 379              	.LBE21:
 380              		.loc 1 262 0
 381              		.syntax unified
 382              	@ 262 "../ChibiOS/os/ports/GCC/ARMCMx/chcore_v7m.c" 1
 383 0006 2846     		mov     r0, r5                                 
 384 0008 A047     		blx     r4                                     
 385 000a FFF7FEFF 		bl      chThdExit
 386              	@ 0 "" 2
 387              		.thumb
 388              		.syntax unified
 389 000e 7047     		bx	lr
 390              		.cfi_endproc
 391              	.LFE13:
 392              		.size	_port_thread_start, .-_port_thread_start
 393              		.text
 394              	.Letext0:
 395              		.file 2 "/Users/Luca/src/vexilla/src/gcc-arm-none-eabi-5_4-2016q3/arm-none-eabi/include/machine/_d
 396              		.file 3 "/Users/Luca/src/vexilla/src/gcc-arm-none-eabi-5_4-2016q3/arm-none-eabi/include/sys/_stdin
 397              		.file 4 "../ChibiOS/os/ports/GCC/ARMCMx/chtypes.h"
 398              		.file 5 "../ChibiOS/os/kernel/include/chlists.h"
 399              		.file 6 "../ChibiOS/os/kernel/include/chthreads.h"
ARM GAS  /var/folders/6q/x_mk5n_j3p7_c40r_2k_78980000gn/T//ccwzpgiy.s 			page 8


 400              		.file 7 "../ChibiOS/os/ports/GCC/ARMCMx/chcore_v7m.h"
 401              		.file 8 "../ChibiOS/os/ports/common/ARMCMx/nvic.h"
 402              		.file 9 "../ChibiOS/os/kernel/include/chschd.h"
 403              		.file 10 "../ChibiOS/os/kernel/include/chmtx.h"
 404              		.file 11 "../ChibiOS/os/kernel/include/chsys.h"
 405              		.section	.debug_info,"",%progbits
 406              	.Ldebug_info0:
 407 0000 1C080000 		.4byte	0x81c
 408 0004 0400     		.2byte	0x4
 409 0006 00000000 		.4byte	.Ldebug_abbrev0
 410 000a 04       		.byte	0x4
 411 000b 01       		.uleb128 0x1
 412 000c 8E010000 		.4byte	.LASF97
 413 0010 0C       		.byte	0xc
 414 0011 87000000 		.4byte	.LASF98
 415 0015 F8030000 		.4byte	.LASF99
 416 0019 18000000 		.4byte	.Ldebug_ranges0+0x18
 417 001d 00000000 		.4byte	0
 418 0021 00000000 		.4byte	.Ldebug_line0
 419 0025 02       		.uleb128 0x2
 420 0026 04       		.byte	0x4
 421 0027 05       		.byte	0x5
 422 0028 696E7400 		.ascii	"int\000"
 423 002c 03       		.uleb128 0x3
 424 002d 04       		.byte	0x4
 425 002e 07       		.byte	0x7
 426 002f 4F010000 		.4byte	.LASF0
 427 0033 03       		.uleb128 0x3
 428 0034 08       		.byte	0x8
 429 0035 05       		.byte	0x5
 430 0036 6D000000 		.4byte	.LASF1
 431 003a 03       		.uleb128 0x3
 432 003b 08       		.byte	0x8
 433 003c 04       		.byte	0x4
 434 003d FF020000 		.4byte	.LASF2
 435 0041 03       		.uleb128 0x3
 436 0042 01       		.byte	0x1
 437 0043 06       		.byte	0x6
 438 0044 7B000000 		.4byte	.LASF3
 439 0048 04       		.uleb128 0x4
 440 0049 0D000000 		.4byte	.LASF7
 441 004d 02       		.byte	0x2
 442 004e 1D       		.byte	0x1d
 443 004f 53000000 		.4byte	0x53
 444 0053 03       		.uleb128 0x3
 445 0054 01       		.byte	0x1
 446 0055 08       		.byte	0x8
 447 0056 67030000 		.4byte	.LASF4
 448 005a 03       		.uleb128 0x3
 449 005b 02       		.byte	0x2
 450 005c 05       		.byte	0x5
 451 005d 85030000 		.4byte	.LASF5
 452 0061 03       		.uleb128 0x3
 453 0062 02       		.byte	0x2
 454 0063 07       		.byte	0x7
 455 0064 86020000 		.4byte	.LASF6
 456 0068 04       		.uleb128 0x4
ARM GAS  /var/folders/6q/x_mk5n_j3p7_c40r_2k_78980000gn/T//ccwzpgiy.s 			page 9


 457 0069 3E040000 		.4byte	.LASF8
 458 006d 02       		.byte	0x2
 459 006e 3F       		.byte	0x3f
 460 006f 73000000 		.4byte	0x73
 461 0073 03       		.uleb128 0x3
 462 0074 04       		.byte	0x4
 463 0075 05       		.byte	0x5
 464 0076 CD000000 		.4byte	.LASF9
 465 007a 04       		.uleb128 0x4
 466 007b 0C010000 		.4byte	.LASF10
 467 007f 02       		.byte	0x2
 468 0080 41       		.byte	0x41
 469 0081 85000000 		.4byte	0x85
 470 0085 03       		.uleb128 0x3
 471 0086 04       		.byte	0x4
 472 0087 07       		.byte	0x7
 473 0088 77010000 		.4byte	.LASF11
 474 008c 03       		.uleb128 0x3
 475 008d 08       		.byte	0x8
 476 008e 07       		.byte	0x7
 477 008f 40000000 		.4byte	.LASF12
 478 0093 04       		.uleb128 0x4
 479 0094 82040000 		.4byte	.LASF13
 480 0098 03       		.byte	0x3
 481 0099 18       		.byte	0x18
 482 009a 48000000 		.4byte	0x48
 483 009e 04       		.uleb128 0x4
 484 009f 5F030000 		.4byte	.LASF14
 485 00a3 03       		.byte	0x3
 486 00a4 2C       		.byte	0x2c
 487 00a5 68000000 		.4byte	0x68
 488 00a9 04       		.uleb128 0x4
 489 00aa D5030000 		.4byte	.LASF15
 490 00ae 03       		.byte	0x3
 491 00af 30       		.byte	0x30
 492 00b0 7A000000 		.4byte	0x7a
 493 00b4 03       		.uleb128 0x3
 494 00b5 01       		.byte	0x1
 495 00b6 02       		.byte	0x2
 496 00b7 59030000 		.4byte	.LASF16
 497 00bb 04       		.uleb128 0x4
 498 00bc D0020000 		.4byte	.LASF17
 499 00c0 04       		.byte	0x4
 500 00c1 2C       		.byte	0x2c
 501 00c2 93000000 		.4byte	0x93
 502 00c6 04       		.uleb128 0x4
 503 00c7 E3000000 		.4byte	.LASF18
 504 00cb 04       		.byte	0x4
 505 00cc 2D       		.byte	0x2d
 506 00cd 93000000 		.4byte	0x93
 507 00d1 04       		.uleb128 0x4
 508 00d2 3D030000 		.4byte	.LASF19
 509 00d6 04       		.byte	0x4
 510 00d7 2E       		.byte	0x2e
 511 00d8 93000000 		.4byte	0x93
 512 00dc 04       		.uleb128 0x4
 513 00dd C3000000 		.4byte	.LASF20
ARM GAS  /var/folders/6q/x_mk5n_j3p7_c40r_2k_78980000gn/T//ccwzpgiy.s 			page 10


 514 00e1 04       		.byte	0x4
 515 00e2 2F       		.byte	0x2f
 516 00e3 93000000 		.4byte	0x93
 517 00e7 04       		.uleb128 0x4
 518 00e8 51030000 		.4byte	.LASF21
 519 00ec 04       		.byte	0x4
 520 00ed 30       		.byte	0x30
 521 00ee A9000000 		.4byte	0xa9
 522 00f2 04       		.uleb128 0x4
 523 00f3 9E020000 		.4byte	.LASF22
 524 00f7 04       		.byte	0x4
 525 00f8 31       		.byte	0x31
 526 00f9 9E000000 		.4byte	0x9e
 527 00fd 04       		.uleb128 0x4
 528 00fe E4020000 		.4byte	.LASF23
 529 0102 04       		.byte	0x4
 530 0103 33       		.byte	0x33
 531 0104 A9000000 		.4byte	0xa9
 532 0108 04       		.uleb128 0x4
 533 0109 29040000 		.4byte	.LASF24
 534 010d 04       		.byte	0x4
 535 010e 35       		.byte	0x35
 536 010f A9000000 		.4byte	0xa9
 537 0113 04       		.uleb128 0x4
 538 0114 C3030000 		.4byte	.LASF25
 539 0118 05       		.byte	0x5
 540 0119 2A       		.byte	0x2a
 541 011a 1E010000 		.4byte	0x11e
 542 011e 05       		.uleb128 0x5
 543 011f C3030000 		.4byte	.LASF25
 544 0123 48       		.byte	0x48
 545 0124 06       		.byte	0x6
 546 0125 5E       		.byte	0x5e
 547 0126 1B020000 		.4byte	0x21b
 548 012a 06       		.uleb128 0x6
 549 012b B4030000 		.4byte	.LASF26
 550 012f 06       		.byte	0x6
 551 0130 5F       		.byte	0x5f
 552 0131 3C020000 		.4byte	0x23c
 553 0135 00       		.byte	0
 554 0136 06       		.uleb128 0x6
 555 0137 4A030000 		.4byte	.LASF27
 556 013b 06       		.byte	0x6
 557 013c 61       		.byte	0x61
 558 013d 3C020000 		.4byte	0x23c
 559 0141 04       		.byte	0x4
 560 0142 06       		.uleb128 0x6
 561 0143 66000000 		.4byte	.LASF28
 562 0147 06       		.byte	0x6
 563 0148 63       		.byte	0x63
 564 0149 E7000000 		.4byte	0xe7
 565 014d 08       		.byte	0x8
 566 014e 06       		.uleb128 0x6
 567 014f B6040000 		.4byte	.LASF29
 568 0153 06       		.byte	0x6
 569 0154 64       		.byte	0x64
 570 0155 5E030000 		.4byte	0x35e
ARM GAS  /var/folders/6q/x_mk5n_j3p7_c40r_2k_78980000gn/T//ccwzpgiy.s 			page 11


 571 0159 0C       		.byte	0xc
 572 015a 06       		.uleb128 0x6
 573 015b FF000000 		.4byte	.LASF30
 574 015f 06       		.byte	0x6
 575 0160 66       		.byte	0x66
 576 0161 3C020000 		.4byte	0x23c
 577 0165 10       		.byte	0x10
 578 0166 06       		.uleb128 0x6
 579 0167 10030000 		.4byte	.LASF31
 580 016b 06       		.byte	0x6
 581 016c 67       		.byte	0x67
 582 016d 3C020000 		.4byte	0x23c
 583 0171 14       		.byte	0x14
 584 0172 06       		.uleb128 0x6
 585 0173 9C040000 		.4byte	.LASF32
 586 0177 06       		.byte	0x6
 587 0178 6E       		.byte	0x6e
 588 0179 D7050000 		.4byte	0x5d7
 589 017d 18       		.byte	0x18
 590 017e 06       		.uleb128 0x6
 591 017f 8F030000 		.4byte	.LASF33
 592 0183 06       		.byte	0x6
 593 0184 79       		.byte	0x79
 594 0185 C6000000 		.4byte	0xc6
 595 0189 1C       		.byte	0x1c
 596 018a 06       		.uleb128 0x6
 597 018b BB030000 		.4byte	.LASF34
 598 018f 06       		.byte	0x6
 599 0190 7D       		.byte	0x7d
 600 0191 BB000000 		.4byte	0xbb
 601 0195 1D       		.byte	0x1d
 602 0196 06       		.uleb128 0x6
 603 0197 66040000 		.4byte	.LASF35
 604 019b 06       		.byte	0x6
 605 019c 82       		.byte	0x82
 606 019d D1000000 		.4byte	0xd1
 607 01a1 1E       		.byte	0x1e
 608 01a2 06       		.uleb128 0x6
 609 01a3 97030000 		.4byte	.LASF36
 610 01a7 06       		.byte	0x6
 611 01a8 88       		.byte	0x88
 612 01a9 DC000000 		.4byte	0xdc
 613 01ad 1F       		.byte	0x1f
 614 01ae 06       		.uleb128 0x6
 615 01af 48040000 		.4byte	.LASF37
 616 01b3 06       		.byte	0x6
 617 01b4 8F       		.byte	0x8f
 618 01b5 FF040000 		.4byte	0x4ff
 619 01b9 20       		.byte	0x20
 620 01ba 07       		.uleb128 0x7
 621 01bb 705F7500 		.ascii	"p_u\000"
 622 01bf 06       		.byte	0x6
 623 01c0 B4       		.byte	0xb4
 624 01c1 A2050000 		.4byte	0x5a2
 625 01c5 24       		.byte	0x24
 626 01c6 06       		.uleb128 0x6
 627 01c7 BC040000 		.4byte	.LASF38
ARM GAS  /var/folders/6q/x_mk5n_j3p7_c40r_2k_78980000gn/T//ccwzpgiy.s 			page 12


 628 01cb 06       		.byte	0x6
 629 01cc B9       		.byte	0xb9
 630 01cd 62020000 		.4byte	0x262
 631 01d1 28       		.byte	0x28
 632 01d2 06       		.uleb128 0x6
 633 01d3 5B040000 		.4byte	.LASF39
 634 01d7 06       		.byte	0x6
 635 01d8 BF       		.byte	0xbf
 636 01d9 42020000 		.4byte	0x242
 637 01dd 2C       		.byte	0x2c
 638 01de 06       		.uleb128 0x6
 639 01df 00000000 		.4byte	.LASF40
 640 01e3 06       		.byte	0x6
 641 01e4 C3       		.byte	0xc3
 642 01e5 F2000000 		.4byte	0xf2
 643 01e9 34       		.byte	0x34
 644 01ea 06       		.uleb128 0x6
 645 01eb CA030000 		.4byte	.LASF41
 646 01ef 06       		.byte	0x6
 647 01f0 C9       		.byte	0xc9
 648 01f1 FD000000 		.4byte	0xfd
 649 01f5 38       		.byte	0x38
 650 01f6 06       		.uleb128 0x6
 651 01f7 7B030000 		.4byte	.LASF42
 652 01fb 06       		.byte	0x6
 653 01fc D0       		.byte	0xd0
 654 01fd E9050000 		.4byte	0x5e9
 655 0201 3C       		.byte	0x3c
 656 0202 06       		.uleb128 0x6
 657 0203 33040000 		.4byte	.LASF43
 658 0207 06       		.byte	0x6
 659 0208 D4       		.byte	0xd4
 660 0209 E7000000 		.4byte	0xe7
 661 020d 40       		.byte	0x40
 662 020e 06       		.uleb128 0x6
 663 020f B3000000 		.4byte	.LASF44
 664 0213 06       		.byte	0x6
 665 0214 DA       		.byte	0xda
 666 0215 78020000 		.4byte	0x278
 667 0219 44       		.byte	0x44
 668 021a 00       		.byte	0
 669 021b 08       		.uleb128 0x8
 670 021c 08       		.byte	0x8
 671 021d 05       		.byte	0x5
 672 021e 61       		.byte	0x61
 673 021f 3C020000 		.4byte	0x23c
 674 0223 06       		.uleb128 0x6
 675 0224 B4030000 		.4byte	.LASF26
 676 0228 05       		.byte	0x5
 677 0229 62       		.byte	0x62
 678 022a 3C020000 		.4byte	0x23c
 679 022e 00       		.byte	0
 680 022f 06       		.uleb128 0x6
 681 0230 4A030000 		.4byte	.LASF27
 682 0234 05       		.byte	0x5
 683 0235 64       		.byte	0x64
 684 0236 3C020000 		.4byte	0x23c
ARM GAS  /var/folders/6q/x_mk5n_j3p7_c40r_2k_78980000gn/T//ccwzpgiy.s 			page 13


 685 023a 04       		.byte	0x4
 686 023b 00       		.byte	0
 687 023c 09       		.uleb128 0x9
 688 023d 04       		.byte	0x4
 689 023e 13010000 		.4byte	0x113
 690 0242 04       		.uleb128 0x4
 691 0243 1E030000 		.4byte	.LASF45
 692 0247 05       		.byte	0x5
 693 0248 66       		.byte	0x66
 694 0249 1B020000 		.4byte	0x21b
 695 024d 08       		.uleb128 0x8
 696 024e 04       		.byte	0x4
 697 024f 05       		.byte	0x5
 698 0250 6B       		.byte	0x6b
 699 0251 62020000 		.4byte	0x262
 700 0255 06       		.uleb128 0x6
 701 0256 B4030000 		.4byte	.LASF26
 702 025a 05       		.byte	0x5
 703 025b 6D       		.byte	0x6d
 704 025c 3C020000 		.4byte	0x23c
 705 0260 00       		.byte	0
 706 0261 00       		.byte	0
 707 0262 04       		.uleb128 0x4
 708 0263 D8020000 		.4byte	.LASF46
 709 0267 05       		.byte	0x5
 710 0268 70       		.byte	0x70
 711 0269 4D020000 		.4byte	0x24d
 712 026d 04       		.uleb128 0x4
 713 026e 34010000 		.4byte	.LASF47
 714 0272 07       		.byte	0x7
 715 0273 E5       		.byte	0xe5
 716 0274 78020000 		.4byte	0x278
 717 0278 0A       		.uleb128 0xa
 718 0279 04       		.byte	0x4
 719 027a 05       		.uleb128 0x5
 720 027b 63010000 		.4byte	.LASF48
 721 027f 20       		.byte	0x20
 722 0280 07       		.byte	0x7
 723 0281 ED       		.byte	0xed
 724 0282 E2020000 		.4byte	0x2e2
 725 0286 07       		.uleb128 0x7
 726 0287 723000   		.ascii	"r0\000"
 727 028a 07       		.byte	0x7
 728 028b EE       		.byte	0xee
 729 028c 6D020000 		.4byte	0x26d
 730 0290 00       		.byte	0
 731 0291 07       		.uleb128 0x7
 732 0292 723100   		.ascii	"r1\000"
 733 0295 07       		.byte	0x7
 734 0296 EF       		.byte	0xef
 735 0297 6D020000 		.4byte	0x26d
 736 029b 04       		.byte	0x4
 737 029c 07       		.uleb128 0x7
 738 029d 723200   		.ascii	"r2\000"
 739 02a0 07       		.byte	0x7
 740 02a1 F0       		.byte	0xf0
 741 02a2 6D020000 		.4byte	0x26d
ARM GAS  /var/folders/6q/x_mk5n_j3p7_c40r_2k_78980000gn/T//ccwzpgiy.s 			page 14


 742 02a6 08       		.byte	0x8
 743 02a7 07       		.uleb128 0x7
 744 02a8 723300   		.ascii	"r3\000"
 745 02ab 07       		.byte	0x7
 746 02ac F1       		.byte	0xf1
 747 02ad 6D020000 		.4byte	0x26d
 748 02b1 0C       		.byte	0xc
 749 02b2 07       		.uleb128 0x7
 750 02b3 72313200 		.ascii	"r12\000"
 751 02b7 07       		.byte	0x7
 752 02b8 F2       		.byte	0xf2
 753 02b9 6D020000 		.4byte	0x26d
 754 02bd 10       		.byte	0x10
 755 02be 06       		.uleb128 0x6
 756 02bf 5C010000 		.4byte	.LASF49
 757 02c3 07       		.byte	0x7
 758 02c4 F3       		.byte	0xf3
 759 02c5 6D020000 		.4byte	0x26d
 760 02c9 14       		.byte	0x14
 761 02ca 07       		.uleb128 0x7
 762 02cb 706300   		.ascii	"pc\000"
 763 02ce 07       		.byte	0x7
 764 02cf F4       		.byte	0xf4
 765 02d0 6D020000 		.4byte	0x26d
 766 02d4 18       		.byte	0x18
 767 02d5 06       		.uleb128 0x6
 768 02d6 A1030000 		.4byte	.LASF50
 769 02da 07       		.byte	0x7
 770 02db F5       		.byte	0xf5
 771 02dc 6D020000 		.4byte	0x26d
 772 02e0 1C       		.byte	0x1c
 773 02e1 00       		.byte	0
 774 02e2 0B       		.uleb128 0xb
 775 02e3 54040000 		.4byte	.LASF51
 776 02e7 24       		.byte	0x24
 777 02e8 07       		.byte	0x7
 778 02e9 0C01     		.2byte	0x10c
 779 02eb 5E030000 		.4byte	0x35e
 780 02ef 0C       		.uleb128 0xc
 781 02f0 723400   		.ascii	"r4\000"
 782 02f3 07       		.byte	0x7
 783 02f4 1F01     		.2byte	0x11f
 784 02f6 6D020000 		.4byte	0x26d
 785 02fa 00       		.byte	0
 786 02fb 0C       		.uleb128 0xc
 787 02fc 723500   		.ascii	"r5\000"
 788 02ff 07       		.byte	0x7
 789 0300 2001     		.2byte	0x120
 790 0302 6D020000 		.4byte	0x26d
 791 0306 04       		.byte	0x4
 792 0307 0C       		.uleb128 0xc
 793 0308 723600   		.ascii	"r6\000"
 794 030b 07       		.byte	0x7
 795 030c 2101     		.2byte	0x121
 796 030e 6D020000 		.4byte	0x26d
 797 0312 08       		.byte	0x8
 798 0313 0C       		.uleb128 0xc
ARM GAS  /var/folders/6q/x_mk5n_j3p7_c40r_2k_78980000gn/T//ccwzpgiy.s 			page 15


 799 0314 723700   		.ascii	"r7\000"
 800 0317 07       		.byte	0x7
 801 0318 2201     		.2byte	0x122
 802 031a 6D020000 		.4byte	0x26d
 803 031e 0C       		.byte	0xc
 804 031f 0C       		.uleb128 0xc
 805 0320 723800   		.ascii	"r8\000"
 806 0323 07       		.byte	0x7
 807 0324 2301     		.2byte	0x123
 808 0326 6D020000 		.4byte	0x26d
 809 032a 10       		.byte	0x10
 810 032b 0C       		.uleb128 0xc
 811 032c 723900   		.ascii	"r9\000"
 812 032f 07       		.byte	0x7
 813 0330 2401     		.2byte	0x124
 814 0332 6D020000 		.4byte	0x26d
 815 0336 14       		.byte	0x14
 816 0337 0C       		.uleb128 0xc
 817 0338 72313000 		.ascii	"r10\000"
 818 033c 07       		.byte	0x7
 819 033d 2501     		.2byte	0x125
 820 033f 6D020000 		.4byte	0x26d
 821 0343 18       		.byte	0x18
 822 0344 0C       		.uleb128 0xc
 823 0345 72313100 		.ascii	"r11\000"
 824 0349 07       		.byte	0x7
 825 034a 2601     		.2byte	0x126
 826 034c 6D020000 		.4byte	0x26d
 827 0350 1C       		.byte	0x1c
 828 0351 0C       		.uleb128 0xc
 829 0352 6C7200   		.ascii	"lr\000"
 830 0355 07       		.byte	0x7
 831 0356 2701     		.2byte	0x127
 832 0358 6D020000 		.4byte	0x26d
 833 035c 20       		.byte	0x20
 834 035d 00       		.byte	0
 835 035e 0B       		.uleb128 0xb
 836 035f 7E020000 		.4byte	.LASF52
 837 0363 04       		.byte	0x4
 838 0364 07       		.byte	0x7
 839 0365 3101     		.2byte	0x131
 840 0367 79030000 		.4byte	0x379
 841 036b 0C       		.uleb128 0xc
 842 036c 72313300 		.ascii	"r13\000"
 843 0370 07       		.byte	0x7
 844 0371 3201     		.2byte	0x132
 845 0373 79030000 		.4byte	0x379
 846 0377 00       		.byte	0
 847 0378 00       		.byte	0
 848 0379 09       		.uleb128 0x9
 849 037a 04       		.byte	0x4
 850 037b E2020000 		.4byte	0x2e2
 851 037f 04       		.uleb128 0x4
 852 0380 1A040000 		.4byte	.LASF53
 853 0384 08       		.byte	0x8
 854 0385 3A       		.byte	0x3a
 855 0386 8A030000 		.4byte	0x38a
ARM GAS  /var/folders/6q/x_mk5n_j3p7_c40r_2k_78980000gn/T//ccwzpgiy.s 			page 16


 856 038a 0D       		.uleb128 0xd
 857 038b A9000000 		.4byte	0xa9
 858 038f 03       		.uleb128 0x3
 859 0390 04       		.byte	0x4
 860 0391 07       		.byte	0x7
 861 0392 F6020000 		.4byte	.LASF54
 862 0396 08       		.uleb128 0x8
 863 0397 8C       		.byte	0x8c
 864 0398 08       		.byte	0x8
 865 0399 89       		.byte	0x89
 866 039a 9B040000 		.4byte	0x49b
 867 039e 06       		.uleb128 0x6
 868 039f 60000000 		.4byte	.LASF55
 869 03a3 08       		.byte	0x8
 870 03a4 8A       		.byte	0x8a
 871 03a5 7F030000 		.4byte	0x37f
 872 03a9 00       		.byte	0
 873 03aa 06       		.uleb128 0x6
 874 03ab 99020000 		.4byte	.LASF56
 875 03af 08       		.byte	0x8
 876 03b0 8B       		.byte	0x8b
 877 03b1 7F030000 		.4byte	0x37f
 878 03b5 04       		.byte	0x4
 879 03b6 06       		.uleb128 0x6
 880 03b7 89010000 		.4byte	.LASF57
 881 03bb 08       		.byte	0x8
 882 03bc 8C       		.byte	0x8c
 883 03bd 7F030000 		.4byte	0x37f
 884 03c1 08       		.byte	0x8
 885 03c2 06       		.uleb128 0x6
 886 03c3 A4020000 		.4byte	.LASF58
 887 03c7 08       		.byte	0x8
 888 03c8 8D       		.byte	0x8d
 889 03c9 7F030000 		.4byte	0x37f
 890 03cd 0C       		.byte	0xc
 891 03ce 07       		.uleb128 0x7
 892 03cf 53435200 		.ascii	"SCR\000"
 893 03d3 08       		.byte	0x8
 894 03d4 8E       		.byte	0x8e
 895 03d5 7F030000 		.4byte	0x37f
 896 03d9 10       		.byte	0x10
 897 03da 07       		.uleb128 0x7
 898 03db 43435200 		.ascii	"CCR\000"
 899 03df 08       		.byte	0x8
 900 03e0 8F       		.byte	0x8f
 901 03e1 7F030000 		.4byte	0x37f
 902 03e5 14       		.byte	0x14
 903 03e6 06       		.uleb128 0x6
 904 03e7 4F040000 		.4byte	.LASF59
 905 03eb 08       		.byte	0x8
 906 03ec 90       		.byte	0x90
 907 03ed AB040000 		.4byte	0x4ab
 908 03f1 18       		.byte	0x18
 909 03f2 06       		.uleb128 0x6
 910 03f3 75030000 		.4byte	.LASF60
 911 03f7 08       		.byte	0x8
 912 03f8 91       		.byte	0x91
ARM GAS  /var/folders/6q/x_mk5n_j3p7_c40r_2k_78980000gn/T//ccwzpgiy.s 			page 17


 913 03f9 7F030000 		.4byte	0x37f
 914 03fd 24       		.byte	0x24
 915 03fe 06       		.uleb128 0x6
 916 03ff 0B030000 		.4byte	.LASF61
 917 0403 08       		.byte	0x8
 918 0404 92       		.byte	0x92
 919 0405 7F030000 		.4byte	0x37f
 920 0409 28       		.byte	0x28
 921 040a 06       		.uleb128 0x6
 922 040b A9040000 		.4byte	.LASF62
 923 040f 08       		.byte	0x8
 924 0410 93       		.byte	0x93
 925 0411 7F030000 		.4byte	0x37f
 926 0415 2C       		.byte	0x2c
 927 0416 06       		.uleb128 0x6
 928 0417 AA020000 		.4byte	.LASF63
 929 041b 08       		.byte	0x8
 930 041c 94       		.byte	0x94
 931 041d 7F030000 		.4byte	0x37f
 932 0421 30       		.byte	0x30
 933 0422 06       		.uleb128 0x6
 934 0423 B7020000 		.4byte	.LASF64
 935 0427 08       		.byte	0x8
 936 0428 95       		.byte	0x95
 937 0429 7F030000 		.4byte	0x37f
 938 042d 34       		.byte	0x34
 939 042e 06       		.uleb128 0x6
 940 042f 07010000 		.4byte	.LASF65
 941 0433 08       		.byte	0x8
 942 0434 96       		.byte	0x96
 943 0435 7F030000 		.4byte	0x37f
 944 0439 38       		.byte	0x38
 945 043a 06       		.uleb128 0x6
 946 043b E6030000 		.4byte	.LASF66
 947 043f 08       		.byte	0x8
 948 0440 97       		.byte	0x97
 949 0441 7F030000 		.4byte	0x37f
 950 0445 3C       		.byte	0x3c
 951 0446 07       		.uleb128 0x7
 952 0447 50465200 		.ascii	"PFR\000"
 953 044b 08       		.byte	0x8
 954 044c 98       		.byte	0x98
 955 044d C0040000 		.4byte	0x4c0
 956 0451 40       		.byte	0x40
 957 0452 07       		.uleb128 0x7
 958 0453 44465200 		.ascii	"DFR\000"
 959 0457 08       		.byte	0x8
 960 0458 99       		.byte	0x99
 961 0459 7F030000 		.4byte	0x37f
 962 045d 48       		.byte	0x48
 963 045e 07       		.uleb128 0x7
 964 045f 41445200 		.ascii	"ADR\000"
 965 0463 08       		.byte	0x8
 966 0464 9A       		.byte	0x9a
 967 0465 7F030000 		.4byte	0x37f
 968 0469 4C       		.byte	0x4c
 969 046a 06       		.uleb128 0x6
ARM GAS  /var/folders/6q/x_mk5n_j3p7_c40r_2k_78980000gn/T//ccwzpgiy.s 			page 18


 970 046b 77040000 		.4byte	.LASF67
 971 046f 08       		.byte	0x8
 972 0470 9B       		.byte	0x9b
 973 0471 D5040000 		.4byte	0x4d5
 974 0475 50       		.byte	0x50
 975 0476 07       		.uleb128 0x7
 976 0477 53415200 		.ascii	"SAR\000"
 977 047b 08       		.byte	0x8
 978 047c 9C       		.byte	0x9c
 979 047d EA040000 		.4byte	0x4ea
 980 0481 60       		.byte	0x60
 981 0482 06       		.uleb128 0x6
 982 0483 EB030000 		.4byte	.LASF68
 983 0487 08       		.byte	0x8
 984 0488 9D       		.byte	0x9d
 985 0489 EF040000 		.4byte	0x4ef
 986 048d 74       		.byte	0x74
 987 048e 06       		.uleb128 0x6
 988 048f A3040000 		.4byte	.LASF69
 989 0493 08       		.byte	0x8
 990 0494 9E       		.byte	0x9e
 991 0495 7F030000 		.4byte	0x37f
 992 0499 88       		.byte	0x88
 993 049a 00       		.byte	0
 994 049b 0E       		.uleb128 0xe
 995 049c 7F030000 		.4byte	0x37f
 996 04a0 AB040000 		.4byte	0x4ab
 997 04a4 0F       		.uleb128 0xf
 998 04a5 8F030000 		.4byte	0x38f
 999 04a9 02       		.byte	0x2
 1000 04aa 00       		.byte	0
 1001 04ab 0D       		.uleb128 0xd
 1002 04ac 9B040000 		.4byte	0x49b
 1003 04b0 0E       		.uleb128 0xe
 1004 04b1 7F030000 		.4byte	0x37f
 1005 04b5 C0040000 		.4byte	0x4c0
 1006 04b9 0F       		.uleb128 0xf
 1007 04ba 8F030000 		.4byte	0x38f
 1008 04be 01       		.byte	0x1
 1009 04bf 00       		.byte	0
 1010 04c0 0D       		.uleb128 0xd
 1011 04c1 B0040000 		.4byte	0x4b0
 1012 04c5 0E       		.uleb128 0xe
 1013 04c6 7F030000 		.4byte	0x37f
 1014 04ca D5040000 		.4byte	0x4d5
 1015 04ce 0F       		.uleb128 0xf
 1016 04cf 8F030000 		.4byte	0x38f
 1017 04d3 03       		.byte	0x3
 1018 04d4 00       		.byte	0
 1019 04d5 0D       		.uleb128 0xd
 1020 04d6 C5040000 		.4byte	0x4c5
 1021 04da 0E       		.uleb128 0xe
 1022 04db 7F030000 		.4byte	0x37f
 1023 04df EA040000 		.4byte	0x4ea
 1024 04e3 0F       		.uleb128 0xf
 1025 04e4 8F030000 		.4byte	0x38f
 1026 04e8 04       		.byte	0x4
ARM GAS  /var/folders/6q/x_mk5n_j3p7_c40r_2k_78980000gn/T//ccwzpgiy.s 			page 19


 1027 04e9 00       		.byte	0
 1028 04ea 0D       		.uleb128 0xd
 1029 04eb DA040000 		.4byte	0x4da
 1030 04ef 0D       		.uleb128 0xd
 1031 04f0 DA040000 		.4byte	0x4da
 1032 04f4 04       		.uleb128 0x4
 1033 04f5 17000000 		.4byte	.LASF70
 1034 04f9 08       		.byte	0x8
 1035 04fa 9F       		.byte	0x9f
 1036 04fb 96030000 		.4byte	0x396
 1037 04ff 0D       		.uleb128 0xd
 1038 0500 08010000 		.4byte	0x108
 1039 0504 08       		.uleb128 0x8
 1040 0505 1C       		.byte	0x1c
 1041 0506 09       		.byte	0x9
 1042 0507 5E       		.byte	0x5e
 1043 0508 55050000 		.4byte	0x555
 1044 050c 06       		.uleb128 0x6
 1045 050d DE030000 		.4byte	.LASF71
 1046 0511 09       		.byte	0x9
 1047 0512 5F       		.byte	0x5f
 1048 0513 42020000 		.4byte	0x242
 1049 0517 00       		.byte	0
 1050 0518 06       		.uleb128 0x6
 1051 0519 A6030000 		.4byte	.LASF72
 1052 051d 09       		.byte	0x9
 1053 051e 60       		.byte	0x60
 1054 051f E7000000 		.4byte	0xe7
 1055 0523 08       		.byte	0x8
 1056 0524 06       		.uleb128 0x6
 1057 0525 18030000 		.4byte	.LASF73
 1058 0529 09       		.byte	0x9
 1059 052a 62       		.byte	0x62
 1060 052b 5E030000 		.4byte	0x35e
 1061 052f 0C       		.byte	0xc
 1062 0530 06       		.uleb128 0x6
 1063 0531 AF020000 		.4byte	.LASF74
 1064 0535 09       		.byte	0x9
 1065 0536 65       		.byte	0x65
 1066 0537 3C020000 		.4byte	0x23c
 1067 053b 10       		.byte	0x10
 1068 053c 06       		.uleb128 0x6
 1069 053d 35030000 		.4byte	.LASF75
 1070 0541 09       		.byte	0x9
 1071 0542 66       		.byte	0x66
 1072 0543 3C020000 		.4byte	0x23c
 1073 0547 14       		.byte	0x14
 1074 0548 06       		.uleb128 0x6
 1075 0549 2B030000 		.4byte	.LASF76
 1076 054d 09       		.byte	0x9
 1077 054e 69       		.byte	0x69
 1078 054f 3C020000 		.4byte	0x23c
 1079 0553 18       		.byte	0x18
 1080 0554 00       		.byte	0
 1081 0555 04       		.uleb128 0x4
 1082 0556 6D040000 		.4byte	.LASF77
 1083 055a 09       		.byte	0x9
ARM GAS  /var/folders/6q/x_mk5n_j3p7_c40r_2k_78980000gn/T//ccwzpgiy.s 			page 20


 1084 055b 6B       		.byte	0x6b
 1085 055c 04050000 		.4byte	0x504
 1086 0560 05       		.uleb128 0x5
 1087 0561 F0020000 		.4byte	.LASF78
 1088 0565 10       		.byte	0x10
 1089 0566 0A       		.byte	0xa
 1090 0567 2C       		.byte	0x2c
 1091 0568 91050000 		.4byte	0x591
 1092 056c 06       		.uleb128 0x6
 1093 056d BB000000 		.4byte	.LASF79
 1094 0571 0A       		.byte	0xa
 1095 0572 2D       		.byte	0x2d
 1096 0573 42020000 		.4byte	0x242
 1097 0577 00       		.byte	0
 1098 0578 06       		.uleb128 0x6
 1099 0579 AE040000 		.4byte	.LASF80
 1100 057d 0A       		.byte	0xa
 1101 057e 2F       		.byte	0x2f
 1102 057f 3C020000 		.4byte	0x23c
 1103 0583 08       		.byte	0x8
 1104 0584 06       		.uleb128 0x6
 1105 0585 22040000 		.4byte	.LASF81
 1106 0589 0A       		.byte	0xa
 1107 058a 31       		.byte	0x31
 1108 058b 91050000 		.4byte	0x591
 1109 058f 0C       		.byte	0xc
 1110 0590 00       		.byte	0
 1111 0591 09       		.uleb128 0x9
 1112 0592 04       		.byte	0x4
 1113 0593 60050000 		.4byte	0x560
 1114 0597 04       		.uleb128 0x4
 1115 0598 F0020000 		.4byte	.LASF78
 1116 059c 0A       		.byte	0xa
 1117 059d 33       		.byte	0x33
 1118 059e 60050000 		.4byte	0x560
 1119 05a2 10       		.uleb128 0x10
 1120 05a3 04       		.byte	0x4
 1121 05a4 06       		.byte	0x6
 1122 05a5 96       		.byte	0x96
 1123 05a6 D7050000 		.4byte	0x5d7
 1124 05aa 11       		.uleb128 0x11
 1125 05ab 06000000 		.4byte	.LASF82
 1126 05af 06       		.byte	0x6
 1127 05b0 9D       		.byte	0x9d
 1128 05b1 F2000000 		.4byte	0xf2
 1129 05b5 11       		.uleb128 0x11
 1130 05b6 57000000 		.4byte	.LASF83
 1131 05ba 06       		.byte	0x6
 1132 05bb A4       		.byte	0xa4
 1133 05bc F2000000 		.4byte	0xf2
 1134 05c0 11       		.uleb128 0x11
 1135 05c1 95040000 		.4byte	.LASF84
 1136 05c5 06       		.byte	0x6
 1137 05c6 AB       		.byte	0xab
 1138 05c7 78020000 		.4byte	0x278
 1139 05cb 11       		.uleb128 0x11
 1140 05cc AD030000 		.4byte	.LASF85
ARM GAS  /var/folders/6q/x_mk5n_j3p7_c40r_2k_78980000gn/T//ccwzpgiy.s 			page 21


 1141 05d0 06       		.byte	0x6
 1142 05d1 B2       		.byte	0xb2
 1143 05d2 FD000000 		.4byte	0xfd
 1144 05d6 00       		.byte	0
 1145 05d7 09       		.uleb128 0x9
 1146 05d8 04       		.byte	0x4
 1147 05d9 E4050000 		.4byte	0x5e4
 1148 05dd 03       		.uleb128 0x3
 1149 05de 01       		.byte	0x1
 1150 05df 08       		.byte	0x8
 1151 05e0 F3030000 		.4byte	.LASF86
 1152 05e4 12       		.uleb128 0x12
 1153 05e5 DD050000 		.4byte	0x5dd
 1154 05e9 09       		.uleb128 0x9
 1155 05ea 04       		.byte	0x4
 1156 05eb 97050000 		.4byte	0x597
 1157 05ef 13       		.uleb128 0x13
 1158 05f0 BD020000 		.4byte	.LASF100
 1159 05f4 01       		.byte	0x1
 1160 05f5 94       		.byte	0x94
 1161 05f6 01       		.byte	0x1
 1162 05f7 2B060000 		.4byte	0x62b
 1163 05fb 14       		.uleb128 0x14
 1164 05fc 0C060000 		.4byte	0x60c
 1165 0600 15       		.uleb128 0x15
 1166 0601 746D7000 		.ascii	"tmp\000"
 1167 0605 01       		.byte	0x1
 1168 0606 96       		.byte	0x96
 1169 0607 A9000000 		.4byte	0xa9
 1170 060b 00       		.byte	0
 1171 060c 14       		.uleb128 0x14
 1172 060d 1D060000 		.4byte	0x61d
 1173 0611 16       		.uleb128 0x16
 1174 0612 45030000 		.4byte	.LASF87
 1175 0616 01       		.byte	0x1
 1176 0617 98       		.byte	0x98
 1177 0618 2B060000 		.4byte	0x62b
 1178 061c 00       		.byte	0
 1179 061d 17       		.uleb128 0x17
 1180 061e 15       		.uleb128 0x15
 1181 061f 746D7000 		.ascii	"tmp\000"
 1182 0623 01       		.byte	0x1
 1183 0624 C5       		.byte	0xc5
 1184 0625 A9000000 		.4byte	0xa9
 1185 0629 00       		.byte	0
 1186 062a 00       		.byte	0
 1187 062b 09       		.uleb128 0x9
 1188 062c 04       		.byte	0x4
 1189 062d 7A020000 		.4byte	0x27a
 1190 0631 18       		.uleb128 0x18
 1191 0632 68020000 		.4byte	.LASF88
 1192 0636 01       		.byte	0x1
 1193 0637 CF       		.byte	0xcf
 1194 0638 00000000 		.4byte	.LFB11
 1195 063c 06000000 		.4byte	.LFE11-.LFB11
 1196 0640 01       		.uleb128 0x1
 1197 0641 9C       		.byte	0x9c
ARM GAS  /var/folders/6q/x_mk5n_j3p7_c40r_2k_78980000gn/T//ccwzpgiy.s 			page 22


 1198 0642 50060000 		.4byte	0x650
 1199 0646 19       		.uleb128 0x19
 1200 0647 04000000 		.4byte	.LVL0
 1201 064b FD070000 		.4byte	0x7fd
 1202 064f 00       		.byte	0
 1203 0650 18       		.uleb128 0x18
 1204 0651 D6000000 		.4byte	.LASF89
 1205 0655 01       		.byte	0x1
 1206 0656 41       		.byte	0x41
 1207 0657 00000000 		.4byte	.LFB8
 1208 065b 12000000 		.4byte	.LFE8-.LFB8
 1209 065f 01       		.uleb128 0x1
 1210 0660 9C       		.byte	0x9c
 1211 0661 8C060000 		.4byte	0x68c
 1212 0665 1A       		.uleb128 0x1a
 1213 0666 45030000 		.4byte	.LASF87
 1214 066a 01       		.byte	0x1
 1215 066b 42       		.byte	0x42
 1216 066c 2B060000 		.4byte	0x62b
 1217 0670 00000000 		.4byte	.LLST0
 1218 0674 1B       		.uleb128 0x1b
 1219 0675 0A000000 		.4byte	.LBB5
 1220 0679 08000000 		.4byte	.LBE5-.LBB5
 1221 067d 1C       		.uleb128 0x1c
 1222 067e 746D7000 		.ascii	"tmp\000"
 1223 0682 01       		.byte	0x1
 1224 0683 51       		.byte	0x51
 1225 0684 A9000000 		.4byte	0xa9
 1226 0688 01       		.uleb128 0x1
 1227 0689 53       		.byte	0x53
 1228 068a 00       		.byte	0
 1229 068b 00       		.byte	0
 1230 068c 18       		.uleb128 0x18
 1231 068d 8A040000 		.4byte	.LASF90
 1232 0691 01       		.byte	0x1
 1233 0692 76       		.byte	0x76
 1234 0693 00000000 		.4byte	.LFB9
 1235 0697 30000000 		.4byte	.LFE9-.LFB9
 1236 069b 01       		.uleb128 0x1
 1237 069c 9C       		.byte	0x9c
 1238 069d E8060000 		.4byte	0x6e8
 1239 06a1 1D       		.uleb128 0x1d
 1240 06a2 14000000 		.4byte	.LVL4
 1241 06a6 08080000 		.4byte	0x808
 1242 06aa B9060000 		.4byte	0x6b9
 1243 06ae 1E       		.uleb128 0x1e
 1244 06af 01       		.uleb128 0x1
 1245 06b0 50       		.byte	0x50
 1246 06b1 01       		.uleb128 0x1
 1247 06b2 37       		.byte	0x37
 1248 06b3 1E       		.uleb128 0x1e
 1249 06b4 01       		.uleb128 0x1
 1250 06b5 51       		.byte	0x51
 1251 06b6 01       		.uleb128 0x1
 1252 06b7 40       		.byte	0x40
 1253 06b8 00       		.byte	0
 1254 06b9 1D       		.uleb128 0x1d
ARM GAS  /var/folders/6q/x_mk5n_j3p7_c40r_2k_78980000gn/T//ccwzpgiy.s 			page 23


 1255 06ba 1C000000 		.4byte	.LVL5
 1256 06be 08080000 		.4byte	0x808
 1257 06c2 D2060000 		.4byte	0x6d2
 1258 06c6 1E       		.uleb128 0x1e
 1259 06c7 01       		.uleb128 0x1
 1260 06c8 50       		.byte	0x50
 1261 06c9 01       		.uleb128 0x1
 1262 06ca 3A       		.byte	0x3a
 1263 06cb 1E       		.uleb128 0x1e
 1264 06cc 01       		.uleb128 0x1
 1265 06cd 51       		.byte	0x51
 1266 06ce 02       		.uleb128 0x2
 1267 06cf 08       		.byte	0x8
 1268 06d0 20       		.byte	0x20
 1269 06d1 00       		.byte	0
 1270 06d2 1F       		.uleb128 0x1f
 1271 06d3 28000000 		.4byte	.LVL6
 1272 06d7 08080000 		.4byte	0x808
 1273 06db 1E       		.uleb128 0x1e
 1274 06dc 01       		.uleb128 0x1
 1275 06dd 50       		.byte	0x50
 1276 06de 01       		.uleb128 0x1
 1277 06df 3B       		.byte	0x3b
 1278 06e0 1E       		.uleb128 0x1e
 1279 06e1 01       		.uleb128 0x1
 1280 06e2 51       		.byte	0x51
 1281 06e3 02       		.uleb128 0x2
 1282 06e4 08       		.byte	0x8
 1283 06e5 80       		.byte	0x80
 1284 06e6 00       		.byte	0
 1285 06e7 00       		.byte	0
 1286 06e8 20       		.uleb128 0x20
 1287 06e9 EF050000 		.4byte	0x5ef
 1288 06ed 00000000 		.4byte	.LFB10
 1289 06f1 74000000 		.4byte	.LFE10-.LFB10
 1290 06f5 01       		.uleb128 0x1
 1291 06f6 9C       		.byte	0x9c
 1292 06f7 35070000 		.4byte	0x735
 1293 06fb 21       		.uleb128 0x21
 1294 06fc 00000000 		.4byte	.LBB13
 1295 0700 06000000 		.4byte	.LBE13-.LBB13
 1296 0704 10070000 		.4byte	0x710
 1297 0708 22       		.uleb128 0x22
 1298 0709 00060000 		.4byte	0x600
 1299 070d 01       		.uleb128 0x1
 1300 070e 53       		.byte	0x53
 1301 070f 00       		.byte	0
 1302 0710 23       		.uleb128 0x23
 1303 0711 00000000 		.4byte	.Ldebug_ranges0+0
 1304 0715 23070000 		.4byte	0x723
 1305 0719 24       		.uleb128 0x24
 1306 071a 11060000 		.4byte	0x611
 1307 071e 20000000 		.4byte	.LLST1
 1308 0722 00       		.byte	0
 1309 0723 1B       		.uleb128 0x1b
 1310 0724 44000000 		.4byte	.LBB17
 1311 0728 06000000 		.4byte	.LBE17-.LBB17
ARM GAS  /var/folders/6q/x_mk5n_j3p7_c40r_2k_78980000gn/T//ccwzpgiy.s 			page 24


 1312 072c 22       		.uleb128 0x22
 1313 072d 1E060000 		.4byte	0x61e
 1314 0731 01       		.uleb128 0x1
 1315 0732 53       		.byte	0x53
 1316 0733 00       		.byte	0
 1317 0734 00       		.byte	0
 1318 0735 18       		.uleb128 0x18
 1319 0736 32000000 		.4byte	.LASF91
 1320 073a 01       		.byte	0x1
 1321 073b 2F       		.byte	0x2f
 1322 073c 00000000 		.4byte	.LFB7
 1323 0740 1A000000 		.4byte	.LFE7-.LFB7
 1324 0744 01       		.uleb128 0x1
 1325 0745 9C       		.byte	0x9c
 1326 0746 93070000 		.4byte	0x793
 1327 074a 21       		.uleb128 0x21
 1328 074b 02000000 		.4byte	.LBB19
 1329 074f 06000000 		.4byte	.LBE19-.LBB19
 1330 0753 65070000 		.4byte	0x765
 1331 0757 1C       		.uleb128 0x1c
 1332 0758 746D7000 		.ascii	"tmp\000"
 1333 075c 01       		.byte	0x1
 1334 075d 33       		.byte	0x33
 1335 075e A9000000 		.4byte	0xa9
 1336 0762 01       		.uleb128 0x1
 1337 0763 53       		.byte	0x53
 1338 0764 00       		.byte	0
 1339 0765 21       		.uleb128 0x21
 1340 0766 0C000000 		.4byte	.LBB20
 1341 076a 06000000 		.4byte	.LBE20-.LBB20
 1342 076e 80070000 		.4byte	0x780
 1343 0772 1C       		.uleb128 0x1c
 1344 0773 746D7000 		.ascii	"tmp\000"
 1345 0777 01       		.byte	0x1
 1346 0778 35       		.byte	0x35
 1347 0779 A9000000 		.4byte	0xa9
 1348 077d 01       		.uleb128 0x1
 1349 077e 53       		.byte	0x53
 1350 077f 00       		.byte	0
 1351 0780 19       		.uleb128 0x19
 1352 0781 0C000000 		.4byte	.LVL12
 1353 0785 14080000 		.4byte	0x814
 1354 0789 25       		.uleb128 0x25
 1355 078a 1A000000 		.4byte	.LVL13
 1356 078e EF050000 		.4byte	0x5ef
 1357 0792 00       		.byte	0
 1358 0793 18       		.uleb128 0x18
 1359 0794 6A010000 		.4byte	.LASF92
 1360 0798 01       		.byte	0x1
 1361 0799 EC       		.byte	0xec
 1362 079a 00000000 		.4byte	.LFB12
 1363 079e 10000000 		.4byte	.LFE12-.LFB12
 1364 07a2 01       		.uleb128 0x1
 1365 07a3 9C       		.byte	0x9c
 1366 07a4 C3070000 		.4byte	0x7c3
 1367 07a8 26       		.uleb128 0x26
 1368 07a9 6E747000 		.ascii	"ntp\000"
ARM GAS  /var/folders/6q/x_mk5n_j3p7_c40r_2k_78980000gn/T//ccwzpgiy.s 			page 25


 1369 07ad 01       		.byte	0x1
 1370 07ae EC       		.byte	0xec
 1371 07af 3C020000 		.4byte	0x23c
 1372 07b3 01       		.uleb128 0x1
 1373 07b4 50       		.byte	0x50
 1374 07b5 26       		.uleb128 0x26
 1375 07b6 6F747000 		.ascii	"otp\000"
 1376 07ba 01       		.byte	0x1
 1377 07bb EC       		.byte	0xec
 1378 07bc 3C020000 		.4byte	0x23c
 1379 07c0 01       		.uleb128 0x1
 1380 07c1 51       		.byte	0x51
 1381 07c2 00       		.byte	0
 1382 07c3 27       		.uleb128 0x27
 1383 07c4 EC000000 		.4byte	.LASF93
 1384 07c8 01       		.byte	0x1
 1385 07c9 0301     		.2byte	0x103
 1386 07cb 00000000 		.4byte	.LFB13
 1387 07cf 10000000 		.4byte	.LFE13-.LFB13
 1388 07d3 01       		.uleb128 0x1
 1389 07d4 9C       		.byte	0x9c
 1390 07d5 F2070000 		.4byte	0x7f2
 1391 07d9 1B       		.uleb128 0x1b
 1392 07da 00000000 		.4byte	.LBB21
 1393 07de 06000000 		.4byte	.LBE21-.LBB21
 1394 07e2 28       		.uleb128 0x28
 1395 07e3 746D7000 		.ascii	"tmp\000"
 1396 07e7 01       		.byte	0x1
 1397 07e8 0501     		.2byte	0x105
 1398 07ea A9000000 		.4byte	0xa9
 1399 07ee 01       		.uleb128 0x1
 1400 07ef 53       		.byte	0x53
 1401 07f0 00       		.byte	0
 1402 07f1 00       		.byte	0
 1403 07f2 29       		.uleb128 0x29
 1404 07f3 7C040000 		.4byte	.LASF101
 1405 07f7 09       		.byte	0x9
 1406 07f8 6F       		.byte	0x6f
 1407 07f9 55050000 		.4byte	0x555
 1408 07fd 2A       		.uleb128 0x2a
 1409 07fe 3D010000 		.4byte	.LASF94
 1410 0802 3D010000 		.4byte	.LASF94
 1411 0806 09       		.byte	0x9
 1412 0807 A8       		.byte	0xa8
 1413 0808 2B       		.uleb128 0x2b
 1414 0809 17010000 		.4byte	.LASF95
 1415 080d 17010000 		.4byte	.LASF95
 1416 0811 08       		.byte	0x8
 1417 0812 2501     		.2byte	0x125
 1418 0814 2A       		.uleb128 0x2a
 1419 0815 1F000000 		.4byte	.LASF96
 1420 0819 1F000000 		.4byte	.LASF96
 1421 081d 0B       		.byte	0xb
 1422 081e F7       		.byte	0xf7
 1423 081f 00       		.byte	0
 1424              		.section	.debug_abbrev,"",%progbits
 1425              	.Ldebug_abbrev0:
ARM GAS  /var/folders/6q/x_mk5n_j3p7_c40r_2k_78980000gn/T//ccwzpgiy.s 			page 26


 1426 0000 01       		.uleb128 0x1
 1427 0001 11       		.uleb128 0x11
 1428 0002 01       		.byte	0x1
 1429 0003 25       		.uleb128 0x25
 1430 0004 0E       		.uleb128 0xe
 1431 0005 13       		.uleb128 0x13
 1432 0006 0B       		.uleb128 0xb
 1433 0007 03       		.uleb128 0x3
 1434 0008 0E       		.uleb128 0xe
 1435 0009 1B       		.uleb128 0x1b
 1436 000a 0E       		.uleb128 0xe
 1437 000b 55       		.uleb128 0x55
 1438 000c 17       		.uleb128 0x17
 1439 000d 11       		.uleb128 0x11
 1440 000e 01       		.uleb128 0x1
 1441 000f 10       		.uleb128 0x10
 1442 0010 17       		.uleb128 0x17
 1443 0011 00       		.byte	0
 1444 0012 00       		.byte	0
 1445 0013 02       		.uleb128 0x2
 1446 0014 24       		.uleb128 0x24
 1447 0015 00       		.byte	0
 1448 0016 0B       		.uleb128 0xb
 1449 0017 0B       		.uleb128 0xb
 1450 0018 3E       		.uleb128 0x3e
 1451 0019 0B       		.uleb128 0xb
 1452 001a 03       		.uleb128 0x3
 1453 001b 08       		.uleb128 0x8
 1454 001c 00       		.byte	0
 1455 001d 00       		.byte	0
 1456 001e 03       		.uleb128 0x3
 1457 001f 24       		.uleb128 0x24
 1458 0020 00       		.byte	0
 1459 0021 0B       		.uleb128 0xb
 1460 0022 0B       		.uleb128 0xb
 1461 0023 3E       		.uleb128 0x3e
 1462 0024 0B       		.uleb128 0xb
 1463 0025 03       		.uleb128 0x3
 1464 0026 0E       		.uleb128 0xe
 1465 0027 00       		.byte	0
 1466 0028 00       		.byte	0
 1467 0029 04       		.uleb128 0x4
 1468 002a 16       		.uleb128 0x16
 1469 002b 00       		.byte	0
 1470 002c 03       		.uleb128 0x3
 1471 002d 0E       		.uleb128 0xe
 1472 002e 3A       		.uleb128 0x3a
 1473 002f 0B       		.uleb128 0xb
 1474 0030 3B       		.uleb128 0x3b
 1475 0031 0B       		.uleb128 0xb
 1476 0032 49       		.uleb128 0x49
 1477 0033 13       		.uleb128 0x13
 1478 0034 00       		.byte	0
 1479 0035 00       		.byte	0
 1480 0036 05       		.uleb128 0x5
 1481 0037 13       		.uleb128 0x13
 1482 0038 01       		.byte	0x1
ARM GAS  /var/folders/6q/x_mk5n_j3p7_c40r_2k_78980000gn/T//ccwzpgiy.s 			page 27


 1483 0039 03       		.uleb128 0x3
 1484 003a 0E       		.uleb128 0xe
 1485 003b 0B       		.uleb128 0xb
 1486 003c 0B       		.uleb128 0xb
 1487 003d 3A       		.uleb128 0x3a
 1488 003e 0B       		.uleb128 0xb
 1489 003f 3B       		.uleb128 0x3b
 1490 0040 0B       		.uleb128 0xb
 1491 0041 01       		.uleb128 0x1
 1492 0042 13       		.uleb128 0x13
 1493 0043 00       		.byte	0
 1494 0044 00       		.byte	0
 1495 0045 06       		.uleb128 0x6
 1496 0046 0D       		.uleb128 0xd
 1497 0047 00       		.byte	0
 1498 0048 03       		.uleb128 0x3
 1499 0049 0E       		.uleb128 0xe
 1500 004a 3A       		.uleb128 0x3a
 1501 004b 0B       		.uleb128 0xb
 1502 004c 3B       		.uleb128 0x3b
 1503 004d 0B       		.uleb128 0xb
 1504 004e 49       		.uleb128 0x49
 1505 004f 13       		.uleb128 0x13
 1506 0050 38       		.uleb128 0x38
 1507 0051 0B       		.uleb128 0xb
 1508 0052 00       		.byte	0
 1509 0053 00       		.byte	0
 1510 0054 07       		.uleb128 0x7
 1511 0055 0D       		.uleb128 0xd
 1512 0056 00       		.byte	0
 1513 0057 03       		.uleb128 0x3
 1514 0058 08       		.uleb128 0x8
 1515 0059 3A       		.uleb128 0x3a
 1516 005a 0B       		.uleb128 0xb
 1517 005b 3B       		.uleb128 0x3b
 1518 005c 0B       		.uleb128 0xb
 1519 005d 49       		.uleb128 0x49
 1520 005e 13       		.uleb128 0x13
 1521 005f 38       		.uleb128 0x38
 1522 0060 0B       		.uleb128 0xb
 1523 0061 00       		.byte	0
 1524 0062 00       		.byte	0
 1525 0063 08       		.uleb128 0x8
 1526 0064 13       		.uleb128 0x13
 1527 0065 01       		.byte	0x1
 1528 0066 0B       		.uleb128 0xb
 1529 0067 0B       		.uleb128 0xb
 1530 0068 3A       		.uleb128 0x3a
 1531 0069 0B       		.uleb128 0xb
 1532 006a 3B       		.uleb128 0x3b
 1533 006b 0B       		.uleb128 0xb
 1534 006c 01       		.uleb128 0x1
 1535 006d 13       		.uleb128 0x13
 1536 006e 00       		.byte	0
 1537 006f 00       		.byte	0
 1538 0070 09       		.uleb128 0x9
 1539 0071 0F       		.uleb128 0xf
ARM GAS  /var/folders/6q/x_mk5n_j3p7_c40r_2k_78980000gn/T//ccwzpgiy.s 			page 28


 1540 0072 00       		.byte	0
 1541 0073 0B       		.uleb128 0xb
 1542 0074 0B       		.uleb128 0xb
 1543 0075 49       		.uleb128 0x49
 1544 0076 13       		.uleb128 0x13
 1545 0077 00       		.byte	0
 1546 0078 00       		.byte	0
 1547 0079 0A       		.uleb128 0xa
 1548 007a 0F       		.uleb128 0xf
 1549 007b 00       		.byte	0
 1550 007c 0B       		.uleb128 0xb
 1551 007d 0B       		.uleb128 0xb
 1552 007e 00       		.byte	0
 1553 007f 00       		.byte	0
 1554 0080 0B       		.uleb128 0xb
 1555 0081 13       		.uleb128 0x13
 1556 0082 01       		.byte	0x1
 1557 0083 03       		.uleb128 0x3
 1558 0084 0E       		.uleb128 0xe
 1559 0085 0B       		.uleb128 0xb
 1560 0086 0B       		.uleb128 0xb
 1561 0087 3A       		.uleb128 0x3a
 1562 0088 0B       		.uleb128 0xb
 1563 0089 3B       		.uleb128 0x3b
 1564 008a 05       		.uleb128 0x5
 1565 008b 01       		.uleb128 0x1
 1566 008c 13       		.uleb128 0x13
 1567 008d 00       		.byte	0
 1568 008e 00       		.byte	0
 1569 008f 0C       		.uleb128 0xc
 1570 0090 0D       		.uleb128 0xd
 1571 0091 00       		.byte	0
 1572 0092 03       		.uleb128 0x3
 1573 0093 08       		.uleb128 0x8
 1574 0094 3A       		.uleb128 0x3a
 1575 0095 0B       		.uleb128 0xb
 1576 0096 3B       		.uleb128 0x3b
 1577 0097 05       		.uleb128 0x5
 1578 0098 49       		.uleb128 0x49
 1579 0099 13       		.uleb128 0x13
 1580 009a 38       		.uleb128 0x38
 1581 009b 0B       		.uleb128 0xb
 1582 009c 00       		.byte	0
 1583 009d 00       		.byte	0
 1584 009e 0D       		.uleb128 0xd
 1585 009f 35       		.uleb128 0x35
 1586 00a0 00       		.byte	0
 1587 00a1 49       		.uleb128 0x49
 1588 00a2 13       		.uleb128 0x13
 1589 00a3 00       		.byte	0
 1590 00a4 00       		.byte	0
 1591 00a5 0E       		.uleb128 0xe
 1592 00a6 01       		.uleb128 0x1
 1593 00a7 01       		.byte	0x1
 1594 00a8 49       		.uleb128 0x49
 1595 00a9 13       		.uleb128 0x13
 1596 00aa 01       		.uleb128 0x1
ARM GAS  /var/folders/6q/x_mk5n_j3p7_c40r_2k_78980000gn/T//ccwzpgiy.s 			page 29


 1597 00ab 13       		.uleb128 0x13
 1598 00ac 00       		.byte	0
 1599 00ad 00       		.byte	0
 1600 00ae 0F       		.uleb128 0xf
 1601 00af 21       		.uleb128 0x21
 1602 00b0 00       		.byte	0
 1603 00b1 49       		.uleb128 0x49
 1604 00b2 13       		.uleb128 0x13
 1605 00b3 2F       		.uleb128 0x2f
 1606 00b4 0B       		.uleb128 0xb
 1607 00b5 00       		.byte	0
 1608 00b6 00       		.byte	0
 1609 00b7 10       		.uleb128 0x10
 1610 00b8 17       		.uleb128 0x17
 1611 00b9 01       		.byte	0x1
 1612 00ba 0B       		.uleb128 0xb
 1613 00bb 0B       		.uleb128 0xb
 1614 00bc 3A       		.uleb128 0x3a
 1615 00bd 0B       		.uleb128 0xb
 1616 00be 3B       		.uleb128 0x3b
 1617 00bf 0B       		.uleb128 0xb
 1618 00c0 01       		.uleb128 0x1
 1619 00c1 13       		.uleb128 0x13
 1620 00c2 00       		.byte	0
 1621 00c3 00       		.byte	0
 1622 00c4 11       		.uleb128 0x11
 1623 00c5 0D       		.uleb128 0xd
 1624 00c6 00       		.byte	0
 1625 00c7 03       		.uleb128 0x3
 1626 00c8 0E       		.uleb128 0xe
 1627 00c9 3A       		.uleb128 0x3a
 1628 00ca 0B       		.uleb128 0xb
 1629 00cb 3B       		.uleb128 0x3b
 1630 00cc 0B       		.uleb128 0xb
 1631 00cd 49       		.uleb128 0x49
 1632 00ce 13       		.uleb128 0x13
 1633 00cf 00       		.byte	0
 1634 00d0 00       		.byte	0
 1635 00d1 12       		.uleb128 0x12
 1636 00d2 26       		.uleb128 0x26
 1637 00d3 00       		.byte	0
 1638 00d4 49       		.uleb128 0x49
 1639 00d5 13       		.uleb128 0x13
 1640 00d6 00       		.byte	0
 1641 00d7 00       		.byte	0
 1642 00d8 13       		.uleb128 0x13
 1643 00d9 2E       		.uleb128 0x2e
 1644 00da 01       		.byte	0x1
 1645 00db 3F       		.uleb128 0x3f
 1646 00dc 19       		.uleb128 0x19
 1647 00dd 03       		.uleb128 0x3
 1648 00de 0E       		.uleb128 0xe
 1649 00df 3A       		.uleb128 0x3a
 1650 00e0 0B       		.uleb128 0xb
 1651 00e1 3B       		.uleb128 0x3b
 1652 00e2 0B       		.uleb128 0xb
 1653 00e3 27       		.uleb128 0x27
ARM GAS  /var/folders/6q/x_mk5n_j3p7_c40r_2k_78980000gn/T//ccwzpgiy.s 			page 30


 1654 00e4 19       		.uleb128 0x19
 1655 00e5 20       		.uleb128 0x20
 1656 00e6 0B       		.uleb128 0xb
 1657 00e7 01       		.uleb128 0x1
 1658 00e8 13       		.uleb128 0x13
 1659 00e9 00       		.byte	0
 1660 00ea 00       		.byte	0
 1661 00eb 14       		.uleb128 0x14
 1662 00ec 0B       		.uleb128 0xb
 1663 00ed 01       		.byte	0x1
 1664 00ee 01       		.uleb128 0x1
 1665 00ef 13       		.uleb128 0x13
 1666 00f0 00       		.byte	0
 1667 00f1 00       		.byte	0
 1668 00f2 15       		.uleb128 0x15
 1669 00f3 34       		.uleb128 0x34
 1670 00f4 00       		.byte	0
 1671 00f5 03       		.uleb128 0x3
 1672 00f6 08       		.uleb128 0x8
 1673 00f7 3A       		.uleb128 0x3a
 1674 00f8 0B       		.uleb128 0xb
 1675 00f9 3B       		.uleb128 0x3b
 1676 00fa 0B       		.uleb128 0xb
 1677 00fb 49       		.uleb128 0x49
 1678 00fc 13       		.uleb128 0x13
 1679 00fd 00       		.byte	0
 1680 00fe 00       		.byte	0
 1681 00ff 16       		.uleb128 0x16
 1682 0100 34       		.uleb128 0x34
 1683 0101 00       		.byte	0
 1684 0102 03       		.uleb128 0x3
 1685 0103 0E       		.uleb128 0xe
 1686 0104 3A       		.uleb128 0x3a
 1687 0105 0B       		.uleb128 0xb
 1688 0106 3B       		.uleb128 0x3b
 1689 0107 0B       		.uleb128 0xb
 1690 0108 49       		.uleb128 0x49
 1691 0109 13       		.uleb128 0x13
 1692 010a 00       		.byte	0
 1693 010b 00       		.byte	0
 1694 010c 17       		.uleb128 0x17
 1695 010d 0B       		.uleb128 0xb
 1696 010e 01       		.byte	0x1
 1697 010f 00       		.byte	0
 1698 0110 00       		.byte	0
 1699 0111 18       		.uleb128 0x18
 1700 0112 2E       		.uleb128 0x2e
 1701 0113 01       		.byte	0x1
 1702 0114 3F       		.uleb128 0x3f
 1703 0115 19       		.uleb128 0x19
 1704 0116 03       		.uleb128 0x3
 1705 0117 0E       		.uleb128 0xe
 1706 0118 3A       		.uleb128 0x3a
 1707 0119 0B       		.uleb128 0xb
 1708 011a 3B       		.uleb128 0x3b
 1709 011b 0B       		.uleb128 0xb
 1710 011c 27       		.uleb128 0x27
ARM GAS  /var/folders/6q/x_mk5n_j3p7_c40r_2k_78980000gn/T//ccwzpgiy.s 			page 31


 1711 011d 19       		.uleb128 0x19
 1712 011e 11       		.uleb128 0x11
 1713 011f 01       		.uleb128 0x1
 1714 0120 12       		.uleb128 0x12
 1715 0121 06       		.uleb128 0x6
 1716 0122 40       		.uleb128 0x40
 1717 0123 18       		.uleb128 0x18
 1718 0124 9742     		.uleb128 0x2117
 1719 0126 19       		.uleb128 0x19
 1720 0127 01       		.uleb128 0x1
 1721 0128 13       		.uleb128 0x13
 1722 0129 00       		.byte	0
 1723 012a 00       		.byte	0
 1724 012b 19       		.uleb128 0x19
 1725 012c 898201   		.uleb128 0x4109
 1726 012f 00       		.byte	0
 1727 0130 11       		.uleb128 0x11
 1728 0131 01       		.uleb128 0x1
 1729 0132 31       		.uleb128 0x31
 1730 0133 13       		.uleb128 0x13
 1731 0134 00       		.byte	0
 1732 0135 00       		.byte	0
 1733 0136 1A       		.uleb128 0x1a
 1734 0137 34       		.uleb128 0x34
 1735 0138 00       		.byte	0
 1736 0139 03       		.uleb128 0x3
 1737 013a 0E       		.uleb128 0xe
 1738 013b 3A       		.uleb128 0x3a
 1739 013c 0B       		.uleb128 0xb
 1740 013d 3B       		.uleb128 0x3b
 1741 013e 0B       		.uleb128 0xb
 1742 013f 49       		.uleb128 0x49
 1743 0140 13       		.uleb128 0x13
 1744 0141 02       		.uleb128 0x2
 1745 0142 17       		.uleb128 0x17
 1746 0143 00       		.byte	0
 1747 0144 00       		.byte	0
 1748 0145 1B       		.uleb128 0x1b
 1749 0146 0B       		.uleb128 0xb
 1750 0147 01       		.byte	0x1
 1751 0148 11       		.uleb128 0x11
 1752 0149 01       		.uleb128 0x1
 1753 014a 12       		.uleb128 0x12
 1754 014b 06       		.uleb128 0x6
 1755 014c 00       		.byte	0
 1756 014d 00       		.byte	0
 1757 014e 1C       		.uleb128 0x1c
 1758 014f 34       		.uleb128 0x34
 1759 0150 00       		.byte	0
 1760 0151 03       		.uleb128 0x3
 1761 0152 08       		.uleb128 0x8
 1762 0153 3A       		.uleb128 0x3a
 1763 0154 0B       		.uleb128 0xb
 1764 0155 3B       		.uleb128 0x3b
 1765 0156 0B       		.uleb128 0xb
 1766 0157 49       		.uleb128 0x49
 1767 0158 13       		.uleb128 0x13
ARM GAS  /var/folders/6q/x_mk5n_j3p7_c40r_2k_78980000gn/T//ccwzpgiy.s 			page 32


 1768 0159 02       		.uleb128 0x2
 1769 015a 18       		.uleb128 0x18
 1770 015b 00       		.byte	0
 1771 015c 00       		.byte	0
 1772 015d 1D       		.uleb128 0x1d
 1773 015e 898201   		.uleb128 0x4109
 1774 0161 01       		.byte	0x1
 1775 0162 11       		.uleb128 0x11
 1776 0163 01       		.uleb128 0x1
 1777 0164 31       		.uleb128 0x31
 1778 0165 13       		.uleb128 0x13
 1779 0166 01       		.uleb128 0x1
 1780 0167 13       		.uleb128 0x13
 1781 0168 00       		.byte	0
 1782 0169 00       		.byte	0
 1783 016a 1E       		.uleb128 0x1e
 1784 016b 8A8201   		.uleb128 0x410a
 1785 016e 00       		.byte	0
 1786 016f 02       		.uleb128 0x2
 1787 0170 18       		.uleb128 0x18
 1788 0171 9142     		.uleb128 0x2111
 1789 0173 18       		.uleb128 0x18
 1790 0174 00       		.byte	0
 1791 0175 00       		.byte	0
 1792 0176 1F       		.uleb128 0x1f
 1793 0177 898201   		.uleb128 0x4109
 1794 017a 01       		.byte	0x1
 1795 017b 11       		.uleb128 0x11
 1796 017c 01       		.uleb128 0x1
 1797 017d 9542     		.uleb128 0x2115
 1798 017f 19       		.uleb128 0x19
 1799 0180 31       		.uleb128 0x31
 1800 0181 13       		.uleb128 0x13
 1801 0182 00       		.byte	0
 1802 0183 00       		.byte	0
 1803 0184 20       		.uleb128 0x20
 1804 0185 2E       		.uleb128 0x2e
 1805 0186 01       		.byte	0x1
 1806 0187 31       		.uleb128 0x31
 1807 0188 13       		.uleb128 0x13
 1808 0189 11       		.uleb128 0x11
 1809 018a 01       		.uleb128 0x1
 1810 018b 12       		.uleb128 0x12
 1811 018c 06       		.uleb128 0x6
 1812 018d 40       		.uleb128 0x40
 1813 018e 18       		.uleb128 0x18
 1814 018f 9742     		.uleb128 0x2117
 1815 0191 19       		.uleb128 0x19
 1816 0192 01       		.uleb128 0x1
 1817 0193 13       		.uleb128 0x13
 1818 0194 00       		.byte	0
 1819 0195 00       		.byte	0
 1820 0196 21       		.uleb128 0x21
 1821 0197 0B       		.uleb128 0xb
 1822 0198 01       		.byte	0x1
 1823 0199 11       		.uleb128 0x11
 1824 019a 01       		.uleb128 0x1
ARM GAS  /var/folders/6q/x_mk5n_j3p7_c40r_2k_78980000gn/T//ccwzpgiy.s 			page 33


 1825 019b 12       		.uleb128 0x12
 1826 019c 06       		.uleb128 0x6
 1827 019d 01       		.uleb128 0x1
 1828 019e 13       		.uleb128 0x13
 1829 019f 00       		.byte	0
 1830 01a0 00       		.byte	0
 1831 01a1 22       		.uleb128 0x22
 1832 01a2 34       		.uleb128 0x34
 1833 01a3 00       		.byte	0
 1834 01a4 31       		.uleb128 0x31
 1835 01a5 13       		.uleb128 0x13
 1836 01a6 02       		.uleb128 0x2
 1837 01a7 18       		.uleb128 0x18
 1838 01a8 00       		.byte	0
 1839 01a9 00       		.byte	0
 1840 01aa 23       		.uleb128 0x23
 1841 01ab 0B       		.uleb128 0xb
 1842 01ac 01       		.byte	0x1
 1843 01ad 55       		.uleb128 0x55
 1844 01ae 17       		.uleb128 0x17
 1845 01af 01       		.uleb128 0x1
 1846 01b0 13       		.uleb128 0x13
 1847 01b1 00       		.byte	0
 1848 01b2 00       		.byte	0
 1849 01b3 24       		.uleb128 0x24
 1850 01b4 34       		.uleb128 0x34
 1851 01b5 00       		.byte	0
 1852 01b6 31       		.uleb128 0x31
 1853 01b7 13       		.uleb128 0x13
 1854 01b8 02       		.uleb128 0x2
 1855 01b9 17       		.uleb128 0x17
 1856 01ba 00       		.byte	0
 1857 01bb 00       		.byte	0
 1858 01bc 25       		.uleb128 0x25
 1859 01bd 898201   		.uleb128 0x4109
 1860 01c0 00       		.byte	0
 1861 01c1 11       		.uleb128 0x11
 1862 01c2 01       		.uleb128 0x1
 1863 01c3 9542     		.uleb128 0x2115
 1864 01c5 19       		.uleb128 0x19
 1865 01c6 31       		.uleb128 0x31
 1866 01c7 13       		.uleb128 0x13
 1867 01c8 00       		.byte	0
 1868 01c9 00       		.byte	0
 1869 01ca 26       		.uleb128 0x26
 1870 01cb 05       		.uleb128 0x5
 1871 01cc 00       		.byte	0
 1872 01cd 03       		.uleb128 0x3
 1873 01ce 08       		.uleb128 0x8
 1874 01cf 3A       		.uleb128 0x3a
 1875 01d0 0B       		.uleb128 0xb
 1876 01d1 3B       		.uleb128 0x3b
 1877 01d2 0B       		.uleb128 0xb
 1878 01d3 49       		.uleb128 0x49
 1879 01d4 13       		.uleb128 0x13
 1880 01d5 02       		.uleb128 0x2
 1881 01d6 18       		.uleb128 0x18
ARM GAS  /var/folders/6q/x_mk5n_j3p7_c40r_2k_78980000gn/T//ccwzpgiy.s 			page 34


 1882 01d7 00       		.byte	0
 1883 01d8 00       		.byte	0
 1884 01d9 27       		.uleb128 0x27
 1885 01da 2E       		.uleb128 0x2e
 1886 01db 01       		.byte	0x1
 1887 01dc 3F       		.uleb128 0x3f
 1888 01dd 19       		.uleb128 0x19
 1889 01de 03       		.uleb128 0x3
 1890 01df 0E       		.uleb128 0xe
 1891 01e0 3A       		.uleb128 0x3a
 1892 01e1 0B       		.uleb128 0xb
 1893 01e2 3B       		.uleb128 0x3b
 1894 01e3 05       		.uleb128 0x5
 1895 01e4 27       		.uleb128 0x27
 1896 01e5 19       		.uleb128 0x19
 1897 01e6 11       		.uleb128 0x11
 1898 01e7 01       		.uleb128 0x1
 1899 01e8 12       		.uleb128 0x12
 1900 01e9 06       		.uleb128 0x6
 1901 01ea 40       		.uleb128 0x40
 1902 01eb 18       		.uleb128 0x18
 1903 01ec 9742     		.uleb128 0x2117
 1904 01ee 19       		.uleb128 0x19
 1905 01ef 01       		.uleb128 0x1
 1906 01f0 13       		.uleb128 0x13
 1907 01f1 00       		.byte	0
 1908 01f2 00       		.byte	0
 1909 01f3 28       		.uleb128 0x28
 1910 01f4 34       		.uleb128 0x34
 1911 01f5 00       		.byte	0
 1912 01f6 03       		.uleb128 0x3
 1913 01f7 08       		.uleb128 0x8
 1914 01f8 3A       		.uleb128 0x3a
 1915 01f9 0B       		.uleb128 0xb
 1916 01fa 3B       		.uleb128 0x3b
 1917 01fb 05       		.uleb128 0x5
 1918 01fc 49       		.uleb128 0x49
 1919 01fd 13       		.uleb128 0x13
 1920 01fe 02       		.uleb128 0x2
 1921 01ff 18       		.uleb128 0x18
 1922 0200 00       		.byte	0
 1923 0201 00       		.byte	0
 1924 0202 29       		.uleb128 0x29
 1925 0203 34       		.uleb128 0x34
 1926 0204 00       		.byte	0
 1927 0205 03       		.uleb128 0x3
 1928 0206 0E       		.uleb128 0xe
 1929 0207 3A       		.uleb128 0x3a
 1930 0208 0B       		.uleb128 0xb
 1931 0209 3B       		.uleb128 0x3b
 1932 020a 0B       		.uleb128 0xb
 1933 020b 49       		.uleb128 0x49
 1934 020c 13       		.uleb128 0x13
 1935 020d 3F       		.uleb128 0x3f
 1936 020e 19       		.uleb128 0x19
 1937 020f 3C       		.uleb128 0x3c
 1938 0210 19       		.uleb128 0x19
ARM GAS  /var/folders/6q/x_mk5n_j3p7_c40r_2k_78980000gn/T//ccwzpgiy.s 			page 35


 1939 0211 00       		.byte	0
 1940 0212 00       		.byte	0
 1941 0213 2A       		.uleb128 0x2a
 1942 0214 2E       		.uleb128 0x2e
 1943 0215 00       		.byte	0
 1944 0216 3F       		.uleb128 0x3f
 1945 0217 19       		.uleb128 0x19
 1946 0218 3C       		.uleb128 0x3c
 1947 0219 19       		.uleb128 0x19
 1948 021a 6E       		.uleb128 0x6e
 1949 021b 0E       		.uleb128 0xe
 1950 021c 03       		.uleb128 0x3
 1951 021d 0E       		.uleb128 0xe
 1952 021e 3A       		.uleb128 0x3a
 1953 021f 0B       		.uleb128 0xb
 1954 0220 3B       		.uleb128 0x3b
 1955 0221 0B       		.uleb128 0xb
 1956 0222 00       		.byte	0
 1957 0223 00       		.byte	0
 1958 0224 2B       		.uleb128 0x2b
 1959 0225 2E       		.uleb128 0x2e
 1960 0226 00       		.byte	0
 1961 0227 3F       		.uleb128 0x3f
 1962 0228 19       		.uleb128 0x19
 1963 0229 3C       		.uleb128 0x3c
 1964 022a 19       		.uleb128 0x19
 1965 022b 6E       		.uleb128 0x6e
 1966 022c 0E       		.uleb128 0xe
 1967 022d 03       		.uleb128 0x3
 1968 022e 0E       		.uleb128 0xe
 1969 022f 3A       		.uleb128 0x3a
 1970 0230 0B       		.uleb128 0xb
 1971 0231 3B       		.uleb128 0x3b
 1972 0232 05       		.uleb128 0x5
 1973 0233 00       		.byte	0
 1974 0234 00       		.byte	0
 1975 0235 00       		.byte	0
 1976              		.section	.debug_loc,"",%progbits
 1977              	.Ldebug_loc0:
 1978              	.LLST0:
 1979 0000 04000000 		.4byte	.LVL1
 1980 0004 06000000 		.4byte	.LVL2
 1981 0008 0300     		.2byte	0x3
 1982 000a 73       		.byte	0x73
 1983 000b 20       		.sleb128 32
 1984 000c 9F       		.byte	0x9f
 1985 000d 06000000 		.4byte	.LVL2
 1986 0011 0C000000 		.4byte	.LVL3
 1987 0015 0100     		.2byte	0x1
 1988 0017 53       		.byte	0x53
 1989 0018 00000000 		.4byte	0
 1990 001c 00000000 		.4byte	0
 1991              	.LLST1:
 1992 0020 14000000 		.4byte	.LVL7
 1993 0024 18000000 		.4byte	.LVL8
 1994 0028 0300     		.2byte	0x3
 1995 002a 73       		.byte	0x73
ARM GAS  /var/folders/6q/x_mk5n_j3p7_c40r_2k_78980000gn/T//ccwzpgiy.s 			page 36


 1996 002b 60       		.sleb128 -32
 1997 002c 9F       		.byte	0x9f
 1998 002d 18000000 		.4byte	.LVL8
 1999 0031 24000000 		.4byte	.LVL9
 2000 0035 0100     		.2byte	0x1
 2001 0037 52       		.byte	0x52
 2002 0038 24000000 		.4byte	.LVL9
 2003 003c 44000000 		.4byte	.LVL10
 2004 0040 0300     		.2byte	0x3
 2005 0042 73       		.byte	0x73
 2006 0043 60       		.sleb128 -32
 2007 0044 9F       		.byte	0x9f
 2008 0045 4A000000 		.4byte	.LVL11
 2009 0049 74000000 		.4byte	.LFE10
 2010 004d 0300     		.2byte	0x3
 2011 004f 73       		.byte	0x73
 2012 0050 60       		.sleb128 -32
 2013 0051 9F       		.byte	0x9f
 2014 0052 00000000 		.4byte	0
 2015 0056 00000000 		.4byte	0
 2016              		.section	.debug_aranges,"",%progbits
 2017 0000 4C000000 		.4byte	0x4c
 2018 0004 0200     		.2byte	0x2
 2019 0006 00000000 		.4byte	.Ldebug_info0
 2020 000a 04       		.byte	0x4
 2021 000b 00       		.byte	0
 2022 000c 0000     		.2byte	0
 2023 000e 0000     		.2byte	0
 2024 0010 00000000 		.4byte	.LFB11
 2025 0014 06000000 		.4byte	.LFE11-.LFB11
 2026 0018 00000000 		.4byte	.LFB8
 2027 001c 12000000 		.4byte	.LFE8-.LFB8
 2028 0020 00000000 		.4byte	.LFB9
 2029 0024 30000000 		.4byte	.LFE9-.LFB9
 2030 0028 00000000 		.4byte	.LFB10
 2031 002c 74000000 		.4byte	.LFE10-.LFB10
 2032 0030 00000000 		.4byte	.LFB7
 2033 0034 1A000000 		.4byte	.LFE7-.LFB7
 2034 0038 00000000 		.4byte	.LFB12
 2035 003c 10000000 		.4byte	.LFE12-.LFB12
 2036 0040 00000000 		.4byte	.LFB13
 2037 0044 10000000 		.4byte	.LFE13-.LFB13
 2038 0048 00000000 		.4byte	0
 2039 004c 00000000 		.4byte	0
 2040              		.section	.debug_ranges,"",%progbits
 2041              	.Ldebug_ranges0:
 2042 0000 10000000 		.4byte	.LBB15
 2043 0004 44000000 		.4byte	.LBE15
 2044 0008 4A000000 		.4byte	.LBB16
 2045 000c 74000000 		.4byte	.LBE16
 2046 0010 00000000 		.4byte	0
 2047 0014 00000000 		.4byte	0
 2048 0018 00000000 		.4byte	.LFB11
 2049 001c 06000000 		.4byte	.LFE11
 2050 0020 00000000 		.4byte	.LFB8
 2051 0024 12000000 		.4byte	.LFE8
 2052 0028 00000000 		.4byte	.LFB9
ARM GAS  /var/folders/6q/x_mk5n_j3p7_c40r_2k_78980000gn/T//ccwzpgiy.s 			page 37


 2053 002c 30000000 		.4byte	.LFE9
 2054 0030 00000000 		.4byte	.LFB10
 2055 0034 74000000 		.4byte	.LFE10
 2056 0038 00000000 		.4byte	.LFB7
 2057 003c 1A000000 		.4byte	.LFE7
 2058 0040 00000000 		.4byte	.LFB12
 2059 0044 10000000 		.4byte	.LFE12
 2060 0048 00000000 		.4byte	.LFB13
 2061 004c 10000000 		.4byte	.LFE13
 2062 0050 00000000 		.4byte	0
 2063 0054 00000000 		.4byte	0
 2064              		.section	.debug_line,"",%progbits
 2065              	.Ldebug_line0:
 2066 0000 58020000 		.section	.debug_str,"MS",%progbits,1
 2066      0200B101 
 2066      00000201 
 2066      FB0E0D00 
 2066      01010101 
 2067              	.LASF40:
 2068 0000 705F6D73 		.ascii	"p_msg\000"
 2068      6700
 2069              	.LASF82:
 2070 0006 7264796D 		.ascii	"rdymsg\000"
 2070      736700
 2071              	.LASF7:
 2072 000d 5F5F7569 		.ascii	"__uint8_t\000"
 2072      6E74385F 
 2072      7400
 2073              	.LASF70:
 2074 0017 434D785F 		.ascii	"CMx_SCB\000"
 2074      53434200 
 2075              	.LASF96:
 2076 001f 63685379 		.ascii	"chSysTimerHandlerI\000"
 2076      7354696D 
 2076      65724861 
 2076      6E646C65 
 2076      724900
 2077              	.LASF91:
 2078 0032 53797354 		.ascii	"SysTickVector\000"
 2078      69636B56 
 2078      6563746F 
 2078      7200
 2079              	.LASF12:
 2080 0040 6C6F6E67 		.ascii	"long long unsigned int\000"
 2080      206C6F6E 
 2080      6720756E 
 2080      7369676E 
 2080      65642069 
 2081              	.LASF83:
 2082 0057 65786974 		.ascii	"exitcode\000"
 2082      636F6465 
 2082      00
 2083              	.LASF55:
 2084 0060 43505549 		.ascii	"CPUID\000"
 2084      4400
 2085              	.LASF28:
 2086 0066 705F7072 		.ascii	"p_prio\000"
ARM GAS  /var/folders/6q/x_mk5n_j3p7_c40r_2k_78980000gn/T//ccwzpgiy.s 			page 38


 2086      696F00
 2087              	.LASF1:
 2088 006d 6C6F6E67 		.ascii	"long long int\000"
 2088      206C6F6E 
 2088      6720696E 
 2088      7400
 2089              	.LASF3:
 2090 007b 7369676E 		.ascii	"signed char\000"
 2090      65642063 
 2090      68617200 
 2091              	.LASF98:
 2092 0087 2E2E2F43 		.ascii	"../ChibiOS/os/ports/GCC/ARMCMx/chcore_v7m.c\000"
 2092      68696269 
 2092      4F532F6F 
 2092      732F706F 
 2092      7274732F 
 2093              	.LASF44:
 2094 00b3 705F6D70 		.ascii	"p_mpool\000"
 2094      6F6F6C00 
 2095              	.LASF79:
 2096 00bb 6D5F7175 		.ascii	"m_queue\000"
 2096      65756500 
 2097              	.LASF20:
 2098 00c3 74736C69 		.ascii	"tslices_t\000"
 2098      6365735F 
 2098      7400
 2099              	.LASF9:
 2100 00cd 6C6F6E67 		.ascii	"long int\000"
 2100      20696E74 
 2100      00
 2101              	.LASF89:
 2102 00d6 53564361 		.ascii	"SVCallVector\000"
 2102      6C6C5665 
 2102      63746F72 
 2102      00
 2103              	.LASF18:
 2104 00e3 74737461 		.ascii	"tstate_t\000"
 2104      74655F74 
 2104      00
 2105              	.LASF93:
 2106 00ec 5F706F72 		.ascii	"_port_thread_start\000"
 2106      745F7468 
 2106      72656164 
 2106      5F737461 
 2106      727400
 2107              	.LASF30:
 2108 00ff 705F6E65 		.ascii	"p_newer\000"
 2108      77657200 
 2109              	.LASF65:
 2110 0107 42464152 		.ascii	"BFAR\000"
 2110      00
 2111              	.LASF10:
 2112 010c 5F5F7569 		.ascii	"__uint32_t\000"
 2112      6E743332 
 2112      5F7400
 2113              	.LASF95:
 2114 0117 6E766963 		.ascii	"nvicSetSystemHandlerPriority\000"
ARM GAS  /var/folders/6q/x_mk5n_j3p7_c40r_2k_78980000gn/T//ccwzpgiy.s 			page 39


 2114      53657453 
 2114      79737465 
 2114      6D48616E 
 2114      646C6572 
 2115              	.LASF47:
 2116 0134 72656761 		.ascii	"regarm_t\000"
 2116      726D5F74 
 2116      00
 2117              	.LASF94:
 2118 013d 63685363 		.ascii	"chSchDoReschedule\000"
 2118      68446F52 
 2118      65736368 
 2118      6564756C 
 2118      6500
 2119              	.LASF0:
 2120 014f 756E7369 		.ascii	"unsigned int\000"
 2120      676E6564 
 2120      20696E74 
 2120      00
 2121              	.LASF49:
 2122 015c 6C725F74 		.ascii	"lr_thd\000"
 2122      686400
 2123              	.LASF48:
 2124 0163 65787463 		.ascii	"extctx\000"
 2124      747800
 2125              	.LASF92:
 2126 016a 5F706F72 		.ascii	"_port_switch\000"
 2126      745F7377 
 2126      69746368 
 2126      00
 2127              	.LASF11:
 2128 0177 6C6F6E67 		.ascii	"long unsigned int\000"
 2128      20756E73 
 2128      69676E65 
 2128      6420696E 
 2128      7400
 2129              	.LASF57:
 2130 0189 56544F52 		.ascii	"VTOR\000"
 2130      00
 2131              	.LASF97:
 2132 018e 474E5520 		.ascii	"GNU C11 5.4.1 20160919 (release) [ARM/embedded-5-br"
 2132      43313120 
 2132      352E342E 
 2132      31203230 
 2132      31363039 
 2133 01c1 616E6368 		.ascii	"anch revision 240496] -mcpu=cortex-m3 -mno-thumb-in"
 2133      20726576 
 2133      6973696F 
 2133      6E203234 
 2133      30343936 
 2134 01f4 74657277 		.ascii	"terwork -mthumb -ggdb -O2 -fomit-frame-pointer -fal"
 2134      6F726B20 
 2134      2D6D7468 
 2134      756D6220 
 2134      2D676764 
 2135 0227 69676E2D 		.ascii	"ign-functions=16 -ffunction-sections -fdata-section"
 2135      66756E63 
ARM GAS  /var/folders/6q/x_mk5n_j3p7_c40r_2k_78980000gn/T//ccwzpgiy.s 			page 40


 2135      74696F6E 
 2135      733D3136 
 2135      202D6666 
 2136 025a 73202D66 		.ascii	"s -fno-common\000"
 2136      6E6F2D63 
 2136      6F6D6D6F 
 2136      6E00
 2137              	.LASF88:
 2138 0268 5F706F72 		.ascii	"_port_switch_from_isr\000"
 2138      745F7377 
 2138      69746368 
 2138      5F66726F 
 2138      6D5F6973 
 2139              	.LASF52:
 2140 027e 636F6E74 		.ascii	"context\000"
 2140      65787400 
 2141              	.LASF6:
 2142 0286 73686F72 		.ascii	"short unsigned int\000"
 2142      7420756E 
 2142      7369676E 
 2142      65642069 
 2142      6E7400
 2143              	.LASF56:
 2144 0299 49435352 		.ascii	"ICSR\000"
 2144      00
 2145              	.LASF22:
 2146 029e 6D73675F 		.ascii	"msg_t\000"
 2146      7400
 2147              	.LASF58:
 2148 02a4 41495243 		.ascii	"AIRCR\000"
 2148      5200
 2149              	.LASF63:
 2150 02aa 44465352 		.ascii	"DFSR\000"
 2150      00
 2151              	.LASF74:
 2152 02af 725F6E65 		.ascii	"r_newer\000"
 2152      77657200 
 2153              	.LASF64:
 2154 02b7 4D4D4641 		.ascii	"MMFAR\000"
 2154      5200
 2155              	.LASF100:
 2156 02bd 5F706F72 		.ascii	"_port_irq_epilogue\000"
 2156      745F6972 
 2156      715F6570 
 2156      696C6F67 
 2156      756500
 2157              	.LASF17:
 2158 02d0 746D6F64 		.ascii	"tmode_t\000"
 2158      655F7400 
 2159              	.LASF46:
 2160 02d8 54687265 		.ascii	"ThreadsList\000"
 2160      6164734C 
 2160      69737400 
 2161              	.LASF23:
 2162 02e4 6576656E 		.ascii	"eventmask_t\000"
 2162      746D6173 
 2162      6B5F7400 
ARM GAS  /var/folders/6q/x_mk5n_j3p7_c40r_2k_78980000gn/T//ccwzpgiy.s 			page 41


 2163              	.LASF78:
 2164 02f0 4D757465 		.ascii	"Mutex\000"
 2164      7800
 2165              	.LASF54:
 2166 02f6 73697A65 		.ascii	"sizetype\000"
 2166      74797065 
 2166      00
 2167              	.LASF2:
 2168 02ff 6C6F6E67 		.ascii	"long double\000"
 2168      20646F75 
 2168      626C6500 
 2169              	.LASF61:
 2170 030b 43465352 		.ascii	"CFSR\000"
 2170      00
 2171              	.LASF31:
 2172 0310 705F6F6C 		.ascii	"p_older\000"
 2172      64657200 
 2173              	.LASF73:
 2174 0318 725F6374 		.ascii	"r_ctx\000"
 2174      7800
 2175              	.LASF45:
 2176 031e 54687265 		.ascii	"ThreadsQueue\000"
 2176      61647351 
 2176      75657565 
 2176      00
 2177              	.LASF76:
 2178 032b 725F6375 		.ascii	"r_current\000"
 2178      7272656E 
 2178      7400
 2179              	.LASF75:
 2180 0335 725F6F6C 		.ascii	"r_older\000"
 2180      64657200 
 2181              	.LASF19:
 2182 033d 74726566 		.ascii	"trefs_t\000"
 2182      735F7400 
 2183              	.LASF87:
 2184 0345 63747870 		.ascii	"ctxp\000"
 2184      00
 2185              	.LASF27:
 2186 034a 705F7072 		.ascii	"p_prev\000"
 2186      657600
 2187              	.LASF21:
 2188 0351 74707269 		.ascii	"tprio_t\000"
 2188      6F5F7400 
 2189              	.LASF16:
 2190 0359 5F426F6F 		.ascii	"_Bool\000"
 2190      6C00
 2191              	.LASF14:
 2192 035f 696E7433 		.ascii	"int32_t\000"
 2192      325F7400 
 2193              	.LASF4:
 2194 0367 756E7369 		.ascii	"unsigned char\000"
 2194      676E6564 
 2194      20636861 
 2194      7200
 2195              	.LASF60:
 2196 0375 53484353 		.ascii	"SHCSR\000"
ARM GAS  /var/folders/6q/x_mk5n_j3p7_c40r_2k_78980000gn/T//ccwzpgiy.s 			page 42


 2196      5200
 2197              	.LASF42:
 2198 037b 705F6D74 		.ascii	"p_mtxlist\000"
 2198      786C6973 
 2198      7400
 2199              	.LASF5:
 2200 0385 73686F72 		.ascii	"short int\000"
 2200      7420696E 
 2200      7400
 2201              	.LASF33:
 2202 038f 705F7374 		.ascii	"p_state\000"
 2202      61746500 
 2203              	.LASF36:
 2204 0397 705F7072 		.ascii	"p_preempt\000"
 2204      65656D70 
 2204      7400
 2205              	.LASF50:
 2206 03a1 78707372 		.ascii	"xpsr\000"
 2206      00
 2207              	.LASF72:
 2208 03a6 725F7072 		.ascii	"r_prio\000"
 2208      696F00
 2209              	.LASF85:
 2210 03ad 65776D61 		.ascii	"ewmask\000"
 2210      736B00
 2211              	.LASF26:
 2212 03b4 705F6E65 		.ascii	"p_next\000"
 2212      787400
 2213              	.LASF34:
 2214 03bb 705F666C 		.ascii	"p_flags\000"
 2214      61677300 
 2215              	.LASF25:
 2216 03c3 54687265 		.ascii	"Thread\000"
 2216      616400
 2217              	.LASF41:
 2218 03ca 705F6570 		.ascii	"p_epending\000"
 2218      656E6469 
 2218      6E6700
 2219              	.LASF15:
 2220 03d5 75696E74 		.ascii	"uint32_t\000"
 2220      33325F74 
 2220      00
 2221              	.LASF71:
 2222 03de 725F7175 		.ascii	"r_queue\000"
 2222      65756500 
 2223              	.LASF66:
 2224 03e6 41465352 		.ascii	"AFSR\000"
 2224      00
 2225              	.LASF68:
 2226 03eb 756E7573 		.ascii	"unused1\000"
 2226      65643100 
 2227              	.LASF86:
 2228 03f3 63686172 		.ascii	"char\000"
 2228      00
 2229              	.LASF99:
 2230 03f8 2F557365 		.ascii	"/Users/Luca/src/vexilla/src/teamA\000"
 2230      72732F4C 
ARM GAS  /var/folders/6q/x_mk5n_j3p7_c40r_2k_78980000gn/T//ccwzpgiy.s 			page 43


 2230      7563612F 
 2230      7372632F 
 2230      76657869 
 2231              	.LASF53:
 2232 041a 494F5245 		.ascii	"IOREG32\000"
 2232      47333200 
 2233              	.LASF81:
 2234 0422 6D5F6E65 		.ascii	"m_next\000"
 2234      787400
 2235              	.LASF24:
 2236 0429 73797374 		.ascii	"systime_t\000"
 2236      696D655F 
 2236      7400
 2237              	.LASF43:
 2238 0433 705F7265 		.ascii	"p_realprio\000"
 2238      616C7072 
 2238      696F00
 2239              	.LASF8:
 2240 043e 5F5F696E 		.ascii	"__int32_t\000"
 2240      7433325F 
 2240      7400
 2241              	.LASF37:
 2242 0448 705F7469 		.ascii	"p_time\000"
 2242      6D6500
 2243              	.LASF59:
 2244 044f 53485052 		.ascii	"SHPR\000"
 2244      00
 2245              	.LASF51:
 2246 0454 696E7463 		.ascii	"intctx\000"
 2246      747800
 2247              	.LASF39:
 2248 045b 705F6D73 		.ascii	"p_msgqueue\000"
 2248      67717565 
 2248      756500
 2249              	.LASF35:
 2250 0466 705F7265 		.ascii	"p_refs\000"
 2250      667300
 2251              	.LASF77:
 2252 046d 52656164 		.ascii	"ReadyList\000"
 2252      794C6973 
 2252      7400
 2253              	.LASF67:
 2254 0477 4D4D4652 		.ascii	"MMFR\000"
 2254      00
 2255              	.LASF101:
 2256 047c 726C6973 		.ascii	"rlist\000"
 2256      7400
 2257              	.LASF13:
 2258 0482 75696E74 		.ascii	"uint8_t\000"
 2258      385F7400 
 2259              	.LASF90:
 2260 048a 5F706F72 		.ascii	"_port_init\000"
 2260      745F696E 
 2260      697400
 2261              	.LASF84:
 2262 0495 77746F62 		.ascii	"wtobjp\000"
 2262      6A7000
ARM GAS  /var/folders/6q/x_mk5n_j3p7_c40r_2k_78980000gn/T//ccwzpgiy.s 			page 44


 2263              	.LASF32:
 2264 049c 705F6E61 		.ascii	"p_name\000"
 2264      6D6500
 2265              	.LASF69:
 2266 04a3 43504143 		.ascii	"CPACR\000"
 2266      5200
 2267              	.LASF62:
 2268 04a9 48465352 		.ascii	"HFSR\000"
 2268      00
 2269              	.LASF80:
 2270 04ae 6D5F6F77 		.ascii	"m_owner\000"
 2270      6E657200 
 2271              	.LASF29:
 2272 04b6 705F6374 		.ascii	"p_ctx\000"
 2272      7800
 2273              	.LASF38:
 2274 04bc 705F7761 		.ascii	"p_waiting\000"
 2274      6974696E 
 2274      6700
 2275              		.ident	"GCC: (GNU Tools for ARM Embedded Processors) 5.4.1 20160919 (release) [ARM/embedded-5-bran
ARM GAS  /var/folders/6q/x_mk5n_j3p7_c40r_2k_78980000gn/T//ccwzpgiy.s 			page 45


DEFINED SYMBOLS
                            *ABS*:0000000000000000 chcore_v7m.c
/var/folders/6q/x_mk5n_j3p7_c40r_2k_78980000gn/T//ccwzpgiy.s:20     .text._port_switch_from_isr:0000000000000000 $t
/var/folders/6q/x_mk5n_j3p7_c40r_2k_78980000gn/T//ccwzpgiy.s:26     .text._port_switch_from_isr:0000000000000000 _port_switch_from_isr
/var/folders/6q/x_mk5n_j3p7_c40r_2k_78980000gn/T//ccwzpgiy.s:40     .text._port_switch_from_isr:0000000000000004 _port_exit_from_isr
/var/folders/6q/x_mk5n_j3p7_c40r_2k_78980000gn/T//ccwzpgiy.s:53     .text.SVCallVector:0000000000000000 $t
/var/folders/6q/x_mk5n_j3p7_c40r_2k_78980000gn/T//ccwzpgiy.s:59     .text.SVCallVector:0000000000000000 SVCallVector
/var/folders/6q/x_mk5n_j3p7_c40r_2k_78980000gn/T//ccwzpgiy.s:99     .text._port_init:0000000000000000 $t
/var/folders/6q/x_mk5n_j3p7_c40r_2k_78980000gn/T//ccwzpgiy.s:105    .text._port_init:0000000000000000 _port_init
/var/folders/6q/x_mk5n_j3p7_c40r_2k_78980000gn/T//ccwzpgiy.s:147    .text._port_init:0000000000000028 $d
/var/folders/6q/x_mk5n_j3p7_c40r_2k_78980000gn/T//ccwzpgiy.s:153    .text._port_irq_epilogue:0000000000000000 $t
/var/folders/6q/x_mk5n_j3p7_c40r_2k_78980000gn/T//ccwzpgiy.s:159    .text._port_irq_epilogue:0000000000000000 _port_irq_epilogue
/var/folders/6q/x_mk5n_j3p7_c40r_2k_78980000gn/T//ccwzpgiy.s:261    .text._port_irq_epilogue:0000000000000064 $d
/var/folders/6q/x_mk5n_j3p7_c40r_2k_78980000gn/T//ccwzpgiy.s:271    .text.SysTickVector:0000000000000000 $t
/var/folders/6q/x_mk5n_j3p7_c40r_2k_78980000gn/T//ccwzpgiy.s:277    .text.SysTickVector:0000000000000000 SysTickVector
/var/folders/6q/x_mk5n_j3p7_c40r_2k_78980000gn/T//ccwzpgiy.s:322    .text._port_switch:0000000000000000 $t
/var/folders/6q/x_mk5n_j3p7_c40r_2k_78980000gn/T//ccwzpgiy.s:328    .text._port_switch:0000000000000000 _port_switch
/var/folders/6q/x_mk5n_j3p7_c40r_2k_78980000gn/T//ccwzpgiy.s:357    .text._port_thread_start:0000000000000000 $t
/var/folders/6q/x_mk5n_j3p7_c40r_2k_78980000gn/T//ccwzpgiy.s:363    .text._port_thread_start:0000000000000000 _port_thread_start
                     .debug_frame:0000000000000010 $d

UNDEFINED SYMBOLS
chSchDoReschedule
nvicSetSystemHandlerPriority
rlist
chSysTimerHandlerI
chThdExit
