ARM GAS  /var/folders/6q/x_mk5n_j3p7_c40r_2k_78980000gn/T//ccdEMGjE.s 			page 1


   1              		.syntax unified
   2              		.cpu cortex-m3
   3              		.fpu softvfp
   4              		.eabi_attribute 20, 1
   5              		.eabi_attribute 21, 1
   6              		.eabi_attribute 23, 3
   7              		.eabi_attribute 24, 1
   8              		.eabi_attribute 25, 1
   9              		.eabi_attribute 26, 1
  10              		.eabi_attribute 30, 2
  11              		.eabi_attribute 34, 1
  12              		.eabi_attribute 18, 4
  13              		.thumb
  14              		.syntax unified
  15              		.file	"chdynamic.c"
  16              		.text
  17              	.Ltext0:
  18              		.cfi_sections	.debug_frame
  19              		.section	.text.chThdAddRef,"ax",%progbits
  20              		.align	2
  21              		.p2align 4,,15
  22              		.global	chThdAddRef
  23              		.thumb
  24              		.thumb_func
  25              		.type	chThdAddRef, %function
  26              	chThdAddRef:
  27              	.LFB7:
  28              		.file 1 "../ChibiOS/os/kernel/src/chdynamic.c"
  29              		.loc 1 52 0
  30              		.cfi_startproc
  31              		@ args = 0, pretend = 0, frame = 0
  32              		@ frame_needed = 0, uses_anonymous_args = 0
  33              		@ link register save eliminated.
  34              	.LVL0:
  35              	.LBB2:
  36              		.loc 1 54 0
  37 0000 2023     		movs	r3, #32
  38              		.syntax unified
  39              	@ 54 "../ChibiOS/os/kernel/src/chdynamic.c" 1
  40 0002 83F31188 		msr     BASEPRI, r3
  41              	@ 0 "" 2
  42              		.thumb
  43              		.syntax unified
  44              	.LBE2:
  45              		.loc 1 56 0
  46 0006 827F     		ldrb	r2, [r0, #30]	@ zero_extendqisi2
  47              	.LBB3:
  48              		.loc 1 57 0
  49 0008 0023     		movs	r3, #0
  50              	.LBE3:
  51              		.loc 1 56 0
  52 000a 0132     		adds	r2, r2, #1
  53 000c 8277     		strb	r2, [r0, #30]
  54              	.LBB4:
  55              		.loc 1 57 0
  56              		.syntax unified
  57              	@ 57 "../ChibiOS/os/kernel/src/chdynamic.c" 1
ARM GAS  /var/folders/6q/x_mk5n_j3p7_c40r_2k_78980000gn/T//ccdEMGjE.s 			page 2


  58 000e 83F31188 		msr     BASEPRI, r3
  59              	@ 0 "" 2
  60              		.thumb
  61              		.syntax unified
  62              	.LBE4:
  63              		.loc 1 59 0
  64 0012 7047     		bx	lr
  65              		.cfi_endproc
  66              	.LFE7:
  67              		.size	chThdAddRef, .-chThdAddRef
  68              		.section	.text.chThdRelease,"ax",%progbits
  69              		.align	2
  70              		.p2align 4,,15
  71              		.global	chThdRelease
  72              		.thumb
  73              		.thumb_func
  74              		.type	chThdRelease, %function
  75              	chThdRelease:
  76              	.LFB8:
  77              		.loc 1 74 0
  78              		.cfi_startproc
  79              		@ args = 0, pretend = 0, frame = 0
  80              		@ frame_needed = 0, uses_anonymous_args = 0
  81              		@ link register save eliminated.
  82              	.LVL1:
  83              		.loc 1 74 0
  84 0000 0146     		mov	r1, r0
  85              	.LBB5:
  86              		.loc 1 77 0
  87 0002 2023     		movs	r3, #32
  88              		.syntax unified
  89              	@ 77 "../ChibiOS/os/kernel/src/chdynamic.c" 1
  90 0004 83F31188 		msr     BASEPRI, r3
  91              	@ 0 "" 2
  92              		.thumb
  93              		.syntax unified
  94              	.LBE5:
  95              		.loc 1 79 0
  96 0008 827F     		ldrb	r2, [r0, #30]	@ zero_extendqisi2
  97              	.LBB6:
  98              		.loc 1 80 0
  99 000a 0023     		movs	r3, #0
 100              	.LBE6:
 101              		.loc 1 79 0
 102 000c 013A     		subs	r2, r2, #1
 103 000e D2B2     		uxtb	r2, r2
 104 0010 8277     		strb	r2, [r0, #30]
 105              	.LVL2:
 106              	.LBB7:
 107              		.loc 1 80 0
 108              		.syntax unified
 109              	@ 80 "../ChibiOS/os/kernel/src/chdynamic.c" 1
 110 0012 83F31188 		msr     BASEPRI, r3
 111              	@ 0 "" 2
 112              		.thumb
 113              		.syntax unified
 114              	.LBE7:
ARM GAS  /var/folders/6q/x_mk5n_j3p7_c40r_2k_78980000gn/T//ccdEMGjE.s 			page 3


 115              		.loc 1 85 0
 116 0016 12B9     		cbnz	r2, .L2
 117              		.loc 1 85 0 is_stmt 0 discriminator 1
 118 0018 037F     		ldrb	r3, [r0, #28]	@ zero_extendqisi2
 119 001a 0E2B     		cmp	r3, #14
 120 001c 00D0     		beq	.L7
 121              	.L2:
 122 001e 7047     		bx	lr
 123              	.L7:
 124              		.loc 1 86 0 is_stmt 1
 125 0020 437F     		ldrb	r3, [r0, #29]	@ zero_extendqisi2
 126 0022 03F00303 		and	r3, r3, #3
 127 0026 012B     		cmp	r3, #1
 128 0028 02D0     		beq	.L4
 129 002a 022B     		cmp	r3, #2
 130 002c 07D0     		beq	.L5
 131 002e 7047     		bx	lr
 132              	.L4:
 133              		.loc 1 90 0
 134 0030 0269     		ldr	r2, [r0, #16]
 135              	.LVL3:
 136 0032 4369     		ldr	r3, [r0, #20]
 137 0034 1A61     		str	r2, [r3, #16]
 138              	.LVL4:
 139 0036 0269     		ldr	r2, [r0, #16]
 140 0038 5361     		str	r3, [r2, #20]
 141              		.loc 1 92 0
 142 003a FFF7FEBF 		b	chHeapFree
 143              	.LVL5:
 144              	.L5:
 145              		.loc 1 98 0
 146 003e 0269     		ldr	r2, [r0, #16]
 147              	.LVL6:
 148 0040 4369     		ldr	r3, [r0, #20]
 149 0042 1A61     		str	r2, [r3, #16]
 150              	.LVL7:
 151 0044 0269     		ldr	r2, [r0, #16]
 152              		.loc 1 100 0
 153 0046 406C     		ldr	r0, [r0, #68]
 154              	.LVL8:
 155              		.loc 1 98 0
 156 0048 5361     		str	r3, [r2, #20]
 157              		.loc 1 100 0
 158 004a FFF7FEBF 		b	chPoolFree
 159              	.LVL9:
 160              		.cfi_endproc
 161              	.LFE8:
 162              		.size	chThdRelease, .-chThdRelease
 163 004e 00BF     		.section	.text.chThdCreateFromHeap,"ax",%progbits
 164              		.align	2
 165              		.p2align 4,,15
 166              		.global	chThdCreateFromHeap
 167              		.thumb
 168              		.thumb_func
 169              		.type	chThdCreateFromHeap, %function
 170              	chThdCreateFromHeap:
 171              	.LFB9:
ARM GAS  /var/folders/6q/x_mk5n_j3p7_c40r_2k_78980000gn/T//ccdEMGjE.s 			page 4


 172              		.loc 1 131 0
 173              		.cfi_startproc
 174              		@ args = 4, pretend = 0, frame = 0
 175              		@ frame_needed = 0, uses_anonymous_args = 0
 176              	.LVL10:
 177 0000 F0B5     		push	{r4, r5, r6, r7, lr}
 178              		.cfi_def_cfa_offset 20
 179              		.cfi_offset 4, -20
 180              		.cfi_offset 5, -16
 181              		.cfi_offset 6, -12
 182              		.cfi_offset 7, -8
 183              		.cfi_offset 14, -4
 184 0002 83B0     		sub	sp, sp, #12
 185              		.cfi_def_cfa_offset 32
 186              		.loc 1 131 0
 187 0004 1646     		mov	r6, r2
 188 0006 1F46     		mov	r7, r3
 189 0008 0D46     		mov	r5, r1
 190              		.loc 1 135 0
 191 000a FFF7FEFF 		bl	chHeapAlloc
 192              	.LVL11:
 193              		.loc 1 136 0
 194 000e 98B1     		cbz	r0, .L9
 195              	.LBB8:
 196              		.loc 1 148 0
 197 0010 2023     		movs	r3, #32
 198              		.syntax unified
 199              	@ 148 "../ChibiOS/os/kernel/src/chdynamic.c" 1
 200 0012 83F31188 		msr     BASEPRI, r3
 201              	@ 0 "" 2
 202              		.thumb
 203              		.syntax unified
 204              	.LBE8:
 205              		.loc 1 149 0
 206 0016 089B     		ldr	r3, [sp, #32]
 207 0018 3246     		mov	r2, r6
 208 001a 0093     		str	r3, [sp]
 209 001c 2946     		mov	r1, r5
 210 001e 3B46     		mov	r3, r7
 211 0020 FFF7FEFF 		bl	chThdCreateI
 212              	.LVL12:
 213              		.loc 1 150 0
 214 0024 0123     		movs	r3, #1
 215 0026 4377     		strb	r3, [r0, #29]
 216              		.loc 1 151 0
 217 0028 0021     		movs	r1, #0
 218              		.loc 1 149 0
 219 002a 0446     		mov	r4, r0
 220              	.LVL13:
 221              		.loc 1 151 0
 222 002c FFF7FEFF 		bl	chSchWakeupS
 223              	.LVL14:
 224              	.LBB9:
 225              		.loc 1 152 0
 226 0030 0023     		movs	r3, #0
 227              		.syntax unified
 228              	@ 152 "../ChibiOS/os/kernel/src/chdynamic.c" 1
ARM GAS  /var/folders/6q/x_mk5n_j3p7_c40r_2k_78980000gn/T//ccdEMGjE.s 			page 5


 229 0032 83F31188 		msr     BASEPRI, r3
 230              	@ 0 "" 2
 231              		.thumb
 232              		.syntax unified
 233              	.LBE9:
 234              		.loc 1 153 0
 235 0036 2046     		mov	r0, r4
 236              	.LVL15:
 237              	.L9:
 238              		.loc 1 154 0
 239 0038 03B0     		add	sp, sp, #12
 240              		.cfi_def_cfa_offset 20
 241              		@ sp needed
 242 003a F0BD     		pop	{r4, r5, r6, r7, pc}
 243              		.cfi_endproc
 244              	.LFE9:
 245              		.size	chThdCreateFromHeap, .-chThdCreateFromHeap
 246              		.section	.text.chThdCreateFromMemoryPool,"ax",%progbits
 247              		.align	2
 248              		.p2align 4,,15
 249              		.global	chThdCreateFromMemoryPool
 250              		.thumb
 251              		.thumb_func
 252              		.type	chThdCreateFromMemoryPool, %function
 253              	chThdCreateFromMemoryPool:
 254              	.LFB10:
 255              		.loc 1 180 0
 256              		.cfi_startproc
 257              		@ args = 0, pretend = 0, frame = 0
 258              		@ frame_needed = 0, uses_anonymous_args = 0
 259              	.LVL16:
 260 0000 2DE9F041 		push	{r4, r5, r6, r7, r8, lr}
 261              		.cfi_def_cfa_offset 24
 262              		.cfi_offset 4, -24
 263              		.cfi_offset 5, -20
 264              		.cfi_offset 6, -16
 265              		.cfi_offset 7, -12
 266              		.cfi_offset 8, -8
 267              		.cfi_offset 14, -4
 268 0004 82B0     		sub	sp, sp, #8
 269              		.cfi_def_cfa_offset 32
 270              		.loc 1 180 0
 271 0006 0E46     		mov	r6, r1
 272 0008 1746     		mov	r7, r2
 273 000a 9846     		mov	r8, r3
 274 000c 0546     		mov	r5, r0
 275              		.loc 1 186 0
 276 000e FFF7FEFF 		bl	chPoolAlloc
 277              	.LVL17:
 278              		.loc 1 187 0
 279 0012 A0B1     		cbz	r0, .L13
 280              	.LBB10:
 281              		.loc 1 199 0
 282 0014 2023     		movs	r3, #32
 283              		.syntax unified
 284              	@ 199 "../ChibiOS/os/kernel/src/chdynamic.c" 1
 285 0016 83F31188 		msr     BASEPRI, r3
ARM GAS  /var/folders/6q/x_mk5n_j3p7_c40r_2k_78980000gn/T//ccdEMGjE.s 			page 6


 286              	@ 0 "" 2
 287              		.thumb
 288              		.syntax unified
 289              	.LBE10:
 290              		.loc 1 200 0
 291 001a 6968     		ldr	r1, [r5, #4]
 292 001c 3B46     		mov	r3, r7
 293 001e 3246     		mov	r2, r6
 294 0020 CDF80080 		str	r8, [sp]
 295 0024 FFF7FEFF 		bl	chThdCreateI
 296              	.LVL18:
 297              		.loc 1 201 0
 298 0028 0223     		movs	r3, #2
 299 002a 4377     		strb	r3, [r0, #29]
 300              		.loc 1 202 0
 301 002c 4564     		str	r5, [r0, #68]
 302              		.loc 1 203 0
 303 002e 0021     		movs	r1, #0
 304              		.loc 1 200 0
 305 0030 0446     		mov	r4, r0
 306              	.LVL19:
 307              		.loc 1 203 0
 308 0032 FFF7FEFF 		bl	chSchWakeupS
 309              	.LVL20:
 310              	.LBB11:
 311              		.loc 1 204 0
 312 0036 0023     		movs	r3, #0
 313              		.syntax unified
 314              	@ 204 "../ChibiOS/os/kernel/src/chdynamic.c" 1
 315 0038 83F31188 		msr     BASEPRI, r3
 316              	@ 0 "" 2
 317              		.thumb
 318              		.syntax unified
 319              	.LBE11:
 320              		.loc 1 205 0
 321 003c 2046     		mov	r0, r4
 322              	.LVL21:
 323              	.L13:
 324              		.loc 1 206 0
 325 003e 02B0     		add	sp, sp, #8
 326              		.cfi_def_cfa_offset 24
 327              		@ sp needed
 328 0040 BDE8F081 		pop	{r4, r5, r6, r7, r8, pc}
 329              		.cfi_endproc
 330              	.LFE10:
 331              		.size	chThdCreateFromMemoryPool, .-chThdCreateFromMemoryPool
 332              		.text
 333              	.Letext0:
 334              		.file 2 "/Users/Luca/src/vexilla/src/gcc-arm-none-eabi-5_4-2016q3/lib/gcc/arm-none-eabi/5.4.1/incl
 335              		.file 3 "/Users/Luca/src/vexilla/src/gcc-arm-none-eabi-5_4-2016q3/arm-none-eabi/include/machine/_d
 336              		.file 4 "/Users/Luca/src/vexilla/src/gcc-arm-none-eabi-5_4-2016q3/arm-none-eabi/include/sys/_stdin
 337              		.file 5 "../ChibiOS/os/ports/GCC/ARMCMx/chtypes.h"
 338              		.file 6 "../ChibiOS/os/kernel/include/chlists.h"
 339              		.file 7 "../ChibiOS/os/kernel/include/chthreads.h"
 340              		.file 8 "../ChibiOS/os/ports/GCC/ARMCMx/chcore_v7m.h"
 341              		.file 9 "../ChibiOS/os/kernel/include/chmtx.h"
 342              		.file 10 "../ChibiOS/os/kernel/include/chmemcore.h"
ARM GAS  /var/folders/6q/x_mk5n_j3p7_c40r_2k_78980000gn/T//ccdEMGjE.s 			page 7


 343              		.file 11 "../ChibiOS/os/kernel/include/chheap.h"
 344              		.file 12 "../ChibiOS/os/kernel/include/chmempools.h"
 345              		.file 13 "../ChibiOS/os/kernel/include/chschd.h"