ARM GAS  /var/folders/6q/x_mk5n_j3p7_c40r_2k_78980000gn/T//cctzqlN0.s 			page 1


   1              		.syntax unified
   2              		.cpu cortex-m3
   3              		.fpu softvfp
   4              		.eabi_attribute 20, 1
   5              		.eabi_attribute 21, 1
   6              		.eabi_attribute 23, 3
   7              		.eabi_attribute 24, 1
   8              		.eabi_attribute 25, 1
   9              		.eabi_attribute 26, 1
  10              		.eabi_attribute 30, 2
  11              		.eabi_attribute 34, 1
  12              		.eabi_attribute 18, 4
  13              		.thumb
  14              		.syntax unified
  15              		.file	"chheap.c"
  16              		.text
  17              	.Ltext0:
  18              		.cfi_sections	.debug_frame
  19              		.section	.text._heap_init,"ax",%progbits
  20              		.align	2
  21              		.p2align 4,,15
  22              		.global	_heap_init
  23              		.thumb
  24              		.thumb_func
  25              		.type	_heap_init, %function
  26              	_heap_init:
  27              	.LFB7:
  28              		.file 1 "../ChibiOS/os/kernel/src/chheap.c"
  29              		.loc 1 75 0
  30              		.cfi_startproc
  31              		@ args = 0, pretend = 0, frame = 0
  32              		@ frame_needed = 0, uses_anonymous_args = 0
  33              		@ link register save eliminated.
  34              		.loc 1 76 0
  35 0000 044B     		ldr	r3, .L2
  36 0002 0549     		ldr	r1, .L2+4
  37              		.loc 1 77 0
  38 0004 0022     		movs	r2, #0
  39              		.loc 1 80 0
  40 0006 03F11000 		add	r0, r3, #16
  41              		.loc 1 76 0
  42 000a 1960     		str	r1, [r3]
  43              		.loc 1 77 0
  44 000c 9A60     		str	r2, [r3, #8]
  45              		.loc 1 78 0
  46 000e DA60     		str	r2, [r3, #12]
  47              		.loc 1 80 0
  48 0010 FFF7FEBF 		b	chMtxInit
  49              	.LVL0:
  50              	.L3:
  51              		.align	2
  52              	.L2:
  53 0014 00000000 		.word	.LANCHOR0
  54 0018 00000000 		.word	chCoreAlloc
  55              		.cfi_endproc
  56              	.LFE7:
  57              		.size	_heap_init, .-_heap_init
ARM GAS  /var/folders/6q/x_mk5n_j3p7_c40r_2k_78980000gn/T//cctzqlN0.s 			page 2


  58              		.section	.text.chHeapInit,"ax",%progbits
  59              		.align	2
  60              		.p2align 4,,15
  61              		.global	chHeapInit
  62              		.thumb
  63              		.thumb_func
  64              		.type	chHeapInit, %function
  65              	chHeapInit:
  66              	.LFB8:
  67              		.loc 1 99 0
  68              		.cfi_startproc
  69              		@ args = 0, pretend = 0, frame = 0
  70              		@ frame_needed = 0, uses_anonymous_args = 0
  71              		@ link register save eliminated.
  72              	.LVL1:
  73              		.loc 1 104 0
  74 0000 0023     		movs	r3, #0
  75              		.loc 1 108 0
  76 0002 083A     		subs	r2, r2, #8
  77              	.LVL2:
  78              		.loc 1 105 0
  79 0004 8160     		str	r1, [r0, #8]
  80              		.loc 1 104 0
  81 0006 0360     		str	r3, [r0]
  82              	.LVL3:
  83              		.loc 1 106 0
  84 0008 C360     		str	r3, [r0, #12]
  85              		.loc 1 110 0
  86 000a 1030     		adds	r0, r0, #16
  87              	.LVL4:
  88              		.loc 1 108 0
  89 000c 4A60     		str	r2, [r1, #4]
  90              		.loc 1 107 0
  91 000e 0B60     		str	r3, [r1]
  92              		.loc 1 110 0
  93 0010 FFF7FEBF 		b	chMtxInit
  94              	.LVL5:
  95              		.cfi_endproc
  96              	.LFE8:
  97              		.size	chHeapInit, .-chHeapInit
  98              		.section	.text.chHeapAlloc,"ax",%progbits
  99              		.align	2
 100              		.p2align 4,,15
 101              		.global	chHeapAlloc
 102              		.thumb
 103              		.thumb_func
 104              		.type	chHeapAlloc, %function
 105              	chHeapAlloc:
 106              	.LFB9:
 107              		.loc 1 132 0
 108              		.cfi_startproc
 109              		@ args = 0, pretend = 0, frame = 0
 110              		@ frame_needed = 0, uses_anonymous_args = 0
 111              	.LVL6:
 112 0000 F8B5     		push	{r3, r4, r5, r6, r7, lr}
 113              		.cfi_def_cfa_offset 24
 114              		.cfi_offset 3, -24
ARM GAS  /var/folders/6q/x_mk5n_j3p7_c40r_2k_78980000gn/T//cctzqlN0.s 			page 3


 115              		.cfi_offset 4, -20
 116              		.cfi_offset 5, -16
 117              		.cfi_offset 6, -12
 118              		.cfi_offset 7, -8
 119              		.cfi_offset 14, -4
 120              		.loc 1 136 0
 121 0002 1E4E     		ldr	r6, .L21
 122              		.loc 1 138 0
 123 0004 0731     		adds	r1, r1, #7
 124              	.LVL7:
 125              		.loc 1 136 0
 126 0006 0028     		cmp	r0, #0
 127 0008 18BF     		it	ne
 128 000a 0646     		movne	r6, r0
 129              	.LVL8:
 130              		.loc 1 140 0
 131 000c 06F11000 		add	r0, r6, #16
 132              		.loc 1 138 0
 133 0010 21F00705 		bic	r5, r1, #7
 134              	.LVL9:
 135              		.loc 1 139 0
 136 0014 06F10804 		add	r4, r6, #8
 137              	.LVL10:
 138              		.loc 1 140 0
 139 0018 FFF7FEFF 		bl	chMtxLock
 140              	.LVL11:
 141              		.loc 1 142 0
 142 001c 03E0     		b	.L7
 143              	.LVL12:
 144              	.L11:
 145              		.loc 1 144 0
 146 001e 4368     		ldr	r3, [r0, #4]
 147 0020 9D42     		cmp	r5, r3
 148 0022 11D9     		bls	.L20
 149 0024 0446     		mov	r4, r0
 150              	.LVL13:
 151              	.L7:
 152              		.loc 1 142 0
 153 0026 2068     		ldr	r0, [r4]
 154              	.LVL14:
 155 0028 0028     		cmp	r0, #0
 156 002a F8D1     		bne	.L11
 157              		.loc 1 167 0
 158 002c FFF7FEFF 		bl	chMtxUnlock
 159              	.LVL15:
 160              		.loc 1 171 0
 161 0030 3368     		ldr	r3, [r6]
 162 0032 0BB3     		cbz	r3, .L13
 163              		.loc 1 172 0
 164 0034 05F10800 		add	r0, r5, #8
 165 0038 9847     		blx	r3
 166              	.LVL16:
 167              		.loc 1 173 0
 168 003a E8B1     		cbz	r0, .L13
 169              		.loc 1 174 0
 170 003c 0660     		str	r6, [r0]
 171              		.loc 1 175 0
ARM GAS  /var/folders/6q/x_mk5n_j3p7_c40r_2k_78980000gn/T//cctzqlN0.s 			page 4


 172 003e 4560     		str	r5, [r0, #4]
 173              		.loc 1 176 0
 174 0040 00F10804 		add	r4, r0, #8
 175              	.LVL17:
 176              	.L10:
 177              		.loc 1 181 0
 178 0044 2046     		mov	r0, r4
 179 0046 F8BD     		pop	{r3, r4, r5, r6, r7, pc}
 180              	.LVL18:
 181              	.L20:
 182              		.loc 1 145 0
 183 0048 05F10802 		add	r2, r5, #8
 184 004c 9342     		cmp	r3, r2
 185 004e 08D2     		bcs	.L8
 186              		.loc 1 149 0
 187 0050 0368     		ldr	r3, [r0]
 188 0052 2360     		str	r3, [r4]
 189              	.L9:
 190              		.loc 1 159 0
 191 0054 0446     		mov	r4, r0
 192              	.LVL19:
 193 0056 44F8086B 		str	r6, [r4], #8
 194              		.loc 1 161 0
 195 005a FFF7FEFF 		bl	chMtxUnlock
 196              	.LVL20:
 197              		.loc 1 181 0
 198 005e 2046     		mov	r0, r4
 199 0060 F8BD     		pop	{r3, r4, r5, r6, r7, pc}
 200              	.LVL21:
 201              	.L8:
 202              		.loc 1 155 0
 203 0062 6FF00707 		mvn	r7, #7
 204              		.loc 1 154 0
 205 0066 0168     		ldr	r1, [r0]
 206              		.loc 1 155 0
 207 0068 7F1B     		subs	r7, r7, r5
 208 006a 3B44     		add	r3, r3, r7
 209              		.loc 1 153 0
 210 006c 8718     		adds	r7, r0, r2
 211              	.LVL22:
 212              		.loc 1 154 0
 213 006e 8150     		str	r1, [r0, r2]
 214              		.loc 1 155 0
 215 0070 7B60     		str	r3, [r7, #4]
 216              		.loc 1 156 0
 217 0072 2760     		str	r7, [r4]
 218              		.loc 1 157 0
 219 0074 4560     		str	r5, [r0, #4]
 220 0076 EDE7     		b	.L9
 221              	.LVL23:
 222              	.L13:
 223              		.loc 1 180 0
 224 0078 0024     		movs	r4, #0
 225              	.LVL24:
 226 007a E3E7     		b	.L10
 227              	.L22:
 228              		.align	2
ARM GAS  /var/folders/6q/x_mk5n_j3p7_c40r_2k_78980000gn/T//cctzqlN0.s 			page 5


 229              	.L21:
 230 007c 00000000 		.word	.LANCHOR0
 231              		.cfi_endproc
 232              	.LFE9:
 233              		.size	chHeapAlloc, .-chHeapAlloc
 234              		.section	.text.chHeapFree,"ax",%progbits
 235              		.align	2
 236              		.p2align 4,,15
 237              		.global	chHeapFree
 238              		.thumb
 239              		.thumb_func
 240              		.type	chHeapFree, %function
 241              	chHeapFree:
 242              	.LFB10:
 243              		.loc 1 194 0
 244              		.cfi_startproc
 245              		@ args = 0, pretend = 0, frame = 0
 246              		@ frame_needed = 0, uses_anonymous_args = 0
 247              	.LVL25:
 248 0000 70B5     		push	{r4, r5, r6, lr}
 249              		.cfi_def_cfa_offset 16
 250              		.cfi_offset 4, -16
 251              		.cfi_offset 5, -12
 252              		.cfi_offset 6, -8
 253              		.cfi_offset 14, -4
 254              		.loc 1 194 0
 255 0002 0646     		mov	r6, r0
 256              		.loc 1 201 0
 257 0004 50F8080C 		ldr	r0, [r0, #-8]
 258              	.LVL26:
 259              		.loc 1 200 0
 260 0008 A6F10804 		sub	r4, r6, #8
 261              	.LVL27:
 262              		.loc 1 202 0
 263 000c 00F10805 		add	r5, r0, #8
 264              	.LVL28:
 265              		.loc 1 203 0
 266 0010 1030     		adds	r0, r0, #16
 267              	.LVL29:
 268 0012 FFF7FEFF 		bl	chMtxLock
 269              	.LVL30:
 270              		.loc 1 202 0
 271 0016 2B46     		mov	r3, r5
 272              	.LVL31:
 273              	.L30:
 274              		.loc 1 210 0
 275 0018 AB42     		cmp	r3, r5
 276 001a 04D0     		beq	.L24
 277              	.L36:
 278              		.loc 1 210 0 is_stmt 0 discriminator 2
 279 001c A342     		cmp	r3, r4
 280 001e 02D3     		bcc	.L24
 281 0020 1B68     		ldr	r3, [r3]
 282              	.LVL32:
 283              		.loc 1 210 0
 284 0022 AB42     		cmp	r3, r5
 285 0024 FAD1     		bne	.L36
ARM GAS  /var/folders/6q/x_mk5n_j3p7_c40r_2k_78980000gn/T//cctzqlN0.s 			page 6


 286              	.L24:
 287              		.loc 1 211 0 is_stmt 1 discriminator 3
 288 0026 1A68     		ldr	r2, [r3]
 289              		.loc 1 210 0 discriminator 3
 290 0028 1AB1     		cbz	r2, .L26
 291              		.loc 1 211 0
 292 002a 9442     		cmp	r4, r2
 293 002c 01D3     		bcc	.L26
 294 002e 1346     		mov	r3, r2
 295              	.LVL33:
 296              		.loc 1 229 0
 297 0030 F2E7     		b	.L30
 298              	.LVL34:
 299              	.L26:
 300              		.loc 1 213 0
 301 0032 46F8082C 		str	r2, [r6, #-8]
 302              		.loc 1 214 0
 303 0036 1C60     		str	r4, [r3]
 304              		.loc 1 216 0
 305 0038 56F8041C 		ldr	r1, [r6, #-4]
 306 003c 56F8085C 		ldr	r5, [r6, #-8]
 307              	.LVL35:
 308 0040 01F10802 		add	r2, r1, #8
 309 0044 A018     		adds	r0, r4, r2
 310 0046 A842     		cmp	r0, r5
 311 0048 09D0     		beq	.L37
 312              		.loc 1 221 0
 313 004a 5968     		ldr	r1, [r3, #4]
 314 004c 01F10802 		add	r2, r1, #8
 315 0050 1A44     		add	r2, r2, r3
 316 0052 9442     		cmp	r4, r2
 317 0054 11D0     		beq	.L38
 318              	.L29:
 319              		.loc 1 233 0
 320 0056 BDE87040 		pop	{r4, r5, r6, lr}
 321              		.cfi_remember_state
 322              		.cfi_restore 14
 323              		.cfi_restore 6
 324              		.cfi_restore 5
 325              		.cfi_restore 4
 326              		.cfi_def_cfa_offset 0
 327              	.LVL36:
 328              		.loc 1 231 0
 329 005a FFF7FEBF 		b	chMtxUnlock
 330              	.LVL37:
 331              	.L37:
 332              		.cfi_restore_state
 333              		.loc 1 218 0
 334 005e 4068     		ldr	r0, [r0, #4]
 335 0060 0144     		add	r1, r1, r0
 336 0062 0831     		adds	r1, r1, #8
 337 0064 46F8041C 		str	r1, [r6, #-4]
 338              		.loc 1 219 0
 339 0068 A258     		ldr	r2, [r4, r2]
 340 006a 46F8082C 		str	r2, [r6, #-8]
 341              		.loc 1 221 0
 342 006e 5968     		ldr	r1, [r3, #4]
ARM GAS  /var/folders/6q/x_mk5n_j3p7_c40r_2k_78980000gn/T//cctzqlN0.s 			page 7


 343 0070 01F10802 		add	r2, r1, #8
 344 0074 1A44     		add	r2, r2, r3
 345 0076 9442     		cmp	r4, r2
 346 0078 EDD1     		bne	.L29
 347              	.L38:
 348              		.loc 1 223 0
 349 007a 56F8042C 		ldr	r2, [r6, #-4]
 350 007e 0A44     		add	r2, r2, r1
 351 0080 0832     		adds	r2, r2, #8
 352 0082 5A60     		str	r2, [r3, #4]
 353              		.loc 1 224 0
 354 0084 56F8082C 		ldr	r2, [r6, #-8]
 355 0088 1A60     		str	r2, [r3]
 356              		.loc 1 233 0
 357 008a BDE87040 		pop	{r4, r5, r6, lr}
 358              		.cfi_restore 4
 359              		.cfi_restore 5
 360              		.cfi_restore 6
 361              		.cfi_restore 14
 362              		.cfi_def_cfa_offset 0
 363              	.LVL38:
 364              		.loc 1 231 0
 365 008e FFF7FEBF 		b	chMtxUnlock
 366              	.LVL39:
 367              		.cfi_endproc
 368              	.LFE10:
 369              		.size	chHeapFree, .-chHeapFree
 370 0092 00BF     		.section	.text.chHeapStatus,"ax",%progbits
 371              		.align	2
 372              		.p2align 4,,15
 373              		.global	chHeapStatus
 374              		.thumb
 375              		.thumb_func
 376              		.type	chHeapStatus, %function
 377              	chHeapStatus:
 378              	.LFB11:
 379              		.loc 1 250 0
 380              		.cfi_startproc
 381              		@ args = 0, pretend = 0, frame = 0
 382              		@ frame_needed = 0, uses_anonymous_args = 0
 383              	.LVL40:
 384 0000 38B5     		push	{r3, r4, r5, lr}
 385              		.cfi_def_cfa_offset 16
 386              		.cfi_offset 3, -16
 387              		.cfi_offset 4, -12
 388              		.cfi_offset 5, -8
 389              		.cfi_offset 14, -4
 390              		.loc 1 255 0
 391 0002 0E4C     		ldr	r4, .L50
 392              		.loc 1 250 0
 393 0004 0D46     		mov	r5, r1
 394              		.loc 1 255 0
 395 0006 0028     		cmp	r0, #0
 396 0008 18BF     		it	ne
 397 000a 0446     		movne	r4, r0
 398              	.LVL41:
 399              		.loc 1 257 0
ARM GAS  /var/folders/6q/x_mk5n_j3p7_c40r_2k_78980000gn/T//cctzqlN0.s 			page 8


 400 000c 04F11000 		add	r0, r4, #16
 401 0010 FFF7FEFF 		bl	chMtxLock
 402              	.LVL42:
 403              		.loc 1 260 0
 404 0014 A368     		ldr	r3, [r4, #8]
 405 0016 6BB1     		cbz	r3, .L44
 406              		.loc 1 260 0 is_stmt 0 discriminator 3
 407 0018 0022     		movs	r2, #0
 408 001a 1446     		mov	r4, r2
 409              	.LVL43:
 410              	.L42:
 411              		.loc 1 261 0 is_stmt 1 discriminator 3
 412 001c 5868     		ldr	r0, [r3, #4]
 413              		.loc 1 260 0 discriminator 3
 414 001e 1B68     		ldr	r3, [r3]
 415 0020 0134     		adds	r4, r4, #1
 416              	.LVL44:
 417              		.loc 1 261 0 discriminator 3
 418 0022 0244     		add	r2, r2, r0
 419              	.LVL45:
 420              		.loc 1 260 0 discriminator 3
 421 0024 002B     		cmp	r3, #0
 422 0026 F9D1     		bne	.L42
 423              	.LVL46:
 424              	.L41:
 425              		.loc 1 262 0
 426 0028 05B1     		cbz	r5, .L43
 427              		.loc 1 263 0
 428 002a 2A60     		str	r2, [r5]
 429              	.L43:
 430              		.loc 1 265 0
 431 002c FFF7FEFF 		bl	chMtxUnlock
 432              	.LVL47:
 433              		.loc 1 267 0
 434 0030 2046     		mov	r0, r4
 435 0032 38BD     		pop	{r3, r4, r5, pc}
 436              	.LVL48:
 437              	.L44:
 438              		.loc 1 259 0
 439 0034 1A46     		mov	r2, r3
 440              		.loc 1 260 0
 441 0036 1C46     		mov	r4, r3
 442              	.LVL49:
 443 0038 F6E7     		b	.L41
 444              	.L51:
 445 003a 00BF     		.align	2
 446              	.L50:
 447 003c 00000000 		.word	.LANCHOR0
 448              		.cfi_endproc
 449              	.LFE11:
 450              		.size	chHeapStatus, .-chHeapStatus
 451              		.section	.bss.default_heap,"aw",%nobits
 452              		.align	3
 453              		.set	.LANCHOR0,. + 0
 454              		.type	default_heap, %object
 455              		.size	default_heap, 32
 456              	default_heap:
ARM GAS  /var/folders/6q/x_mk5n_j3p7_c40r_2k_78980000gn/T//cctzqlN0.s 			page 9


 457 0000 00000000 		.space	32
 457      00000000 
 457      00000000 
 457      00000000 
 457      00000000 
 458              		.text
 459              	.Letext0:
 460              		.file 2 "/Users/Luca/src/vexilla/src/gcc-arm-none-eabi-5_4-2016q3/lib/gcc/arm-none-eabi/5.4.1/incl
 461              		.file 3 "/Users/Luca/src/vexilla/src/gcc-arm-none-eabi-5_4-2016q3/arm-none-eabi/include/machine/_d
 462              		.file 4 "/Users/Luca/src/vexilla/src/gcc-arm-none-eabi-5_4-2016q3/arm-none-eabi/include/sys/_stdin
 463              		.file 5 "../ChibiOS/os/ports/GCC/ARMCMx/chtypes.h"
 464              		.file 6 "../ChibiOS/os/kernel/include/chlists.h"
 465              		.file 7 "../ChibiOS/os/kernel/include/chthreads.h"
 466              		.file 8 "../ChibiOS/os/ports/GCC/ARMCMx/chcore_v7m.h"
 467              		.file 9 "../ChibiOS/os/kernel/include/chmtx.h"
 468              		.file 10 "../ChibiOS/os/kernel/include/chmemcore.h"
 469              		.file 11 "../ChibiOS/os/kernel/include/chheap.h"
 470              		.section	.debug_info,"",%progbits
 471              	.Ldebug_info0:
 472 0000 F1060000 		.4byte	0x6f1
 473 0004 0400     		.2byte	0x4
 474 0006 00000000 		.4byte	.Ldebug_abbrev0
 475 000a 04       		.byte	0x4
 476 000b 01       		.uleb128 0x1
 477 000c 3E010000 		.4byte	.LASF85
 478 0010 0C       		.byte	0xc
 479 0011 D2000000 		.4byte	.LASF86
 480 0015 7D030000 		.4byte	.LASF87
 481 0019 00000000 		.4byte	.Ldebug_ranges0+0
 482 001d 00000000 		.4byte	0
 483 0021 00000000 		.4byte	.Ldebug_line0
 484 0025 02       		.uleb128 0x2
 485 0026 04       		.byte	0x4
 486 0027 05       		.byte	0x5
 487 0028 696E7400 		.ascii	"int\000"
 488 002c 03       		.uleb128 0x3
 489 002d 06000000 		.4byte	.LASF4
 490 0031 02       		.byte	0x2
 491 0032 D8       		.byte	0xd8
 492 0033 37000000 		.4byte	0x37
 493 0037 04       		.uleb128 0x4
 494 0038 04       		.byte	0x4
 495 0039 07       		.byte	0x7
 496 003a 1F010000 		.4byte	.LASF0
 497 003e 04       		.uleb128 0x4
 498 003f 08       		.byte	0x8
 499 0040 05       		.byte	0x5
 500 0041 84000000 		.4byte	.LASF1
 501 0045 04       		.uleb128 0x4
 502 0046 08       		.byte	0x8
 503 0047 04       		.byte	0x4
 504 0048 78020000 		.4byte	.LASF2
 505 004c 04       		.uleb128 0x4
 506 004d 01       		.byte	0x1
 507 004e 06       		.byte	0x6
 508 004f 92000000 		.4byte	.LASF3
 509 0053 03       		.uleb128 0x3
ARM GAS  /var/folders/6q/x_mk5n_j3p7_c40r_2k_78980000gn/T//cctzqlN0.s 			page 10


 510 0054 1D000000 		.4byte	.LASF5
 511 0058 03       		.byte	0x3
 512 0059 1D       		.byte	0x1d
 513 005a 5E000000 		.4byte	0x5e
 514 005e 04       		.uleb128 0x4
 515 005f 01       		.byte	0x1
 516 0060 08       		.byte	0x8
 517 0061 DE020000 		.4byte	.LASF6
 518 0065 04       		.uleb128 0x4
 519 0066 02       		.byte	0x2
 520 0067 05       		.byte	0x5
 521 0068 01030000 		.4byte	.LASF7
 522 006c 04       		.uleb128 0x4
 523 006d 02       		.byte	0x2
 524 006e 07       		.byte	0x7
 525 006f 25020000 		.4byte	.LASF8
 526 0073 03       		.uleb128 0x3
 527 0074 C8030000 		.4byte	.LASF9
 528 0078 03       		.byte	0x3
 529 0079 3F       		.byte	0x3f
 530 007a 7E000000 		.4byte	0x7e
 531 007e 04       		.uleb128 0x4
 532 007f 04       		.byte	0x4
 533 0080 05       		.byte	0x5
 534 0081 C9000000 		.4byte	.LASF10
 535 0085 03       		.uleb128 0x3
 536 0086 05010000 		.4byte	.LASF11
 537 008a 03       		.byte	0x3
 538 008b 41       		.byte	0x41
 539 008c 90000000 		.4byte	0x90
 540 0090 04       		.uleb128 0x4
 541 0091 04       		.byte	0x4
 542 0092 07       		.byte	0x7
 543 0093 2C010000 		.4byte	.LASF12
 544 0097 03       		.uleb128 0x3
 545 0098 AE020000 		.4byte	.LASF13
 546 009c 03       		.byte	0x3
 547 009d 5B       		.byte	0x5b
 548 009e A2000000 		.4byte	0xa2
 549 00a2 04       		.uleb128 0x4
 550 00a3 08       		.byte	0x8
 551 00a4 07       		.byte	0x7
 552 00a5 34000000 		.4byte	.LASF14
 553 00a9 03       		.uleb128 0x3
 554 00aa FC030000 		.4byte	.LASF15
 555 00ae 04       		.byte	0x4
 556 00af 18       		.byte	0x18
 557 00b0 53000000 		.4byte	0x53
 558 00b4 03       		.uleb128 0x3
 559 00b5 D6020000 		.4byte	.LASF16
 560 00b9 04       		.byte	0x4
 561 00ba 2C       		.byte	0x2c
 562 00bb 73000000 		.4byte	0x73
 563 00bf 03       		.uleb128 0x3
 564 00c0 5D030000 		.4byte	.LASF17
 565 00c4 04       		.byte	0x4
 566 00c5 30       		.byte	0x30
ARM GAS  /var/folders/6q/x_mk5n_j3p7_c40r_2k_78980000gn/T//cctzqlN0.s 			page 11


 567 00c6 85000000 		.4byte	0x85
 568 00ca 03       		.uleb128 0x3
 569 00cb 14000000 		.4byte	.LASF18
 570 00cf 04       		.byte	0x4
 571 00d0 3C       		.byte	0x3c
 572 00d1 97000000 		.4byte	0x97
 573 00d5 04       		.uleb128 0x4
 574 00d6 01       		.byte	0x1
 575 00d7 02       		.byte	0x2
 576 00d8 D0020000 		.4byte	.LASF19
 577 00dc 03       		.uleb128 0x3
 578 00dd 3E020000 		.4byte	.LASF20
 579 00e1 05       		.byte	0x5
 580 00e2 2C       		.byte	0x2c
 581 00e3 A9000000 		.4byte	0xa9
 582 00e7 03       		.uleb128 0x3
 583 00e8 F4000000 		.4byte	.LASF21
 584 00ec 05       		.byte	0x5
 585 00ed 2D       		.byte	0x2d
 586 00ee A9000000 		.4byte	0xa9
 587 00f2 03       		.uleb128 0x3
 588 00f3 B9020000 		.4byte	.LASF22
 589 00f7 05       		.byte	0x5
 590 00f8 2E       		.byte	0x2e
 591 00f9 A9000000 		.4byte	0xa9
 592 00fd 03       		.uleb128 0x3
 593 00fe BF000000 		.4byte	.LASF23
 594 0102 05       		.byte	0x5
 595 0103 2F       		.byte	0x2f
 596 0104 A9000000 		.4byte	0xa9
 597 0108 03       		.uleb128 0x3
 598 0109 C8020000 		.4byte	.LASF24
 599 010d 05       		.byte	0x5
 600 010e 30       		.byte	0x30
 601 010f BF000000 		.4byte	0xbf
 602 0113 03       		.uleb128 0x3
 603 0114 38020000 		.4byte	.LASF25
 604 0118 05       		.byte	0x5
 605 0119 31       		.byte	0x31
 606 011a B4000000 		.4byte	0xb4
 607 011e 03       		.uleb128 0x3
 608 011f 52020000 		.4byte	.LASF26
 609 0123 05       		.byte	0x5
 610 0124 33       		.byte	0x33
 611 0125 BF000000 		.4byte	0xbf
 612 0129 03       		.uleb128 0x3
 613 012a B3030000 		.4byte	.LASF27
 614 012e 05       		.byte	0x5
 615 012f 35       		.byte	0x35
 616 0130 BF000000 		.4byte	0xbf
 617 0134 03       		.uleb128 0x3
 618 0135 3F030000 		.4byte	.LASF28
 619 0139 06       		.byte	0x6
 620 013a 2A       		.byte	0x2a
 621 013b 3F010000 		.4byte	0x13f
 622 013f 05       		.uleb128 0x5
 623 0140 3F030000 		.4byte	.LASF28
ARM GAS  /var/folders/6q/x_mk5n_j3p7_c40r_2k_78980000gn/T//cctzqlN0.s 			page 12


 624 0144 48       		.byte	0x48
 625 0145 07       		.byte	0x7
 626 0146 5E       		.byte	0x5e
 627 0147 3C020000 		.4byte	0x23c
 628 014b 06       		.uleb128 0x6
 629 014c 30030000 		.4byte	.LASF29
 630 0150 07       		.byte	0x7
 631 0151 5F       		.byte	0x5f
 632 0152 5D020000 		.4byte	0x25d
 633 0156 00       		.byte	0
 634 0157 06       		.uleb128 0x6
 635 0158 C1020000 		.4byte	.LASF30
 636 015c 07       		.byte	0x7
 637 015d 61       		.byte	0x61
 638 015e 5D020000 		.4byte	0x25d
 639 0162 04       		.byte	0x4
 640 0163 06       		.uleb128 0x6
 641 0164 7D000000 		.4byte	.LASF31
 642 0168 07       		.byte	0x7
 643 0169 63       		.byte	0x63
 644 016a 08010000 		.4byte	0x108
 645 016e 08       		.byte	0x8
 646 016f 06       		.uleb128 0x6
 647 0170 2B040000 		.4byte	.LASF32
 648 0174 07       		.byte	0x7
 649 0175 64       		.byte	0x64
 650 0176 22030000 		.4byte	0x322
 651 017a 0C       		.byte	0xc
 652 017b 06       		.uleb128 0x6
 653 017c FD000000 		.4byte	.LASF33
 654 0180 07       		.byte	0x7
 655 0181 66       		.byte	0x66
 656 0182 5D020000 		.4byte	0x25d
 657 0186 10       		.byte	0x10
 658 0187 06       		.uleb128 0x6
 659 0188 8E020000 		.4byte	.LASF34
 660 018c 07       		.byte	0x7
 661 018d 67       		.byte	0x67
 662 018e 5D020000 		.4byte	0x25d
 663 0192 14       		.byte	0x14
 664 0193 06       		.uleb128 0x6
 665 0194 11040000 		.4byte	.LASF35
 666 0198 07       		.byte	0x7
 667 0199 6E       		.byte	0x6e
 668 019a 8D040000 		.4byte	0x48d
 669 019e 18       		.byte	0x18
 670 019f 06       		.uleb128 0x6
 671 01a0 0B030000 		.4byte	.LASF36
 672 01a4 07       		.byte	0x7
 673 01a5 79       		.byte	0x79
 674 01a6 E7000000 		.4byte	0xe7
 675 01aa 1C       		.byte	0x1c
 676 01ab 06       		.uleb128 0x6
 677 01ac 37030000 		.4byte	.LASF37
 678 01b0 07       		.byte	0x7
 679 01b1 7D       		.byte	0x7d
 680 01b2 DC000000 		.4byte	0xdc
ARM GAS  /var/folders/6q/x_mk5n_j3p7_c40r_2k_78980000gn/T//cctzqlN0.s 			page 13


 681 01b6 1D       		.byte	0x1d
 682 01b7 06       		.uleb128 0x6
 683 01b8 F5030000 		.4byte	.LASF38
 684 01bc 07       		.byte	0x7
 685 01bd 82       		.byte	0x82
 686 01be F2000000 		.4byte	0xf2
 687 01c2 1E       		.byte	0x1e
 688 01c3 06       		.uleb128 0x6
 689 01c4 13030000 		.4byte	.LASF39
 690 01c8 07       		.byte	0x7
 691 01c9 88       		.byte	0x88
 692 01ca FD000000 		.4byte	0xfd
 693 01ce 1F       		.byte	0x1f
 694 01cf 06       		.uleb128 0x6
 695 01d0 D2030000 		.4byte	.LASF40
 696 01d4 07       		.byte	0x7
 697 01d5 8F       		.byte	0x8f
 698 01d6 4A030000 		.4byte	0x34a
 699 01da 20       		.byte	0x20
 700 01db 07       		.uleb128 0x7
 701 01dc 705F7500 		.ascii	"p_u\000"
 702 01e0 07       		.byte	0x7
 703 01e1 B4       		.byte	0xb4
 704 01e2 58040000 		.4byte	0x458
 705 01e6 24       		.byte	0x24
 706 01e7 06       		.uleb128 0x6
 707 01e8 31040000 		.4byte	.LASF41
 708 01ec 07       		.byte	0x7
 709 01ed B9       		.byte	0xb9
 710 01ee 83020000 		.4byte	0x283
 711 01f2 28       		.byte	0x28
 712 01f3 06       		.uleb128 0x6
 713 01f4 E0030000 		.4byte	.LASF42
 714 01f8 07       		.byte	0x7
 715 01f9 BF       		.byte	0xbf
 716 01fa 63020000 		.4byte	0x263
 717 01fe 2C       		.byte	0x2c
 718 01ff 06       		.uleb128 0x6
 719 0200 00000000 		.4byte	.LASF43
 720 0204 07       		.byte	0x7
 721 0205 C3       		.byte	0xc3
 722 0206 13010000 		.4byte	0x113
 723 020a 34       		.byte	0x34
 724 020b 06       		.uleb128 0x6
 725 020c 52030000 		.4byte	.LASF44
 726 0210 07       		.byte	0x7
 727 0211 C9       		.byte	0xc9
 728 0212 1E010000 		.4byte	0x11e
 729 0216 38       		.byte	0x38
 730 0217 06       		.uleb128 0x6
 731 0218 F7020000 		.4byte	.LASF45
 732 021c 07       		.byte	0x7
 733 021d D0       		.byte	0xd0
 734 021e 9F040000 		.4byte	0x49f
 735 0222 3C       		.byte	0x3c
 736 0223 06       		.uleb128 0x6
 737 0224 BD030000 		.4byte	.LASF46
ARM GAS  /var/folders/6q/x_mk5n_j3p7_c40r_2k_78980000gn/T//cctzqlN0.s 			page 14


 738 0228 07       		.byte	0x7
 739 0229 D4       		.byte	0xd4
 740 022a 08010000 		.4byte	0x108
 741 022e 40       		.byte	0x40
 742 022f 06       		.uleb128 0x6
 743 0230 A4000000 		.4byte	.LASF47
 744 0234 07       		.byte	0x7
 745 0235 DA       		.byte	0xda
 746 0236 99020000 		.4byte	0x299
 747 023a 44       		.byte	0x44
 748 023b 00       		.byte	0
 749 023c 08       		.uleb128 0x8
 750 023d 08       		.byte	0x8
 751 023e 06       		.byte	0x6
 752 023f 61       		.byte	0x61
 753 0240 5D020000 		.4byte	0x25d
 754 0244 06       		.uleb128 0x6
 755 0245 30030000 		.4byte	.LASF29
 756 0249 06       		.byte	0x6
 757 024a 62       		.byte	0x62
 758 024b 5D020000 		.4byte	0x25d
 759 024f 00       		.byte	0
 760 0250 06       		.uleb128 0x6
 761 0251 C1020000 		.4byte	.LASF30
 762 0255 06       		.byte	0x6
 763 0256 64       		.byte	0x64
 764 0257 5D020000 		.4byte	0x25d
 765 025b 04       		.byte	0x4
 766 025c 00       		.byte	0
 767 025d 09       		.uleb128 0x9
 768 025e 04       		.byte	0x4
 769 025f 34010000 		.4byte	0x134
 770 0263 03       		.uleb128 0x3
 771 0264 96020000 		.4byte	.LASF48
 772 0268 06       		.byte	0x6
 773 0269 66       		.byte	0x66
 774 026a 3C020000 		.4byte	0x23c
 775 026e 08       		.uleb128 0x8
 776 026f 04       		.byte	0x4
 777 0270 06       		.byte	0x6
 778 0271 6B       		.byte	0x6b
 779 0272 83020000 		.4byte	0x283
 780 0276 06       		.uleb128 0x6
 781 0277 30030000 		.4byte	.LASF29
 782 027b 06       		.byte	0x6
 783 027c 6D       		.byte	0x6d
 784 027d 5D020000 		.4byte	0x25d
 785 0281 00       		.byte	0
 786 0282 00       		.byte	0
 787 0283 03       		.uleb128 0x3
 788 0284 46020000 		.4byte	.LASF49
 789 0288 06       		.byte	0x6
 790 0289 70       		.byte	0x70
 791 028a 6E020000 		.4byte	0x26e
 792 028e 03       		.uleb128 0x3
 793 028f 10010000 		.4byte	.LASF50
 794 0293 08       		.byte	0x8
ARM GAS  /var/folders/6q/x_mk5n_j3p7_c40r_2k_78980000gn/T//cctzqlN0.s 			page 15


 795 0294 E5       		.byte	0xe5
 796 0295 99020000 		.4byte	0x299
 797 0299 0A       		.uleb128 0xa
 798 029a 04       		.byte	0x4
 799 029b 03       		.uleb128 0x3
 800 029c 64020000 		.4byte	.LASF51
 801 02a0 08       		.byte	0x8
 802 02a1 EB       		.byte	0xeb
 803 02a2 CA000000 		.4byte	0xca
 804 02a6 0B       		.uleb128 0xb
 805 02a7 D9030000 		.4byte	.LASF52
 806 02ab 24       		.byte	0x24
 807 02ac 08       		.byte	0x8
 808 02ad 0C01     		.2byte	0x10c
 809 02af 22030000 		.4byte	0x322
 810 02b3 0C       		.uleb128 0xc
 811 02b4 723400   		.ascii	"r4\000"
 812 02b7 08       		.byte	0x8
 813 02b8 1F01     		.2byte	0x11f
 814 02ba 8E020000 		.4byte	0x28e
 815 02be 00       		.byte	0
 816 02bf 0C       		.uleb128 0xc
 817 02c0 723500   		.ascii	"r5\000"
 818 02c3 08       		.byte	0x8
 819 02c4 2001     		.2byte	0x120
 820 02c6 8E020000 		.4byte	0x28e
 821 02ca 04       		.byte	0x4
 822 02cb 0C       		.uleb128 0xc
 823 02cc 723600   		.ascii	"r6\000"
 824 02cf 08       		.byte	0x8
 825 02d0 2101     		.2byte	0x121
 826 02d2 8E020000 		.4byte	0x28e
 827 02d6 08       		.byte	0x8
 828 02d7 0C       		.uleb128 0xc
 829 02d8 723700   		.ascii	"r7\000"
 830 02db 08       		.byte	0x8
 831 02dc 2201     		.2byte	0x122
 832 02de 8E020000 		.4byte	0x28e
 833 02e2 0C       		.byte	0xc
 834 02e3 0C       		.uleb128 0xc
 835 02e4 723800   		.ascii	"r8\000"
 836 02e7 08       		.byte	0x8
 837 02e8 2301     		.2byte	0x123
 838 02ea 8E020000 		.4byte	0x28e
 839 02ee 10       		.byte	0x10
 840 02ef 0C       		.uleb128 0xc
 841 02f0 723900   		.ascii	"r9\000"
 842 02f3 08       		.byte	0x8
 843 02f4 2401     		.2byte	0x124
 844 02f6 8E020000 		.4byte	0x28e
 845 02fa 14       		.byte	0x14
 846 02fb 0C       		.uleb128 0xc
 847 02fc 72313000 		.ascii	"r10\000"
 848 0300 08       		.byte	0x8
 849 0301 2501     		.2byte	0x125
 850 0303 8E020000 		.4byte	0x28e
 851 0307 18       		.byte	0x18
ARM GAS  /var/folders/6q/x_mk5n_j3p7_c40r_2k_78980000gn/T//cctzqlN0.s 			page 16


 852 0308 0C       		.uleb128 0xc
 853 0309 72313100 		.ascii	"r11\000"
 854 030d 08       		.byte	0x8
 855 030e 2601     		.2byte	0x126
 856 0310 8E020000 		.4byte	0x28e
 857 0314 1C       		.byte	0x1c
 858 0315 0C       		.uleb128 0xc
 859 0316 6C7200   		.ascii	"lr\000"
 860 0319 08       		.byte	0x8
 861 031a 2701     		.2byte	0x127
 862 031c 8E020000 		.4byte	0x28e
 863 0320 20       		.byte	0x20
 864 0321 00       		.byte	0
 865 0322 0B       		.uleb128 0xb
 866 0323 18020000 		.4byte	.LASF53
 867 0327 04       		.byte	0x4
 868 0328 08       		.byte	0x8
 869 0329 3101     		.2byte	0x131
 870 032b 3D030000 		.4byte	0x33d
 871 032f 0C       		.uleb128 0xc
 872 0330 72313300 		.ascii	"r13\000"
 873 0334 08       		.byte	0x8
 874 0335 3201     		.2byte	0x132
 875 0337 3D030000 		.4byte	0x33d
 876 033b 00       		.byte	0
 877 033c 00       		.byte	0
 878 033d 09       		.uleb128 0x9
 879 033e 04       		.byte	0x4
 880 033f A6020000 		.4byte	0x2a6
 881 0343 04       		.uleb128 0x4
 882 0344 04       		.byte	0x4
 883 0345 07       		.byte	0x7
 884 0346 6F020000 		.4byte	.LASF54
 885 034a 0D       		.uleb128 0xd
 886 034b 29010000 		.4byte	0x129
 887 034f 05       		.uleb128 0x5
 888 0350 5E020000 		.4byte	.LASF55
 889 0354 10       		.byte	0x10
 890 0355 09       		.byte	0x9
 891 0356 2C       		.byte	0x2c
 892 0357 80030000 		.4byte	0x380
 893 035b 06       		.uleb128 0x6
 894 035c AC000000 		.4byte	.LASF56
 895 0360 09       		.byte	0x9
 896 0361 2D       		.byte	0x2d
 897 0362 63020000 		.4byte	0x263
 898 0366 00       		.byte	0
 899 0367 06       		.uleb128 0x6
 900 0368 23040000 		.4byte	.LASF57
 901 036c 09       		.byte	0x9
 902 036d 2F       		.byte	0x2f
 903 036e 5D020000 		.4byte	0x25d
 904 0372 08       		.byte	0x8
 905 0373 06       		.uleb128 0x6
 906 0374 AC030000 		.4byte	.LASF58
 907 0378 09       		.byte	0x9
 908 0379 31       		.byte	0x31
ARM GAS  /var/folders/6q/x_mk5n_j3p7_c40r_2k_78980000gn/T//cctzqlN0.s 			page 17


 909 037a 80030000 		.4byte	0x380
 910 037e 0C       		.byte	0xc
 911 037f 00       		.byte	0
 912 0380 09       		.uleb128 0x9
 913 0381 04       		.byte	0x4
 914 0382 4F030000 		.4byte	0x34f
 915 0386 03       		.uleb128 0x3
 916 0387 5E020000 		.4byte	.LASF55
 917 038b 09       		.byte	0x9
 918 038c 33       		.byte	0x33
 919 038d 4F030000 		.4byte	0x34f
 920 0391 03       		.uleb128 0x3
 921 0392 27000000 		.4byte	.LASF59
 922 0396 0A       		.byte	0xa
 923 0397 2C       		.byte	0x2c
 924 0398 9C030000 		.4byte	0x39c
 925 039c 09       		.uleb128 0x9
 926 039d 04       		.byte	0x4
 927 039e A2030000 		.4byte	0x3a2
 928 03a2 0E       		.uleb128 0xe
 929 03a3 99020000 		.4byte	0x299
 930 03a7 B1030000 		.4byte	0x3b1
 931 03ab 0F       		.uleb128 0xf
 932 03ac 2C000000 		.4byte	0x2c
 933 03b0 00       		.byte	0
 934 03b1 03       		.uleb128 0x3
 935 03b2 A3020000 		.4byte	.LASF60
 936 03b6 0B       		.byte	0xb
 937 03b7 34       		.byte	0x34
 938 03b8 BC030000 		.4byte	0x3bc
 939 03bc 05       		.uleb128 0x5
 940 03bd 3B040000 		.4byte	.LASF61
 941 03c1 20       		.byte	0x20
 942 03c2 0B       		.byte	0xb
 943 03c3 47       		.byte	0x47
 944 03c4 ED030000 		.4byte	0x3ed
 945 03c8 06       		.uleb128 0x6
 946 03c9 EC020000 		.4byte	.LASF62
 947 03cd 0B       		.byte	0xb
 948 03ce 48       		.byte	0x48
 949 03cf 91030000 		.4byte	0x391
 950 03d3 00       		.byte	0
 951 03d4 06       		.uleb128 0x6
 952 03d5 54000000 		.4byte	.LASF63
 953 03d9 0B       		.byte	0xb
 954 03da 4A       		.byte	0x4a
 955 03db 0C040000 		.4byte	0x40c
 956 03df 08       		.byte	0x8
 957 03e0 06       		.uleb128 0x6
 958 03e1 9E000000 		.4byte	.LASF64
 959 03e5 0B       		.byte	0xb
 960 03e6 4C       		.byte	0x4c
 961 03e7 86030000 		.4byte	0x386
 962 03eb 10       		.byte	0x10
 963 03ec 00       		.byte	0
 964 03ed 10       		.uleb128 0x10
 965 03ee 04       		.byte	0x4
ARM GAS  /var/folders/6q/x_mk5n_j3p7_c40r_2k_78980000gn/T//cctzqlN0.s 			page 18


 966 03ef 0B       		.byte	0xb
 967 03f0 3C       		.byte	0x3c
 968 03f1 0C040000 		.4byte	0x40c
 969 03f5 11       		.uleb128 0x11
 970 03f6 78000000 		.4byte	.LASF65
 971 03fa 0B       		.byte	0xb
 972 03fb 3D       		.byte	0x3d
 973 03fc 2D040000 		.4byte	0x42d
 974 0400 11       		.uleb128 0x11
 975 0401 66030000 		.4byte	.LASF66
 976 0405 0B       		.byte	0xb
 977 0406 3E       		.byte	0x3e
 978 0407 33040000 		.4byte	0x433
 979 040b 00       		.byte	0
 980 040c 12       		.uleb128 0x12
 981 040d 1D030000 		.4byte	.LASF88
 982 0411 08       		.byte	0x8
 983 0412 0B       		.byte	0xb
 984 0413 39       		.byte	0x39
 985 0414 2D040000 		.4byte	0x42d
 986 0418 11       		.uleb128 0x11
 987 0419 19010000 		.4byte	.LASF67
 988 041d 0B       		.byte	0xb
 989 041e 3A       		.byte	0x3a
 990 041f 9B020000 		.4byte	0x29b
 991 0423 13       		.uleb128 0x13
 992 0424 6800     		.ascii	"h\000"
 993 0426 0B       		.byte	0xb
 994 0427 41       		.byte	0x41
 995 0428 39040000 		.4byte	0x439
 996 042c 00       		.byte	0
 997 042d 09       		.uleb128 0x9
 998 042e 04       		.byte	0x4
 999 042f 0C040000 		.4byte	0x40c
 1000 0433 09       		.uleb128 0x9
 1001 0434 04       		.byte	0x4
 1002 0435 B1030000 		.4byte	0x3b1
 1003 0439 08       		.uleb128 0x8
 1004 043a 08       		.byte	0x8
 1005 043b 0B       		.byte	0xb
 1006 043c 3B       		.byte	0x3b
 1007 043d 58040000 		.4byte	0x458
 1008 0441 07       		.uleb128 0x7
 1009 0442 7500     		.ascii	"u\000"
 1010 0444 0B       		.byte	0xb
 1011 0445 3F       		.byte	0x3f
 1012 0446 ED030000 		.4byte	0x3ed
 1013 044a 00       		.byte	0
 1014 044b 06       		.uleb128 0x6
 1015 044c 20020000 		.4byte	.LASF68
 1016 0450 0B       		.byte	0xb
 1017 0451 40       		.byte	0x40
 1018 0452 2C000000 		.4byte	0x2c
 1019 0456 04       		.byte	0x4
 1020 0457 00       		.byte	0
 1021 0458 10       		.uleb128 0x10
 1022 0459 04       		.byte	0x4
ARM GAS  /var/folders/6q/x_mk5n_j3p7_c40r_2k_78980000gn/T//cctzqlN0.s 			page 19


 1023 045a 07       		.byte	0x7
 1024 045b 96       		.byte	0x96
 1025 045c 8D040000 		.4byte	0x48d
 1026 0460 11       		.uleb128 0x11
 1027 0461 0D000000 		.4byte	.LASF69
 1028 0465 07       		.byte	0x7
 1029 0466 9D       		.byte	0x9d
 1030 0467 13010000 		.4byte	0x113
 1031 046b 11       		.uleb128 0x11
 1032 046c 4B000000 		.4byte	.LASF70
 1033 0470 07       		.byte	0x7
 1034 0471 A4       		.byte	0xa4
 1035 0472 13010000 		.4byte	0x113
 1036 0476 11       		.uleb128 0x11
 1037 0477 04040000 		.4byte	.LASF71
 1038 047b 07       		.byte	0x7
 1039 047c AB       		.byte	0xab
 1040 047d 99020000 		.4byte	0x299
 1041 0481 11       		.uleb128 0x11
 1042 0482 29030000 		.4byte	.LASF72
 1043 0486 07       		.byte	0x7
 1044 0487 B2       		.byte	0xb2
 1045 0488 1E010000 		.4byte	0x11e
 1046 048c 00       		.byte	0
 1047 048d 09       		.uleb128 0x9
 1048 048e 04       		.byte	0x4
 1049 048f 9A040000 		.4byte	0x49a
 1050 0493 04       		.uleb128 0x4
 1051 0494 01       		.byte	0x1
 1052 0495 08       		.byte	0x8
 1053 0496 78030000 		.4byte	.LASF73
 1054 049a 14       		.uleb128 0x14
 1055 049b 93040000 		.4byte	0x493
 1056 049f 09       		.uleb128 0x9
 1057 04a0 04       		.byte	0x4
 1058 04a1 86030000 		.4byte	0x386
 1059 04a5 15       		.uleb128 0x15
 1060 04a6 18040000 		.4byte	.LASF74
 1061 04aa 01       		.byte	0x1
 1062 04ab 4B       		.byte	0x4b
 1063 04ac 00000000 		.4byte	.LFB7
 1064 04b0 1C000000 		.4byte	.LFE7-.LFB7
 1065 04b4 01       		.uleb128 0x1
 1066 04b5 9C       		.byte	0x9c
 1067 04b6 CE040000 		.4byte	0x4ce
 1068 04ba 16       		.uleb128 0x16
 1069 04bb 14000000 		.4byte	.LVL0
 1070 04bf D3060000 		.4byte	0x6d3
 1071 04c3 17       		.uleb128 0x17
 1072 04c4 01       		.uleb128 0x1
 1073 04c5 50       		.byte	0x50
 1074 04c6 05       		.uleb128 0x5
 1075 04c7 03       		.byte	0x3
 1076 04c8 10000000 		.4byte	.LANCHOR0+16
 1077 04cc 00       		.byte	0
 1078 04cd 00       		.byte	0
 1079 04ce 15       		.uleb128 0x15
ARM GAS  /var/folders/6q/x_mk5n_j3p7_c40r_2k_78980000gn/T//cctzqlN0.s 			page 20


 1080 04cf 6D000000 		.4byte	.LASF75
 1081 04d3 01       		.byte	0x1
 1082 04d4 63       		.byte	0x63
 1083 04d5 00000000 		.4byte	.LFB8
 1084 04d9 14000000 		.4byte	.LFE8-.LFB8
 1085 04dd 01       		.uleb128 0x1
 1086 04de 9C       		.byte	0x9c
 1087 04df 32050000 		.4byte	0x532
 1088 04e3 18       		.uleb128 0x18
 1089 04e4 5B000000 		.4byte	.LASF76
 1090 04e8 01       		.byte	0x1
 1091 04e9 63       		.byte	0x63
 1092 04ea 33040000 		.4byte	0x433
 1093 04ee 00000000 		.4byte	.LLST0
 1094 04f2 19       		.uleb128 0x19
 1095 04f3 62756600 		.ascii	"buf\000"
 1096 04f7 01       		.byte	0x1
 1097 04f8 63       		.byte	0x63
 1098 04f9 99020000 		.4byte	0x299
 1099 04fd 2E000000 		.4byte	.LLST1
 1100 0501 18       		.uleb128 0x18
 1101 0502 20020000 		.4byte	.LASF68
 1102 0506 01       		.byte	0x1
 1103 0507 63       		.byte	0x63
 1104 0508 2C000000 		.4byte	0x2c
 1105 050c 4F000000 		.4byte	.LLST2
 1106 0510 1A       		.uleb128 0x1a
 1107 0511 687000   		.ascii	"hp\000"
 1108 0514 01       		.byte	0x1
 1109 0515 64       		.byte	0x64
 1110 0516 2D040000 		.4byte	0x42d
 1111 051a 7D000000 		.4byte	.LLST3
 1112 051e 16       		.uleb128 0x16
 1113 051f 14000000 		.4byte	.LVL5
 1114 0523 D3060000 		.4byte	0x6d3
 1115 0527 17       		.uleb128 0x17
 1116 0528 01       		.uleb128 0x1
 1117 0529 50       		.byte	0x50
 1118 052a 05       		.uleb128 0x5
 1119 052b F3       		.byte	0xf3
 1120 052c 01       		.uleb128 0x1
 1121 052d 50       		.byte	0x50
 1122 052e 23       		.byte	0x23
 1123 052f 10       		.uleb128 0x10
 1124 0530 00       		.byte	0
 1125 0531 00       		.byte	0
 1126 0532 1B       		.uleb128 0x1b
 1127 0533 46030000 		.4byte	.LASF78
 1128 0537 01       		.byte	0x1
 1129 0538 84       		.byte	0x84
 1130 0539 99020000 		.4byte	0x299
 1131 053d 00000000 		.4byte	.LFB9
 1132 0541 80000000 		.4byte	.LFE9-.LFB9
 1133 0545 01       		.uleb128 0x1
 1134 0546 9C       		.byte	0x9c
 1135 0547 CA050000 		.4byte	0x5ca
 1136 054b 18       		.uleb128 0x18
ARM GAS  /var/folders/6q/x_mk5n_j3p7_c40r_2k_78980000gn/T//cctzqlN0.s 			page 21


 1137 054c 5B000000 		.4byte	.LASF76
 1138 0550 01       		.byte	0x1
 1139 0551 84       		.byte	0x84
 1140 0552 33040000 		.4byte	0x433
 1141 0556 9E000000 		.4byte	.LLST4
 1142 055a 18       		.uleb128 0x18
 1143 055b 20020000 		.4byte	.LASF68
 1144 055f 01       		.byte	0x1
 1145 0560 84       		.byte	0x84
 1146 0561 2C000000 		.4byte	0x2c
 1147 0565 BC000000 		.4byte	.LLST5
 1148 0569 1A       		.uleb128 0x1a
 1149 056a 717000   		.ascii	"qp\000"
 1150 056d 01       		.byte	0x1
 1151 056e 85       		.byte	0x85
 1152 056f 2D040000 		.4byte	0x42d
 1153 0573 E7000000 		.4byte	.LLST6
 1154 0577 1A       		.uleb128 0x1a
 1155 0578 687000   		.ascii	"hp\000"
 1156 057b 01       		.byte	0x1
 1157 057c 85       		.byte	0x85
 1158 057d 2D040000 		.4byte	0x42d
 1159 0581 10010000 		.4byte	.LLST7
 1160 0585 1A       		.uleb128 0x1a
 1161 0586 667000   		.ascii	"fp\000"
 1162 0589 01       		.byte	0x1
 1163 058a 85       		.byte	0x85
 1164 058b 2D040000 		.4byte	0x42d
 1165 058f 5C010000 		.4byte	.LLST8
 1166 0593 1C       		.uleb128 0x1c
 1167 0594 1C000000 		.4byte	.LVL11
 1168 0598 DE060000 		.4byte	0x6de
 1169 059c A7050000 		.4byte	0x5a7
 1170 05a0 17       		.uleb128 0x17
 1171 05a1 01       		.uleb128 0x1
 1172 05a2 50       		.byte	0x50
 1173 05a3 02       		.uleb128 0x2
 1174 05a4 76       		.byte	0x76
 1175 05a5 10       		.sleb128 16
 1176 05a6 00       		.byte	0
 1177 05a7 1D       		.uleb128 0x1d
 1178 05a8 30000000 		.4byte	.LVL15
 1179 05ac E9060000 		.4byte	0x6e9
 1180 05b0 1E       		.uleb128 0x1e
 1181 05b1 3A000000 		.4byte	.LVL16
 1182 05b5 C0050000 		.4byte	0x5c0
 1183 05b9 17       		.uleb128 0x17
 1184 05ba 01       		.uleb128 0x1
 1185 05bb 50       		.byte	0x50
 1186 05bc 02       		.uleb128 0x2
 1187 05bd 75       		.byte	0x75
 1188 05be 08       		.sleb128 8
 1189 05bf 00       		.byte	0
 1190 05c0 1D       		.uleb128 0x1d
 1191 05c1 5E000000 		.4byte	.LVL20
 1192 05c5 E9060000 		.4byte	0x6e9
 1193 05c9 00       		.byte	0
ARM GAS  /var/folders/6q/x_mk5n_j3p7_c40r_2k_78980000gn/T//cctzqlN0.s 			page 22


 1194 05ca 15       		.uleb128 0x15
 1195 05cb B4000000 		.4byte	.LASF77
 1196 05cf 01       		.byte	0x1
 1197 05d0 C2       		.byte	0xc2
 1198 05d1 00000000 		.4byte	.LFB10
 1199 05d5 92000000 		.4byte	.LFE10-.LFB10
 1200 05d9 01       		.uleb128 0x1
 1201 05da 9C       		.byte	0x9c
 1202 05db 3E060000 		.4byte	0x63e
 1203 05df 19       		.uleb128 0x19
 1204 05e0 7000     		.ascii	"p\000"
 1205 05e2 01       		.byte	0x1
 1206 05e3 C2       		.byte	0xc2
 1207 05e4 99020000 		.4byte	0x299
 1208 05e8 6F010000 		.4byte	.LLST9
 1209 05ec 1A       		.uleb128 0x1a
 1210 05ed 717000   		.ascii	"qp\000"
 1211 05f0 01       		.byte	0x1
 1212 05f1 C3       		.byte	0xc3
 1213 05f2 2D040000 		.4byte	0x42d
 1214 05f6 B4010000 		.4byte	.LLST10
 1215 05fa 1A       		.uleb128 0x1a
 1216 05fb 687000   		.ascii	"hp\000"
 1217 05fe 01       		.byte	0x1
 1218 05ff C3       		.byte	0xc3
 1219 0600 2D040000 		.4byte	0x42d
 1220 0604 E8010000 		.4byte	.LLST11
 1221 0608 1F       		.uleb128 0x1f
 1222 0609 5B000000 		.4byte	.LASF76
 1223 060d 01       		.byte	0x1
 1224 060e C4       		.byte	0xc4
 1225 060f 33040000 		.4byte	0x433
 1226 0613 26020000 		.4byte	.LLST12
 1227 0617 1C       		.uleb128 0x1c
 1228 0618 16000000 		.4byte	.LVL30
 1229 061c DE060000 		.4byte	0x6de
 1230 0620 2B060000 		.4byte	0x62b
 1231 0624 17       		.uleb128 0x17
 1232 0625 01       		.uleb128 0x1
 1233 0626 50       		.byte	0x50
 1234 0627 02       		.uleb128 0x2
 1235 0628 75       		.byte	0x75
 1236 0629 08       		.sleb128 8
 1237 062a 00       		.byte	0
 1238 062b 20       		.uleb128 0x20
 1239 062c 5E000000 		.4byte	.LVL37
 1240 0630 E9060000 		.4byte	0x6e9
 1241 0634 20       		.uleb128 0x20
 1242 0635 92000000 		.4byte	.LVL39
 1243 0639 E9060000 		.4byte	0x6e9
 1244 063d 00       		.byte	0
 1245 063e 1B       		.uleb128 0x1b
 1246 063f 9F030000 		.4byte	.LASF79
 1247 0643 01       		.byte	0x1
 1248 0644 FA       		.byte	0xfa
 1249 0645 2C000000 		.4byte	0x2c
 1250 0649 00000000 		.4byte	.LFB11
ARM GAS  /var/folders/6q/x_mk5n_j3p7_c40r_2k_78980000gn/T//cctzqlN0.s 			page 23


 1251 064d 40000000 		.4byte	.LFE11-.LFB11
 1252 0651 01       		.uleb128 0x1
 1253 0652 9C       		.byte	0x9c
 1254 0653 BC060000 		.4byte	0x6bc
 1255 0657 18       		.uleb128 0x18
 1256 0658 5B000000 		.4byte	.LASF76
 1257 065c 01       		.byte	0x1
 1258 065d FA       		.byte	0xfa
 1259 065e 33040000 		.4byte	0x433
 1260 0662 52020000 		.4byte	.LLST13
 1261 0666 18       		.uleb128 0x18
 1262 0667 0B040000 		.4byte	.LASF80
 1263 066b 01       		.byte	0x1
 1264 066c FA       		.byte	0xfa
 1265 066d BC060000 		.4byte	0x6bc
 1266 0671 B5020000 		.4byte	.LLST14
 1267 0675 1A       		.uleb128 0x1a
 1268 0676 717000   		.ascii	"qp\000"
 1269 0679 01       		.byte	0x1
 1270 067a FB       		.byte	0xfb
 1271 067b 2D040000 		.4byte	0x42d
 1272 067f D3020000 		.4byte	.LLST15
 1273 0683 1A       		.uleb128 0x1a
 1274 0684 6E00     		.ascii	"n\000"
 1275 0686 01       		.byte	0x1
 1276 0687 FC       		.byte	0xfc
 1277 0688 2C000000 		.4byte	0x2c
 1278 068c 33030000 		.4byte	.LLST16
 1279 0690 1A       		.uleb128 0x1a
 1280 0691 737A00   		.ascii	"sz\000"
 1281 0694 01       		.byte	0x1
 1282 0695 FC       		.byte	0xfc
 1283 0696 2C000000 		.4byte	0x2c
 1284 069a 76030000 		.4byte	.LLST17
 1285 069e 1C       		.uleb128 0x1c
 1286 069f 14000000 		.4byte	.LVL42
 1287 06a3 DE060000 		.4byte	0x6de
 1288 06a7 B2060000 		.4byte	0x6b2
 1289 06ab 17       		.uleb128 0x17
 1290 06ac 01       		.uleb128 0x1
 1291 06ad 50       		.byte	0x50
 1292 06ae 02       		.uleb128 0x2
 1293 06af 74       		.byte	0x74
 1294 06b0 10       		.sleb128 16
 1295 06b1 00       		.byte	0
 1296 06b2 1D       		.uleb128 0x1d
 1297 06b3 30000000 		.4byte	.LVL47
 1298 06b7 E9060000 		.4byte	0x6e9
 1299 06bb 00       		.byte	0
 1300 06bc 09       		.uleb128 0x9
 1301 06bd 04       		.byte	0x4
 1302 06be 2C000000 		.4byte	0x2c
 1303 06c2 21       		.uleb128 0x21
 1304 06c3 6B030000 		.4byte	.LASF81
 1305 06c7 01       		.byte	0x1
 1306 06c8 44       		.byte	0x44
 1307 06c9 B1030000 		.4byte	0x3b1
ARM GAS  /var/folders/6q/x_mk5n_j3p7_c40r_2k_78980000gn/T//cctzqlN0.s 			page 24


 1308 06cd 05       		.uleb128 0x5
 1309 06ce 03       		.byte	0x3
 1310 06cf 00000000 		.4byte	default_heap
 1311 06d3 22       		.uleb128 0x22
 1312 06d4 EB030000 		.4byte	.LASF82
 1313 06d8 EB030000 		.4byte	.LASF82
 1314 06dc 09       		.byte	0x9
 1315 06dd 38       		.byte	0x38
 1316 06de 22       		.uleb128 0x22
 1317 06df 84020000 		.4byte	.LASF83
 1318 06e3 84020000 		.4byte	.LASF83
 1319 06e7 09       		.byte	0x9
 1320 06e8 39       		.byte	0x39
 1321 06e9 22       		.uleb128 0x22
 1322 06ea 61000000 		.4byte	.LASF84
 1323 06ee 61000000 		.4byte	.LASF84
 1324 06f2 09       		.byte	0x9
 1325 06f3 3D       		.byte	0x3d
 1326 06f4 00       		.byte	0
 1327              		.section	.debug_abbrev,"",%progbits
 1328              	.Ldebug_abbrev0:
 1329 0000 01       		.uleb128 0x1
 1330 0001 11       		.uleb128 0x11
 1331 0002 01       		.byte	0x1
 1332 0003 25       		.uleb128 0x25
 1333 0004 0E       		.uleb128 0xe
 1334 0005 13       		.uleb128 0x13
 1335 0006 0B       		.uleb128 0xb
 1336 0007 03       		.uleb128 0x3
 1337 0008 0E       		.uleb128 0xe
 1338 0009 1B       		.uleb128 0x1b
 1339 000a 0E       		.uleb128 0xe
 1340 000b 55       		.uleb128 0x55
 1341 000c 17       		.uleb128 0x17
 1342 000d 11       		.uleb128 0x11
 1343 000e 01       		.uleb128 0x1
 1344 000f 10       		.uleb128 0x10
 1345 0010 17       		.uleb128 0x17
 1346 0011 00       		.byte	0
 1347 0012 00       		.byte	0
 1348 0013 02       		.uleb128 0x2
 1349 0014 24       		.uleb128 0x24
 1350 0015 00       		.byte	0
 1351 0016 0B       		.uleb128 0xb
 1352 0017 0B       		.uleb128 0xb
 1353 0018 3E       		.uleb128 0x3e
 1354 0019 0B       		.uleb128 0xb
 1355 001a 03       		.uleb128 0x3
 1356 001b 08       		.uleb128 0x8
 1357 001c 00       		.byte	0
 1358 001d 00       		.byte	0
 1359 001e 03       		.uleb128 0x3
 1360 001f 16       		.uleb128 0x16
 1361 0020 00       		.byte	0
 1362 0021 03       		.uleb128 0x3
 1363 0022 0E       		.uleb128 0xe
 1364 0023 3A       		.uleb128 0x3a
ARM GAS  /var/folders/6q/x_mk5n_j3p7_c40r_2k_78980000gn/T//cctzqlN0.s 			page 25


 1365 0024 0B       		.uleb128 0xb
 1366 0025 3B       		.uleb128 0x3b
 1367 0026 0B       		.uleb128 0xb
 1368 0027 49       		.uleb128 0x49
 1369 0028 13       		.uleb128 0x13
 1370 0029 00       		.byte	0
 1371 002a 00       		.byte	0
 1372 002b 04       		.uleb128 0x4
 1373 002c 24       		.uleb128 0x24
 1374 002d 00       		.byte	0
 1375 002e 0B       		.uleb128 0xb
 1376 002f 0B       		.uleb128 0xb
 1377 0030 3E       		.uleb128 0x3e
 1378 0031 0B       		.uleb128 0xb
 1379 0032 03       		.uleb128 0x3
 1380 0033 0E       		.uleb128 0xe
 1381 0034 00       		.byte	0
 1382 0035 00       		.byte	0
 1383 0036 05       		.uleb128 0x5
 1384 0037 13       		.uleb128 0x13
 1385 0038 01       		.byte	0x1
 1386 0039 03       		.uleb128 0x3
 1387 003a 0E       		.uleb128 0xe
 1388 003b 0B       		.uleb128 0xb
 1389 003c 0B       		.uleb128 0xb
 1390 003d 3A       		.uleb128 0x3a
 1391 003e 0B       		.uleb128 0xb
 1392 003f 3B       		.uleb128 0x3b
 1393 0040 0B       		.uleb128 0xb
 1394 0041 01       		.uleb128 0x1
 1395 0042 13       		.uleb128 0x13
 1396 0043 00       		.byte	0
 1397 0044 00       		.byte	0
 1398 0045 06       		.uleb128 0x6
 1399 0046 0D       		.uleb128 0xd
 1400 0047 00       		.byte	0
 1401 0048 03       		.uleb128 0x3
 1402 0049 0E       		.uleb128 0xe
 1403 004a 3A       		.uleb128 0x3a
 1404 004b 0B       		.uleb128 0xb
 1405 004c 3B       		.uleb128 0x3b
 1406 004d 0B       		.uleb128 0xb
 1407 004e 49       		.uleb128 0x49
 1408 004f 13       		.uleb128 0x13
 1409 0050 38       		.uleb128 0x38
 1410 0051 0B       		.uleb128 0xb
 1411 0052 00       		.byte	0
 1412 0053 00       		.byte	0
 1413 0054 07       		.uleb128 0x7
 1414 0055 0D       		.uleb128 0xd
 1415 0056 00       		.byte	0
 1416 0057 03       		.uleb128 0x3
 1417 0058 08       		.uleb128 0x8
 1418 0059 3A       		.uleb128 0x3a
 1419 005a 0B       		.uleb128 0xb
 1420 005b 3B       		.uleb128 0x3b
 1421 005c 0B       		.uleb128 0xb
ARM GAS  /var/folders/6q/x_mk5n_j3p7_c40r_2k_78980000gn/T//cctzqlN0.s 			page 26


 1422 005d 49       		.uleb128 0x49
 1423 005e 13       		.uleb128 0x13
 1424 005f 38       		.uleb128 0x38
 1425 0060 0B       		.uleb128 0xb
 1426 0061 00       		.byte	0
 1427 0062 00       		.byte	0
 1428 0063 08       		.uleb128 0x8
 1429 0064 13       		.uleb128 0x13
 1430 0065 01       		.byte	0x1
 1431 0066 0B       		.uleb128 0xb
 1432 0067 0B       		.uleb128 0xb
 1433 0068 3A       		.uleb128 0x3a
 1434 0069 0B       		.uleb128 0xb
 1435 006a 3B       		.uleb128 0x3b
 1436 006b 0B       		.uleb128 0xb
 1437 006c 01       		.uleb128 0x1
 1438 006d 13       		.uleb128 0x13
 1439 006e 00       		.byte	0
 1440 006f 00       		.byte	0
 1441 0070 09       		.uleb128 0x9
 1442 0071 0F       		.uleb128 0xf
 1443 0072 00       		.byte	0
 1444 0073 0B       		.uleb128 0xb
 1445 0074 0B       		.uleb128 0xb
 1446 0075 49       		.uleb128 0x49
 1447 0076 13       		.uleb128 0x13
 1448 0077 00       		.byte	0
 1449 0078 00       		.byte	0
 1450 0079 0A       		.uleb128 0xa
 1451 007a 0F       		.uleb128 0xf
 1452 007b 00       		.byte	0
 1453 007c 0B       		.uleb128 0xb
 1454 007d 0B       		.uleb128 0xb
 1455 007e 00       		.byte	0
 1456 007f 00       		.byte	0
 1457 0080 0B       		.uleb128 0xb
 1458 0081 13       		.uleb128 0x13
 1459 0082 01       		.byte	0x1
 1460 0083 03       		.uleb128 0x3
 1461 0084 0E       		.uleb128 0xe
 1462 0085 0B       		.uleb128 0xb
 1463 0086 0B       		.uleb128 0xb
 1464 0087 3A       		.uleb128 0x3a
 1465 0088 0B       		.uleb128 0xb
 1466 0089 3B       		.uleb128 0x3b
 1467 008a 05       		.uleb128 0x5
 1468 008b 01       		.uleb128 0x1
 1469 008c 13       		.uleb128 0x13
 1470 008d 00       		.byte	0
 1471 008e 00       		.byte	0
 1472 008f 0C       		.uleb128 0xc
 1473 0090 0D       		.uleb128 0xd
 1474 0091 00       		.byte	0
 1475 0092 03       		.uleb128 0x3
 1476 0093 08       		.uleb128 0x8
 1477 0094 3A       		.uleb128 0x3a
 1478 0095 0B       		.uleb128 0xb
ARM GAS  /var/folders/6q/x_mk5n_j3p7_c40r_2k_78980000gn/T//cctzqlN0.s 			page 27


 1479 0096 3B       		.uleb128 0x3b
 1480 0097 05       		.uleb128 0x5
 1481 0098 49       		.uleb128 0x49
 1482 0099 13       		.uleb128 0x13
 1483 009a 38       		.uleb128 0x38
 1484 009b 0B       		.uleb128 0xb
 1485 009c 00       		.byte	0
 1486 009d 00       		.byte	0
 1487 009e 0D       		.uleb128 0xd
 1488 009f 35       		.uleb128 0x35
 1489 00a0 00       		.byte	0
 1490 00a1 49       		.uleb128 0x49
 1491 00a2 13       		.uleb128 0x13
 1492 00a3 00       		.byte	0
 1493 00a4 00       		.byte	0
 1494 00a5 0E       		.uleb128 0xe
 1495 00a6 15       		.uleb128 0x15
 1496 00a7 01       		.byte	0x1
 1497 00a8 27       		.uleb128 0x27
 1498 00a9 19       		.uleb128 0x19
 1499 00aa 49       		.uleb128 0x49
 1500 00ab 13       		.uleb128 0x13
 1501 00ac 01       		.uleb128 0x1
 1502 00ad 13       		.uleb128 0x13
 1503 00ae 00       		.byte	0
 1504 00af 00       		.byte	0
 1505 00b0 0F       		.uleb128 0xf
 1506 00b1 05       		.uleb128 0x5
 1507 00b2 00       		.byte	0
 1508 00b3 49       		.uleb128 0x49
 1509 00b4 13       		.uleb128 0x13
 1510 00b5 00       		.byte	0
 1511 00b6 00       		.byte	0
 1512 00b7 10       		.uleb128 0x10
 1513 00b8 17       		.uleb128 0x17
 1514 00b9 01       		.byte	0x1
 1515 00ba 0B       		.uleb128 0xb
 1516 00bb 0B       		.uleb128 0xb
 1517 00bc 3A       		.uleb128 0x3a
 1518 00bd 0B       		.uleb128 0xb
 1519 00be 3B       		.uleb128 0x3b
 1520 00bf 0B       		.uleb128 0xb
 1521 00c0 01       		.uleb128 0x1
 1522 00c1 13       		.uleb128 0x13
 1523 00c2 00       		.byte	0
 1524 00c3 00       		.byte	0
 1525 00c4 11       		.uleb128 0x11
 1526 00c5 0D       		.uleb128 0xd
 1527 00c6 00       		.byte	0
 1528 00c7 03       		.uleb128 0x3
 1529 00c8 0E       		.uleb128 0xe
 1530 00c9 3A       		.uleb128 0x3a
 1531 00ca 0B       		.uleb128 0xb
 1532 00cb 3B       		.uleb128 0x3b
 1533 00cc 0B       		.uleb128 0xb
 1534 00cd 49       		.uleb128 0x49
 1535 00ce 13       		.uleb128 0x13
ARM GAS  /var/folders/6q/x_mk5n_j3p7_c40r_2k_78980000gn/T//cctzqlN0.s 			page 28


 1536 00cf 00       		.byte	0
 1537 00d0 00       		.byte	0
 1538 00d1 12       		.uleb128 0x12
 1539 00d2 17       		.uleb128 0x17
 1540 00d3 01       		.byte	0x1
 1541 00d4 03       		.uleb128 0x3
 1542 00d5 0E       		.uleb128 0xe
 1543 00d6 0B       		.uleb128 0xb
 1544 00d7 0B       		.uleb128 0xb
 1545 00d8 3A       		.uleb128 0x3a
 1546 00d9 0B       		.uleb128 0xb
 1547 00da 3B       		.uleb128 0x3b
 1548 00db 0B       		.uleb128 0xb
 1549 00dc 01       		.uleb128 0x1
 1550 00dd 13       		.uleb128 0x13
 1551 00de 00       		.byte	0
 1552 00df 00       		.byte	0
 1553 00e0 13       		.uleb128 0x13
 1554 00e1 0D       		.uleb128 0xd
 1555 00e2 00       		.byte	0
 1556 00e3 03       		.uleb128 0x3
 1557 00e4 08       		.uleb128 0x8
 1558 00e5 3A       		.uleb128 0x3a
 1559 00e6 0B       		.uleb128 0xb
 1560 00e7 3B       		.uleb128 0x3b
 1561 00e8 0B       		.uleb128 0xb
 1562 00e9 49       		.uleb128 0x49
 1563 00ea 13       		.uleb128 0x13
 1564 00eb 00       		.byte	0
 1565 00ec 00       		.byte	0
 1566 00ed 14       		.uleb128 0x14
 1567 00ee 26       		.uleb128 0x26
 1568 00ef 00       		.byte	0
 1569 00f0 49       		.uleb128 0x49
 1570 00f1 13       		.uleb128 0x13
 1571 00f2 00       		.byte	0
 1572 00f3 00       		.byte	0
 1573 00f4 15       		.uleb128 0x15
 1574 00f5 2E       		.uleb128 0x2e
 1575 00f6 01       		.byte	0x1
 1576 00f7 3F       		.uleb128 0x3f
 1577 00f8 19       		.uleb128 0x19
 1578 00f9 03       		.uleb128 0x3
 1579 00fa 0E       		.uleb128 0xe
 1580 00fb 3A       		.uleb128 0x3a
 1581 00fc 0B       		.uleb128 0xb
 1582 00fd 3B       		.uleb128 0x3b
 1583 00fe 0B       		.uleb128 0xb
 1584 00ff 27       		.uleb128 0x27
 1585 0100 19       		.uleb128 0x19
 1586 0101 11       		.uleb128 0x11
 1587 0102 01       		.uleb128 0x1
 1588 0103 12       		.uleb128 0x12
 1589 0104 06       		.uleb128 0x6
 1590 0105 40       		.uleb128 0x40
 1591 0106 18       		.uleb128 0x18
 1592 0107 9742     		.uleb128 0x2117
ARM GAS  /var/folders/6q/x_mk5n_j3p7_c40r_2k_78980000gn/T//cctzqlN0.s 			page 29


 1593 0109 19       		.uleb128 0x19
 1594 010a 01       		.uleb128 0x1
 1595 010b 13       		.uleb128 0x13
 1596 010c 00       		.byte	0
 1597 010d 00       		.byte	0
 1598 010e 16       		.uleb128 0x16
 1599 010f 898201   		.uleb128 0x4109
 1600 0112 01       		.byte	0x1
 1601 0113 11       		.uleb128 0x11
 1602 0114 01       		.uleb128 0x1
 1603 0115 9542     		.uleb128 0x2115
 1604 0117 19       		.uleb128 0x19
 1605 0118 31       		.uleb128 0x31
 1606 0119 13       		.uleb128 0x13
 1607 011a 00       		.byte	0
 1608 011b 00       		.byte	0
 1609 011c 17       		.uleb128 0x17
 1610 011d 8A8201   		.uleb128 0x410a
 1611 0120 00       		.byte	0
 1612 0121 02       		.uleb128 0x2
 1613 0122 18       		.uleb128 0x18
 1614 0123 9142     		.uleb128 0x2111
 1615 0125 18       		.uleb128 0x18
 1616 0126 00       		.byte	0
 1617 0127 00       		.byte	0
 1618 0128 18       		.uleb128 0x18
 1619 0129 05       		.uleb128 0x5
 1620 012a 00       		.byte	0
 1621 012b 03       		.uleb128 0x3
 1622 012c 0E       		.uleb128 0xe
 1623 012d 3A       		.uleb128 0x3a
 1624 012e 0B       		.uleb128 0xb
 1625 012f 3B       		.uleb128 0x3b
 1626 0130 0B       		.uleb128 0xb
 1627 0131 49       		.uleb128 0x49
 1628 0132 13       		.uleb128 0x13
 1629 0133 02       		.uleb128 0x2
 1630 0134 17       		.uleb128 0x17
 1631 0135 00       		.byte	0
 1632 0136 00       		.byte	0
 1633 0137 19       		.uleb128 0x19
 1634 0138 05       		.uleb128 0x5
 1635 0139 00       		.byte	0
 1636 013a 03       		.uleb128 0x3
 1637 013b 08       		.uleb128 0x8
 1638 013c 3A       		.uleb128 0x3a
 1639 013d 0B       		.uleb128 0xb
 1640 013e 3B       		.uleb128 0x3b
 1641 013f 0B       		.uleb128 0xb
 1642 0140 49       		.uleb128 0x49
 1643 0141 13       		.uleb128 0x13
 1644 0142 02       		.uleb128 0x2
 1645 0143 17       		.uleb128 0x17
 1646 0144 00       		.byte	0
 1647 0145 00       		.byte	0
 1648 0146 1A       		.uleb128 0x1a
 1649 0147 34       		.uleb128 0x34
ARM GAS  /var/folders/6q/x_mk5n_j3p7_c40r_2k_78980000gn/T//cctzqlN0.s 			page 30


 1650 0148 00       		.byte	0
 1651 0149 03       		.uleb128 0x3
 1652 014a 08       		.uleb128 0x8
 1653 014b 3A       		.uleb128 0x3a
 1654 014c 0B       		.uleb128 0xb
 1655 014d 3B       		.uleb128 0x3b
 1656 014e 0B       		.uleb128 0xb
 1657 014f 49       		.uleb128 0x49
 1658 0150 13       		.uleb128 0x13
 1659 0151 02       		.uleb128 0x2
 1660 0152 17       		.uleb128 0x17
 1661 0153 00       		.byte	0
 1662 0154 00       		.byte	0
 1663 0155 1B       		.uleb128 0x1b
 1664 0156 2E       		.uleb128 0x2e
 1665 0157 01       		.byte	0x1
 1666 0158 3F       		.uleb128 0x3f
 1667 0159 19       		.uleb128 0x19
 1668 015a 03       		.uleb128 0x3
 1669 015b 0E       		.uleb128 0xe
 1670 015c 3A       		.uleb128 0x3a
 1671 015d 0B       		.uleb128 0xb
 1672 015e 3B       		.uleb128 0x3b
 1673 015f 0B       		.uleb128 0xb
 1674 0160 27       		.uleb128 0x27
 1675 0161 19       		.uleb128 0x19
 1676 0162 49       		.uleb128 0x49
 1677 0163 13       		.uleb128 0x13
 1678 0164 11       		.uleb128 0x11
 1679 0165 01       		.uleb128 0x1
 1680 0166 12       		.uleb128 0x12
 1681 0167 06       		.uleb128 0x6
 1682 0168 40       		.uleb128 0x40
 1683 0169 18       		.uleb128 0x18
 1684 016a 9742     		.uleb128 0x2117
 1685 016c 19       		.uleb128 0x19
 1686 016d 01       		.uleb128 0x1
 1687 016e 13       		.uleb128 0x13
 1688 016f 00       		.byte	0
 1689 0170 00       		.byte	0
 1690 0171 1C       		.uleb128 0x1c
 1691 0172 898201   		.uleb128 0x4109
 1692 0175 01       		.byte	0x1
 1693 0176 11       		.uleb128 0x11
 1694 0177 01       		.uleb128 0x1
 1695 0178 31       		.uleb128 0x31
 1696 0179 13       		.uleb128 0x13
 1697 017a 01       		.uleb128 0x1
 1698 017b 13       		.uleb128 0x13
 1699 017c 00       		.byte	0
 1700 017d 00       		.byte	0
 1701 017e 1D       		.uleb128 0x1d
 1702 017f 898201   		.uleb128 0x4109
 1703 0182 00       		.byte	0
 1704 0183 11       		.uleb128 0x11
 1705 0184 01       		.uleb128 0x1
 1706 0185 31       		.uleb128 0x31
ARM GAS  /var/folders/6q/x_mk5n_j3p7_c40r_2k_78980000gn/T//cctzqlN0.s 			page 31


 1707 0186 13       		.uleb128 0x13
 1708 0187 00       		.byte	0
 1709 0188 00       		.byte	0
 1710 0189 1E       		.uleb128 0x1e
 1711 018a 898201   		.uleb128 0x4109
 1712 018d 01       		.byte	0x1
 1713 018e 11       		.uleb128 0x11
 1714 018f 01       		.uleb128 0x1
 1715 0190 01       		.uleb128 0x1
 1716 0191 13       		.uleb128 0x13
 1717 0192 00       		.byte	0
 1718 0193 00       		.byte	0
 1719 0194 1F       		.uleb128 0x1f
 1720 0195 34       		.uleb128 0x34
 1721 0196 00       		.byte	0
 1722 0197 03       		.uleb128 0x3
 1723 0198 0E       		.uleb128 0xe
 1724 0199 3A       		.uleb128 0x3a
 1725 019a 0B       		.uleb128 0xb
 1726 019b 3B       		.uleb128 0x3b
 1727 019c 0B       		.uleb128 0xb
 1728 019d 49       		.uleb128 0x49
 1729 019e 13       		.uleb128 0x13
 1730 019f 02       		.uleb128 0x2
 1731 01a0 17       		.uleb128 0x17
 1732 01a1 00       		.byte	0
 1733 01a2 00       		.byte	0
 1734 01a3 20       		.uleb128 0x20
 1735 01a4 898201   		.uleb128 0x4109
 1736 01a7 00       		.byte	0
 1737 01a8 11       		.uleb128 0x11
 1738 01a9 01       		.uleb128 0x1
 1739 01aa 9542     		.uleb128 0x2115
 1740 01ac 19       		.uleb128 0x19
 1741 01ad 31       		.uleb128 0x31
 1742 01ae 13       		.uleb128 0x13
 1743 01af 00       		.byte	0
 1744 01b0 00       		.byte	0
 1745 01b1 21       		.uleb128 0x21
 1746 01b2 34       		.uleb128 0x34
 1747 01b3 00       		.byte	0
 1748 01b4 03       		.uleb128 0x3
 1749 01b5 0E       		.uleb128 0xe
 1750 01b6 3A       		.uleb128 0x3a
 1751 01b7 0B       		.uleb128 0xb
 1752 01b8 3B       		.uleb128 0x3b
 1753 01b9 0B       		.uleb128 0xb
 1754 01ba 49       		.uleb128 0x49
 1755 01bb 13       		.uleb128 0x13
 1756 01bc 02       		.uleb128 0x2
 1757 01bd 18       		.uleb128 0x18
 1758 01be 00       		.byte	0
 1759 01bf 00       		.byte	0
 1760 01c0 22       		.uleb128 0x22
 1761 01c1 2E       		.uleb128 0x2e
 1762 01c2 00       		.byte	0
 1763 01c3 3F       		.uleb128 0x3f
ARM GAS  /var/folders/6q/x_mk5n_j3p7_c40r_2k_78980000gn/T//cctzqlN0.s 			page 32


 1764 01c4 19       		.uleb128 0x19
 1765 01c5 3C       		.uleb128 0x3c
 1766 01c6 19       		.uleb128 0x19
 1767 01c7 6E       		.uleb128 0x6e
 1768 01c8 0E       		.uleb128 0xe
 1769 01c9 03       		.uleb128 0x3
 1770 01ca 0E       		.uleb128 0xe
 1771 01cb 3A       		.uleb128 0x3a
 1772 01cc 0B       		.uleb128 0xb
 1773 01cd 3B       		.uleb128 0x3b
 1774 01ce 0B       		.uleb128 0xb
 1775 01cf 00       		.byte	0
 1776 01d0 00       		.byte	0
 1777 01d1 00       		.byte	0
 1778              		.section	.debug_loc,"",%progbits
 1779              	.Ldebug_loc0:
 1780              	.LLST0:
 1781 0000 00000000 		.4byte	.LVL1
 1782 0004 0C000000 		.4byte	.LVL4
 1783 0008 0100     		.2byte	0x1
 1784 000a 50       		.byte	0x50
 1785 000b 0C000000 		.4byte	.LVL4
 1786 000f 13000000 		.4byte	.LVL5-1
 1787 0013 0300     		.2byte	0x3
 1788 0015 70       		.byte	0x70
 1789 0016 70       		.sleb128 -16
 1790 0017 9F       		.byte	0x9f
 1791 0018 13000000 		.4byte	.LVL5-1
 1792 001c 14000000 		.4byte	.LFE8
 1793 0020 0400     		.2byte	0x4
 1794 0022 F3       		.byte	0xf3
 1795 0023 01       		.uleb128 0x1
 1796 0024 50       		.byte	0x50
 1797 0025 9F       		.byte	0x9f
 1798 0026 00000000 		.4byte	0
 1799 002a 00000000 		.4byte	0
 1800              	.LLST1:
 1801 002e 00000000 		.4byte	.LVL1
 1802 0032 13000000 		.4byte	.LVL5-1
 1803 0036 0100     		.2byte	0x1
 1804 0038 51       		.byte	0x51
 1805 0039 13000000 		.4byte	.LVL5-1
 1806 003d 14000000 		.4byte	.LFE8
 1807 0041 0400     		.2byte	0x4
 1808 0043 F3       		.byte	0xf3
 1809 0044 01       		.uleb128 0x1
 1810 0045 51       		.byte	0x51
 1811 0046 9F       		.byte	0x9f
 1812 0047 00000000 		.4byte	0
 1813 004b 00000000 		.4byte	0
 1814              	.LLST2:
 1815 004f 00000000 		.4byte	.LVL1
 1816 0053 04000000 		.4byte	.LVL2
 1817 0057 0100     		.2byte	0x1
 1818 0059 52       		.byte	0x52
 1819 005a 04000000 		.4byte	.LVL2
 1820 005e 13000000 		.4byte	.LVL5-1
ARM GAS  /var/folders/6q/x_mk5n_j3p7_c40r_2k_78980000gn/T//cctzqlN0.s 			page 33


 1821 0062 0300     		.2byte	0x3
 1822 0064 72       		.byte	0x72
 1823 0065 08       		.sleb128 8
 1824 0066 9F       		.byte	0x9f
 1825 0067 13000000 		.4byte	.LVL5-1
 1826 006b 14000000 		.4byte	.LFE8
 1827 006f 0400     		.2byte	0x4
 1828 0071 F3       		.byte	0xf3
 1829 0072 01       		.uleb128 0x1
 1830 0073 52       		.byte	0x52
 1831 0074 9F       		.byte	0x9f
 1832 0075 00000000 		.4byte	0
 1833 0079 00000000 		.4byte	0
 1834              	.LLST3:
 1835 007d 08000000 		.4byte	.LVL3
 1836 0081 13000000 		.4byte	.LVL5-1
 1837 0085 0100     		.2byte	0x1
 1838 0087 51       		.byte	0x51
 1839 0088 13000000 		.4byte	.LVL5-1
 1840 008c 14000000 		.4byte	.LFE8
 1841 0090 0400     		.2byte	0x4
 1842 0092 F3       		.byte	0xf3
 1843 0093 01       		.uleb128 0x1
 1844 0094 51       		.byte	0x51
 1845 0095 9F       		.byte	0x9f
 1846 0096 00000000 		.4byte	0
 1847 009a 00000000 		.4byte	0
 1848              	.LLST4:
 1849 009e 00000000 		.4byte	.LVL6
 1850 00a2 0C000000 		.4byte	.LVL8
 1851 00a6 0100     		.2byte	0x1
 1852 00a8 50       		.byte	0x50
 1853 00a9 0C000000 		.4byte	.LVL8
 1854 00ad 80000000 		.4byte	.LFE9
 1855 00b1 0100     		.2byte	0x1
 1856 00b3 56       		.byte	0x56
 1857 00b4 00000000 		.4byte	0
 1858 00b8 00000000 		.4byte	0
 1859              	.LLST5:
 1860 00bc 00000000 		.4byte	.LVL6
 1861 00c0 06000000 		.4byte	.LVL7
 1862 00c4 0100     		.2byte	0x1
 1863 00c6 51       		.byte	0x51
 1864 00c7 06000000 		.4byte	.LVL7
 1865 00cb 14000000 		.4byte	.LVL9
 1866 00cf 0300     		.2byte	0x3
 1867 00d1 71       		.byte	0x71
 1868 00d2 79       		.sleb128 -7
 1869 00d3 9F       		.byte	0x9f
 1870 00d4 14000000 		.4byte	.LVL9
 1871 00d8 80000000 		.4byte	.LFE9
 1872 00dc 0100     		.2byte	0x1
 1873 00de 55       		.byte	0x55
 1874 00df 00000000 		.4byte	0
 1875 00e3 00000000 		.4byte	0
 1876              	.LLST6:
 1877 00e7 18000000 		.4byte	.LVL10
ARM GAS  /var/folders/6q/x_mk5n_j3p7_c40r_2k_78980000gn/T//cctzqlN0.s 			page 34


 1878 00eb 44000000 		.4byte	.LVL17
 1879 00ef 0100     		.2byte	0x1
 1880 00f1 54       		.byte	0x54
 1881 00f2 48000000 		.4byte	.LVL18
 1882 00f6 56000000 		.4byte	.LVL19
 1883 00fa 0100     		.2byte	0x1
 1884 00fc 54       		.byte	0x54
 1885 00fd 62000000 		.4byte	.LVL21
 1886 0101 7A000000 		.4byte	.LVL24
 1887 0105 0100     		.2byte	0x1
 1888 0107 54       		.byte	0x54
 1889 0108 00000000 		.4byte	0
 1890 010c 00000000 		.4byte	0
 1891              	.LLST7:
 1892 0110 1E000000 		.4byte	.LVL12
 1893 0114 26000000 		.4byte	.LVL13
 1894 0118 0100     		.2byte	0x1
 1895 011a 50       		.byte	0x50
 1896 011b 28000000 		.4byte	.LVL14
 1897 011f 2F000000 		.4byte	.LVL15-1
 1898 0123 0100     		.2byte	0x1
 1899 0125 50       		.byte	0x50
 1900 0126 3A000000 		.4byte	.LVL16
 1901 012a 44000000 		.4byte	.LVL17
 1902 012e 0100     		.2byte	0x1
 1903 0130 50       		.byte	0x50
 1904 0131 48000000 		.4byte	.LVL18
 1905 0135 5D000000 		.4byte	.LVL20-1
 1906 0139 0100     		.2byte	0x1
 1907 013b 50       		.byte	0x50
 1908 013c 5D000000 		.4byte	.LVL20-1
 1909 0140 62000000 		.4byte	.LVL21
 1910 0144 0300     		.2byte	0x3
 1911 0146 74       		.byte	0x74
 1912 0147 78       		.sleb128 -8
 1913 0148 9F       		.byte	0x9f
 1914 0149 62000000 		.4byte	.LVL21
 1915 014d 78000000 		.4byte	.LVL23
 1916 0151 0100     		.2byte	0x1
 1917 0153 50       		.byte	0x50
 1918 0154 00000000 		.4byte	0
 1919 0158 00000000 		.4byte	0
 1920              	.LLST8:
 1921 015c 6E000000 		.4byte	.LVL22
 1922 0160 78000000 		.4byte	.LVL23
 1923 0164 0100     		.2byte	0x1
 1924 0166 57       		.byte	0x57
 1925 0167 00000000 		.4byte	0
 1926 016b 00000000 		.4byte	0
 1927              	.LLST9:
 1928 016f 00000000 		.4byte	.LVL25
 1929 0173 08000000 		.4byte	.LVL26
 1930 0177 0100     		.2byte	0x1
 1931 0179 50       		.byte	0x50
 1932 017a 08000000 		.4byte	.LVL26
 1933 017e 5A000000 		.4byte	.LVL36
 1934 0182 0100     		.2byte	0x1
ARM GAS  /var/folders/6q/x_mk5n_j3p7_c40r_2k_78980000gn/T//cctzqlN0.s 			page 35


 1935 0184 56       		.byte	0x56
 1936 0185 5A000000 		.4byte	.LVL36
 1937 0189 5E000000 		.4byte	.LVL37
 1938 018d 0400     		.2byte	0x4
 1939 018f F3       		.byte	0xf3
 1940 0190 01       		.uleb128 0x1
 1941 0191 50       		.byte	0x50
 1942 0192 9F       		.byte	0x9f
 1943 0193 5E000000 		.4byte	.LVL37
 1944 0197 8E000000 		.4byte	.LVL38
 1945 019b 0100     		.2byte	0x1
 1946 019d 56       		.byte	0x56
 1947 019e 8E000000 		.4byte	.LVL38
 1948 01a2 92000000 		.4byte	.LFE10
 1949 01a6 0400     		.2byte	0x4
 1950 01a8 F3       		.byte	0xf3
 1951 01a9 01       		.uleb128 0x1
 1952 01aa 50       		.byte	0x50
 1953 01ab 9F       		.byte	0x9f
 1954 01ac 00000000 		.4byte	0
 1955 01b0 00000000 		.4byte	0
 1956              	.LLST10:
 1957 01b4 10000000 		.4byte	.LVL28
 1958 01b8 18000000 		.4byte	.LVL31
 1959 01bc 0100     		.2byte	0x1
 1960 01be 55       		.byte	0x55
 1961 01bf 18000000 		.4byte	.LVL31
 1962 01c3 30000000 		.4byte	.LVL33
 1963 01c7 0100     		.2byte	0x1
 1964 01c9 53       		.byte	0x53
 1965 01ca 32000000 		.4byte	.LVL34
 1966 01ce 5D000000 		.4byte	.LVL37-1
 1967 01d2 0100     		.2byte	0x1
 1968 01d4 53       		.byte	0x53
 1969 01d5 5E000000 		.4byte	.LVL37
 1970 01d9 91000000 		.4byte	.LVL39-1
 1971 01dd 0100     		.2byte	0x1
 1972 01df 53       		.byte	0x53
 1973 01e0 00000000 		.4byte	0
 1974 01e4 00000000 		.4byte	0
 1975              	.LLST11:
 1976 01e8 0C000000 		.4byte	.LVL27
 1977 01ec 5A000000 		.4byte	.LVL36
 1978 01f0 0100     		.2byte	0x1
 1979 01f2 54       		.byte	0x54
 1980 01f3 5A000000 		.4byte	.LVL36
 1981 01f7 5E000000 		.4byte	.LVL37
 1982 01fb 0600     		.2byte	0x6
 1983 01fd F3       		.byte	0xf3
 1984 01fe 01       		.uleb128 0x1
 1985 01ff 50       		.byte	0x50
 1986 0200 38       		.byte	0x38
 1987 0201 1C       		.byte	0x1c
 1988 0202 9F       		.byte	0x9f
 1989 0203 5E000000 		.4byte	.LVL37
 1990 0207 8E000000 		.4byte	.LVL38
 1991 020b 0100     		.2byte	0x1
ARM GAS  /var/folders/6q/x_mk5n_j3p7_c40r_2k_78980000gn/T//cctzqlN0.s 			page 36


 1992 020d 54       		.byte	0x54
 1993 020e 8E000000 		.4byte	.LVL38
 1994 0212 92000000 		.4byte	.LFE10
 1995 0216 0600     		.2byte	0x6
 1996 0218 F3       		.byte	0xf3
 1997 0219 01       		.uleb128 0x1
 1998 021a 50       		.byte	0x50
 1999 021b 38       		.byte	0x38
 2000 021c 1C       		.byte	0x1c
 2001 021d 9F       		.byte	0x9f
 2002 021e 00000000 		.4byte	0
 2003 0222 00000000 		.4byte	0
 2004              	.LLST12:
 2005 0226 0C000000 		.4byte	.LVL27
 2006 022a 12000000 		.4byte	.LVL29
 2007 022e 0100     		.2byte	0x1
 2008 0230 50       		.byte	0x50
 2009 0231 12000000 		.4byte	.LVL29
 2010 0235 15000000 		.4byte	.LVL30-1
 2011 0239 0200     		.2byte	0x2
 2012 023b 74       		.byte	0x74
 2013 023c 00       		.sleb128 0
 2014 023d 15000000 		.4byte	.LVL30-1
 2015 0241 40000000 		.4byte	.LVL35
 2016 0245 0300     		.2byte	0x3
 2017 0247 75       		.byte	0x75
 2018 0248 78       		.sleb128 -8
 2019 0249 9F       		.byte	0x9f
 2020 024a 00000000 		.4byte	0
 2021 024e 00000000 		.4byte	0
 2022              	.LLST13:
 2023 0252 00000000 		.4byte	.LVL40
 2024 0256 0C000000 		.4byte	.LVL41
 2025 025a 0100     		.2byte	0x1
 2026 025c 50       		.byte	0x50
 2027 025d 0C000000 		.4byte	.LVL41
 2028 0261 1C000000 		.4byte	.LVL43
 2029 0265 0100     		.2byte	0x1
 2030 0267 54       		.byte	0x54
 2031 0268 1C000000 		.4byte	.LVL43
 2032 026c 34000000 		.4byte	.LVL48
 2033 0270 1300     		.2byte	0x13
 2034 0272 F3       		.byte	0xf3
 2035 0273 01       		.uleb128 0x1
 2036 0274 50       		.byte	0x50
 2037 0275 03       		.byte	0x3
 2038 0276 00000000 		.4byte	.LANCHOR0
 2039 027a F3       		.byte	0xf3
 2040 027b 01       		.uleb128 0x1
 2041 027c 50       		.byte	0x50
 2042 027d 30       		.byte	0x30
 2043 027e 2E       		.byte	0x2e
 2044 027f 28       		.byte	0x28
 2045 0280 0100     		.2byte	0x1
 2046 0282 16       		.byte	0x16
 2047 0283 13       		.byte	0x13
 2048 0284 9F       		.byte	0x9f
ARM GAS  /var/folders/6q/x_mk5n_j3p7_c40r_2k_78980000gn/T//cctzqlN0.s 			page 37


 2049 0285 34000000 		.4byte	.LVL48
 2050 0289 38000000 		.4byte	.LVL49
 2051 028d 0100     		.2byte	0x1
 2052 028f 54       		.byte	0x54
 2053 0290 38000000 		.4byte	.LVL49
 2054 0294 40000000 		.4byte	.LFE11
 2055 0298 1300     		.2byte	0x13
 2056 029a F3       		.byte	0xf3
 2057 029b 01       		.uleb128 0x1
 2058 029c 50       		.byte	0x50
 2059 029d 03       		.byte	0x3
 2060 029e 00000000 		.4byte	.LANCHOR0
 2061 02a2 F3       		.byte	0xf3
 2062 02a3 01       		.uleb128 0x1
 2063 02a4 50       		.byte	0x50
 2064 02a5 30       		.byte	0x30
 2065 02a6 2E       		.byte	0x2e
 2066 02a7 28       		.byte	0x28
 2067 02a8 0100     		.2byte	0x1
 2068 02aa 16       		.byte	0x16
 2069 02ab 13       		.byte	0x13
 2070 02ac 9F       		.byte	0x9f
 2071 02ad 00000000 		.4byte	0
 2072 02b1 00000000 		.4byte	0
 2073              	.LLST14:
 2074 02b5 00000000 		.4byte	.LVL40
 2075 02b9 13000000 		.4byte	.LVL42-1
 2076 02bd 0100     		.2byte	0x1
 2077 02bf 51       		.byte	0x51
 2078 02c0 13000000 		.4byte	.LVL42-1
 2079 02c4 40000000 		.4byte	.LFE11
 2080 02c8 0100     		.2byte	0x1
 2081 02ca 55       		.byte	0x55
 2082 02cb 00000000 		.4byte	0
 2083 02cf 00000000 		.4byte	0
 2084              	.LLST15:
 2085 02d3 14000000 		.4byte	.LVL42
 2086 02d7 1C000000 		.4byte	.LVL43
 2087 02db 0300     		.2byte	0x3
 2088 02dd 74       		.byte	0x74
 2089 02de 08       		.sleb128 8
 2090 02df 9F       		.byte	0x9f
 2091 02e0 1C000000 		.4byte	.LVL43
 2092 02e4 24000000 		.4byte	.LVL45
 2093 02e8 1500     		.2byte	0x15
 2094 02ea F3       		.byte	0xf3
 2095 02eb 01       		.uleb128 0x1
 2096 02ec 50       		.byte	0x50
 2097 02ed 03       		.byte	0x3
 2098 02ee 00000000 		.4byte	.LANCHOR0
 2099 02f2 F3       		.byte	0xf3
 2100 02f3 01       		.uleb128 0x1
 2101 02f4 50       		.byte	0x50
 2102 02f5 30       		.byte	0x30
 2103 02f6 2E       		.byte	0x2e
 2104 02f7 28       		.byte	0x28
 2105 02f8 0100     		.2byte	0x1
ARM GAS  /var/folders/6q/x_mk5n_j3p7_c40r_2k_78980000gn/T//cctzqlN0.s 			page 38


 2106 02fa 16       		.byte	0x16
 2107 02fb 13       		.byte	0x13
 2108 02fc 23       		.byte	0x23
 2109 02fd 08       		.uleb128 0x8
 2110 02fe 9F       		.byte	0x9f
 2111 02ff 34000000 		.4byte	.LVL48
 2112 0303 38000000 		.4byte	.LVL49
 2113 0307 0300     		.2byte	0x3
 2114 0309 74       		.byte	0x74
 2115 030a 08       		.sleb128 8
 2116 030b 9F       		.byte	0x9f
 2117 030c 38000000 		.4byte	.LVL49
 2118 0310 40000000 		.4byte	.LFE11
 2119 0314 1500     		.2byte	0x15
 2120 0316 F3       		.byte	0xf3
 2121 0317 01       		.uleb128 0x1
 2122 0318 50       		.byte	0x50
 2123 0319 03       		.byte	0x3
 2124 031a 00000000 		.4byte	.LANCHOR0
 2125 031e F3       		.byte	0xf3
 2126 031f 01       		.uleb128 0x1
 2127 0320 50       		.byte	0x50
 2128 0321 30       		.byte	0x30
 2129 0322 2E       		.byte	0x2e
 2130 0323 28       		.byte	0x28
 2131 0324 0100     		.2byte	0x1
 2132 0326 16       		.byte	0x16
 2133 0327 13       		.byte	0x13
 2134 0328 23       		.byte	0x23
 2135 0329 08       		.uleb128 0x8
 2136 032a 9F       		.byte	0x9f
 2137 032b 00000000 		.4byte	0
 2138 032f 00000000 		.4byte	0
 2139              	.LLST16:
 2140 0333 14000000 		.4byte	.LVL42
 2141 0337 1C000000 		.4byte	.LVL43
 2142 033b 0200     		.2byte	0x2
 2143 033d 30       		.byte	0x30
 2144 033e 9F       		.byte	0x9f
 2145 033f 1C000000 		.4byte	.LVL43
 2146 0343 22000000 		.4byte	.LVL44
 2147 0347 0100     		.2byte	0x1
 2148 0349 54       		.byte	0x54
 2149 034a 22000000 		.4byte	.LVL44
 2150 034e 24000000 		.4byte	.LVL45
 2151 0352 0300     		.2byte	0x3
 2152 0354 74       		.byte	0x74
 2153 0355 7F       		.sleb128 -1
 2154 0356 9F       		.byte	0x9f
 2155 0357 24000000 		.4byte	.LVL45
 2156 035b 28000000 		.4byte	.LVL46
 2157 035f 0100     		.2byte	0x1
 2158 0361 54       		.byte	0x54
 2159 0362 34000000 		.4byte	.LVL48
 2160 0366 40000000 		.4byte	.LFE11
 2161 036a 0200     		.2byte	0x2
 2162 036c 30       		.byte	0x30
ARM GAS  /var/folders/6q/x_mk5n_j3p7_c40r_2k_78980000gn/T//cctzqlN0.s 			page 39


 2163 036d 9F       		.byte	0x9f
 2164 036e 00000000 		.4byte	0
 2165 0372 00000000 		.4byte	0
 2166              	.LLST17:
 2167 0376 14000000 		.4byte	.LVL42
 2168 037a 1C000000 		.4byte	.LVL43
 2169 037e 0200     		.2byte	0x2
 2170 0380 30       		.byte	0x30
 2171 0381 9F       		.byte	0x9f
 2172 0382 1C000000 		.4byte	.LVL43
 2173 0386 28000000 		.4byte	.LVL46
 2174 038a 0100     		.2byte	0x1
 2175 038c 52       		.byte	0x52
 2176 038d 34000000 		.4byte	.LVL48
 2177 0391 40000000 		.4byte	.LFE11
 2178 0395 0200     		.2byte	0x2
 2179 0397 30       		.byte	0x30
 2180 0398 9F       		.byte	0x9f
 2181 0399 00000000 		.4byte	0
 2182 039d 00000000 		.4byte	0
 2183              		.section	.debug_aranges,"",%progbits
 2184 0000 3C000000 		.4byte	0x3c
 2185 0004 0200     		.2byte	0x2
 2186 0006 00000000 		.4byte	.Ldebug_info0
 2187 000a 04       		.byte	0x4
 2188 000b 00       		.byte	0
 2189 000c 0000     		.2byte	0
 2190 000e 0000     		.2byte	0
 2191 0010 00000000 		.4byte	.LFB7
 2192 0014 1C000000 		.4byte	.LFE7-.LFB7
 2193 0018 00000000 		.4byte	.LFB8
 2194 001c 14000000 		.4byte	.LFE8-.LFB8
 2195 0020 00000000 		.4byte	.LFB9
 2196 0024 80000000 		.4byte	.LFE9-.LFB9
 2197 0028 00000000 		.4byte	.LFB10
 2198 002c 92000000 		.4byte	.LFE10-.LFB10
 2199 0030 00000000 		.4byte	.LFB11
 2200 0034 40000000 		.4byte	.LFE11-.LFB11
 2201 0038 00000000 		.4byte	0
 2202 003c 00000000 		.4byte	0
 2203              		.section	.debug_ranges,"",%progbits
 2204              	.Ldebug_ranges0:
 2205 0000 00000000 		.4byte	.LFB7
 2206 0004 1C000000 		.4byte	.LFE7
 2207 0008 00000000 		.4byte	.LFB8
 2208 000c 14000000 		.4byte	.LFE8
 2209 0010 00000000 		.4byte	.LFB9
 2210 0014 80000000 		.4byte	.LFE9
 2211 0018 00000000 		.4byte	.LFB10
 2212 001c 92000000 		.4byte	.LFE10
 2213 0020 00000000 		.4byte	.LFB11
 2214 0024 40000000 		.4byte	.LFE11
 2215 0028 00000000 		.4byte	0
 2216 002c 00000000 		.4byte	0
 2217              		.section	.debug_line,"",%progbits
 2218              	.Ldebug_line0:
 2219 0000 F3020000 		.section	.debug_str,"MS",%progbits,1
ARM GAS  /var/folders/6q/x_mk5n_j3p7_c40r_2k_78980000gn/T//cctzqlN0.s 			page 40


 2219      02000702 
 2219      00000201 
 2219      FB0E0D00 
 2219      01010101 
 2220              	.LASF43:
 2221 0000 705F6D73 		.ascii	"p_msg\000"
 2221      6700
 2222              	.LASF4:
 2223 0006 73697A65 		.ascii	"size_t\000"
 2223      5F7400
 2224              	.LASF69:
 2225 000d 7264796D 		.ascii	"rdymsg\000"
 2225      736700
 2226              	.LASF18:
 2227 0014 75696E74 		.ascii	"uint64_t\000"
 2227      36345F74 
 2227      00
 2228              	.LASF5:
 2229 001d 5F5F7569 		.ascii	"__uint8_t\000"
 2229      6E74385F 
 2229      7400
 2230              	.LASF59:
 2231 0027 6D656D67 		.ascii	"memgetfunc_t\000"
 2231      65746675 
 2231      6E635F74 
 2231      00
 2232              	.LASF14:
 2233 0034 6C6F6E67 		.ascii	"long long unsigned int\000"
 2233      206C6F6E 
 2233      6720756E 
 2233      7369676E 
 2233      65642069 
 2234              	.LASF70:
 2235 004b 65786974 		.ascii	"exitcode\000"
 2235      636F6465 
 2235      00
 2236              	.LASF63:
 2237 0054 685F6672 		.ascii	"h_free\000"
 2237      656500
 2238              	.LASF76:
 2239 005b 68656170 		.ascii	"heapp\000"
 2239      7000
 2240              	.LASF84:
 2241 0061 63684D74 		.ascii	"chMtxUnlock\000"
 2241      78556E6C 
 2241      6F636B00 
 2242              	.LASF75:
 2243 006d 63684865 		.ascii	"chHeapInit\000"
 2243      6170496E 
 2243      697400
 2244              	.LASF65:
 2245 0078 6E657874 		.ascii	"next\000"
 2245      00
 2246              	.LASF31:
 2247 007d 705F7072 		.ascii	"p_prio\000"
 2247      696F00
 2248              	.LASF1:
ARM GAS  /var/folders/6q/x_mk5n_j3p7_c40r_2k_78980000gn/T//cctzqlN0.s 			page 41


 2249 0084 6C6F6E67 		.ascii	"long long int\000"
 2249      206C6F6E 
 2249      6720696E 
 2249      7400
 2250              	.LASF3:
 2251 0092 7369676E 		.ascii	"signed char\000"
 2251      65642063 
 2251      68617200 
 2252              	.LASF64:
 2253 009e 685F6D74 		.ascii	"h_mtx\000"
 2253      7800
 2254              	.LASF47:
 2255 00a4 705F6D70 		.ascii	"p_mpool\000"
 2255      6F6F6C00 
 2256              	.LASF56:
 2257 00ac 6D5F7175 		.ascii	"m_queue\000"
 2257      65756500 
 2258              	.LASF77:
 2259 00b4 63684865 		.ascii	"chHeapFree\000"
 2259      61704672 
 2259      656500
 2260              	.LASF23:
 2261 00bf 74736C69 		.ascii	"tslices_t\000"
 2261      6365735F 
 2261      7400
 2262              	.LASF10:
 2263 00c9 6C6F6E67 		.ascii	"long int\000"
 2263      20696E74 
 2263      00
 2264              	.LASF86:
 2265 00d2 2E2E2F43 		.ascii	"../ChibiOS/os/kernel/src/chheap.c\000"
 2265      68696269 
 2265      4F532F6F 
 2265      732F6B65 
 2265      726E656C 
 2266              	.LASF21:
 2267 00f4 74737461 		.ascii	"tstate_t\000"
 2267      74655F74 
 2267      00
 2268              	.LASF33:
 2269 00fd 705F6E65 		.ascii	"p_newer\000"
 2269      77657200 
 2270              	.LASF11:
 2271 0105 5F5F7569 		.ascii	"__uint32_t\000"
 2271      6E743332 
 2271      5F7400
 2272              	.LASF50:
 2273 0110 72656761 		.ascii	"regarm_t\000"
 2273      726D5F74 
 2273      00
 2274              	.LASF67:
 2275 0119 616C6967 		.ascii	"align\000"
 2275      6E00
 2276              	.LASF0:
 2277 011f 756E7369 		.ascii	"unsigned int\000"
 2277      676E6564 
 2277      20696E74 
ARM GAS  /var/folders/6q/x_mk5n_j3p7_c40r_2k_78980000gn/T//cctzqlN0.s 			page 42


 2277      00
 2278              	.LASF12:
 2279 012c 6C6F6E67 		.ascii	"long unsigned int\000"
 2279      20756E73 
 2279      69676E65 
 2279      6420696E 
 2279      7400
 2280              	.LASF85:
 2281 013e 474E5520 		.ascii	"GNU C11 5.4.1 20160919 (release) [ARM/embedded-5-br"
 2281      43313120 
 2281      352E342E 
 2281      31203230 
 2281      31363039 
 2282 0171 616E6368 		.ascii	"anch revision 240496] -mcpu=cortex-m3 -mno-thumb-in"
 2282      20726576 
 2282      6973696F 
 2282      6E203234 
 2282      30343936 
 2283 01a4 74657277 		.ascii	"terwork -mthumb -ggdb -O2 -fomit-frame-pointer -fal"
 2283      6F726B20 
 2283      2D6D7468 
 2283      756D6220 
 2283      2D676764 
 2284 01d7 69676E2D 		.ascii	"ign-functions=16 -ffunction-sections -fdata-section"
 2284      66756E63 
 2284      74696F6E 
 2284      733D3136 
 2284      202D6666 
 2285 020a 73202D66 		.ascii	"s -fno-common\000"
 2285      6E6F2D63 
 2285      6F6D6D6F 
 2285      6E00
 2286              	.LASF53:
 2287 0218 636F6E74 		.ascii	"context\000"
 2287      65787400 
 2288              	.LASF68:
 2289 0220 73697A65 		.ascii	"size\000"
 2289      00
 2290              	.LASF8:
 2291 0225 73686F72 		.ascii	"short unsigned int\000"
 2291      7420756E 
 2291      7369676E 
 2291      65642069 
 2291      6E7400
 2292              	.LASF25:
 2293 0238 6D73675F 		.ascii	"msg_t\000"
 2293      7400
 2294              	.LASF20:
 2295 023e 746D6F64 		.ascii	"tmode_t\000"
 2295      655F7400 
 2296              	.LASF49:
 2297 0246 54687265 		.ascii	"ThreadsList\000"
 2297      6164734C 
 2297      69737400 
 2298              	.LASF26:
 2299 0252 6576656E 		.ascii	"eventmask_t\000"
 2299      746D6173 
ARM GAS  /var/folders/6q/x_mk5n_j3p7_c40r_2k_78980000gn/T//cctzqlN0.s 			page 43


 2299      6B5F7400 
 2300              	.LASF55:
 2301 025e 4D757465 		.ascii	"Mutex\000"
 2301      7800
 2302              	.LASF51:
 2303 0264 73746B61 		.ascii	"stkalign_t\000"
 2303      6C69676E 
 2303      5F7400
 2304              	.LASF54:
 2305 026f 73697A65 		.ascii	"sizetype\000"
 2305      74797065 
 2305      00
 2306              	.LASF2:
 2307 0278 6C6F6E67 		.ascii	"long double\000"
 2307      20646F75 
 2307      626C6500 
 2308              	.LASF83:
 2309 0284 63684D74 		.ascii	"chMtxLock\000"
 2309      784C6F63 
 2309      6B00
 2310              	.LASF34:
 2311 028e 705F6F6C 		.ascii	"p_older\000"
 2311      64657200 
 2312              	.LASF48:
 2313 0296 54687265 		.ascii	"ThreadsQueue\000"
 2313      61647351 
 2313      75657565 
 2313      00
 2314              	.LASF60:
 2315 02a3 4D656D6F 		.ascii	"MemoryHeap\000"
 2315      72794865 
 2315      617000
 2316              	.LASF13:
 2317 02ae 5F5F7569 		.ascii	"__uint64_t\000"
 2317      6E743634 
 2317      5F7400
 2318              	.LASF22:
 2319 02b9 74726566 		.ascii	"trefs_t\000"
 2319      735F7400 
 2320              	.LASF30:
 2321 02c1 705F7072 		.ascii	"p_prev\000"
 2321      657600
 2322              	.LASF24:
 2323 02c8 74707269 		.ascii	"tprio_t\000"
 2323      6F5F7400 
 2324              	.LASF19:
 2325 02d0 5F426F6F 		.ascii	"_Bool\000"
 2325      6C00
 2326              	.LASF16:
 2327 02d6 696E7433 		.ascii	"int32_t\000"
 2327      325F7400 
 2328              	.LASF6:
 2329 02de 756E7369 		.ascii	"unsigned char\000"
 2329      676E6564 
 2329      20636861 
 2329      7200
 2330              	.LASF62:
ARM GAS  /var/folders/6q/x_mk5n_j3p7_c40r_2k_78980000gn/T//cctzqlN0.s 			page 44


 2331 02ec 685F7072 		.ascii	"h_provider\000"
 2331      6F766964 
 2331      657200
 2332              	.LASF45:
 2333 02f7 705F6D74 		.ascii	"p_mtxlist\000"
 2333      786C6973 
 2333      7400
 2334              	.LASF7:
 2335 0301 73686F72 		.ascii	"short int\000"
 2335      7420696E 
 2335      7400
 2336              	.LASF36:
 2337 030b 705F7374 		.ascii	"p_state\000"
 2337      61746500 
 2338              	.LASF39:
 2339 0313 705F7072 		.ascii	"p_preempt\000"
 2339      65656D70 
 2339      7400
 2340              	.LASF88:
 2341 031d 68656170 		.ascii	"heap_header\000"
 2341      5F686561 
 2341      64657200 
 2342              	.LASF72:
 2343 0329 65776D61 		.ascii	"ewmask\000"
 2343      736B00
 2344              	.LASF29:
 2345 0330 705F6E65 		.ascii	"p_next\000"
 2345      787400
 2346              	.LASF37:
 2347 0337 705F666C 		.ascii	"p_flags\000"
 2347      61677300 
 2348              	.LASF28:
 2349 033f 54687265 		.ascii	"Thread\000"
 2349      616400
 2350              	.LASF78:
 2351 0346 63684865 		.ascii	"chHeapAlloc\000"
 2351      6170416C 
 2351      6C6F6300 
 2352              	.LASF44:
 2353 0352 705F6570 		.ascii	"p_epending\000"
 2353      656E6469 
 2353      6E6700
 2354              	.LASF17:
 2355 035d 75696E74 		.ascii	"uint32_t\000"
 2355      33325F74 
 2355      00
 2356              	.LASF66:
 2357 0366 68656170 		.ascii	"heap\000"
 2357      00
 2358              	.LASF81:
 2359 036b 64656661 		.ascii	"default_heap\000"
 2359      756C745F 
 2359      68656170 
 2359      00
 2360              	.LASF73:
 2361 0378 63686172 		.ascii	"char\000"
 2361      00
ARM GAS  /var/folders/6q/x_mk5n_j3p7_c40r_2k_78980000gn/T//cctzqlN0.s 			page 45


 2362              	.LASF87:
 2363 037d 2F557365 		.ascii	"/Users/Luca/src/vexilla/src/teamA\000"
 2363      72732F4C 
 2363      7563612F 
 2363      7372632F 
 2363      76657869 
 2364              	.LASF79:
 2365 039f 63684865 		.ascii	"chHeapStatus\000"
 2365      61705374 
 2365      61747573 
 2365      00
 2366              	.LASF58:
 2367 03ac 6D5F6E65 		.ascii	"m_next\000"
 2367      787400
 2368              	.LASF27:
 2369 03b3 73797374 		.ascii	"systime_t\000"
 2369      696D655F 
 2369      7400
 2370              	.LASF46:
 2371 03bd 705F7265 		.ascii	"p_realprio\000"
 2371      616C7072 
 2371      696F00
 2372              	.LASF9:
 2373 03c8 5F5F696E 		.ascii	"__int32_t\000"
 2373      7433325F 
 2373      7400
 2374              	.LASF40:
 2375 03d2 705F7469 		.ascii	"p_time\000"
 2375      6D6500
 2376              	.LASF52:
 2377 03d9 696E7463 		.ascii	"intctx\000"
 2377      747800
 2378              	.LASF42:
 2379 03e0 705F6D73 		.ascii	"p_msgqueue\000"
 2379      67717565 
 2379      756500
 2380              	.LASF82:
 2381 03eb 63684D74 		.ascii	"chMtxInit\000"
 2381      78496E69 
 2381      7400
 2382              	.LASF38:
 2383 03f5 705F7265 		.ascii	"p_refs\000"
 2383      667300
 2384              	.LASF15:
 2385 03fc 75696E74 		.ascii	"uint8_t\000"
 2385      385F7400 
 2386              	.LASF71:
 2387 0404 77746F62 		.ascii	"wtobjp\000"
 2387      6A7000
 2388              	.LASF80:
 2389 040b 73697A65 		.ascii	"sizep\000"
 2389      7000
 2390              	.LASF35:
 2391 0411 705F6E61 		.ascii	"p_name\000"
 2391      6D6500
 2392              	.LASF74:
 2393 0418 5F686561 		.ascii	"_heap_init\000"
ARM GAS  /var/folders/6q/x_mk5n_j3p7_c40r_2k_78980000gn/T//cctzqlN0.s 			page 46


 2393      705F696E 
 2393      697400
 2394              	.LASF57:
 2395 0423 6D5F6F77 		.ascii	"m_owner\000"
 2395      6E657200 
 2396              	.LASF32:
 2397 042b 705F6374 		.ascii	"p_ctx\000"
 2397      7800
 2398              	.LASF41:
 2399 0431 705F7761 		.ascii	"p_waiting\000"
 2399      6974696E 
 2399      6700
 2400              	.LASF61:
 2401 043b 6D656D6F 		.ascii	"memory_heap\000"
 2401      72795F68 
 2401      65617000 
 2402              		.ident	"GCC: (GNU Tools for ARM Embedded Processors) 5.4.1 20160919 (release) [ARM/embedded-5-bran
ARM GAS  /var/folders/6q/x_mk5n_j3p7_c40r_2k_78980000gn/T//cctzqlN0.s 			page 47


DEFINED SYMBOLS
                            *ABS*:0000000000000000 chheap.c
/var/folders/6q/x_mk5n_j3p7_c40r_2k_78980000gn/T//cctzqlN0.s:20     .text._heap_init:0000000000000000 $t
/var/folders/6q/x_mk5n_j3p7_c40r_2k_78980000gn/T//cctzqlN0.s:26     .text._heap_init:0000000000000000 _heap_init
/var/folders/6q/x_mk5n_j3p7_c40r_2k_78980000gn/T//cctzqlN0.s:53     .text._heap_init:0000000000000014 $d
/var/folders/6q/x_mk5n_j3p7_c40r_2k_78980000gn/T//cctzqlN0.s:59     .text.chHeapInit:0000000000000000 $t
/var/folders/6q/x_mk5n_j3p7_c40r_2k_78980000gn/T//cctzqlN0.s:65     .text.chHeapInit:0000000000000000 chHeapInit
/var/folders/6q/x_mk5n_j3p7_c40r_2k_78980000gn/T//cctzqlN0.s:99     .text.chHeapAlloc:0000000000000000 $t
/var/folders/6q/x_mk5n_j3p7_c40r_2k_78980000gn/T//cctzqlN0.s:105    .text.chHeapAlloc:0000000000000000 chHeapAlloc
/var/folders/6q/x_mk5n_j3p7_c40r_2k_78980000gn/T//cctzqlN0.s:230    .text.chHeapAlloc:000000000000007c $d
/var/folders/6q/x_mk5n_j3p7_c40r_2k_78980000gn/T//cctzqlN0.s:235    .text.chHeapFree:0000000000000000 $t
/var/folders/6q/x_mk5n_j3p7_c40r_2k_78980000gn/T//cctzqlN0.s:241    .text.chHeapFree:0000000000000000 chHeapFree
/var/folders/6q/x_mk5n_j3p7_c40r_2k_78980000gn/T//cctzqlN0.s:371    .text.chHeapStatus:0000000000000000 $t
/var/folders/6q/x_mk5n_j3p7_c40r_2k_78980000gn/T//cctzqlN0.s:377    .text.chHeapStatus:0000000000000000 chHeapStatus
/var/folders/6q/x_mk5n_j3p7_c40r_2k_78980000gn/T//cctzqlN0.s:447    .text.chHeapStatus:000000000000003c $d
/var/folders/6q/x_mk5n_j3p7_c40r_2k_78980000gn/T//cctzqlN0.s:452    .bss.default_heap:0000000000000000 $d
/var/folders/6q/x_mk5n_j3p7_c40r_2k_78980000gn/T//cctzqlN0.s:456    .bss.default_heap:0000000000000000 default_heap
                     .debug_frame:0000000000000010 $d

UNDEFINED SYMBOLS
chMtxInit
chCoreAlloc
chMtxLock
chMtxUnlock
