ARM GAS  /var/folders/6q/x_mk5n_j3p7_c40r_2k_78980000gn/T//cctzqlN0.s 			page 1


   1              		.syntax unified
   2              		.cpu cortex-m3
   3              		.fpu softvfp
   4              		.eabi_attribute 20, 1
   5              		.eabi_attribute 21, 1
   6              		.eabi_attribute 23, 3
   7              		.eabi_attribute 24, 1
   8              		.eabi_attribute 25, 1
   9              		.eabi_attribute 26, 1
  10              		.eabi_attribute 30, 2
  11              		.eabi_attribute 34, 1
  12              		.eabi_attribute 18, 4
  13              		.thumb
  14              		.syntax unified
  15              		.file	"chheap.c"
  16              		.text
  17              	.Ltext0:
  18              		.cfi_sections	.debug_frame
  19              		.section	.text._heap_init,"ax",%progbits
  20              		.align	2
  21              		.p2align 4,,15
  22              		.global	_heap_init
  23              		.thumb
  24              		.thumb_func
  25              		.type	_heap_init, %function
  26              	_heap_init:
  27              	.LFB7:
  28              		.file 1 "../ChibiOS/os/kernel/src/chheap.c"
  29              		.loc 1 75 0
  30              		.cfi_startproc
  31              		@ args = 0, pretend = 0, frame = 0
  32              		@ frame_needed = 0, uses_anonymous_args = 0
  33              		@ link register save eliminated.
  34              		.loc 1 76 0
  35 0000 044B     		ldr	r3, .L2
  36 0002 0549     		ldr	r1, .L2+4
  37              		.loc 1 77 0
  38 0004 0022     		movs	r2, #0
  39              		.loc 1 80 0
  40 0006 03F11000 		add	r0, r3, #16
  41              		.loc 1 76 0
  42 000a 1960     		str	r1, [r3]
  43              		.loc 1 77 0
  44 000c 9A60     		str	r2, [r3, #8]
  45              		.loc 1 78 0
  46 000e DA60     		str	r2, [r3, #12]
  47              		.loc 1 80 0
  48 0010 FFF7FEBF 		b	chMtxInit
  49              	.LVL0:
  50              	.L3:
  51              		.align	2
  52              	.L2:
  53 0014 00000000 		.word	.LANCHOR0
  54 0018 00000000 		.word	chCoreAlloc
  55              		.cfi_endproc
  56              	.LFE7:
  57              		.size	_heap_init, .-_heap_init
ARM GAS  /var/folders/6q/x_mk5n_j3p7_c40r_2k_78980000gn/T//cctzqlN0.s 			page 2


  58              		.section	.text.chHeapInit,"ax",%progbits
  59              		.align	2
  60              		.p2align 4,,15
  61              		.global	chHeapInit
  62              		.thumb
  63              		.thumb_func
  64              		.type	chHeapInit, %function
  65              	chHeapInit:
  66              	.LFB8:
  67              		.loc 1 99 0
  68              		.cfi_startproc
  69              		@ args = 0, pretend = 0, frame = 0
  70              		@ frame_needed = 0, uses_anonymous_args = 0
  71              		@ link register save eliminated.
  72              	.LVL1:
  73              		.loc 1 104 0
  74 0000 0023     		movs	r3, #0
  75              		.loc 1 108 0
  76 0002 083A     		subs	r2, r2, #8
  77              	.LVL2:
  78              		.loc 1 105 0
  79 0004 8160     		str	r1, [r0, #8]
  80              		.loc 1 104 0
  81 0006 0360     		str	r3, [r0]
  82              	.LVL3:
  83              		.loc 1 106 0
  84 0008 C360     		str	r3, [r0, #12]
  85              		.loc 1 110 0
  86 000a 1030     		adds	r0, r0, #16
  87              	.LVL4:
  88              		.loc 1 108 0
  89 000c 4A60     		str	r2, [r1, #4]
  90              		.loc 1 107 0
  91 000e 0B60     		str	r3, [r1]
  92              		.loc 1 110 0
  93 0010 FFF7FEBF 		b	chMtxInit
  94              	.LVL5:
  95              		.cfi_endproc
  96              	.LFE8:
  97              		.size	chHeapInit, .-chHeapInit
  98              		.section	.text.chHeapAlloc,"ax",%progbits
  99              		.align	2
 100              		.p2align 4,,15
 101              		.global	chHeapAlloc
 102              		.thumb
 103              		.thumb_func
 104              		.type	chHeapAlloc, %function
 105              	chHeapAlloc:
 106              	.LFB9:
 107              		.loc 1 132 0
 108              		.cfi_startproc
 109              		@ args = 0, pretend = 0, frame = 0
 110              		@ frame_needed = 0, uses_anonymous_args = 0
 111              	.LVL6:
 112 0000 F8B5     		push	{r3, r4, r5, r6, r7, lr}
 113              		.cfi_def_cfa_offset 24
 114              		.cfi_offset 3, -24
ARM GAS  /var/folders/6q/x_mk5n_j3p7_c40r_2k_78980000gn/T//cctzqlN0.s 			page 3


 115              		.cfi_offset 4, -20
 116              		.cfi_offset 5, -16
 117              		.cfi_offset 6, -12
 118              		.cfi_offset 7, -8
 119              		.cfi_offset 14, -4
 120              		.loc 1 136 0
 121 0002 1E4E     		ldr	r6, .L21
 122              		.loc 1 138 0
 123 0004 0731     		adds	r1, r1, #7
 124              	.LVL7:
 125              		.loc 1 136 0
 126 0006 0028     		cmp	r0, #0
 127 0008 18BF     		it	ne
 128 000a 0646     		movne	r6, r0
 129              	.LVL8:
 130              		.loc 1 140 0
 131 000c 06F11000 		add	r0, r6, #16
 132              		.loc 1 138 0
 133 0010 21F00705 		bic	r5, r1, #7
 134              	.LVL9:
 135              		.loc 1 139 0
 136 0014 06F10804 		add	r4, r6, #8
 137              	.LVL10:
 138              		.loc 1 140 0
 139 0018 FFF7FEFF 		bl	chMtxLock
 140              	.LVL11:
 141              		.loc 1 142 0
 142 001c 03E0     		b	.L7
 143              	.LVL12:
 144              	.L11:
 145              		.loc 1 144 0
 146 001e 4368     		ldr	r3, [r0, #4]
 147 0020 9D42     		cmp	r5, r3
 148 0022 11D9     		bls	.L20
 149 0024 0446     		mov	r4, r0
 150              	.LVL13:
 151              	.L7:
 152              		.loc 1 142 0
 153 0026 2068     		ldr	r0, [r4]
 154              	.LVL14:
 155 0028 0028     		cmp	r0, #0
 156 002a F8D1     		bne	.L11
 157              		.loc 1 167 0
 158 002c FFF7FEFF 		bl	chMtxUnlock
 159              	.LVL15:
 160              		.loc 1 171 0
 161 0030 3368     		ldr	r3, [r6]
 162 0032 0BB3     		cbz	r3, .L13
 163              		.loc 1 172 0
 164 0034 05F10800 		add	r0, r5, #8
 165 0038 9847     		blx	r3
 166              	.LVL16:
 167              		.loc 1 173 0
 168 003a E8B1     		cbz	r0, .L13
 169              		.loc 1 174 0
 170 003c 0660     		str	r6, [r0]
 171              		.loc 1 175 0
ARM GAS  /var/folders/6q/x_mk5n_j3p7_c40r_2k_78980000gn/T//cctzqlN0.s 			page 4


 172 003e 4560     		str	r5, [r0, #4]
 173              		.loc 1 176 0
 174 0040 00F10804 		add	r4, r0, #8
 175              	.LVL17:
 176              	.L10:
 177              		.loc 1 181 0
 178 0044 2046     		mov	r0, r4
 179 0046 F8BD     		pop	{r3, r4, r5, r6, r7, pc}
 180              	.LVL18:
 181              	.L20:
 182              		.loc 1 145 0
 183 0048 05F10802 		add	r2, r5, #8
 184 004c 9342     		cmp	r3, r2
 185 004e 08D2     		bcs	.L8
 186              		.loc 1 149 0
 187 0050 0368     		ldr	r3, [r0]
 188 0052 2360     		str	r3, [r4]
 189              	.L9:
 190              		.loc 1 159 0
 191 0054 0446     		mov	r4, r0
 192              	.LVL19:
 193 0056 44F8086B 		str	r6, [r4], #8
 194              		.loc 1 161 0
 195 005a FFF7FEFF 		bl	chMtxUnlock
 196              	.LVL20:
 197              		.loc 1 181 0
 198 005e 2046     		mov	r0, r4
 199 0060 F8BD     		pop	{r3, r4, r5, r6, r7, pc}
 200              	.LVL21:
 201              	.L8:
 202              		.loc 1 155 0
 203 0062 6FF00707 		mvn	r7, #7
 204              		.loc 1 154 0
 205 0066 0168     		ldr	r1, [r0]
 206              		.loc 1 155 0
 207 0068 7F1B     		subs	r7, r7, r5
 208 006a 3B44     		add	r3, r3, r7
 209              		.loc 1 153 0
 210 006c 8718     		adds	r7, r0, r2
 211              	.LVL22:
 212              		.loc 1 154 0
 213 006e 8150     		str	r1, [r0, r2]
 214              		.loc 1 155 0
 215 0070 7B60     		str	r3, [r7, #4]
 216              		.loc 1 156 0
 217 0072 2760     		str	r7, [r4]
 218              		.loc 1 157 0
 219 0074 4560     		str	r5, [r0, #4]
 220 0076 EDE7     		b	.L9
 221              	.LVL23:
 222              	.L13:
 223              		.loc 1 180 0
 224 0078 0024     		movs	r4, #0
 225              	.LVL24:
 226 007a E3E7     		b	.L10
 227              	.L22:
 228              		.align	2
ARM GAS  /var/folders/6q/x_mk5n_j3p7_c40r_2k_78980000gn/T//cctzqlN0.s 			page 5


 229              	.L21:
 230 007c 00000000 		.word	.LANCHOR0
 231              		.cfi_endproc
 232              	.LFE9:
 233              		.size	chHeapAlloc, .-chHeapAlloc
 234              		.section	.text.chHeapFree,"ax",%progbits
 235              		.align	2
 236              		.p2align 4,,15
 237              		.global	chHeapFree
 238              		.thumb
 239              		.thumb_func
 240              		.type	chHeapFree, %function
 241              	chHeapFree:
 242              	.LFB10:
 243              		.loc 1 194 0
 244              		.cfi_startproc
 245              		@ args = 0, pretend = 0, frame = 0
 246              		@ frame_needed = 0, uses_anonymous_args = 0
 247              	.LVL25:
 248 0000 70B5     		push	{r4, r5, r6, lr}
 249              		.cfi_def_cfa_offset 16
 250              		.cfi_offset 4, -16
 251              		.cfi_offset 5, -12
 252              		.cfi_offset 6, -8
 253              		.cfi_offset 14, -4
 254              		.loc 1 194 0
 255 0002 0646     		mov	r6, r0
 256              		.loc 1 201 0
 257 0004 50F8080C 		ldr	r0, [r0, #-8]
 258              	.LVL26:
 259              		.loc 1 200 0
 260 0008 A6F10804 		sub	r4, r6, #8
 261              	.LVL27:
 262              		.loc 1 202 0
 263 000c 00F10805 		add	r5, r0, #8
 264              	.LVL28:
 265              		.loc 1 203 0
 266 0010 1030     		adds	r0, r0, #16
 267              	.LVL29:
 268 0012 FFF7FEFF 		bl	chMtxLock
 269              	.LVL30:
 270              		.loc 1 202 0
 271 0016 2B46     		mov	r3, r5
 272              	.LVL31:
 273              	.L30:
 274              		.loc 1 210 0
 275 0018 AB42     		cmp	r3, r5
 276 001a 04D0     		beq	.L24
 277              	.L36:
 278              		.loc 1 210 0 is_stmt 0 discriminator 2
 279 001c A342     		cmp	r3, r4
 280 001e 02D3     		bcc	.L24
 281 0020 1B68     		ldr	r3, [r3]
 282              	.LVL32:
 283              		.loc 1 210 0
 284 0022 AB42     		cmp	r3, r5
 285 0024 FAD1     		bne	.L36
ARM GAS  /var/folders/6q/x_mk5n_j3p7_c40r_2k_78980000gn/T//cctzqlN0.s 			page 6


 286              	.L24:
 287              		.loc 1 211 0 is_stmt 1 discriminator 3
 288 0026 1A68     		ldr	r2, [r3]
 289              		.loc 1 210 0 discriminator 3
 290 0028 1AB1     		cbz	r2, .L26
 291              		.loc 1 211 0
 292 002a 9442     		cmp	r4, r2
 293 002c 01D3     		bcc	.L26
 294 002e 1346     		mov	r3, r2
 295              	.LVL33:
 296              		.loc 1 229 0
 297 0030 F2E7     		b	.L30
 298              	.LVL34:
 299              	.L26:
 300              		.loc 1 213 0
 301 0032 46F8082C 		str	r2, [r6, #-8]
 302              		.loc 1 214 0
 303 0036 1C60     		str	r4, [r3]
 304              		.loc 1 216 0
 305 0038 56F8041C 		ldr	r1, [r6, #-4]
 306 003c 56F8085C 		ldr	r5, [r6, #-8]
 307              	.LVL35:
 308 0040 01F10802 		add	r2, r1, #8
 309 0044 A018     		adds	r0, r4, r2
 310 0046 A842     		cmp	r0, r5
 311 0048 09D0     		beq	.L37
 312              		.loc 1 221 0
 313 004a 5968     		ldr	r1, [r3, #4]
 314 004c 01F10802 		add	r2, r1, #8
 315 0050 1A44     		add	r2, r2, r3
 316 0052 9442     		cmp	r4, r2
 317 0054 11D0     		beq	.L38
 318              	.L29:
 319              		.loc 1 233 0
 320 0056 BDE87040 		pop	{r4, r5, r6, lr}
 321              		.cfi_remember_state
 322              		.cfi_restore 14
 323              		.cfi_restore 6
 324              		.cfi_restore 5
 325              		.cfi_restore 4
 326              		.cfi_def_cfa_offset 0
 327              	.LVL36:
 328              		.loc 1 231 0
 329 005a FFF7FEBF 		b	chMtxUnlock
 330              	.LVL37:
 331              	.L37:
 332              		.cfi_restore_state
 333              		.loc 1 218 0
 334 005e 4068     		ldr	r0, [r0, #4]
 335 0060 0144     		add	r1, r1, r0
 336 0062 0831     		adds	r1, r1, #8
 337 0064 46F8041C 		str	r1, [r6, #-4]
 338              		.loc 1 219 0
 339 0068 A258     		ldr	r2, [r4, r2]
 340 006a 46F8082C 		str	r2, [r6, #-8]
 341              		.loc 1 221 0
 342 006e 5968     		ldr	r1, [r3, #4]
ARM GAS  /var/folders/6q/x_mk5n_j3p7_c40r_2k_78980000gn/T//cctzqlN0.s 			page 7


 343 0070 01F10802 		add	r2, r1, #8
 344 0074 1A44     		add	r2, r2, r3
 345 0076 9442     		cmp	r4, r2
 346 0078 EDD1     		bne	.L29
 347              	.L38:
 348              		.loc 1 223 0
 349 007a 56F8042C 		ldr	r2, [r6, #-4]
 350 007e 0A44     		add	r2, r2, r1
 351 0080 0832     		adds	r2, r2, #8
 352 0082 5A60     		str	r2, [r3, #4]
 353              		.loc 1 224 0
 354 0084 56F8082C 		ldr	r2, [r6, #-8]
 355 0088 1A60     		str	r2, [r3]
 356              		.loc 1 233 0
 357 008a BDE87040 		pop	{r4, r5, r6, lr}
 358              		.cfi_restore 4
 359              		.cfi_restore 5
 360              		.cfi_restore 6
 361              		.cfi_restore 14
 362              		.cfi_def_cfa_offset 0
 363              	.LVL38:
 364              		.loc 1 231 0
 365 008e FFF7FEBF 		b	chMtxUnlock
 366              	.LVL39:
 367              		.cfi_endproc
 368              	.LFE10:
 369              		.size	chHeapFree, .-chHeapFree
 370 0092 00BF     		.section	.text.chHeapStatus,"ax",%progbits
 371              		.align	2
 372              		.p2align 4,,15
 373              		.global	chHeapStatus
 374              		.thumb
 375              		.thumb_func
 376              		.type	chHeapStatus, %function
 377              	chHeapStatus:
 378              	.LFB11:
 379              		.loc 1 250 0
 380              		.cfi_startproc
 381              		@ args = 0, pretend = 0, frame = 0
 382              		@ frame_needed = 0, uses_anonymous_args = 0
 383              	.LVL40:
 384 0000 38B5     		push	{r3, r4, r5, lr}
 385              		.cfi_def_cfa_offset 16
 386              		.cfi_offset 3, -16
 387              		.cfi_offset 4, -12
 388              		.cfi_offset 5, -8
 389              		.cfi_offset 14, -4
 390              		.loc 1 255 0
 391 0002 0E4C     		ldr	r4, .L50
 392              		.loc 1 250 0
 393 0004 0D46     		mov	r5, r1
 394              		.loc 1 255 0
 395 0006 0028     		cmp	r0, #0
 396 0008 18BF     		it	ne
 397 000a 0446     		movne	r4, r0
 398              	.LVL41:
 399              		.loc 1 257 0
ARM GAS  /var/folders/6q/x_mk5n_j3p7_c40r_2k_78980000gn/T//cctzqlN0.s 			page 8


 400 000c 04F11000 		add	r0, r4, #16
 401 0010 FFF7FEFF 		bl	chMtxLock
 402              	.LVL42:
 403              		.loc 1 260 0
 404 0014 A368     		ldr	r3, [r4, #8]
 405 0016 6BB1     		cbz	r3, .L44
 406              		.loc 1 260 0 is_stmt 0 discriminator 3
 407 0018 0022     		movs	r2, #0
 408 001a 1446     		mov	r4, r2
 409              	.LVL43:
 410              	.L42:
 411              		.loc 1 261 0 is_stmt 1 discriminator 3
 412 001c 5868     		ldr	r0, [r3, #4]
 413              		.loc 1 260 0 discriminator 3
 414 001e 1B68     		ldr	r3, [r3]
 415 0020 0134     		adds	r4, r4, #1
 416              	.LVL44:
 417              		.loc 1 261 0 discriminator 3
 418 0022 0244     		add	r2, r2, r0
 419              	.LVL45:
 420              		.loc 1 260 0 discriminator 3
 421 0024 002B     		cmp	r3, #0
 422 0026 F9D1     		bne	.L42
 423              	.LVL46:
 424              	.L41:
 425              		.loc 1 262 0
 426 0028 05B1     		cbz	r5, .L43
 427              		.loc 1 263 0
 428 002a 2A60     		str	r2, [r5]
 429              	.L43:
 430              		.loc 1 265 0
 431 002c FFF7FEFF 		bl	chMtxUnlock
 432              	.LVL47:
 433              		.loc 1 267 0
 434 0030 2046     		mov	r0, r4
 435 0032 38BD     		pop	{r3, r4, r5, pc}
 436              	.LVL48:
 437              	.L44:
 438              		.loc 1 259 0
 439 0034 1A46     		mov	r2, r3
 440              		.loc 1 260 0
 441 0036 1C46     		mov	r4, r3
 442              	.LVL49:
 443 0038 F6E7     		b	.L41
 444              	.L51:
 445 003a 00BF     		.align	2
 446              	.L50:
 447 003c 00000000 		.word	.LANCHOR0
 448              		.cfi_endproc
 449              	.LFE11:
 450              		.size	chHeapStatus, .-chHeapStatus
 451              		.section	.bss.default_heap,"aw",%nobits
 452              		.align	3
 453              		.set	.LANCHOR0,. + 0
 454              		.type	default_heap, %object
 455              		.size	default_heap, 32
 456              	default_heap:
ARM GAS  /var/folders/6q/x_mk5n_j3p7_c40r_2k_78980000gn/T//cctzqlN0.s 			page 9


 457 0000 00000000 		.space	32
 457      00000000 
 457      00000000 
 457      00000000 
 457      00000000 
 458              		.text
 459              	.Letext0:
 460              		.file 2 "/Users/Luca/src/vexilla/src/gcc-arm-none-eabi-5_4-2016q3/lib/gcc/arm-none-eabi/5.4.1/incl
 461              		.file 3 "/Users/Luca/src/vexilla/src/gcc-arm-none-eabi-5_4-2016q3/arm-none-eabi/include/machine/_d
 462              		.file 4 "/Users/Luca/src/vexilla/src/gcc-arm-none-eabi-5_4-2016q3/arm-none-eabi/include/sys/_stdin
 463              		.file 5 "../ChibiOS/os/ports/GCC/ARMCMx/chtypes.h"
 464              		.file 6 "../ChibiOS/os/kernel/include/chlists.h"
 465              		.file 7 "../ChibiOS/os/kernel/include/chthreads.h"
 466              		.file 8 "../ChibiOS/os/ports/GCC/ARMCMx/chcore_v7m.h"
 467              		.file 9 "../ChibiOS/os/kernel/include/chmtx.h"
 468              		.file 10 "../ChibiOS/os/kernel/include/chmemcore.h"
 469              		.file 11 "../ChibiOS/os/kernel/include/chheap.h"