ARM GAS  /var/folders/6q/x_mk5n_j3p7_c40r_2k_78980000gn/T//ccRCRQTs.s 			page 1


   1              		.syntax unified
   2              		.cpu cortex-m3
   3              		.fpu softvfp
   4              		.eabi_attribute 20, 1
   5              		.eabi_attribute 21, 1
   6              		.eabi_attribute 23, 3
   7              		.eabi_attribute 24, 1
   8              		.eabi_attribute 25, 1
   9              		.eabi_attribute 26, 1
  10              		.eabi_attribute 30, 2
  11              		.eabi_attribute 34, 1
  12              		.eabi_attribute 18, 4
  13              		.thumb
  14              		.syntax unified
  15              		.file	"chmempools.c"
  16              		.text
  17              	.Ltext0:
  18              		.cfi_sections	.debug_frame
  19              		.section	.text.chPoolInit,"ax",%progbits
  20              		.align	2
  21              		.p2align 4,,15
  22              		.global	chPoolInit
  23              		.thumb
  24              		.thumb_func
  25              		.type	chPoolInit, %function
  26              	chPoolInit:
  27              	.LFB7:
  28              		.file 1 "../ChibiOS/os/kernel/src/chmempools.c"
  29              		.loc 1 62 0
  30              		.cfi_startproc
  31              		@ args = 0, pretend = 0, frame = 0
  32              		@ frame_needed = 0, uses_anonymous_args = 0
  33              		@ link register save eliminated.
  34              	.LVL0:
  35              		.loc 1 66 0
  36 0000 0023     		movs	r3, #0
  37              		.loc 1 67 0
  38 0002 4160     		str	r1, [r0, #4]
  39              		.loc 1 68 0
  40 0004 8260     		str	r2, [r0, #8]
  41              		.loc 1 66 0
  42 0006 0360     		str	r3, [r0]
  43 0008 7047     		bx	lr
  44              		.cfi_endproc
  45              	.LFE7:
  46              		.size	chPoolInit, .-chPoolInit
  47 000a 00BF     		.section	.text.chPoolLoadArray,"ax",%progbits
  48              		.align	2
  49              		.p2align 4,,15
  50              		.global	chPoolLoadArray
  51              		.thumb
  52              		.thumb_func
  53              		.type	chPoolLoadArray, %function
  54              	chPoolLoadArray:
  55              	.LFB8:
  56              		.loc 1 84 0
  57              		.cfi_startproc
ARM GAS  /var/folders/6q/x_mk5n_j3p7_c40r_2k_78980000gn/T//ccRCRQTs.s 			page 2


  58              		@ args = 0, pretend = 0, frame = 0
  59              		@ frame_needed = 0, uses_anonymous_args = 0
  60              		@ link register save eliminated.
  61              	.LVL1:
  62              		.loc 1 88 0
  63 0000 72B1     		cbz	r2, .L9
  64              		.loc 1 84 0
  65 0002 10B4     		push	{r4}
  66              		.cfi_def_cfa_offset 4
  67              		.cfi_offset 4, -4
  68              	.LVL2:
  69              	.L4:
  70              	.LBB16:
  71              	.LBB17:
  72              		.loc 1 173 0
  73 0004 2023     		movs	r3, #32
  74              		.syntax unified
  75              	@ 173 "../ChibiOS/os/kernel/src/chmempools.c" 1
  76 0006 83F31188 		msr     BASEPRI, r3
  77              	@ 0 "" 2
  78              	.LVL3:
  79              		.thumb
  80              		.syntax unified
  81              	.LBE17:
  82              	.LBB18:
  83              	.LBB19:
  84              		.loc 1 155 0
  85 000a 0468     		ldr	r4, [r0]
  86              	.LBE19:
  87              	.LBE18:
  88              	.LBB21:
  89              		.loc 1 175 0
  90 000c 0023     		movs	r3, #0
  91              	.LBE21:
  92              	.LBB22:
  93              	.LBB20:
  94              		.loc 1 155 0
  95 000e 0C60     		str	r4, [r1]
  96              		.loc 1 156 0
  97 0010 0160     		str	r1, [r0]
  98              	.LVL4:
  99              	.LBE20:
 100              	.LBE22:
 101              	.LBB23:
 102              		.loc 1 175 0
 103              		.syntax unified
 104              	@ 175 "../ChibiOS/os/kernel/src/chmempools.c" 1
 105 0012 83F31188 		msr     BASEPRI, r3
 106              	@ 0 "" 2
 107              	.LVL5:
 108              		.thumb
 109              		.syntax unified
 110              	.LBE23:
 111              	.LBE16:
 112              		.loc 1 90 0
 113 0016 4368     		ldr	r3, [r0, #4]
 114              		.loc 1 88 0
ARM GAS  /var/folders/6q/x_mk5n_j3p7_c40r_2k_78980000gn/T//ccRCRQTs.s 			page 3


 115 0018 013A     		subs	r2, r2, #1
 116              	.LVL6:
 117              		.loc 1 90 0
 118 001a 1944     		add	r1, r1, r3
 119              	.LVL7:
 120              		.loc 1 88 0
 121 001c F2D1     		bne	.L4
 122              		.loc 1 93 0
 123 001e 10BC     		pop	{r4}
 124              		.cfi_restore 4
 125              		.cfi_def_cfa_offset 0
 126              	.LVL8:
 127              	.L9:
 128 0020 7047     		bx	lr
 129              		.cfi_endproc
 130              	.LFE8:
 131              		.size	chPoolLoadArray, .-chPoolLoadArray
 132 0022 00BF     		.section	.text.chPoolAllocI,"ax",%progbits
 133              		.align	2
 134              		.p2align 4,,15
 135              		.global	chPoolAllocI
 136              		.thumb
 137              		.thumb_func
 138              		.type	chPoolAllocI, %function
 139              	chPoolAllocI:
 140              	.LFB9:
 141              		.loc 1 105 0
 142              		.cfi_startproc
 143              		@ args = 0, pretend = 0, frame = 0
 144              		@ frame_needed = 0, uses_anonymous_args = 0
 145              		@ link register save eliminated.
 146              	.LVL9:
 147              		.loc 1 111 0
 148 0000 0368     		ldr	r3, [r0]
 149              	.LVL10:
 150 0002 1BB1     		cbz	r3, .L12
 151              		.loc 1 112 0
 152 0004 1A68     		ldr	r2, [r3]
 153 0006 0260     		str	r2, [r0]
 154              	.L13:
 155              		.loc 1 116 0
 156 0008 1846     		mov	r0, r3
 157              	.LVL11:
 158 000a 7047     		bx	lr
 159              	.LVL12:
 160              	.L12:
 161              		.loc 1 113 0
 162 000c 8268     		ldr	r2, [r0, #8]
 163 000e 002A     		cmp	r2, #0
 164 0010 FAD0     		beq	.L13
 165              		.loc 1 114 0
 166 0012 4068     		ldr	r0, [r0, #4]
 167              	.LVL13:
 168 0014 1047     		bx	r2
 169              	.LVL14:
 170              		.cfi_endproc
 171              	.LFE9:
ARM GAS  /var/folders/6q/x_mk5n_j3p7_c40r_2k_78980000gn/T//ccRCRQTs.s 			page 4


 172              		.size	chPoolAllocI, .-chPoolAllocI
 173 0016 00BF     		.section	.text.chPoolAlloc,"ax",%progbits
 174              		.align	2
 175              		.p2align 4,,15
 176              		.global	chPoolAlloc
 177              		.thumb
 178              		.thumb_func
 179              		.type	chPoolAlloc, %function
 180              	chPoolAlloc:
 181              	.LFB10:
 182              		.loc 1 128 0
 183              		.cfi_startproc
 184              		@ args = 0, pretend = 0, frame = 0
 185              		@ frame_needed = 0, uses_anonymous_args = 0
 186              	.LVL15:
 187 0000 08B5     		push	{r3, lr}
 188              		.cfi_def_cfa_offset 8
 189              		.cfi_offset 3, -8
 190              		.cfi_offset 14, -4
 191              		.loc 1 128 0
 192 0002 0246     		mov	r2, r0
 193              	.LBB24:
 194              		.loc 1 131 0
 195 0004 2023     		movs	r3, #32
 196              		.syntax unified
 197              	@ 131 "../ChibiOS/os/kernel/src/chmempools.c" 1
 198 0006 83F31188 		msr     BASEPRI, r3
 199              	@ 0 "" 2
 200              	.LVL16:
 201              		.thumb
 202              		.syntax unified
 203              	.LBE24:
 204              	.LBB25:
 205              	.LBB26:
 206              		.loc 1 111 0
 207 000a 0068     		ldr	r0, [r0]
 208              	.LVL17:
 209 000c 28B1     		cbz	r0, .L18
 210              		.loc 1 112 0
 211 000e 0368     		ldr	r3, [r0]
 212 0010 1360     		str	r3, [r2]
 213              	.L19:
 214              	.LVL18:
 215              	.LBE26:
 216              	.LBE25:
 217              	.LBB28:
 218              		.loc 1 133 0
 219 0012 0023     		movs	r3, #0
 220              		.syntax unified
 221              	@ 133 "../ChibiOS/os/kernel/src/chmempools.c" 1
 222 0014 83F31188 		msr     BASEPRI, r3
 223              	@ 0 "" 2
 224              		.thumb
 225              		.syntax unified
 226              	.LBE28:
 227              		.loc 1 135 0
 228 0018 08BD     		pop	{r3, pc}
ARM GAS  /var/folders/6q/x_mk5n_j3p7_c40r_2k_78980000gn/T//ccRCRQTs.s 			page 5


 229              	.LVL19:
 230              	.L18:
 231              	.LBB29:
 232              	.LBB27:
 233              		.loc 1 113 0
 234 001a 9368     		ldr	r3, [r2, #8]
 235 001c 002B     		cmp	r3, #0
 236 001e F8D0     		beq	.L19
 237              		.loc 1 114 0
 238 0020 5068     		ldr	r0, [r2, #4]
 239              	.LVL20:
 240 0022 9847     		blx	r3
 241              	.LVL21:
 242              	.LBE27:
 243              	.LBE29:
 244              	.LBB30:
 245              		.loc 1 133 0
 246 0024 0023     		movs	r3, #0
 247              		.syntax unified
 248              	@ 133 "../ChibiOS/os/kernel/src/chmempools.c" 1
 249 0026 83F31188 		msr     BASEPRI, r3
 250              	@ 0 "" 2
 251              		.thumb
 252              		.syntax unified
 253              	.LBE30:
 254              		.loc 1 135 0
 255 002a 08BD     		pop	{r3, pc}
 256              		.cfi_endproc
 257              	.LFE10:
 258              		.size	chPoolAlloc, .-chPoolAlloc
 259              		.section	.text.chPoolFreeI,"ax",%progbits
 260              		.align	2
 261              		.p2align 4,,15
 262              		.global	chPoolFreeI
 263              		.thumb
 264              		.thumb_func
 265              		.type	chPoolFreeI, %function
 266              	chPoolFreeI:
 267              	.LFB11:
 268              		.loc 1 149 0
 269              		.cfi_startproc
 270              		@ args = 0, pretend = 0, frame = 0
 271              		@ frame_needed = 0, uses_anonymous_args = 0
 272              		@ link register save eliminated.
 273              	.LVL22:
 274              		.loc 1 155 0
 275 0000 0368     		ldr	r3, [r0]
 276 0002 0B60     		str	r3, [r1]
 277              		.loc 1 156 0
 278 0004 0160     		str	r1, [r0]
 279 0006 7047     		bx	lr
 280              		.cfi_endproc
 281              	.LFE11:
 282              		.size	chPoolFreeI, .-chPoolFreeI
 283              		.section	.text.chPoolFree,"ax",%progbits
 284              		.align	2
 285              		.p2align 4,,15
ARM GAS  /var/folders/6q/x_mk5n_j3p7_c40r_2k_78980000gn/T//ccRCRQTs.s 			page 6


 286              		.global	chPoolFree
 287              		.thumb
 288              		.thumb_func
 289              		.type	chPoolFree, %function
 290              	chPoolFree:
 291              	.LFB12:
 292              		.loc 1 171 0
 293              		.cfi_startproc
 294              		@ args = 0, pretend = 0, frame = 0
 295              		@ frame_needed = 0, uses_anonymous_args = 0
 296              		@ link register save eliminated.
 297              	.LVL23:
 298              	.LBB31:
 299              		.loc 1 173 0
 300 0000 2023     		movs	r3, #32
 301              		.syntax unified
 302              	@ 173 "../ChibiOS/os/kernel/src/chmempools.c" 1
 303 0002 83F31188 		msr     BASEPRI, r3
 304              	@ 0 "" 2
 305              	.LVL24:
 306              		.thumb
 307              		.syntax unified
 308              	.LBE31:
 309              	.LBB32:
 310              	.LBB33:
 311              		.loc 1 155 0
 312 0006 0268     		ldr	r2, [r0]
 313              	.LBE33:
 314              	.LBE32:
 315              	.LBB35:
 316              		.loc 1 175 0
 317 0008 0023     		movs	r3, #0
 318              	.LBE35:
 319              	.LBB36:
 320              	.LBB34:
 321              		.loc 1 155 0
 322 000a 0A60     		str	r2, [r1]
 323              		.loc 1 156 0
 324 000c 0160     		str	r1, [r0]
 325              	.LVL25:
 326              	.LBE34:
 327              	.LBE36:
 328              	.LBB37:
 329              		.loc 1 175 0
 330              		.syntax unified
 331              	@ 175 "../ChibiOS/os/kernel/src/chmempools.c" 1
 332 000e 83F31188 		msr     BASEPRI, r3
 333              	@ 0 "" 2
 334              		.thumb
 335              		.syntax unified
 336 0012 7047     		bx	lr
 337              	.LBE37:
 338              		.cfi_endproc
 339              	.LFE12:
 340              		.size	chPoolFree, .-chPoolFree
 341              		.text
 342              	.Letext0:
ARM GAS  /var/folders/6q/x_mk5n_j3p7_c40r_2k_78980000gn/T//ccRCRQTs.s 			page 7


 343              		.file 2 "/Users/Luca/src/vexilla/src/gcc-arm-none-eabi-5_4-2016q3/lib/gcc/arm-none-eabi/5.4.1/incl
 344              		.file 3 "/Users/Luca/src/vexilla/src/gcc-arm-none-eabi-5_4-2016q3/arm-none-eabi/include/machine/_d
 345              		.file 4 "/Users/Luca/src/vexilla/src/gcc-arm-none-eabi-5_4-2016q3/arm-none-eabi/include/sys/_stdin
 346              		.file 5 "../ChibiOS/os/kernel/include/chmemcore.h"
 347              		.file 6 "../ChibiOS/os/kernel/include/chmempools.h"