ARM GAS  /var/folders/6q/x_mk5n_j3p7_c40r_2k_78980000gn/T//ccRCRQTs.s 			page 1


   1              		.syntax unified
   2              		.cpu cortex-m3
   3              		.fpu softvfp
   4              		.eabi_attribute 20, 1
   5              		.eabi_attribute 21, 1
   6              		.eabi_attribute 23, 3
   7              		.eabi_attribute 24, 1
   8              		.eabi_attribute 25, 1
   9              		.eabi_attribute 26, 1
  10              		.eabi_attribute 30, 2
  11              		.eabi_attribute 34, 1
  12              		.eabi_attribute 18, 4
  13              		.thumb
  14              		.syntax unified
  15              		.file	"chmempools.c"
  16              		.text
  17              	.Ltext0:
  18              		.cfi_sections	.debug_frame
  19              		.section	.text.chPoolInit,"ax",%progbits
  20              		.align	2
  21              		.p2align 4,,15
  22              		.global	chPoolInit
  23              		.thumb
  24              		.thumb_func
  25              		.type	chPoolInit, %function
  26              	chPoolInit:
  27              	.LFB7:
  28              		.file 1 "../ChibiOS/os/kernel/src/chmempools.c"
  29              		.loc 1 62 0
  30              		.cfi_startproc
  31              		@ args = 0, pretend = 0, frame = 0
  32              		@ frame_needed = 0, uses_anonymous_args = 0
  33              		@ link register save eliminated.
  34              	.LVL0:
  35              		.loc 1 66 0
  36 0000 0023     		movs	r3, #0
  37              		.loc 1 67 0
  38 0002 4160     		str	r1, [r0, #4]
  39              		.loc 1 68 0
  40 0004 8260     		str	r2, [r0, #8]
  41              		.loc 1 66 0
  42 0006 0360     		str	r3, [r0]
  43 0008 7047     		bx	lr
  44              		.cfi_endproc
  45              	.LFE7:
  46              		.size	chPoolInit, .-chPoolInit
  47 000a 00BF     		.section	.text.chPoolLoadArray,"ax",%progbits
  48              		.align	2
  49              		.p2align 4,,15
  50              		.global	chPoolLoadArray
  51              		.thumb
  52              		.thumb_func
  53              		.type	chPoolLoadArray, %function
  54              	chPoolLoadArray:
  55              	.LFB8:
  56              		.loc 1 84 0
  57              		.cfi_startproc
ARM GAS  /var/folders/6q/x_mk5n_j3p7_c40r_2k_78980000gn/T//ccRCRQTs.s 			page 2


  58              		@ args = 0, pretend = 0, frame = 0
  59              		@ frame_needed = 0, uses_anonymous_args = 0
  60              		@ link register save eliminated.
  61              	.LVL1:
  62              		.loc 1 88 0
  63 0000 72B1     		cbz	r2, .L9
  64              		.loc 1 84 0
  65 0002 10B4     		push	{r4}
  66              		.cfi_def_cfa_offset 4
  67              		.cfi_offset 4, -4
  68              	.LVL2:
  69              	.L4:
  70              	.LBB16:
  71              	.LBB17:
  72              		.loc 1 173 0
  73 0004 2023     		movs	r3, #32
  74              		.syntax unified
  75              	@ 173 "../ChibiOS/os/kernel/src/chmempools.c" 1
  76 0006 83F31188 		msr     BASEPRI, r3
  77              	@ 0 "" 2
  78              	.LVL3:
  79              		.thumb
  80              		.syntax unified
  81              	.LBE17:
  82              	.LBB18:
  83              	.LBB19:
  84              		.loc 1 155 0
  85 000a 0468     		ldr	r4, [r0]
  86              	.LBE19:
  87              	.LBE18:
  88              	.LBB21:
  89              		.loc 1 175 0
  90 000c 0023     		movs	r3, #0
  91              	.LBE21:
  92              	.LBB22:
  93              	.LBB20:
  94              		.loc 1 155 0
  95 000e 0C60     		str	r4, [r1]
  96              		.loc 1 156 0
  97 0010 0160     		str	r1, [r0]
  98              	.LVL4:
  99              	.LBE20:
 100              	.LBE22:
 101              	.LBB23:
 102              		.loc 1 175 0
 103              		.syntax unified
 104              	@ 175 "../ChibiOS/os/kernel/src/chmempools.c" 1
 105 0012 83F31188 		msr     BASEPRI, r3
 106              	@ 0 "" 2
 107              	.LVL5:
 108              		.thumb
 109              		.syntax unified
 110              	.LBE23:
 111              	.LBE16:
 112              		.loc 1 90 0
 113 0016 4368     		ldr	r3, [r0, #4]
 114              		.loc 1 88 0
ARM GAS  /var/folders/6q/x_mk5n_j3p7_c40r_2k_78980000gn/T//ccRCRQTs.s 			page 3


 115 0018 013A     		subs	r2, r2, #1
 116              	.LVL6:
 117              		.loc 1 90 0
 118 001a 1944     		add	r1, r1, r3
 119              	.LVL7:
 120              		.loc 1 88 0
 121 001c F2D1     		bne	.L4
 122              		.loc 1 93 0
 123 001e 10BC     		pop	{r4}
 124              		.cfi_restore 4
 125              		.cfi_def_cfa_offset 0
 126              	.LVL8:
 127              	.L9:
 128 0020 7047     		bx	lr
 129              		.cfi_endproc
 130              	.LFE8:
 131              		.size	chPoolLoadArray, .-chPoolLoadArray
 132 0022 00BF     		.section	.text.chPoolAllocI,"ax",%progbits
 133              		.align	2
 134              		.p2align 4,,15
 135              		.global	chPoolAllocI
 136              		.thumb
 137              		.thumb_func
 138              		.type	chPoolAllocI, %function
 139              	chPoolAllocI:
 140              	.LFB9:
 141              		.loc 1 105 0
 142              		.cfi_startproc
 143              		@ args = 0, pretend = 0, frame = 0
 144              		@ frame_needed = 0, uses_anonymous_args = 0
 145              		@ link register save eliminated.
 146              	.LVL9:
 147              		.loc 1 111 0
 148 0000 0368     		ldr	r3, [r0]
 149              	.LVL10:
 150 0002 1BB1     		cbz	r3, .L12
 151              		.loc 1 112 0
 152 0004 1A68     		ldr	r2, [r3]
 153 0006 0260     		str	r2, [r0]
 154              	.L13:
 155              		.loc 1 116 0
 156 0008 1846     		mov	r0, r3
 157              	.LVL11:
 158 000a 7047     		bx	lr
 159              	.LVL12:
 160              	.L12:
 161              		.loc 1 113 0
 162 000c 8268     		ldr	r2, [r0, #8]
 163 000e 002A     		cmp	r2, #0
 164 0010 FAD0     		beq	.L13
 165              		.loc 1 114 0
 166 0012 4068     		ldr	r0, [r0, #4]
 167              	.LVL13:
 168 0014 1047     		bx	r2
 169              	.LVL14:
 170              		.cfi_endproc
 171              	.LFE9:
ARM GAS  /var/folders/6q/x_mk5n_j3p7_c40r_2k_78980000gn/T//ccRCRQTs.s 			page 4


 172              		.size	chPoolAllocI, .-chPoolAllocI
 173 0016 00BF     		.section	.text.chPoolAlloc,"ax",%progbits
 174              		.align	2
 175              		.p2align 4,,15
 176              		.global	chPoolAlloc
 177              		.thumb
 178              		.thumb_func
 179              		.type	chPoolAlloc, %function
 180              	chPoolAlloc:
 181              	.LFB10:
 182              		.loc 1 128 0
 183              		.cfi_startproc
 184              		@ args = 0, pretend = 0, frame = 0
 185              		@ frame_needed = 0, uses_anonymous_args = 0
 186              	.LVL15:
 187 0000 08B5     		push	{r3, lr}
 188              		.cfi_def_cfa_offset 8
 189              		.cfi_offset 3, -8
 190              		.cfi_offset 14, -4
 191              		.loc 1 128 0
 192 0002 0246     		mov	r2, r0
 193              	.LBB24:
 194              		.loc 1 131 0
 195 0004 2023     		movs	r3, #32
 196              		.syntax unified
 197              	@ 131 "../ChibiOS/os/kernel/src/chmempools.c" 1
 198 0006 83F31188 		msr     BASEPRI, r3
 199              	@ 0 "" 2
 200              	.LVL16:
 201              		.thumb
 202              		.syntax unified
 203              	.LBE24:
 204              	.LBB25:
 205              	.LBB26:
 206              		.loc 1 111 0
 207 000a 0068     		ldr	r0, [r0]
 208              	.LVL17:
 209 000c 28B1     		cbz	r0, .L18
 210              		.loc 1 112 0
 211 000e 0368     		ldr	r3, [r0]
 212 0010 1360     		str	r3, [r2]
 213              	.L19:
 214              	.LVL18:
 215              	.LBE26:
 216              	.LBE25:
 217              	.LBB28:
 218              		.loc 1 133 0
 219 0012 0023     		movs	r3, #0
 220              		.syntax unified
 221              	@ 133 "../ChibiOS/os/kernel/src/chmempools.c" 1
 222 0014 83F31188 		msr     BASEPRI, r3
 223              	@ 0 "" 2
 224              		.thumb
 225              		.syntax unified
 226              	.LBE28:
 227              		.loc 1 135 0
 228 0018 08BD     		pop	{r3, pc}
ARM GAS  /var/folders/6q/x_mk5n_j3p7_c40r_2k_78980000gn/T//ccRCRQTs.s 			page 5


 229              	.LVL19:
 230              	.L18:
 231              	.LBB29:
 232              	.LBB27:
 233              		.loc 1 113 0
 234 001a 9368     		ldr	r3, [r2, #8]
 235 001c 002B     		cmp	r3, #0
 236 001e F8D0     		beq	.L19
 237              		.loc 1 114 0
 238 0020 5068     		ldr	r0, [r2, #4]
 239              	.LVL20:
 240 0022 9847     		blx	r3
 241              	.LVL21:
 242              	.LBE27:
 243              	.LBE29:
 244              	.LBB30:
 245              		.loc 1 133 0
 246 0024 0023     		movs	r3, #0
 247              		.syntax unified
 248              	@ 133 "../ChibiOS/os/kernel/src/chmempools.c" 1
 249 0026 83F31188 		msr     BASEPRI, r3
 250              	@ 0 "" 2
 251              		.thumb
 252              		.syntax unified
 253              	.LBE30:
 254              		.loc 1 135 0
 255 002a 08BD     		pop	{r3, pc}
 256              		.cfi_endproc
 257              	.LFE10:
 258              		.size	chPoolAlloc, .-chPoolAlloc
 259              		.section	.text.chPoolFreeI,"ax",%progbits
 260              		.align	2
 261              		.p2align 4,,15
 262              		.global	chPoolFreeI
 263              		.thumb
 264              		.thumb_func
 265              		.type	chPoolFreeI, %function
 266              	chPoolFreeI:
 267              	.LFB11:
 268              		.loc 1 149 0
 269              		.cfi_startproc
 270              		@ args = 0, pretend = 0, frame = 0
 271              		@ frame_needed = 0, uses_anonymous_args = 0
 272              		@ link register save eliminated.
 273              	.LVL22:
 274              		.loc 1 155 0
 275 0000 0368     		ldr	r3, [r0]
 276 0002 0B60     		str	r3, [r1]
 277              		.loc 1 156 0
 278 0004 0160     		str	r1, [r0]
 279 0006 7047     		bx	lr
 280              		.cfi_endproc
 281              	.LFE11:
 282              		.size	chPoolFreeI, .-chPoolFreeI
 283              		.section	.text.chPoolFree,"ax",%progbits
 284              		.align	2
 285              		.p2align 4,,15
ARM GAS  /var/folders/6q/x_mk5n_j3p7_c40r_2k_78980000gn/T//ccRCRQTs.s 			page 6


 286              		.global	chPoolFree
 287              		.thumb
 288              		.thumb_func
 289              		.type	chPoolFree, %function
 290              	chPoolFree:
 291              	.LFB12:
 292              		.loc 1 171 0
 293              		.cfi_startproc
 294              		@ args = 0, pretend = 0, frame = 0
 295              		@ frame_needed = 0, uses_anonymous_args = 0
 296              		@ link register save eliminated.
 297              	.LVL23:
 298              	.LBB31:
 299              		.loc 1 173 0
 300 0000 2023     		movs	r3, #32
 301              		.syntax unified
 302              	@ 173 "../ChibiOS/os/kernel/src/chmempools.c" 1
 303 0002 83F31188 		msr     BASEPRI, r3
 304              	@ 0 "" 2
 305              	.LVL24:
 306              		.thumb
 307              		.syntax unified
 308              	.LBE31:
 309              	.LBB32:
 310              	.LBB33:
 311              		.loc 1 155 0
 312 0006 0268     		ldr	r2, [r0]
 313              	.LBE33:
 314              	.LBE32:
 315              	.LBB35:
 316              		.loc 1 175 0
 317 0008 0023     		movs	r3, #0
 318              	.LBE35:
 319              	.LBB36:
 320              	.LBB34:
 321              		.loc 1 155 0
 322 000a 0A60     		str	r2, [r1]
 323              		.loc 1 156 0
 324 000c 0160     		str	r1, [r0]
 325              	.LVL25:
 326              	.LBE34:
 327              	.LBE36:
 328              	.LBB37:
 329              		.loc 1 175 0
 330              		.syntax unified
 331              	@ 175 "../ChibiOS/os/kernel/src/chmempools.c" 1
 332 000e 83F31188 		msr     BASEPRI, r3
 333              	@ 0 "" 2
 334              		.thumb
 335              		.syntax unified
 336 0012 7047     		bx	lr
 337              	.LBE37:
 338              		.cfi_endproc
 339              	.LFE12:
 340              		.size	chPoolFree, .-chPoolFree
 341              		.text
 342              	.Letext0:
ARM GAS  /var/folders/6q/x_mk5n_j3p7_c40r_2k_78980000gn/T//ccRCRQTs.s 			page 7


 343              		.file 2 "/Users/Luca/src/vexilla/src/gcc-arm-none-eabi-5_4-2016q3/lib/gcc/arm-none-eabi/5.4.1/incl
 344              		.file 3 "/Users/Luca/src/vexilla/src/gcc-arm-none-eabi-5_4-2016q3/arm-none-eabi/include/machine/_d
 345              		.file 4 "/Users/Luca/src/vexilla/src/gcc-arm-none-eabi-5_4-2016q3/arm-none-eabi/include/sys/_stdin
 346              		.file 5 "../ChibiOS/os/kernel/include/chmemcore.h"
 347              		.file 6 "../ChibiOS/os/kernel/include/chmempools.h"
 348              		.section	.debug_info,"",%progbits
 349              	.Ldebug_info0:
 350 0000 0F040000 		.4byte	0x40f
 351 0004 0400     		.2byte	0x4
 352 0006 00000000 		.4byte	.Ldebug_abbrev0
 353 000a 04       		.byte	0x4
 354 000b 01       		.uleb128 0x1
 355 000c 16010000 		.4byte	.LASF31
 356 0010 0C       		.byte	0xc
 357 0011 3C000000 		.4byte	.LASF32
 358 0015 3B020000 		.4byte	.LASF33
 359 0019 90000000 		.4byte	.Ldebug_ranges0+0x90
 360 001d 00000000 		.4byte	0
 361 0021 00000000 		.4byte	.Ldebug_line0
 362 0025 02       		.uleb128 0x2
 363 0026 04       		.byte	0x4
 364 0027 05       		.byte	0x5
 365 0028 696E7400 		.ascii	"int\000"
 366 002c 03       		.uleb128 0x3
 367 002d 0A000000 		.4byte	.LASF4
 368 0031 02       		.byte	0x2
 369 0032 D8       		.byte	0xd8
 370 0033 37000000 		.4byte	0x37
 371 0037 04       		.uleb128 0x4
 372 0038 04       		.byte	0x4
 373 0039 07       		.byte	0x7
 374 003a E2000000 		.4byte	.LASF0
 375 003e 04       		.uleb128 0x4
 376 003f 08       		.byte	0x8
 377 0040 05       		.byte	0x5
 378 0041 F9010000 		.4byte	.LASF1
 379 0045 04       		.uleb128 0x4
 380 0046 08       		.byte	0x8
 381 0047 04       		.byte	0x4
 382 0048 6F020000 		.4byte	.LASF2
 383 004c 04       		.uleb128 0x4
 384 004d 01       		.byte	0x1
 385 004e 06       		.byte	0x6
 386 004f 7B020000 		.4byte	.LASF3
 387 0053 03       		.uleb128 0x3
 388 0054 00000000 		.4byte	.LASF5
 389 0058 03       		.byte	0x3
 390 0059 1D       		.byte	0x1d
 391 005a 5E000000 		.4byte	0x5e
 392 005e 04       		.uleb128 0x4
 393 005f 01       		.byte	0x1
 394 0060 08       		.byte	0x8
 395 0061 A1000000 		.4byte	.LASF6
 396 0065 04       		.uleb128 0x4
 397 0066 02       		.byte	0x2
 398 0067 05       		.byte	0x5
 399 0068 25020000 		.4byte	.LASF7
ARM GAS  /var/folders/6q/x_mk5n_j3p7_c40r_2k_78980000gn/T//ccRCRQTs.s 			page 8


 400 006c 04       		.uleb128 0x4
 401 006d 02       		.byte	0x2
 402 006e 07       		.byte	0x7
 403 006f 79000000 		.4byte	.LASF8
 404 0073 04       		.uleb128 0x4
 405 0074 04       		.byte	0x4
 406 0075 05       		.byte	0x5
 407 0076 66020000 		.4byte	.LASF9
 408 007a 03       		.uleb128 0x3
 409 007b AF000000 		.4byte	.LASF10
 410 007f 03       		.byte	0x3
 411 0080 41       		.byte	0x41
 412 0081 85000000 		.4byte	0x85
 413 0085 04       		.uleb128 0x4
 414 0086 04       		.byte	0x4
 415 0087 07       		.byte	0x7
 416 0088 67000000 		.4byte	.LASF11
 417 008c 04       		.uleb128 0x4
 418 008d 08       		.byte	0x8
 419 008e 07       		.byte	0x7
 420 008f EF000000 		.4byte	.LASF12
 421 0093 03       		.uleb128 0x3
 422 0094 06010000 		.4byte	.LASF13
 423 0098 04       		.byte	0x4
 424 0099 18       		.byte	0x18
 425 009a 53000000 		.4byte	0x53
 426 009e 03       		.uleb128 0x3
 427 009f 5D020000 		.4byte	.LASF14
 428 00a3 04       		.byte	0x4
 429 00a4 30       		.byte	0x30
 430 00a5 7A000000 		.4byte	0x7a
 431 00a9 04       		.uleb128 0x4
 432 00aa 01       		.byte	0x1
 433 00ab 02       		.byte	0x2
 434 00ac 8F020000 		.4byte	.LASF15
 435 00b0 05       		.uleb128 0x5
 436 00b1 04       		.byte	0x4
 437 00b2 04       		.uleb128 0x4
 438 00b3 04       		.byte	0x4
 439 00b4 07       		.byte	0x7
 440 00b5 F0010000 		.4byte	.LASF16
 441 00b9 03       		.uleb128 0x3
 442 00ba 0C020000 		.4byte	.LASF17
 443 00be 05       		.byte	0x5
 444 00bf 2C       		.byte	0x2c
 445 00c0 C4000000 		.4byte	0xc4
 446 00c4 06       		.uleb128 0x6
 447 00c5 04       		.byte	0x4
 448 00c6 CA000000 		.4byte	0xca
 449 00ca 07       		.uleb128 0x7
 450 00cb B0000000 		.4byte	0xb0
 451 00cf D9000000 		.4byte	0xd9
 452 00d3 08       		.uleb128 0x8
 453 00d4 2C000000 		.4byte	0x2c
 454 00d8 00       		.byte	0
 455 00d9 09       		.uleb128 0x9
 456 00da 30000000 		.4byte	.LASF34
ARM GAS  /var/folders/6q/x_mk5n_j3p7_c40r_2k_78980000gn/T//ccRCRQTs.s 			page 9


 457 00de 04       		.byte	0x4
 458 00df 06       		.byte	0x6
 459 00e0 2C       		.byte	0x2c
 460 00e1 F2000000 		.4byte	0xf2
 461 00e5 0A       		.uleb128 0xa
 462 00e6 0E010000 		.4byte	.LASF18
 463 00ea 06       		.byte	0x6
 464 00eb 2D       		.byte	0x2d
 465 00ec F2000000 		.4byte	0xf2
 466 00f0 00       		.byte	0
 467 00f1 00       		.byte	0
 468 00f2 06       		.uleb128 0x6
 469 00f3 04       		.byte	0x4
 470 00f4 D9000000 		.4byte	0xd9
 471 00f8 0B       		.uleb128 0xb
 472 00f9 0C       		.byte	0xc
 473 00fa 06       		.byte	0x6
 474 00fb 34       		.byte	0x34
 475 00fc 25010000 		.4byte	0x125
 476 0100 0A       		.uleb128 0xa
 477 0101 87020000 		.4byte	.LASF19
 478 0105 06       		.byte	0x6
 479 0106 35       		.byte	0x35
 480 0107 F2000000 		.4byte	0xf2
 481 010b 00       		.byte	0
 482 010c 0A       		.uleb128 0xa
 483 010d 11000000 		.4byte	.LASF20
 484 0111 06       		.byte	0x6
 485 0112 36       		.byte	0x36
 486 0113 2C000000 		.4byte	0x2c
 487 0117 04       		.byte	0x4
 488 0118 0A       		.uleb128 0xa
 489 0119 19020000 		.4byte	.LASF21
 490 011d 06       		.byte	0x6
 491 011e 38       		.byte	0x38
 492 011f B9000000 		.4byte	0xb9
 493 0123 08       		.byte	0x8
 494 0124 00       		.byte	0
 495 0125 03       		.uleb128 0x3
 496 0126 C5000000 		.4byte	.LASF22
 497 012a 06       		.byte	0x6
 498 012b 3A       		.byte	0x3a
 499 012c F8000000 		.4byte	0xf8
 500 0130 04       		.uleb128 0x4
 501 0131 01       		.byte	0x1
 502 0132 08       		.byte	0x8
 503 0133 07020000 		.4byte	.LASF23
 504 0137 0C       		.uleb128 0xc
 505 0138 D5000000 		.4byte	.LASF35
 506 013c 01       		.byte	0x1
 507 013d 69       		.byte	0x69
 508 013e B0000000 		.4byte	0xb0
 509 0142 01       		.byte	0x1
 510 0143 5D010000 		.4byte	0x15d
 511 0147 0D       		.uleb128 0xd
 512 0148 6D7000   		.ascii	"mp\000"
 513 014b 01       		.byte	0x1
ARM GAS  /var/folders/6q/x_mk5n_j3p7_c40r_2k_78980000gn/T//ccRCRQTs.s 			page 10


 514 014c 69       		.byte	0x69
 515 014d 5D010000 		.4byte	0x15d
 516 0151 0E       		.uleb128 0xe
 517 0152 D0000000 		.4byte	.LASF24
 518 0156 01       		.byte	0x1
 519 0157 6A       		.byte	0x6a
 520 0158 B0000000 		.4byte	0xb0
 521 015c 00       		.byte	0
 522 015d 06       		.uleb128 0x6
 523 015e 04       		.byte	0x4
 524 015f 25010000 		.4byte	0x125
 525 0163 0F       		.uleb128 0xf
 526 0164 95000000 		.4byte	.LASF25
 527 0168 01       		.byte	0x1
 528 0169 95       		.byte	0x95
 529 016a 01       		.byte	0x1
 530 016b 90010000 		.4byte	0x190
 531 016f 0D       		.uleb128 0xd
 532 0170 6D7000   		.ascii	"mp\000"
 533 0173 01       		.byte	0x1
 534 0174 95       		.byte	0x95
 535 0175 5D010000 		.4byte	0x15d
 536 0179 10       		.uleb128 0x10
 537 017a D0000000 		.4byte	.LASF24
 538 017e 01       		.byte	0x1
 539 017f 95       		.byte	0x95
 540 0180 B0000000 		.4byte	0xb0
 541 0184 11       		.uleb128 0x11
 542 0185 70687000 		.ascii	"php\000"
 543 0189 01       		.byte	0x1
 544 018a 96       		.byte	0x96
 545 018b F2000000 		.4byte	0xf2
 546 018f 00       		.byte	0
 547 0190 0F       		.uleb128 0xf
 548 0191 BA000000 		.4byte	.LASF26
 549 0195 01       		.byte	0x1
 550 0196 AB       		.byte	0xab
 551 0197 01       		.byte	0x1
 552 0198 D0010000 		.4byte	0x1d0
 553 019c 0D       		.uleb128 0xd
 554 019d 6D7000   		.ascii	"mp\000"
 555 01a0 01       		.byte	0x1
 556 01a1 AB       		.byte	0xab
 557 01a2 5D010000 		.4byte	0x15d
 558 01a6 10       		.uleb128 0x10
 559 01a7 D0000000 		.4byte	.LASF24
 560 01ab 01       		.byte	0x1
 561 01ac AB       		.byte	0xab
 562 01ad B0000000 		.4byte	0xb0
 563 01b1 12       		.uleb128 0x12
 564 01b2 C2010000 		.4byte	0x1c2
 565 01b6 11       		.uleb128 0x11
 566 01b7 746D7000 		.ascii	"tmp\000"
 567 01bb 01       		.byte	0x1
 568 01bc AD       		.byte	0xad
 569 01bd 9E000000 		.4byte	0x9e
 570 01c1 00       		.byte	0
ARM GAS  /var/folders/6q/x_mk5n_j3p7_c40r_2k_78980000gn/T//ccRCRQTs.s 			page 11


 571 01c2 13       		.uleb128 0x13
 572 01c3 11       		.uleb128 0x11
 573 01c4 746D7000 		.ascii	"tmp\000"
 574 01c8 01       		.byte	0x1
 575 01c9 AF       		.byte	0xaf
 576 01ca 9E000000 		.4byte	0x9e
 577 01ce 00       		.byte	0
 578 01cf 00       		.byte	0
 579 01d0 14       		.uleb128 0x14
 580 01d1 95020000 		.4byte	.LASF29
 581 01d5 01       		.byte	0x1
 582 01d6 3E       		.byte	0x3e
 583 01d7 00000000 		.4byte	.LFB7
 584 01db 0A000000 		.4byte	.LFE7-.LFB7
 585 01df 01       		.uleb128 0x1
 586 01e0 9C       		.byte	0x9c
 587 01e1 0C020000 		.4byte	0x20c
 588 01e5 15       		.uleb128 0x15
 589 01e6 6D7000   		.ascii	"mp\000"
 590 01e9 01       		.byte	0x1
 591 01ea 3E       		.byte	0x3e
 592 01eb 5D010000 		.4byte	0x15d
 593 01ef 01       		.uleb128 0x1
 594 01f0 50       		.byte	0x50
 595 01f1 16       		.uleb128 0x16
 596 01f2 62000000 		.4byte	.LASF27
 597 01f6 01       		.byte	0x1
 598 01f7 3E       		.byte	0x3e
 599 01f8 2C000000 		.4byte	0x2c
 600 01fc 01       		.uleb128 0x1
 601 01fd 51       		.byte	0x51
 602 01fe 16       		.uleb128 0x16
 603 01ff 8C000000 		.4byte	.LASF28
 604 0203 01       		.byte	0x1
 605 0204 3E       		.byte	0x3e
 606 0205 B9000000 		.4byte	0xb9
 607 0209 01       		.uleb128 0x1
 608 020a 52       		.byte	0x52
 609 020b 00       		.byte	0
 610 020c 14       		.uleb128 0x14
 611 020d 20000000 		.4byte	.LASF30
 612 0211 01       		.byte	0x1
 613 0212 54       		.byte	0x54
 614 0213 00000000 		.4byte	.LFB8
 615 0217 22000000 		.4byte	.LFE8-.LFB8
 616 021b 01       		.uleb128 0x1
 617 021c 9C       		.byte	0x9c
 618 021d C1020000 		.4byte	0x2c1
 619 0221 15       		.uleb128 0x15
 620 0222 6D7000   		.ascii	"mp\000"
 621 0225 01       		.byte	0x1
 622 0226 54       		.byte	0x54
 623 0227 5D010000 		.4byte	0x15d
 624 022b 01       		.uleb128 0x1
 625 022c 50       		.byte	0x50
 626 022d 17       		.uleb128 0x17
 627 022e 7000     		.ascii	"p\000"
ARM GAS  /var/folders/6q/x_mk5n_j3p7_c40r_2k_78980000gn/T//ccRCRQTs.s 			page 12


 628 0230 01       		.byte	0x1
 629 0231 54       		.byte	0x54
 630 0232 B0000000 		.4byte	0xb0
 631 0236 00000000 		.4byte	.LLST0
 632 023a 17       		.uleb128 0x17
 633 023b 6E00     		.ascii	"n\000"
 634 023d 01       		.byte	0x1
 635 023e 54       		.byte	0x54
 636 023f 2C000000 		.4byte	0x2c
 637 0243 1E000000 		.4byte	.LLST1
 638 0247 18       		.uleb128 0x18
 639 0248 90010000 		.4byte	0x190
 640 024c 04000000 		.4byte	.LBB16
 641 0250 12000000 		.4byte	.LBE16-.LBB16
 642 0254 01       		.byte	0x1
 643 0255 59       		.byte	0x59
 644 0256 19       		.uleb128 0x19
 645 0257 A6010000 		.4byte	0x1a6
 646 025b 49000000 		.4byte	.LLST2
 647 025f 19       		.uleb128 0x19
 648 0260 9C010000 		.4byte	0x19c
 649 0264 5C000000 		.4byte	.LLST3
 650 0268 1A       		.uleb128 0x1a
 651 0269 04000000 		.4byte	.LBB17
 652 026d 06000000 		.4byte	.LBE17-.LBB17
 653 0271 7D020000 		.4byte	0x27d
 654 0275 1B       		.uleb128 0x1b
 655 0276 B6010000 		.4byte	0x1b6
 656 027a 01       		.uleb128 0x1
 657 027b 53       		.byte	0x53
 658 027c 00       		.byte	0
 659 027d 1C       		.uleb128 0x1c
 660 027e 63010000 		.4byte	0x163
 661 0282 0A000000 		.4byte	.LBB18
 662 0286 00000000 		.4byte	.Ldebug_ranges0+0
 663 028a 01       		.byte	0x1
 664 028b AE       		.byte	0xae
 665 028c B2020000 		.4byte	0x2b2
 666 0290 19       		.uleb128 0x19
 667 0291 79010000 		.4byte	0x179
 668 0295 6F000000 		.4byte	.LLST4
 669 0299 19       		.uleb128 0x19
 670 029a 6F010000 		.4byte	0x16f
 671 029e 82000000 		.4byte	.LLST5
 672 02a2 1D       		.uleb128 0x1d
 673 02a3 00000000 		.4byte	.Ldebug_ranges0+0
 674 02a7 1E       		.uleb128 0x1e
 675 02a8 84010000 		.4byte	0x184
 676 02ac 95000000 		.4byte	.LLST6
 677 02b0 00       		.byte	0
 678 02b1 00       		.byte	0
 679 02b2 1D       		.uleb128 0x1d
 680 02b3 18000000 		.4byte	.Ldebug_ranges0+0x18
 681 02b7 1B       		.uleb128 0x1b
 682 02b8 C3010000 		.4byte	0x1c3
 683 02bc 01       		.uleb128 0x1
 684 02bd 53       		.byte	0x53
ARM GAS  /var/folders/6q/x_mk5n_j3p7_c40r_2k_78980000gn/T//ccRCRQTs.s 			page 13


 685 02be 00       		.byte	0
 686 02bf 00       		.byte	0
 687 02c0 00       		.byte	0
 688 02c1 1F       		.uleb128 0x1f
 689 02c2 37010000 		.4byte	0x137
 690 02c6 00000000 		.4byte	.LFB9
 691 02ca 16000000 		.4byte	.LFE9-.LFB9
 692 02ce 01       		.uleb128 0x1
 693 02cf 9C       		.byte	0x9c
 694 02d0 E7020000 		.4byte	0x2e7
 695 02d4 19       		.uleb128 0x19
 696 02d5 47010000 		.4byte	0x147
 697 02d9 B4000000 		.4byte	.LLST7
 698 02dd 1E       		.uleb128 0x1e
 699 02de 51010000 		.4byte	0x151
 700 02e2 EE000000 		.4byte	.LLST8
 701 02e6 00       		.byte	0
 702 02e7 20       		.uleb128 0x20
 703 02e8 2F020000 		.4byte	.LASF36
 704 02ec 01       		.byte	0x1
 705 02ed 80       		.byte	0x80
 706 02ee B0000000 		.4byte	0xb0
 707 02f2 00000000 		.4byte	.LFB10
 708 02f6 2C000000 		.4byte	.LFE10-.LFB10
 709 02fa 01       		.uleb128 0x1
 710 02fb 9C       		.byte	0x9c
 711 02fc 76030000 		.4byte	0x376
 712 0300 17       		.uleb128 0x17
 713 0301 6D7000   		.ascii	"mp\000"
 714 0304 01       		.byte	0x1
 715 0305 80       		.byte	0x80
 716 0306 5D010000 		.4byte	0x15d
 717 030a 01010000 		.4byte	.LLST9
 718 030e 21       		.uleb128 0x21
 719 030f D0000000 		.4byte	.LASF24
 720 0313 01       		.byte	0x1
 721 0314 81       		.byte	0x81
 722 0315 B0000000 		.4byte	0xb0
 723 0319 01       		.uleb128 0x1
 724 031a 50       		.byte	0x50
 725 031b 1A       		.uleb128 0x1a
 726 031c 04000000 		.4byte	.LBB24
 727 0320 06000000 		.4byte	.LBE24-.LBB24
 728 0324 36030000 		.4byte	0x336
 729 0328 22       		.uleb128 0x22
 730 0329 746D7000 		.ascii	"tmp\000"
 731 032d 01       		.byte	0x1
 732 032e 83       		.byte	0x83
 733 032f 9E000000 		.4byte	0x9e
 734 0333 01       		.uleb128 0x1
 735 0334 53       		.byte	0x53
 736 0335 00       		.byte	0
 737 0336 1C       		.uleb128 0x1c
 738 0337 37010000 		.4byte	0x137
 739 033b 0A000000 		.4byte	.LBB25
 740 033f 30000000 		.4byte	.Ldebug_ranges0+0x30
 741 0343 01       		.byte	0x1
ARM GAS  /var/folders/6q/x_mk5n_j3p7_c40r_2k_78980000gn/T//ccRCRQTs.s 			page 14


 742 0344 84       		.byte	0x84
 743 0345 62030000 		.4byte	0x362
 744 0349 19       		.uleb128 0x19
 745 034a 47010000 		.4byte	0x147
 746 034e 2D010000 		.4byte	.LLST10
 747 0352 1D       		.uleb128 0x1d
 748 0353 30000000 		.4byte	.Ldebug_ranges0+0x30
 749 0357 1E       		.uleb128 0x1e
 750 0358 51010000 		.4byte	0x151
 751 035c 64010000 		.4byte	.LLST11
 752 0360 00       		.byte	0
 753 0361 00       		.byte	0
 754 0362 1D       		.uleb128 0x1d
 755 0363 48000000 		.4byte	.Ldebug_ranges0+0x48
 756 0367 22       		.uleb128 0x22
 757 0368 746D7000 		.ascii	"tmp\000"
 758 036c 01       		.byte	0x1
 759 036d 85       		.byte	0x85
 760 036e 9E000000 		.4byte	0x9e
 761 0372 01       		.uleb128 0x1
 762 0373 53       		.byte	0x53
 763 0374 00       		.byte	0
 764 0375 00       		.byte	0
 765 0376 23       		.uleb128 0x23
 766 0377 63010000 		.4byte	0x163
 767 037b 00000000 		.4byte	.LFB11
 768 037f 08000000 		.4byte	.LFE11-.LFB11
 769 0383 01       		.uleb128 0x1
 770 0384 9C       		.byte	0x9c
 771 0385 9F030000 		.4byte	0x39f
 772 0389 24       		.uleb128 0x24
 773 038a 6F010000 		.4byte	0x16f
 774 038e 01       		.uleb128 0x1
 775 038f 50       		.byte	0x50
 776 0390 24       		.uleb128 0x24
 777 0391 79010000 		.4byte	0x179
 778 0395 01       		.uleb128 0x1
 779 0396 51       		.byte	0x51
 780 0397 1B       		.uleb128 0x1b
 781 0398 84010000 		.4byte	0x184
 782 039c 01       		.uleb128 0x1
 783 039d 51       		.byte	0x51
 784 039e 00       		.byte	0
 785 039f 25       		.uleb128 0x25
 786 03a0 90010000 		.4byte	0x190
 787 03a4 00000000 		.4byte	.LFB12
 788 03a8 14000000 		.4byte	.LFE12-.LFB12
 789 03ac 01       		.uleb128 0x1
 790 03ad 9C       		.byte	0x9c
 791 03ae 24       		.uleb128 0x24
 792 03af 9C010000 		.4byte	0x19c
 793 03b3 01       		.uleb128 0x1
 794 03b4 50       		.byte	0x50
 795 03b5 24       		.uleb128 0x24
 796 03b6 A6010000 		.4byte	0x1a6
 797 03ba 01       		.uleb128 0x1
 798 03bb 51       		.byte	0x51
ARM GAS  /var/folders/6q/x_mk5n_j3p7_c40r_2k_78980000gn/T//ccRCRQTs.s 			page 15


 799 03bc 1A       		.uleb128 0x1a
 800 03bd 00000000 		.4byte	.LBB31
 801 03c1 06000000 		.4byte	.LBE31-.LBB31
 802 03c5 D1030000 		.4byte	0x3d1
 803 03c9 1B       		.uleb128 0x1b
 804 03ca B6010000 		.4byte	0x1b6
 805 03ce 01       		.uleb128 0x1
 806 03cf 53       		.byte	0x53
 807 03d0 00       		.byte	0
 808 03d1 1C       		.uleb128 0x1c
 809 03d2 63010000 		.4byte	0x163
 810 03d6 06000000 		.4byte	.LBB32
 811 03da 60000000 		.4byte	.Ldebug_ranges0+0x60
 812 03de 01       		.byte	0x1
 813 03df AE       		.byte	0xae
 814 03e0 04040000 		.4byte	0x404
 815 03e4 19       		.uleb128 0x19
 816 03e5 79010000 		.4byte	0x179
 817 03e9 8E010000 		.4byte	.LLST12
 818 03ed 19       		.uleb128 0x19
 819 03ee 6F010000 		.4byte	0x16f
 820 03f2 A1010000 		.4byte	.LLST13
 821 03f6 1D       		.uleb128 0x1d
 822 03f7 60000000 		.4byte	.Ldebug_ranges0+0x60
 823 03fb 1B       		.uleb128 0x1b
 824 03fc 84010000 		.4byte	0x184
 825 0400 01       		.uleb128 0x1
 826 0401 51       		.byte	0x51
 827 0402 00       		.byte	0
 828 0403 00       		.byte	0
 829 0404 1D       		.uleb128 0x1d
 830 0405 78000000 		.4byte	.Ldebug_ranges0+0x78
 831 0409 1B       		.uleb128 0x1b
 832 040a C3010000 		.4byte	0x1c3
 833 040e 01       		.uleb128 0x1
 834 040f 53       		.byte	0x53
 835 0410 00       		.byte	0
 836 0411 00       		.byte	0
 837 0412 00       		.byte	0
 838              		.section	.debug_abbrev,"",%progbits
 839              	.Ldebug_abbrev0:
 840 0000 01       		.uleb128 0x1
 841 0001 11       		.uleb128 0x11
 842 0002 01       		.byte	0x1
 843 0003 25       		.uleb128 0x25
 844 0004 0E       		.uleb128 0xe
 845 0005 13       		.uleb128 0x13
 846 0006 0B       		.uleb128 0xb
 847 0007 03       		.uleb128 0x3
 848 0008 0E       		.uleb128 0xe
 849 0009 1B       		.uleb128 0x1b
 850 000a 0E       		.uleb128 0xe
 851 000b 55       		.uleb128 0x55
 852 000c 17       		.uleb128 0x17
 853 000d 11       		.uleb128 0x11
 854 000e 01       		.uleb128 0x1
 855 000f 10       		.uleb128 0x10
ARM GAS  /var/folders/6q/x_mk5n_j3p7_c40r_2k_78980000gn/T//ccRCRQTs.s 			page 16


 856 0010 17       		.uleb128 0x17
 857 0011 00       		.byte	0
 858 0012 00       		.byte	0
 859 0013 02       		.uleb128 0x2
 860 0014 24       		.uleb128 0x24
 861 0015 00       		.byte	0
 862 0016 0B       		.uleb128 0xb
 863 0017 0B       		.uleb128 0xb
 864 0018 3E       		.uleb128 0x3e
 865 0019 0B       		.uleb128 0xb
 866 001a 03       		.uleb128 0x3
 867 001b 08       		.uleb128 0x8
 868 001c 00       		.byte	0
 869 001d 00       		.byte	0
 870 001e 03       		.uleb128 0x3
 871 001f 16       		.uleb128 0x16
 872 0020 00       		.byte	0
 873 0021 03       		.uleb128 0x3
 874 0022 0E       		.uleb128 0xe
 875 0023 3A       		.uleb128 0x3a
 876 0024 0B       		.uleb128 0xb
 877 0025 3B       		.uleb128 0x3b
 878 0026 0B       		.uleb128 0xb
 879 0027 49       		.uleb128 0x49
 880 0028 13       		.uleb128 0x13
 881 0029 00       		.byte	0
 882 002a 00       		.byte	0
 883 002b 04       		.uleb128 0x4
 884 002c 24       		.uleb128 0x24
 885 002d 00       		.byte	0
 886 002e 0B       		.uleb128 0xb
 887 002f 0B       		.uleb128 0xb
 888 0030 3E       		.uleb128 0x3e
 889 0031 0B       		.uleb128 0xb
 890 0032 03       		.uleb128 0x3
 891 0033 0E       		.uleb128 0xe
 892 0034 00       		.byte	0
 893 0035 00       		.byte	0
 894 0036 05       		.uleb128 0x5
 895 0037 0F       		.uleb128 0xf
 896 0038 00       		.byte	0
 897 0039 0B       		.uleb128 0xb
 898 003a 0B       		.uleb128 0xb
 899 003b 00       		.byte	0
 900 003c 00       		.byte	0
 901 003d 06       		.uleb128 0x6
 902 003e 0F       		.uleb128 0xf
 903 003f 00       		.byte	0
 904 0040 0B       		.uleb128 0xb
 905 0041 0B       		.uleb128 0xb
 906 0042 49       		.uleb128 0x49
 907 0043 13       		.uleb128 0x13
 908 0044 00       		.byte	0
 909 0045 00       		.byte	0
 910 0046 07       		.uleb128 0x7
 911 0047 15       		.uleb128 0x15
 912 0048 01       		.byte	0x1
ARM GAS  /var/folders/6q/x_mk5n_j3p7_c40r_2k_78980000gn/T//ccRCRQTs.s 			page 17


 913 0049 27       		.uleb128 0x27
 914 004a 19       		.uleb128 0x19
 915 004b 49       		.uleb128 0x49
 916 004c 13       		.uleb128 0x13
 917 004d 01       		.uleb128 0x1
 918 004e 13       		.uleb128 0x13
 919 004f 00       		.byte	0
 920 0050 00       		.byte	0
 921 0051 08       		.uleb128 0x8
 922 0052 05       		.uleb128 0x5
 923 0053 00       		.byte	0
 924 0054 49       		.uleb128 0x49
 925 0055 13       		.uleb128 0x13
 926 0056 00       		.byte	0
 927 0057 00       		.byte	0
 928 0058 09       		.uleb128 0x9
 929 0059 13       		.uleb128 0x13
 930 005a 01       		.byte	0x1
 931 005b 03       		.uleb128 0x3
 932 005c 0E       		.uleb128 0xe
 933 005d 0B       		.uleb128 0xb
 934 005e 0B       		.uleb128 0xb
 935 005f 3A       		.uleb128 0x3a
 936 0060 0B       		.uleb128 0xb
 937 0061 3B       		.uleb128 0x3b
 938 0062 0B       		.uleb128 0xb
 939 0063 01       		.uleb128 0x1
 940 0064 13       		.uleb128 0x13
 941 0065 00       		.byte	0
 942 0066 00       		.byte	0
 943 0067 0A       		.uleb128 0xa
 944 0068 0D       		.uleb128 0xd
 945 0069 00       		.byte	0
 946 006a 03       		.uleb128 0x3
 947 006b 0E       		.uleb128 0xe
 948 006c 3A       		.uleb128 0x3a
 949 006d 0B       		.uleb128 0xb
 950 006e 3B       		.uleb128 0x3b
 951 006f 0B       		.uleb128 0xb
 952 0070 49       		.uleb128 0x49
 953 0071 13       		.uleb128 0x13
 954 0072 38       		.uleb128 0x38
 955 0073 0B       		.uleb128 0xb
 956 0074 00       		.byte	0
 957 0075 00       		.byte	0
 958 0076 0B       		.uleb128 0xb
 959 0077 13       		.uleb128 0x13
 960 0078 01       		.byte	0x1
 961 0079 0B       		.uleb128 0xb
 962 007a 0B       		.uleb128 0xb
 963 007b 3A       		.uleb128 0x3a
 964 007c 0B       		.uleb128 0xb
 965 007d 3B       		.uleb128 0x3b
 966 007e 0B       		.uleb128 0xb
 967 007f 01       		.uleb128 0x1
 968 0080 13       		.uleb128 0x13
 969 0081 00       		.byte	0
ARM GAS  /var/folders/6q/x_mk5n_j3p7_c40r_2k_78980000gn/T//ccRCRQTs.s 			page 18


 970 0082 00       		.byte	0
 971 0083 0C       		.uleb128 0xc
 972 0084 2E       		.uleb128 0x2e
 973 0085 01       		.byte	0x1
 974 0086 3F       		.uleb128 0x3f
 975 0087 19       		.uleb128 0x19
 976 0088 03       		.uleb128 0x3
 977 0089 0E       		.uleb128 0xe
 978 008a 3A       		.uleb128 0x3a
 979 008b 0B       		.uleb128 0xb
 980 008c 3B       		.uleb128 0x3b
 981 008d 0B       		.uleb128 0xb
 982 008e 27       		.uleb128 0x27
 983 008f 19       		.uleb128 0x19
 984 0090 49       		.uleb128 0x49
 985 0091 13       		.uleb128 0x13
 986 0092 20       		.uleb128 0x20
 987 0093 0B       		.uleb128 0xb
 988 0094 01       		.uleb128 0x1
 989 0095 13       		.uleb128 0x13
 990 0096 00       		.byte	0
 991 0097 00       		.byte	0
 992 0098 0D       		.uleb128 0xd
 993 0099 05       		.uleb128 0x5
 994 009a 00       		.byte	0
 995 009b 03       		.uleb128 0x3
 996 009c 08       		.uleb128 0x8
 997 009d 3A       		.uleb128 0x3a
 998 009e 0B       		.uleb128 0xb
 999 009f 3B       		.uleb128 0x3b
 1000 00a0 0B       		.uleb128 0xb
 1001 00a1 49       		.uleb128 0x49
 1002 00a2 13       		.uleb128 0x13
 1003 00a3 00       		.byte	0
 1004 00a4 00       		.byte	0
 1005 00a5 0E       		.uleb128 0xe
 1006 00a6 34       		.uleb128 0x34
 1007 00a7 00       		.byte	0
 1008 00a8 03       		.uleb128 0x3
 1009 00a9 0E       		.uleb128 0xe
 1010 00aa 3A       		.uleb128 0x3a
 1011 00ab 0B       		.uleb128 0xb
 1012 00ac 3B       		.uleb128 0x3b
 1013 00ad 0B       		.uleb128 0xb
 1014 00ae 49       		.uleb128 0x49
 1015 00af 13       		.uleb128 0x13
 1016 00b0 00       		.byte	0
 1017 00b1 00       		.byte	0
 1018 00b2 0F       		.uleb128 0xf
 1019 00b3 2E       		.uleb128 0x2e
 1020 00b4 01       		.byte	0x1
 1021 00b5 3F       		.uleb128 0x3f
 1022 00b6 19       		.uleb128 0x19
 1023 00b7 03       		.uleb128 0x3
 1024 00b8 0E       		.uleb128 0xe
 1025 00b9 3A       		.uleb128 0x3a
 1026 00ba 0B       		.uleb128 0xb
ARM GAS  /var/folders/6q/x_mk5n_j3p7_c40r_2k_78980000gn/T//ccRCRQTs.s 			page 19


 1027 00bb 3B       		.uleb128 0x3b
 1028 00bc 0B       		.uleb128 0xb
 1029 00bd 27       		.uleb128 0x27
 1030 00be 19       		.uleb128 0x19
 1031 00bf 20       		.uleb128 0x20
 1032 00c0 0B       		.uleb128 0xb
 1033 00c1 01       		.uleb128 0x1
 1034 00c2 13       		.uleb128 0x13
 1035 00c3 00       		.byte	0
 1036 00c4 00       		.byte	0
 1037 00c5 10       		.uleb128 0x10
 1038 00c6 05       		.uleb128 0x5
 1039 00c7 00       		.byte	0
 1040 00c8 03       		.uleb128 0x3
 1041 00c9 0E       		.uleb128 0xe
 1042 00ca 3A       		.uleb128 0x3a
 1043 00cb 0B       		.uleb128 0xb
 1044 00cc 3B       		.uleb128 0x3b
 1045 00cd 0B       		.uleb128 0xb
 1046 00ce 49       		.uleb128 0x49
 1047 00cf 13       		.uleb128 0x13
 1048 00d0 00       		.byte	0
 1049 00d1 00       		.byte	0
 1050 00d2 11       		.uleb128 0x11
 1051 00d3 34       		.uleb128 0x34
 1052 00d4 00       		.byte	0
 1053 00d5 03       		.uleb128 0x3
 1054 00d6 08       		.uleb128 0x8
 1055 00d7 3A       		.uleb128 0x3a
 1056 00d8 0B       		.uleb128 0xb
 1057 00d9 3B       		.uleb128 0x3b
 1058 00da 0B       		.uleb128 0xb
 1059 00db 49       		.uleb128 0x49
 1060 00dc 13       		.uleb128 0x13
 1061 00dd 00       		.byte	0
 1062 00de 00       		.byte	0
 1063 00df 12       		.uleb128 0x12
 1064 00e0 0B       		.uleb128 0xb
 1065 00e1 01       		.byte	0x1
 1066 00e2 01       		.uleb128 0x1
 1067 00e3 13       		.uleb128 0x13
 1068 00e4 00       		.byte	0
 1069 00e5 00       		.byte	0
 1070 00e6 13       		.uleb128 0x13
 1071 00e7 0B       		.uleb128 0xb
 1072 00e8 01       		.byte	0x1
 1073 00e9 00       		.byte	0
 1074 00ea 00       		.byte	0
 1075 00eb 14       		.uleb128 0x14
 1076 00ec 2E       		.uleb128 0x2e
 1077 00ed 01       		.byte	0x1
 1078 00ee 3F       		.uleb128 0x3f
 1079 00ef 19       		.uleb128 0x19
 1080 00f0 03       		.uleb128 0x3
 1081 00f1 0E       		.uleb128 0xe
 1082 00f2 3A       		.uleb128 0x3a
 1083 00f3 0B       		.uleb128 0xb
ARM GAS  /var/folders/6q/x_mk5n_j3p7_c40r_2k_78980000gn/T//ccRCRQTs.s 			page 20


 1084 00f4 3B       		.uleb128 0x3b
 1085 00f5 0B       		.uleb128 0xb
 1086 00f6 27       		.uleb128 0x27
 1087 00f7 19       		.uleb128 0x19
 1088 00f8 11       		.uleb128 0x11
 1089 00f9 01       		.uleb128 0x1
 1090 00fa 12       		.uleb128 0x12
 1091 00fb 06       		.uleb128 0x6
 1092 00fc 40       		.uleb128 0x40
 1093 00fd 18       		.uleb128 0x18
 1094 00fe 9742     		.uleb128 0x2117
 1095 0100 19       		.uleb128 0x19
 1096 0101 01       		.uleb128 0x1
 1097 0102 13       		.uleb128 0x13
 1098 0103 00       		.byte	0
 1099 0104 00       		.byte	0
 1100 0105 15       		.uleb128 0x15
 1101 0106 05       		.uleb128 0x5
 1102 0107 00       		.byte	0
 1103 0108 03       		.uleb128 0x3
 1104 0109 08       		.uleb128 0x8
 1105 010a 3A       		.uleb128 0x3a
 1106 010b 0B       		.uleb128 0xb
 1107 010c 3B       		.uleb128 0x3b
 1108 010d 0B       		.uleb128 0xb
 1109 010e 49       		.uleb128 0x49
 1110 010f 13       		.uleb128 0x13
 1111 0110 02       		.uleb128 0x2
 1112 0111 18       		.uleb128 0x18
 1113 0112 00       		.byte	0
 1114 0113 00       		.byte	0
 1115 0114 16       		.uleb128 0x16
 1116 0115 05       		.uleb128 0x5
 1117 0116 00       		.byte	0
 1118 0117 03       		.uleb128 0x3
 1119 0118 0E       		.uleb128 0xe
 1120 0119 3A       		.uleb128 0x3a
 1121 011a 0B       		.uleb128 0xb
 1122 011b 3B       		.uleb128 0x3b
 1123 011c 0B       		.uleb128 0xb
 1124 011d 49       		.uleb128 0x49
 1125 011e 13       		.uleb128 0x13
 1126 011f 02       		.uleb128 0x2
 1127 0120 18       		.uleb128 0x18
 1128 0121 00       		.byte	0
 1129 0122 00       		.byte	0
 1130 0123 17       		.uleb128 0x17
 1131 0124 05       		.uleb128 0x5
 1132 0125 00       		.byte	0
 1133 0126 03       		.uleb128 0x3
 1134 0127 08       		.uleb128 0x8
 1135 0128 3A       		.uleb128 0x3a
 1136 0129 0B       		.uleb128 0xb
 1137 012a 3B       		.uleb128 0x3b
 1138 012b 0B       		.uleb128 0xb
 1139 012c 49       		.uleb128 0x49
 1140 012d 13       		.uleb128 0x13
ARM GAS  /var/folders/6q/x_mk5n_j3p7_c40r_2k_78980000gn/T//ccRCRQTs.s 			page 21


 1141 012e 02       		.uleb128 0x2
 1142 012f 17       		.uleb128 0x17
 1143 0130 00       		.byte	0
 1144 0131 00       		.byte	0
 1145 0132 18       		.uleb128 0x18
 1146 0133 1D       		.uleb128 0x1d
 1147 0134 01       		.byte	0x1
 1148 0135 31       		.uleb128 0x31
 1149 0136 13       		.uleb128 0x13
 1150 0137 11       		.uleb128 0x11
 1151 0138 01       		.uleb128 0x1
 1152 0139 12       		.uleb128 0x12
 1153 013a 06       		.uleb128 0x6
 1154 013b 58       		.uleb128 0x58
 1155 013c 0B       		.uleb128 0xb
 1156 013d 59       		.uleb128 0x59
 1157 013e 0B       		.uleb128 0xb
 1158 013f 00       		.byte	0
 1159 0140 00       		.byte	0
 1160 0141 19       		.uleb128 0x19
 1161 0142 05       		.uleb128 0x5
 1162 0143 00       		.byte	0
 1163 0144 31       		.uleb128 0x31
 1164 0145 13       		.uleb128 0x13
 1165 0146 02       		.uleb128 0x2
 1166 0147 17       		.uleb128 0x17
 1167 0148 00       		.byte	0
 1168 0149 00       		.byte	0
 1169 014a 1A       		.uleb128 0x1a
 1170 014b 0B       		.uleb128 0xb
 1171 014c 01       		.byte	0x1
 1172 014d 11       		.uleb128 0x11
 1173 014e 01       		.uleb128 0x1
 1174 014f 12       		.uleb128 0x12
 1175 0150 06       		.uleb128 0x6
 1176 0151 01       		.uleb128 0x1
 1177 0152 13       		.uleb128 0x13
 1178 0153 00       		.byte	0
 1179 0154 00       		.byte	0
 1180 0155 1B       		.uleb128 0x1b
 1181 0156 34       		.uleb128 0x34
 1182 0157 00       		.byte	0
 1183 0158 31       		.uleb128 0x31
 1184 0159 13       		.uleb128 0x13
 1185 015a 02       		.uleb128 0x2
 1186 015b 18       		.uleb128 0x18
 1187 015c 00       		.byte	0
 1188 015d 00       		.byte	0
 1189 015e 1C       		.uleb128 0x1c
 1190 015f 1D       		.uleb128 0x1d
 1191 0160 01       		.byte	0x1
 1192 0161 31       		.uleb128 0x31
 1193 0162 13       		.uleb128 0x13
 1194 0163 52       		.uleb128 0x52
 1195 0164 01       		.uleb128 0x1
 1196 0165 55       		.uleb128 0x55
 1197 0166 17       		.uleb128 0x17
ARM GAS  /var/folders/6q/x_mk5n_j3p7_c40r_2k_78980000gn/T//ccRCRQTs.s 			page 22


 1198 0167 58       		.uleb128 0x58
 1199 0168 0B       		.uleb128 0xb
 1200 0169 59       		.uleb128 0x59
 1201 016a 0B       		.uleb128 0xb
 1202 016b 01       		.uleb128 0x1
 1203 016c 13       		.uleb128 0x13
 1204 016d 00       		.byte	0
 1205 016e 00       		.byte	0
 1206 016f 1D       		.uleb128 0x1d
 1207 0170 0B       		.uleb128 0xb
 1208 0171 01       		.byte	0x1
 1209 0172 55       		.uleb128 0x55
 1210 0173 17       		.uleb128 0x17
 1211 0174 00       		.byte	0
 1212 0175 00       		.byte	0
 1213 0176 1E       		.uleb128 0x1e
 1214 0177 34       		.uleb128 0x34
 1215 0178 00       		.byte	0
 1216 0179 31       		.uleb128 0x31
 1217 017a 13       		.uleb128 0x13
 1218 017b 02       		.uleb128 0x2
 1219 017c 17       		.uleb128 0x17
 1220 017d 00       		.byte	0
 1221 017e 00       		.byte	0
 1222 017f 1F       		.uleb128 0x1f
 1223 0180 2E       		.uleb128 0x2e
 1224 0181 01       		.byte	0x1
 1225 0182 31       		.uleb128 0x31
 1226 0183 13       		.uleb128 0x13
 1227 0184 11       		.uleb128 0x11
 1228 0185 01       		.uleb128 0x1
 1229 0186 12       		.uleb128 0x12
 1230 0187 06       		.uleb128 0x6
 1231 0188 40       		.uleb128 0x40
 1232 0189 18       		.uleb128 0x18
 1233 018a 01       		.uleb128 0x1
 1234 018b 13       		.uleb128 0x13
 1235 018c 00       		.byte	0
 1236 018d 00       		.byte	0
 1237 018e 20       		.uleb128 0x20
 1238 018f 2E       		.uleb128 0x2e
 1239 0190 01       		.byte	0x1
 1240 0191 3F       		.uleb128 0x3f
 1241 0192 19       		.uleb128 0x19
 1242 0193 03       		.uleb128 0x3
 1243 0194 0E       		.uleb128 0xe
 1244 0195 3A       		.uleb128 0x3a
 1245 0196 0B       		.uleb128 0xb
 1246 0197 3B       		.uleb128 0x3b
 1247 0198 0B       		.uleb128 0xb
 1248 0199 27       		.uleb128 0x27
 1249 019a 19       		.uleb128 0x19
 1250 019b 49       		.uleb128 0x49
 1251 019c 13       		.uleb128 0x13
 1252 019d 11       		.uleb128 0x11
 1253 019e 01       		.uleb128 0x1
 1254 019f 12       		.uleb128 0x12
ARM GAS  /var/folders/6q/x_mk5n_j3p7_c40r_2k_78980000gn/T//ccRCRQTs.s 			page 23


 1255 01a0 06       		.uleb128 0x6
 1256 01a1 40       		.uleb128 0x40
 1257 01a2 18       		.uleb128 0x18
 1258 01a3 9642     		.uleb128 0x2116
 1259 01a5 19       		.uleb128 0x19
 1260 01a6 01       		.uleb128 0x1
 1261 01a7 13       		.uleb128 0x13
 1262 01a8 00       		.byte	0
 1263 01a9 00       		.byte	0
 1264 01aa 21       		.uleb128 0x21
 1265 01ab 34       		.uleb128 0x34
 1266 01ac 00       		.byte	0
 1267 01ad 03       		.uleb128 0x3
 1268 01ae 0E       		.uleb128 0xe
 1269 01af 3A       		.uleb128 0x3a
 1270 01b0 0B       		.uleb128 0xb
 1271 01b1 3B       		.uleb128 0x3b
 1272 01b2 0B       		.uleb128 0xb
 1273 01b3 49       		.uleb128 0x49
 1274 01b4 13       		.uleb128 0x13
 1275 01b5 02       		.uleb128 0x2
 1276 01b6 18       		.uleb128 0x18
 1277 01b7 00       		.byte	0
 1278 01b8 00       		.byte	0
 1279 01b9 22       		.uleb128 0x22
 1280 01ba 34       		.uleb128 0x34
 1281 01bb 00       		.byte	0
 1282 01bc 03       		.uleb128 0x3
 1283 01bd 08       		.uleb128 0x8
 1284 01be 3A       		.uleb128 0x3a
 1285 01bf 0B       		.uleb128 0xb
 1286 01c0 3B       		.uleb128 0x3b
 1287 01c1 0B       		.uleb128 0xb
 1288 01c2 49       		.uleb128 0x49
 1289 01c3 13       		.uleb128 0x13
 1290 01c4 02       		.uleb128 0x2
 1291 01c5 18       		.uleb128 0x18
 1292 01c6 00       		.byte	0
 1293 01c7 00       		.byte	0
 1294 01c8 23       		.uleb128 0x23
 1295 01c9 2E       		.uleb128 0x2e
 1296 01ca 01       		.byte	0x1
 1297 01cb 31       		.uleb128 0x31
 1298 01cc 13       		.uleb128 0x13
 1299 01cd 11       		.uleb128 0x11
 1300 01ce 01       		.uleb128 0x1
 1301 01cf 12       		.uleb128 0x12
 1302 01d0 06       		.uleb128 0x6
 1303 01d1 40       		.uleb128 0x40
 1304 01d2 18       		.uleb128 0x18
 1305 01d3 9742     		.uleb128 0x2117
 1306 01d5 19       		.uleb128 0x19
 1307 01d6 01       		.uleb128 0x1
 1308 01d7 13       		.uleb128 0x13
 1309 01d8 00       		.byte	0
 1310 01d9 00       		.byte	0
 1311 01da 24       		.uleb128 0x24
ARM GAS  /var/folders/6q/x_mk5n_j3p7_c40r_2k_78980000gn/T//ccRCRQTs.s 			page 24


 1312 01db 05       		.uleb128 0x5
 1313 01dc 00       		.byte	0
 1314 01dd 31       		.uleb128 0x31
 1315 01de 13       		.uleb128 0x13
 1316 01df 02       		.uleb128 0x2
 1317 01e0 18       		.uleb128 0x18
 1318 01e1 00       		.byte	0
 1319 01e2 00       		.byte	0
 1320 01e3 25       		.uleb128 0x25
 1321 01e4 2E       		.uleb128 0x2e
 1322 01e5 01       		.byte	0x1
 1323 01e6 31       		.uleb128 0x31
 1324 01e7 13       		.uleb128 0x13
 1325 01e8 11       		.uleb128 0x11
 1326 01e9 01       		.uleb128 0x1
 1327 01ea 12       		.uleb128 0x12
 1328 01eb 06       		.uleb128 0x6
 1329 01ec 40       		.uleb128 0x40
 1330 01ed 18       		.uleb128 0x18
 1331 01ee 9742     		.uleb128 0x2117
 1332 01f0 19       		.uleb128 0x19
 1333 01f1 00       		.byte	0
 1334 01f2 00       		.byte	0
 1335 01f3 00       		.byte	0
 1336              		.section	.debug_loc,"",%progbits
 1337              	.Ldebug_loc0:
 1338              	.LLST0:
 1339 0000 00000000 		.4byte	.LVL1
 1340 0004 1C000000 		.4byte	.LVL7
 1341 0008 0100     		.2byte	0x1
 1342 000a 51       		.byte	0x51
 1343 000b 1C000000 		.4byte	.LVL7
 1344 000f 22000000 		.4byte	.LFE8
 1345 0013 0100     		.2byte	0x1
 1346 0015 51       		.byte	0x51
 1347 0016 00000000 		.4byte	0
 1348 001a 00000000 		.4byte	0
 1349              	.LLST1:
 1350 001e 00000000 		.4byte	.LVL1
 1351 0022 04000000 		.4byte	.LVL2
 1352 0026 0100     		.2byte	0x1
 1353 0028 52       		.byte	0x52
 1354 0029 04000000 		.4byte	.LVL2
 1355 002d 1A000000 		.4byte	.LVL6
 1356 0031 0100     		.2byte	0x1
 1357 0033 52       		.byte	0x52
 1358 0034 1A000000 		.4byte	.LVL6
 1359 0038 1C000000 		.4byte	.LVL7
 1360 003c 0300     		.2byte	0x3
 1361 003e 72       		.byte	0x72
 1362 003f 01       		.sleb128 1
 1363 0040 9F       		.byte	0x9f
 1364 0041 00000000 		.4byte	0
 1365 0045 00000000 		.4byte	0
 1366              	.LLST2:
 1367 0049 04000000 		.4byte	.LVL2
 1368 004d 16000000 		.4byte	.LVL5
ARM GAS  /var/folders/6q/x_mk5n_j3p7_c40r_2k_78980000gn/T//ccRCRQTs.s 			page 25


 1369 0051 0100     		.2byte	0x1
 1370 0053 51       		.byte	0x51
 1371 0054 00000000 		.4byte	0
 1372 0058 00000000 		.4byte	0
 1373              	.LLST3:
 1374 005c 04000000 		.4byte	.LVL2
 1375 0060 16000000 		.4byte	.LVL5
 1376 0064 0100     		.2byte	0x1
 1377 0066 50       		.byte	0x50
 1378 0067 00000000 		.4byte	0
 1379 006b 00000000 		.4byte	0
 1380              	.LLST4:
 1381 006f 0A000000 		.4byte	.LVL3
 1382 0073 12000000 		.4byte	.LVL4
 1383 0077 0100     		.2byte	0x1
 1384 0079 51       		.byte	0x51
 1385 007a 00000000 		.4byte	0
 1386 007e 00000000 		.4byte	0
 1387              	.LLST5:
 1388 0082 0A000000 		.4byte	.LVL3
 1389 0086 12000000 		.4byte	.LVL4
 1390 008a 0100     		.2byte	0x1
 1391 008c 50       		.byte	0x50
 1392 008d 00000000 		.4byte	0
 1393 0091 00000000 		.4byte	0
 1394              	.LLST6:
 1395 0095 0A000000 		.4byte	.LVL3
 1396 0099 1C000000 		.4byte	.LVL7
 1397 009d 0100     		.2byte	0x1
 1398 009f 51       		.byte	0x51
 1399 00a0 1C000000 		.4byte	.LVL7
 1400 00a4 20000000 		.4byte	.LVL8
 1401 00a8 0200     		.2byte	0x2
 1402 00aa 70       		.byte	0x70
 1403 00ab 00       		.sleb128 0
 1404 00ac 00000000 		.4byte	0
 1405 00b0 00000000 		.4byte	0
 1406              	.LLST7:
 1407 00b4 00000000 		.4byte	.LVL9
 1408 00b8 0A000000 		.4byte	.LVL11
 1409 00bc 0100     		.2byte	0x1
 1410 00be 50       		.byte	0x50
 1411 00bf 0A000000 		.4byte	.LVL11
 1412 00c3 0C000000 		.4byte	.LVL12
 1413 00c7 0400     		.2byte	0x4
 1414 00c9 F3       		.byte	0xf3
 1415 00ca 01       		.uleb128 0x1
 1416 00cb 50       		.byte	0x50
 1417 00cc 9F       		.byte	0x9f
 1418 00cd 0C000000 		.4byte	.LVL12
 1419 00d1 14000000 		.4byte	.LVL13
 1420 00d5 0100     		.2byte	0x1
 1421 00d7 50       		.byte	0x50
 1422 00d8 14000000 		.4byte	.LVL13
 1423 00dc 16000000 		.4byte	.LFE9
 1424 00e0 0400     		.2byte	0x4
 1425 00e2 F3       		.byte	0xf3
ARM GAS  /var/folders/6q/x_mk5n_j3p7_c40r_2k_78980000gn/T//ccRCRQTs.s 			page 26


 1426 00e3 01       		.uleb128 0x1
 1427 00e4 50       		.byte	0x50
 1428 00e5 9F       		.byte	0x9f
 1429 00e6 00000000 		.4byte	0
 1430 00ea 00000000 		.4byte	0
 1431              	.LLST8:
 1432 00ee 02000000 		.4byte	.LVL10
 1433 00f2 15000000 		.4byte	.LVL14-1
 1434 00f6 0100     		.2byte	0x1
 1435 00f8 53       		.byte	0x53
 1436 00f9 00000000 		.4byte	0
 1437 00fd 00000000 		.4byte	0
 1438              	.LLST9:
 1439 0101 00000000 		.4byte	.LVL15
 1440 0105 0C000000 		.4byte	.LVL17
 1441 0109 0100     		.2byte	0x1
 1442 010b 50       		.byte	0x50
 1443 010c 0C000000 		.4byte	.LVL17
 1444 0110 23000000 		.4byte	.LVL21-1
 1445 0114 0100     		.2byte	0x1
 1446 0116 52       		.byte	0x52
 1447 0117 23000000 		.4byte	.LVL21-1
 1448 011b 2C000000 		.4byte	.LFE10
 1449 011f 0400     		.2byte	0x4
 1450 0121 F3       		.byte	0xf3
 1451 0122 01       		.uleb128 0x1
 1452 0123 50       		.byte	0x50
 1453 0124 9F       		.byte	0x9f
 1454 0125 00000000 		.4byte	0
 1455 0129 00000000 		.4byte	0
 1456              	.LLST10:
 1457 012d 0A000000 		.4byte	.LVL16
 1458 0131 0C000000 		.4byte	.LVL17
 1459 0135 0100     		.2byte	0x1
 1460 0137 50       		.byte	0x50
 1461 0138 0C000000 		.4byte	.LVL17
 1462 013c 12000000 		.4byte	.LVL18
 1463 0140 0100     		.2byte	0x1
 1464 0142 52       		.byte	0x52
 1465 0143 1A000000 		.4byte	.LVL19
 1466 0147 23000000 		.4byte	.LVL21-1
 1467 014b 0100     		.2byte	0x1
 1468 014d 52       		.byte	0x52
 1469 014e 23000000 		.4byte	.LVL21-1
 1470 0152 24000000 		.4byte	.LVL21
 1471 0156 0400     		.2byte	0x4
 1472 0158 F3       		.byte	0xf3
 1473 0159 01       		.uleb128 0x1
 1474 015a 50       		.byte	0x50
 1475 015b 9F       		.byte	0x9f
 1476 015c 00000000 		.4byte	0
 1477 0160 00000000 		.4byte	0
 1478              	.LLST11:
 1479 0164 0C000000 		.4byte	.LVL17
 1480 0168 12000000 		.4byte	.LVL18
 1481 016c 0100     		.2byte	0x1
 1482 016e 50       		.byte	0x50
ARM GAS  /var/folders/6q/x_mk5n_j3p7_c40r_2k_78980000gn/T//ccRCRQTs.s 			page 27


 1483 016f 1A000000 		.4byte	.LVL19
 1484 0173 22000000 		.4byte	.LVL20
 1485 0177 0100     		.2byte	0x1
 1486 0179 50       		.byte	0x50
 1487 017a 22000000 		.4byte	.LVL20
 1488 017e 23000000 		.4byte	.LVL21-1
 1489 0182 0200     		.2byte	0x2
 1490 0184 72       		.byte	0x72
 1491 0185 00       		.sleb128 0
 1492 0186 00000000 		.4byte	0
 1493 018a 00000000 		.4byte	0
 1494              	.LLST12:
 1495 018e 06000000 		.4byte	.LVL24
 1496 0192 0E000000 		.4byte	.LVL25
 1497 0196 0100     		.2byte	0x1
 1498 0198 51       		.byte	0x51
 1499 0199 00000000 		.4byte	0
 1500 019d 00000000 		.4byte	0
 1501              	.LLST13:
 1502 01a1 06000000 		.4byte	.LVL24
 1503 01a5 0E000000 		.4byte	.LVL25
 1504 01a9 0100     		.2byte	0x1
 1505 01ab 50       		.byte	0x50
 1506 01ac 00000000 		.4byte	0
 1507 01b0 00000000 		.4byte	0
 1508              		.section	.debug_aranges,"",%progbits
 1509 0000 44000000 		.4byte	0x44
 1510 0004 0200     		.2byte	0x2
 1511 0006 00000000 		.4byte	.Ldebug_info0
 1512 000a 04       		.byte	0x4
 1513 000b 00       		.byte	0
 1514 000c 0000     		.2byte	0
 1515 000e 0000     		.2byte	0
 1516 0010 00000000 		.4byte	.LFB7
 1517 0014 0A000000 		.4byte	.LFE7-.LFB7
 1518 0018 00000000 		.4byte	.LFB8
 1519 001c 22000000 		.4byte	.LFE8-.LFB8
 1520 0020 00000000 		.4byte	.LFB9
 1521 0024 16000000 		.4byte	.LFE9-.LFB9
 1522 0028 00000000 		.4byte	.LFB10
 1523 002c 2C000000 		.4byte	.LFE10-.LFB10
 1524 0030 00000000 		.4byte	.LFB11
 1525 0034 08000000 		.4byte	.LFE11-.LFB11
 1526 0038 00000000 		.4byte	.LFB12
 1527 003c 14000000 		.4byte	.LFE12-.LFB12
 1528 0040 00000000 		.4byte	0
 1529 0044 00000000 		.4byte	0
 1530              		.section	.debug_ranges,"",%progbits
 1531              	.Ldebug_ranges0:
 1532 0000 0A000000 		.4byte	.LBB18
 1533 0004 0C000000 		.4byte	.LBE18
 1534 0008 0E000000 		.4byte	.LBB22
 1535 000c 12000000 		.4byte	.LBE22
 1536 0010 00000000 		.4byte	0
 1537 0014 00000000 		.4byte	0
 1538 0018 0C000000 		.4byte	.LBB21
 1539 001c 0E000000 		.4byte	.LBE21
ARM GAS  /var/folders/6q/x_mk5n_j3p7_c40r_2k_78980000gn/T//ccRCRQTs.s 			page 28


 1540 0020 12000000 		.4byte	.LBB23
 1541 0024 16000000 		.4byte	.LBE23
 1542 0028 00000000 		.4byte	0
 1543 002c 00000000 		.4byte	0
 1544 0030 0A000000 		.4byte	.LBB25
 1545 0034 12000000 		.4byte	.LBE25
 1546 0038 1A000000 		.4byte	.LBB29
 1547 003c 24000000 		.4byte	.LBE29
 1548 0040 00000000 		.4byte	0
 1549 0044 00000000 		.4byte	0
 1550 0048 12000000 		.4byte	.LBB28
 1551 004c 18000000 		.4byte	.LBE28
 1552 0050 24000000 		.4byte	.LBB30
 1553 0054 2A000000 		.4byte	.LBE30
 1554 0058 00000000 		.4byte	0
 1555 005c 00000000 		.4byte	0
 1556 0060 06000000 		.4byte	.LBB32
 1557 0064 08000000 		.4byte	.LBE32
 1558 0068 0A000000 		.4byte	.LBB36
 1559 006c 0E000000 		.4byte	.LBE36
 1560 0070 00000000 		.4byte	0
 1561 0074 00000000 		.4byte	0
 1562 0078 08000000 		.4byte	.LBB35
 1563 007c 0A000000 		.4byte	.LBE35
 1564 0080 0E000000 		.4byte	.LBB37
 1565 0084 14000000 		.4byte	.LBE37
 1566 0088 00000000 		.4byte	0
 1567 008c 00000000 		.4byte	0
 1568 0090 00000000 		.4byte	.LFB7
 1569 0094 0A000000 		.4byte	.LFE7
 1570 0098 00000000 		.4byte	.LFB8
 1571 009c 22000000 		.4byte	.LFE8
 1572 00a0 00000000 		.4byte	.LFB9
 1573 00a4 16000000 		.4byte	.LFE9
 1574 00a8 00000000 		.4byte	.LFB10
 1575 00ac 2C000000 		.4byte	.LFE10
 1576 00b0 00000000 		.4byte	.LFB11
 1577 00b4 08000000 		.4byte	.LFE11
 1578 00b8 00000000 		.4byte	.LFB12
 1579 00bc 14000000 		.4byte	.LFE12
 1580 00c0 00000000 		.4byte	0
 1581 00c4 00000000 		.4byte	0
 1582              		.section	.debug_line,"",%progbits
 1583              	.Ldebug_line0:
 1584 0000 57020000 		.section	.debug_str,"MS",%progbits,1
 1584      0200AC01 
 1584      00000201 
 1584      FB0E0D00 
 1584      01010101 
 1585              	.LASF5:
 1586 0000 5F5F7569 		.ascii	"__uint8_t\000"
 1586      6E74385F 
 1586      7400
 1587              	.LASF4:
 1588 000a 73697A65 		.ascii	"size_t\000"
 1588      5F7400
 1589              	.LASF20:
ARM GAS  /var/folders/6q/x_mk5n_j3p7_c40r_2k_78980000gn/T//ccRCRQTs.s 			page 29


 1590 0011 6D705F6F 		.ascii	"mp_object_size\000"
 1590      626A6563 
 1590      745F7369 
 1590      7A6500
 1591              	.LASF30:
 1592 0020 6368506F 		.ascii	"chPoolLoadArray\000"
 1592      6F6C4C6F 
 1592      61644172 
 1592      72617900 
 1593              	.LASF34:
 1594 0030 706F6F6C 		.ascii	"pool_header\000"
 1594      5F686561 
 1594      64657200 
 1595              	.LASF32:
 1596 003c 2E2E2F43 		.ascii	"../ChibiOS/os/kernel/src/chmempools.c\000"
 1596      68696269 
 1596      4F532F6F 
 1596      732F6B65 
 1596      726E656C 
 1597              	.LASF27:
 1598 0062 73697A65 		.ascii	"size\000"
 1598      00
 1599              	.LASF11:
 1600 0067 6C6F6E67 		.ascii	"long unsigned int\000"
 1600      20756E73 
 1600      69676E65 
 1600      6420696E 
 1600      7400
 1601              	.LASF8:
 1602 0079 73686F72 		.ascii	"short unsigned int\000"
 1602      7420756E 
 1602      7369676E 
 1602      65642069 
 1602      6E7400
 1603              	.LASF28:
 1604 008c 70726F76 		.ascii	"provider\000"
 1604      69646572 
 1604      00
 1605              	.LASF25:
 1606 0095 6368506F 		.ascii	"chPoolFreeI\000"
 1606      6F6C4672 
 1606      65654900 
 1607              	.LASF6:
 1608 00a1 756E7369 		.ascii	"unsigned char\000"
 1608      676E6564 
 1608      20636861 
 1608      7200
 1609              	.LASF10:
 1610 00af 5F5F7569 		.ascii	"__uint32_t\000"
 1610      6E743332 
 1610      5F7400
 1611              	.LASF26:
 1612 00ba 6368506F 		.ascii	"chPoolFree\000"
 1612      6F6C4672 
 1612      656500
 1613              	.LASF22:
 1614 00c5 4D656D6F 		.ascii	"MemoryPool\000"
ARM GAS  /var/folders/6q/x_mk5n_j3p7_c40r_2k_78980000gn/T//ccRCRQTs.s 			page 30


 1614      7279506F 
 1614      6F6C00
 1615              	.LASF24:
 1616 00d0 6F626A70 		.ascii	"objp\000"
 1616      00
 1617              	.LASF35:
 1618 00d5 6368506F 		.ascii	"chPoolAllocI\000"
 1618      6F6C416C 
 1618      6C6F6349 
 1618      00
 1619              	.LASF0:
 1620 00e2 756E7369 		.ascii	"unsigned int\000"
 1620      676E6564 
 1620      20696E74 
 1620      00
 1621              	.LASF12:
 1622 00ef 6C6F6E67 		.ascii	"long long unsigned int\000"
 1622      206C6F6E 
 1622      6720756E 
 1622      7369676E 
 1622      65642069 
 1623              	.LASF13:
 1624 0106 75696E74 		.ascii	"uint8_t\000"
 1624      385F7400 
 1625              	.LASF18:
 1626 010e 70685F6E 		.ascii	"ph_next\000"
 1626      65787400 
 1627              	.LASF31:
 1628 0116 474E5520 		.ascii	"GNU C11 5.4.1 20160919 (release) [ARM/embedded-5-br"
 1628      43313120 
 1628      352E342E 
 1628      31203230 
 1628      31363039 
 1629 0149 616E6368 		.ascii	"anch revision 240496] -mcpu=cortex-m3 -mno-thumb-in"
 1629      20726576 
 1629      6973696F 
 1629      6E203234 
 1629      30343936 
 1630 017c 74657277 		.ascii	"terwork -mthumb -ggdb -O2 -fomit-frame-pointer -fal"
 1630      6F726B20 
 1630      2D6D7468 
 1630      756D6220 
 1630      2D676764 
 1631 01af 69676E2D 		.ascii	"ign-functions=16 -ffunction-sections -fdata-section"
 1631      66756E63 
 1631      74696F6E 
 1631      733D3136 
 1631      202D6666 
 1632 01e2 73202D66 		.ascii	"s -fno-common\000"
 1632      6E6F2D63 
 1632      6F6D6D6F 
 1632      6E00
 1633              	.LASF16:
 1634 01f0 73697A65 		.ascii	"sizetype\000"
 1634      74797065 
 1634      00
 1635              	.LASF1:
ARM GAS  /var/folders/6q/x_mk5n_j3p7_c40r_2k_78980000gn/T//ccRCRQTs.s 			page 31


 1636 01f9 6C6F6E67 		.ascii	"long long int\000"
 1636      206C6F6E 
 1636      6720696E 
 1636      7400
 1637              	.LASF23:
 1638 0207 63686172 		.ascii	"char\000"
 1638      00
 1639              	.LASF17:
 1640 020c 6D656D67 		.ascii	"memgetfunc_t\000"
 1640      65746675 
 1640      6E635F74 
 1640      00
 1641              	.LASF21:
 1642 0219 6D705F70 		.ascii	"mp_provider\000"
 1642      726F7669 
 1642      64657200 
 1643              	.LASF7:
 1644 0225 73686F72 		.ascii	"short int\000"
 1644      7420696E 
 1644      7400
 1645              	.LASF36:
 1646 022f 6368506F 		.ascii	"chPoolAlloc\000"
 1646      6F6C416C 
 1646      6C6F6300 
 1647              	.LASF33:
 1648 023b 2F557365 		.ascii	"/Users/Luca/src/vexilla/src/teamA\000"
 1648      72732F4C 
 1648      7563612F 
 1648      7372632F 
 1648      76657869 
 1649              	.LASF14:
 1650 025d 75696E74 		.ascii	"uint32_t\000"
 1650      33325F74 
 1650      00
 1651              	.LASF9:
 1652 0266 6C6F6E67 		.ascii	"long int\000"
 1652      20696E74 
 1652      00
 1653              	.LASF2:
 1654 026f 6C6F6E67 		.ascii	"long double\000"
 1654      20646F75 
 1654      626C6500 
 1655              	.LASF3:
 1656 027b 7369676E 		.ascii	"signed char\000"
 1656      65642063 
 1656      68617200 
 1657              	.LASF19:
 1658 0287 6D705F6E 		.ascii	"mp_next\000"
 1658      65787400 
 1659              	.LASF15:
 1660 028f 5F426F6F 		.ascii	"_Bool\000"
 1660      6C00
 1661              	.LASF29:
 1662 0295 6368506F 		.ascii	"chPoolInit\000"
 1662      6F6C496E 
 1662      697400
 1663              		.ident	"GCC: (GNU Tools for ARM Embedded Processors) 5.4.1 20160919 (release) [ARM/embedded-5-bran
ARM GAS  /var/folders/6q/x_mk5n_j3p7_c40r_2k_78980000gn/T//ccRCRQTs.s 			page 32


ARM GAS  /var/folders/6q/x_mk5n_j3p7_c40r_2k_78980000gn/T//ccRCRQTs.s 			page 33


DEFINED SYMBOLS
                            *ABS*:0000000000000000 chmempools.c
/var/folders/6q/x_mk5n_j3p7_c40r_2k_78980000gn/T//ccRCRQTs.s:20     .text.chPoolInit:0000000000000000 $t
/var/folders/6q/x_mk5n_j3p7_c40r_2k_78980000gn/T//ccRCRQTs.s:26     .text.chPoolInit:0000000000000000 chPoolInit
/var/folders/6q/x_mk5n_j3p7_c40r_2k_78980000gn/T//ccRCRQTs.s:48     .text.chPoolLoadArray:0000000000000000 $t
/var/folders/6q/x_mk5n_j3p7_c40r_2k_78980000gn/T//ccRCRQTs.s:54     .text.chPoolLoadArray:0000000000000000 chPoolLoadArray
/var/folders/6q/x_mk5n_j3p7_c40r_2k_78980000gn/T//ccRCRQTs.s:133    .text.chPoolAllocI:0000000000000000 $t
/var/folders/6q/x_mk5n_j3p7_c40r_2k_78980000gn/T//ccRCRQTs.s:139    .text.chPoolAllocI:0000000000000000 chPoolAllocI
/var/folders/6q/x_mk5n_j3p7_c40r_2k_78980000gn/T//ccRCRQTs.s:174    .text.chPoolAlloc:0000000000000000 $t
/var/folders/6q/x_mk5n_j3p7_c40r_2k_78980000gn/T//ccRCRQTs.s:180    .text.chPoolAlloc:0000000000000000 chPoolAlloc
/var/folders/6q/x_mk5n_j3p7_c40r_2k_78980000gn/T//ccRCRQTs.s:260    .text.chPoolFreeI:0000000000000000 $t
/var/folders/6q/x_mk5n_j3p7_c40r_2k_78980000gn/T//ccRCRQTs.s:266    .text.chPoolFreeI:0000000000000000 chPoolFreeI
/var/folders/6q/x_mk5n_j3p7_c40r_2k_78980000gn/T//ccRCRQTs.s:284    .text.chPoolFree:0000000000000000 $t
/var/folders/6q/x_mk5n_j3p7_c40r_2k_78980000gn/T//ccRCRQTs.s:290    .text.chPoolFree:0000000000000000 chPoolFree
                     .debug_frame:0000000000000010 $d

NO UNDEFINED SYMBOLS
