ARM GAS  /var/folders/6q/x_mk5n_j3p7_c40r_2k_78980000gn/T//ccCQQSZ6.s 			page 1


   1              		.syntax unified
   2              		.cpu cortex-m3
   3              		.fpu softvfp
   4              		.eabi_attribute 20, 1
   5              		.eabi_attribute 21, 1
   6              		.eabi_attribute 23, 3
   7              		.eabi_attribute 24, 1
   8              		.eabi_attribute 25, 1
   9              		.eabi_attribute 26, 1
  10              		.eabi_attribute 30, 2
  11              		.eabi_attribute 34, 1
  12              		.eabi_attribute 18, 4
  13              		.thumb
  14              		.syntax unified
  15              		.file	"chmemcore.c"
  16              		.text
  17              	.Ltext0:
  18              		.cfi_sections	.debug_frame
  19              		.section	.text._core_init,"ax",%progbits
  20              		.align	2
  21              		.p2align 4,,15
  22              		.global	_core_init
  23              		.thumb
  24              		.thumb_func
  25              		.type	_core_init, %function
  26              	_core_init:
  27              	.LFB7:
  28              		.file 1 "../ChibiOS/os/kernel/src/chmemcore.c"
  29              		.loc 1 66 0
  30              		.cfi_startproc
  31              		@ args = 0, pretend = 0, frame = 0
  32              		@ frame_needed = 0, uses_anonymous_args = 0
  33              		@ link register save eliminated.
  34              		.loc 1 70 0
  35 0000 054A     		ldr	r2, .L2
  36              		.loc 1 71 0
  37 0002 064B     		ldr	r3, .L2+4
  38              		.loc 1 70 0
  39 0004 0648     		ldr	r0, .L2+8
  40              		.loc 1 71 0
  41 0006 0749     		ldr	r1, .L2+12
  42              		.loc 1 70 0
  43 0008 22F00702 		bic	r2, r2, #7
  44              		.loc 1 71 0
  45 000c 23F00703 		bic	r3, r3, #7
  46              		.loc 1 70 0
  47 0010 0260     		str	r2, [r0]
  48              		.loc 1 71 0
  49 0012 0B60     		str	r3, [r1]
  50 0014 7047     		bx	lr
  51              	.L3:
  52 0016 00BF     		.align	2
  53              	.L2:
  54 0018 07000000 		.word	__heap_base__+7
  55 001c 00000000 		.word	__heap_end__
  56 0020 00000000 		.word	.LANCHOR0
  57 0024 00000000 		.word	.LANCHOR1
ARM GAS  /var/folders/6q/x_mk5n_j3p7_c40r_2k_78980000gn/T//ccCQQSZ6.s 			page 2


  58              		.cfi_endproc
  59              	.LFE7:
  60              		.size	_core_init, .-_core_init
  61              		.section	.text.chCoreAlloc,"ax",%progbits
  62              		.align	2
  63              		.p2align 4,,15
  64              		.global	chCoreAlloc
  65              		.thumb
  66              		.thumb_func
  67              		.type	chCoreAlloc, %function
  68              	chCoreAlloc:
  69              	.LFB8:
  70              		.loc 1 91 0
  71              		.cfi_startproc
  72              		@ args = 0, pretend = 0, frame = 0
  73              		@ frame_needed = 0, uses_anonymous_args = 0
  74              		@ link register save eliminated.
  75              	.LVL0:
  76 0000 10B4     		push	{r4}
  77              		.cfi_def_cfa_offset 4
  78              		.cfi_offset 4, -4
  79              	.LBB6:
  80              		.loc 1 94 0
  81 0002 2023     		movs	r3, #32
  82              		.syntax unified
  83              	@ 94 "../ChibiOS/os/kernel/src/chmemcore.c" 1
  84 0004 83F31188 		msr     BASEPRI, r3
  85              	@ 0 "" 2
  86              	.LVL1:
  87              		.thumb
  88              		.syntax unified
  89              	.LBE6:
  90              	.LBB7:
  91              	.LBB8:
  92              		.loc 1 118 0
  93 0008 094C     		ldr	r4, .L9
  94 000a 0A4B     		ldr	r3, .L9+4
  95 000c 2268     		ldr	r2, [r4]
  96 000e 1968     		ldr	r1, [r3]
  97              		.loc 1 117 0
  98 0010 C31D     		adds	r3, r0, #7
  99 0012 23F00703 		bic	r3, r3, #7
 100              	.LVL2:
 101              		.loc 1 118 0
 102 0016 891A     		subs	r1, r1, r2
 103 0018 8B42     		cmp	r3, r1
 104              	.LVL3:
 105              		.loc 1 121 0
 106 001a 9DBF     		ittte	ls
 107 001c 9B18     		addls	r3, r3, r2
 108              	.LVL4:
 109 001e 2360     		strls	r3, [r4]
 110              		.loc 1 122 0
 111 0020 1046     		movls	r0, r2
 112              	.LVL5:
 113              		.loc 1 119 0
 114 0022 0020     		movhi	r0, #0
ARM GAS  /var/folders/6q/x_mk5n_j3p7_c40r_2k_78980000gn/T//ccCQQSZ6.s 			page 3


 115              	.LVL6:
 116              	.LBE8:
 117              	.LBE7:
 118              	.LBB9:
 119              		.loc 1 96 0
 120 0024 0023     		movs	r3, #0
 121              		.syntax unified
 122              	@ 96 "../ChibiOS/os/kernel/src/chmemcore.c" 1
 123 0026 83F31188 		msr     BASEPRI, r3
 124              	@ 0 "" 2
 125              		.thumb
 126              		.syntax unified
 127              	.LBE9:
 128              		.loc 1 98 0
 129 002a 10BC     		pop	{r4}
 130              		.cfi_restore 4
 131              		.cfi_def_cfa_offset 0
 132 002c 7047     		bx	lr
 133              	.L10:
 134 002e 00BF     		.align	2
 135              	.L9:
 136 0030 00000000 		.word	.LANCHOR0
 137 0034 00000000 		.word	.LANCHOR1
 138              		.cfi_endproc
 139              	.LFE8:
 140              		.size	chCoreAlloc, .-chCoreAlloc
 141              		.section	.text.chCoreAllocI,"ax",%progbits
 142              		.align	2
 143              		.p2align 4,,15
 144              		.global	chCoreAllocI
 145              		.thumb
 146              		.thumb_func
 147              		.type	chCoreAllocI, %function
 148              	chCoreAllocI:
 149              	.LFB9:
 150              		.loc 1 112 0
 151              		.cfi_startproc
 152              		@ args = 0, pretend = 0, frame = 0
 153              		@ frame_needed = 0, uses_anonymous_args = 0
 154              		@ link register save eliminated.
 155              	.LVL7:
 156 0000 10B4     		push	{r4}
 157              		.cfi_def_cfa_offset 4
 158              		.cfi_offset 4, -4
 159              		.loc 1 118 0
 160 0002 084B     		ldr	r3, .L15
 161 0004 084C     		ldr	r4, .L15+4
 162 0006 1968     		ldr	r1, [r3]
 163 0008 2268     		ldr	r2, [r4]
 164              		.loc 1 117 0
 165 000a 0730     		adds	r0, r0, #7
 166              	.LVL8:
 167 000c 20F00703 		bic	r3, r0, #7
 168              	.LVL9:
 169              		.loc 1 118 0
 170 0010 891A     		subs	r1, r1, r2
 171 0012 8B42     		cmp	r3, r1
ARM GAS  /var/folders/6q/x_mk5n_j3p7_c40r_2k_78980000gn/T//ccCQQSZ6.s 			page 4


 172              	.LVL10:
 173              		.loc 1 121 0
 174 0014 9DBF     		ittte	ls
 175 0016 9B18     		addls	r3, r3, r2
 176              	.LVL11:
 177 0018 2360     		strls	r3, [r4]
 178              		.loc 1 122 0
 179 001a 1046     		movls	r0, r2
 180              	.LVL12:
 181              		.loc 1 119 0
 182 001c 0020     		movhi	r0, #0
 183              		.loc 1 123 0
 184 001e 10BC     		pop	{r4}
 185              		.cfi_restore 4
 186              		.cfi_def_cfa_offset 0
 187 0020 7047     		bx	lr
 188              	.L16:
 189 0022 00BF     		.align	2
 190              	.L15:
 191 0024 00000000 		.word	.LANCHOR1
 192 0028 00000000 		.word	.LANCHOR0
 193              		.cfi_endproc
 194              	.LFE9:
 195              		.size	chCoreAllocI, .-chCoreAllocI
 196              		.section	.text.chCoreStatus,"ax",%progbits
 197              		.align	2
 198              		.p2align 4,,15
 199              		.global	chCoreStatus
 200              		.thumb
 201              		.thumb_func
 202              		.type	chCoreStatus, %function
 203              	chCoreStatus:
 204              	.LFB10:
 205              		.loc 1 132 0
 206              		.cfi_startproc
 207              		@ args = 0, pretend = 0, frame = 0
 208              		@ frame_needed = 0, uses_anonymous_args = 0
 209              		@ link register save eliminated.
 210              		.loc 1 134 0
 211 0000 024A     		ldr	r2, .L18
 212 0002 034B     		ldr	r3, .L18+4
 213 0004 1068     		ldr	r0, [r2]
 214 0006 1B68     		ldr	r3, [r3]
 215              		.loc 1 135 0
 216 0008 C01A     		subs	r0, r0, r3
 217 000a 7047     		bx	lr
 218              	.L19:
 219              		.align	2
 220              	.L18:
 221 000c 00000000 		.word	.LANCHOR1
 222 0010 00000000 		.word	.LANCHOR0
 223              		.cfi_endproc
 224              	.LFE10:
 225              		.size	chCoreStatus, .-chCoreStatus
 226              		.section	.bss.endmem,"aw",%nobits
 227              		.align	2
 228              		.set	.LANCHOR1,. + 0
ARM GAS  /var/folders/6q/x_mk5n_j3p7_c40r_2k_78980000gn/T//ccCQQSZ6.s 			page 5


 229              		.type	endmem, %object
 230              		.size	endmem, 4
 231              	endmem:
 232 0000 00000000 		.space	4
 233              		.section	.bss.nextmem,"aw",%nobits
 234              		.align	2
 235              		.set	.LANCHOR0,. + 0
 236              		.type	nextmem, %object
 237              		.size	nextmem, 4
 238              	nextmem:
 239 0000 00000000 		.space	4
 240              		.text
 241              	.Letext0:
 242              		.file 2 "/Users/Luca/src/vexilla/src/gcc-arm-none-eabi-5_4-2016q3/lib/gcc/arm-none-eabi/5.4.1/incl
 243              		.file 3 "/Users/Luca/src/vexilla/src/gcc-arm-none-eabi-5_4-2016q3/arm-none-eabi/include/machine/_d
 244              		.file 4 "/Users/Luca/src/vexilla/src/gcc-arm-none-eabi-5_4-2016q3/arm-none-eabi/include/sys/_stdin