ARM GAS  /var/folders/6q/x_mk5n_j3p7_c40r_2k_78980000gn/T//cc94kRik.s 			page 1


   1              		.syntax unified
   2              		.cpu cortex-m3
   3              		.fpu softvfp
   4              		.eabi_attribute 20, 1
   5              		.eabi_attribute 21, 1
   6              		.eabi_attribute 23, 3
   7              		.eabi_attribute 24, 1
   8              		.eabi_attribute 25, 1
   9              		.eabi_attribute 26, 1
  10              		.eabi_attribute 30, 2
  11              		.eabi_attribute 34, 1
  12              		.eabi_attribute 18, 4
  13              		.thumb
  14              		.syntax unified
  15              		.file	"chmsg.c"
  16              		.text
  17              	.Ltext0:
  18              		.cfi_sections	.debug_frame
  19              		.section	.text.chMsgSend,"ax",%progbits
  20              		.align	2
  21              		.p2align 4,,15
  22              		.global	chMsgSend
  23              		.thumb
  24              		.thumb_func
  25              		.type	chMsgSend, %function
  26              	chMsgSend:
  27              	.LFB7:
  28              		.file 1 "../ChibiOS/os/kernel/src/chmsg.c"
  29              		.loc 1 75 0
  30              		.cfi_startproc
  31              		@ args = 0, pretend = 0, frame = 0
  32              		@ frame_needed = 0, uses_anonymous_args = 0
  33              	.LVL0:
  34 0000 38B5     		push	{r3, r4, r5, lr}
  35              		.cfi_def_cfa_offset 16
  36              		.cfi_offset 3, -16
  37              		.cfi_offset 4, -12
  38              		.cfi_offset 5, -8
  39              		.cfi_offset 14, -4
  40              		.loc 1 76 0
  41 0002 0E4B     		ldr	r3, .L6
  42 0004 9C69     		ldr	r4, [r3, #24]
  43              	.LVL1:
  44              	.LBB10:
  45              		.loc 1 80 0
  46 0006 2023     		movs	r3, #32
  47              		.syntax unified
  48              	@ 80 "../ChibiOS/os/kernel/src/chmsg.c" 1
  49 0008 83F31188 		msr     BASEPRI, r3
  50              	@ 0 "" 2
  51              		.thumb
  52              		.syntax unified
  53              	.LBE10:
  54              		.loc 1 82 0
  55 000c 00F12C05 		add	r5, r0, #44
  56 0010 6562     		str	r5, [r4, #36]
  57              	.LVL2:
ARM GAS  /var/folders/6q/x_mk5n_j3p7_c40r_2k_78980000gn/T//cc94kRik.s 			page 2


  58              	.LBB11:
  59              	.LBB12:
  60              		.file 2 "../ChibiOS/os/kernel/include/chinline.h"
  61              		.loc 2 55 0
  62 0012 036B     		ldr	r3, [r0, #48]
  63              	.LBE12:
  64              	.LBE11:
  65              		.loc 1 81 0
  66 0014 6163     		str	r1, [r4, #52]
  67              	.LBB14:
  68              	.LBB13:
  69              		.loc 2 54 0
  70 0016 2560     		str	r5, [r4]
  71              		.loc 2 55 0
  72 0018 6360     		str	r3, [r4, #4]
  73              		.loc 2 56 0
  74 001a 0463     		str	r4, [r0, #48]
  75 001c 1C60     		str	r4, [r3]
  76              	.LVL3:
  77              	.LBE13:
  78              	.LBE14:
  79              		.loc 1 84 0
  80 001e 037F     		ldrb	r3, [r0, #28]	@ zero_extendqisi2
  81 0020 0C2B     		cmp	r3, #12
  82 0022 07D0     		beq	.L5
  83              	.LVL4:
  84              	.L2:
  85              		.loc 1 86 0
  86 0024 0A20     		movs	r0, #10
  87 0026 FFF7FEFF 		bl	chSchGoSleepS
  88              	.LVL5:
  89              		.loc 1 87 0
  90 002a 606A     		ldr	r0, [r4, #36]
  91              	.LVL6:
  92              	.LBB15:
  93              		.loc 1 88 0
  94 002c 0023     		movs	r3, #0
  95              		.syntax unified
  96              	@ 88 "../ChibiOS/os/kernel/src/chmsg.c" 1
  97 002e 83F31188 		msr     BASEPRI, r3
  98              	@ 0 "" 2
  99              		.thumb
 100              		.syntax unified
 101              	.LBE15:
 102              		.loc 1 90 0
 103 0032 38BD     		pop	{r3, r4, r5, pc}
 104              	.LVL7:
 105              	.L5:
 106              		.loc 1 85 0
 107 0034 FFF7FEFF 		bl	chSchReadyI
 108              	.LVL8:
 109 0038 F4E7     		b	.L2
 110              	.L7:
 111 003a 00BF     		.align	2
 112              	.L6:
 113 003c 00000000 		.word	rlist
 114              		.cfi_endproc
ARM GAS  /var/folders/6q/x_mk5n_j3p7_c40r_2k_78980000gn/T//cc94kRik.s 			page 3


 115              	.LFE7:
 116              		.size	chMsgSend, .-chMsgSend
 117              		.section	.text.chMsgWait,"ax",%progbits
 118              		.align	2
 119              		.p2align 4,,15
 120              		.global	chMsgWait
 121              		.thumb
 122              		.thumb_func
 123              		.type	chMsgWait, %function
 124              	chMsgWait:
 125              	.LFB8:
 126              		.loc 1 106 0
 127              		.cfi_startproc
 128              		@ args = 0, pretend = 0, frame = 0
 129              		@ frame_needed = 0, uses_anonymous_args = 0
 130 0000 10B5     		push	{r4, lr}
 131              		.cfi_def_cfa_offset 8
 132              		.cfi_offset 4, -8
 133              		.cfi_offset 14, -4
 134              	.LBB16:
 135              		.loc 1 109 0
 136 0002 2023     		movs	r3, #32
 137              		.syntax unified
 138              	@ 109 "../ChibiOS/os/kernel/src/chmsg.c" 1
 139 0004 83F31188 		msr     BASEPRI, r3
 140              	@ 0 "" 2
 141              		.thumb
 142              		.syntax unified
 143              	.LBE16:
 144              		.loc 1 110 0
 145 0008 0B4C     		ldr	r4, .L12
 146 000a A369     		ldr	r3, [r4, #24]
 147 000c 1A46     		mov	r2, r3
 148 000e 52F82C0F 		ldr	r0, [r2, #44]!
 149 0012 9042     		cmp	r0, r2
 150 0014 08D0     		beq	.L11
 151              	.L9:
 152              	.LVL9:
 153              	.LBB17:
 154              	.LBB18:
 155              		.loc 2 62 0
 156 0016 0168     		ldr	r1, [r0]
 157              	.LBE18:
 158              	.LBE17:
 159              		.loc 1 113 0
 160 0018 0B24     		movs	r4, #11
 161              	.LBB20:
 162              	.LBB19:
 163              		.loc 2 62 0
 164 001a D962     		str	r1, [r3, #44]
 165              	.LVL10:
 166 001c 4A60     		str	r2, [r1, #4]
 167              	.LVL11:
 168              	.LBE19:
 169              	.LBE20:
 170              	.LBB21:
 171              		.loc 1 114 0
ARM GAS  /var/folders/6q/x_mk5n_j3p7_c40r_2k_78980000gn/T//cc94kRik.s 			page 4


 172 001e 0023     		movs	r3, #0
 173              	.LBE21:
 174              		.loc 1 113 0
 175 0020 0477     		strb	r4, [r0, #28]
 176              	.LBB22:
 177              		.loc 1 114 0
 178              		.syntax unified
 179              	@ 114 "../ChibiOS/os/kernel/src/chmsg.c" 1
 180 0022 83F31188 		msr     BASEPRI, r3
 181              	@ 0 "" 2
 182              		.thumb
 183              		.syntax unified
 184              	.LBE22:
 185              		.loc 1 116 0
 186 0026 10BD     		pop	{r4, pc}
 187              	.L11:
 188              		.loc 1 111 0
 189 0028 0C20     		movs	r0, #12
 190 002a FFF7FEFF 		bl	chSchGoSleepS
 191              	.LVL12:
 192 002e A369     		ldr	r3, [r4, #24]
 193 0030 D86A     		ldr	r0, [r3, #44]
 194 0032 03F12C02 		add	r2, r3, #44
 195 0036 EEE7     		b	.L9
 196              	.L13:
 197              		.align	2
 198              	.L12:
 199 0038 00000000 		.word	rlist
 200              		.cfi_endproc
 201              	.LFE8:
 202              		.size	chMsgWait, .-chMsgWait
 203              		.section	.text.chMsgRelease,"ax",%progbits
 204              		.align	2
 205              		.p2align 4,,15
 206              		.global	chMsgRelease
 207              		.thumb
 208              		.thumb_func
 209              		.type	chMsgRelease, %function
 210              	chMsgRelease:
 211              	.LFB9:
 212              		.loc 1 128 0
 213              		.cfi_startproc
 214              		@ args = 0, pretend = 0, frame = 0
 215              		@ frame_needed = 0, uses_anonymous_args = 0
 216              	.LVL13:
 217 0000 08B5     		push	{r3, lr}
 218              		.cfi_def_cfa_offset 8
 219              		.cfi_offset 3, -8
 220              		.cfi_offset 14, -4
 221              	.LBB23:
 222              		.loc 1 130 0
 223 0002 2023     		movs	r3, #32
 224              		.syntax unified
 225              	@ 130 "../ChibiOS/os/kernel/src/chmsg.c" 1
 226 0004 83F31188 		msr     BASEPRI, r3
 227              	@ 0 "" 2
 228              		.thumb
ARM GAS  /var/folders/6q/x_mk5n_j3p7_c40r_2k_78980000gn/T//cc94kRik.s 			page 5


 229              		.syntax unified
 230              	.LBE23:
 231              		.loc 1 133 0
 232 0008 FFF7FEFF 		bl	chSchWakeupS
 233              	.LVL14:
 234              	.LBB24:
 235              		.loc 1 134 0
 236 000c 0023     		movs	r3, #0
 237              		.syntax unified
 238              	@ 134 "../ChibiOS/os/kernel/src/chmsg.c" 1
 239 000e 83F31188 		msr     BASEPRI, r3
 240              	@ 0 "" 2
 241              		.thumb
 242              		.syntax unified
 243 0012 08BD     		pop	{r3, pc}
 244              	.LBE24:
 245              		.cfi_endproc
 246              	.LFE9:
 247              		.size	chMsgRelease, .-chMsgRelease
 248              		.text
 249              	.Letext0:
 250              		.file 3 "/Users/Luca/src/vexilla/src/gcc-arm-none-eabi-5_4-2016q3/arm-none-eabi/include/machine/_d
 251              		.file 4 "/Users/Luca/src/vexilla/src/gcc-arm-none-eabi-5_4-2016q3/arm-none-eabi/include/sys/_stdin
 252              		.file 5 "../ChibiOS/os/ports/GCC/ARMCMx/chtypes.h"
 253              		.file 6 "../ChibiOS/os/kernel/include/chlists.h"
 254              		.file 7 "../ChibiOS/os/kernel/include/chthreads.h"
 255              		.file 8 "../ChibiOS/os/ports/GCC/ARMCMx/chcore_v7m.h"
 256              		.file 9 "../ChibiOS/os/kernel/include/chschd.h"
 257              		.file 10 "../ChibiOS/os/kernel/include/chmtx.h"