ARM GAS  /var/folders/6q/x_mk5n_j3p7_c40r_2k_78980000gn/T//cch7hiVP.s 			page 1


   1              		.syntax unified
   2              		.cpu cortex-m3
   3              		.fpu softvfp
   4              		.eabi_attribute 20, 1
   5              		.eabi_attribute 21, 1
   6              		.eabi_attribute 23, 3
   7              		.eabi_attribute 24, 1
   8              		.eabi_attribute 25, 1
   9              		.eabi_attribute 26, 1
  10              		.eabi_attribute 30, 2
  11              		.eabi_attribute 34, 1
  12              		.eabi_attribute 18, 4
  13              		.thumb
  14              		.syntax unified
  15              		.file	"chmtx.c"
  16              		.text
  17              	.Ltext0:
  18              		.cfi_sections	.debug_frame
  19              		.section	.text.chMtxInit,"ax",%progbits
  20              		.align	2
  21              		.p2align 4,,15
  22              		.global	chMtxInit
  23              		.thumb
  24              		.thumb_func
  25              		.type	chMtxInit, %function
  26              	chMtxInit:
  27              	.LFB7:
  28              		.file 1 "../ChibiOS/os/kernel/src/chmtx.c"
  29              		.loc 1 86 0
  30              		.cfi_startproc
  31              		@ args = 0, pretend = 0, frame = 0
  32              		@ frame_needed = 0, uses_anonymous_args = 0
  33              		@ link register save eliminated.
  34              	.LVL0:
  35              		.loc 1 91 0
  36 0000 0023     		movs	r3, #0
  37              		.loc 1 90 0
  38 0002 4060     		str	r0, [r0, #4]
  39 0004 0060     		str	r0, [r0]
  40              		.loc 1 91 0
  41 0006 8360     		str	r3, [r0, #8]
  42 0008 7047     		bx	lr
  43              		.cfi_endproc
  44              	.LFE7:
  45              		.size	chMtxInit, .-chMtxInit
  46 000a 00BF     		.section	.text.chMtxLockS,"ax",%progbits
  47              		.align	2
  48              		.p2align 4,,15
  49              		.global	chMtxLockS
  50              		.thumb
  51              		.thumb_func
  52              		.type	chMtxLockS, %function
  53              	chMtxLockS:
  54              	.LFB9:
  55              		.loc 1 121 0
  56              		.cfi_startproc
  57              		@ args = 0, pretend = 0, frame = 0
ARM GAS  /var/folders/6q/x_mk5n_j3p7_c40r_2k_78980000gn/T//cch7hiVP.s 			page 2


  58              		@ frame_needed = 0, uses_anonymous_args = 0
  59              	.LVL1:
  60              		.loc 1 122 0
  61 0000 304B     		ldr	r3, .L28
  62              		.loc 1 128 0
  63 0002 8268     		ldr	r2, [r0, #8]
  64              		.loc 1 121 0
  65 0004 70B5     		push	{r4, r5, r6, lr}
  66              		.cfi_def_cfa_offset 16
  67              		.cfi_offset 4, -16
  68              		.cfi_offset 5, -12
  69              		.cfi_offset 6, -8
  70              		.cfi_offset 14, -4
  71              		.loc 1 122 0
  72 0006 9C69     		ldr	r4, [r3, #24]
  73              	.LVL2:
  74              		.loc 1 128 0
  75 0008 002A     		cmp	r2, #0
  76 000a 55D0     		beq	.L3
  77              	.LBB33:
  78              		.loc 1 135 0
  79 000c A168     		ldr	r1, [r4, #8]
  80 000e 9368     		ldr	r3, [r2, #8]
  81 0010 0546     		mov	r5, r0
  82              	.LVL3:
  83 0012 9942     		cmp	r1, r3
  84 0014 06D9     		bls	.L5
  85              	.LVL4:
  86              	.L10:
  87              		.loc 1 139 0
  88 0016 137F     		ldrb	r3, [r2, #28]	@ zero_extendqisi2
  89              		.loc 1 137 0
  90 0018 9160     		str	r1, [r2, #8]
  91              		.loc 1 139 0
  92 001a 042B     		cmp	r3, #4
  93 001c 33D0     		beq	.L6
  94 001e 052B     		cmp	r3, #5
  95 0020 1DD0     		beq	.L7
  96 0022 9BB1     		cbz	r3, .L27
  97              	.LVL5:
  98              	.L5:
  99              	.LBB34:
 100              	.LBB35:
 101              		.file 2 "../ChibiOS/os/kernel/include/chinline.h"
 102              		.loc 2 43 0
 103 0024 2B46     		mov	r3, r5
 104 0026 03E0     		b	.L18
 105              	.LVL6:
 106              	.L17:
 107              		.loc 2 46 0
 108 0028 9968     		ldr	r1, [r3, #8]
 109 002a A268     		ldr	r2, [r4, #8]
 110 002c 9142     		cmp	r1, r2
 111 002e 02D3     		bcc	.L19
 112              	.L18:
 113              		.loc 2 45 0
 114 0030 1B68     		ldr	r3, [r3]
ARM GAS  /var/folders/6q/x_mk5n_j3p7_c40r_2k_78980000gn/T//cch7hiVP.s 			page 3


 115              	.LVL7:
 116              		.loc 2 46 0
 117 0032 9D42     		cmp	r5, r3
 118 0034 F8D1     		bne	.L17
 119              	.L19:
 120              		.loc 2 48 0
 121 0036 5A68     		ldr	r2, [r3, #4]
 122              		.loc 2 47 0
 123 0038 2360     		str	r3, [r4]
 124              		.loc 2 48 0
 125 003a 6260     		str	r2, [r4, #4]
 126              		.loc 2 49 0
 127 003c 5C60     		str	r4, [r3, #4]
 128 003e 1460     		str	r4, [r2]
 129              	.LVL8:
 130              	.LBE35:
 131              	.LBE34:
 132              		.loc 1 174 0
 133 0040 6562     		str	r5, [r4, #36]
 134              		.loc 1 175 0
 135 0042 0420     		movs	r0, #4
 136              	.LBE33:
 137              		.loc 1 187 0
 138 0044 BDE87040 		pop	{r4, r5, r6, lr}
 139              		.cfi_remember_state
 140              		.cfi_restore 14
 141              		.cfi_restore 6
 142              		.cfi_restore 5
 143              		.cfi_restore 4
 144              		.cfi_def_cfa_offset 0
 145              	.LVL9:
 146              	.LBB48:
 147              		.loc 1 175 0
 148 0048 FFF7FEBF 		b	chSchGoSleepS
 149              	.LVL10:
 150              	.L27:
 151              		.cfi_restore_state
 152              	.LBB36:
 153              	.LBB37:
 154              		.loc 2 75 0
 155 004c 92E80A00 		ldmia	r2, {r1, r3}
 156 0050 1960     		str	r1, [r3]
 157              	.LBE37:
 158              	.LBE36:
 159              		.loc 1 167 0
 160 0052 1046     		mov	r0, r2
 161              	.LBB39:
 162              	.LBB38:
 163              		.loc 2 76 0
 164 0054 1268     		ldr	r2, [r2]
 165              	.LVL11:
 166 0056 5360     		str	r3, [r2, #4]
 167              	.LVL12:
 168              	.LBE38:
 169              	.LBE39:
 170              		.loc 1 167 0
 171 0058 FFF7FEFF 		bl	chSchReadyI
ARM GAS  /var/folders/6q/x_mk5n_j3p7_c40r_2k_78980000gn/T//cch7hiVP.s 			page 4


 172              	.LVL13:
 173              		.loc 1 168 0
 174 005c E2E7     		b	.L5
 175              	.LVL14:
 176              	.L7:
 177              	.LBB40:
 178              	.LBB41:
 179              		.loc 2 75 0
 180 005e 92E80900 		ldmia	r2, {r0, r3}
 181 0062 1860     		str	r0, [r3]
 182              		.loc 2 76 0
 183 0064 1068     		ldr	r0, [r2]
 184 0066 4360     		str	r3, [r0, #4]
 185              	.LVL15:
 186              	.LBE41:
 187              	.LBE40:
 188              		.loc 1 158 0
 189 0068 566A     		ldr	r6, [r2, #36]
 190              	.LVL16:
 191              	.LBB42:
 192              	.LBB43:
 193              		.loc 2 43 0
 194 006a 3346     		mov	r3, r6
 195 006c 02E0     		b	.L15
 196              	.LVL17:
 197              	.L14:
 198              		.loc 2 46 0
 199 006e 9868     		ldr	r0, [r3, #8]
 200 0070 8842     		cmp	r0, r1
 201 0072 02D3     		bcc	.L16
 202              	.LVL18:
 203              	.L15:
 204              		.loc 2 45 0
 205 0074 1B68     		ldr	r3, [r3]
 206              	.LVL19:
 207              		.loc 2 46 0
 208 0076 9E42     		cmp	r6, r3
 209 0078 F9D1     		bne	.L14
 210              	.L16:
 211              		.loc 2 48 0
 212 007a 5968     		ldr	r1, [r3, #4]
 213              		.loc 2 47 0
 214 007c 1360     		str	r3, [r2]
 215              		.loc 2 48 0
 216 007e 5160     		str	r1, [r2, #4]
 217              		.loc 2 49 0
 218 0080 5A60     		str	r2, [r3, #4]
 219 0082 0A60     		str	r2, [r1]
 220 0084 CEE7     		b	.L5
 221              	.LVL20:
 222              	.L6:
 223              	.LBE43:
 224              	.LBE42:
 225              	.LBB44:
 226              	.LBB45:
 227              		.loc 2 75 0
 228 0086 92E80900 		ldmia	r2, {r0, r3}
ARM GAS  /var/folders/6q/x_mk5n_j3p7_c40r_2k_78980000gn/T//cch7hiVP.s 			page 5


 229 008a 1860     		str	r0, [r3]
 230              		.loc 2 76 0
 231 008c 1068     		ldr	r0, [r2]
 232 008e 4360     		str	r3, [r0, #4]
 233              	.LVL21:
 234              	.LBE45:
 235              	.LBE44:
 236              		.loc 1 142 0
 237 0090 566A     		ldr	r6, [r2, #36]
 238              	.LVL22:
 239 0092 3346     		mov	r3, r6
 240 0094 02E0     		b	.L12
 241              	.LVL23:
 242              	.L9:
 243              	.LBB46:
 244              	.LBB47:
 245              		.loc 2 46 0
 246 0096 9868     		ldr	r0, [r3, #8]
 247 0098 8842     		cmp	r0, r1
 248 009a 02D3     		bcc	.L13
 249              	.LVL24:
 250              	.L12:
 251              		.loc 2 45 0
 252 009c 1B68     		ldr	r3, [r3]
 253              	.LVL25:
 254              		.loc 2 46 0
 255 009e 9E42     		cmp	r6, r3
 256 00a0 F9D1     		bne	.L9
 257              	.L13:
 258              		.loc 2 48 0
 259 00a2 5968     		ldr	r1, [r3, #4]
 260              		.loc 2 47 0
 261 00a4 1360     		str	r3, [r2]
 262              		.loc 2 48 0
 263 00a6 5160     		str	r1, [r2, #4]
 264              		.loc 2 49 0
 265 00a8 5A60     		str	r2, [r3, #4]
 266 00aa 0A60     		str	r2, [r1]
 267              	.LVL26:
 268              	.LBE47:
 269              	.LBE46:
 270              		.loc 1 143 0
 271 00ac B268     		ldr	r2, [r6, #8]
 272              	.LVL27:
 273              		.loc 1 135 0
 274 00ae A168     		ldr	r1, [r4, #8]
 275 00b0 9368     		ldr	r3, [r2, #8]
 276              	.LVL28:
 277 00b2 8B42     		cmp	r3, r1
 278 00b4 AFD3     		bcc	.L10
 279 00b6 B5E7     		b	.L5
 280              	.LVL29:
 281              	.L3:
 282              	.LBE48:
 283              		.loc 1 184 0
 284 00b8 E36B     		ldr	r3, [r4, #60]
 285              		.loc 1 183 0
ARM GAS  /var/folders/6q/x_mk5n_j3p7_c40r_2k_78980000gn/T//cch7hiVP.s 			page 6


 286 00ba 8460     		str	r4, [r0, #8]
 287              		.loc 1 184 0
 288 00bc C360     		str	r3, [r0, #12]
 289              		.loc 1 185 0
 290 00be E063     		str	r0, [r4, #60]
 291 00c0 70BD     		pop	{r4, r5, r6, pc}
 292              	.LVL30:
 293              	.L29:
 294 00c2 00BF     		.align	2
 295              	.L28:
 296 00c4 00000000 		.word	rlist
 297              		.cfi_endproc
 298              	.LFE9:
 299              		.size	chMtxLockS, .-chMtxLockS
 300              		.section	.text.chMtxLock,"ax",%progbits
 301              		.align	2
 302              		.p2align 4,,15
 303              		.global	chMtxLock
 304              		.thumb
 305              		.thumb_func
 306              		.type	chMtxLock, %function
 307              	chMtxLock:
 308              	.LFB8:
 309              		.loc 1 103 0
 310              		.cfi_startproc
 311              		@ args = 0, pretend = 0, frame = 0
 312              		@ frame_needed = 0, uses_anonymous_args = 0
 313              	.LVL31:
 314 0000 08B5     		push	{r3, lr}
 315              		.cfi_def_cfa_offset 8
 316              		.cfi_offset 3, -8
 317              		.cfi_offset 14, -4
 318              	.LBB49:
 319              		.loc 1 105 0
 320 0002 2023     		movs	r3, #32
 321              		.syntax unified
 322              	@ 105 "../ChibiOS/os/kernel/src/chmtx.c" 1
 323 0004 83F31188 		msr     BASEPRI, r3
 324              	@ 0 "" 2
 325              		.thumb
 326              		.syntax unified
 327              	.LBE49:
 328              		.loc 1 107 0
 329 0008 FFF7FEFF 		bl	chMtxLockS
 330              	.LVL32:
 331              	.LBB50:
 332              		.loc 1 109 0
 333 000c 0023     		movs	r3, #0
 334              		.syntax unified
 335              	@ 109 "../ChibiOS/os/kernel/src/chmtx.c" 1
 336 000e 83F31188 		msr     BASEPRI, r3
 337              	@ 0 "" 2
 338              		.thumb
 339              		.syntax unified
 340 0012 08BD     		pop	{r3, pc}
 341              	.LBE50:
 342              		.cfi_endproc
ARM GAS  /var/folders/6q/x_mk5n_j3p7_c40r_2k_78980000gn/T//cch7hiVP.s 			page 7


 343              	.LFE8:
 344              		.size	chMtxLock, .-chMtxLock
 345              		.section	.text.chMtxTryLock,"ax",%progbits
 346              		.align	2
 347              		.p2align 4,,15
 348              		.global	chMtxTryLock
 349              		.thumb
 350              		.thumb_func
 351              		.type	chMtxTryLock, %function
 352              	chMtxTryLock:
 353              	.LFB10:
 354              		.loc 1 206 0
 355              		.cfi_startproc
 356              		@ args = 0, pretend = 0, frame = 0
 357              		@ frame_needed = 0, uses_anonymous_args = 0
 358              		@ link register save eliminated.
 359              	.LVL33:
 360              		.loc 1 206 0
 361 0000 0246     		mov	r2, r0
 362              	.LBB57:
 363              		.loc 1 209 0
 364 0002 2023     		movs	r3, #32
 365              		.syntax unified
 366              	@ 209 "../ChibiOS/os/kernel/src/chmtx.c" 1
 367 0004 83F31188 		msr     BASEPRI, r3
 368              	@ 0 "" 2
 369              	.LVL34:
 370              		.thumb
 371              		.syntax unified
 372              	.LBE57:
 373              	.LBB58:
 374              	.LBB59:
 375              		.loc 1 239 0
 376 0008 8368     		ldr	r3, [r0, #8]
 377              		.loc 1 240 0
 378 000a 0020     		movs	r0, #0
 379              	.LVL35:
 380              		.loc 1 239 0
 381 000c 1BB1     		cbz	r3, .L35
 382              	.LVL36:
 383              	.LBE59:
 384              	.LBE58:
 385              	.LBB63:
 386              		.loc 1 213 0
 387 000e 0023     		movs	r3, #0
 388              		.syntax unified
 389              	@ 213 "../ChibiOS/os/kernel/src/chmtx.c" 1
 390 0010 83F31188 		msr     BASEPRI, r3
 391              	@ 0 "" 2
 392              		.thumb
 393              		.syntax unified
 394              	.LBE63:
 395              		.loc 1 215 0
 396 0014 7047     		bx	lr
 397              	.LVL37:
 398              	.L35:
 399              	.LBB64:
ARM GAS  /var/folders/6q/x_mk5n_j3p7_c40r_2k_78980000gn/T//cch7hiVP.s 			page 8


 400              	.LBB62:
 401              	.LBB60:
 402              	.LBB61:
 403              		.loc 1 241 0
 404 0016 054B     		ldr	r3, .L36
 405              		.loc 1 243 0
 406 0018 0120     		movs	r0, #1
 407              		.loc 1 241 0
 408 001a 9B69     		ldr	r3, [r3, #24]
 409              		.loc 1 242 0
 410 001c D96B     		ldr	r1, [r3, #60]
 411              		.loc 1 241 0
 412 001e 9360     		str	r3, [r2, #8]
 413              		.loc 1 242 0
 414 0020 D160     		str	r1, [r2, #12]
 415              		.loc 1 243 0
 416 0022 DA63     		str	r2, [r3, #60]
 417              	.LVL38:
 418              	.LBE61:
 419              	.LBE60:
 420              	.LBE62:
 421              	.LBE64:
 422              	.LBB65:
 423              		.loc 1 213 0
 424 0024 0023     		movs	r3, #0
 425              		.syntax unified
 426              	@ 213 "../ChibiOS/os/kernel/src/chmtx.c" 1
 427 0026 83F31188 		msr     BASEPRI, r3
 428              	@ 0 "" 2
 429              		.thumb
 430              		.syntax unified
 431              	.LBE65:
 432              		.loc 1 215 0
 433 002a 7047     		bx	lr
 434              	.L37:
 435              		.align	2
 436              	.L36:
 437 002c 00000000 		.word	rlist
 438              		.cfi_endproc
 439              	.LFE10:
 440              		.size	chMtxTryLock, .-chMtxTryLock
 441              		.section	.text.chMtxTryLockS,"ax",%progbits
 442              		.align	2
 443              		.p2align 4,,15
 444              		.global	chMtxTryLockS
 445              		.thumb
 446              		.thumb_func
 447              		.type	chMtxTryLockS, %function
 448              	chMtxTryLockS:
 449              	.LFB11:
 450              		.loc 1 234 0
 451              		.cfi_startproc
 452              		@ args = 0, pretend = 0, frame = 0
 453              		@ frame_needed = 0, uses_anonymous_args = 0
 454              		@ link register save eliminated.
 455              	.LVL39:
 456              		.loc 1 239 0
ARM GAS  /var/folders/6q/x_mk5n_j3p7_c40r_2k_78980000gn/T//cch7hiVP.s 			page 9


 457 0000 8268     		ldr	r2, [r0, #8]
 458              		.loc 1 234 0
 459 0002 0346     		mov	r3, r0
 460              		.loc 1 239 0
 461 0004 0AB1     		cbz	r2, .L41
 462              		.loc 1 240 0
 463 0006 0020     		movs	r0, #0
 464              	.LVL40:
 465              		.loc 1 245 0
 466 0008 7047     		bx	lr
 467              	.LVL41:
 468              	.L41:
 469              	.LBB68:
 470              	.LBB69:
 471              		.loc 1 241 0
 472 000a 044A     		ldr	r2, .L42
 473              		.loc 1 243 0
 474 000c 0120     		movs	r0, #1
 475              	.LVL42:
 476              		.loc 1 241 0
 477 000e 9269     		ldr	r2, [r2, #24]
 478              		.loc 1 242 0
 479 0010 D16B     		ldr	r1, [r2, #60]
 480              		.loc 1 241 0
 481 0012 9A60     		str	r2, [r3, #8]
 482              		.loc 1 242 0
 483 0014 D960     		str	r1, [r3, #12]
 484              		.loc 1 243 0
 485 0016 D363     		str	r3, [r2, #60]
 486              	.LVL43:
 487 0018 7047     		bx	lr
 488              	.L43:
 489 001a 00BF     		.align	2
 490              	.L42:
 491 001c 00000000 		.word	rlist
 492              	.LBE69:
 493              	.LBE68:
 494              		.cfi_endproc
 495              	.LFE11:
 496              		.size	chMtxTryLockS, .-chMtxTryLockS
 497              		.section	.text.chMtxUnlock,"ax",%progbits
 498              		.align	2
 499              		.p2align 4,,15
 500              		.global	chMtxUnlock
 501              		.thumb
 502              		.thumb_func
 503              		.type	chMtxUnlock, %function
 504              	chMtxUnlock:
 505              	.LFB12:
 506              		.loc 1 257 0
 507              		.cfi_startproc
 508              		@ args = 0, pretend = 0, frame = 0
 509              		@ frame_needed = 0, uses_anonymous_args = 0
 510              		.loc 1 258 0
 511 0000 174A     		ldr	r2, .L55
 512              		.loc 1 257 0
 513 0002 38B5     		push	{r3, r4, r5, lr}
ARM GAS  /var/folders/6q/x_mk5n_j3p7_c40r_2k_78980000gn/T//cch7hiVP.s 			page 10


 514              		.cfi_def_cfa_offset 16
 515              		.cfi_offset 3, -16
 516              		.cfi_offset 4, -12
 517              		.cfi_offset 5, -8
 518              		.cfi_offset 14, -4
 519              		.loc 1 258 0
 520 0004 9069     		ldr	r0, [r2, #24]
 521              	.LVL44:
 522              	.LBB70:
 523              		.loc 1 261 0
 524 0006 2023     		movs	r3, #32
 525              		.syntax unified
 526              	@ 261 "../ChibiOS/os/kernel/src/chmtx.c" 1
 527 0008 83F31188 		msr     BASEPRI, r3
 528              	@ 0 "" 2
 529              		.thumb
 530              		.syntax unified
 531              	.LBE70:
 532              		.loc 1 265 0
 533 000c C46B     		ldr	r4, [r0, #60]
 534              	.LVL45:
 535              		.loc 1 273 0
 536 000e 2568     		ldr	r5, [r4]
 537              		.loc 1 271 0
 538 0010 E368     		ldr	r3, [r4, #12]
 539              		.loc 1 273 0
 540 0012 A542     		cmp	r5, r4
 541              		.loc 1 271 0
 542 0014 C363     		str	r3, [r0, #60]
 543              		.loc 1 273 0
 544 0016 1CD0     		beq	.L45
 545              	.LBB71:
 546              		.loc 1 278 0
 547 0018 016C     		ldr	r1, [r0, #64]
 548              	.LVL46:
 549              		.loc 1 280 0
 550 001a 4BB1     		cbz	r3, .L46
 551              	.L48:
 552              		.loc 1 284 0
 553 001c 1A68     		ldr	r2, [r3]
 554 001e 9A42     		cmp	r2, r3
 555 0020 03D0     		beq	.L47
 556              		.loc 1 284 0 is_stmt 0 discriminator 1
 557 0022 9268     		ldr	r2, [r2, #8]
 558 0024 9142     		cmp	r1, r2
 559 0026 38BF     		it	cc
 560 0028 1146     		movcc	r1, r2
 561              	.LVL47:
 562              	.L47:
 563              		.loc 1 286 0 is_stmt 1
 564 002a DB68     		ldr	r3, [r3, #12]
 565              	.LVL48:
 566              		.loc 1 280 0
 567 002c 002B     		cmp	r3, #0
 568 002e F5D1     		bne	.L48
 569              	.L46:
 570              	.LBB72:
ARM GAS  /var/folders/6q/x_mk5n_j3p7_c40r_2k_78980000gn/T//cch7hiVP.s 			page 11


 571              	.LBB73:
 572              		.loc 2 62 0
 573 0030 2B68     		ldr	r3, [r5]
 574              	.LVL49:
 575              	.LBE73:
 576              	.LBE72:
 577              		.loc 1 295 0
 578 0032 EA6B     		ldr	r2, [r5, #60]
 579              		.loc 1 290 0
 580 0034 8160     		str	r1, [r0, #8]
 581              	.LVL50:
 582              	.LBB76:
 583              	.LBB74:
 584              		.loc 2 62 0
 585 0036 2360     		str	r3, [r4]
 586              	.LBE74:
 587              	.LBE76:
 588              		.loc 1 297 0
 589 0038 2846     		mov	r0, r5
 590              	.LVL51:
 591              	.LBB77:
 592              	.LBB75:
 593              		.loc 2 62 0
 594 003a 5C60     		str	r4, [r3, #4]
 595              	.LVL52:
 596              	.LBE75:
 597              	.LBE77:
 598              		.loc 1 297 0
 599 003c 0021     		movs	r1, #0
 600              	.LVL53:
 601              		.loc 1 294 0
 602 003e A560     		str	r5, [r4, #8]
 603              		.loc 1 295 0
 604 0040 E260     		str	r2, [r4, #12]
 605              		.loc 1 296 0
 606 0042 EC63     		str	r4, [r5, #60]
 607              		.loc 1 297 0
 608 0044 FFF7FEFF 		bl	chSchWakeupS
 609              	.LVL54:
 610              	.LBE71:
 611              	.LBB78:
 612              		.loc 1 301 0
 613 0048 0023     		movs	r3, #0
 614              		.syntax unified
 615              	@ 301 "../ChibiOS/os/kernel/src/chmtx.c" 1
 616 004a 83F31188 		msr     BASEPRI, r3
 617              	@ 0 "" 2
 618              		.thumb
 619              		.syntax unified
 620              	.LBE78:
 621              		.loc 1 303 0
 622 004e 2046     		mov	r0, r4
 623 0050 38BD     		pop	{r3, r4, r5, pc}
 624              	.LVL55:
 625              	.L45:
 626              		.loc 1 300 0
 627 0052 0023     		movs	r3, #0
ARM GAS  /var/folders/6q/x_mk5n_j3p7_c40r_2k_78980000gn/T//cch7hiVP.s 			page 12


 628 0054 A360     		str	r3, [r4, #8]
 629              	.LBB79:
 630              		.loc 1 301 0
 631 0056 0023     		movs	r3, #0
 632              		.syntax unified
 633              	@ 301 "../ChibiOS/os/kernel/src/chmtx.c" 1
 634 0058 83F31188 		msr     BASEPRI, r3
 635              	@ 0 "" 2
 636              		.thumb
 637              		.syntax unified
 638              	.LBE79:
 639              		.loc 1 303 0
 640 005c 2046     		mov	r0, r4
 641              	.LVL56:
 642 005e 38BD     		pop	{r3, r4, r5, pc}
 643              	.LVL57:
 644              	.L56:
 645              		.align	2
 646              	.L55:
 647 0060 00000000 		.word	rlist
 648              		.cfi_endproc
 649              	.LFE12:
 650              		.size	chMtxUnlock, .-chMtxUnlock
 651              		.section	.text.chMtxUnlockS,"ax",%progbits
 652              		.align	2
 653              		.p2align 4,,15
 654              		.global	chMtxUnlockS
 655              		.thumb
 656              		.thumb_func
 657              		.type	chMtxUnlockS, %function
 658              	chMtxUnlockS:
 659              	.LFB13:
 660              		.loc 1 317 0
 661              		.cfi_startproc
 662              		@ args = 0, pretend = 0, frame = 0
 663              		@ frame_needed = 0, uses_anonymous_args = 0
 664 0000 38B5     		push	{r3, r4, r5, lr}
 665              		.cfi_def_cfa_offset 16
 666              		.cfi_offset 3, -16
 667              		.cfi_offset 4, -12
 668              		.cfi_offset 5, -8
 669              		.cfi_offset 14, -4
 670              		.loc 1 318 0
 671 0002 124B     		ldr	r3, .L68
 672 0004 9869     		ldr	r0, [r3, #24]
 673              	.LVL58:
 674              		.loc 1 325 0
 675 0006 C46B     		ldr	r4, [r0, #60]
 676              	.LVL59:
 677              		.loc 1 334 0
 678 0008 2568     		ldr	r5, [r4]
 679              		.loc 1 332 0
 680 000a E368     		ldr	r3, [r4, #12]
 681              		.loc 1 334 0
 682 000c A542     		cmp	r5, r4
 683              		.loc 1 332 0
 684 000e C363     		str	r3, [r0, #60]
ARM GAS  /var/folders/6q/x_mk5n_j3p7_c40r_2k_78980000gn/T//cch7hiVP.s 			page 13


 685              		.loc 1 334 0
 686 0010 18D0     		beq	.L58
 687              	.LBB80:
 688              		.loc 1 339 0
 689 0012 016C     		ldr	r1, [r0, #64]
 690              	.LVL60:
 691              		.loc 1 341 0
 692 0014 4BB1     		cbz	r3, .L59
 693              	.L61:
 694              		.loc 1 345 0
 695 0016 1A68     		ldr	r2, [r3]
 696 0018 9A42     		cmp	r2, r3
 697 001a 03D0     		beq	.L60
 698              		.loc 1 345 0 is_stmt 0 discriminator 1
 699 001c 9268     		ldr	r2, [r2, #8]
 700 001e 9142     		cmp	r1, r2
 701 0020 38BF     		it	cc
 702 0022 1146     		movcc	r1, r2
 703              	.LVL61:
 704              	.L60:
 705              		.loc 1 347 0 is_stmt 1
 706 0024 DB68     		ldr	r3, [r3, #12]
 707              	.LVL62:
 708              		.loc 1 341 0
 709 0026 002B     		cmp	r3, #0
 710 0028 F5D1     		bne	.L61
 711              	.L59:
 712              		.loc 1 354 0
 713 002a EA6B     		ldr	r2, [r5, #60]
 714              	.LBB81:
 715              	.LBB82:
 716              		.loc 2 62 0
 717 002c 2B68     		ldr	r3, [r5]
 718              	.LVL63:
 719              	.LBE82:
 720              	.LBE81:
 721              		.loc 1 349 0
 722 002e 8160     		str	r1, [r0, #8]
 723              	.LVL64:
 724              	.LBB85:
 725              	.LBB83:
 726              		.loc 2 62 0
 727 0030 2360     		str	r3, [r4]
 728              	.LBE83:
 729              	.LBE85:
 730              		.loc 1 356 0
 731 0032 2846     		mov	r0, r5
 732              	.LVL65:
 733              	.LBB86:
 734              	.LBB84:
 735              		.loc 2 62 0
 736 0034 5C60     		str	r4, [r3, #4]
 737              	.LVL66:
 738              	.LBE84:
 739              	.LBE86:
 740              		.loc 1 353 0
 741 0036 A560     		str	r5, [r4, #8]
ARM GAS  /var/folders/6q/x_mk5n_j3p7_c40r_2k_78980000gn/T//cch7hiVP.s 			page 14


 742              		.loc 1 354 0
 743 0038 E260     		str	r2, [r4, #12]
 744              		.loc 1 355 0
 745 003a EC63     		str	r4, [r5, #60]
 746              		.loc 1 356 0
 747 003c FFF7FEFF 		bl	chSchReadyI
 748              	.LVL67:
 749              	.LBE80:
 750              		.loc 1 361 0
 751 0040 2046     		mov	r0, r4
 752 0042 38BD     		pop	{r3, r4, r5, pc}
 753              	.LVL68:
 754              	.L58:
 755              		.loc 1 359 0
 756 0044 0023     		movs	r3, #0
 757 0046 A360     		str	r3, [r4, #8]
 758              		.loc 1 361 0
 759 0048 2046     		mov	r0, r4
 760              	.LVL69:
 761 004a 38BD     		pop	{r3, r4, r5, pc}
 762              	.LVL70:
 763              	.L69:
 764              		.align	2
 765              	.L68:
 766 004c 00000000 		.word	rlist
 767              		.cfi_endproc
 768              	.LFE13:
 769              		.size	chMtxUnlockS, .-chMtxUnlockS
 770              		.section	.text.chMtxUnlockAll,"ax",%progbits
 771              		.align	2
 772              		.p2align 4,,15
 773              		.global	chMtxUnlockAll
 774              		.thumb
 775              		.thumb_func
 776              		.type	chMtxUnlockAll, %function
 777              	chMtxUnlockAll:
 778              	.LFB14:
 779              		.loc 1 374 0
 780              		.cfi_startproc
 781              		@ args = 0, pretend = 0, frame = 0
 782              		@ frame_needed = 0, uses_anonymous_args = 0
 783              		.loc 1 375 0
 784 0000 134A     		ldr	r2, .L82
 785              		.loc 1 374 0
 786 0002 70B5     		push	{r4, r5, r6, lr}
 787              		.cfi_def_cfa_offset 16
 788              		.cfi_offset 4, -16
 789              		.cfi_offset 5, -12
 790              		.cfi_offset 6, -8
 791              		.cfi_offset 14, -4
 792              	.LBB87:
 793              		.loc 1 377 0
 794 0004 2023     		movs	r3, #32
 795              	.LBE87:
 796              		.loc 1 375 0
 797 0006 9469     		ldr	r4, [r2, #24]
 798              	.LVL71:
ARM GAS  /var/folders/6q/x_mk5n_j3p7_c40r_2k_78980000gn/T//cch7hiVP.s 			page 15


 799              	.LBB88:
 800              		.loc 1 377 0
 801              		.syntax unified
 802              	@ 377 "../ChibiOS/os/kernel/src/chmtx.c" 1
 803 0008 83F31188 		msr     BASEPRI, r3
 804              	@ 0 "" 2
 805              		.thumb
 806              		.syntax unified
 807              	.LBE88:
 808              		.loc 1 378 0
 809 000c E36B     		ldr	r3, [r4, #60]
 810 000e D3B1     		cbz	r3, .L71
 811              	.LBB89:
 812              		.loc 1 390 0
 813 0010 0026     		movs	r6, #0
 814 0012 0BE0     		b	.L74
 815              	.LVL72:
 816              	.L81:
 817              	.LBB90:
 818              		.loc 1 385 0
 819 0014 D56B     		ldr	r5, [r2, #60]
 820              	.LBB91:
 821              	.LBB92:
 822              		.loc 2 62 0
 823 0016 1168     		ldr	r1, [r2]
 824              	.LBE92:
 825              	.LBE91:
 826              		.loc 1 387 0
 827 0018 1046     		mov	r0, r2
 828              	.LBB94:
 829              	.LBB93:
 830              		.loc 2 62 0
 831 001a 1960     		str	r1, [r3]
 832 001c 4B60     		str	r3, [r1, #4]
 833              	.LVL73:
 834              	.LBE93:
 835              	.LBE94:
 836              		.loc 1 384 0
 837 001e 9A60     		str	r2, [r3, #8]
 838              		.loc 1 385 0
 839 0020 DD60     		str	r5, [r3, #12]
 840              		.loc 1 386 0
 841 0022 D363     		str	r3, [r2, #60]
 842              		.loc 1 387 0
 843 0024 FFF7FEFF 		bl	chSchReadyI
 844              	.LVL74:
 845              	.LBE90:
 846              	.LBE89:
 847              		.loc 1 391 0
 848 0028 E36B     		ldr	r3, [r4, #60]
 849 002a 43B1     		cbz	r3, .L80
 850              	.L74:
 851              	.LVL75:
 852              	.LBB95:
 853              		.loc 1 382 0
 854 002c 1A68     		ldr	r2, [r3]
 855              	.LVL76:
ARM GAS  /var/folders/6q/x_mk5n_j3p7_c40r_2k_78980000gn/T//cch7hiVP.s 			page 16


 856              		.loc 1 381 0
 857 002e D968     		ldr	r1, [r3, #12]
 858              		.loc 1 382 0
 859 0030 9A42     		cmp	r2, r3
 860              		.loc 1 381 0
 861 0032 E163     		str	r1, [r4, #60]
 862              	.LVL77:
 863              		.loc 1 382 0
 864 0034 EED1     		bne	.L81
 865              		.loc 1 390 0
 866 0036 9E60     		str	r6, [r3, #8]
 867              	.LBE95:
 868              		.loc 1 391 0
 869 0038 E36B     		ldr	r3, [r4, #60]
 870              	.LVL78:
 871 003a 002B     		cmp	r3, #0
 872 003c F6D1     		bne	.L74
 873              	.LVL79:
 874              	.L80:
 875              		.loc 1 392 0
 876 003e 236C     		ldr	r3, [r4, #64]
 877 0040 A360     		str	r3, [r4, #8]
 878              		.loc 1 393 0
 879 0042 FFF7FEFF 		bl	chSchRescheduleS
 880              	.LVL80:
 881              	.L71:
 882              	.LBB96:
 883              		.loc 1 395 0
 884 0046 0023     		movs	r3, #0
 885              		.syntax unified
 886              	@ 395 "../ChibiOS/os/kernel/src/chmtx.c" 1
 887 0048 83F31188 		msr     BASEPRI, r3
 888              	@ 0 "" 2
 889              		.thumb
 890              		.syntax unified
 891 004c 70BD     		pop	{r4, r5, r6, pc}
 892              	.LVL81:
 893              	.L83:
 894 004e 00BF     		.align	2
 895              	.L82:
 896 0050 00000000 		.word	rlist
 897              	.LBE96:
 898              		.cfi_endproc
 899              	.LFE14:
 900              		.size	chMtxUnlockAll, .-chMtxUnlockAll
 901              		.text
 902              	.Letext0:
 903              		.file 3 "/Users/Luca/src/vexilla/src/gcc-arm-none-eabi-5_4-2016q3/arm-none-eabi/include/machine/_d
 904              		.file 4 "/Users/Luca/src/vexilla/src/gcc-arm-none-eabi-5_4-2016q3/arm-none-eabi/include/sys/_stdin
 905              		.file 5 "../ChibiOS/os/ports/GCC/ARMCMx/chtypes.h"
 906              		.file 6 "../ChibiOS/os/kernel/include/chlists.h"
 907              		.file 7 "../ChibiOS/os/kernel/include/chthreads.h"
 908              		.file 8 "../ChibiOS/os/ports/GCC/ARMCMx/chcore_v7m.h"
 909              		.file 9 "../ChibiOS/os/kernel/include/chschd.h"
 910              		.file 10 "../ChibiOS/os/kernel/include/chmtx.h"