ARM GAS  /var/folders/6q/x_mk5n_j3p7_c40r_2k_78980000gn/T//ccnCcs5n.s 			page 1


   1              		.syntax unified
   2              		.cpu cortex-m3
   3              		.fpu softvfp
   4              		.eabi_attribute 20, 1
   5              		.eabi_attribute 21, 1
   6              		.eabi_attribute 23, 3
   7              		.eabi_attribute 24, 1
   8              		.eabi_attribute 25, 1
   9              		.eabi_attribute 26, 1
  10              		.eabi_attribute 30, 2
  11              		.eabi_attribute 34, 1
  12              		.eabi_attribute 18, 4
  13              		.thumb
  14              		.syntax unified
  15              		.file	"chprintf.c"
  16              		.text
  17              	.Ltext0:
  18              		.cfi_sections	.debug_frame
  19              		.section	.text.ltoa,"ax",%progbits
  20              		.align	2
  21              		.p2align 4,,15
  22              		.thumb
  23              		.thumb_func
  24              		.type	ltoa, %function
  25              	ltoa:
  26              	.LFB9:
  27              		.file 1 "../ChibiOS/os/various/chprintf.c"
  28              		.loc 1 70 0
  29              		.cfi_startproc
  30              		@ args = 0, pretend = 0, frame = 0
  31              		@ frame_needed = 0, uses_anonymous_args = 0
  32              		@ link register save eliminated.
  33              	.LVL0:
  34 0000 F0B4     		push	{r4, r5, r6, r7}
  35              		.cfi_def_cfa_offset 16
  36              		.cfi_offset 4, -16
  37              		.cfi_offset 5, -12
  38              		.cfi_offset 6, -8
  39              		.cfi_offset 7, -4
  40              	.LBB4:
  41              	.LBB5:
  42              		.loc 1 52 0
  43 0002 00F10B07 		add	r7, r0, #11
  44              	.LVL1:
  45 0006 3C46     		mov	r4, r7
  46 0008 0D46     		mov	r5, r1
  47              	.LVL2:
  48              	.L3:
  49              		.loc 1 54 0
  50 000a B1FBF2F6 		udiv	r6, r1, r2
  51              		.loc 1 60 0
  52 000e B5FBF2F5 		udiv	r5, r5, r2
  53              	.LVL3:
  54              		.loc 1 54 0
  55 0012 02FB1611 		mls	r1, r2, r6, r1
  56              	.LVL4:
  57              		.loc 1 55 0
ARM GAS  /var/folders/6q/x_mk5n_j3p7_c40r_2k_78980000gn/T//ccnCcs5n.s 			page 2


  58 0016 01F13003 		add	r3, r1, #48
  59              	.LVL5:
  60              		.loc 1 56 0
  61 001a 392B     		cmp	r3, #57
  62              		.loc 1 57 0
  63 001c C8BF     		it	gt
  64 001e 01F13703 		addgt	r3, r1, #55
  65              	.LVL6:
  66              		.loc 1 58 0
  67 0022 DBB2     		uxtb	r3, r3
  68              	.LVL7:
  69 0024 04F8013D 		strb	r3, [r4, #-1]!
  70              	.LVL8:
  71              		.loc 1 59 0
  72 0028 3146     		mov	r1, r6
  73              	.LVL9:
  74              		.loc 1 60 0
  75 002a 002D     		cmp	r5, #0
  76 002c EDD1     		bne	.L3
  77              	.LVL10:
  78 002e 3A1B     		subs	r2, r7, r4
  79              	.LVL11:
  80 0030 0244     		add	r2, r2, r0
  81 0032 01E0     		b	.L5
  82              	.LVL12:
  83              	.L10:
  84 0034 14F8013F 		ldrb	r3, [r4, #1]!	@ zero_extendqisi2
  85              	.LVL13:
  86              	.L5:
  87              		.loc 1 64 0
  88 0038 00F8013B 		strb	r3, [r0], #1
  89              	.LVL14:
  90              		.loc 1 65 0
  91 003c 9042     		cmp	r0, r2
  92 003e F9D1     		bne	.L10
  93              	.LVL15:
  94              	.LBE5:
  95              	.LBE4:
  96              		.loc 1 73 0
  97 0040 F0BC     		pop	{r4, r5, r6, r7}
  98              		.cfi_restore 7
  99              		.cfi_restore 6
 100              		.cfi_restore 5
 101              		.cfi_restore 4
 102              		.cfi_def_cfa_offset 0
 103              	.LVL16:
 104 0042 7047     		bx	lr
 105              		.cfi_endproc
 106              	.LFE9:
 107              		.size	ltoa, .-ltoa
 108              		.section	.text.chvprintf,"ax",%progbits
 109              		.align	2
 110              		.p2align 4,,15
 111              		.global	chvprintf
 112              		.thumb
 113              		.thumb_func
 114              		.type	chvprintf, %function
ARM GAS  /var/folders/6q/x_mk5n_j3p7_c40r_2k_78980000gn/T//ccnCcs5n.s 			page 3


 115              	chvprintf:
 116              	.LFB10:
 117              		.loc 1 112 0
 118              		.cfi_startproc
 119              		@ args = 0, pretend = 0, frame = 24
 120              		@ frame_needed = 0, uses_anonymous_args = 0
 121              	.LVL17:
 122 0000 2DE9F04F 		push	{r4, r5, r6, r7, r8, r9, r10, fp, lr}
 123              		.cfi_def_cfa_offset 36
 124              		.cfi_offset 4, -36
 125              		.cfi_offset 5, -32
 126              		.cfi_offset 6, -28
 127              		.cfi_offset 7, -24
 128              		.cfi_offset 8, -20
 129              		.cfi_offset 9, -16
 130              		.cfi_offset 10, -12
 131              		.cfi_offset 11, -8
 132              		.cfi_offset 14, -4
 133 0004 0646     		mov	r6, r0
 134 0006 0D46     		mov	r5, r1
 135 0008 1746     		mov	r7, r2
 136 000a 87B0     		sub	sp, sp, #28
 137              		.cfi_def_cfa_offset 64
 138 000c 0DF10C0A 		add	r10, sp, #12
 139 0010 0DF10D03 		add	r3, sp, #13
 140 0014 CAEB0303 		rsb	r3, r10, r3
 141 0018 0193     		str	r3, [sp, #4]
 142              	.LVL18:
 143              	.L12:
 144              		.loc 1 125 0
 145 001a 2978     		ldrb	r1, [r5]	@ zero_extendqisi2
 146 001c 6B1C     		adds	r3, r5, #1
 147              	.LVL19:
 148              		.loc 1 126 0
 149 001e 51B1     		cbz	r1, .L11
 150              	.L98:
 151              		.loc 1 128 0
 152 0020 2529     		cmp	r1, #37
 153 0022 0BD0     		beq	.L14
 154              		.loc 1 125 0
 155 0024 1D46     		mov	r5, r3
 156              		.loc 1 129 0
 157 0026 3268     		ldr	r2, [r6]
 158              	.LVL20:
 159 0028 3046     		mov	r0, r6
 160 002a 9268     		ldr	r2, [r2, #8]
 161 002c 9047     		blx	r2
 162              	.LVL21:
 163              		.loc 1 125 0
 164 002e 2978     		ldrb	r1, [r5]	@ zero_extendqisi2
 165 0030 6B1C     		adds	r3, r5, #1
 166              	.LVL22:
 167              		.loc 1 126 0
 168 0032 0029     		cmp	r1, #0
 169 0034 F4D1     		bne	.L98
 170              	.LVL23:
 171              	.L11:
ARM GAS  /var/folders/6q/x_mk5n_j3p7_c40r_2k_78980000gn/T//ccnCcs5n.s 			page 4


 172              		.loc 1 261 0
 173 0036 07B0     		add	sp, sp, #28
 174              		.cfi_remember_state
 175              		.cfi_def_cfa_offset 36
 176              		@ sp needed
 177 0038 BDE8F08F 		pop	{r4, r5, r6, r7, r8, r9, r10, fp, pc}
 178              	.LVL24:
 179              	.L14:
 180              		.cfi_restore_state
 181              		.loc 1 135 0
 182 003c 6A78     		ldrb	r2, [r5, #1]	@ zero_extendqisi2
 183              	.LVL25:
 184 003e 2D2A     		cmp	r2, #45
 185 0040 05BF     		ittet	eq
 186 0042 AA78     		ldrbeq	r2, [r5, #2]	@ zero_extendqisi2
 187              		.loc 1 137 0
 188 0044 0121     		moveq	r1, #1
 189              	.LVL26:
 190              		.loc 1 134 0
 191 0046 0021     		movne	r1, #0
 192              		.loc 1 136 0
 193 0048 AB1C     		addeq	r3, r5, #2
 194              	.LVL27:
 195              		.loc 1 140 0
 196 004a 2E2A     		cmp	r2, #46
 197              		.loc 1 134 0
 198 004c 0091     		str	r1, [sp]
 199              	.LVL28:
 200              		.loc 1 140 0
 201 004e 00F00D81 		beq	.L17
 202              		.loc 1 140 0 is_stmt 0 discriminator 1
 203 0052 302A     		cmp	r2, #48
 204 0054 00F00A81 		beq	.L17
 205              		.loc 1 139 0 is_stmt 1
 206 0058 4FF02008 		mov	r8, #32
 207              	.LVL29:
 208              	.L18:
 209 005c 591C     		adds	r1, r3, #1
 210              		.loc 1 144 0
 211 005e 0024     		movs	r4, #0
 212 0060 05E0     		b	.L21
 213              	.LVL30:
 214              	.L99:
 215              		.loc 1 150 0
 216 0062 3B78     		ldrb	r3, [r7]	@ zero_extendqisi2
 217              	.LVL31:
 218 0064 0437     		adds	r7, r7, #4
 219              	.LVL32:
 220              	.L19:
 221 0066 2A78     		ldrb	r2, [r5]	@ zero_extendqisi2
 222              		.loc 1 153 0
 223 0068 03EB4004 		add	r4, r3, r0, lsl #1
 224              	.LVL33:
 225 006c 0131     		adds	r1, r1, #1
 226              	.LVL34:
 227              	.L21:
 228              		.loc 1 147 0
ARM GAS  /var/folders/6q/x_mk5n_j3p7_c40r_2k_78980000gn/T//ccnCcs5n.s 			page 5


 229 006e A2F13003 		sub	r3, r2, #48
 230 0072 DBB2     		uxtb	r3, r3
 231 0074 092B     		cmp	r3, #9
 232              		.loc 1 146 0
 233 0076 0D46     		mov	r5, r1
 234              	.LVL35:
 235              		.loc 1 153 0
 236 0078 04EB8400 		add	r0, r4, r4, lsl #2
 237              		.loc 1 147 0
 238 007c F3D9     		bls	.L19
 239              		.loc 1 149 0
 240 007e 2A2A     		cmp	r2, #42
 241 0080 EFD0     		beq	.L99
 242              	.LVL36:
 243              		.loc 1 156 0
 244 0082 2E2A     		cmp	r2, #46
 245 0084 4FF00001 		mov	r1, #0
 246              	.LVL37:
 247 0088 32D0     		beq	.L24
 248              	.LVL38:
 249              		.loc 1 170 0
 250 008a 02F0DF03 		and	r3, r2, #223
 251 008e 4C2B     		cmp	r3, #76
 252 0090 3DD0     		beq	.L100
 253              	.L86:
 254              		.loc 1 176 0
 255 0092 A2F14100 		sub	r0, r2, #65
 256 0096 C0B2     		uxtb	r0, r0
 257 0098 1928     		cmp	r0, #25
 258              		.loc 1 179 0
 259 009a A2F14403 		sub	r3, r2, #68
 260              		.loc 1 176 0
 261 009e 8CBF     		ite	hi
 262 00a0 4FF0000E 		movhi	lr, #0
 263 00a4 4FF0010E 		movls	lr, #1
 264              	.LVL39:
 265              		.loc 1 179 0
 266 00a8 342B     		cmp	r3, #52
 267 00aa 00F2D780 		bhi	.L27
 268 00ae DFE803F0 		tbb	[pc, r3]
 269              	.L36:
 270 00b2 C6       		.byte	(.L44-.L36)/2
 271 00b3 D5       		.byte	(.L27-.L36)/2
 272 00b4 D5       		.byte	(.L27-.L36)/2
 273 00b5 D5       		.byte	(.L27-.L36)/2
 274 00b6 D5       		.byte	(.L27-.L36)/2
 275 00b7 C6       		.byte	(.L44-.L36)/2
 276 00b8 D5       		.byte	(.L27-.L36)/2
 277 00b9 D5       		.byte	(.L27-.L36)/2
 278 00ba D5       		.byte	(.L27-.L36)/2
 279 00bb D5       		.byte	(.L27-.L36)/2
 280 00bc D5       		.byte	(.L27-.L36)/2
 281 00bd C4       		.byte	(.L30-.L36)/2
 282 00be D5       		.byte	(.L27-.L36)/2
 283 00bf D5       		.byte	(.L27-.L36)/2
 284 00c0 D5       		.byte	(.L27-.L36)/2
 285 00c1 D5       		.byte	(.L27-.L36)/2
ARM GAS  /var/folders/6q/x_mk5n_j3p7_c40r_2k_78980000gn/T//ccnCcs5n.s 			page 6


 286 00c2 D5       		.byte	(.L27-.L36)/2
 287 00c3 8E       		.byte	(.L31-.L36)/2
 288 00c4 D5       		.byte	(.L27-.L36)/2
 289 00c5 D5       		.byte	(.L27-.L36)/2
 290 00c6 55       		.byte	(.L67-.L36)/2
 291 00c7 D5       		.byte	(.L27-.L36)/2
 292 00c8 D5       		.byte	(.L27-.L36)/2
 293 00c9 D5       		.byte	(.L27-.L36)/2
 294 00ca D5       		.byte	(.L27-.L36)/2
 295 00cb D5       		.byte	(.L27-.L36)/2
 296 00cc D5       		.byte	(.L27-.L36)/2
 297 00cd D5       		.byte	(.L27-.L36)/2
 298 00ce D5       		.byte	(.L27-.L36)/2
 299 00cf D5       		.byte	(.L27-.L36)/2
 300 00d0 D5       		.byte	(.L27-.L36)/2
 301 00d1 B8       		.byte	(.L33-.L36)/2
 302 00d2 C6       		.byte	(.L44-.L36)/2
 303 00d3 D5       		.byte	(.L27-.L36)/2
 304 00d4 D5       		.byte	(.L27-.L36)/2
 305 00d5 D5       		.byte	(.L27-.L36)/2
 306 00d6 D5       		.byte	(.L27-.L36)/2
 307 00d7 C6       		.byte	(.L44-.L36)/2
 308 00d8 D5       		.byte	(.L27-.L36)/2
 309 00d9 D5       		.byte	(.L27-.L36)/2
 310 00da D5       		.byte	(.L27-.L36)/2
 311 00db D5       		.byte	(.L27-.L36)/2
 312 00dc D5       		.byte	(.L27-.L36)/2
 313 00dd C4       		.byte	(.L30-.L36)/2
 314 00de D5       		.byte	(.L27-.L36)/2
 315 00df D5       		.byte	(.L27-.L36)/2
 316 00e0 D5       		.byte	(.L27-.L36)/2
 317 00e1 90       		.byte	(.L34-.L36)/2
 318 00e2 D5       		.byte	(.L27-.L36)/2
 319 00e3 8E       		.byte	(.L31-.L36)/2
 320 00e4 D5       		.byte	(.L27-.L36)/2
 321 00e5 D5       		.byte	(.L27-.L36)/2
 322 00e6 55       		.byte	(.L67-.L36)/2
 323              	.LVL40:
 324 00e7 00       		.p2align 1
 325              	.L101:
 326              		.loc 1 162 0
 327 00e8 3B78     		ldrb	r3, [r7]	@ zero_extendqisi2
 328              	.LVL41:
 329 00ea 0437     		adds	r7, r7, #4
 330              	.LVL42:
 331              	.L23:
 332              		.loc 1 166 0
 333 00ec 03EB4001 		add	r1, r3, r0, lsl #1
 334              	.LVL43:
 335              	.L24:
 336              		.loc 1 158 0
 337 00f0 15F8012B 		ldrb	r2, [r5], #1	@ zero_extendqisi2
 338              	.LVL44:
 339              		.loc 1 165 0
 340 00f4 01EB8100 		add	r0, r1, r1, lsl #2
 341              		.loc 1 159 0
 342 00f8 A2F13003 		sub	r3, r2, #48
ARM GAS  /var/folders/6q/x_mk5n_j3p7_c40r_2k_78980000gn/T//ccnCcs5n.s 			page 7


 343 00fc DBB2     		uxtb	r3, r3
 344 00fe 092B     		cmp	r3, #9
 345 0100 F4D9     		bls	.L23
 346              		.loc 1 161 0
 347 0102 2A2A     		cmp	r2, #42
 348 0104 F0D0     		beq	.L101
 349              	.LVL45:
 350              		.loc 1 170 0
 351 0106 02F0DF03 		and	r3, r2, #223
 352 010a 4C2B     		cmp	r3, #76
 353 010c C1D1     		bne	.L86
 354              	.L100:
 355              	.LVL46:
 356              		.loc 1 172 0
 357 010e 2878     		ldrb	r0, [r5]	@ zero_extendqisi2
 358 0110 0028     		cmp	r0, #0
 359 0112 00F0A380 		beq	.L27
 360              		.loc 1 179 0
 361 0116 A0F14403 		sub	r3, r0, #68
 362              		.loc 1 173 0
 363 011a 0135     		adds	r5, r5, #1
 364              	.LVL47:
 365              		.loc 1 179 0
 366 011c 342B     		cmp	r3, #52
 367 011e 00F29C80 		bhi	.L64
 368 0122 DFE803F0 		tbb	[pc, r3]
 369              	.L29:
 370 0126 8C       		.byte	(.L44-.L29)/2
 371 0127 9A       		.byte	(.L64-.L29)/2
 372 0128 9A       		.byte	(.L64-.L29)/2
 373 0129 9A       		.byte	(.L64-.L29)/2
 374 012a 9A       		.byte	(.L64-.L29)/2
 375 012b 8C       		.byte	(.L44-.L29)/2
 376 012c 9A       		.byte	(.L64-.L29)/2
 377 012d 9A       		.byte	(.L64-.L29)/2
 378 012e 9A       		.byte	(.L64-.L29)/2
 379 012f 9A       		.byte	(.L64-.L29)/2
 380 0130 9A       		.byte	(.L64-.L29)/2
 381 0131 8A       		.byte	(.L30-.L29)/2
 382 0132 9A       		.byte	(.L64-.L29)/2
 383 0133 9A       		.byte	(.L64-.L29)/2
 384 0134 9A       		.byte	(.L64-.L29)/2
 385 0135 9A       		.byte	(.L64-.L29)/2
 386 0136 9A       		.byte	(.L64-.L29)/2
 387 0137 54       		.byte	(.L31-.L29)/2
 388 0138 9A       		.byte	(.L64-.L29)/2
 389 0139 9A       		.byte	(.L64-.L29)/2
 390 013a 1B       		.byte	(.L67-.L29)/2
 391 013b 9A       		.byte	(.L64-.L29)/2
 392 013c 9A       		.byte	(.L64-.L29)/2
 393 013d 9A       		.byte	(.L64-.L29)/2
 394 013e 9A       		.byte	(.L64-.L29)/2
 395 013f 9A       		.byte	(.L64-.L29)/2
 396 0140 9A       		.byte	(.L64-.L29)/2
 397 0141 9A       		.byte	(.L64-.L29)/2
 398 0142 9A       		.byte	(.L64-.L29)/2
 399 0143 9A       		.byte	(.L64-.L29)/2
ARM GAS  /var/folders/6q/x_mk5n_j3p7_c40r_2k_78980000gn/T//ccnCcs5n.s 			page 8


 400 0144 9A       		.byte	(.L64-.L29)/2
 401 0145 7E       		.byte	(.L33-.L29)/2
 402 0146 8C       		.byte	(.L44-.L29)/2
 403 0147 9A       		.byte	(.L64-.L29)/2
 404 0148 9A       		.byte	(.L64-.L29)/2
 405 0149 9A       		.byte	(.L64-.L29)/2
 406 014a 9A       		.byte	(.L64-.L29)/2
 407 014b 8C       		.byte	(.L44-.L29)/2
 408 014c 9A       		.byte	(.L64-.L29)/2
 409 014d 9A       		.byte	(.L64-.L29)/2
 410 014e 9A       		.byte	(.L64-.L29)/2
 411 014f 9A       		.byte	(.L64-.L29)/2
 412 0150 9A       		.byte	(.L64-.L29)/2
 413 0151 8A       		.byte	(.L30-.L29)/2
 414 0152 9A       		.byte	(.L64-.L29)/2
 415 0153 9A       		.byte	(.L64-.L29)/2
 416 0154 9A       		.byte	(.L64-.L29)/2
 417 0155 56       		.byte	(.L34-.L29)/2
 418 0156 9A       		.byte	(.L64-.L29)/2
 419 0157 54       		.byte	(.L31-.L29)/2
 420 0158 9A       		.byte	(.L64-.L29)/2
 421 0159 9A       		.byte	(.L64-.L29)/2
 422 015a 1B       		.byte	(.L67-.L29)/2
 423              	.L37:
 424              	.LVL48:
 425 015b 00       		.p2align 1
 426              	.L67:
 427 015c 1022     		movs	r2, #16
 428              	.L47:
 429              		.loc 1 232 0
 430 015e 3968     		ldr	r1, [r7]
 431              	.LVL49:
 432              		.loc 1 233 0
 433 0160 5046     		mov	r0, r10
 434 0162 FFF7FEFF 		bl	ltoa
 435              	.LVL50:
 436              		.loc 1 133 0
 437 0166 D346     		mov	fp, r10
 438 0168 CAEB0000 		rsb	r0, r10, r0
 439              		.loc 1 232 0
 440 016c 0437     		adds	r7, r7, #4
 441              	.LVL51:
 442 016e 00F1FF39 		add	r9, r0, #-1
 443              	.LVL52:
 444              	.L38:
 445              		.loc 1 242 0
 446 0172 009B     		ldr	r3, [sp]
 447              		.loc 1 240 0
 448 0174 241A     		subs	r4, r4, r0
 449              	.LVL53:
 450 0176 24EAE474 		bic	r4, r4, r4, asr #31
 451              	.LVL54:
 452              		.loc 1 242 0
 453 017a 002B     		cmp	r3, #0
 454 017c 4DD1     		bne	.L49
 455              	.LVL55:
 456              	.L60:
ARM GAS  /var/folders/6q/x_mk5n_j3p7_c40r_2k_78980000gn/T//ccnCcs5n.s 			page 9


 457              		.loc 1 243 0
 458 017e 6442     		negs	r4, r4
 459              	.LVL56:
 460              		.loc 1 244 0
 461 0180 5CB1     		cbz	r4, .L50
 462              		.loc 1 245 0
 463 0182 9BF80010 		ldrb	r1, [fp]	@ zero_extendqisi2
 464 0186 2D29     		cmp	r1, #45
 465 0188 00F08280 		beq	.L102
 466              	.LVL57:
 467              	.L52:
 468              		.loc 1 250 0 discriminator 1
 469 018c 3368     		ldr	r3, [r6]
 470 018e 4146     		mov	r1, r8
 471 0190 9B68     		ldr	r3, [r3, #8]
 472 0192 3046     		mov	r0, r6
 473 0194 9847     		blx	r3
 474              	.LVL58:
 475              		.loc 1 251 0 discriminator 1
 476 0196 0134     		adds	r4, r4, #1
 477              	.LVL59:
 478 0198 F8D1     		bne	.L52
 479              	.L50:
 480              	.LVL60:
 481              		.loc 1 253 0
 482 019a B9F1000F 		cmp	r9, #0
 483 019e FFF63CAF 		blt	.L12
 484              	.LVL61:
 485              	.L55:
 486              		.loc 1 254 0
 487 01a2 3368     		ldr	r3, [r6]
 488              		.loc 1 253 0
 489 01a4 09F1FF39 		add	r9, r9, #-1
 490              	.LVL62:
 491              		.loc 1 254 0
 492 01a8 9B68     		ldr	r3, [r3, #8]
 493 01aa 1BF8011B 		ldrb	r1, [fp], #1	@ zero_extendqisi2
 494              	.LVL63:
 495 01ae 3046     		mov	r0, r6
 496 01b0 9847     		blx	r3
 497              	.LVL64:
 498              		.loc 1 253 0
 499 01b2 B9F1FF3F 		cmp	r9, #-1
 500 01b6 F4D1     		bne	.L55
 501              	.LVL65:
 502              	.L54:
 503              		.loc 1 256 0
 504 01b8 002C     		cmp	r4, #0
 505 01ba 3FF42EAF 		beq	.L12
 506              	.L56:
 507              		.loc 1 257 0
 508 01be 3368     		ldr	r3, [r6]
 509 01c0 4146     		mov	r1, r8
 510 01c2 9B68     		ldr	r3, [r3, #8]
 511 01c4 3046     		mov	r0, r6
 512 01c6 9847     		blx	r3
 513              	.LVL66:
ARM GAS  /var/folders/6q/x_mk5n_j3p7_c40r_2k_78980000gn/T//ccnCcs5n.s 			page 10


 514              		.loc 1 256 0
 515 01c8 013C     		subs	r4, r4, #1
 516              	.LVL67:
 517 01ca F8D1     		bne	.L56
 518 01cc 25E7     		b	.L12
 519              	.LVL68:
 520              	.L31:
 521              		.loc 1 224 0
 522 01ce 0A22     		movs	r2, #10
 523 01d0 C5E7     		b	.L47
 524              	.LVL69:
 525              	.L34:
 526              		.loc 1 186 0
 527 01d2 D7F800B0 		ldr	fp, [r7]
 528              		.loc 1 187 0
 529 01d6 3A4B     		ldr	r3, .L105
 530              		.loc 1 186 0
 531 01d8 0437     		adds	r7, r7, #4
 532              	.LVL70:
 533              		.loc 1 187 0
 534 01da BBF1000F 		cmp	fp, #0
 535 01de 08BF     		it	eq
 536 01e0 9B46     		moveq	fp, r3
 537              	.LVL71:
 538              		.loc 1 190 0
 539 01e2 9BF80030 		ldrb	r3, [fp]	@ zero_extendqisi2
 540              		.loc 1 188 0
 541 01e6 0029     		cmp	r1, #0
 542 01e8 45D0     		beq	.L40
 543              	.LVL72:
 544              		.loc 1 190 0 discriminator 1
 545 01ea 002B     		cmp	r3, #0
 546 01ec 47D0     		beq	.L41
 547              		.loc 1 190 0 is_stmt 0
 548 01ee 0139     		subs	r1, r1, #1
 549              	.LVL73:
 550              	.L58:
 551              		.loc 1 190 0 discriminator 4
 552 01f0 5846     		mov	r0, fp
 553 01f2 01E0     		b	.L43
 554              	.LVL74:
 555              	.L103:
 556              		.loc 1 190 0 discriminator 3
 557 01f4 4B1C     		adds	r3, r1, #1
 558 01f6 04D0     		beq	.L95
 559              	.LVL75:
 560              	.L43:
 561              		.loc 1 190 0 discriminator 4
 562 01f8 10F8013F 		ldrb	r3, [r0, #1]!	@ zero_extendqisi2
 563              	.LVL76:
 564 01fc 0139     		subs	r1, r1, #1
 565              	.LVL77:
 566 01fe 002B     		cmp	r3, #0
 567 0200 F8D1     		bne	.L103
 568              	.L95:
 569 0202 CBEB0000 		rsb	r0, fp, r0
 570              	.LVL78:
ARM GAS  /var/folders/6q/x_mk5n_j3p7_c40r_2k_78980000gn/T//ccnCcs5n.s 			page 11


 571              		.loc 1 242 0 is_stmt 1
 572 0206 009B     		ldr	r3, [sp]
 573              		.loc 1 240 0
 574 0208 241A     		subs	r4, r4, r0
 575              	.LVL79:
 576 020a 00F1FF39 		add	r9, r0, #-1
 577              		.loc 1 185 0
 578 020e 4FF02008 		mov	r8, #32
 579              	.LVL80:
 580 0212 24EAE474 		bic	r4, r4, r4, asr #31
 581              	.LVL81:
 582              		.loc 1 242 0
 583 0216 002B     		cmp	r3, #0
 584 0218 B1D0     		beq	.L60
 585              	.LVL82:
 586              	.L49:
 587              		.loc 1 253 0
 588 021a B9F1000F 		cmp	r9, #0
 589 021e C0DA     		bge	.L55
 590 0220 CAE7     		b	.L54
 591              	.LVL83:
 592              	.L33:
 593              		.loc 1 182 0
 594 0222 3B68     		ldr	r3, [r7]
 595 0224 019A     		ldr	r2, [sp, #4]
 596 0226 8DF80C30 		strb	r3, [sp, #12]
 597 022a 1046     		mov	r0, r2
 598 022c 0437     		adds	r7, r7, #4
 599 022e 02F1FF39 		add	r9, r2, #-1
 600              		.loc 1 181 0
 601 0232 4FF02008 		mov	r8, #32
 602              		.loc 1 133 0
 603 0236 D346     		mov	fp, r10
 604              		.loc 1 183 0
 605 0238 9BE7     		b	.L38
 606              	.LVL84:
 607              	.L30:
 608 023a 0822     		movs	r2, #8
 609 023c 8FE7     		b	.L47
 610              	.LVL85:
 611              	.L44:
 612              		.loc 1 200 0
 613 023e 3968     		ldr	r1, [r7]
 614              	.LVL86:
 615 0240 0437     		adds	r7, r7, #4
 616              		.loc 1 201 0
 617 0242 0029     		cmp	r1, #0
 618 0244 31DB     		blt	.L104
 619              		.loc 1 132 0
 620 0246 5046     		mov	r0, r10
 621              	.LVL87:
 622              	.L46:
 623              		.loc 1 205 0
 624 0248 0A22     		movs	r2, #10
 625 024a FFF7FEFF 		bl	ltoa
 626              	.LVL88:
 627 024e CAEB0000 		rsb	r0, r10, r0
ARM GAS  /var/folders/6q/x_mk5n_j3p7_c40r_2k_78980000gn/T//ccnCcs5n.s 			page 12


 628              	.LVL89:
 629 0252 00F1FF39 		add	r9, r0, #-1
 630              		.loc 1 133 0
 631 0256 D346     		mov	fp, r10
 632              		.loc 1 206 0
 633 0258 8BE7     		b	.L38
 634              	.LVL90:
 635              	.L64:
 636              		.loc 1 179 0
 637 025a 0246     		mov	r2, r0
 638              	.LVL91:
 639              	.L27:
 640 025c 019B     		ldr	r3, [sp, #4]
 641              		.loc 1 133 0
 642 025e D346     		mov	fp, r10
 643 0260 1846     		mov	r0, r3
 644              		.loc 1 236 0
 645 0262 8DF80C20 		strb	r2, [sp, #12]
 646 0266 03F1FF39 		add	r9, r3, #-1
 647              		.loc 1 237 0
 648 026a 82E7     		b	.L38
 649              	.LVL92:
 650              	.L17:
 651 026c 5A78     		ldrb	r2, [r3, #1]	@ zero_extendqisi2
 652              		.loc 1 142 0
 653 026e 4FF03008 		mov	r8, #48
 654              		.loc 1 141 0
 655 0272 0133     		adds	r3, r3, #1
 656              	.LVL93:
 657 0274 F2E6     		b	.L18
 658              	.LVL94:
 659              	.L40:
 660              		.loc 1 190 0
 661 0276 47F6FE71 		movw	r1, #32766
 662 027a 002B     		cmp	r3, #0
 663 027c B8D1     		bne	.L58
 664              	.LVL95:
 665              	.L41:
 666              		.loc 1 242 0
 667 027e 009B     		ldr	r3, [sp]
 668 0280 24EAE474 		bic	r4, r4, r4, asr #31
 669              	.LVL96:
 670 0284 C3B9     		cbnz	r3, .L72
 671 0286 4FF0FF39 		mov	r9, #-1
 672 028a 4FF02008 		mov	r8, #32
 673 028e 76E7     		b	.L60
 674              	.LVL97:
 675              	.L102:
 676              		.loc 1 245 0 discriminator 1
 677 0290 B8F1300F 		cmp	r8, #48
 678 0294 7FF47AAF 		bne	.L52
 679              		.loc 1 246 0
 680 0298 3268     		ldr	r2, [r6]
 681 029a 3046     		mov	r0, r6
 682 029c 9268     		ldr	r2, [r2, #8]
 683 029e 9047     		blx	r2
 684              	.LVL98:
ARM GAS  /var/folders/6q/x_mk5n_j3p7_c40r_2k_78980000gn/T//ccnCcs5n.s 			page 13


 685 02a0 0BF1010B 		add	fp, fp, #1
 686              	.LVL99:
 687 02a4 09F1FF39 		add	r9, r9, #-1
 688 02a8 70E7     		b	.L52
 689              	.LVL100:
 690              	.L104:
 691              		.loc 1 202 0
 692 02aa 2D23     		movs	r3, #45
 693              		.loc 1 203 0
 694 02ac 4942     		negs	r1, r1
 695              	.LVL101:
 696              		.loc 1 202 0
 697 02ae 8DF80C30 		strb	r3, [sp, #12]
 698 02b2 0DF10D00 		add	r0, sp, #13
 699              	.LVL102:
 700 02b6 C7E7     		b	.L46
 701              	.LVL103:
 702              	.L72:
 703              		.loc 1 242 0
 704 02b8 4FF02008 		mov	r8, #32
 705 02bc 7CE7     		b	.L54
 706              	.L106:
 707 02be 00BF     		.align	2
 708              	.L105:
 709 02c0 00000000 		.word	.LC0
 710              		.cfi_endproc
 711              	.LFE10:
 712              		.size	chvprintf, .-chvprintf
 713              		.section	.text.chsnprintf,"ax",%progbits
 714              		.align	2
 715              		.p2align 4,,15
 716              		.global	chsnprintf
 717              		.thumb
 718              		.thumb_func
 719              		.type	chsnprintf, %function
 720              	chsnprintf:
 721              	.LFB11:
 722              		.loc 1 288 0
 723              		.cfi_startproc
 724              		@ args = 4, pretend = 8, frame = 24
 725              		@ frame_needed = 0, uses_anonymous_args = 1
 726              	.LVL104:
 727 0000 0CB4     		push	{r2, r3}
 728              		.cfi_def_cfa_offset 8
 729              		.cfi_offset 2, -8
 730              		.cfi_offset 3, -4
 731 0002 30B5     		push	{r4, r5, lr}
 732              		.cfi_def_cfa_offset 20
 733              		.cfi_offset 4, -20
 734              		.cfi_offset 5, -16
 735              		.cfi_offset 14, -12
 736 0004 87B0     		sub	sp, sp, #28
 737              		.cfi_def_cfa_offset 48
 738              		.loc 1 288 0
 739 0006 0AAC     		add	r4, sp, #40
 740 0008 54F8045B 		ldr	r5, [r4], #4
 741              		.loc 1 294 0
ARM GAS  /var/folders/6q/x_mk5n_j3p7_c40r_2k_78980000gn/T//ccnCcs5n.s 			page 14


 742 000c 0A46     		mov	r2, r1
 743 000e 0023     		movs	r3, #0
 744 0010 0146     		mov	r1, r0
 745              	.LVL105:
 746 0012 01A8     		add	r0, sp, #4
 747              	.LVL106:
 748 0014 FFF7FEFF 		bl	msObjectInit
 749              	.LVL107:
 750              		.loc 1 299 0
 751 0018 2946     		mov	r1, r5
 752 001a 2246     		mov	r2, r4
 753 001c 01A8     		add	r0, sp, #4
 754              	.LVL108:
 755              		.loc 1 298 0
 756 001e 0094     		str	r4, [sp]
 757              		.loc 1 299 0
 758 0020 FFF7FEFF 		bl	chvprintf
 759              	.LVL109:
 760              		.loc 1 303 0
 761 0024 019B     		ldr	r3, [sp, #4]
 762 0026 01A8     		add	r0, sp, #4
 763              	.LVL110:
 764 0028 9B68     		ldr	r3, [r3, #8]
 765 002a 0021     		movs	r1, #0
 766 002c 9847     		blx	r3
 767              	.LVL111:
 768              		.loc 1 304 0
 769 002e 0498     		ldr	r0, [sp, #16]
 770              		.loc 1 305 0
 771 0030 0138     		subs	r0, r0, #1
 772 0032 07B0     		add	sp, sp, #28
 773              		.cfi_def_cfa_offset 20
 774              		@ sp needed
 775 0034 BDE83040 		pop	{r4, r5, lr}
 776              		.cfi_restore 14
 777              		.cfi_restore 5
 778              		.cfi_restore 4
 779              		.cfi_def_cfa_offset 8
 780 0038 02B0     		add	sp, sp, #8
 781              		.cfi_restore 3
 782              		.cfi_restore 2
 783              		.cfi_def_cfa_offset 0
 784 003a 7047     		bx	lr
 785              		.cfi_endproc
 786              	.LFE11:
 787              		.size	chsnprintf, .-chsnprintf
 788              		.section	.rodata.str1.4,"aMS",%progbits,1
 789              		.align	2
 790              	.LC0:
 791 0000 286E756C 		.ascii	"(null)\000"
 791      6C2900
 792              		.text
 793              	.Letext0:
 794              		.file 2 "/Users/Luca/src/vexilla/src/gcc-arm-none-eabi-5_4-2016q3/lib/gcc/arm-none-eabi/5.4.1/incl
 795              		.file 3 "/Users/Luca/src/vexilla/src/gcc-arm-none-eabi-5_4-2016q3/arm-none-eabi/include/machine/_d
 796              		.file 4 "/Users/Luca/src/vexilla/src/gcc-arm-none-eabi-5_4-2016q3/arm-none-eabi/include/sys/_stdin
 797              		.file 5 "../ChibiOS/os/ports/GCC/ARMCMx/chtypes.h"
ARM GAS  /var/folders/6q/x_mk5n_j3p7_c40r_2k_78980000gn/T//ccnCcs5n.s 			page 15


 798              		.file 6 "../ChibiOS/os/kernel/include/chstreams.h"
 799              		.file 7 "/Users/Luca/src/vexilla/src/gcc-arm-none-eabi-5_4-2016q3/lib/gcc/arm-none-eabi/5.4.1/incl
 800              		.file 8 "<built-in>"
 801              		.file 9 "../ChibiOS/os/various/memstreams.h"