ARM GAS  /var/folders/6q/x_mk5n_j3p7_c40r_2k_78980000gn/T//ccLnxSft.s 			page 1


   1              		.syntax unified
   2              		.cpu cortex-m3
   3              		.fpu softvfp
   4              		.eabi_attribute 20, 1
   5              		.eabi_attribute 21, 1
   6              		.eabi_attribute 23, 3
   7              		.eabi_attribute 24, 1
   8              		.eabi_attribute 25, 1
   9              		.eabi_attribute 26, 1
  10              		.eabi_attribute 30, 2
  11              		.eabi_attribute 34, 1
  12              		.eabi_attribute 18, 4
  13              		.thumb
  14              		.syntax unified
  15              		.file	"chqueues.c"
  16              		.text
  17              	.Ltext0:
  18              		.cfi_sections	.debug_frame
  19              		.section	.text.qwait,"ax",%progbits
  20              		.align	2
  21              		.p2align 4,,15
  22              		.thumb
  23              		.thumb_func
  24              		.type	qwait, %function
  25              	qwait:
  26              	.LFB7:
  27              		.file 1 "../ChibiOS/os/kernel/src/chqueues.c"
  28              		.loc 1 70 0
  29              		.cfi_startproc
  30              		@ args = 0, pretend = 0, frame = 0
  31              		@ frame_needed = 0, uses_anonymous_args = 0
  32              		@ link register save eliminated.
  33              	.LVL0:
  34              		.loc 1 72 0
  35 0000 69B1     		cbz	r1, .L2
  36 0002 0246     		mov	r2, r0
  37              		.loc 1 74 0
  38 0004 074B     		ldr	r3, .L5
  39              		.loc 1 70 0
  40 0006 10B4     		push	{r4}
  41              		.cfi_def_cfa_offset 4
  42              		.cfi_offset 4, -4
  43              		.loc 1 74 0
  44 0008 9B69     		ldr	r3, [r3, #24]
  45              		.loc 1 76 0
  46 000a 0D20     		movs	r0, #13
  47              	.LVL1:
  48              		.loc 1 74 0
  49 000c 5A62     		str	r2, [r3, #36]
  50              	.LVL2:
  51              	.LBB12:
  52              	.LBB13:
  53              		.file 2 "../ChibiOS/os/kernel/include/chinline.h"
  54              		.loc 2 55 0
  55 000e 5468     		ldr	r4, [r2, #4]
  56 0010 83E81400 		stmia	r3, {r2, r4}
  57              		.loc 2 56 0
ARM GAS  /var/folders/6q/x_mk5n_j3p7_c40r_2k_78980000gn/T//ccLnxSft.s 			page 2


  58 0014 5360     		str	r3, [r2, #4]
  59 0016 2360     		str	r3, [r4]
  60              	.LVL3:
  61              	.LBE13:
  62              	.LBE12:
  63              		.loc 1 77 0
  64 0018 10BC     		pop	{r4}
  65              		.cfi_restore 4
  66              		.cfi_def_cfa_offset 0
  67              		.loc 1 76 0
  68 001a FFF7FEBF 		b	chSchGoSleepTimeoutS
  69              	.LVL4:
  70              	.L2:
  71              		.loc 1 77 0
  72 001e 4FF0FF30 		mov	r0, #-1
  73              	.LVL5:
  74 0022 7047     		bx	lr
  75              	.L6:
  76              		.align	2
  77              	.L5:
  78 0024 00000000 		.word	rlist
  79              		.cfi_endproc
  80              	.LFE7:
  81              		.size	qwait, .-qwait
  82              		.section	.text.chIQInit,"ax",%progbits
  83              		.align	2
  84              		.p2align 4,,15
  85              		.global	chIQInit
  86              		.thumb
  87              		.thumb_func
  88              		.type	chIQInit, %function
  89              	chIQInit:
  90              	.LFB8:
  91              		.loc 1 96 0
  92              		.cfi_startproc
  93              		@ args = 4, pretend = 0, frame = 0
  94              		@ frame_needed = 0, uses_anonymous_args = 0
  95              		@ link register save eliminated.
  96              	.LVL6:
  97 0000 30B4     		push	{r4, r5}
  98              		.cfi_def_cfa_offset 8
  99              		.cfi_offset 4, -8
 100              		.cfi_offset 5, -4
 101              		.loc 1 96 0
 102 0002 029C     		ldr	r4, [sp, #8]
 103              		.loc 1 99 0
 104 0004 0025     		movs	r5, #0
 105              		.loc 1 101 0
 106 0006 0A44     		add	r2, r2, r1
 107              	.LVL7:
 108              		.loc 1 99 0
 109 0008 8560     		str	r5, [r0, #8]
 110              		.loc 1 103 0
 111 000a 0462     		str	r4, [r0, #32]
 112              		.loc 1 101 0
 113 000c 0261     		str	r2, [r0, #16]
 114              		.loc 1 98 0
ARM GAS  /var/folders/6q/x_mk5n_j3p7_c40r_2k_78980000gn/T//ccLnxSft.s 			page 3


 115 000e 4060     		str	r0, [r0, #4]
 116 0010 0060     		str	r0, [r0]
 117              		.loc 1 100 0
 118 0012 4161     		str	r1, [r0, #20]
 119 0014 8161     		str	r1, [r0, #24]
 120 0016 C160     		str	r1, [r0, #12]
 121              		.loc 1 102 0
 122 0018 C361     		str	r3, [r0, #28]
 123              		.loc 1 104 0
 124 001a 30BC     		pop	{r4, r5}
 125              		.cfi_restore 5
 126              		.cfi_restore 4
 127              		.cfi_def_cfa_offset 0
 128              	.LVL8:
 129 001c 7047     		bx	lr
 130              		.cfi_endproc
 131              	.LFE8:
 132              		.size	chIQInit, .-chIQInit
 133 001e 00BF     		.section	.text.chIQResetI,"ax",%progbits
 134              		.align	2
 135              		.p2align 4,,15
 136              		.global	chIQResetI
 137              		.thumb
 138              		.thumb_func
 139              		.type	chIQResetI, %function
 140              	chIQResetI:
 141              	.LFB9:
 142              		.loc 1 117 0
 143              		.cfi_startproc
 144              		@ args = 0, pretend = 0, frame = 0
 145              		@ frame_needed = 0, uses_anonymous_args = 0
 146              	.LVL9:
 147 0000 38B5     		push	{r3, r4, r5, lr}
 148              		.cfi_def_cfa_offset 16
 149              		.cfi_offset 3, -16
 150              		.cfi_offset 4, -12
 151              		.cfi_offset 5, -8
 152              		.cfi_offset 14, -4
 153              		.loc 1 117 0
 154 0002 0446     		mov	r4, r0
 155              		.loc 1 121 0
 156 0004 C368     		ldr	r3, [r0, #12]
 157              		.loc 1 123 0
 158 0006 0068     		ldr	r0, [r0]
 159              	.LVL10:
 160              		.loc 1 122 0
 161 0008 0022     		movs	r2, #0
 162              		.loc 1 123 0
 163 000a 8442     		cmp	r4, r0
 164              		.loc 1 122 0
 165 000c A260     		str	r2, [r4, #8]
 166              		.loc 1 121 0
 167 000e 6361     		str	r3, [r4, #20]
 168 0010 A361     		str	r3, [r4, #24]
 169              		.loc 1 123 0
 170 0012 0AD0     		beq	.L9
 171              		.loc 1 124 0
ARM GAS  /var/folders/6q/x_mk5n_j3p7_c40r_2k_78980000gn/T//ccLnxSft.s 			page 4


 172 0014 6FF00105 		mvn	r5, #1
 173              	.L11:
 174              	.LVL11:
 175              	.LBB14:
 176              	.LBB15:
 177              		.loc 2 62 0
 178 0018 0368     		ldr	r3, [r0]
 179 001a 2360     		str	r3, [r4]
 180 001c 5C60     		str	r4, [r3, #4]
 181              	.LVL12:
 182              	.LBE15:
 183              	.LBE14:
 184              		.loc 1 124 0
 185 001e FFF7FEFF 		bl	chSchReadyI
 186              	.LVL13:
 187 0022 4562     		str	r5, [r0, #36]
 188              		.loc 1 123 0
 189 0024 2068     		ldr	r0, [r4]
 190 0026 A042     		cmp	r0, r4
 191 0028 F6D1     		bne	.L11
 192              	.L9:
 193 002a 38BD     		pop	{r3, r4, r5, pc}
 194              		.cfi_endproc
 195              	.LFE9:
 196              		.size	chIQResetI, .-chIQResetI
 197              		.section	.text.chIQPutI,"ax",%progbits
 198              		.align	2
 199              		.p2align 4,,15
 200              		.global	chIQPutI
 201              		.thumb
 202              		.thumb_func
 203              		.type	chIQPutI, %function
 204              	chIQPutI:
 205              	.LFB10:
 206              		.loc 1 140 0
 207              		.cfi_startproc
 208              		@ args = 0, pretend = 0, frame = 0
 209              		@ frame_needed = 0, uses_anonymous_args = 0
 210              	.LVL14:
 211              		.loc 1 144 0
 212 0000 8369     		ldr	r3, [r0, #24]
 213 0002 4269     		ldr	r2, [r0, #20]
 214              		.loc 1 140 0
 215 0004 10B5     		push	{r4, lr}
 216              		.cfi_def_cfa_offset 8
 217              		.cfi_offset 4, -8
 218              		.cfi_offset 14, -4
 219              		.loc 1 144 0
 220 0006 9A42     		cmp	r2, r3
 221 0008 8368     		ldr	r3, [r0, #8]
 222 000a 1DD0     		beq	.L25
 223              	.L18:
 224              		.loc 1 147 0
 225 000c 0133     		adds	r3, r3, #1
 226              		.loc 1 148 0
 227 000e 541C     		adds	r4, r2, #1
 228              		.loc 1 147 0
ARM GAS  /var/folders/6q/x_mk5n_j3p7_c40r_2k_78980000gn/T//ccLnxSft.s 			page 5


 229 0010 8360     		str	r3, [r0, #8]
 230              		.loc 1 148 0
 231 0012 4461     		str	r4, [r0, #20]
 232 0014 1170     		strb	r1, [r2]
 233              		.loc 1 149 0
 234 0016 4269     		ldr	r2, [r0, #20]
 235 0018 0369     		ldr	r3, [r0, #16]
 236 001a 9A42     		cmp	r2, r3
 237 001c 0DD2     		bcs	.L19
 238              		.loc 1 152 0
 239 001e 0268     		ldr	r2, [r0]
 240 0020 8242     		cmp	r2, r0
 241 0022 0FD0     		beq	.L22
 242              	.L26:
 243 0024 0346     		mov	r3, r0
 244              	.LVL15:
 245              	.LBB16:
 246              	.LBB17:
 247              		.loc 2 62 0
 248 0026 1168     		ldr	r1, [r2]
 249              	.LVL16:
 250              	.LBE17:
 251              	.LBE16:
 252              		.loc 1 153 0
 253 0028 1046     		mov	r0, r2
 254              	.LVL17:
 255              	.LBB19:
 256              	.LBB18:
 257              		.loc 2 62 0
 258 002a 1960     		str	r1, [r3]
 259 002c 4B60     		str	r3, [r1, #4]
 260              	.LVL18:
 261              	.LBE18:
 262              	.LBE19:
 263              		.loc 1 153 0
 264 002e FFF7FEFF 		bl	chSchReadyI
 265              	.LVL19:
 266 0032 0023     		movs	r3, #0
 267 0034 4362     		str	r3, [r0, #36]
 268              		.loc 1 155 0
 269 0036 1846     		mov	r0, r3
 270 0038 10BD     		pop	{r4, pc}
 271              	.LVL20:
 272              	.L19:
 273              		.loc 1 152 0
 274 003a 0268     		ldr	r2, [r0]
 275              		.loc 1 150 0
 276 003c C368     		ldr	r3, [r0, #12]
 277              		.loc 1 152 0
 278 003e 8242     		cmp	r2, r0
 279              		.loc 1 150 0
 280 0040 4361     		str	r3, [r0, #20]
 281              		.loc 1 152 0
 282 0042 EFD1     		bne	.L26
 283              	.L22:
 284              		.loc 1 155 0
 285 0044 0020     		movs	r0, #0
ARM GAS  /var/folders/6q/x_mk5n_j3p7_c40r_2k_78980000gn/T//ccLnxSft.s 			page 6


 286              	.LVL21:
 287 0046 10BD     		pop	{r4, pc}
 288              	.LVL22:
 289              	.L25:
 290              		.loc 1 144 0 discriminator 1
 291 0048 002B     		cmp	r3, #0
 292 004a DFD0     		beq	.L18
 293              		.loc 1 145 0
 294 004c 6FF00300 		mvn	r0, #3
 295              	.LVL23:
 296 0050 10BD     		pop	{r4, pc}
 297              		.cfi_endproc
 298              	.LFE10:
 299              		.size	chIQPutI, .-chIQPutI
 300 0052 00BF     		.section	.text.chIQGetTimeout,"ax",%progbits
 301              		.align	2
 302              		.p2align 4,,15
 303              		.global	chIQGetTimeout
 304              		.thumb
 305              		.thumb_func
 306              		.type	chIQGetTimeout, %function
 307              	chIQGetTimeout:
 308              	.LFB11:
 309              		.loc 1 178 0
 310              		.cfi_startproc
 311              		@ args = 0, pretend = 0, frame = 0
 312              		@ frame_needed = 0, uses_anonymous_args = 0
 313              	.LVL24:
 314 0000 70B5     		push	{r4, r5, r6, lr}
 315              		.cfi_def_cfa_offset 16
 316              		.cfi_offset 4, -16
 317              		.cfi_offset 5, -12
 318              		.cfi_offset 6, -8
 319              		.cfi_offset 14, -4
 320              	.LBB20:
 321              		.loc 1 181 0
 322 0002 2023     		movs	r3, #32
 323              	.LBE20:
 324              		.loc 1 178 0
 325 0004 0E46     		mov	r6, r1
 326 0006 0446     		mov	r4, r0
 327              	.LBB21:
 328              		.loc 1 181 0
 329              		.syntax unified
 330              	@ 181 "../ChibiOS/os/kernel/src/chqueues.c" 1
 331 0008 83F31188 		msr     BASEPRI, r3
 332              	@ 0 "" 2
 333              		.thumb
 334              		.syntax unified
 335              	.LBE21:
 336              		.loc 1 182 0
 337 000c C369     		ldr	r3, [r0, #28]
 338 000e 3BB1     		cbz	r3, .L29
 339              		.loc 1 183 0
 340 0010 9847     		blx	r3
 341              	.LVL25:
 342 0012 05E0     		b	.L29
ARM GAS  /var/folders/6q/x_mk5n_j3p7_c40r_2k_78980000gn/T//ccLnxSft.s 			page 7


 343              	.L31:
 344              	.LBB22:
 345              		.loc 1 187 0
 346 0014 3146     		mov	r1, r6
 347 0016 2046     		mov	r0, r4
 348 0018 FFF7FEFF 		bl	qwait
 349              	.LVL26:
 350 001c 0028     		cmp	r0, #0
 351 001e 13DB     		blt	.L38
 352              	.LVL27:
 353              	.L29:
 354              	.LBE22:
 355              		.loc 1 185 0
 356 0020 A568     		ldr	r5, [r4, #8]
 357 0022 002D     		cmp	r5, #0
 358 0024 F6D0     		beq	.L31
 359              		.loc 1 194 0
 360 0026 A269     		ldr	r2, [r4, #24]
 361              		.loc 1 195 0
 362 0028 2169     		ldr	r1, [r4, #16]
 363              		.loc 1 194 0
 364 002a 531C     		adds	r3, r2, #1
 365              		.loc 1 195 0
 366 002c 8B42     		cmp	r3, r1
 367              		.loc 1 194 0
 368 002e A361     		str	r3, [r4, #24]
 369              		.loc 1 193 0
 370 0030 05F1FF35 		add	r5, r5, #-1
 371              		.loc 1 196 0
 372 0034 28BF     		it	cs
 373 0036 E368     		ldrcs	r3, [r4, #12]
 374              		.loc 1 193 0
 375 0038 A560     		str	r5, [r4, #8]
 376              		.loc 1 194 0
 377 003a 1078     		ldrb	r0, [r2]	@ zero_extendqisi2
 378              	.LVL28:
 379              		.loc 1 196 0
 380 003c 28BF     		it	cs
 381 003e A361     		strcs	r3, [r4, #24]
 382              	.LBB24:
 383              		.loc 1 198 0
 384 0040 0023     		movs	r3, #0
 385              		.syntax unified
 386              	@ 198 "../ChibiOS/os/kernel/src/chqueues.c" 1
 387 0042 83F31188 		msr     BASEPRI, r3
 388              	@ 0 "" 2
 389              		.thumb
 390              		.syntax unified
 391              	.LBE24:
 392              		.loc 1 200 0
 393 0046 70BD     		pop	{r4, r5, r6, pc}
 394              	.LVL29:
 395              	.L38:
 396              	.LBB25:
 397              	.LBB23:
 398              		.loc 1 188 0
 399 0048 2B46     		mov	r3, r5
ARM GAS  /var/folders/6q/x_mk5n_j3p7_c40r_2k_78980000gn/T//ccLnxSft.s 			page 8


 400              		.syntax unified
 401              	@ 188 "../ChibiOS/os/kernel/src/chqueues.c" 1
 402 004a 83F31188 		msr     BASEPRI, r3
 403              	@ 0 "" 2
 404              		.thumb
 405              		.syntax unified
 406              	.LBE23:
 407              		.loc 1 189 0
 408 004e 70BD     		pop	{r4, r5, r6, pc}
 409              	.LBE25:
 410              		.cfi_endproc
 411              	.LFE11:
 412              		.size	chIQGetTimeout, .-chIQGetTimeout
 413              		.section	.text.chIQReadTimeout,"ax",%progbits
 414              		.align	2
 415              		.p2align 4,,15
 416              		.global	chIQReadTimeout
 417              		.thumb
 418              		.thumb_func
 419              		.type	chIQReadTimeout, %function
 420              	chIQReadTimeout:
 421              	.LFB12:
 422              		.loc 1 227 0
 423              		.cfi_startproc
 424              		@ args = 0, pretend = 0, frame = 0
 425              		@ frame_needed = 0, uses_anonymous_args = 0
 426              	.LVL30:
 427 0000 2DE9F047 		push	{r4, r5, r6, r7, r8, r9, r10, lr}
 428              		.cfi_def_cfa_offset 32
 429              		.cfi_offset 4, -32
 430              		.cfi_offset 5, -28
 431              		.cfi_offset 6, -24
 432              		.cfi_offset 7, -20
 433              		.cfi_offset 8, -16
 434              		.cfi_offset 9, -12
 435              		.cfi_offset 10, -8
 436              		.cfi_offset 14, -4
 437              		.loc 1 227 0
 438 0004 1E46     		mov	r6, r3
 439 0006 0446     		mov	r4, r0
 440 0008 8946     		mov	r9, r1
 441 000a 9246     		mov	r10, r2
 442              		.loc 1 228 0
 443 000c D0F81C80 		ldr	r8, [r0, #28]
 444              	.LVL31:
 445              	.LBB26:
 446              		.loc 1 233 0
 447 0010 2023     		movs	r3, #32
 448              	.LVL32:
 449              		.syntax unified
 450              	@ 233 "../ChibiOS/os/kernel/src/chqueues.c" 1
 451 0012 83F31188 		msr     BASEPRI, r3
 452              	@ 0 "" 2
 453              		.thumb
 454              		.syntax unified
 455              	.LBE26:
 456              		.loc 1 229 0
ARM GAS  /var/folders/6q/x_mk5n_j3p7_c40r_2k_78980000gn/T//ccLnxSft.s 			page 9


 457 0016 0027     		movs	r7, #0
 458              	.LVL33:
 459              	.L45:
 460              		.loc 1 235 0
 461 0018 B8F1000F 		cmp	r8, #0
 462 001c 07D0     		beq	.L41
 463              		.loc 1 236 0
 464 001e 2046     		mov	r0, r4
 465 0020 C047     		blx	r8
 466              	.LVL34:
 467 0022 04E0     		b	.L41
 468              	.L43:
 469              		.loc 1 239 0
 470 0024 3146     		mov	r1, r6
 471 0026 2046     		mov	r0, r4
 472 0028 FFF7FEFF 		bl	qwait
 473              	.LVL35:
 474 002c D0B9     		cbnz	r0, .L52
 475              	.L41:
 476              		.loc 1 238 0
 477 002e A568     		ldr	r5, [r4, #8]
 478 0030 002D     		cmp	r5, #0
 479 0032 F7D0     		beq	.L43
 480              		.loc 1 246 0
 481 0034 A369     		ldr	r3, [r4, #24]
 482              		.loc 1 245 0
 483 0036 013D     		subs	r5, r5, #1
 484              		.loc 1 246 0
 485 0038 5A1C     		adds	r2, r3, #1
 486 003a A261     		str	r2, [r4, #24]
 487              		.loc 1 245 0
 488 003c A560     		str	r5, [r4, #8]
 489              		.loc 1 246 0
 490 003e 1B78     		ldrb	r3, [r3]	@ zero_extendqisi2
 491 0040 09F8013B 		strb	r3, [r9], #1
 492              	.LVL36:
 493              		.loc 1 247 0
 494 0044 2369     		ldr	r3, [r4, #16]
 495 0046 A269     		ldr	r2, [r4, #24]
 496 0048 9A42     		cmp	r2, r3
 497              		.loc 1 248 0
 498 004a 24BF     		itt	cs
 499 004c E368     		ldrcs	r3, [r4, #12]
 500 004e A361     		strcs	r3, [r4, #24]
 501              	.LBB27:
 502              		.loc 1 250 0
 503 0050 0023     		movs	r3, #0
 504              		.syntax unified
 505              	@ 250 "../ChibiOS/os/kernel/src/chqueues.c" 1
 506 0052 83F31188 		msr     BASEPRI, r3
 507              	@ 0 "" 2
 508              		.thumb
 509              		.syntax unified
 510              	.LBE27:
 511              		.loc 1 251 0
 512 0056 0137     		adds	r7, r7, #1
 513              	.LVL37:
ARM GAS  /var/folders/6q/x_mk5n_j3p7_c40r_2k_78980000gn/T//ccLnxSft.s 			page 10


 514              		.loc 1 252 0
 515 0058 BA45     		cmp	r10, r7
 516 005a 06D0     		beq	.L42
 517              	.LBB28:
 518              		.loc 1 255 0
 519 005c 2023     		movs	r3, #32
 520              		.syntax unified
 521              	@ 255 "../ChibiOS/os/kernel/src/chqueues.c" 1
 522 005e 83F31188 		msr     BASEPRI, r3
 523              	@ 0 "" 2
 524              		.thumb
 525              		.syntax unified
 526              	.LBE28:
 527              		.loc 1 256 0
 528 0062 D9E7     		b	.L45
 529              	.LVL38:
 530              	.L52:
 531              	.LBB29:
 532              		.loc 1 240 0
 533 0064 2B46     		mov	r3, r5
 534              		.syntax unified
 535              	@ 240 "../ChibiOS/os/kernel/src/chqueues.c" 1
 536 0066 83F31188 		msr     BASEPRI, r3
 537              	@ 0 "" 2
 538              	.LVL39:
 539              		.thumb
 540              		.syntax unified
 541              	.L42:
 542              	.LBE29:
 543              		.loc 1 257 0
 544 006a 3846     		mov	r0, r7
 545 006c BDE8F087 		pop	{r4, r5, r6, r7, r8, r9, r10, pc}
 546              		.cfi_endproc
 547              	.LFE12:
 548              		.size	chIQReadTimeout, .-chIQReadTimeout
 549              		.section	.text.chOQInit,"ax",%progbits
 550              		.align	2
 551              		.p2align 4,,15
 552              		.global	chOQInit
 553              		.thumb
 554              		.thumb_func
 555              		.type	chOQInit, %function
 556              	chOQInit:
 557              	.LFB13:
 558              		.loc 1 276 0
 559              		.cfi_startproc
 560              		@ args = 4, pretend = 0, frame = 0
 561              		@ frame_needed = 0, uses_anonymous_args = 0
 562              		@ link register save eliminated.
 563              	.LVL40:
 564 0000 30B4     		push	{r4, r5}
 565              		.cfi_def_cfa_offset 8
 566              		.cfi_offset 4, -8
 567              		.cfi_offset 5, -4
 568              		.loc 1 276 0
 569 0002 029C     		ldr	r4, [sp, #8]
 570              		.loc 1 281 0
ARM GAS  /var/folders/6q/x_mk5n_j3p7_c40r_2k_78980000gn/T//ccLnxSft.s 			page 11


 571 0004 8D18     		adds	r5, r1, r2
 572 0006 0561     		str	r5, [r0, #16]
 573              		.loc 1 283 0
 574 0008 0462     		str	r4, [r0, #32]
 575              		.loc 1 278 0
 576 000a 4060     		str	r0, [r0, #4]
 577 000c 0060     		str	r0, [r0]
 578              		.loc 1 279 0
 579 000e 8260     		str	r2, [r0, #8]
 580              		.loc 1 280 0
 581 0010 4161     		str	r1, [r0, #20]
 582 0012 8161     		str	r1, [r0, #24]
 583 0014 C160     		str	r1, [r0, #12]
 584              		.loc 1 282 0
 585 0016 C361     		str	r3, [r0, #28]
 586              		.loc 1 284 0
 587 0018 30BC     		pop	{r4, r5}
 588              		.cfi_restore 5
 589              		.cfi_restore 4
 590              		.cfi_def_cfa_offset 0
 591              	.LVL41:
 592 001a 7047     		bx	lr
 593              		.cfi_endproc
 594              	.LFE13:
 595              		.size	chOQInit, .-chOQInit
 596              		.section	.text.chOQResetI,"ax",%progbits
 597              		.align	2
 598              		.p2align 4,,15
 599              		.global	chOQResetI
 600              		.thumb
 601              		.thumb_func
 602              		.type	chOQResetI, %function
 603              	chOQResetI:
 604              	.LFB14:
 605              		.loc 1 297 0
 606              		.cfi_startproc
 607              		@ args = 0, pretend = 0, frame = 0
 608              		@ frame_needed = 0, uses_anonymous_args = 0
 609              	.LVL42:
 610 0000 38B5     		push	{r3, r4, r5, lr}
 611              		.cfi_def_cfa_offset 16
 612              		.cfi_offset 3, -16
 613              		.cfi_offset 4, -12
 614              		.cfi_offset 5, -8
 615              		.cfi_offset 14, -4
 616              		.loc 1 297 0
 617 0002 0446     		mov	r4, r0
 618              		.loc 1 301 0
 619 0004 C268     		ldr	r2, [r0, #12]
 620              		.loc 1 302 0
 621 0006 0369     		ldr	r3, [r0, #16]
 622              		.loc 1 303 0
 623 0008 0068     		ldr	r0, [r0]
 624              	.LVL43:
 625              		.loc 1 302 0
 626 000a 9B1A     		subs	r3, r3, r2
 627              		.loc 1 303 0
ARM GAS  /var/folders/6q/x_mk5n_j3p7_c40r_2k_78980000gn/T//ccLnxSft.s 			page 12


 628 000c 8442     		cmp	r4, r0
 629              		.loc 1 301 0
 630 000e 6261     		str	r2, [r4, #20]
 631 0010 A261     		str	r2, [r4, #24]
 632              		.loc 1 302 0
 633 0012 A360     		str	r3, [r4, #8]
 634              		.loc 1 303 0
 635 0014 0AD0     		beq	.L55
 636              		.loc 1 304 0
 637 0016 6FF00105 		mvn	r5, #1
 638              	.L57:
 639              	.LVL44:
 640              	.LBB30:
 641              	.LBB31:
 642              		.loc 2 62 0
 643 001a 0368     		ldr	r3, [r0]
 644 001c 2360     		str	r3, [r4]
 645 001e 5C60     		str	r4, [r3, #4]
 646              	.LVL45:
 647              	.LBE31:
 648              	.LBE30:
 649              		.loc 1 304 0
 650 0020 FFF7FEFF 		bl	chSchReadyI
 651              	.LVL46:
 652 0024 4562     		str	r5, [r0, #36]
 653              		.loc 1 303 0
 654 0026 2068     		ldr	r0, [r4]
 655 0028 A042     		cmp	r0, r4
 656 002a F6D1     		bne	.L57
 657              	.L55:
 658 002c 38BD     		pop	{r3, r4, r5, pc}
 659              		.cfi_endproc
 660              	.LFE14:
 661              		.size	chOQResetI, .-chOQResetI
 662 002e 00BF     		.section	.text.chOQPutTimeout,"ax",%progbits
 663              		.align	2
 664              		.p2align 4,,15
 665              		.global	chOQPutTimeout
 666              		.thumb
 667              		.thumb_func
 668              		.type	chOQPutTimeout, %function
 669              	chOQPutTimeout:
 670              	.LFB15:
 671              		.loc 1 329 0
 672              		.cfi_startproc
 673              		@ args = 0, pretend = 0, frame = 0
 674              		@ frame_needed = 0, uses_anonymous_args = 0
 675              	.LVL47:
 676 0000 F8B5     		push	{r3, r4, r5, r6, r7, lr}
 677              		.cfi_def_cfa_offset 24
 678              		.cfi_offset 3, -24
 679              		.cfi_offset 4, -20
 680              		.cfi_offset 5, -16
 681              		.cfi_offset 6, -12
 682              		.cfi_offset 7, -8
 683              		.cfi_offset 14, -4
 684              		.loc 1 329 0
ARM GAS  /var/folders/6q/x_mk5n_j3p7_c40r_2k_78980000gn/T//ccLnxSft.s 			page 13


 685 0002 0446     		mov	r4, r0
 686 0004 0F46     		mov	r7, r1
 687 0006 1646     		mov	r6, r2
 688              	.LBB32:
 689              		.loc 1 331 0
 690 0008 2023     		movs	r3, #32
 691              		.syntax unified
 692              	@ 331 "../ChibiOS/os/kernel/src/chqueues.c" 1
 693 000a 83F31188 		msr     BASEPRI, r3
 694              	@ 0 "" 2
 695              		.thumb
 696              		.syntax unified
 697              	.LBE32:
 698              		.loc 1 332 0
 699 000e 05E0     		b	.L62
 700              	.LVL48:
 701              	.L64:
 702              	.LBB33:
 703              		.loc 1 335 0
 704 0010 3146     		mov	r1, r6
 705 0012 2046     		mov	r0, r4
 706 0014 FFF7FEFF 		bl	qwait
 707              	.LVL49:
 708 0018 0028     		cmp	r0, #0
 709 001a 17DB     		blt	.L72
 710              	.LVL50:
 711              	.L62:
 712              	.LBE33:
 713              		.loc 1 332 0
 714 001c A568     		ldr	r5, [r4, #8]
 715 001e 002D     		cmp	r5, #0
 716 0020 F6D0     		beq	.L64
 717              		.loc 1 342 0
 718 0022 6369     		ldr	r3, [r4, #20]
 719              		.loc 1 341 0
 720 0024 013D     		subs	r5, r5, #1
 721              		.loc 1 342 0
 722 0026 5A1C     		adds	r2, r3, #1
 723 0028 6261     		str	r2, [r4, #20]
 724              		.loc 1 341 0
 725 002a A560     		str	r5, [r4, #8]
 726              		.loc 1 342 0
 727 002c 1F70     		strb	r7, [r3]
 728              		.loc 1 343 0
 729 002e 2369     		ldr	r3, [r4, #16]
 730 0030 6269     		ldr	r2, [r4, #20]
 731 0032 9A42     		cmp	r2, r3
 732              		.loc 1 344 0
 733 0034 24BF     		itt	cs
 734 0036 E368     		ldrcs	r3, [r4, #12]
 735 0038 6361     		strcs	r3, [r4, #20]
 736              		.loc 1 346 0
 737 003a E369     		ldr	r3, [r4, #28]
 738 003c 0BB1     		cbz	r3, .L66
 739              		.loc 1 347 0
 740 003e 2046     		mov	r0, r4
 741 0040 9847     		blx	r3
ARM GAS  /var/folders/6q/x_mk5n_j3p7_c40r_2k_78980000gn/T//ccLnxSft.s 			page 14


 742              	.LVL51:
 743              	.L66:
 744              	.LBB35:
 745              		.loc 1 349 0
 746 0042 0023     		movs	r3, #0
 747              		.syntax unified
 748              	@ 349 "../ChibiOS/os/kernel/src/chqueues.c" 1
 749 0044 83F31188 		msr     BASEPRI, r3
 750              	@ 0 "" 2
 751              		.thumb
 752              		.syntax unified
 753              	.LBE35:
 754              		.loc 1 350 0
 755 0048 1846     		mov	r0, r3
 756              		.loc 1 351 0
 757 004a F8BD     		pop	{r3, r4, r5, r6, r7, pc}
 758              	.LVL52:
 759              	.L72:
 760              	.LBB36:
 761              	.LBB34:
 762              		.loc 1 336 0
 763 004c 2B46     		mov	r3, r5
 764              		.syntax unified
 765              	@ 336 "../ChibiOS/os/kernel/src/chqueues.c" 1
 766 004e 83F31188 		msr     BASEPRI, r3
 767              	@ 0 "" 2
 768              		.thumb
 769              		.syntax unified
 770              	.LBE34:
 771              		.loc 1 337 0
 772 0052 F8BD     		pop	{r3, r4, r5, r6, r7, pc}
 773              	.LBE36:
 774              		.cfi_endproc
 775              	.LFE15:
 776              		.size	chOQPutTimeout, .-chOQPutTimeout
 777              		.section	.text.chOQGetI,"ax",%progbits
 778              		.align	2
 779              		.p2align 4,,15
 780              		.global	chOQGetI
 781              		.thumb
 782              		.thumb_func
 783              		.type	chOQGetI, %function
 784              	chOQGetI:
 785              	.LFB16:
 786              		.loc 1 363 0
 787              		.cfi_startproc
 788              		@ args = 0, pretend = 0, frame = 0
 789              		@ frame_needed = 0, uses_anonymous_args = 0
 790              	.LVL53:
 791 0000 38B5     		push	{r3, r4, r5, lr}
 792              		.cfi_def_cfa_offset 16
 793              		.cfi_offset 3, -16
 794              		.cfi_offset 4, -12
 795              		.cfi_offset 5, -8
 796              		.cfi_offset 14, -4
 797              		.loc 1 368 0
 798 0002 8269     		ldr	r2, [r0, #24]
ARM GAS  /var/folders/6q/x_mk5n_j3p7_c40r_2k_78980000gn/T//ccLnxSft.s 			page 15


 799 0004 4369     		ldr	r3, [r0, #20]
 800 0006 9342     		cmp	r3, r2
 801 0008 8368     		ldr	r3, [r0, #8]
 802 000a 18D0     		beq	.L83
 803              	.L76:
 804              		.loc 1 373 0
 805 000c 0569     		ldr	r5, [r0, #16]
 806              		.loc 1 372 0
 807 000e 511C     		adds	r1, r2, #1
 808              		.loc 1 371 0
 809 0010 0133     		adds	r3, r3, #1
 810 0012 8360     		str	r3, [r0, #8]
 811              		.loc 1 372 0
 812 0014 8161     		str	r1, [r0, #24]
 813              		.loc 1 373 0
 814 0016 A942     		cmp	r1, r5
 815              		.loc 1 372 0
 816 0018 1478     		ldrb	r4, [r2]	@ zero_extendqisi2
 817              	.LVL54:
 818              		.loc 1 373 0
 819 001a 0DD2     		bcs	.L78
 820              	.L79:
 821              		.loc 1 376 0
 822 001c 0268     		ldr	r2, [r0]
 823 001e 8242     		cmp	r2, r0
 824 0020 08D0     		beq	.L77
 825 0022 0346     		mov	r3, r0
 826              	.LVL55:
 827              	.LBB37:
 828              	.LBB38:
 829              		.loc 2 62 0
 830 0024 1168     		ldr	r1, [r2]
 831              	.LBE38:
 832              	.LBE37:
 833              		.loc 1 377 0
 834 0026 1046     		mov	r0, r2
 835              	.LVL56:
 836              	.LBB40:
 837              	.LBB39:
 838              		.loc 2 62 0
 839 0028 1960     		str	r1, [r3]
 840 002a 4B60     		str	r3, [r1, #4]
 841              	.LVL57:
 842              	.LBE39:
 843              	.LBE40:
 844              		.loc 1 377 0
 845 002c FFF7FEFF 		bl	chSchReadyI
 846              	.LVL58:
 847 0030 0023     		movs	r3, #0
 848 0032 4362     		str	r3, [r0, #36]
 849              	.L77:
 850              		.loc 1 379 0
 851 0034 2046     		mov	r0, r4
 852 0036 38BD     		pop	{r3, r4, r5, pc}
 853              	.LVL59:
 854              	.L78:
 855              		.loc 1 374 0
ARM GAS  /var/folders/6q/x_mk5n_j3p7_c40r_2k_78980000gn/T//ccLnxSft.s 			page 16


 856 0038 C368     		ldr	r3, [r0, #12]
 857 003a 8361     		str	r3, [r0, #24]
 858 003c EEE7     		b	.L79
 859              	.LVL60:
 860              	.L83:
 861              		.loc 1 368 0 discriminator 1
 862 003e 002B     		cmp	r3, #0
 863 0040 E4D0     		beq	.L76
 864              		.loc 1 369 0
 865 0042 6FF00200 		mvn	r0, #2
 866              	.LVL61:
 867 0046 38BD     		pop	{r3, r4, r5, pc}
 868              		.cfi_endproc
 869              	.LFE16:
 870              		.size	chOQGetI, .-chOQGetI
 871              		.section	.text.chOQWriteTimeout,"ax",%progbits
 872              		.align	2
 873              		.p2align 4,,15
 874              		.global	chOQWriteTimeout
 875              		.thumb
 876              		.thumb_func
 877              		.type	chOQWriteTimeout, %function
 878              	chOQWriteTimeout:
 879              	.LFB17:
 880              		.loc 1 407 0
 881              		.cfi_startproc
 882              		@ args = 0, pretend = 0, frame = 0
 883              		@ frame_needed = 0, uses_anonymous_args = 0
 884              	.LVL62:
 885 0000 2DE9F84F 		push	{r3, r4, r5, r6, r7, r8, r9, r10, fp, lr}
 886              		.cfi_def_cfa_offset 40
 887              		.cfi_offset 3, -40
 888              		.cfi_offset 4, -36
 889              		.cfi_offset 5, -32
 890              		.cfi_offset 6, -28
 891              		.cfi_offset 7, -24
 892              		.cfi_offset 8, -20
 893              		.cfi_offset 9, -16
 894              		.cfi_offset 10, -12
 895              		.cfi_offset 11, -8
 896              		.cfi_offset 14, -4
 897              		.loc 1 407 0
 898 0004 9A46     		mov	r10, r3
 899 0006 0446     		mov	r4, r0
 900 0008 0E46     		mov	r6, r1
 901 000a 1746     		mov	r7, r2
 902              		.loc 1 408 0
 903 000c D0F81C90 		ldr	r9, [r0, #28]
 904              	.LVL63:
 905              	.LBB41:
 906              		.loc 1 413 0
 907 0010 2023     		movs	r3, #32
 908              	.LVL64:
 909              		.syntax unified
 910              	@ 413 "../ChibiOS/os/kernel/src/chqueues.c" 1
 911 0012 83F31188 		msr     BASEPRI, r3
 912              	@ 0 "" 2
ARM GAS  /var/folders/6q/x_mk5n_j3p7_c40r_2k_78980000gn/T//ccLnxSft.s 			page 17


 913              		.thumb
 914              		.syntax unified
 915              	.LBE41:
 916              		.loc 1 409 0
 917 0016 4FF00008 		mov	r8, #0
 918              	.LVL65:
 919              	.L85:
 920              		.loc 1 415 0
 921 001a A568     		ldr	r5, [r4, #8]
 922              		.loc 1 422 0
 923 001c 06F1010B 		add	fp, r6, #1
 924              	.LVL66:
 925              		.loc 1 421 0
 926 0020 6A1E     		subs	r2, r5, #1
 927              		.loc 1 415 0
 928 0022 0DB3     		cbz	r5, .L88
 929              	.L101:
 930              		.loc 1 422 0
 931 0024 6369     		ldr	r3, [r4, #20]
 932              		.loc 1 421 0
 933 0026 A260     		str	r2, [r4, #8]
 934              		.loc 1 422 0
 935 0028 5A1C     		adds	r2, r3, #1
 936 002a 6261     		str	r2, [r4, #20]
 937 002c 3278     		ldrb	r2, [r6]	@ zero_extendqisi2
 938 002e 1A70     		strb	r2, [r3]
 939              		.loc 1 423 0
 940 0030 2369     		ldr	r3, [r4, #16]
 941 0032 6269     		ldr	r2, [r4, #20]
 942 0034 9A42     		cmp	r2, r3
 943              		.loc 1 424 0
 944 0036 24BF     		itt	cs
 945 0038 E368     		ldrcs	r3, [r4, #12]
 946 003a 6361     		strcs	r3, [r4, #20]
 947              		.loc 1 426 0
 948 003c B9F1000F 		cmp	r9, #0
 949 0040 01D0     		beq	.L90
 950              		.loc 1 427 0
 951 0042 2046     		mov	r0, r4
 952 0044 C847     		blx	r9
 953              	.LVL67:
 954              	.L90:
 955              	.LBB42:
 956              		.loc 1 429 0
 957 0046 0023     		movs	r3, #0
 958              		.syntax unified
 959              	@ 429 "../ChibiOS/os/kernel/src/chqueues.c" 1
 960 0048 83F31188 		msr     BASEPRI, r3
 961              	@ 0 "" 2
 962              		.thumb
 963              		.syntax unified
 964              	.LBE42:
 965              		.loc 1 431 0
 966 004c 013F     		subs	r7, r7, #1
 967              	.LVL68:
 968              		.loc 1 430 0
 969 004e 08F10108 		add	r8, r8, #1
ARM GAS  /var/folders/6q/x_mk5n_j3p7_c40r_2k_78980000gn/T//ccLnxSft.s 			page 18


 970              	.LVL69:
 971              		.loc 1 431 0
 972 0052 12D0     		beq	.L87
 973              	.LBB43:
 974              		.loc 1 433 0
 975 0054 2023     		movs	r3, #32
 976              		.syntax unified
 977              	@ 433 "../ChibiOS/os/kernel/src/chqueues.c" 1
 978 0056 83F31188 		msr     BASEPRI, r3
 979              	@ 0 "" 2
 980              		.thumb
 981              		.syntax unified
 982              	.LBE43:
 983              		.loc 1 422 0
 984 005a 5E46     		mov	r6, fp
 985              	.LVL70:
 986              		.loc 1 415 0
 987 005c A568     		ldr	r5, [r4, #8]
 988              		.loc 1 422 0
 989 005e 06F1010B 		add	fp, r6, #1
 990              	.LVL71:
 991              		.loc 1 421 0
 992 0062 6A1E     		subs	r2, r5, #1
 993              		.loc 1 415 0
 994 0064 002D     		cmp	r5, #0
 995 0066 DDD1     		bne	.L101
 996              	.L88:
 997              		.loc 1 416 0
 998 0068 5146     		mov	r1, r10
 999 006a 2046     		mov	r0, r4
 1000 006c FFF7FEFF 		bl	qwait
 1001              	.LVL72:
 1002 0070 0028     		cmp	r0, #0
 1003 0072 D2D0     		beq	.L85
 1004              	.LBB44:
 1005              		.loc 1 417 0
 1006 0074 2B46     		mov	r3, r5
 1007              		.syntax unified
 1008              	@ 417 "../ChibiOS/os/kernel/src/chqueues.c" 1
 1009 0076 83F31188 		msr     BASEPRI, r3
 1010              	@ 0 "" 2
 1011              	.LVL73:
 1012              		.thumb
 1013              		.syntax unified
 1014              	.L87:
 1015              	.LBE44:
 1016              		.loc 1 435 0
 1017 007a 4046     		mov	r0, r8
 1018 007c BDE8F88F 		pop	{r3, r4, r5, r6, r7, r8, r9, r10, fp, pc}
 1019              		.cfi_endproc
 1020              	.LFE17:
 1021              		.size	chOQWriteTimeout, .-chOQWriteTimeout
 1022              		.text
 1023              	.Letext0:
 1024              		.file 3 "/Users/Luca/src/vexilla/src/gcc-arm-none-eabi-5_4-2016q3/lib/gcc/arm-none-eabi/5.4.1/incl
 1025              		.file 4 "/Users/Luca/src/vexilla/src/gcc-arm-none-eabi-5_4-2016q3/arm-none-eabi/include/machine/_d
 1026              		.file 5 "/Users/Luca/src/vexilla/src/gcc-arm-none-eabi-5_4-2016q3/arm-none-eabi/include/sys/_stdin
ARM GAS  /var/folders/6q/x_mk5n_j3p7_c40r_2k_78980000gn/T//ccLnxSft.s 			page 19


 1027              		.file 6 "../ChibiOS/os/ports/GCC/ARMCMx/chtypes.h"
 1028              		.file 7 "../ChibiOS/os/kernel/include/chlists.h"
 1029              		.file 8 "../ChibiOS/os/kernel/include/chthreads.h"
 1030              		.file 9 "../ChibiOS/os/ports/GCC/ARMCMx/chcore_v7m.h"
 1031              		.file 10 "../ChibiOS/os/kernel/include/chschd.h"
 1032              		.file 11 "../ChibiOS/os/kernel/include/chmtx.h"
 1033              		.file 12 "../ChibiOS/os/kernel/include/chqueues.h"
 1034              		.section	.debug_info,"",%progbits
 1035              	.Ldebug_info0:
 1036 0000 D00B0000 		.4byte	0xbd0
 1037 0004 0400     		.2byte	0x4
 1038 0006 00000000 		.4byte	.Ldebug_abbrev0
 1039 000a 04       		.byte	0x4
 1040 000b 01       		.uleb128 0x1
 1041 000c 5F010000 		.4byte	.LASF98
 1042 0010 0C       		.byte	0xc
 1043 0011 34040000 		.4byte	.LASF99
 1044 0015 C8030000 		.4byte	.LASF100
 1045 0019 78000000 		.4byte	.Ldebug_ranges0+0x78
 1046 001d 00000000 		.4byte	0
 1047 0021 00000000 		.4byte	.Ldebug_line0
 1048 0025 02       		.uleb128 0x2
 1049 0026 04       		.byte	0x4
 1050 0027 05       		.byte	0x5
 1051 0028 696E7400 		.ascii	"int\000"
 1052 002c 03       		.uleb128 0x3
 1053 002d 21000000 		.4byte	.LASF4
 1054 0031 03       		.byte	0x3
 1055 0032 D8       		.byte	0xd8
 1056 0033 37000000 		.4byte	0x37
 1057 0037 04       		.uleb128 0x4
 1058 0038 04       		.byte	0x4
 1059 0039 07       		.byte	0x7
 1060 003a 35010000 		.4byte	.LASF0
 1061 003e 04       		.uleb128 0x4
 1062 003f 08       		.byte	0x8
 1063 0040 05       		.byte	0x5
 1064 0041 8F000000 		.4byte	.LASF1
 1065 0045 04       		.uleb128 0x4
 1066 0046 08       		.byte	0x8
 1067 0047 04       		.byte	0x4
 1068 0048 C9020000 		.4byte	.LASF2
 1069 004c 04       		.uleb128 0x4
 1070 004d 01       		.byte	0x1
 1071 004e 06       		.byte	0x6
 1072 004f 9D000000 		.4byte	.LASF3
 1073 0053 03       		.uleb128 0x3
 1074 0054 44000000 		.4byte	.LASF5
 1075 0058 04       		.byte	0x4
 1076 0059 1D       		.byte	0x1d
 1077 005a 5E000000 		.4byte	0x5e
 1078 005e 04       		.uleb128 0x4
 1079 005f 01       		.byte	0x1
 1080 0060 08       		.byte	0x8
 1081 0061 3E030000 		.4byte	.LASF6
 1082 0065 04       		.uleb128 0x4
 1083 0066 02       		.byte	0x2
ARM GAS  /var/folders/6q/x_mk5n_j3p7_c40r_2k_78980000gn/T//ccLnxSft.s 			page 20


 1084 0067 05       		.byte	0x5
 1085 0068 56030000 		.4byte	.LASF7
 1086 006c 04       		.uleb128 0x4
 1087 006d 02       		.byte	0x2
 1088 006e 07       		.byte	0x7
 1089 006f 46020000 		.4byte	.LASF8
 1090 0073 03       		.uleb128 0x3
 1091 0074 06040000 		.4byte	.LASF9
 1092 0078 04       		.byte	0x4
 1093 0079 3F       		.byte	0x3f
 1094 007a 7E000000 		.4byte	0x7e
 1095 007e 04       		.uleb128 0x4
 1096 007f 04       		.byte	0x4
 1097 0080 05       		.byte	0x5
 1098 0081 D0000000 		.4byte	.LASF10
 1099 0085 03       		.uleb128 0x3
 1100 0086 04010000 		.4byte	.LASF11
 1101 008a 04       		.byte	0x4
 1102 008b 41       		.byte	0x41
 1103 008c 90000000 		.4byte	0x90
 1104 0090 04       		.uleb128 0x4
 1105 0091 04       		.byte	0x4
 1106 0092 07       		.byte	0x7
 1107 0093 4D010000 		.4byte	.LASF12
 1108 0097 04       		.uleb128 0x4
 1109 0098 08       		.byte	0x8
 1110 0099 07       		.byte	0x7
 1111 009a 5E000000 		.4byte	.LASF13
 1112 009e 03       		.uleb128 0x3
 1113 009f 7E040000 		.4byte	.LASF14
 1114 00a3 05       		.byte	0x5
 1115 00a4 18       		.byte	0x18
 1116 00a5 53000000 		.4byte	0x53
 1117 00a9 03       		.uleb128 0x3
 1118 00aa 36030000 		.4byte	.LASF15
 1119 00ae 05       		.byte	0x5
 1120 00af 2C       		.byte	0x2c
 1121 00b0 73000000 		.4byte	0x73
 1122 00b4 03       		.uleb128 0x3
 1123 00b5 A6030000 		.4byte	.LASF16
 1124 00b9 05       		.byte	0x5
 1125 00ba 30       		.byte	0x30
 1126 00bb 85000000 		.4byte	0x85
 1127 00bf 03       		.uleb128 0x3
 1128 00c0 B1000000 		.4byte	.LASF17
 1129 00c4 06       		.byte	0x6
 1130 00c5 2B       		.byte	0x2b
 1131 00c6 CA000000 		.4byte	0xca
 1132 00ca 04       		.uleb128 0x4
 1133 00cb 01       		.byte	0x1
 1134 00cc 02       		.byte	0x2
 1135 00cd 30030000 		.4byte	.LASF18
 1136 00d1 03       		.uleb128 0x3
 1137 00d2 67020000 		.4byte	.LASF19
 1138 00d6 06       		.byte	0x6
 1139 00d7 2C       		.byte	0x2c
 1140 00d8 9E000000 		.4byte	0x9e
ARM GAS  /var/folders/6q/x_mk5n_j3p7_c40r_2k_78980000gn/T//ccLnxSft.s 			page 21


 1141 00dc 03       		.uleb128 0x3
 1142 00dd D9000000 		.4byte	.LASF20
 1143 00e1 06       		.byte	0x6
 1144 00e2 2D       		.byte	0x2d
 1145 00e3 9E000000 		.4byte	0x9e
 1146 00e7 03       		.uleb128 0x3
 1147 00e8 07030000 		.4byte	.LASF21
 1148 00ec 06       		.byte	0x6
 1149 00ed 2E       		.byte	0x2e
 1150 00ee 9E000000 		.4byte	0x9e
 1151 00f2 03       		.uleb128 0x3
 1152 00f3 C0000000 		.4byte	.LASF22
 1153 00f7 06       		.byte	0x6
 1154 00f8 2F       		.byte	0x2f
 1155 00f9 9E000000 		.4byte	0x9e
 1156 00fd 03       		.uleb128 0x3
 1157 00fe 20030000 		.4byte	.LASF23
 1158 0102 06       		.byte	0x6
 1159 0103 30       		.byte	0x30
 1160 0104 B4000000 		.4byte	0xb4
 1161 0108 03       		.uleb128 0x3
 1162 0109 59020000 		.4byte	.LASF24
 1163 010d 06       		.byte	0x6
 1164 010e 31       		.byte	0x31
 1165 010f A9000000 		.4byte	0xa9
 1166 0113 03       		.uleb128 0x3
 1167 0114 7B020000 		.4byte	.LASF25
 1168 0118 06       		.byte	0x6
 1169 0119 33       		.byte	0x33
 1170 011a B4000000 		.4byte	0xb4
 1171 011e 03       		.uleb128 0x3
 1172 011f F1030000 		.4byte	.LASF26
 1173 0123 06       		.byte	0x6
 1174 0124 35       		.byte	0x35
 1175 0125 B4000000 		.4byte	0xb4
 1176 0129 03       		.uleb128 0x3
 1177 012a 94030000 		.4byte	.LASF27
 1178 012e 07       		.byte	0x7
 1179 012f 2A       		.byte	0x2a
 1180 0130 34010000 		.4byte	0x134
 1181 0134 05       		.uleb128 0x5
 1182 0135 94030000 		.4byte	.LASF27
 1183 0139 48       		.byte	0x48
 1184 013a 08       		.byte	0x8
 1185 013b 5E       		.byte	0x5e
 1186 013c 31020000 		.4byte	0x231
 1187 0140 06       		.uleb128 0x6
 1188 0141 80030000 		.4byte	.LASF28
 1189 0145 08       		.byte	0x8
 1190 0146 5F       		.byte	0x5f
 1191 0147 52020000 		.4byte	0x252
 1192 014b 00       		.byte	0
 1193 014c 06       		.uleb128 0x6
 1194 014d 19030000 		.4byte	.LASF29
 1195 0151 08       		.byte	0x8
 1196 0152 61       		.byte	0x61
 1197 0153 52020000 		.4byte	0x252
ARM GAS  /var/folders/6q/x_mk5n_j3p7_c40r_2k_78980000gn/T//ccLnxSft.s 			page 22


 1198 0157 04       		.byte	0x4
 1199 0158 06       		.uleb128 0x6
 1200 0159 7E000000 		.4byte	.LASF30
 1201 015d 08       		.byte	0x8
 1202 015e 63       		.byte	0x63
 1203 015f FD000000 		.4byte	0xfd
 1204 0163 08       		.byte	0x8
 1205 0164 06       		.uleb128 0x6
 1206 0165 B8040000 		.4byte	.LASF31
 1207 0169 08       		.byte	0x8
 1208 016a 64       		.byte	0x64
 1209 016b 0C030000 		.4byte	0x30c
 1210 016f 0C       		.byte	0xc
 1211 0170 06       		.uleb128 0x6
 1212 0171 FC000000 		.4byte	.LASF32
 1213 0175 08       		.byte	0x8
 1214 0176 66       		.byte	0x66
 1215 0177 52020000 		.4byte	0x252
 1216 017b 10       		.byte	0x10
 1217 017c 06       		.uleb128 0x6
 1218 017d D5020000 		.4byte	.LASF33
 1219 0181 08       		.byte	0x8
 1220 0182 67       		.byte	0x67
 1221 0183 52020000 		.4byte	0x252
 1222 0187 14       		.byte	0x14
 1223 0188 06       		.uleb128 0x6
 1224 0189 8D040000 		.4byte	.LASF34
 1225 018d 08       		.byte	0x8
 1226 018e 6E       		.byte	0x6e
 1227 018f 0C040000 		.4byte	0x40c
 1228 0193 18       		.byte	0x18
 1229 0194 06       		.uleb128 0x6
 1230 0195 60030000 		.4byte	.LASF35
 1231 0199 08       		.byte	0x8
 1232 019a 79       		.byte	0x79
 1233 019b DC000000 		.4byte	0xdc
 1234 019f 1C       		.byte	0x1c
 1235 01a0 06       		.uleb128 0x6
 1236 01a1 8C030000 		.4byte	.LASF36
 1237 01a5 08       		.byte	0x8
 1238 01a6 7D       		.byte	0x7d
 1239 01a7 D1000000 		.4byte	0xd1
 1240 01ab 1D       		.byte	0x1d
 1241 01ac 06       		.uleb128 0x6
 1242 01ad 5E040000 		.4byte	.LASF37
 1243 01b1 08       		.byte	0x8
 1244 01b2 82       		.byte	0x82
 1245 01b3 E7000000 		.4byte	0xe7
 1246 01b7 1E       		.byte	0x1e
 1247 01b8 06       		.uleb128 0x6
 1248 01b9 68030000 		.4byte	.LASF38
 1249 01bd 08       		.byte	0x8
 1250 01be 88       		.byte	0x88
 1251 01bf F2000000 		.4byte	0xf2
 1252 01c3 1F       		.byte	0x1f
 1253 01c4 06       		.uleb128 0x6
 1254 01c5 1B040000 		.4byte	.LASF39
ARM GAS  /var/folders/6q/x_mk5n_j3p7_c40r_2k_78980000gn/T//ccLnxSft.s 			page 23


 1255 01c9 08       		.byte	0x8
 1256 01ca 8F       		.byte	0x8f
 1257 01cb 34030000 		.4byte	0x334
 1258 01cf 20       		.byte	0x20
 1259 01d0 07       		.uleb128 0x7
 1260 01d1 705F7500 		.ascii	"p_u\000"
 1261 01d5 08       		.byte	0x8
 1262 01d6 B4       		.byte	0xb4
 1263 01d7 D7030000 		.4byte	0x3d7
 1264 01db 24       		.byte	0x24
 1265 01dc 06       		.uleb128 0x6
 1266 01dd BE040000 		.4byte	.LASF40
 1267 01e1 08       		.byte	0x8
 1268 01e2 B9       		.byte	0xb9
 1269 01e3 78020000 		.4byte	0x278
 1270 01e7 28       		.byte	0x28
 1271 01e8 06       		.uleb128 0x6
 1272 01e9 29040000 		.4byte	.LASF41
 1273 01ed 08       		.byte	0x8
 1274 01ee BF       		.byte	0xbf
 1275 01ef 58020000 		.4byte	0x258
 1276 01f3 2C       		.byte	0x2c
 1277 01f4 06       		.uleb128 0x6
 1278 01f5 09000000 		.4byte	.LASF42
 1279 01f9 08       		.byte	0x8
 1280 01fa C3       		.byte	0xc3
 1281 01fb 08010000 		.4byte	0x108
 1282 01ff 34       		.byte	0x34
 1283 0200 06       		.uleb128 0x6
 1284 0201 9B030000 		.4byte	.LASF43
 1285 0205 08       		.byte	0x8
 1286 0206 C9       		.byte	0xc9
 1287 0207 13010000 		.4byte	0x113
 1288 020b 38       		.byte	0x38
 1289 020c 06       		.uleb128 0x6
 1290 020d 4C030000 		.4byte	.LASF44
 1291 0211 08       		.byte	0x8
 1292 0212 D0       		.byte	0xd0
 1293 0213 1E040000 		.4byte	0x41e
 1294 0217 3C       		.byte	0x3c
 1295 0218 06       		.uleb128 0x6
 1296 0219 FB030000 		.4byte	.LASF45
 1297 021d 08       		.byte	0x8
 1298 021e D4       		.byte	0xd4
 1299 021f FD000000 		.4byte	0xfd
 1300 0223 40       		.byte	0x40
 1301 0224 06       		.uleb128 0x6
 1302 0225 A9000000 		.4byte	.LASF46
 1303 0229 08       		.byte	0x8
 1304 022a DA       		.byte	0xda
 1305 022b 8E020000 		.4byte	0x28e
 1306 022f 44       		.byte	0x44
 1307 0230 00       		.byte	0
 1308 0231 08       		.uleb128 0x8
 1309 0232 08       		.byte	0x8
 1310 0233 07       		.byte	0x7
 1311 0234 61       		.byte	0x61
ARM GAS  /var/folders/6q/x_mk5n_j3p7_c40r_2k_78980000gn/T//ccLnxSft.s 			page 24


 1312 0235 52020000 		.4byte	0x252
 1313 0239 06       		.uleb128 0x6
 1314 023a 80030000 		.4byte	.LASF28
 1315 023e 07       		.byte	0x7
 1316 023f 62       		.byte	0x62
 1317 0240 52020000 		.4byte	0x252
 1318 0244 00       		.byte	0
 1319 0245 06       		.uleb128 0x6
 1320 0246 19030000 		.4byte	.LASF29
 1321 024a 07       		.byte	0x7
 1322 024b 64       		.byte	0x64
 1323 024c 52020000 		.4byte	0x252
 1324 0250 04       		.byte	0x4
 1325 0251 00       		.byte	0
 1326 0252 09       		.uleb128 0x9
 1327 0253 04       		.byte	0x4
 1328 0254 29010000 		.4byte	0x129
 1329 0258 03       		.uleb128 0x3
 1330 0259 E3020000 		.4byte	.LASF47
 1331 025d 07       		.byte	0x7
 1332 025e 66       		.byte	0x66
 1333 025f 31020000 		.4byte	0x231
 1334 0263 08       		.uleb128 0x8
 1335 0264 04       		.byte	0x4
 1336 0265 07       		.byte	0x7
 1337 0266 6B       		.byte	0x6b
 1338 0267 78020000 		.4byte	0x278
 1339 026b 06       		.uleb128 0x6
 1340 026c 80030000 		.4byte	.LASF28
 1341 0270 07       		.byte	0x7
 1342 0271 6D       		.byte	0x6d
 1343 0272 52020000 		.4byte	0x252
 1344 0276 00       		.byte	0
 1345 0277 00       		.byte	0
 1346 0278 03       		.uleb128 0x3
 1347 0279 6F020000 		.4byte	.LASF48
 1348 027d 07       		.byte	0x7
 1349 027e 70       		.byte	0x70
 1350 027f 63020000 		.4byte	0x263
 1351 0283 03       		.uleb128 0x3
 1352 0284 0F010000 		.4byte	.LASF49
 1353 0288 09       		.byte	0x9
 1354 0289 E5       		.byte	0xe5
 1355 028a 8E020000 		.4byte	0x28e
 1356 028e 0A       		.uleb128 0xa
 1357 028f 04       		.byte	0x4
 1358 0290 0B       		.uleb128 0xb
 1359 0291 22040000 		.4byte	.LASF50
 1360 0295 24       		.byte	0x24
 1361 0296 09       		.byte	0x9
 1362 0297 0C01     		.2byte	0x10c
 1363 0299 0C030000 		.4byte	0x30c
 1364 029d 0C       		.uleb128 0xc
 1365 029e 723400   		.ascii	"r4\000"
 1366 02a1 09       		.byte	0x9
 1367 02a2 1F01     		.2byte	0x11f
 1368 02a4 83020000 		.4byte	0x283
ARM GAS  /var/folders/6q/x_mk5n_j3p7_c40r_2k_78980000gn/T//ccLnxSft.s 			page 25


 1369 02a8 00       		.byte	0
 1370 02a9 0C       		.uleb128 0xc
 1371 02aa 723500   		.ascii	"r5\000"
 1372 02ad 09       		.byte	0x9
 1373 02ae 2001     		.2byte	0x120
 1374 02b0 83020000 		.4byte	0x283
 1375 02b4 04       		.byte	0x4
 1376 02b5 0C       		.uleb128 0xc
 1377 02b6 723600   		.ascii	"r6\000"
 1378 02b9 09       		.byte	0x9
 1379 02ba 2101     		.2byte	0x121
 1380 02bc 83020000 		.4byte	0x283
 1381 02c0 08       		.byte	0x8
 1382 02c1 0C       		.uleb128 0xc
 1383 02c2 723700   		.ascii	"r7\000"
 1384 02c5 09       		.byte	0x9
 1385 02c6 2201     		.2byte	0x122
 1386 02c8 83020000 		.4byte	0x283
 1387 02cc 0C       		.byte	0xc
 1388 02cd 0C       		.uleb128 0xc
 1389 02ce 723800   		.ascii	"r8\000"
 1390 02d1 09       		.byte	0x9
 1391 02d2 2301     		.2byte	0x123
 1392 02d4 83020000 		.4byte	0x283
 1393 02d8 10       		.byte	0x10
 1394 02d9 0C       		.uleb128 0xc
 1395 02da 723900   		.ascii	"r9\000"
 1396 02dd 09       		.byte	0x9
 1397 02de 2401     		.2byte	0x124
 1398 02e0 83020000 		.4byte	0x283
 1399 02e4 14       		.byte	0x14
 1400 02e5 0C       		.uleb128 0xc
 1401 02e6 72313000 		.ascii	"r10\000"
 1402 02ea 09       		.byte	0x9
 1403 02eb 2501     		.2byte	0x125
 1404 02ed 83020000 		.4byte	0x283
 1405 02f1 18       		.byte	0x18
 1406 02f2 0C       		.uleb128 0xc
 1407 02f3 72313100 		.ascii	"r11\000"
 1408 02f7 09       		.byte	0x9
 1409 02f8 2601     		.2byte	0x126
 1410 02fa 83020000 		.4byte	0x283
 1411 02fe 1C       		.byte	0x1c
 1412 02ff 0C       		.uleb128 0xc
 1413 0300 6C7200   		.ascii	"lr\000"
 1414 0303 09       		.byte	0x9
 1415 0304 2701     		.2byte	0x127
 1416 0306 83020000 		.4byte	0x283
 1417 030a 20       		.byte	0x20
 1418 030b 00       		.byte	0
 1419 030c 0B       		.uleb128 0xb
 1420 030d 39020000 		.4byte	.LASF51
 1421 0311 04       		.byte	0x4
 1422 0312 09       		.byte	0x9
 1423 0313 3101     		.2byte	0x131
 1424 0315 27030000 		.4byte	0x327
 1425 0319 0C       		.uleb128 0xc
ARM GAS  /var/folders/6q/x_mk5n_j3p7_c40r_2k_78980000gn/T//ccLnxSft.s 			page 26


 1426 031a 72313300 		.ascii	"r13\000"
 1427 031e 09       		.byte	0x9
 1428 031f 3201     		.2byte	0x132
 1429 0321 27030000 		.4byte	0x327
 1430 0325 00       		.byte	0
 1431 0326 00       		.byte	0
 1432 0327 09       		.uleb128 0x9
 1433 0328 04       		.byte	0x4
 1434 0329 90020000 		.4byte	0x290
 1435 032d 04       		.uleb128 0x4
 1436 032e 04       		.byte	0x4
 1437 032f 07       		.byte	0x7
 1438 0330 B6020000 		.4byte	.LASF52
 1439 0334 0D       		.uleb128 0xd
 1440 0335 1E010000 		.4byte	0x11e
 1441 0339 08       		.uleb128 0x8
 1442 033a 1C       		.byte	0x1c
 1443 033b 0A       		.byte	0xa
 1444 033c 5E       		.byte	0x5e
 1445 033d 8A030000 		.4byte	0x38a
 1446 0341 06       		.uleb128 0x6
 1447 0342 AF030000 		.4byte	.LASF53
 1448 0346 0A       		.byte	0xa
 1449 0347 5F       		.byte	0x5f
 1450 0348 58020000 		.4byte	0x258
 1451 034c 00       		.byte	0
 1452 034d 06       		.uleb128 0x6
 1453 034e 72030000 		.4byte	.LASF54
 1454 0352 0A       		.byte	0xa
 1455 0353 60       		.byte	0x60
 1456 0354 FD000000 		.4byte	0xfd
 1457 0358 08       		.byte	0x8
 1458 0359 06       		.uleb128 0x6
 1459 035a DD020000 		.4byte	.LASF55
 1460 035e 0A       		.byte	0xa
 1461 035f 62       		.byte	0x62
 1462 0360 0C030000 		.4byte	0x30c
 1463 0364 0C       		.byte	0xc
 1464 0365 06       		.uleb128 0x6
 1465 0366 5F020000 		.4byte	.LASF56
 1466 036a 0A       		.byte	0xa
 1467 036b 65       		.byte	0x65
 1468 036c 52020000 		.4byte	0x252
 1469 0370 10       		.byte	0x10
 1470 0371 06       		.uleb128 0x6
 1471 0372 FF020000 		.4byte	.LASF57
 1472 0376 0A       		.byte	0xa
 1473 0377 66       		.byte	0x66
 1474 0378 52020000 		.4byte	0x252
 1475 037c 14       		.byte	0x14
 1476 037d 06       		.uleb128 0x6
 1477 037e F5020000 		.4byte	.LASF58
 1478 0382 0A       		.byte	0xa
 1479 0383 69       		.byte	0x69
 1480 0384 52020000 		.4byte	0x252
 1481 0388 18       		.byte	0x18
 1482 0389 00       		.byte	0
ARM GAS  /var/folders/6q/x_mk5n_j3p7_c40r_2k_78980000gn/T//ccLnxSft.s 			page 27


 1483 038a 03       		.uleb128 0x3
 1484 038b 65040000 		.4byte	.LASF59
 1485 038f 0A       		.byte	0xa
 1486 0390 6B       		.byte	0x6b
 1487 0391 39030000 		.4byte	0x339
 1488 0395 05       		.uleb128 0x5
 1489 0396 92020000 		.4byte	.LASF60
 1490 039a 10       		.byte	0x10
 1491 039b 0B       		.byte	0xb
 1492 039c 2C       		.byte	0x2c
 1493 039d C6030000 		.4byte	0x3c6
 1494 03a1 06       		.uleb128 0x6
 1495 03a2 B8000000 		.4byte	.LASF61
 1496 03a6 0B       		.byte	0xb
 1497 03a7 2D       		.byte	0x2d
 1498 03a8 58020000 		.4byte	0x258
 1499 03ac 00       		.byte	0
 1500 03ad 06       		.uleb128 0x6
 1501 03ae B0040000 		.4byte	.LASF62
 1502 03b2 0B       		.byte	0xb
 1503 03b3 2F       		.byte	0x2f
 1504 03b4 52020000 		.4byte	0x252
 1505 03b8 08       		.byte	0x8
 1506 03b9 06       		.uleb128 0x6
 1507 03ba EA030000 		.4byte	.LASF63
 1508 03be 0B       		.byte	0xb
 1509 03bf 31       		.byte	0x31
 1510 03c0 C6030000 		.4byte	0x3c6
 1511 03c4 0C       		.byte	0xc
 1512 03c5 00       		.byte	0
 1513 03c6 09       		.uleb128 0x9
 1514 03c7 04       		.byte	0x4
 1515 03c8 95030000 		.4byte	0x395
 1516 03cc 03       		.uleb128 0x3
 1517 03cd 92020000 		.4byte	.LASF60
 1518 03d1 0B       		.byte	0xb
 1519 03d2 33       		.byte	0x33
 1520 03d3 95030000 		.4byte	0x395
 1521 03d7 0E       		.uleb128 0xe
 1522 03d8 04       		.byte	0x4
 1523 03d9 08       		.byte	0x8
 1524 03da 96       		.byte	0x96
 1525 03db 0C040000 		.4byte	0x40c
 1526 03df 0F       		.uleb128 0xf
 1527 03e0 28000000 		.4byte	.LASF64
 1528 03e4 08       		.byte	0x8
 1529 03e5 9D       		.byte	0x9d
 1530 03e6 08010000 		.4byte	0x108
 1531 03ea 0F       		.uleb128 0xf
 1532 03eb 75000000 		.4byte	.LASF65
 1533 03ef 08       		.byte	0x8
 1534 03f0 A4       		.byte	0xa4
 1535 03f1 08010000 		.4byte	0x108
 1536 03f5 0F       		.uleb128 0xf
 1537 03f6 86040000 		.4byte	.LASF66
 1538 03fa 08       		.byte	0x8
 1539 03fb AB       		.byte	0xab
ARM GAS  /var/folders/6q/x_mk5n_j3p7_c40r_2k_78980000gn/T//ccLnxSft.s 			page 28


 1540 03fc 8E020000 		.4byte	0x28e
 1541 0400 0F       		.uleb128 0xf
 1542 0401 79030000 		.4byte	.LASF67
 1543 0405 08       		.byte	0x8
 1544 0406 B2       		.byte	0xb2
 1545 0407 13010000 		.4byte	0x113
 1546 040b 00       		.byte	0
 1547 040c 09       		.uleb128 0x9
 1548 040d 04       		.byte	0x4
 1549 040e 19040000 		.4byte	0x419
 1550 0412 04       		.uleb128 0x4
 1551 0413 01       		.byte	0x1
 1552 0414 08       		.byte	0x8
 1553 0415 C3030000 		.4byte	.LASF68
 1554 0419 10       		.uleb128 0x10
 1555 041a 12040000 		.4byte	0x412
 1556 041e 09       		.uleb128 0x9
 1557 041f 04       		.byte	0x4
 1558 0420 CC030000 		.4byte	0x3cc
 1559 0424 03       		.uleb128 0x3
 1560 0425 98020000 		.4byte	.LASF69
 1561 0429 0C       		.byte	0xc
 1562 042a 37       		.byte	0x37
 1563 042b 2F040000 		.4byte	0x42f
 1564 042f 05       		.uleb128 0x5
 1565 0430 98020000 		.4byte	.LASF69
 1566 0434 24       		.byte	0x24
 1567 0435 0C       		.byte	0xc
 1568 0436 45       		.byte	0x45
 1569 0437 9C040000 		.4byte	0x49c
 1570 043b 06       		.uleb128 0x6
 1571 043c 85000000 		.4byte	.LASF70
 1572 0440 0C       		.byte	0xc
 1573 0441 46       		.byte	0x46
 1574 0442 58020000 		.4byte	0x258
 1575 0446 00       		.byte	0
 1576 0447 06       		.uleb128 0x6
 1577 0448 BF020000 		.4byte	.LASF71
 1578 044c 0C       		.byte	0xc
 1579 044d 47       		.byte	0x47
 1580 044e 2C000000 		.4byte	0x2c
 1581 0452 08       		.byte	0x8
 1582 0453 06       		.uleb128 0x6
 1583 0454 EB000000 		.4byte	.LASF72
 1584 0458 0C       		.byte	0xc
 1585 0459 48       		.byte	0x48
 1586 045a BE040000 		.4byte	0x4be
 1587 045e 0C       		.byte	0xc
 1588 045f 06       		.uleb128 0x6
 1589 0460 58040000 		.4byte	.LASF73
 1590 0464 0C       		.byte	0xc
 1591 0465 49       		.byte	0x49
 1592 0466 BE040000 		.4byte	0x4be
 1593 046a 10       		.byte	0x10
 1594 046b 06       		.uleb128 0x6
 1595 046c F4000000 		.4byte	.LASF74
 1596 0470 0C       		.byte	0xc
ARM GAS  /var/folders/6q/x_mk5n_j3p7_c40r_2k_78980000gn/T//ccLnxSft.s 			page 29


 1597 0471 4B       		.byte	0x4b
 1598 0472 BE040000 		.4byte	0x4be
 1599 0476 14       		.byte	0x14
 1600 0477 06       		.uleb128 0x6
 1601 0478 28030000 		.4byte	.LASF75
 1602 047c 0C       		.byte	0xc
 1603 047d 4C       		.byte	0x4c
 1604 047e BE040000 		.4byte	0x4be
 1605 0482 18       		.byte	0x18
 1606 0483 06       		.uleb128 0x6
 1607 0484 6F040000 		.4byte	.LASF76
 1608 0488 0C       		.byte	0xc
 1609 0489 4D       		.byte	0x4d
 1610 048a 9C040000 		.4byte	0x49c
 1611 048e 1C       		.byte	0x1c
 1612 048f 06       		.uleb128 0x6
 1613 0490 A9040000 		.4byte	.LASF77
 1614 0494 0C       		.byte	0xc
 1615 0495 4E       		.byte	0x4e
 1616 0496 8E020000 		.4byte	0x28e
 1617 049a 20       		.byte	0x20
 1618 049b 00       		.byte	0
 1619 049c 03       		.uleb128 0x3
 1620 049d 0F030000 		.4byte	.LASF78
 1621 04a1 0C       		.byte	0xc
 1622 04a2 3A       		.byte	0x3a
 1623 04a3 A7040000 		.4byte	0x4a7
 1624 04a7 09       		.uleb128 0x9
 1625 04a8 04       		.byte	0x4
 1626 04a9 AD040000 		.4byte	0x4ad
 1627 04ad 11       		.uleb128 0x11
 1628 04ae B8040000 		.4byte	0x4b8
 1629 04b2 12       		.uleb128 0x12
 1630 04b3 B8040000 		.4byte	0x4b8
 1631 04b7 00       		.byte	0
 1632 04b8 09       		.uleb128 0x9
 1633 04b9 04       		.byte	0x4
 1634 04ba 24040000 		.4byte	0x424
 1635 04be 09       		.uleb128 0x9
 1636 04bf 04       		.byte	0x4
 1637 04c0 9E000000 		.4byte	0x9e
 1638 04c4 03       		.uleb128 0x3
 1639 04c5 87020000 		.4byte	.LASF79
 1640 04c9 0C       		.byte	0xc
 1641 04ca 82       		.byte	0x82
 1642 04cb 24040000 		.4byte	0x424
 1643 04cf 03       		.uleb128 0x3
 1644 04d0 38000000 		.4byte	.LASF80
 1645 04d4 0C       		.byte	0xc
 1646 04d5 F5       		.byte	0xf5
 1647 04d6 24040000 		.4byte	0x424
 1648 04da 09       		.uleb128 0x9
 1649 04db 04       		.byte	0x4
 1650 04dc E0040000 		.4byte	0x4e0
 1651 04e0 10       		.uleb128 0x10
 1652 04e1 9E000000 		.4byte	0x9e
 1653 04e5 13       		.uleb128 0x13
ARM GAS  /var/folders/6q/x_mk5n_j3p7_c40r_2k_78980000gn/T//ccLnxSft.s 			page 30


 1654 04e6 0F000000 		.4byte	.LASF101
 1655 04ea 02       		.byte	0x2
 1656 04eb 34       		.byte	0x34
 1657 04ec 03       		.byte	0x3
 1658 04ed 07050000 		.4byte	0x507
 1659 04f1 14       		.uleb128 0x14
 1660 04f2 747000   		.ascii	"tp\000"
 1661 04f5 02       		.byte	0x2
 1662 04f6 34       		.byte	0x34
 1663 04f7 52020000 		.4byte	0x252
 1664 04fb 14       		.uleb128 0x14
 1665 04fc 74717000 		.ascii	"tqp\000"
 1666 0500 02       		.byte	0x2
 1667 0501 34       		.byte	0x34
 1668 0502 07050000 		.4byte	0x507
 1669 0506 00       		.byte	0
 1670 0507 09       		.uleb128 0x9
 1671 0508 04       		.byte	0x4
 1672 0509 58020000 		.4byte	0x258
 1673 050d 15       		.uleb128 0x15
 1674 050e D7040000 		.4byte	.LASF102
 1675 0512 02       		.byte	0x2
 1676 0513 3B       		.byte	0x3b
 1677 0514 52020000 		.4byte	0x252
 1678 0518 03       		.byte	0x3
 1679 0519 33050000 		.4byte	0x533
 1680 051d 14       		.uleb128 0x14
 1681 051e 74717000 		.ascii	"tqp\000"
 1682 0522 02       		.byte	0x2
 1683 0523 3B       		.byte	0x3b
 1684 0524 07050000 		.4byte	0x507
 1685 0528 16       		.uleb128 0x16
 1686 0529 747000   		.ascii	"tp\000"
 1687 052c 02       		.byte	0x2
 1688 052d 3C       		.byte	0x3c
 1689 052e 52020000 		.4byte	0x252
 1690 0532 00       		.byte	0
 1691 0533 17       		.uleb128 0x17
 1692 0534 CA000000 		.4byte	.LASF103
 1693 0538 01       		.byte	0x1
 1694 0539 46       		.byte	0x46
 1695 053a 08010000 		.4byte	0x108
 1696 053e 00000000 		.4byte	.LFB7
 1697 0542 28000000 		.4byte	.LFE7-.LFB7
 1698 0546 01       		.uleb128 0x1
 1699 0547 9C       		.byte	0x9c
 1700 0548 A6050000 		.4byte	0x5a6
 1701 054c 18       		.uleb128 0x18
 1702 054d 717000   		.ascii	"qp\000"
 1703 0550 01       		.byte	0x1
 1704 0551 46       		.byte	0x46
 1705 0552 B8040000 		.4byte	0x4b8
 1706 0556 00000000 		.4byte	.LLST0
 1707 055a 19       		.uleb128 0x19
 1708 055b F0020000 		.4byte	.LASF81
 1709 055f 01       		.byte	0x1
 1710 0560 46       		.byte	0x46
ARM GAS  /var/folders/6q/x_mk5n_j3p7_c40r_2k_78980000gn/T//ccLnxSft.s 			page 31


 1711 0561 1E010000 		.4byte	0x11e
 1712 0565 45000000 		.4byte	.LLST1
 1713 0569 1A       		.uleb128 0x1a
 1714 056a E5040000 		.4byte	0x4e5
 1715 056e 0E000000 		.4byte	.LBB12
 1716 0572 0A000000 		.4byte	.LBE12-.LBB12
 1717 0576 01       		.byte	0x1
 1718 0577 4B       		.byte	0x4b
 1719 0578 8F050000 		.4byte	0x58f
 1720 057c 1B       		.uleb128 0x1b
 1721 057d FB040000 		.4byte	0x4fb
 1722 0581 71000000 		.4byte	.LLST2
 1723 0585 1B       		.uleb128 0x1b
 1724 0586 F1040000 		.4byte	0x4f1
 1725 058a 84000000 		.4byte	.LLST3
 1726 058e 00       		.byte	0
 1727 058f 1C       		.uleb128 0x1c
 1728 0590 1E000000 		.4byte	.LVL4
 1729 0594 BD0B0000 		.4byte	0xbbd
 1730 0598 1D       		.uleb128 0x1d
 1731 0599 01       		.uleb128 0x1
 1732 059a 50       		.byte	0x50
 1733 059b 01       		.uleb128 0x1
 1734 059c 3D       		.byte	0x3d
 1735 059d 1D       		.uleb128 0x1d
 1736 059e 01       		.uleb128 0x1
 1737 059f 51       		.byte	0x51
 1738 05a0 03       		.uleb128 0x3
 1739 05a1 F3       		.byte	0xf3
 1740 05a2 01       		.uleb128 0x1
 1741 05a3 51       		.byte	0x51
 1742 05a4 00       		.byte	0
 1743 05a5 00       		.byte	0
 1744 05a6 1E       		.uleb128 0x1e
 1745 05a7 2F000000 		.4byte	.LASF85
 1746 05ab 01       		.byte	0x1
 1747 05ac 5F       		.byte	0x5f
 1748 05ad 00000000 		.4byte	.LFB8
 1749 05b1 1E000000 		.4byte	.LFE8-.LFB8
 1750 05b5 01       		.uleb128 0x1
 1751 05b6 9C       		.byte	0x9c
 1752 05b7 00060000 		.4byte	0x600
 1753 05bb 1F       		.uleb128 0x1f
 1754 05bc 69717000 		.ascii	"iqp\000"
 1755 05c0 01       		.byte	0x1
 1756 05c1 5F       		.byte	0x5f
 1757 05c2 00060000 		.4byte	0x600
 1758 05c6 01       		.uleb128 0x1
 1759 05c7 50       		.byte	0x50
 1760 05c8 1F       		.uleb128 0x1f
 1761 05c9 627000   		.ascii	"bp\000"
 1762 05cc 01       		.byte	0x1
 1763 05cd 5F       		.byte	0x5f
 1764 05ce BE040000 		.4byte	0x4be
 1765 05d2 01       		.uleb128 0x1
 1766 05d3 51       		.byte	0x51
 1767 05d4 19       		.uleb128 0x19
ARM GAS  /var/folders/6q/x_mk5n_j3p7_c40r_2k_78980000gn/T//ccLnxSft.s 			page 32


 1768 05d5 41020000 		.4byte	.LASF82
 1769 05d9 01       		.byte	0x1
 1770 05da 5F       		.byte	0x5f
 1771 05db 2C000000 		.4byte	0x2c
 1772 05df 97000000 		.4byte	.LLST4
 1773 05e3 20       		.uleb128 0x20
 1774 05e4 87030000 		.4byte	.LASF83
 1775 05e8 01       		.byte	0x1
 1776 05e9 5F       		.byte	0x5f
 1777 05ea 9C040000 		.4byte	0x49c
 1778 05ee 01       		.uleb128 0x1
 1779 05ef 53       		.byte	0x53
 1780 05f0 19       		.uleb128 0x19
 1781 05f1 18010000 		.4byte	.LASF84
 1782 05f5 01       		.byte	0x1
 1783 05f6 60       		.byte	0x60
 1784 05f7 8E020000 		.4byte	0x28e
 1785 05fb B8000000 		.4byte	.LLST5
 1786 05ff 00       		.byte	0
 1787 0600 09       		.uleb128 0x9
 1788 0601 04       		.byte	0x4
 1789 0602 C4040000 		.4byte	0x4c4
 1790 0606 1E       		.uleb128 0x1e
 1791 0607 42010000 		.4byte	.LASF86
 1792 060b 01       		.byte	0x1
 1793 060c 75       		.byte	0x75
 1794 060d 00000000 		.4byte	.LFB9
 1795 0611 2C000000 		.4byte	.LFE9-.LFB9
 1796 0615 01       		.uleb128 0x1
 1797 0616 9C       		.byte	0x9c
 1798 0617 64060000 		.4byte	0x664
 1799 061b 18       		.uleb128 0x18
 1800 061c 69717000 		.ascii	"iqp\000"
 1801 0620 01       		.byte	0x1
 1802 0621 75       		.byte	0x75
 1803 0622 00060000 		.4byte	0x600
 1804 0626 D8000000 		.4byte	.LLST6
 1805 062a 1A       		.uleb128 0x1a
 1806 062b 0D050000 		.4byte	0x50d
 1807 062f 18000000 		.4byte	.LBB14
 1808 0633 06000000 		.4byte	.LBE14-.LBB14
 1809 0637 01       		.byte	0x1
 1810 0638 7C       		.byte	0x7c
 1811 0639 5A060000 		.4byte	0x65a
 1812 063d 1B       		.uleb128 0x1b
 1813 063e 1D050000 		.4byte	0x51d
 1814 0642 F6000000 		.4byte	.LLST7
 1815 0646 21       		.uleb128 0x21
 1816 0647 18000000 		.4byte	.LBB15
 1817 064b 06000000 		.4byte	.LBE15-.LBB15
 1818 064f 22       		.uleb128 0x22
 1819 0650 28050000 		.4byte	0x528
 1820 0654 09010000 		.4byte	.LLST8
 1821 0658 00       		.byte	0
 1822 0659 00       		.byte	0
 1823 065a 23       		.uleb128 0x23
 1824 065b 22000000 		.4byte	.LVL13
ARM GAS  /var/folders/6q/x_mk5n_j3p7_c40r_2k_78980000gn/T//ccLnxSft.s 			page 33


 1825 065f C80B0000 		.4byte	0xbc8
 1826 0663 00       		.byte	0
 1827 0664 24       		.uleb128 0x24
 1828 0665 2C010000 		.4byte	.LASF87
 1829 0669 01       		.byte	0x1
 1830 066a 8C       		.byte	0x8c
 1831 066b 08010000 		.4byte	0x108
 1832 066f 00000000 		.4byte	.LFB10
 1833 0673 52000000 		.4byte	.LFE10-.LFB10
 1834 0677 01       		.uleb128 0x1
 1835 0678 9C       		.byte	0x9c
 1836 0679 CF060000 		.4byte	0x6cf
 1837 067d 18       		.uleb128 0x18
 1838 067e 69717000 		.ascii	"iqp\000"
 1839 0682 01       		.byte	0x1
 1840 0683 8C       		.byte	0x8c
 1841 0684 00060000 		.4byte	0x600
 1842 0688 1C010000 		.4byte	.LLST9
 1843 068c 18       		.uleb128 0x18
 1844 068d 6200     		.ascii	"b\000"
 1845 068f 01       		.byte	0x1
 1846 0690 8C       		.byte	0x8c
 1847 0691 9E000000 		.4byte	0x9e
 1848 0695 7A010000 		.4byte	.LLST10
 1849 0699 25       		.uleb128 0x25
 1850 069a 0D050000 		.4byte	0x50d
 1851 069e 26000000 		.4byte	.LBB16
 1852 06a2 00000000 		.4byte	.Ldebug_ranges0+0
 1853 06a6 01       		.byte	0x1
 1854 06a7 99       		.byte	0x99
 1855 06a8 C5060000 		.4byte	0x6c5
 1856 06ac 1B       		.uleb128 0x1b
 1857 06ad 1D050000 		.4byte	0x51d
 1858 06b1 A6010000 		.4byte	.LLST11
 1859 06b5 26       		.uleb128 0x26
 1860 06b6 00000000 		.4byte	.Ldebug_ranges0+0
 1861 06ba 22       		.uleb128 0x22
 1862 06bb 28050000 		.4byte	0x528
 1863 06bf B9010000 		.4byte	.LLST12
 1864 06c3 00       		.byte	0
 1865 06c4 00       		.byte	0
 1866 06c5 23       		.uleb128 0x23
 1867 06c6 32000000 		.4byte	.LVL19
 1868 06ca C80B0000 		.4byte	0xbc8
 1869 06ce 00       		.byte	0
 1870 06cf 24       		.uleb128 0x24
 1871 06d0 C8040000 		.4byte	.LASF88
 1872 06d4 01       		.byte	0x1
 1873 06d5 B2       		.byte	0xb2
 1874 06d6 08010000 		.4byte	0x108
 1875 06da 00000000 		.4byte	.LFB11
 1876 06de 50000000 		.4byte	.LFE11-.LFB11
 1877 06e2 01       		.uleb128 0x1
 1878 06e3 9C       		.byte	0x9c
 1879 06e4 9C070000 		.4byte	0x79c
 1880 06e8 18       		.uleb128 0x18
 1881 06e9 69717000 		.ascii	"iqp\000"
ARM GAS  /var/folders/6q/x_mk5n_j3p7_c40r_2k_78980000gn/T//ccLnxSft.s 			page 34


 1882 06ed 01       		.byte	0x1
 1883 06ee B2       		.byte	0xb2
 1884 06ef 00060000 		.4byte	0x600
 1885 06f3 CC010000 		.4byte	.LLST13
 1886 06f7 19       		.uleb128 0x19
 1887 06f8 F0020000 		.4byte	.LASF81
 1888 06fc 01       		.byte	0x1
 1889 06fd B2       		.byte	0xb2
 1890 06fe 1E010000 		.4byte	0x11e
 1891 0702 EA010000 		.4byte	.LLST14
 1892 0706 27       		.uleb128 0x27
 1893 0707 6200     		.ascii	"b\000"
 1894 0709 01       		.byte	0x1
 1895 070a B3       		.byte	0xb3
 1896 070b 9E000000 		.4byte	0x9e
 1897 070f 08020000 		.4byte	.LLST15
 1898 0713 28       		.uleb128 0x28
 1899 0714 18000000 		.4byte	.Ldebug_ranges0+0x18
 1900 0718 2A070000 		.4byte	0x72a
 1901 071c 29       		.uleb128 0x29
 1902 071d 746D7000 		.ascii	"tmp\000"
 1903 0721 01       		.byte	0x1
 1904 0722 B5       		.byte	0xb5
 1905 0723 B4000000 		.4byte	0xb4
 1906 0727 01       		.uleb128 0x1
 1907 0728 53       		.byte	0x53
 1908 0729 00       		.byte	0
 1909 072a 28       		.uleb128 0x28
 1910 072b 30000000 		.4byte	.Ldebug_ranges0+0x30
 1911 072f 74070000 		.4byte	0x774
 1912 0733 27       		.uleb128 0x27
 1913 0734 6D736700 		.ascii	"msg\000"
 1914 0738 01       		.byte	0x1
 1915 0739 BA       		.byte	0xba
 1916 073a 08010000 		.4byte	0x108
 1917 073e 1B020000 		.4byte	.LLST16
 1918 0742 2A       		.uleb128 0x2a
 1919 0743 48000000 		.4byte	.LBB23
 1920 0747 06000000 		.4byte	.LBE23-.LBB23
 1921 074b 5D070000 		.4byte	0x75d
 1922 074f 29       		.uleb128 0x29
 1923 0750 746D7000 		.ascii	"tmp\000"
 1924 0754 01       		.byte	0x1
 1925 0755 BC       		.byte	0xbc
 1926 0756 B4000000 		.4byte	0xb4
 1927 075a 01       		.uleb128 0x1
 1928 075b 53       		.byte	0x53
 1929 075c 00       		.byte	0
 1930 075d 2B       		.uleb128 0x2b
 1931 075e 1C000000 		.4byte	.LVL26
 1932 0762 33050000 		.4byte	0x533
 1933 0766 1D       		.uleb128 0x1d
 1934 0767 01       		.uleb128 0x1
 1935 0768 50       		.byte	0x50
 1936 0769 02       		.uleb128 0x2
 1937 076a 74       		.byte	0x74
 1938 076b 00       		.sleb128 0
ARM GAS  /var/folders/6q/x_mk5n_j3p7_c40r_2k_78980000gn/T//ccLnxSft.s 			page 35


 1939 076c 1D       		.uleb128 0x1d
 1940 076d 01       		.uleb128 0x1
 1941 076e 51       		.byte	0x51
 1942 076f 02       		.uleb128 0x2
 1943 0770 76       		.byte	0x76
 1944 0771 00       		.sleb128 0
 1945 0772 00       		.byte	0
 1946 0773 00       		.byte	0
 1947 0774 2A       		.uleb128 0x2a
 1948 0775 40000000 		.4byte	.LBB24
 1949 0779 06000000 		.4byte	.LBE24-.LBB24
 1950 077d 8F070000 		.4byte	0x78f
 1951 0781 29       		.uleb128 0x29
 1952 0782 746D7000 		.ascii	"tmp\000"
 1953 0786 01       		.byte	0x1
 1954 0787 C6       		.byte	0xc6
 1955 0788 B4000000 		.4byte	0xb4
 1956 078c 01       		.uleb128 0x1
 1957 078d 53       		.byte	0x53
 1958 078e 00       		.byte	0
 1959 078f 2C       		.uleb128 0x2c
 1960 0790 12000000 		.4byte	.LVL25
 1961 0794 1D       		.uleb128 0x1d
 1962 0795 01       		.uleb128 0x1
 1963 0796 50       		.byte	0x50
 1964 0797 02       		.uleb128 0x2
 1965 0798 74       		.byte	0x74
 1966 0799 00       		.sleb128 0
 1967 079a 00       		.byte	0
 1968 079b 00       		.byte	0
 1969 079c 24       		.uleb128 0x24
 1970 079d 4E000000 		.4byte	.LASF89
 1971 07a1 01       		.byte	0x1
 1972 07a2 E2       		.byte	0xe2
 1973 07a3 2C000000 		.4byte	0x2c
 1974 07a7 00000000 		.4byte	.LFB12
 1975 07ab 70000000 		.4byte	.LFE12-.LFB12
 1976 07af 01       		.uleb128 0x1
 1977 07b0 9C       		.byte	0x9c
 1978 07b1 9B080000 		.4byte	0x89b
 1979 07b5 18       		.uleb128 0x18
 1980 07b6 69717000 		.ascii	"iqp\000"
 1981 07ba 01       		.byte	0x1
 1982 07bb E2       		.byte	0xe2
 1983 07bc 00060000 		.4byte	0x600
 1984 07c0 39020000 		.4byte	.LLST17
 1985 07c4 18       		.uleb128 0x18
 1986 07c5 627000   		.ascii	"bp\000"
 1987 07c8 01       		.byte	0x1
 1988 07c9 E2       		.byte	0xe2
 1989 07ca BE040000 		.4byte	0x4be
 1990 07ce 57020000 		.4byte	.LLST18
 1991 07d2 18       		.uleb128 0x18
 1992 07d3 6E00     		.ascii	"n\000"
 1993 07d5 01       		.byte	0x1
 1994 07d6 E3       		.byte	0xe3
 1995 07d7 2C000000 		.4byte	0x2c
ARM GAS  /var/folders/6q/x_mk5n_j3p7_c40r_2k_78980000gn/T//ccLnxSft.s 			page 36


 1996 07db 8D020000 		.4byte	.LLST19
 1997 07df 19       		.uleb128 0x19
 1998 07e0 F0020000 		.4byte	.LASF81
 1999 07e4 01       		.byte	0x1
 2000 07e5 E3       		.byte	0xe3
 2001 07e6 1E010000 		.4byte	0x11e
 2002 07ea B0020000 		.4byte	.LLST20
 2003 07ee 29       		.uleb128 0x29
 2004 07ef 6E667900 		.ascii	"nfy\000"
 2005 07f3 01       		.byte	0x1
 2006 07f4 E4       		.byte	0xe4
 2007 07f5 9C040000 		.4byte	0x49c
 2008 07f9 01       		.uleb128 0x1
 2009 07fa 58       		.byte	0x58
 2010 07fb 27       		.uleb128 0x27
 2011 07fc 7200     		.ascii	"r\000"
 2012 07fe 01       		.byte	0x1
 2013 07ff E5       		.byte	0xe5
 2014 0800 2C000000 		.4byte	0x2c
 2015 0804 CE020000 		.4byte	.LLST21
 2016 0808 2A       		.uleb128 0x2a
 2017 0809 10000000 		.4byte	.LBB26
 2018 080d 06000000 		.4byte	.LBE26-.LBB26
 2019 0811 23080000 		.4byte	0x823
 2020 0815 29       		.uleb128 0x29
 2021 0816 746D7000 		.ascii	"tmp\000"
 2022 081a 01       		.byte	0x1
 2023 081b E9       		.byte	0xe9
 2024 081c B4000000 		.4byte	0xb4
 2025 0820 01       		.uleb128 0x1
 2026 0821 53       		.byte	0x53
 2027 0822 00       		.byte	0
 2028 0823 2A       		.uleb128 0x2a
 2029 0824 50000000 		.4byte	.LBB27
 2030 0828 06000000 		.4byte	.LBE27-.LBB27
 2031 082c 3E080000 		.4byte	0x83e
 2032 0830 29       		.uleb128 0x29
 2033 0831 746D7000 		.ascii	"tmp\000"
 2034 0835 01       		.byte	0x1
 2035 0836 FA       		.byte	0xfa
 2036 0837 B4000000 		.4byte	0xb4
 2037 083b 01       		.uleb128 0x1
 2038 083c 53       		.byte	0x53
 2039 083d 00       		.byte	0
 2040 083e 2A       		.uleb128 0x2a
 2041 083f 5C000000 		.4byte	.LBB28
 2042 0843 06000000 		.4byte	.LBE28-.LBB28
 2043 0847 59080000 		.4byte	0x859
 2044 084b 29       		.uleb128 0x29
 2045 084c 746D7000 		.ascii	"tmp\000"
 2046 0850 01       		.byte	0x1
 2047 0851 FF       		.byte	0xff
 2048 0852 B4000000 		.4byte	0xb4
 2049 0856 01       		.uleb128 0x1
 2050 0857 53       		.byte	0x53
 2051 0858 00       		.byte	0
 2052 0859 2A       		.uleb128 0x2a
ARM GAS  /var/folders/6q/x_mk5n_j3p7_c40r_2k_78980000gn/T//ccLnxSft.s 			page 37


 2053 085a 64000000 		.4byte	.LBB29
 2054 085e 06000000 		.4byte	.LBE29-.LBB29
 2055 0862 74080000 		.4byte	0x874
 2056 0866 29       		.uleb128 0x29
 2057 0867 746D7000 		.ascii	"tmp\000"
 2058 086b 01       		.byte	0x1
 2059 086c F0       		.byte	0xf0
 2060 086d B4000000 		.4byte	0xb4
 2061 0871 01       		.uleb128 0x1
 2062 0872 53       		.byte	0x53
 2063 0873 00       		.byte	0
 2064 0874 2D       		.uleb128 0x2d
 2065 0875 22000000 		.4byte	.LVL34
 2066 0879 84080000 		.4byte	0x884
 2067 087d 1D       		.uleb128 0x1d
 2068 087e 01       		.uleb128 0x1
 2069 087f 50       		.byte	0x50
 2070 0880 02       		.uleb128 0x2
 2071 0881 74       		.byte	0x74
 2072 0882 00       		.sleb128 0
 2073 0883 00       		.byte	0
 2074 0884 2B       		.uleb128 0x2b
 2075 0885 2C000000 		.4byte	.LVL35
 2076 0889 33050000 		.4byte	0x533
 2077 088d 1D       		.uleb128 0x1d
 2078 088e 01       		.uleb128 0x1
 2079 088f 50       		.byte	0x50
 2080 0890 02       		.uleb128 0x2
 2081 0891 74       		.byte	0x74
 2082 0892 00       		.sleb128 0
 2083 0893 1D       		.uleb128 0x1d
 2084 0894 01       		.uleb128 0x1
 2085 0895 51       		.byte	0x51
 2086 0896 02       		.uleb128 0x2
 2087 0897 76       		.byte	0x76
 2088 0898 00       		.sleb128 0
 2089 0899 00       		.byte	0
 2090 089a 00       		.byte	0
 2091 089b 2E       		.uleb128 0x2e
 2092 089c 00000000 		.4byte	.LASF90
 2093 08a0 01       		.byte	0x1
 2094 08a1 1301     		.2byte	0x113
 2095 08a3 00000000 		.4byte	.LFB13
 2096 08a7 1C000000 		.4byte	.LFE13-.LFB13
 2097 08ab 01       		.uleb128 0x1
 2098 08ac 9C       		.byte	0x9c
 2099 08ad F9080000 		.4byte	0x8f9
 2100 08b1 2F       		.uleb128 0x2f
 2101 08b2 6F717000 		.ascii	"oqp\000"
 2102 08b6 01       		.byte	0x1
 2103 08b7 1301     		.2byte	0x113
 2104 08b9 F9080000 		.4byte	0x8f9
 2105 08bd 01       		.uleb128 0x1
 2106 08be 50       		.byte	0x50
 2107 08bf 2F       		.uleb128 0x2f
 2108 08c0 627000   		.ascii	"bp\000"
 2109 08c3 01       		.byte	0x1
ARM GAS  /var/folders/6q/x_mk5n_j3p7_c40r_2k_78980000gn/T//ccLnxSft.s 			page 38


 2110 08c4 1301     		.2byte	0x113
 2111 08c6 BE040000 		.4byte	0x4be
 2112 08ca 01       		.uleb128 0x1
 2113 08cb 51       		.byte	0x51
 2114 08cc 30       		.uleb128 0x30
 2115 08cd 41020000 		.4byte	.LASF82
 2116 08d1 01       		.byte	0x1
 2117 08d2 1301     		.2byte	0x113
 2118 08d4 2C000000 		.4byte	0x2c
 2119 08d8 01       		.uleb128 0x1
 2120 08d9 52       		.byte	0x52
 2121 08da 30       		.uleb128 0x30
 2122 08db 1C000000 		.4byte	.LASF91
 2123 08df 01       		.byte	0x1
 2124 08e0 1301     		.2byte	0x113
 2125 08e2 9C040000 		.4byte	0x49c
 2126 08e6 01       		.uleb128 0x1
 2127 08e7 53       		.byte	0x53
 2128 08e8 31       		.uleb128 0x31
 2129 08e9 18010000 		.4byte	.LASF84
 2130 08ed 01       		.byte	0x1
 2131 08ee 1401     		.2byte	0x114
 2132 08f0 8E020000 		.4byte	0x28e
 2133 08f4 ED020000 		.4byte	.LLST22
 2134 08f8 00       		.byte	0
 2135 08f9 09       		.uleb128 0x9
 2136 08fa 04       		.byte	0x4
 2137 08fb CF040000 		.4byte	0x4cf
 2138 08ff 2E       		.uleb128 0x2e
 2139 0900 10040000 		.4byte	.LASF92
 2140 0904 01       		.byte	0x1
 2141 0905 2901     		.2byte	0x129
 2142 0907 00000000 		.4byte	.LFB14
 2143 090b 2E000000 		.4byte	.LFE14-.LFB14
 2144 090f 01       		.uleb128 0x1
 2145 0910 9C       		.byte	0x9c
 2146 0911 60090000 		.4byte	0x960
 2147 0915 32       		.uleb128 0x32
 2148 0916 6F717000 		.ascii	"oqp\000"
 2149 091a 01       		.byte	0x1
 2150 091b 2901     		.2byte	0x129
 2151 091d F9080000 		.4byte	0x8f9
 2152 0921 0D030000 		.4byte	.LLST23
 2153 0925 33       		.uleb128 0x33
 2154 0926 0D050000 		.4byte	0x50d
 2155 092a 1A000000 		.4byte	.LBB30
 2156 092e 06000000 		.4byte	.LBE30-.LBB30
 2157 0932 01       		.byte	0x1
 2158 0933 3001     		.2byte	0x130
 2159 0935 56090000 		.4byte	0x956
 2160 0939 1B       		.uleb128 0x1b
 2161 093a 1D050000 		.4byte	0x51d
 2162 093e 2B030000 		.4byte	.LLST24
 2163 0942 21       		.uleb128 0x21
 2164 0943 1A000000 		.4byte	.LBB31
 2165 0947 06000000 		.4byte	.LBE31-.LBB31
 2166 094b 22       		.uleb128 0x22
ARM GAS  /var/folders/6q/x_mk5n_j3p7_c40r_2k_78980000gn/T//ccLnxSft.s 			page 39


 2167 094c 28050000 		.4byte	0x528
 2168 0950 3E030000 		.4byte	.LLST25
 2169 0954 00       		.byte	0
 2170 0955 00       		.byte	0
 2171 0956 23       		.uleb128 0x23
 2172 0957 24000000 		.4byte	.LVL46
 2173 095b C80B0000 		.4byte	0xbc8
 2174 095f 00       		.byte	0
 2175 0960 34       		.uleb128 0x34
 2176 0961 1D010000 		.4byte	.LASF93
 2177 0965 01       		.byte	0x1
 2178 0966 4901     		.2byte	0x149
 2179 0968 08010000 		.4byte	0x108
 2180 096c 00000000 		.4byte	.LFB15
 2181 0970 54000000 		.4byte	.LFE15-.LFB15
 2182 0974 01       		.uleb128 0x1
 2183 0975 9C       		.byte	0x9c
 2184 0976 390A0000 		.4byte	0xa39
 2185 097a 32       		.uleb128 0x32
 2186 097b 6F717000 		.ascii	"oqp\000"
 2187 097f 01       		.byte	0x1
 2188 0980 4901     		.2byte	0x149
 2189 0982 F9080000 		.4byte	0x8f9
 2190 0986 51030000 		.4byte	.LLST26
 2191 098a 32       		.uleb128 0x32
 2192 098b 6200     		.ascii	"b\000"
 2193 098d 01       		.byte	0x1
 2194 098e 4901     		.2byte	0x149
 2195 0990 9E000000 		.4byte	0x9e
 2196 0994 6F030000 		.4byte	.LLST27
 2197 0998 31       		.uleb128 0x31
 2198 0999 F0020000 		.4byte	.LASF81
 2199 099d 01       		.byte	0x1
 2200 099e 4901     		.2byte	0x149
 2201 09a0 1E010000 		.4byte	0x11e
 2202 09a4 90030000 		.4byte	.LLST28
 2203 09a8 2A       		.uleb128 0x2a
 2204 09a9 08000000 		.4byte	.LBB32
 2205 09ad 06000000 		.4byte	.LBE32-.LBB32
 2206 09b1 C4090000 		.4byte	0x9c4
 2207 09b5 35       		.uleb128 0x35
 2208 09b6 746D7000 		.ascii	"tmp\000"
 2209 09ba 01       		.byte	0x1
 2210 09bb 4B01     		.2byte	0x14b
 2211 09bd B4000000 		.4byte	0xb4
 2212 09c1 01       		.uleb128 0x1
 2213 09c2 53       		.byte	0x53
 2214 09c3 00       		.byte	0
 2215 09c4 28       		.uleb128 0x28
 2216 09c5 48000000 		.4byte	.Ldebug_ranges0+0x48
 2217 09c9 100A0000 		.4byte	0xa10
 2218 09cd 36       		.uleb128 0x36
 2219 09ce 6D736700 		.ascii	"msg\000"
 2220 09d2 01       		.byte	0x1
 2221 09d3 4D01     		.2byte	0x14d
 2222 09d5 08010000 		.4byte	0x108
 2223 09d9 AE030000 		.4byte	.LLST29
ARM GAS  /var/folders/6q/x_mk5n_j3p7_c40r_2k_78980000gn/T//ccLnxSft.s 			page 40


 2224 09dd 2A       		.uleb128 0x2a
 2225 09de 4C000000 		.4byte	.LBB34
 2226 09e2 06000000 		.4byte	.LBE34-.LBB34
 2227 09e6 F9090000 		.4byte	0x9f9
 2228 09ea 35       		.uleb128 0x35
 2229 09eb 746D7000 		.ascii	"tmp\000"
 2230 09ef 01       		.byte	0x1
 2231 09f0 5001     		.2byte	0x150
 2232 09f2 B4000000 		.4byte	0xb4
 2233 09f6 01       		.uleb128 0x1
 2234 09f7 53       		.byte	0x53
 2235 09f8 00       		.byte	0
 2236 09f9 2B       		.uleb128 0x2b
 2237 09fa 18000000 		.4byte	.LVL49
 2238 09fe 33050000 		.4byte	0x533
 2239 0a02 1D       		.uleb128 0x1d
 2240 0a03 01       		.uleb128 0x1
 2241 0a04 50       		.byte	0x50
 2242 0a05 02       		.uleb128 0x2
 2243 0a06 74       		.byte	0x74
 2244 0a07 00       		.sleb128 0
 2245 0a08 1D       		.uleb128 0x1d
 2246 0a09 01       		.uleb128 0x1
 2247 0a0a 51       		.byte	0x51
 2248 0a0b 02       		.uleb128 0x2
 2249 0a0c 76       		.byte	0x76
 2250 0a0d 00       		.sleb128 0
 2251 0a0e 00       		.byte	0
 2252 0a0f 00       		.byte	0
 2253 0a10 2A       		.uleb128 0x2a
 2254 0a11 42000000 		.4byte	.LBB35
 2255 0a15 06000000 		.4byte	.LBE35-.LBB35
 2256 0a19 2C0A0000 		.4byte	0xa2c
 2257 0a1d 35       		.uleb128 0x35
 2258 0a1e 746D7000 		.ascii	"tmp\000"
 2259 0a22 01       		.byte	0x1
 2260 0a23 5D01     		.2byte	0x15d
 2261 0a25 B4000000 		.4byte	0xb4
 2262 0a29 01       		.uleb128 0x1
 2263 0a2a 53       		.byte	0x53
 2264 0a2b 00       		.byte	0
 2265 0a2c 2C       		.uleb128 0x2c
 2266 0a2d 42000000 		.4byte	.LVL51
 2267 0a31 1D       		.uleb128 0x1d
 2268 0a32 01       		.uleb128 0x1
 2269 0a33 50       		.byte	0x50
 2270 0a34 02       		.uleb128 0x2
 2271 0a35 74       		.byte	0x74
 2272 0a36 00       		.sleb128 0
 2273 0a37 00       		.byte	0
 2274 0a38 00       		.byte	0
 2275 0a39 34       		.uleb128 0x34
 2276 0a3a E2000000 		.4byte	.LASF94
 2277 0a3e 01       		.byte	0x1
 2278 0a3f 6B01     		.2byte	0x16b
 2279 0a41 08010000 		.4byte	0x108
 2280 0a45 00000000 		.4byte	.LFB16
ARM GAS  /var/folders/6q/x_mk5n_j3p7_c40r_2k_78980000gn/T//ccLnxSft.s 			page 41


 2281 0a49 48000000 		.4byte	.LFE16-.LFB16
 2282 0a4d 01       		.uleb128 0x1
 2283 0a4e 9C       		.byte	0x9c
 2284 0a4f A80A0000 		.4byte	0xaa8
 2285 0a53 32       		.uleb128 0x32
 2286 0a54 6F717000 		.ascii	"oqp\000"
 2287 0a58 01       		.byte	0x1
 2288 0a59 6B01     		.2byte	0x16b
 2289 0a5b F9080000 		.4byte	0x8f9
 2290 0a5f CC030000 		.4byte	.LLST30
 2291 0a63 36       		.uleb128 0x36
 2292 0a64 6200     		.ascii	"b\000"
 2293 0a66 01       		.byte	0x1
 2294 0a67 6C01     		.2byte	0x16c
 2295 0a69 9E000000 		.4byte	0x9e
 2296 0a6d 11040000 		.4byte	.LLST31
 2297 0a71 37       		.uleb128 0x37
 2298 0a72 0D050000 		.4byte	0x50d
 2299 0a76 24000000 		.4byte	.LBB37
 2300 0a7a 60000000 		.4byte	.Ldebug_ranges0+0x60
 2301 0a7e 01       		.byte	0x1
 2302 0a7f 7901     		.2byte	0x179
 2303 0a81 9E0A0000 		.4byte	0xa9e
 2304 0a85 1B       		.uleb128 0x1b
 2305 0a86 1D050000 		.4byte	0x51d
 2306 0a8a 24040000 		.4byte	.LLST32
 2307 0a8e 26       		.uleb128 0x26
 2308 0a8f 60000000 		.4byte	.Ldebug_ranges0+0x60
 2309 0a93 22       		.uleb128 0x22
 2310 0a94 28050000 		.4byte	0x528
 2311 0a98 37040000 		.4byte	.LLST33
 2312 0a9c 00       		.byte	0
 2313 0a9d 00       		.byte	0
 2314 0a9e 23       		.uleb128 0x23
 2315 0a9f 30000000 		.4byte	.LVL58
 2316 0aa3 C80B0000 		.4byte	0xbc8
 2317 0aa7 00       		.byte	0
 2318 0aa8 34       		.uleb128 0x34
 2319 0aa9 A5020000 		.4byte	.LASF95
 2320 0aad 01       		.byte	0x1
 2321 0aae 9601     		.2byte	0x196
 2322 0ab0 2C000000 		.4byte	0x2c
 2323 0ab4 00000000 		.4byte	.LFB17
 2324 0ab8 80000000 		.4byte	.LFE17-.LFB17
 2325 0abc 01       		.uleb128 0x1
 2326 0abd 9C       		.byte	0x9c
 2327 0abe B20B0000 		.4byte	0xbb2
 2328 0ac2 32       		.uleb128 0x32
 2329 0ac3 6F717000 		.ascii	"oqp\000"
 2330 0ac7 01       		.byte	0x1
 2331 0ac8 9601     		.2byte	0x196
 2332 0aca F9080000 		.4byte	0x8f9
 2333 0ace 4A040000 		.4byte	.LLST34
 2334 0ad2 32       		.uleb128 0x32
 2335 0ad3 627000   		.ascii	"bp\000"
 2336 0ad6 01       		.byte	0x1
 2337 0ad7 9601     		.2byte	0x196
ARM GAS  /var/folders/6q/x_mk5n_j3p7_c40r_2k_78980000gn/T//ccLnxSft.s 			page 42


 2338 0ad9 DA040000 		.4byte	0x4da
 2339 0add 68040000 		.4byte	.LLST35
 2340 0ae1 32       		.uleb128 0x32
 2341 0ae2 6E00     		.ascii	"n\000"
 2342 0ae4 01       		.byte	0x1
 2343 0ae5 9701     		.2byte	0x197
 2344 0ae7 2C000000 		.4byte	0x2c
 2345 0aeb A7040000 		.4byte	.LLST36
 2346 0aef 31       		.uleb128 0x31
 2347 0af0 F0020000 		.4byte	.LASF81
 2348 0af4 01       		.byte	0x1
 2349 0af5 9701     		.2byte	0x197
 2350 0af7 1E010000 		.4byte	0x11e
 2351 0afb DD040000 		.4byte	.LLST37
 2352 0aff 35       		.uleb128 0x35
 2353 0b00 6E667900 		.ascii	"nfy\000"
 2354 0b04 01       		.byte	0x1
 2355 0b05 9801     		.2byte	0x198
 2356 0b07 9C040000 		.4byte	0x49c
 2357 0b0b 01       		.uleb128 0x1
 2358 0b0c 59       		.byte	0x59
 2359 0b0d 36       		.uleb128 0x36
 2360 0b0e 7700     		.ascii	"w\000"
 2361 0b10 01       		.byte	0x1
 2362 0b11 9901     		.2byte	0x199
 2363 0b13 2C000000 		.4byte	0x2c
 2364 0b17 FB040000 		.4byte	.LLST38
 2365 0b1b 2A       		.uleb128 0x2a
 2366 0b1c 10000000 		.4byte	.LBB41
 2367 0b20 06000000 		.4byte	.LBE41-.LBB41
 2368 0b24 370B0000 		.4byte	0xb37
 2369 0b28 35       		.uleb128 0x35
 2370 0b29 746D7000 		.ascii	"tmp\000"
 2371 0b2d 01       		.byte	0x1
 2372 0b2e 9D01     		.2byte	0x19d
 2373 0b30 B4000000 		.4byte	0xb4
 2374 0b34 01       		.uleb128 0x1
 2375 0b35 53       		.byte	0x53
 2376 0b36 00       		.byte	0
 2377 0b37 2A       		.uleb128 0x2a
 2378 0b38 46000000 		.4byte	.LBB42
 2379 0b3c 06000000 		.4byte	.LBE42-.LBB42
 2380 0b40 530B0000 		.4byte	0xb53
 2381 0b44 35       		.uleb128 0x35
 2382 0b45 746D7000 		.ascii	"tmp\000"
 2383 0b49 01       		.byte	0x1
 2384 0b4a AD01     		.2byte	0x1ad
 2385 0b4c B4000000 		.4byte	0xb4
 2386 0b50 01       		.uleb128 0x1
 2387 0b51 53       		.byte	0x53
 2388 0b52 00       		.byte	0
 2389 0b53 2A       		.uleb128 0x2a
 2390 0b54 54000000 		.4byte	.LBB43
 2391 0b58 06000000 		.4byte	.LBE43-.LBB43
 2392 0b5c 6F0B0000 		.4byte	0xb6f
 2393 0b60 35       		.uleb128 0x35
 2394 0b61 746D7000 		.ascii	"tmp\000"
ARM GAS  /var/folders/6q/x_mk5n_j3p7_c40r_2k_78980000gn/T//ccLnxSft.s 			page 43


 2395 0b65 01       		.byte	0x1
 2396 0b66 B101     		.2byte	0x1b1
 2397 0b68 B4000000 		.4byte	0xb4
 2398 0b6c 01       		.uleb128 0x1
 2399 0b6d 53       		.byte	0x53
 2400 0b6e 00       		.byte	0
 2401 0b6f 2A       		.uleb128 0x2a
 2402 0b70 74000000 		.4byte	.LBB44
 2403 0b74 06000000 		.4byte	.LBE44-.LBB44
 2404 0b78 8B0B0000 		.4byte	0xb8b
 2405 0b7c 35       		.uleb128 0x35
 2406 0b7d 746D7000 		.ascii	"tmp\000"
 2407 0b81 01       		.byte	0x1
 2408 0b82 A101     		.2byte	0x1a1
 2409 0b84 B4000000 		.4byte	0xb4
 2410 0b88 01       		.uleb128 0x1
 2411 0b89 53       		.byte	0x53
 2412 0b8a 00       		.byte	0
 2413 0b8b 2D       		.uleb128 0x2d
 2414 0b8c 46000000 		.4byte	.LVL67
 2415 0b90 9B0B0000 		.4byte	0xb9b
 2416 0b94 1D       		.uleb128 0x1d
 2417 0b95 01       		.uleb128 0x1
 2418 0b96 50       		.byte	0x50
 2419 0b97 02       		.uleb128 0x2
 2420 0b98 74       		.byte	0x74
 2421 0b99 00       		.sleb128 0
 2422 0b9a 00       		.byte	0
 2423 0b9b 2B       		.uleb128 0x2b
 2424 0b9c 70000000 		.4byte	.LVL72
 2425 0ba0 33050000 		.4byte	0x533
 2426 0ba4 1D       		.uleb128 0x1d
 2427 0ba5 01       		.uleb128 0x1
 2428 0ba6 50       		.byte	0x50
 2429 0ba7 02       		.uleb128 0x2
 2430 0ba8 74       		.byte	0x74
 2431 0ba9 00       		.sleb128 0
 2432 0baa 1D       		.uleb128 0x1d
 2433 0bab 01       		.uleb128 0x1
 2434 0bac 51       		.byte	0x51
 2435 0bad 02       		.uleb128 0x2
 2436 0bae 7A       		.byte	0x7a
 2437 0baf 00       		.sleb128 0
 2438 0bb0 00       		.byte	0
 2439 0bb1 00       		.byte	0
 2440 0bb2 38       		.uleb128 0x38
 2441 0bb3 78040000 		.4byte	.LASF104
 2442 0bb7 0A       		.byte	0xa
 2443 0bb8 6F       		.byte	0x6f
 2444 0bb9 8A030000 		.4byte	0x38a
 2445 0bbd 39       		.uleb128 0x39
 2446 0bbe 94040000 		.4byte	.LASF96
 2447 0bc2 94040000 		.4byte	.LASF96
 2448 0bc6 0A       		.byte	0xa
 2449 0bc7 96       		.byte	0x96
 2450 0bc8 39       		.uleb128 0x39
 2451 0bc9 B7030000 		.4byte	.LASF97
ARM GAS  /var/folders/6q/x_mk5n_j3p7_c40r_2k_78980000gn/T//ccLnxSft.s 			page 44


 2452 0bcd B7030000 		.4byte	.LASF97
 2453 0bd1 0A       		.byte	0xa
 2454 0bd2 90       		.byte	0x90
 2455 0bd3 00       		.byte	0
 2456              		.section	.debug_abbrev,"",%progbits
 2457              	.Ldebug_abbrev0:
 2458 0000 01       		.uleb128 0x1
 2459 0001 11       		.uleb128 0x11
 2460 0002 01       		.byte	0x1
 2461 0003 25       		.uleb128 0x25
 2462 0004 0E       		.uleb128 0xe
 2463 0005 13       		.uleb128 0x13
 2464 0006 0B       		.uleb128 0xb
 2465 0007 03       		.uleb128 0x3
 2466 0008 0E       		.uleb128 0xe
 2467 0009 1B       		.uleb128 0x1b
 2468 000a 0E       		.uleb128 0xe
 2469 000b 55       		.uleb128 0x55
 2470 000c 17       		.uleb128 0x17
 2471 000d 11       		.uleb128 0x11
 2472 000e 01       		.uleb128 0x1
 2473 000f 10       		.uleb128 0x10
 2474 0010 17       		.uleb128 0x17
 2475 0011 00       		.byte	0
 2476 0012 00       		.byte	0
 2477 0013 02       		.uleb128 0x2
 2478 0014 24       		.uleb128 0x24
 2479 0015 00       		.byte	0
 2480 0016 0B       		.uleb128 0xb
 2481 0017 0B       		.uleb128 0xb
 2482 0018 3E       		.uleb128 0x3e
 2483 0019 0B       		.uleb128 0xb
 2484 001a 03       		.uleb128 0x3
 2485 001b 08       		.uleb128 0x8
 2486 001c 00       		.byte	0
 2487 001d 00       		.byte	0
 2488 001e 03       		.uleb128 0x3
 2489 001f 16       		.uleb128 0x16
 2490 0020 00       		.byte	0
 2491 0021 03       		.uleb128 0x3
 2492 0022 0E       		.uleb128 0xe
 2493 0023 3A       		.uleb128 0x3a
 2494 0024 0B       		.uleb128 0xb
 2495 0025 3B       		.uleb128 0x3b
 2496 0026 0B       		.uleb128 0xb
 2497 0027 49       		.uleb128 0x49
 2498 0028 13       		.uleb128 0x13
 2499 0029 00       		.byte	0
 2500 002a 00       		.byte	0
 2501 002b 04       		.uleb128 0x4
 2502 002c 24       		.uleb128 0x24
 2503 002d 00       		.byte	0
 2504 002e 0B       		.uleb128 0xb
 2505 002f 0B       		.uleb128 0xb
 2506 0030 3E       		.uleb128 0x3e
 2507 0031 0B       		.uleb128 0xb
 2508 0032 03       		.uleb128 0x3
ARM GAS  /var/folders/6q/x_mk5n_j3p7_c40r_2k_78980000gn/T//ccLnxSft.s 			page 45


 2509 0033 0E       		.uleb128 0xe
 2510 0034 00       		.byte	0
 2511 0035 00       		.byte	0
 2512 0036 05       		.uleb128 0x5
 2513 0037 13       		.uleb128 0x13
 2514 0038 01       		.byte	0x1
 2515 0039 03       		.uleb128 0x3
 2516 003a 0E       		.uleb128 0xe
 2517 003b 0B       		.uleb128 0xb
 2518 003c 0B       		.uleb128 0xb
 2519 003d 3A       		.uleb128 0x3a
 2520 003e 0B       		.uleb128 0xb
 2521 003f 3B       		.uleb128 0x3b
 2522 0040 0B       		.uleb128 0xb
 2523 0041 01       		.uleb128 0x1
 2524 0042 13       		.uleb128 0x13
 2525 0043 00       		.byte	0
 2526 0044 00       		.byte	0
 2527 0045 06       		.uleb128 0x6
 2528 0046 0D       		.uleb128 0xd
 2529 0047 00       		.byte	0
 2530 0048 03       		.uleb128 0x3
 2531 0049 0E       		.uleb128 0xe
 2532 004a 3A       		.uleb128 0x3a
 2533 004b 0B       		.uleb128 0xb
 2534 004c 3B       		.uleb128 0x3b
 2535 004d 0B       		.uleb128 0xb
 2536 004e 49       		.uleb128 0x49
 2537 004f 13       		.uleb128 0x13
 2538 0050 38       		.uleb128 0x38
 2539 0051 0B       		.uleb128 0xb
 2540 0052 00       		.byte	0
 2541 0053 00       		.byte	0
 2542 0054 07       		.uleb128 0x7
 2543 0055 0D       		.uleb128 0xd
 2544 0056 00       		.byte	0
 2545 0057 03       		.uleb128 0x3
 2546 0058 08       		.uleb128 0x8
 2547 0059 3A       		.uleb128 0x3a
 2548 005a 0B       		.uleb128 0xb
 2549 005b 3B       		.uleb128 0x3b
 2550 005c 0B       		.uleb128 0xb
 2551 005d 49       		.uleb128 0x49
 2552 005e 13       		.uleb128 0x13
 2553 005f 38       		.uleb128 0x38
 2554 0060 0B       		.uleb128 0xb
 2555 0061 00       		.byte	0
 2556 0062 00       		.byte	0
 2557 0063 08       		.uleb128 0x8
 2558 0064 13       		.uleb128 0x13
 2559 0065 01       		.byte	0x1
 2560 0066 0B       		.uleb128 0xb
 2561 0067 0B       		.uleb128 0xb
 2562 0068 3A       		.uleb128 0x3a
 2563 0069 0B       		.uleb128 0xb
 2564 006a 3B       		.uleb128 0x3b
 2565 006b 0B       		.uleb128 0xb
ARM GAS  /var/folders/6q/x_mk5n_j3p7_c40r_2k_78980000gn/T//ccLnxSft.s 			page 46


 2566 006c 01       		.uleb128 0x1
 2567 006d 13       		.uleb128 0x13
 2568 006e 00       		.byte	0
 2569 006f 00       		.byte	0
 2570 0070 09       		.uleb128 0x9
 2571 0071 0F       		.uleb128 0xf
 2572 0072 00       		.byte	0
 2573 0073 0B       		.uleb128 0xb
 2574 0074 0B       		.uleb128 0xb
 2575 0075 49       		.uleb128 0x49
 2576 0076 13       		.uleb128 0x13
 2577 0077 00       		.byte	0
 2578 0078 00       		.byte	0
 2579 0079 0A       		.uleb128 0xa
 2580 007a 0F       		.uleb128 0xf
 2581 007b 00       		.byte	0
 2582 007c 0B       		.uleb128 0xb
 2583 007d 0B       		.uleb128 0xb
 2584 007e 00       		.byte	0
 2585 007f 00       		.byte	0
 2586 0080 0B       		.uleb128 0xb
 2587 0081 13       		.uleb128 0x13
 2588 0082 01       		.byte	0x1
 2589 0083 03       		.uleb128 0x3
 2590 0084 0E       		.uleb128 0xe
 2591 0085 0B       		.uleb128 0xb
 2592 0086 0B       		.uleb128 0xb
 2593 0087 3A       		.uleb128 0x3a
 2594 0088 0B       		.uleb128 0xb
 2595 0089 3B       		.uleb128 0x3b
 2596 008a 05       		.uleb128 0x5
 2597 008b 01       		.uleb128 0x1
 2598 008c 13       		.uleb128 0x13
 2599 008d 00       		.byte	0
 2600 008e 00       		.byte	0
 2601 008f 0C       		.uleb128 0xc
 2602 0090 0D       		.uleb128 0xd
 2603 0091 00       		.byte	0
 2604 0092 03       		.uleb128 0x3
 2605 0093 08       		.uleb128 0x8
 2606 0094 3A       		.uleb128 0x3a
 2607 0095 0B       		.uleb128 0xb
 2608 0096 3B       		.uleb128 0x3b
 2609 0097 05       		.uleb128 0x5
 2610 0098 49       		.uleb128 0x49
 2611 0099 13       		.uleb128 0x13
 2612 009a 38       		.uleb128 0x38
 2613 009b 0B       		.uleb128 0xb
 2614 009c 00       		.byte	0
 2615 009d 00       		.byte	0
 2616 009e 0D       		.uleb128 0xd
 2617 009f 35       		.uleb128 0x35
 2618 00a0 00       		.byte	0
 2619 00a1 49       		.uleb128 0x49
 2620 00a2 13       		.uleb128 0x13
 2621 00a3 00       		.byte	0
 2622 00a4 00       		.byte	0
ARM GAS  /var/folders/6q/x_mk5n_j3p7_c40r_2k_78980000gn/T//ccLnxSft.s 			page 47


 2623 00a5 0E       		.uleb128 0xe
 2624 00a6 17       		.uleb128 0x17
 2625 00a7 01       		.byte	0x1
 2626 00a8 0B       		.uleb128 0xb
 2627 00a9 0B       		.uleb128 0xb
 2628 00aa 3A       		.uleb128 0x3a
 2629 00ab 0B       		.uleb128 0xb
 2630 00ac 3B       		.uleb128 0x3b
 2631 00ad 0B       		.uleb128 0xb
 2632 00ae 01       		.uleb128 0x1
 2633 00af 13       		.uleb128 0x13
 2634 00b0 00       		.byte	0
 2635 00b1 00       		.byte	0
 2636 00b2 0F       		.uleb128 0xf
 2637 00b3 0D       		.uleb128 0xd
 2638 00b4 00       		.byte	0
 2639 00b5 03       		.uleb128 0x3
 2640 00b6 0E       		.uleb128 0xe
 2641 00b7 3A       		.uleb128 0x3a
 2642 00b8 0B       		.uleb128 0xb
 2643 00b9 3B       		.uleb128 0x3b
 2644 00ba 0B       		.uleb128 0xb
 2645 00bb 49       		.uleb128 0x49
 2646 00bc 13       		.uleb128 0x13
 2647 00bd 00       		.byte	0
 2648 00be 00       		.byte	0
 2649 00bf 10       		.uleb128 0x10
 2650 00c0 26       		.uleb128 0x26
 2651 00c1 00       		.byte	0
 2652 00c2 49       		.uleb128 0x49
 2653 00c3 13       		.uleb128 0x13
 2654 00c4 00       		.byte	0
 2655 00c5 00       		.byte	0
 2656 00c6 11       		.uleb128 0x11
 2657 00c7 15       		.uleb128 0x15
 2658 00c8 01       		.byte	0x1
 2659 00c9 27       		.uleb128 0x27
 2660 00ca 19       		.uleb128 0x19
 2661 00cb 01       		.uleb128 0x1
 2662 00cc 13       		.uleb128 0x13
 2663 00cd 00       		.byte	0
 2664 00ce 00       		.byte	0
 2665 00cf 12       		.uleb128 0x12
 2666 00d0 05       		.uleb128 0x5
 2667 00d1 00       		.byte	0
 2668 00d2 49       		.uleb128 0x49
 2669 00d3 13       		.uleb128 0x13
 2670 00d4 00       		.byte	0
 2671 00d5 00       		.byte	0
 2672 00d6 13       		.uleb128 0x13
 2673 00d7 2E       		.uleb128 0x2e
 2674 00d8 01       		.byte	0x1
 2675 00d9 03       		.uleb128 0x3
 2676 00da 0E       		.uleb128 0xe
 2677 00db 3A       		.uleb128 0x3a
 2678 00dc 0B       		.uleb128 0xb
 2679 00dd 3B       		.uleb128 0x3b
ARM GAS  /var/folders/6q/x_mk5n_j3p7_c40r_2k_78980000gn/T//ccLnxSft.s 			page 48


 2680 00de 0B       		.uleb128 0xb
 2681 00df 27       		.uleb128 0x27
 2682 00e0 19       		.uleb128 0x19
 2683 00e1 20       		.uleb128 0x20
 2684 00e2 0B       		.uleb128 0xb
 2685 00e3 01       		.uleb128 0x1
 2686 00e4 13       		.uleb128 0x13
 2687 00e5 00       		.byte	0
 2688 00e6 00       		.byte	0
 2689 00e7 14       		.uleb128 0x14
 2690 00e8 05       		.uleb128 0x5
 2691 00e9 00       		.byte	0
 2692 00ea 03       		.uleb128 0x3
 2693 00eb 08       		.uleb128 0x8
 2694 00ec 3A       		.uleb128 0x3a
 2695 00ed 0B       		.uleb128 0xb
 2696 00ee 3B       		.uleb128 0x3b
 2697 00ef 0B       		.uleb128 0xb
 2698 00f0 49       		.uleb128 0x49
 2699 00f1 13       		.uleb128 0x13
 2700 00f2 00       		.byte	0
 2701 00f3 00       		.byte	0
 2702 00f4 15       		.uleb128 0x15
 2703 00f5 2E       		.uleb128 0x2e
 2704 00f6 01       		.byte	0x1
 2705 00f7 03       		.uleb128 0x3
 2706 00f8 0E       		.uleb128 0xe
 2707 00f9 3A       		.uleb128 0x3a
 2708 00fa 0B       		.uleb128 0xb
 2709 00fb 3B       		.uleb128 0x3b
 2710 00fc 0B       		.uleb128 0xb
 2711 00fd 27       		.uleb128 0x27
 2712 00fe 19       		.uleb128 0x19
 2713 00ff 49       		.uleb128 0x49
 2714 0100 13       		.uleb128 0x13
 2715 0101 20       		.uleb128 0x20
 2716 0102 0B       		.uleb128 0xb
 2717 0103 01       		.uleb128 0x1
 2718 0104 13       		.uleb128 0x13
 2719 0105 00       		.byte	0
 2720 0106 00       		.byte	0
 2721 0107 16       		.uleb128 0x16
 2722 0108 34       		.uleb128 0x34
 2723 0109 00       		.byte	0
 2724 010a 03       		.uleb128 0x3
 2725 010b 08       		.uleb128 0x8
 2726 010c 3A       		.uleb128 0x3a
 2727 010d 0B       		.uleb128 0xb
 2728 010e 3B       		.uleb128 0x3b
 2729 010f 0B       		.uleb128 0xb
 2730 0110 49       		.uleb128 0x49
 2731 0111 13       		.uleb128 0x13
 2732 0112 00       		.byte	0
 2733 0113 00       		.byte	0
 2734 0114 17       		.uleb128 0x17
 2735 0115 2E       		.uleb128 0x2e
 2736 0116 01       		.byte	0x1
ARM GAS  /var/folders/6q/x_mk5n_j3p7_c40r_2k_78980000gn/T//ccLnxSft.s 			page 49


 2737 0117 03       		.uleb128 0x3
 2738 0118 0E       		.uleb128 0xe
 2739 0119 3A       		.uleb128 0x3a
 2740 011a 0B       		.uleb128 0xb
 2741 011b 3B       		.uleb128 0x3b
 2742 011c 0B       		.uleb128 0xb
 2743 011d 27       		.uleb128 0x27
 2744 011e 19       		.uleb128 0x19
 2745 011f 49       		.uleb128 0x49
 2746 0120 13       		.uleb128 0x13
 2747 0121 11       		.uleb128 0x11
 2748 0122 01       		.uleb128 0x1
 2749 0123 12       		.uleb128 0x12
 2750 0124 06       		.uleb128 0x6
 2751 0125 40       		.uleb128 0x40
 2752 0126 18       		.uleb128 0x18
 2753 0127 9742     		.uleb128 0x2117
 2754 0129 19       		.uleb128 0x19
 2755 012a 01       		.uleb128 0x1
 2756 012b 13       		.uleb128 0x13
 2757 012c 00       		.byte	0
 2758 012d 00       		.byte	0
 2759 012e 18       		.uleb128 0x18
 2760 012f 05       		.uleb128 0x5
 2761 0130 00       		.byte	0
 2762 0131 03       		.uleb128 0x3
 2763 0132 08       		.uleb128 0x8
 2764 0133 3A       		.uleb128 0x3a
 2765 0134 0B       		.uleb128 0xb
 2766 0135 3B       		.uleb128 0x3b
 2767 0136 0B       		.uleb128 0xb
 2768 0137 49       		.uleb128 0x49
 2769 0138 13       		.uleb128 0x13
 2770 0139 02       		.uleb128 0x2
 2771 013a 17       		.uleb128 0x17
 2772 013b 00       		.byte	0
 2773 013c 00       		.byte	0
 2774 013d 19       		.uleb128 0x19
 2775 013e 05       		.uleb128 0x5
 2776 013f 00       		.byte	0
 2777 0140 03       		.uleb128 0x3
 2778 0141 0E       		.uleb128 0xe
 2779 0142 3A       		.uleb128 0x3a
 2780 0143 0B       		.uleb128 0xb
 2781 0144 3B       		.uleb128 0x3b
 2782 0145 0B       		.uleb128 0xb
 2783 0146 49       		.uleb128 0x49
 2784 0147 13       		.uleb128 0x13
 2785 0148 02       		.uleb128 0x2
 2786 0149 17       		.uleb128 0x17
 2787 014a 00       		.byte	0
 2788 014b 00       		.byte	0
 2789 014c 1A       		.uleb128 0x1a
 2790 014d 1D       		.uleb128 0x1d
 2791 014e 01       		.byte	0x1
 2792 014f 31       		.uleb128 0x31
 2793 0150 13       		.uleb128 0x13
ARM GAS  /var/folders/6q/x_mk5n_j3p7_c40r_2k_78980000gn/T//ccLnxSft.s 			page 50


 2794 0151 11       		.uleb128 0x11
 2795 0152 01       		.uleb128 0x1
 2796 0153 12       		.uleb128 0x12
 2797 0154 06       		.uleb128 0x6
 2798 0155 58       		.uleb128 0x58
 2799 0156 0B       		.uleb128 0xb
 2800 0157 59       		.uleb128 0x59
 2801 0158 0B       		.uleb128 0xb
 2802 0159 01       		.uleb128 0x1
 2803 015a 13       		.uleb128 0x13
 2804 015b 00       		.byte	0
 2805 015c 00       		.byte	0
 2806 015d 1B       		.uleb128 0x1b
 2807 015e 05       		.uleb128 0x5
 2808 015f 00       		.byte	0
 2809 0160 31       		.uleb128 0x31
 2810 0161 13       		.uleb128 0x13
 2811 0162 02       		.uleb128 0x2
 2812 0163 17       		.uleb128 0x17
 2813 0164 00       		.byte	0
 2814 0165 00       		.byte	0
 2815 0166 1C       		.uleb128 0x1c
 2816 0167 898201   		.uleb128 0x4109
 2817 016a 01       		.byte	0x1
 2818 016b 11       		.uleb128 0x11
 2819 016c 01       		.uleb128 0x1
 2820 016d 9542     		.uleb128 0x2115
 2821 016f 19       		.uleb128 0x19
 2822 0170 31       		.uleb128 0x31
 2823 0171 13       		.uleb128 0x13
 2824 0172 00       		.byte	0
 2825 0173 00       		.byte	0
 2826 0174 1D       		.uleb128 0x1d
 2827 0175 8A8201   		.uleb128 0x410a
 2828 0178 00       		.byte	0
 2829 0179 02       		.uleb128 0x2
 2830 017a 18       		.uleb128 0x18
 2831 017b 9142     		.uleb128 0x2111
 2832 017d 18       		.uleb128 0x18
 2833 017e 00       		.byte	0
 2834 017f 00       		.byte	0
 2835 0180 1E       		.uleb128 0x1e
 2836 0181 2E       		.uleb128 0x2e
 2837 0182 01       		.byte	0x1
 2838 0183 3F       		.uleb128 0x3f
 2839 0184 19       		.uleb128 0x19
 2840 0185 03       		.uleb128 0x3
 2841 0186 0E       		.uleb128 0xe
 2842 0187 3A       		.uleb128 0x3a
 2843 0188 0B       		.uleb128 0xb
 2844 0189 3B       		.uleb128 0x3b
 2845 018a 0B       		.uleb128 0xb
 2846 018b 27       		.uleb128 0x27
 2847 018c 19       		.uleb128 0x19
 2848 018d 11       		.uleb128 0x11
 2849 018e 01       		.uleb128 0x1
 2850 018f 12       		.uleb128 0x12
ARM GAS  /var/folders/6q/x_mk5n_j3p7_c40r_2k_78980000gn/T//ccLnxSft.s 			page 51


 2851 0190 06       		.uleb128 0x6
 2852 0191 40       		.uleb128 0x40
 2853 0192 18       		.uleb128 0x18
 2854 0193 9742     		.uleb128 0x2117
 2855 0195 19       		.uleb128 0x19
 2856 0196 01       		.uleb128 0x1
 2857 0197 13       		.uleb128 0x13
 2858 0198 00       		.byte	0
 2859 0199 00       		.byte	0
 2860 019a 1F       		.uleb128 0x1f
 2861 019b 05       		.uleb128 0x5
 2862 019c 00       		.byte	0
 2863 019d 03       		.uleb128 0x3
 2864 019e 08       		.uleb128 0x8
 2865 019f 3A       		.uleb128 0x3a
 2866 01a0 0B       		.uleb128 0xb
 2867 01a1 3B       		.uleb128 0x3b
 2868 01a2 0B       		.uleb128 0xb
 2869 01a3 49       		.uleb128 0x49
 2870 01a4 13       		.uleb128 0x13
 2871 01a5 02       		.uleb128 0x2
 2872 01a6 18       		.uleb128 0x18
 2873 01a7 00       		.byte	0
 2874 01a8 00       		.byte	0
 2875 01a9 20       		.uleb128 0x20
 2876 01aa 05       		.uleb128 0x5
 2877 01ab 00       		.byte	0
 2878 01ac 03       		.uleb128 0x3
 2879 01ad 0E       		.uleb128 0xe
 2880 01ae 3A       		.uleb128 0x3a
 2881 01af 0B       		.uleb128 0xb
 2882 01b0 3B       		.uleb128 0x3b
 2883 01b1 0B       		.uleb128 0xb
 2884 01b2 49       		.uleb128 0x49
 2885 01b3 13       		.uleb128 0x13
 2886 01b4 02       		.uleb128 0x2
 2887 01b5 18       		.uleb128 0x18
 2888 01b6 00       		.byte	0
 2889 01b7 00       		.byte	0
 2890 01b8 21       		.uleb128 0x21
 2891 01b9 0B       		.uleb128 0xb
 2892 01ba 01       		.byte	0x1
 2893 01bb 11       		.uleb128 0x11
 2894 01bc 01       		.uleb128 0x1
 2895 01bd 12       		.uleb128 0x12
 2896 01be 06       		.uleb128 0x6
 2897 01bf 00       		.byte	0
 2898 01c0 00       		.byte	0
 2899 01c1 22       		.uleb128 0x22
 2900 01c2 34       		.uleb128 0x34
 2901 01c3 00       		.byte	0
 2902 01c4 31       		.uleb128 0x31
 2903 01c5 13       		.uleb128 0x13
 2904 01c6 02       		.uleb128 0x2
 2905 01c7 17       		.uleb128 0x17
 2906 01c8 00       		.byte	0
 2907 01c9 00       		.byte	0
ARM GAS  /var/folders/6q/x_mk5n_j3p7_c40r_2k_78980000gn/T//ccLnxSft.s 			page 52


 2908 01ca 23       		.uleb128 0x23
 2909 01cb 898201   		.uleb128 0x4109
 2910 01ce 00       		.byte	0
 2911 01cf 11       		.uleb128 0x11
 2912 01d0 01       		.uleb128 0x1
 2913 01d1 31       		.uleb128 0x31
 2914 01d2 13       		.uleb128 0x13
 2915 01d3 00       		.byte	0
 2916 01d4 00       		.byte	0
 2917 01d5 24       		.uleb128 0x24
 2918 01d6 2E       		.uleb128 0x2e
 2919 01d7 01       		.byte	0x1
 2920 01d8 3F       		.uleb128 0x3f
 2921 01d9 19       		.uleb128 0x19
 2922 01da 03       		.uleb128 0x3
 2923 01db 0E       		.uleb128 0xe
 2924 01dc 3A       		.uleb128 0x3a
 2925 01dd 0B       		.uleb128 0xb
 2926 01de 3B       		.uleb128 0x3b
 2927 01df 0B       		.uleb128 0xb
 2928 01e0 27       		.uleb128 0x27
 2929 01e1 19       		.uleb128 0x19
 2930 01e2 49       		.uleb128 0x49
 2931 01e3 13       		.uleb128 0x13
 2932 01e4 11       		.uleb128 0x11
 2933 01e5 01       		.uleb128 0x1
 2934 01e6 12       		.uleb128 0x12
 2935 01e7 06       		.uleb128 0x6
 2936 01e8 40       		.uleb128 0x40
 2937 01e9 18       		.uleb128 0x18
 2938 01ea 9742     		.uleb128 0x2117
 2939 01ec 19       		.uleb128 0x19
 2940 01ed 01       		.uleb128 0x1
 2941 01ee 13       		.uleb128 0x13
 2942 01ef 00       		.byte	0
 2943 01f0 00       		.byte	0
 2944 01f1 25       		.uleb128 0x25
 2945 01f2 1D       		.uleb128 0x1d
 2946 01f3 01       		.byte	0x1
 2947 01f4 31       		.uleb128 0x31
 2948 01f5 13       		.uleb128 0x13
 2949 01f6 52       		.uleb128 0x52
 2950 01f7 01       		.uleb128 0x1
 2951 01f8 55       		.uleb128 0x55
 2952 01f9 17       		.uleb128 0x17
 2953 01fa 58       		.uleb128 0x58
 2954 01fb 0B       		.uleb128 0xb
 2955 01fc 59       		.uleb128 0x59
 2956 01fd 0B       		.uleb128 0xb
 2957 01fe 01       		.uleb128 0x1
 2958 01ff 13       		.uleb128 0x13
 2959 0200 00       		.byte	0
 2960 0201 00       		.byte	0
 2961 0202 26       		.uleb128 0x26
 2962 0203 0B       		.uleb128 0xb
 2963 0204 01       		.byte	0x1
 2964 0205 55       		.uleb128 0x55
ARM GAS  /var/folders/6q/x_mk5n_j3p7_c40r_2k_78980000gn/T//ccLnxSft.s 			page 53


 2965 0206 17       		.uleb128 0x17
 2966 0207 00       		.byte	0
 2967 0208 00       		.byte	0
 2968 0209 27       		.uleb128 0x27
 2969 020a 34       		.uleb128 0x34
 2970 020b 00       		.byte	0
 2971 020c 03       		.uleb128 0x3
 2972 020d 08       		.uleb128 0x8
 2973 020e 3A       		.uleb128 0x3a
 2974 020f 0B       		.uleb128 0xb
 2975 0210 3B       		.uleb128 0x3b
 2976 0211 0B       		.uleb128 0xb
 2977 0212 49       		.uleb128 0x49
 2978 0213 13       		.uleb128 0x13
 2979 0214 02       		.uleb128 0x2
 2980 0215 17       		.uleb128 0x17
 2981 0216 00       		.byte	0
 2982 0217 00       		.byte	0
 2983 0218 28       		.uleb128 0x28
 2984 0219 0B       		.uleb128 0xb
 2985 021a 01       		.byte	0x1
 2986 021b 55       		.uleb128 0x55
 2987 021c 17       		.uleb128 0x17
 2988 021d 01       		.uleb128 0x1
 2989 021e 13       		.uleb128 0x13
 2990 021f 00       		.byte	0
 2991 0220 00       		.byte	0
 2992 0221 29       		.uleb128 0x29
 2993 0222 34       		.uleb128 0x34
 2994 0223 00       		.byte	0
 2995 0224 03       		.uleb128 0x3
 2996 0225 08       		.uleb128 0x8
 2997 0226 3A       		.uleb128 0x3a
 2998 0227 0B       		.uleb128 0xb
 2999 0228 3B       		.uleb128 0x3b
 3000 0229 0B       		.uleb128 0xb
 3001 022a 49       		.uleb128 0x49
 3002 022b 13       		.uleb128 0x13
 3003 022c 02       		.uleb128 0x2
 3004 022d 18       		.uleb128 0x18
 3005 022e 00       		.byte	0
 3006 022f 00       		.byte	0
 3007 0230 2A       		.uleb128 0x2a
 3008 0231 0B       		.uleb128 0xb
 3009 0232 01       		.byte	0x1
 3010 0233 11       		.uleb128 0x11
 3011 0234 01       		.uleb128 0x1
 3012 0235 12       		.uleb128 0x12
 3013 0236 06       		.uleb128 0x6
 3014 0237 01       		.uleb128 0x1
 3015 0238 13       		.uleb128 0x13
 3016 0239 00       		.byte	0
 3017 023a 00       		.byte	0
 3018 023b 2B       		.uleb128 0x2b
 3019 023c 898201   		.uleb128 0x4109
 3020 023f 01       		.byte	0x1
 3021 0240 11       		.uleb128 0x11
ARM GAS  /var/folders/6q/x_mk5n_j3p7_c40r_2k_78980000gn/T//ccLnxSft.s 			page 54


 3022 0241 01       		.uleb128 0x1
 3023 0242 31       		.uleb128 0x31
 3024 0243 13       		.uleb128 0x13
 3025 0244 00       		.byte	0
 3026 0245 00       		.byte	0
 3027 0246 2C       		.uleb128 0x2c
 3028 0247 898201   		.uleb128 0x4109
 3029 024a 01       		.byte	0x1
 3030 024b 11       		.uleb128 0x11
 3031 024c 01       		.uleb128 0x1
 3032 024d 00       		.byte	0
 3033 024e 00       		.byte	0
 3034 024f 2D       		.uleb128 0x2d
 3035 0250 898201   		.uleb128 0x4109
 3036 0253 01       		.byte	0x1
 3037 0254 11       		.uleb128 0x11
 3038 0255 01       		.uleb128 0x1
 3039 0256 01       		.uleb128 0x1
 3040 0257 13       		.uleb128 0x13
 3041 0258 00       		.byte	0
 3042 0259 00       		.byte	0
 3043 025a 2E       		.uleb128 0x2e
 3044 025b 2E       		.uleb128 0x2e
 3045 025c 01       		.byte	0x1
 3046 025d 3F       		.uleb128 0x3f
 3047 025e 19       		.uleb128 0x19
 3048 025f 03       		.uleb128 0x3
 3049 0260 0E       		.uleb128 0xe
 3050 0261 3A       		.uleb128 0x3a
 3051 0262 0B       		.uleb128 0xb
 3052 0263 3B       		.uleb128 0x3b
 3053 0264 05       		.uleb128 0x5
 3054 0265 27       		.uleb128 0x27
 3055 0266 19       		.uleb128 0x19
 3056 0267 11       		.uleb128 0x11
 3057 0268 01       		.uleb128 0x1
 3058 0269 12       		.uleb128 0x12
 3059 026a 06       		.uleb128 0x6
 3060 026b 40       		.uleb128 0x40
 3061 026c 18       		.uleb128 0x18
 3062 026d 9742     		.uleb128 0x2117
 3063 026f 19       		.uleb128 0x19
 3064 0270 01       		.uleb128 0x1
 3065 0271 13       		.uleb128 0x13
 3066 0272 00       		.byte	0
 3067 0273 00       		.byte	0
 3068 0274 2F       		.uleb128 0x2f
 3069 0275 05       		.uleb128 0x5
 3070 0276 00       		.byte	0
 3071 0277 03       		.uleb128 0x3
 3072 0278 08       		.uleb128 0x8
 3073 0279 3A       		.uleb128 0x3a
 3074 027a 0B       		.uleb128 0xb
 3075 027b 3B       		.uleb128 0x3b
 3076 027c 05       		.uleb128 0x5
 3077 027d 49       		.uleb128 0x49
 3078 027e 13       		.uleb128 0x13
ARM GAS  /var/folders/6q/x_mk5n_j3p7_c40r_2k_78980000gn/T//ccLnxSft.s 			page 55


 3079 027f 02       		.uleb128 0x2
 3080 0280 18       		.uleb128 0x18
 3081 0281 00       		.byte	0
 3082 0282 00       		.byte	0
 3083 0283 30       		.uleb128 0x30
 3084 0284 05       		.uleb128 0x5
 3085 0285 00       		.byte	0
 3086 0286 03       		.uleb128 0x3
 3087 0287 0E       		.uleb128 0xe
 3088 0288 3A       		.uleb128 0x3a
 3089 0289 0B       		.uleb128 0xb
 3090 028a 3B       		.uleb128 0x3b
 3091 028b 05       		.uleb128 0x5
 3092 028c 49       		.uleb128 0x49
 3093 028d 13       		.uleb128 0x13
 3094 028e 02       		.uleb128 0x2
 3095 028f 18       		.uleb128 0x18
 3096 0290 00       		.byte	0
 3097 0291 00       		.byte	0
 3098 0292 31       		.uleb128 0x31
 3099 0293 05       		.uleb128 0x5
 3100 0294 00       		.byte	0
 3101 0295 03       		.uleb128 0x3
 3102 0296 0E       		.uleb128 0xe
 3103 0297 3A       		.uleb128 0x3a
 3104 0298 0B       		.uleb128 0xb
 3105 0299 3B       		.uleb128 0x3b
 3106 029a 05       		.uleb128 0x5
 3107 029b 49       		.uleb128 0x49
 3108 029c 13       		.uleb128 0x13
 3109 029d 02       		.uleb128 0x2
 3110 029e 17       		.uleb128 0x17
 3111 029f 00       		.byte	0
 3112 02a0 00       		.byte	0
 3113 02a1 32       		.uleb128 0x32
 3114 02a2 05       		.uleb128 0x5
 3115 02a3 00       		.byte	0
 3116 02a4 03       		.uleb128 0x3
 3117 02a5 08       		.uleb128 0x8
 3118 02a6 3A       		.uleb128 0x3a
 3119 02a7 0B       		.uleb128 0xb
 3120 02a8 3B       		.uleb128 0x3b
 3121 02a9 05       		.uleb128 0x5
 3122 02aa 49       		.uleb128 0x49
 3123 02ab 13       		.uleb128 0x13
 3124 02ac 02       		.uleb128 0x2
 3125 02ad 17       		.uleb128 0x17
 3126 02ae 00       		.byte	0
 3127 02af 00       		.byte	0
 3128 02b0 33       		.uleb128 0x33
 3129 02b1 1D       		.uleb128 0x1d
 3130 02b2 01       		.byte	0x1
 3131 02b3 31       		.uleb128 0x31
 3132 02b4 13       		.uleb128 0x13
 3133 02b5 11       		.uleb128 0x11
 3134 02b6 01       		.uleb128 0x1
 3135 02b7 12       		.uleb128 0x12
ARM GAS  /var/folders/6q/x_mk5n_j3p7_c40r_2k_78980000gn/T//ccLnxSft.s 			page 56


 3136 02b8 06       		.uleb128 0x6
 3137 02b9 58       		.uleb128 0x58
 3138 02ba 0B       		.uleb128 0xb
 3139 02bb 59       		.uleb128 0x59
 3140 02bc 05       		.uleb128 0x5
 3141 02bd 01       		.uleb128 0x1
 3142 02be 13       		.uleb128 0x13
 3143 02bf 00       		.byte	0
 3144 02c0 00       		.byte	0
 3145 02c1 34       		.uleb128 0x34
 3146 02c2 2E       		.uleb128 0x2e
 3147 02c3 01       		.byte	0x1
 3148 02c4 3F       		.uleb128 0x3f
 3149 02c5 19       		.uleb128 0x19
 3150 02c6 03       		.uleb128 0x3
 3151 02c7 0E       		.uleb128 0xe
 3152 02c8 3A       		.uleb128 0x3a
 3153 02c9 0B       		.uleb128 0xb
 3154 02ca 3B       		.uleb128 0x3b
 3155 02cb 05       		.uleb128 0x5
 3156 02cc 27       		.uleb128 0x27
 3157 02cd 19       		.uleb128 0x19
 3158 02ce 49       		.uleb128 0x49
 3159 02cf 13       		.uleb128 0x13
 3160 02d0 11       		.uleb128 0x11
 3161 02d1 01       		.uleb128 0x1
 3162 02d2 12       		.uleb128 0x12
 3163 02d3 06       		.uleb128 0x6
 3164 02d4 40       		.uleb128 0x40
 3165 02d5 18       		.uleb128 0x18
 3166 02d6 9742     		.uleb128 0x2117
 3167 02d8 19       		.uleb128 0x19
 3168 02d9 01       		.uleb128 0x1
 3169 02da 13       		.uleb128 0x13
 3170 02db 00       		.byte	0
 3171 02dc 00       		.byte	0
 3172 02dd 35       		.uleb128 0x35
 3173 02de 34       		.uleb128 0x34
 3174 02df 00       		.byte	0
 3175 02e0 03       		.uleb128 0x3
 3176 02e1 08       		.uleb128 0x8
 3177 02e2 3A       		.uleb128 0x3a
 3178 02e3 0B       		.uleb128 0xb
 3179 02e4 3B       		.uleb128 0x3b
 3180 02e5 05       		.uleb128 0x5
 3181 02e6 49       		.uleb128 0x49
 3182 02e7 13       		.uleb128 0x13
 3183 02e8 02       		.uleb128 0x2
 3184 02e9 18       		.uleb128 0x18
 3185 02ea 00       		.byte	0
 3186 02eb 00       		.byte	0
 3187 02ec 36       		.uleb128 0x36
 3188 02ed 34       		.uleb128 0x34
 3189 02ee 00       		.byte	0
 3190 02ef 03       		.uleb128 0x3
 3191 02f0 08       		.uleb128 0x8
 3192 02f1 3A       		.uleb128 0x3a
ARM GAS  /var/folders/6q/x_mk5n_j3p7_c40r_2k_78980000gn/T//ccLnxSft.s 			page 57


 3193 02f2 0B       		.uleb128 0xb
 3194 02f3 3B       		.uleb128 0x3b
 3195 02f4 05       		.uleb128 0x5
 3196 02f5 49       		.uleb128 0x49
 3197 02f6 13       		.uleb128 0x13
 3198 02f7 02       		.uleb128 0x2
 3199 02f8 17       		.uleb128 0x17
 3200 02f9 00       		.byte	0
 3201 02fa 00       		.byte	0
 3202 02fb 37       		.uleb128 0x37
 3203 02fc 1D       		.uleb128 0x1d
 3204 02fd 01       		.byte	0x1
 3205 02fe 31       		.uleb128 0x31
 3206 02ff 13       		.uleb128 0x13
 3207 0300 52       		.uleb128 0x52
 3208 0301 01       		.uleb128 0x1
 3209 0302 55       		.uleb128 0x55
 3210 0303 17       		.uleb128 0x17
 3211 0304 58       		.uleb128 0x58
 3212 0305 0B       		.uleb128 0xb
 3213 0306 59       		.uleb128 0x59
 3214 0307 05       		.uleb128 0x5
 3215 0308 01       		.uleb128 0x1
 3216 0309 13       		.uleb128 0x13
 3217 030a 00       		.byte	0
 3218 030b 00       		.byte	0
 3219 030c 38       		.uleb128 0x38
 3220 030d 34       		.uleb128 0x34
 3221 030e 00       		.byte	0
 3222 030f 03       		.uleb128 0x3
 3223 0310 0E       		.uleb128 0xe
 3224 0311 3A       		.uleb128 0x3a
 3225 0312 0B       		.uleb128 0xb
 3226 0313 3B       		.uleb128 0x3b
 3227 0314 0B       		.uleb128 0xb
 3228 0315 49       		.uleb128 0x49
 3229 0316 13       		.uleb128 0x13
 3230 0317 3F       		.uleb128 0x3f
 3231 0318 19       		.uleb128 0x19
 3232 0319 3C       		.uleb128 0x3c
 3233 031a 19       		.uleb128 0x19
 3234 031b 00       		.byte	0
 3235 031c 00       		.byte	0
 3236 031d 39       		.uleb128 0x39
 3237 031e 2E       		.uleb128 0x2e
 3238 031f 00       		.byte	0
 3239 0320 3F       		.uleb128 0x3f
 3240 0321 19       		.uleb128 0x19
 3241 0322 3C       		.uleb128 0x3c
 3242 0323 19       		.uleb128 0x19
 3243 0324 6E       		.uleb128 0x6e
 3244 0325 0E       		.uleb128 0xe
 3245 0326 03       		.uleb128 0x3
 3246 0327 0E       		.uleb128 0xe
 3247 0328 3A       		.uleb128 0x3a
 3248 0329 0B       		.uleb128 0xb
 3249 032a 3B       		.uleb128 0x3b
ARM GAS  /var/folders/6q/x_mk5n_j3p7_c40r_2k_78980000gn/T//ccLnxSft.s 			page 58


 3250 032b 0B       		.uleb128 0xb
 3251 032c 00       		.byte	0
 3252 032d 00       		.byte	0
 3253 032e 00       		.byte	0
 3254              		.section	.debug_loc,"",%progbits
 3255              	.Ldebug_loc0:
 3256              	.LLST0:
 3257 0000 00000000 		.4byte	.LVL0
 3258 0004 0C000000 		.4byte	.LVL1
 3259 0008 0100     		.2byte	0x1
 3260 000a 50       		.byte	0x50
 3261 000b 0C000000 		.4byte	.LVL1
 3262 000f 1D000000 		.4byte	.LVL4-1
 3263 0013 0100     		.2byte	0x1
 3264 0015 52       		.byte	0x52
 3265 0016 1D000000 		.4byte	.LVL4-1
 3266 001a 1E000000 		.4byte	.LVL4
 3267 001e 0400     		.2byte	0x4
 3268 0020 F3       		.byte	0xf3
 3269 0021 01       		.uleb128 0x1
 3270 0022 50       		.byte	0x50
 3271 0023 9F       		.byte	0x9f
 3272 0024 1E000000 		.4byte	.LVL4
 3273 0028 22000000 		.4byte	.LVL5
 3274 002c 0100     		.2byte	0x1
 3275 002e 50       		.byte	0x50
 3276 002f 22000000 		.4byte	.LVL5
 3277 0033 28000000 		.4byte	.LFE7
 3278 0037 0400     		.2byte	0x4
 3279 0039 F3       		.byte	0xf3
 3280 003a 01       		.uleb128 0x1
 3281 003b 50       		.byte	0x50
 3282 003c 9F       		.byte	0x9f
 3283 003d 00000000 		.4byte	0
 3284 0041 00000000 		.4byte	0
 3285              	.LLST1:
 3286 0045 00000000 		.4byte	.LVL0
 3287 0049 1D000000 		.4byte	.LVL4-1
 3288 004d 0100     		.2byte	0x1
 3289 004f 51       		.byte	0x51
 3290 0050 1D000000 		.4byte	.LVL4-1
 3291 0054 1E000000 		.4byte	.LVL4
 3292 0058 0400     		.2byte	0x4
 3293 005a F3       		.byte	0xf3
 3294 005b 01       		.uleb128 0x1
 3295 005c 51       		.byte	0x51
 3296 005d 9F       		.byte	0x9f
 3297 005e 1E000000 		.4byte	.LVL4
 3298 0062 28000000 		.4byte	.LFE7
 3299 0066 0100     		.2byte	0x1
 3300 0068 51       		.byte	0x51
 3301 0069 00000000 		.4byte	0
 3302 006d 00000000 		.4byte	0
 3303              	.LLST2:
 3304 0071 0E000000 		.4byte	.LVL2
 3305 0075 18000000 		.4byte	.LVL3
 3306 0079 0100     		.2byte	0x1
ARM GAS  /var/folders/6q/x_mk5n_j3p7_c40r_2k_78980000gn/T//ccLnxSft.s 			page 59


 3307 007b 52       		.byte	0x52
 3308 007c 00000000 		.4byte	0
 3309 0080 00000000 		.4byte	0
 3310              	.LLST3:
 3311 0084 0E000000 		.4byte	.LVL2
 3312 0088 18000000 		.4byte	.LVL3
 3313 008c 0100     		.2byte	0x1
 3314 008e 53       		.byte	0x53
 3315 008f 00000000 		.4byte	0
 3316 0093 00000000 		.4byte	0
 3317              	.LLST4:
 3318 0097 00000000 		.4byte	.LVL6
 3319 009b 08000000 		.4byte	.LVL7
 3320 009f 0100     		.2byte	0x1
 3321 00a1 52       		.byte	0x52
 3322 00a2 08000000 		.4byte	.LVL7
 3323 00a6 1E000000 		.4byte	.LFE8
 3324 00aa 0400     		.2byte	0x4
 3325 00ac F3       		.byte	0xf3
 3326 00ad 01       		.uleb128 0x1
 3327 00ae 52       		.byte	0x52
 3328 00af 9F       		.byte	0x9f
 3329 00b0 00000000 		.4byte	0
 3330 00b4 00000000 		.4byte	0
 3331              	.LLST5:
 3332 00b8 00000000 		.4byte	.LVL6
 3333 00bc 1C000000 		.4byte	.LVL8
 3334 00c0 0200     		.2byte	0x2
 3335 00c2 91       		.byte	0x91
 3336 00c3 00       		.sleb128 0
 3337 00c4 1C000000 		.4byte	.LVL8
 3338 00c8 1E000000 		.4byte	.LFE8
 3339 00cc 0200     		.2byte	0x2
 3340 00ce 7D       		.byte	0x7d
 3341 00cf 00       		.sleb128 0
 3342 00d0 00000000 		.4byte	0
 3343 00d4 00000000 		.4byte	0
 3344              	.LLST6:
 3345 00d8 00000000 		.4byte	.LVL9
 3346 00dc 08000000 		.4byte	.LVL10
 3347 00e0 0100     		.2byte	0x1
 3348 00e2 50       		.byte	0x50
 3349 00e3 08000000 		.4byte	.LVL10
 3350 00e7 2C000000 		.4byte	.LFE9
 3351 00eb 0100     		.2byte	0x1
 3352 00ed 54       		.byte	0x54
 3353 00ee 00000000 		.4byte	0
 3354 00f2 00000000 		.4byte	0
 3355              	.LLST7:
 3356 00f6 18000000 		.4byte	.LVL11
 3357 00fa 1E000000 		.4byte	.LVL12
 3358 00fe 0100     		.2byte	0x1
 3359 0100 54       		.byte	0x54
 3360 0101 00000000 		.4byte	0
 3361 0105 00000000 		.4byte	0
 3362              	.LLST8:
 3363 0109 18000000 		.4byte	.LVL11
ARM GAS  /var/folders/6q/x_mk5n_j3p7_c40r_2k_78980000gn/T//ccLnxSft.s 			page 60


 3364 010d 1E000000 		.4byte	.LVL12
 3365 0111 0100     		.2byte	0x1
 3366 0113 50       		.byte	0x50
 3367 0114 00000000 		.4byte	0
 3368 0118 00000000 		.4byte	0
 3369              	.LLST9:
 3370 011c 00000000 		.4byte	.LVL14
 3371 0120 2A000000 		.4byte	.LVL17
 3372 0124 0100     		.2byte	0x1
 3373 0126 50       		.byte	0x50
 3374 0127 2A000000 		.4byte	.LVL17
 3375 012b 31000000 		.4byte	.LVL19-1
 3376 012f 0100     		.2byte	0x1
 3377 0131 53       		.byte	0x53
 3378 0132 31000000 		.4byte	.LVL19-1
 3379 0136 3A000000 		.4byte	.LVL20
 3380 013a 0400     		.2byte	0x4
 3381 013c F3       		.byte	0xf3
 3382 013d 01       		.uleb128 0x1
 3383 013e 50       		.byte	0x50
 3384 013f 9F       		.byte	0x9f
 3385 0140 3A000000 		.4byte	.LVL20
 3386 0144 46000000 		.4byte	.LVL21
 3387 0148 0100     		.2byte	0x1
 3388 014a 50       		.byte	0x50
 3389 014b 46000000 		.4byte	.LVL21
 3390 014f 48000000 		.4byte	.LVL22
 3391 0153 0400     		.2byte	0x4
 3392 0155 F3       		.byte	0xf3
 3393 0156 01       		.uleb128 0x1
 3394 0157 50       		.byte	0x50
 3395 0158 9F       		.byte	0x9f
 3396 0159 48000000 		.4byte	.LVL22
 3397 015d 50000000 		.4byte	.LVL23
 3398 0161 0100     		.2byte	0x1
 3399 0163 50       		.byte	0x50
 3400 0164 50000000 		.4byte	.LVL23
 3401 0168 52000000 		.4byte	.LFE10
 3402 016c 0400     		.2byte	0x4
 3403 016e F3       		.byte	0xf3
 3404 016f 01       		.uleb128 0x1
 3405 0170 50       		.byte	0x50
 3406 0171 9F       		.byte	0x9f
 3407 0172 00000000 		.4byte	0
 3408 0176 00000000 		.4byte	0
 3409              	.LLST10:
 3410 017a 00000000 		.4byte	.LVL14
 3411 017e 28000000 		.4byte	.LVL16
 3412 0182 0100     		.2byte	0x1
 3413 0184 51       		.byte	0x51
 3414 0185 28000000 		.4byte	.LVL16
 3415 0189 3A000000 		.4byte	.LVL20
 3416 018d 0400     		.2byte	0x4
 3417 018f F3       		.byte	0xf3
 3418 0190 01       		.uleb128 0x1
 3419 0191 51       		.byte	0x51
 3420 0192 9F       		.byte	0x9f
ARM GAS  /var/folders/6q/x_mk5n_j3p7_c40r_2k_78980000gn/T//ccLnxSft.s 			page 61


 3421 0193 3A000000 		.4byte	.LVL20
 3422 0197 52000000 		.4byte	.LFE10
 3423 019b 0100     		.2byte	0x1
 3424 019d 51       		.byte	0x51
 3425 019e 00000000 		.4byte	0
 3426 01a2 00000000 		.4byte	0
 3427              	.LLST11:
 3428 01a6 26000000 		.4byte	.LVL15
 3429 01aa 2E000000 		.4byte	.LVL18
 3430 01ae 0100     		.2byte	0x1
 3431 01b0 53       		.byte	0x53
 3432 01b1 00000000 		.4byte	0
 3433 01b5 00000000 		.4byte	0
 3434              	.LLST12:
 3435 01b9 26000000 		.4byte	.LVL15
 3436 01bd 2E000000 		.4byte	.LVL18
 3437 01c1 0100     		.2byte	0x1
 3438 01c3 52       		.byte	0x52
 3439 01c4 00000000 		.4byte	0
 3440 01c8 00000000 		.4byte	0
 3441              	.LLST13:
 3442 01cc 00000000 		.4byte	.LVL24
 3443 01d0 11000000 		.4byte	.LVL25-1
 3444 01d4 0100     		.2byte	0x1
 3445 01d6 50       		.byte	0x50
 3446 01d7 11000000 		.4byte	.LVL25-1
 3447 01db 50000000 		.4byte	.LFE11
 3448 01df 0100     		.2byte	0x1
 3449 01e1 54       		.byte	0x54
 3450 01e2 00000000 		.4byte	0
 3451 01e6 00000000 		.4byte	0
 3452              	.LLST14:
 3453 01ea 00000000 		.4byte	.LVL24
 3454 01ee 11000000 		.4byte	.LVL25-1
 3455 01f2 0100     		.2byte	0x1
 3456 01f4 51       		.byte	0x51
 3457 01f5 11000000 		.4byte	.LVL25-1
 3458 01f9 50000000 		.4byte	.LFE11
 3459 01fd 0100     		.2byte	0x1
 3460 01ff 56       		.byte	0x56
 3461 0200 00000000 		.4byte	0
 3462 0204 00000000 		.4byte	0
 3463              	.LLST15:
 3464 0208 3C000000 		.4byte	.LVL28
 3465 020c 48000000 		.4byte	.LVL29
 3466 0210 0100     		.2byte	0x1
 3467 0212 50       		.byte	0x50
 3468 0213 00000000 		.4byte	0
 3469 0217 00000000 		.4byte	0
 3470              	.LLST16:
 3471 021b 1C000000 		.4byte	.LVL26
 3472 021f 20000000 		.4byte	.LVL27
 3473 0223 0100     		.2byte	0x1
 3474 0225 50       		.byte	0x50
 3475 0226 48000000 		.4byte	.LVL29
 3476 022a 50000000 		.4byte	.LFE11
 3477 022e 0100     		.2byte	0x1
ARM GAS  /var/folders/6q/x_mk5n_j3p7_c40r_2k_78980000gn/T//ccLnxSft.s 			page 62


 3478 0230 50       		.byte	0x50
 3479 0231 00000000 		.4byte	0
 3480 0235 00000000 		.4byte	0
 3481              	.LLST17:
 3482 0239 00000000 		.4byte	.LVL30
 3483 023d 18000000 		.4byte	.LVL33
 3484 0241 0100     		.2byte	0x1
 3485 0243 50       		.byte	0x50
 3486 0244 18000000 		.4byte	.LVL33
 3487 0248 70000000 		.4byte	.LFE12
 3488 024c 0100     		.2byte	0x1
 3489 024e 54       		.byte	0x54
 3490 024f 00000000 		.4byte	0
 3491 0253 00000000 		.4byte	0
 3492              	.LLST18:
 3493 0257 00000000 		.4byte	.LVL30
 3494 025b 18000000 		.4byte	.LVL33
 3495 025f 0100     		.2byte	0x1
 3496 0261 51       		.byte	0x51
 3497 0262 18000000 		.4byte	.LVL33
 3498 0266 44000000 		.4byte	.LVL36
 3499 026a 0100     		.2byte	0x1
 3500 026c 59       		.byte	0x59
 3501 026d 44000000 		.4byte	.LVL36
 3502 0271 64000000 		.4byte	.LVL38
 3503 0275 0300     		.2byte	0x3
 3504 0277 79       		.byte	0x79
 3505 0278 7F       		.sleb128 -1
 3506 0279 9F       		.byte	0x9f
 3507 027a 64000000 		.4byte	.LVL38
 3508 027e 6A000000 		.4byte	.LVL39
 3509 0282 0100     		.2byte	0x1
 3510 0284 59       		.byte	0x59
 3511 0285 00000000 		.4byte	0
 3512 0289 00000000 		.4byte	0
 3513              	.LLST19:
 3514 028d 00000000 		.4byte	.LVL30
 3515 0291 18000000 		.4byte	.LVL33
 3516 0295 0100     		.2byte	0x1
 3517 0297 52       		.byte	0x52
 3518 0298 58000000 		.4byte	.LVL37
 3519 029c 64000000 		.4byte	.LVL38
 3520 02a0 0600     		.2byte	0x6
 3521 02a2 7A       		.byte	0x7a
 3522 02a3 00       		.sleb128 0
 3523 02a4 77       		.byte	0x77
 3524 02a5 00       		.sleb128 0
 3525 02a6 1C       		.byte	0x1c
 3526 02a7 9F       		.byte	0x9f
 3527 02a8 00000000 		.4byte	0
 3528 02ac 00000000 		.4byte	0
 3529              	.LLST20:
 3530 02b0 00000000 		.4byte	.LVL30
 3531 02b4 12000000 		.4byte	.LVL32
 3532 02b8 0100     		.2byte	0x1
 3533 02ba 53       		.byte	0x53
 3534 02bb 12000000 		.4byte	.LVL32
ARM GAS  /var/folders/6q/x_mk5n_j3p7_c40r_2k_78980000gn/T//ccLnxSft.s 			page 63


 3535 02bf 70000000 		.4byte	.LFE12
 3536 02c3 0100     		.2byte	0x1
 3537 02c5 56       		.byte	0x56
 3538 02c6 00000000 		.4byte	0
 3539 02ca 00000000 		.4byte	0
 3540              	.LLST21:
 3541 02ce 10000000 		.4byte	.LVL31
 3542 02d2 18000000 		.4byte	.LVL33
 3543 02d6 0200     		.2byte	0x2
 3544 02d8 30       		.byte	0x30
 3545 02d9 9F       		.byte	0x9f
 3546 02da 18000000 		.4byte	.LVL33
 3547 02de 70000000 		.4byte	.LFE12
 3548 02e2 0100     		.2byte	0x1
 3549 02e4 57       		.byte	0x57
 3550 02e5 00000000 		.4byte	0
 3551 02e9 00000000 		.4byte	0
 3552              	.LLST22:
 3553 02ed 00000000 		.4byte	.LVL40
 3554 02f1 1A000000 		.4byte	.LVL41
 3555 02f5 0200     		.2byte	0x2
 3556 02f7 91       		.byte	0x91
 3557 02f8 00       		.sleb128 0
 3558 02f9 1A000000 		.4byte	.LVL41
 3559 02fd 1C000000 		.4byte	.LFE13
 3560 0301 0200     		.2byte	0x2
 3561 0303 7D       		.byte	0x7d
 3562 0304 00       		.sleb128 0
 3563 0305 00000000 		.4byte	0
 3564 0309 00000000 		.4byte	0
 3565              	.LLST23:
 3566 030d 00000000 		.4byte	.LVL42
 3567 0311 0A000000 		.4byte	.LVL43
 3568 0315 0100     		.2byte	0x1
 3569 0317 50       		.byte	0x50
 3570 0318 0A000000 		.4byte	.LVL43
 3571 031c 2E000000 		.4byte	.LFE14
 3572 0320 0100     		.2byte	0x1
 3573 0322 54       		.byte	0x54
 3574 0323 00000000 		.4byte	0
 3575 0327 00000000 		.4byte	0
 3576              	.LLST24:
 3577 032b 1A000000 		.4byte	.LVL44
 3578 032f 20000000 		.4byte	.LVL45
 3579 0333 0100     		.2byte	0x1
 3580 0335 54       		.byte	0x54
 3581 0336 00000000 		.4byte	0
 3582 033a 00000000 		.4byte	0
 3583              	.LLST25:
 3584 033e 1A000000 		.4byte	.LVL44
 3585 0342 20000000 		.4byte	.LVL45
 3586 0346 0100     		.2byte	0x1
 3587 0348 50       		.byte	0x50
 3588 0349 00000000 		.4byte	0
 3589 034d 00000000 		.4byte	0
 3590              	.LLST26:
 3591 0351 00000000 		.4byte	.LVL47
ARM GAS  /var/folders/6q/x_mk5n_j3p7_c40r_2k_78980000gn/T//ccLnxSft.s 			page 64


 3592 0355 10000000 		.4byte	.LVL48
 3593 0359 0100     		.2byte	0x1
 3594 035b 50       		.byte	0x50
 3595 035c 10000000 		.4byte	.LVL48
 3596 0360 54000000 		.4byte	.LFE15
 3597 0364 0100     		.2byte	0x1
 3598 0366 54       		.byte	0x54
 3599 0367 00000000 		.4byte	0
 3600 036b 00000000 		.4byte	0
 3601              	.LLST27:
 3602 036f 00000000 		.4byte	.LVL47
 3603 0373 10000000 		.4byte	.LVL48
 3604 0377 0100     		.2byte	0x1
 3605 0379 51       		.byte	0x51
 3606 037a 10000000 		.4byte	.LVL48
 3607 037e 54000000 		.4byte	.LFE15
 3608 0382 0400     		.2byte	0x4
 3609 0384 F3       		.byte	0xf3
 3610 0385 01       		.uleb128 0x1
 3611 0386 51       		.byte	0x51
 3612 0387 9F       		.byte	0x9f
 3613 0388 00000000 		.4byte	0
 3614 038c 00000000 		.4byte	0
 3615              	.LLST28:
 3616 0390 00000000 		.4byte	.LVL47
 3617 0394 10000000 		.4byte	.LVL48
 3618 0398 0100     		.2byte	0x1
 3619 039a 52       		.byte	0x52
 3620 039b 10000000 		.4byte	.LVL48
 3621 039f 54000000 		.4byte	.LFE15
 3622 03a3 0100     		.2byte	0x1
 3623 03a5 56       		.byte	0x56
 3624 03a6 00000000 		.4byte	0
 3625 03aa 00000000 		.4byte	0
 3626              	.LLST29:
 3627 03ae 18000000 		.4byte	.LVL49
 3628 03b2 1C000000 		.4byte	.LVL50
 3629 03b6 0100     		.2byte	0x1
 3630 03b8 50       		.byte	0x50
 3631 03b9 4C000000 		.4byte	.LVL52
 3632 03bd 54000000 		.4byte	.LFE15
 3633 03c1 0100     		.2byte	0x1
 3634 03c3 50       		.byte	0x50
 3635 03c4 00000000 		.4byte	0
 3636 03c8 00000000 		.4byte	0
 3637              	.LLST30:
 3638 03cc 00000000 		.4byte	.LVL53
 3639 03d0 28000000 		.4byte	.LVL56
 3640 03d4 0100     		.2byte	0x1
 3641 03d6 50       		.byte	0x50
 3642 03d7 28000000 		.4byte	.LVL56
 3643 03db 2F000000 		.4byte	.LVL58-1
 3644 03df 0100     		.2byte	0x1
 3645 03e1 53       		.byte	0x53
 3646 03e2 2F000000 		.4byte	.LVL58-1
 3647 03e6 38000000 		.4byte	.LVL59
 3648 03ea 0400     		.2byte	0x4
ARM GAS  /var/folders/6q/x_mk5n_j3p7_c40r_2k_78980000gn/T//ccLnxSft.s 			page 65


 3649 03ec F3       		.byte	0xf3
 3650 03ed 01       		.uleb128 0x1
 3651 03ee 50       		.byte	0x50
 3652 03ef 9F       		.byte	0x9f
 3653 03f0 38000000 		.4byte	.LVL59
 3654 03f4 46000000 		.4byte	.LVL61
 3655 03f8 0100     		.2byte	0x1
 3656 03fa 50       		.byte	0x50
 3657 03fb 46000000 		.4byte	.LVL61
 3658 03ff 48000000 		.4byte	.LFE16
 3659 0403 0400     		.2byte	0x4
 3660 0405 F3       		.byte	0xf3
 3661 0406 01       		.uleb128 0x1
 3662 0407 50       		.byte	0x50
 3663 0408 9F       		.byte	0x9f
 3664 0409 00000000 		.4byte	0
 3665 040d 00000000 		.4byte	0
 3666              	.LLST31:
 3667 0411 1A000000 		.4byte	.LVL54
 3668 0415 3E000000 		.4byte	.LVL60
 3669 0419 0100     		.2byte	0x1
 3670 041b 54       		.byte	0x54
 3671 041c 00000000 		.4byte	0
 3672 0420 00000000 		.4byte	0
 3673              	.LLST32:
 3674 0424 24000000 		.4byte	.LVL55
 3675 0428 2C000000 		.4byte	.LVL57
 3676 042c 0100     		.2byte	0x1
 3677 042e 53       		.byte	0x53
 3678 042f 00000000 		.4byte	0
 3679 0433 00000000 		.4byte	0
 3680              	.LLST33:
 3681 0437 24000000 		.4byte	.LVL55
 3682 043b 2C000000 		.4byte	.LVL57
 3683 043f 0100     		.2byte	0x1
 3684 0441 52       		.byte	0x52
 3685 0442 00000000 		.4byte	0
 3686 0446 00000000 		.4byte	0
 3687              	.LLST34:
 3688 044a 00000000 		.4byte	.LVL62
 3689 044e 1A000000 		.4byte	.LVL65
 3690 0452 0100     		.2byte	0x1
 3691 0454 50       		.byte	0x50
 3692 0455 1A000000 		.4byte	.LVL65
 3693 0459 80000000 		.4byte	.LFE17
 3694 045d 0100     		.2byte	0x1
 3695 045f 54       		.byte	0x54
 3696 0460 00000000 		.4byte	0
 3697 0464 00000000 		.4byte	0
 3698              	.LLST35:
 3699 0468 00000000 		.4byte	.LVL62
 3700 046c 1A000000 		.4byte	.LVL65
 3701 0470 0100     		.2byte	0x1
 3702 0472 51       		.byte	0x51
 3703 0473 1A000000 		.4byte	.LVL65
 3704 0477 20000000 		.4byte	.LVL66
 3705 047b 0100     		.2byte	0x1
ARM GAS  /var/folders/6q/x_mk5n_j3p7_c40r_2k_78980000gn/T//ccLnxSft.s 			page 66


 3706 047d 56       		.byte	0x56
 3707 047e 20000000 		.4byte	.LVL66
 3708 0482 5C000000 		.4byte	.LVL70
 3709 0486 0100     		.2byte	0x1
 3710 0488 5B       		.byte	0x5b
 3711 0489 5C000000 		.4byte	.LVL70
 3712 048d 62000000 		.4byte	.LVL71
 3713 0491 0100     		.2byte	0x1
 3714 0493 56       		.byte	0x56
 3715 0494 62000000 		.4byte	.LVL71
 3716 0498 80000000 		.4byte	.LFE17
 3717 049c 0100     		.2byte	0x1
 3718 049e 5B       		.byte	0x5b
 3719 049f 00000000 		.4byte	0
 3720 04a3 00000000 		.4byte	0
 3721              	.LLST36:
 3722 04a7 00000000 		.4byte	.LVL62
 3723 04ab 1A000000 		.4byte	.LVL65
 3724 04af 0100     		.2byte	0x1
 3725 04b1 52       		.byte	0x52
 3726 04b2 1A000000 		.4byte	.LVL65
 3727 04b6 4E000000 		.4byte	.LVL68
 3728 04ba 0100     		.2byte	0x1
 3729 04bc 57       		.byte	0x57
 3730 04bd 4E000000 		.4byte	.LVL68
 3731 04c1 52000000 		.4byte	.LVL69
 3732 04c5 0300     		.2byte	0x3
 3733 04c7 77       		.byte	0x77
 3734 04c8 01       		.sleb128 1
 3735 04c9 9F       		.byte	0x9f
 3736 04ca 5C000000 		.4byte	.LVL70
 3737 04ce 7A000000 		.4byte	.LVL73
 3738 04d2 0100     		.2byte	0x1
 3739 04d4 57       		.byte	0x57
 3740 04d5 00000000 		.4byte	0
 3741 04d9 00000000 		.4byte	0
 3742              	.LLST37:
 3743 04dd 00000000 		.4byte	.LVL62
 3744 04e1 12000000 		.4byte	.LVL64
 3745 04e5 0100     		.2byte	0x1
 3746 04e7 53       		.byte	0x53
 3747 04e8 12000000 		.4byte	.LVL64
 3748 04ec 80000000 		.4byte	.LFE17
 3749 04f0 0100     		.2byte	0x1
 3750 04f2 5A       		.byte	0x5a
 3751 04f3 00000000 		.4byte	0
 3752 04f7 00000000 		.4byte	0
 3753              	.LLST38:
 3754 04fb 10000000 		.4byte	.LVL63
 3755 04ff 1A000000 		.4byte	.LVL65
 3756 0503 0200     		.2byte	0x2
 3757 0505 30       		.byte	0x30
 3758 0506 9F       		.byte	0x9f
 3759 0507 1A000000 		.4byte	.LVL65
 3760 050b 80000000 		.4byte	.LFE17
 3761 050f 0100     		.2byte	0x1
 3762 0511 58       		.byte	0x58
ARM GAS  /var/folders/6q/x_mk5n_j3p7_c40r_2k_78980000gn/T//ccLnxSft.s 			page 67


 3763 0512 00000000 		.4byte	0
 3764 0516 00000000 		.4byte	0
 3765              		.section	.debug_aranges,"",%progbits
 3766 0000 6C000000 		.4byte	0x6c
 3767 0004 0200     		.2byte	0x2
 3768 0006 00000000 		.4byte	.Ldebug_info0
 3769 000a 04       		.byte	0x4
 3770 000b 00       		.byte	0
 3771 000c 0000     		.2byte	0
 3772 000e 0000     		.2byte	0
 3773 0010 00000000 		.4byte	.LFB7
 3774 0014 28000000 		.4byte	.LFE7-.LFB7
 3775 0018 00000000 		.4byte	.LFB8
 3776 001c 1E000000 		.4byte	.LFE8-.LFB8
 3777 0020 00000000 		.4byte	.LFB9
 3778 0024 2C000000 		.4byte	.LFE9-.LFB9
 3779 0028 00000000 		.4byte	.LFB10
 3780 002c 52000000 		.4byte	.LFE10-.LFB10
 3781 0030 00000000 		.4byte	.LFB11
 3782 0034 50000000 		.4byte	.LFE11-.LFB11
 3783 0038 00000000 		.4byte	.LFB12
 3784 003c 70000000 		.4byte	.LFE12-.LFB12
 3785 0040 00000000 		.4byte	.LFB13
 3786 0044 1C000000 		.4byte	.LFE13-.LFB13
 3787 0048 00000000 		.4byte	.LFB14
 3788 004c 2E000000 		.4byte	.LFE14-.LFB14
 3789 0050 00000000 		.4byte	.LFB15
 3790 0054 54000000 		.4byte	.LFE15-.LFB15
 3791 0058 00000000 		.4byte	.LFB16
 3792 005c 48000000 		.4byte	.LFE16-.LFB16
 3793 0060 00000000 		.4byte	.LFB17
 3794 0064 80000000 		.4byte	.LFE17-.LFB17
 3795 0068 00000000 		.4byte	0
 3796 006c 00000000 		.4byte	0
 3797              		.section	.debug_ranges,"",%progbits
 3798              	.Ldebug_ranges0:
 3799 0000 26000000 		.4byte	.LBB16
 3800 0004 28000000 		.4byte	.LBE16
 3801 0008 2A000000 		.4byte	.LBB19
 3802 000c 2E000000 		.4byte	.LBE19
 3803 0010 00000000 		.4byte	0
 3804 0014 00000000 		.4byte	0
 3805 0018 02000000 		.4byte	.LBB20
 3806 001c 04000000 		.4byte	.LBE20
 3807 0020 08000000 		.4byte	.LBB21
 3808 0024 0C000000 		.4byte	.LBE21
 3809 0028 00000000 		.4byte	0
 3810 002c 00000000 		.4byte	0
 3811 0030 14000000 		.4byte	.LBB22
 3812 0034 20000000 		.4byte	.LBE22
 3813 0038 48000000 		.4byte	.LBB25
 3814 003c 50000000 		.4byte	.LBE25
 3815 0040 00000000 		.4byte	0
 3816 0044 00000000 		.4byte	0
 3817 0048 10000000 		.4byte	.LBB33
 3818 004c 1C000000 		.4byte	.LBE33
 3819 0050 4C000000 		.4byte	.LBB36
ARM GAS  /var/folders/6q/x_mk5n_j3p7_c40r_2k_78980000gn/T//ccLnxSft.s 			page 68


 3820 0054 54000000 		.4byte	.LBE36
 3821 0058 00000000 		.4byte	0
 3822 005c 00000000 		.4byte	0
 3823 0060 24000000 		.4byte	.LBB37
 3824 0064 26000000 		.4byte	.LBE37
 3825 0068 28000000 		.4byte	.LBB40
 3826 006c 2C000000 		.4byte	.LBE40
 3827 0070 00000000 		.4byte	0
 3828 0074 00000000 		.4byte	0
 3829 0078 00000000 		.4byte	.LFB7
 3830 007c 28000000 		.4byte	.LFE7
 3831 0080 00000000 		.4byte	.LFB8
 3832 0084 1E000000 		.4byte	.LFE8
 3833 0088 00000000 		.4byte	.LFB9
 3834 008c 2C000000 		.4byte	.LFE9
 3835 0090 00000000 		.4byte	.LFB10
 3836 0094 52000000 		.4byte	.LFE10
 3837 0098 00000000 		.4byte	.LFB11
 3838 009c 50000000 		.4byte	.LFE11
 3839 00a0 00000000 		.4byte	.LFB12
 3840 00a4 70000000 		.4byte	.LFE12
 3841 00a8 00000000 		.4byte	.LFB13
 3842 00ac 1C000000 		.4byte	.LFE13
 3843 00b0 00000000 		.4byte	.LFB14
 3844 00b4 2E000000 		.4byte	.LFE14
 3845 00b8 00000000 		.4byte	.LFB15
 3846 00bc 54000000 		.4byte	.LFE15
 3847 00c0 00000000 		.4byte	.LFB16
 3848 00c4 48000000 		.4byte	.LFE16
 3849 00c8 00000000 		.4byte	.LFB17
 3850 00cc 80000000 		.4byte	.LFE17
 3851 00d0 00000000 		.4byte	0
 3852 00d4 00000000 		.4byte	0
 3853              		.section	.debug_line,"",%progbits
 3854              	.Ldebug_line0:
 3855 0000 E7030000 		.section	.debug_str,"MS",%progbits,1
 3855      02001602 
 3855      00000201 
 3855      FB0E0D00 
 3855      01010101 
 3856              	.LASF90:
 3857 0000 63684F51 		.ascii	"chOQInit\000"
 3857      496E6974 
 3857      00
 3858              	.LASF42:
 3859 0009 705F6D73 		.ascii	"p_msg\000"
 3859      6700
 3860              	.LASF101:
 3861 000f 71756575 		.ascii	"queue_insert\000"
 3861      655F696E 
 3861      73657274 
 3861      00
 3862              	.LASF91:
 3863 001c 6F6E6679 		.ascii	"onfy\000"
 3863      00
 3864              	.LASF4:
 3865 0021 73697A65 		.ascii	"size_t\000"
ARM GAS  /var/folders/6q/x_mk5n_j3p7_c40r_2k_78980000gn/T//ccLnxSft.s 			page 69


 3865      5F7400
 3866              	.LASF64:
 3867 0028 7264796D 		.ascii	"rdymsg\000"
 3867      736700
 3868              	.LASF85:
 3869 002f 63684951 		.ascii	"chIQInit\000"
 3869      496E6974 
 3869      00
 3870              	.LASF80:
 3871 0038 4F757470 		.ascii	"OutputQueue\000"
 3871      75745175 
 3871      65756500 
 3872              	.LASF5:
 3873 0044 5F5F7569 		.ascii	"__uint8_t\000"
 3873      6E74385F 
 3873      7400
 3874              	.LASF89:
 3875 004e 63684951 		.ascii	"chIQReadTimeout\000"
 3875      52656164 
 3875      54696D65 
 3875      6F757400 
 3876              	.LASF13:
 3877 005e 6C6F6E67 		.ascii	"long long unsigned int\000"
 3877      206C6F6E 
 3877      6720756E 
 3877      7369676E 
 3877      65642069 
 3878              	.LASF65:
 3879 0075 65786974 		.ascii	"exitcode\000"
 3879      636F6465 
 3879      00
 3880              	.LASF30:
 3881 007e 705F7072 		.ascii	"p_prio\000"
 3881      696F00
 3882              	.LASF70:
 3883 0085 715F7761 		.ascii	"q_waiting\000"
 3883      6974696E 
 3883      6700
 3884              	.LASF1:
 3885 008f 6C6F6E67 		.ascii	"long long int\000"
 3885      206C6F6E 
 3885      6720696E 
 3885      7400
 3886              	.LASF3:
 3887 009d 7369676E 		.ascii	"signed char\000"
 3887      65642063 
 3887      68617200 
 3888              	.LASF46:
 3889 00a9 705F6D70 		.ascii	"p_mpool\000"
 3889      6F6F6C00 
 3890              	.LASF17:
 3891 00b1 626F6F6C 		.ascii	"bool_t\000"
 3891      5F7400
 3892              	.LASF61:
 3893 00b8 6D5F7175 		.ascii	"m_queue\000"
 3893      65756500 
 3894              	.LASF22:
ARM GAS  /var/folders/6q/x_mk5n_j3p7_c40r_2k_78980000gn/T//ccLnxSft.s 			page 70


 3895 00c0 74736C69 		.ascii	"tslices_t\000"
 3895      6365735F 
 3895      7400
 3896              	.LASF103:
 3897 00ca 71776169 		.ascii	"qwait\000"
 3897      7400
 3898              	.LASF10:
 3899 00d0 6C6F6E67 		.ascii	"long int\000"
 3899      20696E74 
 3899      00
 3900              	.LASF20:
 3901 00d9 74737461 		.ascii	"tstate_t\000"
 3901      74655F74 
 3901      00
 3902              	.LASF94:
 3903 00e2 63684F51 		.ascii	"chOQGetI\000"
 3903      47657449 
 3903      00
 3904              	.LASF72:
 3905 00eb 715F6275 		.ascii	"q_buffer\000"
 3905      66666572 
 3905      00
 3906              	.LASF74:
 3907 00f4 715F7772 		.ascii	"q_wrptr\000"
 3907      70747200 
 3908              	.LASF32:
 3909 00fc 705F6E65 		.ascii	"p_newer\000"
 3909      77657200 
 3910              	.LASF11:
 3911 0104 5F5F7569 		.ascii	"__uint32_t\000"
 3911      6E743332 
 3911      5F7400
 3912              	.LASF49:
 3913 010f 72656761 		.ascii	"regarm_t\000"
 3913      726D5F74 
 3913      00
 3914              	.LASF84:
 3915 0118 6C696E6B 		.ascii	"link\000"
 3915      00
 3916              	.LASF93:
 3917 011d 63684F51 		.ascii	"chOQPutTimeout\000"
 3917      50757454 
 3917      696D656F 
 3917      757400
 3918              	.LASF87:
 3919 012c 63684951 		.ascii	"chIQPutI\000"
 3919      50757449 
 3919      00
 3920              	.LASF0:
 3921 0135 756E7369 		.ascii	"unsigned int\000"
 3921      676E6564 
 3921      20696E74 
 3921      00
 3922              	.LASF86:
 3923 0142 63684951 		.ascii	"chIQResetI\000"
 3923      52657365 
 3923      744900
ARM GAS  /var/folders/6q/x_mk5n_j3p7_c40r_2k_78980000gn/T//ccLnxSft.s 			page 71


 3924              	.LASF12:
 3925 014d 6C6F6E67 		.ascii	"long unsigned int\000"
 3925      20756E73 
 3925      69676E65 
 3925      6420696E 
 3925      7400
 3926              	.LASF98:
 3927 015f 474E5520 		.ascii	"GNU C11 5.4.1 20160919 (release) [ARM/embedded-5-br"
 3927      43313120 
 3927      352E342E 
 3927      31203230 
 3927      31363039 
 3928 0192 616E6368 		.ascii	"anch revision 240496] -mcpu=cortex-m3 -mno-thumb-in"
 3928      20726576 
 3928      6973696F 
 3928      6E203234 
 3928      30343936 
 3929 01c5 74657277 		.ascii	"terwork -mthumb -ggdb -O2 -fomit-frame-pointer -fal"
 3929      6F726B20 
 3929      2D6D7468 
 3929      756D6220 
 3929      2D676764 
 3930 01f8 69676E2D 		.ascii	"ign-functions=16 -ffunction-sections -fdata-section"
 3930      66756E63 
 3930      74696F6E 
 3930      733D3136 
 3930      202D6666 
 3931 022b 73202D66 		.ascii	"s -fno-common\000"
 3931      6E6F2D63 
 3931      6F6D6D6F 
 3931      6E00
 3932              	.LASF51:
 3933 0239 636F6E74 		.ascii	"context\000"
 3933      65787400 
 3934              	.LASF82:
 3935 0241 73697A65 		.ascii	"size\000"
 3935      00
 3936              	.LASF8:
 3937 0246 73686F72 		.ascii	"short unsigned int\000"
 3937      7420756E 
 3937      7369676E 
 3937      65642069 
 3937      6E7400
 3938              	.LASF24:
 3939 0259 6D73675F 		.ascii	"msg_t\000"
 3939      7400
 3940              	.LASF56:
 3941 025f 725F6E65 		.ascii	"r_newer\000"
 3941      77657200 
 3942              	.LASF19:
 3943 0267 746D6F64 		.ascii	"tmode_t\000"
 3943      655F7400 
 3944              	.LASF48:
 3945 026f 54687265 		.ascii	"ThreadsList\000"
 3945      6164734C 
 3945      69737400 
 3946              	.LASF25:
ARM GAS  /var/folders/6q/x_mk5n_j3p7_c40r_2k_78980000gn/T//ccLnxSft.s 			page 72


 3947 027b 6576656E 		.ascii	"eventmask_t\000"
 3947      746D6173 
 3947      6B5F7400 
 3948              	.LASF79:
 3949 0287 496E7075 		.ascii	"InputQueue\000"
 3949      74517565 
 3949      756500
 3950              	.LASF60:
 3951 0292 4D757465 		.ascii	"Mutex\000"
 3951      7800
 3952              	.LASF69:
 3953 0298 47656E65 		.ascii	"GenericQueue\000"
 3953      72696351 
 3953      75657565 
 3953      00
 3954              	.LASF95:
 3955 02a5 63684F51 		.ascii	"chOQWriteTimeout\000"
 3955      57726974 
 3955      6554696D 
 3955      656F7574 
 3955      00
 3956              	.LASF52:
 3957 02b6 73697A65 		.ascii	"sizetype\000"
 3957      74797065 
 3957      00
 3958              	.LASF71:
 3959 02bf 715F636F 		.ascii	"q_counter\000"
 3959      756E7465 
 3959      7200
 3960              	.LASF2:
 3961 02c9 6C6F6E67 		.ascii	"long double\000"
 3961      20646F75 
 3961      626C6500 
 3962              	.LASF33:
 3963 02d5 705F6F6C 		.ascii	"p_older\000"
 3963      64657200 
 3964              	.LASF55:
 3965 02dd 725F6374 		.ascii	"r_ctx\000"
 3965      7800
 3966              	.LASF47:
 3967 02e3 54687265 		.ascii	"ThreadsQueue\000"
 3967      61647351 
 3967      75657565 
 3967      00
 3968              	.LASF81:
 3969 02f0 74696D65 		.ascii	"time\000"
 3969      00
 3970              	.LASF58:
 3971 02f5 725F6375 		.ascii	"r_current\000"
 3971      7272656E 
 3971      7400
 3972              	.LASF57:
 3973 02ff 725F6F6C 		.ascii	"r_older\000"
 3973      64657200 
 3974              	.LASF21:
 3975 0307 74726566 		.ascii	"trefs_t\000"
 3975      735F7400 
ARM GAS  /var/folders/6q/x_mk5n_j3p7_c40r_2k_78980000gn/T//ccLnxSft.s 			page 73


 3976              	.LASF78:
 3977 030f 716E6F74 		.ascii	"qnotify_t\000"
 3977      6966795F 
 3977      7400
 3978              	.LASF29:
 3979 0319 705F7072 		.ascii	"p_prev\000"
 3979      657600
 3980              	.LASF23:
 3981 0320 74707269 		.ascii	"tprio_t\000"
 3981      6F5F7400 
 3982              	.LASF75:
 3983 0328 715F7264 		.ascii	"q_rdptr\000"
 3983      70747200 
 3984              	.LASF18:
 3985 0330 5F426F6F 		.ascii	"_Bool\000"
 3985      6C00
 3986              	.LASF15:
 3987 0336 696E7433 		.ascii	"int32_t\000"
 3987      325F7400 
 3988              	.LASF6:
 3989 033e 756E7369 		.ascii	"unsigned char\000"
 3989      676E6564 
 3989      20636861 
 3989      7200
 3990              	.LASF44:
 3991 034c 705F6D74 		.ascii	"p_mtxlist\000"
 3991      786C6973 
 3991      7400
 3992              	.LASF7:
 3993 0356 73686F72 		.ascii	"short int\000"
 3993      7420696E 
 3993      7400
 3994              	.LASF35:
 3995 0360 705F7374 		.ascii	"p_state\000"
 3995      61746500 
 3996              	.LASF38:
 3997 0368 705F7072 		.ascii	"p_preempt\000"
 3997      65656D70 
 3997      7400
 3998              	.LASF54:
 3999 0372 725F7072 		.ascii	"r_prio\000"
 3999      696F00
 4000              	.LASF67:
 4001 0379 65776D61 		.ascii	"ewmask\000"
 4001      736B00
 4002              	.LASF28:
 4003 0380 705F6E65 		.ascii	"p_next\000"
 4003      787400
 4004              	.LASF83:
 4005 0387 696E6679 		.ascii	"infy\000"
 4005      00
 4006              	.LASF36:
 4007 038c 705F666C 		.ascii	"p_flags\000"
 4007      61677300 
 4008              	.LASF27:
 4009 0394 54687265 		.ascii	"Thread\000"
 4009      616400
ARM GAS  /var/folders/6q/x_mk5n_j3p7_c40r_2k_78980000gn/T//ccLnxSft.s 			page 74


 4010              	.LASF43:
 4011 039b 705F6570 		.ascii	"p_epending\000"
 4011      656E6469 
 4011      6E6700
 4012              	.LASF16:
 4013 03a6 75696E74 		.ascii	"uint32_t\000"
 4013      33325F74 
 4013      00
 4014              	.LASF53:
 4015 03af 725F7175 		.ascii	"r_queue\000"
 4015      65756500 
 4016              	.LASF97:
 4017 03b7 63685363 		.ascii	"chSchReadyI\000"
 4017      68526561 
 4017      64794900 
 4018              	.LASF68:
 4019 03c3 63686172 		.ascii	"char\000"
 4019      00
 4020              	.LASF100:
 4021 03c8 2F557365 		.ascii	"/Users/Luca/src/vexilla/src/teamA\000"
 4021      72732F4C 
 4021      7563612F 
 4021      7372632F 
 4021      76657869 
 4022              	.LASF63:
 4023 03ea 6D5F6E65 		.ascii	"m_next\000"
 4023      787400
 4024              	.LASF26:
 4025 03f1 73797374 		.ascii	"systime_t\000"
 4025      696D655F 
 4025      7400
 4026              	.LASF45:
 4027 03fb 705F7265 		.ascii	"p_realprio\000"
 4027      616C7072 
 4027      696F00
 4028              	.LASF9:
 4029 0406 5F5F696E 		.ascii	"__int32_t\000"
 4029      7433325F 
 4029      7400
 4030              	.LASF92:
 4031 0410 63684F51 		.ascii	"chOQResetI\000"
 4031      52657365 
 4031      744900
 4032              	.LASF39:
 4033 041b 705F7469 		.ascii	"p_time\000"
 4033      6D6500
 4034              	.LASF50:
 4035 0422 696E7463 		.ascii	"intctx\000"
 4035      747800
 4036              	.LASF41:
 4037 0429 705F6D73 		.ascii	"p_msgqueue\000"
 4037      67717565 
 4037      756500
 4038              	.LASF99:
 4039 0434 2E2E2F43 		.ascii	"../ChibiOS/os/kernel/src/chqueues.c\000"
 4039      68696269 
 4039      4F532F6F 
ARM GAS  /var/folders/6q/x_mk5n_j3p7_c40r_2k_78980000gn/T//ccLnxSft.s 			page 75


 4039      732F6B65 
 4039      726E656C 
 4040              	.LASF73:
 4041 0458 715F746F 		.ascii	"q_top\000"
 4041      7000
 4042              	.LASF37:
 4043 045e 705F7265 		.ascii	"p_refs\000"
 4043      667300
 4044              	.LASF59:
 4045 0465 52656164 		.ascii	"ReadyList\000"
 4045      794C6973 
 4045      7400
 4046              	.LASF76:
 4047 046f 715F6E6F 		.ascii	"q_notify\000"
 4047      74696679 
 4047      00
 4048              	.LASF104:
 4049 0478 726C6973 		.ascii	"rlist\000"
 4049      7400
 4050              	.LASF14:
 4051 047e 75696E74 		.ascii	"uint8_t\000"
 4051      385F7400 
 4052              	.LASF66:
 4053 0486 77746F62 		.ascii	"wtobjp\000"
 4053      6A7000
 4054              	.LASF34:
 4055 048d 705F6E61 		.ascii	"p_name\000"
 4055      6D6500
 4056              	.LASF96:
 4057 0494 63685363 		.ascii	"chSchGoSleepTimeoutS\000"
 4057      68476F53 
 4057      6C656570 
 4057      54696D65 
 4057      6F757453 
 4058              	.LASF77:
 4059 04a9 715F6C69 		.ascii	"q_link\000"
 4059      6E6B00
 4060              	.LASF62:
 4061 04b0 6D5F6F77 		.ascii	"m_owner\000"
 4061      6E657200 
 4062              	.LASF31:
 4063 04b8 705F6374 		.ascii	"p_ctx\000"
 4063      7800
 4064              	.LASF40:
 4065 04be 705F7761 		.ascii	"p_waiting\000"
 4065      6974696E 
 4065      6700
 4066              	.LASF88:
 4067 04c8 63684951 		.ascii	"chIQGetTimeout\000"
 4067      47657454 
 4067      696D656F 
 4067      757400
 4068              	.LASF102:
 4069 04d7 6669666F 		.ascii	"fifo_remove\000"
 4069      5F72656D 
 4069      6F766500 
 4070              		.ident	"GCC: (GNU Tools for ARM Embedded Processors) 5.4.1 20160919 (release) [ARM/embedded-5-bran
ARM GAS  /var/folders/6q/x_mk5n_j3p7_c40r_2k_78980000gn/T//ccLnxSft.s 			page 76


ARM GAS  /var/folders/6q/x_mk5n_j3p7_c40r_2k_78980000gn/T//ccLnxSft.s 			page 77


DEFINED SYMBOLS
                            *ABS*:0000000000000000 chqueues.c
/var/folders/6q/x_mk5n_j3p7_c40r_2k_78980000gn/T//ccLnxSft.s:20     .text.qwait:0000000000000000 $t
/var/folders/6q/x_mk5n_j3p7_c40r_2k_78980000gn/T//ccLnxSft.s:25     .text.qwait:0000000000000000 qwait
/var/folders/6q/x_mk5n_j3p7_c40r_2k_78980000gn/T//ccLnxSft.s:78     .text.qwait:0000000000000024 $d
/var/folders/6q/x_mk5n_j3p7_c40r_2k_78980000gn/T//ccLnxSft.s:83     .text.chIQInit:0000000000000000 $t
/var/folders/6q/x_mk5n_j3p7_c40r_2k_78980000gn/T//ccLnxSft.s:89     .text.chIQInit:0000000000000000 chIQInit
/var/folders/6q/x_mk5n_j3p7_c40r_2k_78980000gn/T//ccLnxSft.s:134    .text.chIQResetI:0000000000000000 $t
/var/folders/6q/x_mk5n_j3p7_c40r_2k_78980000gn/T//ccLnxSft.s:140    .text.chIQResetI:0000000000000000 chIQResetI
/var/folders/6q/x_mk5n_j3p7_c40r_2k_78980000gn/T//ccLnxSft.s:198    .text.chIQPutI:0000000000000000 $t
/var/folders/6q/x_mk5n_j3p7_c40r_2k_78980000gn/T//ccLnxSft.s:204    .text.chIQPutI:0000000000000000 chIQPutI
/var/folders/6q/x_mk5n_j3p7_c40r_2k_78980000gn/T//ccLnxSft.s:301    .text.chIQGetTimeout:0000000000000000 $t
/var/folders/6q/x_mk5n_j3p7_c40r_2k_78980000gn/T//ccLnxSft.s:307    .text.chIQGetTimeout:0000000000000000 chIQGetTimeout
/var/folders/6q/x_mk5n_j3p7_c40r_2k_78980000gn/T//ccLnxSft.s:414    .text.chIQReadTimeout:0000000000000000 $t
/var/folders/6q/x_mk5n_j3p7_c40r_2k_78980000gn/T//ccLnxSft.s:420    .text.chIQReadTimeout:0000000000000000 chIQReadTimeout
/var/folders/6q/x_mk5n_j3p7_c40r_2k_78980000gn/T//ccLnxSft.s:550    .text.chOQInit:0000000000000000 $t
/var/folders/6q/x_mk5n_j3p7_c40r_2k_78980000gn/T//ccLnxSft.s:556    .text.chOQInit:0000000000000000 chOQInit
/var/folders/6q/x_mk5n_j3p7_c40r_2k_78980000gn/T//ccLnxSft.s:597    .text.chOQResetI:0000000000000000 $t
/var/folders/6q/x_mk5n_j3p7_c40r_2k_78980000gn/T//ccLnxSft.s:603    .text.chOQResetI:0000000000000000 chOQResetI
/var/folders/6q/x_mk5n_j3p7_c40r_2k_78980000gn/T//ccLnxSft.s:663    .text.chOQPutTimeout:0000000000000000 $t
/var/folders/6q/x_mk5n_j3p7_c40r_2k_78980000gn/T//ccLnxSft.s:669    .text.chOQPutTimeout:0000000000000000 chOQPutTimeout
/var/folders/6q/x_mk5n_j3p7_c40r_2k_78980000gn/T//ccLnxSft.s:778    .text.chOQGetI:0000000000000000 $t
/var/folders/6q/x_mk5n_j3p7_c40r_2k_78980000gn/T//ccLnxSft.s:784    .text.chOQGetI:0000000000000000 chOQGetI
/var/folders/6q/x_mk5n_j3p7_c40r_2k_78980000gn/T//ccLnxSft.s:872    .text.chOQWriteTimeout:0000000000000000 $t
/var/folders/6q/x_mk5n_j3p7_c40r_2k_78980000gn/T//ccLnxSft.s:878    .text.chOQWriteTimeout:0000000000000000 chOQWriteTimeout
                     .debug_frame:0000000000000010 $d

UNDEFINED SYMBOLS
chSchGoSleepTimeoutS
rlist
chSchReadyI
