ARM GAS  /var/folders/6q/x_mk5n_j3p7_c40r_2k_78980000gn/T//ccLnxSft.s 			page 1


   1              		.syntax unified
   2              		.cpu cortex-m3
   3              		.fpu softvfp
   4              		.eabi_attribute 20, 1
   5              		.eabi_attribute 21, 1
   6              		.eabi_attribute 23, 3
   7              		.eabi_attribute 24, 1
   8              		.eabi_attribute 25, 1
   9              		.eabi_attribute 26, 1
  10              		.eabi_attribute 30, 2
  11              		.eabi_attribute 34, 1
  12              		.eabi_attribute 18, 4
  13              		.thumb
  14              		.syntax unified
  15              		.file	"chqueues.c"
  16              		.text
  17              	.Ltext0:
  18              		.cfi_sections	.debug_frame
  19              		.section	.text.qwait,"ax",%progbits
  20              		.align	2
  21              		.p2align 4,,15
  22              		.thumb
  23              		.thumb_func
  24              		.type	qwait, %function
  25              	qwait:
  26              	.LFB7:
  27              		.file 1 "../ChibiOS/os/kernel/src/chqueues.c"
  28              		.loc 1 70 0
  29              		.cfi_startproc
  30              		@ args = 0, pretend = 0, frame = 0
  31              		@ frame_needed = 0, uses_anonymous_args = 0
  32              		@ link register save eliminated.
  33              	.LVL0:
  34              		.loc 1 72 0
  35 0000 69B1     		cbz	r1, .L2
  36 0002 0246     		mov	r2, r0
  37              		.loc 1 74 0
  38 0004 074B     		ldr	r3, .L5
  39              		.loc 1 70 0
  40 0006 10B4     		push	{r4}
  41              		.cfi_def_cfa_offset 4
  42              		.cfi_offset 4, -4
  43              		.loc 1 74 0
  44 0008 9B69     		ldr	r3, [r3, #24]
  45              		.loc 1 76 0
  46 000a 0D20     		movs	r0, #13
  47              	.LVL1:
  48              		.loc 1 74 0
  49 000c 5A62     		str	r2, [r3, #36]
  50              	.LVL2:
  51              	.LBB12:
  52              	.LBB13:
  53              		.file 2 "../ChibiOS/os/kernel/include/chinline.h"
  54              		.loc 2 55 0
  55 000e 5468     		ldr	r4, [r2, #4]
  56 0010 83E81400 		stmia	r3, {r2, r4}
  57              		.loc 2 56 0
ARM GAS  /var/folders/6q/x_mk5n_j3p7_c40r_2k_78980000gn/T//ccLnxSft.s 			page 2


  58 0014 5360     		str	r3, [r2, #4]
  59 0016 2360     		str	r3, [r4]
  60              	.LVL3:
  61              	.LBE13:
  62              	.LBE12:
  63              		.loc 1 77 0
  64 0018 10BC     		pop	{r4}
  65              		.cfi_restore 4
  66              		.cfi_def_cfa_offset 0
  67              		.loc 1 76 0
  68 001a FFF7FEBF 		b	chSchGoSleepTimeoutS
  69              	.LVL4:
  70              	.L2:
  71              		.loc 1 77 0
  72 001e 4FF0FF30 		mov	r0, #-1
  73              	.LVL5:
  74 0022 7047     		bx	lr
  75              	.L6:
  76              		.align	2
  77              	.L5:
  78 0024 00000000 		.word	rlist
  79              		.cfi_endproc
  80              	.LFE7:
  81              		.size	qwait, .-qwait
  82              		.section	.text.chIQInit,"ax",%progbits
  83              		.align	2
  84              		.p2align 4,,15
  85              		.global	chIQInit
  86              		.thumb
  87              		.thumb_func
  88              		.type	chIQInit, %function
  89              	chIQInit:
  90              	.LFB8:
  91              		.loc 1 96 0
  92              		.cfi_startproc
  93              		@ args = 4, pretend = 0, frame = 0
  94              		@ frame_needed = 0, uses_anonymous_args = 0
  95              		@ link register save eliminated.
  96              	.LVL6:
  97 0000 30B4     		push	{r4, r5}
  98              		.cfi_def_cfa_offset 8
  99              		.cfi_offset 4, -8
 100              		.cfi_offset 5, -4
 101              		.loc 1 96 0
 102 0002 029C     		ldr	r4, [sp, #8]
 103              		.loc 1 99 0
 104 0004 0025     		movs	r5, #0
 105              		.loc 1 101 0
 106 0006 0A44     		add	r2, r2, r1
 107              	.LVL7:
 108              		.loc 1 99 0
 109 0008 8560     		str	r5, [r0, #8]
 110              		.loc 1 103 0
 111 000a 0462     		str	r4, [r0, #32]
 112              		.loc 1 101 0
 113 000c 0261     		str	r2, [r0, #16]
 114              		.loc 1 98 0
ARM GAS  /var/folders/6q/x_mk5n_j3p7_c40r_2k_78980000gn/T//ccLnxSft.s 			page 3


 115 000e 4060     		str	r0, [r0, #4]
 116 0010 0060     		str	r0, [r0]
 117              		.loc 1 100 0
 118 0012 4161     		str	r1, [r0, #20]
 119 0014 8161     		str	r1, [r0, #24]
 120 0016 C160     		str	r1, [r0, #12]
 121              		.loc 1 102 0
 122 0018 C361     		str	r3, [r0, #28]
 123              		.loc 1 104 0
 124 001a 30BC     		pop	{r4, r5}
 125              		.cfi_restore 5
 126              		.cfi_restore 4
 127              		.cfi_def_cfa_offset 0
 128              	.LVL8:
 129 001c 7047     		bx	lr
 130              		.cfi_endproc
 131              	.LFE8:
 132              		.size	chIQInit, .-chIQInit
 133 001e 00BF     		.section	.text.chIQResetI,"ax",%progbits
 134              		.align	2
 135              		.p2align 4,,15
 136              		.global	chIQResetI
 137              		.thumb
 138              		.thumb_func
 139              		.type	chIQResetI, %function
 140              	chIQResetI:
 141              	.LFB9:
 142              		.loc 1 117 0
 143              		.cfi_startproc
 144              		@ args = 0, pretend = 0, frame = 0
 145              		@ frame_needed = 0, uses_anonymous_args = 0
 146              	.LVL9:
 147 0000 38B5     		push	{r3, r4, r5, lr}
 148              		.cfi_def_cfa_offset 16
 149              		.cfi_offset 3, -16
 150              		.cfi_offset 4, -12
 151              		.cfi_offset 5, -8
 152              		.cfi_offset 14, -4
 153              		.loc 1 117 0
 154 0002 0446     		mov	r4, r0
 155              		.loc 1 121 0
 156 0004 C368     		ldr	r3, [r0, #12]
 157              		.loc 1 123 0
 158 0006 0068     		ldr	r0, [r0]
 159              	.LVL10:
 160              		.loc 1 122 0
 161 0008 0022     		movs	r2, #0
 162              		.loc 1 123 0
 163 000a 8442     		cmp	r4, r0
 164              		.loc 1 122 0
 165 000c A260     		str	r2, [r4, #8]
 166              		.loc 1 121 0
 167 000e 6361     		str	r3, [r4, #20]
 168 0010 A361     		str	r3, [r4, #24]
 169              		.loc 1 123 0
 170 0012 0AD0     		beq	.L9
 171              		.loc 1 124 0
ARM GAS  /var/folders/6q/x_mk5n_j3p7_c40r_2k_78980000gn/T//ccLnxSft.s 			page 4


 172 0014 6FF00105 		mvn	r5, #1
 173              	.L11:
 174              	.LVL11:
 175              	.LBB14:
 176              	.LBB15:
 177              		.loc 2 62 0
 178 0018 0368     		ldr	r3, [r0]
 179 001a 2360     		str	r3, [r4]
 180 001c 5C60     		str	r4, [r3, #4]
 181              	.LVL12:
 182              	.LBE15:
 183              	.LBE14:
 184              		.loc 1 124 0
 185 001e FFF7FEFF 		bl	chSchReadyI
 186              	.LVL13:
 187 0022 4562     		str	r5, [r0, #36]
 188              		.loc 1 123 0
 189 0024 2068     		ldr	r0, [r4]
 190 0026 A042     		cmp	r0, r4
 191 0028 F6D1     		bne	.L11
 192              	.L9:
 193 002a 38BD     		pop	{r3, r4, r5, pc}
 194              		.cfi_endproc
 195              	.LFE9:
 196              		.size	chIQResetI, .-chIQResetI
 197              		.section	.text.chIQPutI,"ax",%progbits
 198              		.align	2
 199              		.p2align 4,,15
 200              		.global	chIQPutI
 201              		.thumb
 202              		.thumb_func
 203              		.type	chIQPutI, %function
 204              	chIQPutI:
 205              	.LFB10:
 206              		.loc 1 140 0
 207              		.cfi_startproc
 208              		@ args = 0, pretend = 0, frame = 0
 209              		@ frame_needed = 0, uses_anonymous_args = 0
 210              	.LVL14:
 211              		.loc 1 144 0
 212 0000 8369     		ldr	r3, [r0, #24]
 213 0002 4269     		ldr	r2, [r0, #20]
 214              		.loc 1 140 0
 215 0004 10B5     		push	{r4, lr}
 216              		.cfi_def_cfa_offset 8
 217              		.cfi_offset 4, -8
 218              		.cfi_offset 14, -4
 219              		.loc 1 144 0
 220 0006 9A42     		cmp	r2, r3
 221 0008 8368     		ldr	r3, [r0, #8]
 222 000a 1DD0     		beq	.L25
 223              	.L18:
 224              		.loc 1 147 0
 225 000c 0133     		adds	r3, r3, #1
 226              		.loc 1 148 0
 227 000e 541C     		adds	r4, r2, #1
 228              		.loc 1 147 0
ARM GAS  /var/folders/6q/x_mk5n_j3p7_c40r_2k_78980000gn/T//ccLnxSft.s 			page 5


 229 0010 8360     		str	r3, [r0, #8]
 230              		.loc 1 148 0
 231 0012 4461     		str	r4, [r0, #20]
 232 0014 1170     		strb	r1, [r2]
 233              		.loc 1 149 0
 234 0016 4269     		ldr	r2, [r0, #20]
 235 0018 0369     		ldr	r3, [r0, #16]
 236 001a 9A42     		cmp	r2, r3
 237 001c 0DD2     		bcs	.L19
 238              		.loc 1 152 0
 239 001e 0268     		ldr	r2, [r0]
 240 0020 8242     		cmp	r2, r0
 241 0022 0FD0     		beq	.L22
 242              	.L26:
 243 0024 0346     		mov	r3, r0
 244              	.LVL15:
 245              	.LBB16:
 246              	.LBB17:
 247              		.loc 2 62 0
 248 0026 1168     		ldr	r1, [r2]
 249              	.LVL16:
 250              	.LBE17:
 251              	.LBE16:
 252              		.loc 1 153 0
 253 0028 1046     		mov	r0, r2
 254              	.LVL17:
 255              	.LBB19:
 256              	.LBB18:
 257              		.loc 2 62 0
 258 002a 1960     		str	r1, [r3]
 259 002c 4B60     		str	r3, [r1, #4]
 260              	.LVL18:
 261              	.LBE18:
 262              	.LBE19:
 263              		.loc 1 153 0
 264 002e FFF7FEFF 		bl	chSchReadyI
 265              	.LVL19:
 266 0032 0023     		movs	r3, #0
 267 0034 4362     		str	r3, [r0, #36]
 268              		.loc 1 155 0
 269 0036 1846     		mov	r0, r3
 270 0038 10BD     		pop	{r4, pc}
 271              	.LVL20:
 272              	.L19:
 273              		.loc 1 152 0
 274 003a 0268     		ldr	r2, [r0]
 275              		.loc 1 150 0
 276 003c C368     		ldr	r3, [r0, #12]
 277              		.loc 1 152 0
 278 003e 8242     		cmp	r2, r0
 279              		.loc 1 150 0
 280 0040 4361     		str	r3, [r0, #20]
 281              		.loc 1 152 0
 282 0042 EFD1     		bne	.L26
 283              	.L22:
 284              		.loc 1 155 0
 285 0044 0020     		movs	r0, #0
ARM GAS  /var/folders/6q/x_mk5n_j3p7_c40r_2k_78980000gn/T//ccLnxSft.s 			page 6


 286              	.LVL21:
 287 0046 10BD     		pop	{r4, pc}
 288              	.LVL22:
 289              	.L25:
 290              		.loc 1 144 0 discriminator 1
 291 0048 002B     		cmp	r3, #0
 292 004a DFD0     		beq	.L18
 293              		.loc 1 145 0
 294 004c 6FF00300 		mvn	r0, #3
 295              	.LVL23:
 296 0050 10BD     		pop	{r4, pc}
 297              		.cfi_endproc
 298              	.LFE10:
 299              		.size	chIQPutI, .-chIQPutI
 300 0052 00BF     		.section	.text.chIQGetTimeout,"ax",%progbits
 301              		.align	2
 302              		.p2align 4,,15
 303              		.global	chIQGetTimeout
 304              		.thumb
 305              		.thumb_func
 306              		.type	chIQGetTimeout, %function
 307              	chIQGetTimeout:
 308              	.LFB11:
 309              		.loc 1 178 0
 310              		.cfi_startproc
 311              		@ args = 0, pretend = 0, frame = 0
 312              		@ frame_needed = 0, uses_anonymous_args = 0
 313              	.LVL24:
 314 0000 70B5     		push	{r4, r5, r6, lr}
 315              		.cfi_def_cfa_offset 16
 316              		.cfi_offset 4, -16
 317              		.cfi_offset 5, -12
 318              		.cfi_offset 6, -8
 319              		.cfi_offset 14, -4
 320              	.LBB20:
 321              		.loc 1 181 0
 322 0002 2023     		movs	r3, #32
 323              	.LBE20:
 324              		.loc 1 178 0
 325 0004 0E46     		mov	r6, r1
 326 0006 0446     		mov	r4, r0
 327              	.LBB21:
 328              		.loc 1 181 0
 329              		.syntax unified
 330              	@ 181 "../ChibiOS/os/kernel/src/chqueues.c" 1
 331 0008 83F31188 		msr     BASEPRI, r3
 332              	@ 0 "" 2
 333              		.thumb
 334              		.syntax unified
 335              	.LBE21:
 336              		.loc 1 182 0
 337 000c C369     		ldr	r3, [r0, #28]
 338 000e 3BB1     		cbz	r3, .L29
 339              		.loc 1 183 0
 340 0010 9847     		blx	r3
 341              	.LVL25:
 342 0012 05E0     		b	.L29
ARM GAS  /var/folders/6q/x_mk5n_j3p7_c40r_2k_78980000gn/T//ccLnxSft.s 			page 7


 343              	.L31:
 344              	.LBB22:
 345              		.loc 1 187 0
 346 0014 3146     		mov	r1, r6
 347 0016 2046     		mov	r0, r4
 348 0018 FFF7FEFF 		bl	qwait
 349              	.LVL26:
 350 001c 0028     		cmp	r0, #0
 351 001e 13DB     		blt	.L38
 352              	.LVL27:
 353              	.L29:
 354              	.LBE22:
 355              		.loc 1 185 0
 356 0020 A568     		ldr	r5, [r4, #8]
 357 0022 002D     		cmp	r5, #0
 358 0024 F6D0     		beq	.L31
 359              		.loc 1 194 0
 360 0026 A269     		ldr	r2, [r4, #24]
 361              		.loc 1 195 0
 362 0028 2169     		ldr	r1, [r4, #16]
 363              		.loc 1 194 0
 364 002a 531C     		adds	r3, r2, #1
 365              		.loc 1 195 0
 366 002c 8B42     		cmp	r3, r1
 367              		.loc 1 194 0
 368 002e A361     		str	r3, [r4, #24]
 369              		.loc 1 193 0
 370 0030 05F1FF35 		add	r5, r5, #-1
 371              		.loc 1 196 0
 372 0034 28BF     		it	cs
 373 0036 E368     		ldrcs	r3, [r4, #12]
 374              		.loc 1 193 0
 375 0038 A560     		str	r5, [r4, #8]
 376              		.loc 1 194 0
 377 003a 1078     		ldrb	r0, [r2]	@ zero_extendqisi2
 378              	.LVL28:
 379              		.loc 1 196 0
 380 003c 28BF     		it	cs
 381 003e A361     		strcs	r3, [r4, #24]
 382              	.LBB24:
 383              		.loc 1 198 0
 384 0040 0023     		movs	r3, #0
 385              		.syntax unified
 386              	@ 198 "../ChibiOS/os/kernel/src/chqueues.c" 1
 387 0042 83F31188 		msr     BASEPRI, r3
 388              	@ 0 "" 2
 389              		.thumb
 390              		.syntax unified
 391              	.LBE24:
 392              		.loc 1 200 0
 393 0046 70BD     		pop	{r4, r5, r6, pc}
 394              	.LVL29:
 395              	.L38:
 396              	.LBB25:
 397              	.LBB23:
 398              		.loc 1 188 0
 399 0048 2B46     		mov	r3, r5
ARM GAS  /var/folders/6q/x_mk5n_j3p7_c40r_2k_78980000gn/T//ccLnxSft.s 			page 8


 400              		.syntax unified
 401              	@ 188 "../ChibiOS/os/kernel/src/chqueues.c" 1
 402 004a 83F31188 		msr     BASEPRI, r3
 403              	@ 0 "" 2
 404              		.thumb
 405              		.syntax unified
 406              	.LBE23:
 407              		.loc 1 189 0
 408 004e 70BD     		pop	{r4, r5, r6, pc}
 409              	.LBE25:
 410              		.cfi_endproc
 411              	.LFE11:
 412              		.size	chIQGetTimeout, .-chIQGetTimeout
 413              		.section	.text.chIQReadTimeout,"ax",%progbits
 414              		.align	2
 415              		.p2align 4,,15
 416              		.global	chIQReadTimeout
 417              		.thumb
 418              		.thumb_func
 419              		.type	chIQReadTimeout, %function
 420              	chIQReadTimeout:
 421              	.LFB12:
 422              		.loc 1 227 0
 423              		.cfi_startproc
 424              		@ args = 0, pretend = 0, frame = 0
 425              		@ frame_needed = 0, uses_anonymous_args = 0
 426              	.LVL30:
 427 0000 2DE9F047 		push	{r4, r5, r6, r7, r8, r9, r10, lr}
 428              		.cfi_def_cfa_offset 32
 429              		.cfi_offset 4, -32
 430              		.cfi_offset 5, -28
 431              		.cfi_offset 6, -24
 432              		.cfi_offset 7, -20
 433              		.cfi_offset 8, -16
 434              		.cfi_offset 9, -12
 435              		.cfi_offset 10, -8
 436              		.cfi_offset 14, -4
 437              		.loc 1 227 0
 438 0004 1E46     		mov	r6, r3
 439 0006 0446     		mov	r4, r0
 440 0008 8946     		mov	r9, r1
 441 000a 9246     		mov	r10, r2
 442              		.loc 1 228 0
 443 000c D0F81C80 		ldr	r8, [r0, #28]
 444              	.LVL31:
 445              	.LBB26:
 446              		.loc 1 233 0
 447 0010 2023     		movs	r3, #32
 448              	.LVL32:
 449              		.syntax unified
 450              	@ 233 "../ChibiOS/os/kernel/src/chqueues.c" 1
 451 0012 83F31188 		msr     BASEPRI, r3
 452              	@ 0 "" 2
 453              		.thumb
 454              		.syntax unified
 455              	.LBE26:
 456              		.loc 1 229 0
ARM GAS  /var/folders/6q/x_mk5n_j3p7_c40r_2k_78980000gn/T//ccLnxSft.s 			page 9


 457 0016 0027     		movs	r7, #0
 458              	.LVL33:
 459              	.L45:
 460              		.loc 1 235 0
 461 0018 B8F1000F 		cmp	r8, #0
 462 001c 07D0     		beq	.L41
 463              		.loc 1 236 0
 464 001e 2046     		mov	r0, r4
 465 0020 C047     		blx	r8
 466              	.LVL34:
 467 0022 04E0     		b	.L41
 468              	.L43:
 469              		.loc 1 239 0
 470 0024 3146     		mov	r1, r6
 471 0026 2046     		mov	r0, r4
 472 0028 FFF7FEFF 		bl	qwait
 473              	.LVL35:
 474 002c D0B9     		cbnz	r0, .L52
 475              	.L41:
 476              		.loc 1 238 0
 477 002e A568     		ldr	r5, [r4, #8]
 478 0030 002D     		cmp	r5, #0
 479 0032 F7D0     		beq	.L43
 480              		.loc 1 246 0
 481 0034 A369     		ldr	r3, [r4, #24]
 482              		.loc 1 245 0
 483 0036 013D     		subs	r5, r5, #1
 484              		.loc 1 246 0
 485 0038 5A1C     		adds	r2, r3, #1
 486 003a A261     		str	r2, [r4, #24]
 487              		.loc 1 245 0
 488 003c A560     		str	r5, [r4, #8]
 489              		.loc 1 246 0
 490 003e 1B78     		ldrb	r3, [r3]	@ zero_extendqisi2
 491 0040 09F8013B 		strb	r3, [r9], #1
 492              	.LVL36:
 493              		.loc 1 247 0
 494 0044 2369     		ldr	r3, [r4, #16]
 495 0046 A269     		ldr	r2, [r4, #24]
 496 0048 9A42     		cmp	r2, r3
 497              		.loc 1 248 0
 498 004a 24BF     		itt	cs
 499 004c E368     		ldrcs	r3, [r4, #12]
 500 004e A361     		strcs	r3, [r4, #24]
 501              	.LBB27:
 502              		.loc 1 250 0
 503 0050 0023     		movs	r3, #0
 504              		.syntax unified
 505              	@ 250 "../ChibiOS/os/kernel/src/chqueues.c" 1
 506 0052 83F31188 		msr     BASEPRI, r3
 507              	@ 0 "" 2
 508              		.thumb
 509              		.syntax unified
 510              	.LBE27:
 511              		.loc 1 251 0
 512 0056 0137     		adds	r7, r7, #1
 513              	.LVL37:
ARM GAS  /var/folders/6q/x_mk5n_j3p7_c40r_2k_78980000gn/T//ccLnxSft.s 			page 10


 514              		.loc 1 252 0
 515 0058 BA45     		cmp	r10, r7
 516 005a 06D0     		beq	.L42
 517              	.LBB28:
 518              		.loc 1 255 0
 519 005c 2023     		movs	r3, #32
 520              		.syntax unified
 521              	@ 255 "../ChibiOS/os/kernel/src/chqueues.c" 1
 522 005e 83F31188 		msr     BASEPRI, r3
 523              	@ 0 "" 2
 524              		.thumb
 525              		.syntax unified
 526              	.LBE28:
 527              		.loc 1 256 0
 528 0062 D9E7     		b	.L45
 529              	.LVL38:
 530              	.L52:
 531              	.LBB29:
 532              		.loc 1 240 0
 533 0064 2B46     		mov	r3, r5
 534              		.syntax unified
 535              	@ 240 "../ChibiOS/os/kernel/src/chqueues.c" 1
 536 0066 83F31188 		msr     BASEPRI, r3
 537              	@ 0 "" 2
 538              	.LVL39:
 539              		.thumb
 540              		.syntax unified
 541              	.L42:
 542              	.LBE29:
 543              		.loc 1 257 0
 544 006a 3846     		mov	r0, r7
 545 006c BDE8F087 		pop	{r4, r5, r6, r7, r8, r9, r10, pc}
 546              		.cfi_endproc
 547              	.LFE12:
 548              		.size	chIQReadTimeout, .-chIQReadTimeout
 549              		.section	.text.chOQInit,"ax",%progbits
 550              		.align	2
 551              		.p2align 4,,15
 552              		.global	chOQInit
 553              		.thumb
 554              		.thumb_func
 555              		.type	chOQInit, %function
 556              	chOQInit:
 557              	.LFB13:
 558              		.loc 1 276 0
 559              		.cfi_startproc
 560              		@ args = 4, pretend = 0, frame = 0
 561              		@ frame_needed = 0, uses_anonymous_args = 0
 562              		@ link register save eliminated.
 563              	.LVL40:
 564 0000 30B4     		push	{r4, r5}
 565              		.cfi_def_cfa_offset 8
 566              		.cfi_offset 4, -8
 567              		.cfi_offset 5, -4
 568              		.loc 1 276 0
 569 0002 029C     		ldr	r4, [sp, #8]
 570              		.loc 1 281 0
ARM GAS  /var/folders/6q/x_mk5n_j3p7_c40r_2k_78980000gn/T//ccLnxSft.s 			page 11


 571 0004 8D18     		adds	r5, r1, r2
 572 0006 0561     		str	r5, [r0, #16]
 573              		.loc 1 283 0
 574 0008 0462     		str	r4, [r0, #32]
 575              		.loc 1 278 0
 576 000a 4060     		str	r0, [r0, #4]
 577 000c 0060     		str	r0, [r0]
 578              		.loc 1 279 0
 579 000e 8260     		str	r2, [r0, #8]
 580              		.loc 1 280 0
 581 0010 4161     		str	r1, [r0, #20]
 582 0012 8161     		str	r1, [r0, #24]
 583 0014 C160     		str	r1, [r0, #12]
 584              		.loc 1 282 0
 585 0016 C361     		str	r3, [r0, #28]
 586              		.loc 1 284 0
 587 0018 30BC     		pop	{r4, r5}
 588              		.cfi_restore 5
 589              		.cfi_restore 4
 590              		.cfi_def_cfa_offset 0
 591              	.LVL41:
 592 001a 7047     		bx	lr
 593              		.cfi_endproc
 594              	.LFE13:
 595              		.size	chOQInit, .-chOQInit
 596              		.section	.text.chOQResetI,"ax",%progbits
 597              		.align	2
 598              		.p2align 4,,15
 599              		.global	chOQResetI
 600              		.thumb
 601              		.thumb_func
 602              		.type	chOQResetI, %function
 603              	chOQResetI:
 604              	.LFB14:
 605              		.loc 1 297 0
 606              		.cfi_startproc
 607              		@ args = 0, pretend = 0, frame = 0
 608              		@ frame_needed = 0, uses_anonymous_args = 0
 609              	.LVL42:
 610 0000 38B5     		push	{r3, r4, r5, lr}
 611              		.cfi_def_cfa_offset 16
 612              		.cfi_offset 3, -16
 613              		.cfi_offset 4, -12
 614              		.cfi_offset 5, -8
 615              		.cfi_offset 14, -4
 616              		.loc 1 297 0
 617 0002 0446     		mov	r4, r0
 618              		.loc 1 301 0
 619 0004 C268     		ldr	r2, [r0, #12]
 620              		.loc 1 302 0
 621 0006 0369     		ldr	r3, [r0, #16]
 622              		.loc 1 303 0
 623 0008 0068     		ldr	r0, [r0]
 624              	.LVL43:
 625              		.loc 1 302 0
 626 000a 9B1A     		subs	r3, r3, r2
 627              		.loc 1 303 0
ARM GAS  /var/folders/6q/x_mk5n_j3p7_c40r_2k_78980000gn/T//ccLnxSft.s 			page 12


 628 000c 8442     		cmp	r4, r0
 629              		.loc 1 301 0
 630 000e 6261     		str	r2, [r4, #20]
 631 0010 A261     		str	r2, [r4, #24]
 632              		.loc 1 302 0
 633 0012 A360     		str	r3, [r4, #8]
 634              		.loc 1 303 0
 635 0014 0AD0     		beq	.L55
 636              		.loc 1 304 0
 637 0016 6FF00105 		mvn	r5, #1
 638              	.L57:
 639              	.LVL44:
 640              	.LBB30:
 641              	.LBB31:
 642              		.loc 2 62 0
 643 001a 0368     		ldr	r3, [r0]
 644 001c 2360     		str	r3, [r4]
 645 001e 5C60     		str	r4, [r3, #4]
 646              	.LVL45:
 647              	.LBE31:
 648              	.LBE30:
 649              		.loc 1 304 0
 650 0020 FFF7FEFF 		bl	chSchReadyI
 651              	.LVL46:
 652 0024 4562     		str	r5, [r0, #36]
 653              		.loc 1 303 0
 654 0026 2068     		ldr	r0, [r4]
 655 0028 A042     		cmp	r0, r4
 656 002a F6D1     		bne	.L57
 657              	.L55:
 658 002c 38BD     		pop	{r3, r4, r5, pc}
 659              		.cfi_endproc
 660              	.LFE14:
 661              		.size	chOQResetI, .-chOQResetI
 662 002e 00BF     		.section	.text.chOQPutTimeout,"ax",%progbits
 663              		.align	2
 664              		.p2align 4,,15
 665              		.global	chOQPutTimeout
 666              		.thumb
 667              		.thumb_func
 668              		.type	chOQPutTimeout, %function
 669              	chOQPutTimeout:
 670              	.LFB15:
 671              		.loc 1 329 0
 672              		.cfi_startproc
 673              		@ args = 0, pretend = 0, frame = 0
 674              		@ frame_needed = 0, uses_anonymous_args = 0
 675              	.LVL47:
 676 0000 F8B5     		push	{r3, r4, r5, r6, r7, lr}
 677              		.cfi_def_cfa_offset 24
 678              		.cfi_offset 3, -24
 679              		.cfi_offset 4, -20
 680              		.cfi_offset 5, -16
 681              		.cfi_offset 6, -12
 682              		.cfi_offset 7, -8
 683              		.cfi_offset 14, -4
 684              		.loc 1 329 0
ARM GAS  /var/folders/6q/x_mk5n_j3p7_c40r_2k_78980000gn/T//ccLnxSft.s 			page 13


 685 0002 0446     		mov	r4, r0
 686 0004 0F46     		mov	r7, r1
 687 0006 1646     		mov	r6, r2
 688              	.LBB32:
 689              		.loc 1 331 0
 690 0008 2023     		movs	r3, #32
 691              		.syntax unified
 692              	@ 331 "../ChibiOS/os/kernel/src/chqueues.c" 1
 693 000a 83F31188 		msr     BASEPRI, r3
 694              	@ 0 "" 2
 695              		.thumb
 696              		.syntax unified
 697              	.LBE32:
 698              		.loc 1 332 0
 699 000e 05E0     		b	.L62
 700              	.LVL48:
 701              	.L64:
 702              	.LBB33:
 703              		.loc 1 335 0
 704 0010 3146     		mov	r1, r6
 705 0012 2046     		mov	r0, r4
 706 0014 FFF7FEFF 		bl	qwait
 707              	.LVL49:
 708 0018 0028     		cmp	r0, #0
 709 001a 17DB     		blt	.L72
 710              	.LVL50:
 711              	.L62:
 712              	.LBE33:
 713              		.loc 1 332 0
 714 001c A568     		ldr	r5, [r4, #8]
 715 001e 002D     		cmp	r5, #0
 716 0020 F6D0     		beq	.L64
 717              		.loc 1 342 0
 718 0022 6369     		ldr	r3, [r4, #20]
 719              		.loc 1 341 0
 720 0024 013D     		subs	r5, r5, #1
 721              		.loc 1 342 0
 722 0026 5A1C     		adds	r2, r3, #1
 723 0028 6261     		str	r2, [r4, #20]
 724              		.loc 1 341 0
 725 002a A560     		str	r5, [r4, #8]
 726              		.loc 1 342 0
 727 002c 1F70     		strb	r7, [r3]
 728              		.loc 1 343 0
 729 002e 2369     		ldr	r3, [r4, #16]
 730 0030 6269     		ldr	r2, [r4, #20]
 731 0032 9A42     		cmp	r2, r3
 732              		.loc 1 344 0
 733 0034 24BF     		itt	cs
 734 0036 E368     		ldrcs	r3, [r4, #12]
 735 0038 6361     		strcs	r3, [r4, #20]
 736              		.loc 1 346 0
 737 003a E369     		ldr	r3, [r4, #28]
 738 003c 0BB1     		cbz	r3, .L66
 739              		.loc 1 347 0
 740 003e 2046     		mov	r0, r4
 741 0040 9847     		blx	r3
ARM GAS  /var/folders/6q/x_mk5n_j3p7_c40r_2k_78980000gn/T//ccLnxSft.s 			page 14


 742              	.LVL51:
 743              	.L66:
 744              	.LBB35:
 745              		.loc 1 349 0
 746 0042 0023     		movs	r3, #0
 747              		.syntax unified
 748              	@ 349 "../ChibiOS/os/kernel/src/chqueues.c" 1
 749 0044 83F31188 		msr     BASEPRI, r3
 750              	@ 0 "" 2
 751              		.thumb
 752              		.syntax unified
 753              	.LBE35:
 754              		.loc 1 350 0
 755 0048 1846     		mov	r0, r3
 756              		.loc 1 351 0
 757 004a F8BD     		pop	{r3, r4, r5, r6, r7, pc}
 758              	.LVL52:
 759              	.L72:
 760              	.LBB36:
 761              	.LBB34:
 762              		.loc 1 336 0
 763 004c 2B46     		mov	r3, r5
 764              		.syntax unified
 765              	@ 336 "../ChibiOS/os/kernel/src/chqueues.c" 1
 766 004e 83F31188 		msr     BASEPRI, r3
 767              	@ 0 "" 2
 768              		.thumb
 769              		.syntax unified
 770              	.LBE34:
 771              		.loc 1 337 0
 772 0052 F8BD     		pop	{r3, r4, r5, r6, r7, pc}
 773              	.LBE36:
 774              		.cfi_endproc
 775              	.LFE15:
 776              		.size	chOQPutTimeout, .-chOQPutTimeout
 777              		.section	.text.chOQGetI,"ax",%progbits
 778              		.align	2
 779              		.p2align 4,,15
 780              		.global	chOQGetI
 781              		.thumb
 782              		.thumb_func
 783              		.type	chOQGetI, %function
 784              	chOQGetI:
 785              	.LFB16:
 786              		.loc 1 363 0
 787              		.cfi_startproc
 788              		@ args = 0, pretend = 0, frame = 0
 789              		@ frame_needed = 0, uses_anonymous_args = 0
 790              	.LVL53:
 791 0000 38B5     		push	{r3, r4, r5, lr}
 792              		.cfi_def_cfa_offset 16
 793              		.cfi_offset 3, -16
 794              		.cfi_offset 4, -12
 795              		.cfi_offset 5, -8
 796              		.cfi_offset 14, -4
 797              		.loc 1 368 0
 798 0002 8269     		ldr	r2, [r0, #24]
ARM GAS  /var/folders/6q/x_mk5n_j3p7_c40r_2k_78980000gn/T//ccLnxSft.s 			page 15


 799 0004 4369     		ldr	r3, [r0, #20]
 800 0006 9342     		cmp	r3, r2
 801 0008 8368     		ldr	r3, [r0, #8]
 802 000a 18D0     		beq	.L83
 803              	.L76:
 804              		.loc 1 373 0
 805 000c 0569     		ldr	r5, [r0, #16]
 806              		.loc 1 372 0
 807 000e 511C     		adds	r1, r2, #1
 808              		.loc 1 371 0
 809 0010 0133     		adds	r3, r3, #1
 810 0012 8360     		str	r3, [r0, #8]
 811              		.loc 1 372 0
 812 0014 8161     		str	r1, [r0, #24]
 813              		.loc 1 373 0
 814 0016 A942     		cmp	r1, r5
 815              		.loc 1 372 0
 816 0018 1478     		ldrb	r4, [r2]	@ zero_extendqisi2
 817              	.LVL54:
 818              		.loc 1 373 0
 819 001a 0DD2     		bcs	.L78
 820              	.L79:
 821              		.loc 1 376 0
 822 001c 0268     		ldr	r2, [r0]
 823 001e 8242     		cmp	r2, r0
 824 0020 08D0     		beq	.L77
 825 0022 0346     		mov	r3, r0
 826              	.LVL55:
 827              	.LBB37:
 828              	.LBB38:
 829              		.loc 2 62 0
 830 0024 1168     		ldr	r1, [r2]
 831              	.LBE38:
 832              	.LBE37:
 833              		.loc 1 377 0
 834 0026 1046     		mov	r0, r2
 835              	.LVL56:
 836              	.LBB40:
 837              	.LBB39:
 838              		.loc 2 62 0
 839 0028 1960     		str	r1, [r3]
 840 002a 4B60     		str	r3, [r1, #4]
 841              	.LVL57:
 842              	.LBE39:
 843              	.LBE40:
 844              		.loc 1 377 0
 845 002c FFF7FEFF 		bl	chSchReadyI
 846              	.LVL58:
 847 0030 0023     		movs	r3, #0
 848 0032 4362     		str	r3, [r0, #36]
 849              	.L77:
 850              		.loc 1 379 0
 851 0034 2046     		mov	r0, r4
 852 0036 38BD     		pop	{r3, r4, r5, pc}
 853              	.LVL59:
 854              	.L78:
 855              		.loc 1 374 0
ARM GAS  /var/folders/6q/x_mk5n_j3p7_c40r_2k_78980000gn/T//ccLnxSft.s 			page 16


 856 0038 C368     		ldr	r3, [r0, #12]
 857 003a 8361     		str	r3, [r0, #24]
 858 003c EEE7     		b	.L79
 859              	.LVL60:
 860              	.L83:
 861              		.loc 1 368 0 discriminator 1
 862 003e 002B     		cmp	r3, #0
 863 0040 E4D0     		beq	.L76
 864              		.loc 1 369 0
 865 0042 6FF00200 		mvn	r0, #2
 866              	.LVL61:
 867 0046 38BD     		pop	{r3, r4, r5, pc}
 868              		.cfi_endproc
 869              	.LFE16:
 870              		.size	chOQGetI, .-chOQGetI
 871              		.section	.text.chOQWriteTimeout,"ax",%progbits
 872              		.align	2
 873              		.p2align 4,,15
 874              		.global	chOQWriteTimeout
 875              		.thumb
 876              		.thumb_func
 877              		.type	chOQWriteTimeout, %function
 878              	chOQWriteTimeout:
 879              	.LFB17:
 880              		.loc 1 407 0
 881              		.cfi_startproc
 882              		@ args = 0, pretend = 0, frame = 0
 883              		@ frame_needed = 0, uses_anonymous_args = 0
 884              	.LVL62:
 885 0000 2DE9F84F 		push	{r3, r4, r5, r6, r7, r8, r9, r10, fp, lr}
 886              		.cfi_def_cfa_offset 40
 887              		.cfi_offset 3, -40
 888              		.cfi_offset 4, -36
 889              		.cfi_offset 5, -32
 890              		.cfi_offset 6, -28
 891              		.cfi_offset 7, -24
 892              		.cfi_offset 8, -20
 893              		.cfi_offset 9, -16
 894              		.cfi_offset 10, -12
 895              		.cfi_offset 11, -8
 896              		.cfi_offset 14, -4
 897              		.loc 1 407 0
 898 0004 9A46     		mov	r10, r3
 899 0006 0446     		mov	r4, r0
 900 0008 0E46     		mov	r6, r1
 901 000a 1746     		mov	r7, r2
 902              		.loc 1 408 0
 903 000c D0F81C90 		ldr	r9, [r0, #28]
 904              	.LVL63:
 905              	.LBB41:
 906              		.loc 1 413 0
 907 0010 2023     		movs	r3, #32
 908              	.LVL64:
 909              		.syntax unified
 910              	@ 413 "../ChibiOS/os/kernel/src/chqueues.c" 1
 911 0012 83F31188 		msr     BASEPRI, r3
 912              	@ 0 "" 2
ARM GAS  /var/folders/6q/x_mk5n_j3p7_c40r_2k_78980000gn/T//ccLnxSft.s 			page 17


 913              		.thumb
 914              		.syntax unified
 915              	.LBE41:
 916              		.loc 1 409 0
 917 0016 4FF00008 		mov	r8, #0
 918              	.LVL65:
 919              	.L85:
 920              		.loc 1 415 0
 921 001a A568     		ldr	r5, [r4, #8]
 922              		.loc 1 422 0
 923 001c 06F1010B 		add	fp, r6, #1
 924              	.LVL66:
 925              		.loc 1 421 0
 926 0020 6A1E     		subs	r2, r5, #1
 927              		.loc 1 415 0
 928 0022 0DB3     		cbz	r5, .L88
 929              	.L101:
 930              		.loc 1 422 0
 931 0024 6369     		ldr	r3, [r4, #20]
 932              		.loc 1 421 0
 933 0026 A260     		str	r2, [r4, #8]
 934              		.loc 1 422 0
 935 0028 5A1C     		adds	r2, r3, #1
 936 002a 6261     		str	r2, [r4, #20]
 937 002c 3278     		ldrb	r2, [r6]	@ zero_extendqisi2
 938 002e 1A70     		strb	r2, [r3]
 939              		.loc 1 423 0
 940 0030 2369     		ldr	r3, [r4, #16]
 941 0032 6269     		ldr	r2, [r4, #20]
 942 0034 9A42     		cmp	r2, r3
 943              		.loc 1 424 0
 944 0036 24BF     		itt	cs
 945 0038 E368     		ldrcs	r3, [r4, #12]
 946 003a 6361     		strcs	r3, [r4, #20]
 947              		.loc 1 426 0
 948 003c B9F1000F 		cmp	r9, #0
 949 0040 01D0     		beq	.L90
 950              		.loc 1 427 0
 951 0042 2046     		mov	r0, r4
 952 0044 C847     		blx	r9
 953              	.LVL67:
 954              	.L90:
 955              	.LBB42:
 956              		.loc 1 429 0
 957 0046 0023     		movs	r3, #0
 958              		.syntax unified
 959              	@ 429 "../ChibiOS/os/kernel/src/chqueues.c" 1
 960 0048 83F31188 		msr     BASEPRI, r3
 961              	@ 0 "" 2
 962              		.thumb
 963              		.syntax unified
 964              	.LBE42:
 965              		.loc 1 431 0
 966 004c 013F     		subs	r7, r7, #1
 967              	.LVL68:
 968              		.loc 1 430 0
 969 004e 08F10108 		add	r8, r8, #1
ARM GAS  /var/folders/6q/x_mk5n_j3p7_c40r_2k_78980000gn/T//ccLnxSft.s 			page 18


 970              	.LVL69:
 971              		.loc 1 431 0
 972 0052 12D0     		beq	.L87
 973              	.LBB43:
 974              		.loc 1 433 0
 975 0054 2023     		movs	r3, #32
 976              		.syntax unified
 977              	@ 433 "../ChibiOS/os/kernel/src/chqueues.c" 1
 978 0056 83F31188 		msr     BASEPRI, r3
 979              	@ 0 "" 2
 980              		.thumb
 981              		.syntax unified
 982              	.LBE43:
 983              		.loc 1 422 0
 984 005a 5E46     		mov	r6, fp
 985              	.LVL70:
 986              		.loc 1 415 0
 987 005c A568     		ldr	r5, [r4, #8]
 988              		.loc 1 422 0
 989 005e 06F1010B 		add	fp, r6, #1
 990              	.LVL71:
 991              		.loc 1 421 0
 992 0062 6A1E     		subs	r2, r5, #1
 993              		.loc 1 415 0
 994 0064 002D     		cmp	r5, #0
 995 0066 DDD1     		bne	.L101
 996              	.L88:
 997              		.loc 1 416 0
 998 0068 5146     		mov	r1, r10
 999 006a 2046     		mov	r0, r4
 1000 006c FFF7FEFF 		bl	qwait
 1001              	.LVL72:
 1002 0070 0028     		cmp	r0, #0
 1003 0072 D2D0     		beq	.L85
 1004              	.LBB44:
 1005              		.loc 1 417 0
 1006 0074 2B46     		mov	r3, r5
 1007              		.syntax unified
 1008              	@ 417 "../ChibiOS/os/kernel/src/chqueues.c" 1
 1009 0076 83F31188 		msr     BASEPRI, r3
 1010              	@ 0 "" 2
 1011              	.LVL73:
 1012              		.thumb
 1013              		.syntax unified
 1014              	.L87:
 1015              	.LBE44:
 1016              		.loc 1 435 0
 1017 007a 4046     		mov	r0, r8
 1018 007c BDE8F88F 		pop	{r3, r4, r5, r6, r7, r8, r9, r10, fp, pc}
 1019              		.cfi_endproc
 1020              	.LFE17:
 1021              		.size	chOQWriteTimeout, .-chOQWriteTimeout
 1022              		.text
 1023              	.Letext0:
 1024              		.file 3 "/Users/Luca/src/vexilla/src/gcc-arm-none-eabi-5_4-2016q3/lib/gcc/arm-none-eabi/5.4.1/incl
 1025              		.file 4 "/Users/Luca/src/vexilla/src/gcc-arm-none-eabi-5_4-2016q3/arm-none-eabi/include/machine/_d
 1026              		.file 5 "/Users/Luca/src/vexilla/src/gcc-arm-none-eabi-5_4-2016q3/arm-none-eabi/include/sys/_stdin
ARM GAS  /var/folders/6q/x_mk5n_j3p7_c40r_2k_78980000gn/T//ccLnxSft.s 			page 19


 1027              		.file 6 "../ChibiOS/os/ports/GCC/ARMCMx/chtypes.h"
 1028              		.file 7 "../ChibiOS/os/kernel/include/chlists.h"
 1029              		.file 8 "../ChibiOS/os/kernel/include/chthreads.h"
 1030              		.file 9 "../ChibiOS/os/ports/GCC/ARMCMx/chcore_v7m.h"
 1031              		.file 10 "../ChibiOS/os/kernel/include/chschd.h"
 1032              		.file 11 "../ChibiOS/os/kernel/include/chmtx.h"
 1033              		.file 12 "../ChibiOS/os/kernel/include/chqueues.h"