ARM GAS  /var/folders/6q/x_mk5n_j3p7_c40r_2k_78980000gn/T//ccdCZv55.s 			page 1


   1              		.syntax unified
   2              		.cpu cortex-m3
   3              		.fpu softvfp
   4              		.eabi_attribute 20, 1
   5              		.eabi_attribute 21, 1
   6              		.eabi_attribute 23, 3
   7              		.eabi_attribute 24, 1
   8              		.eabi_attribute 25, 1
   9              		.eabi_attribute 26, 1
  10              		.eabi_attribute 30, 2
  11              		.eabi_attribute 34, 1
  12              		.eabi_attribute 18, 4
  13              		.thumb
  14              		.syntax unified
  15              		.file	"chschd.c"
  16              		.text
  17              	.Ltext0:
  18              		.cfi_sections	.debug_frame
  19              		.section	.text.wakeup,"ax",%progbits
  20              		.align	2
  21              		.p2align 4,,15
  22              		.thumb
  23              		.thumb_func
  24              		.type	wakeup, %function
  25              	wakeup:
  26              	.LFB10:
  27              		.file 1 "../ChibiOS/os/kernel/src/chschd.c"
  28              		.loc 1 136 0
  29              		.cfi_startproc
  30              		@ args = 0, pretend = 0, frame = 0
  31              		@ frame_needed = 0, uses_anonymous_args = 0
  32              		@ link register save eliminated.
  33              	.LVL0:
  34 0000 10B4     		push	{r4}
  35              		.cfi_def_cfa_offset 4
  36              		.cfi_offset 4, -4
  37              	.LBB44:
  38              		.loc 1 139 0
  39 0002 2023     		movs	r3, #32
  40              		.syntax unified
  41              	@ 139 "../ChibiOS/os/kernel/src/chschd.c" 1
  42 0004 83F31188 		msr     BASEPRI, r3
  43              	@ 0 "" 2
  44              		.thumb
  45              		.syntax unified
  46              	.LBE44:
  47              		.loc 1 140 0
  48 0008 037F     		ldrb	r3, [r0, #28]	@ zero_extendqisi2
  49 000a 0D2B     		cmp	r3, #13
  50 000c 11D8     		bhi	.L2
  51 000e DFE803F0 		tbb	[pc, r3]
  52              	.L4:
  53 0012 25       		.byte	(.L3-.L4)/2
  54 0013 10       		.byte	(.L2-.L4)/2
  55 0014 10       		.byte	(.L2-.L4)/2
  56 0015 07       		.byte	(.L5-.L4)/2
  57 0016 10       		.byte	(.L2-.L4)/2
ARM GAS  /var/folders/6q/x_mk5n_j3p7_c40r_2k_78980000gn/T//ccdCZv55.s 			page 2


  58 0017 0B       		.byte	(.L6-.L4)/2
  59 0018 10       		.byte	(.L2-.L4)/2
  60 0019 10       		.byte	(.L2-.L4)/2
  61 001a 10       		.byte	(.L2-.L4)/2
  62 001b 10       		.byte	(.L2-.L4)/2
  63 001c 10       		.byte	(.L2-.L4)/2
  64 001d 10       		.byte	(.L2-.L4)/2
  65 001e 10       		.byte	(.L2-.L4)/2
  66 001f 0B       		.byte	(.L6-.L4)/2
  67              		.p2align 1
  68              	.L5:
  69              		.loc 1 150 0
  70 0020 426A     		ldr	r2, [r0, #36]
  71 0022 9368     		ldr	r3, [r2, #8]
  72 0024 0133     		adds	r3, r3, #1
  73 0026 9360     		str	r3, [r2, #8]
  74              	.L6:
  75              	.LVL1:
  76              	.LBB45:
  77              	.LBB46:
  78              		.file 2 "../ChibiOS/os/kernel/include/chinline.h"
  79              		.loc 2 75 0
  80 0028 90E80C00 		ldmia	r0, {r2, r3}
  81 002c 1A60     		str	r2, [r3]
  82              		.loc 2 76 0
  83 002e 0268     		ldr	r2, [r0]
  84 0030 5360     		str	r3, [r2, #4]
  85              	.LVL2:
  86              	.L2:
  87              	.LBE46:
  88              	.LBE45:
  89              		.loc 1 163 0
  90 0032 4FF0FF34 		mov	r4, #-1
  91              	.LBB47:
  92              	.LBB48:
  93              		.loc 1 92 0
  94 0036 0023     		movs	r3, #0
  95 0038 8168     		ldr	r1, [r0, #8]
  96              	.LBE48:
  97              	.LBE47:
  98              	.LBB50:
  99              	.LBB51:
 100              	.LBB52:
 101              	.LBB53:
 102              		.loc 1 93 0
 103 003a 0B4A     		ldr	r2, .L12
 104              	.LBE53:
 105              	.LBE52:
 106              	.LBE51:
 107              	.LBE50:
 108              		.loc 1 163 0
 109 003c 4462     		str	r4, [r0, #36]
 110              	.LVL3:
 111              	.LBB61:
 112              	.LBB49:
 113              		.loc 1 92 0
 114 003e 0377     		strb	r3, [r0, #28]
ARM GAS  /var/folders/6q/x_mk5n_j3p7_c40r_2k_78980000gn/T//ccdCZv55.s 			page 3


 115              	.LVL4:
 116              	.L8:
 117              	.LBE49:
 118              	.LBE61:
 119              	.LBB62:
 120              	.LBB60:
 121              	.LBB56:
 122              	.LBB54:
 123              		.loc 1 95 0
 124 0040 1268     		ldr	r2, [r2]
 125              	.LVL5:
 126              		.loc 1 96 0
 127 0042 9368     		ldr	r3, [r2, #8]
 128 0044 8B42     		cmp	r3, r1
 129 0046 FBD2     		bcs	.L8
 130              		.loc 1 99 0
 131 0048 5168     		ldr	r1, [r2, #4]
 132              	.LBE54:
 133              	.LBE56:
 134              	.LBB57:
 135              		.loc 1 165 0
 136 004a 0023     		movs	r3, #0
 137              	.LBE57:
 138              	.LBB58:
 139              	.LBB55:
 140              		.loc 1 98 0
 141 004c 0260     		str	r2, [r0]
 142              		.loc 1 99 0
 143 004e 4160     		str	r1, [r0, #4]
 144              		.loc 1 100 0
 145 0050 5060     		str	r0, [r2, #4]
 146 0052 0860     		str	r0, [r1]
 147              	.LVL6:
 148              	.LBE55:
 149              	.LBE58:
 150              	.LBB59:
 151              		.loc 1 165 0
 152              		.syntax unified
 153              	@ 165 "../ChibiOS/os/kernel/src/chschd.c" 1
 154 0054 83F31188 		msr     BASEPRI, r3
 155              	@ 0 "" 2
 156              		.thumb
 157              		.syntax unified
 158              	.LBE59:
 159              	.LBE60:
 160              	.LBE62:
 161              		.loc 1 166 0
 162 0058 10BC     		pop	{r4}
 163              		.cfi_remember_state
 164              		.cfi_restore 4
 165              		.cfi_def_cfa_offset 0
 166 005a 7047     		bx	lr
 167              	.LVL7:
 168              	.L3:
 169              		.cfi_restore_state
 170              	.LBB63:
 171              		.loc 1 144 0
ARM GAS  /var/folders/6q/x_mk5n_j3p7_c40r_2k_78980000gn/T//ccdCZv55.s 			page 4


 172 005c 0023     		movs	r3, #0
 173              		.syntax unified
 174              	@ 144 "../ChibiOS/os/kernel/src/chschd.c" 1
 175 005e 83F31188 		msr     BASEPRI, r3
 176              	@ 0 "" 2
 177              		.thumb
 178              		.syntax unified
 179              	.LBE63:
 180              		.loc 1 166 0
 181 0062 10BC     		pop	{r4}
 182              		.cfi_restore 4
 183              		.cfi_def_cfa_offset 0
 184 0064 7047     		bx	lr
 185              	.L13:
 186 0066 00BF     		.align	2
 187              	.L12:
 188 0068 00000000 		.word	.LANCHOR0
 189              		.cfi_endproc
 190              	.LFE10:
 191              		.size	wakeup, .-wakeup
 192              		.section	.text._scheduler_init,"ax",%progbits
 193              		.align	2
 194              		.p2align 4,,15
 195              		.global	_scheduler_init
 196              		.thumb
 197              		.thumb_func
 198              		.type	_scheduler_init, %function
 199              	_scheduler_init:
 200              	.LFB7:
 201              		.loc 1 55 0
 202              		.cfi_startproc
 203              		@ args = 0, pretend = 0, frame = 0
 204              		@ frame_needed = 0, uses_anonymous_args = 0
 205              		@ link register save eliminated.
 206              		.loc 1 57 0
 207 0000 034B     		ldr	r3, .L15
 208              		.loc 1 58 0
 209 0002 0022     		movs	r2, #0
 210              		.loc 1 57 0
 211 0004 5B60     		str	r3, [r3, #4]
 212 0006 1B60     		str	r3, [r3]
 213              		.loc 1 60 0
 214 0008 5B61     		str	r3, [r3, #20]
 215 000a 1B61     		str	r3, [r3, #16]
 216              		.loc 1 58 0
 217 000c 9A60     		str	r2, [r3, #8]
 218 000e 7047     		bx	lr
 219              	.L16:
 220              		.align	2
 221              	.L15:
 222 0010 00000000 		.word	.LANCHOR0
 223              		.cfi_endproc
 224              	.LFE7:
 225              		.size	_scheduler_init, .-_scheduler_init
 226              		.section	.text.chSchReadyI,"ax",%progbits
 227              		.align	2
 228              		.p2align 4,,15
ARM GAS  /var/folders/6q/x_mk5n_j3p7_c40r_2k_78980000gn/T//ccdCZv55.s 			page 5


 229              		.global	chSchReadyI
 230              		.thumb
 231              		.thumb_func
 232              		.type	chSchReadyI, %function
 233              	chSchReadyI:
 234              	.LFB8:
 235              		.loc 1 81 0
 236              		.cfi_startproc
 237              		@ args = 0, pretend = 0, frame = 0
 238              		@ frame_needed = 0, uses_anonymous_args = 0
 239              		@ link register save eliminated.
 240              	.LVL8:
 241 0000 10B4     		push	{r4}
 242              		.cfi_def_cfa_offset 4
 243              		.cfi_offset 4, -4
 244              		.loc 1 81 0
 245 0002 0446     		mov	r4, r0
 246              		.loc 1 92 0
 247 0004 0022     		movs	r2, #0
 248 0006 8168     		ldr	r1, [r0, #8]
 249              		.loc 1 93 0
 250 0008 064B     		ldr	r3, .L21
 251              		.loc 1 92 0
 252 000a 0277     		strb	r2, [r0, #28]
 253              	.LVL9:
 254              	.L18:
 255              		.loc 1 95 0 discriminator 1
 256 000c 1B68     		ldr	r3, [r3]
 257              	.LVL10:
 258              		.loc 1 96 0 discriminator 1
 259 000e 9A68     		ldr	r2, [r3, #8]
 260 0010 8A42     		cmp	r2, r1
 261 0012 FBD2     		bcs	.L18
 262              		.loc 1 99 0
 263 0014 5A68     		ldr	r2, [r3, #4]
 264              		.loc 1 102 0
 265 0016 2046     		mov	r0, r4
 266              	.LVL11:
 267              		.loc 1 98 0
 268 0018 2360     		str	r3, [r4]
 269              		.loc 1 99 0
 270 001a 6260     		str	r2, [r4, #4]
 271              		.loc 1 100 0
 272 001c 5C60     		str	r4, [r3, #4]
 273 001e 1460     		str	r4, [r2]
 274              		.loc 1 102 0
 275 0020 10BC     		pop	{r4}
 276              		.cfi_restore 4
 277              		.cfi_def_cfa_offset 0
 278              	.LVL12:
 279 0022 7047     		bx	lr
 280              	.L22:
 281              		.align	2
 282              	.L21:
 283 0024 00000000 		.word	.LANCHOR0
 284              		.cfi_endproc
 285              	.LFE8:
ARM GAS  /var/folders/6q/x_mk5n_j3p7_c40r_2k_78980000gn/T//ccdCZv55.s 			page 6


 286              		.size	chSchReadyI, .-chSchReadyI
 287              		.section	.text.chSchGoSleepS,"ax",%progbits
 288              		.align	2
 289              		.p2align 4,,15
 290              		.global	chSchGoSleepS
 291              		.thumb
 292              		.thumb_func
 293              		.type	chSchGoSleepS, %function
 294              	chSchGoSleepS:
 295              	.LFB9:
 296              		.loc 1 115 0
 297              		.cfi_startproc
 298              		@ args = 0, pretend = 0, frame = 0
 299              		@ frame_needed = 0, uses_anonymous_args = 0
 300              		@ link register save eliminated.
 301              	.LVL13:
 302              		.loc 1 120 0
 303 0000 084B     		ldr	r3, .L25
 304              		.loc 1 115 0
 305 0002 30B4     		push	{r4, r5}
 306              		.cfi_def_cfa_offset 8
 307              		.cfi_offset 4, -8
 308              		.cfi_offset 5, -4
 309              		.loc 1 120 0
 310 0004 9969     		ldr	r1, [r3, #24]
 311              	.LVL14:
 312              	.LBB64:
 313              	.LBB65:
 314              		.loc 2 60 0
 315 0006 1A68     		ldr	r2, [r3]
 316              	.LBE65:
 317              	.LBE64:
 318              		.loc 1 124 0
 319 0008 1424     		movs	r4, #20
 320              		.loc 1 120 0
 321 000a 0877     		strb	r0, [r1, #28]
 322              		.loc 1 124 0
 323 000c CC77     		strb	r4, [r1, #31]
 324              	.LVL15:
 325              	.LBB69:
 326              	.LBB66:
 327              		.loc 2 62 0
 328 000e 1468     		ldr	r4, [r2]
 329              	.LBE66:
 330              	.LBE69:
 331              		.loc 1 127 0
 332 0010 0125     		movs	r5, #1
 333              	.LBB70:
 334              	.LBB67:
 335              		.loc 2 62 0
 336 0012 6360     		str	r3, [r4, #4]
 337              	.LVL16:
 338              	.LBE67:
 339              	.LBE70:
 340              		.loc 1 127 0
 341 0014 1577     		strb	r5, [r2, #28]
 342              	.LBB71:
ARM GAS  /var/folders/6q/x_mk5n_j3p7_c40r_2k_78980000gn/T//ccdCZv55.s 			page 7


 343              	.LBB68:
 344              		.loc 2 62 0
 345 0016 1C60     		str	r4, [r3]
 346              	.LBE68:
 347              	.LBE71:
 348              		.loc 1 128 0
 349 0018 1046     		mov	r0, r2
 350              	.LVL17:
 351              		.loc 1 129 0
 352 001a 30BC     		pop	{r4, r5}
 353              		.cfi_restore 5
 354              		.cfi_restore 4
 355              		.cfi_def_cfa_offset 0
 356              		.loc 1 126 0
 357 001c 9A61     		str	r2, [r3, #24]
 358              		.loc 1 128 0
 359 001e FFF7FEBF 		b	_port_switch
 360              	.LVL18:
 361              	.L26:
 362 0022 00BF     		.align	2
 363              	.L25:
 364 0024 00000000 		.word	.LANCHOR0
 365              		.cfi_endproc
 366              	.LFE9:
 367              		.size	chSchGoSleepS, .-chSchGoSleepS
 368              		.section	.text.chSchGoSleepTimeoutS,"ax",%progbits
 369              		.align	2
 370              		.p2align 4,,15
 371              		.global	chSchGoSleepTimeoutS
 372              		.thumb
 373              		.thumb_func
 374              		.type	chSchGoSleepTimeoutS, %function
 375              	chSchGoSleepTimeoutS:
 376              	.LFB11:
 377              		.loc 1 189 0
 378              		.cfi_startproc
 379              		@ args = 0, pretend = 0, frame = 24
 380              		@ frame_needed = 0, uses_anonymous_args = 0
 381              	.LVL19:
 382 0000 30B5     		push	{r4, r5, lr}
 383              		.cfi_def_cfa_offset 12
 384              		.cfi_offset 4, -12
 385              		.cfi_offset 5, -8
 386              		.cfi_offset 14, -4
 387              		.loc 1 193 0
 388 0002 4B1C     		adds	r3, r1, #1
 389              		.loc 1 189 0
 390 0004 87B0     		sub	sp, sp, #28
 391              		.cfi_def_cfa_offset 40
 392              		.loc 1 193 0
 393 0006 12D0     		beq	.L28
 394 0008 0546     		mov	r5, r0
 395              	.LBB72:
 396              		.loc 1 196 0
 397 000a 0C4C     		ldr	r4, .L35
 398 000c 01A8     		add	r0, sp, #4
 399              	.LVL20:
ARM GAS  /var/folders/6q/x_mk5n_j3p7_c40r_2k_78980000gn/T//ccdCZv55.s 			page 8


 400 000e A369     		ldr	r3, [r4, #24]
 401 0010 0B4A     		ldr	r2, .L35+4
 402 0012 FFF7FEFF 		bl	chVTSetI
 403              	.LVL21:
 404              		.loc 1 197 0
 405 0016 2846     		mov	r0, r5
 406 0018 FFF7FEFF 		bl	chSchGoSleepS
 407              	.LVL22:
 408              		.loc 1 198 0
 409 001c 049B     		ldr	r3, [sp, #16]
 410 001e 13B1     		cbz	r3, .L30
 411              		.loc 1 199 0
 412 0020 01A8     		add	r0, sp, #4
 413 0022 FFF7FEFF 		bl	chVTResetI
 414              	.LVL23:
 415              	.L30:
 416              	.LBE72:
 417              		.loc 1 203 0
 418 0026 A369     		ldr	r3, [r4, #24]
 419              		.loc 1 204 0
 420 0028 586A     		ldr	r0, [r3, #36]
 421 002a 07B0     		add	sp, sp, #28
 422              		.cfi_remember_state
 423              		.cfi_def_cfa_offset 12
 424              		@ sp needed
 425 002c 30BD     		pop	{r4, r5, pc}
 426              	.LVL24:
 427              	.L28:
 428              		.cfi_restore_state
 429              		.loc 1 202 0
 430 002e FFF7FEFF 		bl	chSchGoSleepS
 431              	.LVL25:
 432 0032 024C     		ldr	r4, .L35
 433              		.loc 1 203 0
 434 0034 A369     		ldr	r3, [r4, #24]
 435              		.loc 1 204 0
 436 0036 586A     		ldr	r0, [r3, #36]
 437 0038 07B0     		add	sp, sp, #28
 438              		.cfi_def_cfa_offset 12
 439              		@ sp needed
 440 003a 30BD     		pop	{r4, r5, pc}
 441              	.L36:
 442              		.align	2
 443              	.L35:
 444 003c 00000000 		.word	.LANCHOR0
 445 0040 00000000 		.word	wakeup
 446              		.cfi_endproc
 447              	.LFE11:
 448              		.size	chSchGoSleepTimeoutS, .-chSchGoSleepTimeoutS
 449              		.section	.text.chSchWakeupS,"ax",%progbits
 450              		.align	2
 451              		.p2align 4,,15
 452              		.global	chSchWakeupS
 453              		.thumb
 454              		.thumb_func
 455              		.type	chSchWakeupS, %function
 456              	chSchWakeupS:
ARM GAS  /var/folders/6q/x_mk5n_j3p7_c40r_2k_78980000gn/T//ccdCZv55.s 			page 9


 457              	.LFB12:
 458              		.loc 1 225 0
 459              		.cfi_startproc
 460              		@ args = 0, pretend = 0, frame = 0
 461              		@ frame_needed = 0, uses_anonymous_args = 0
 462              		@ link register save eliminated.
 463              	.LVL26:
 464              		.loc 1 234 0
 465 0000 144B     		ldr	r3, .L46
 466              		.loc 1 225 0
 467 0002 F0B4     		push	{r4, r5, r6, r7}
 468              		.cfi_def_cfa_offset 16
 469              		.cfi_offset 4, -16
 470              		.cfi_offset 5, -12
 471              		.cfi_offset 6, -8
 472              		.cfi_offset 7, -4
 473              		.loc 1 234 0
 474 0004 9D69     		ldr	r5, [r3, #24]
 475              		.loc 1 229 0
 476 0006 4162     		str	r1, [r0, #36]
 477              		.loc 1 225 0
 478 0008 0446     		mov	r4, r0
 479              		.loc 1 234 0
 480 000a 8168     		ldr	r1, [r0, #8]
 481              	.LVL27:
 482 000c A868     		ldr	r0, [r5, #8]
 483              	.LVL28:
 484 000e 8142     		cmp	r1, r0
 485 0010 0CD8     		bhi	.L38
 486              	.LVL29:
 487              	.LBB73:
 488              	.LBB74:
 489              		.loc 1 92 0
 490 0012 0022     		movs	r2, #0
 491 0014 2277     		strb	r2, [r4, #28]
 492              	.LVL30:
 493              	.L39:
 494              		.loc 1 95 0
 495 0016 1B68     		ldr	r3, [r3]
 496              	.LVL31:
 497              		.loc 1 96 0
 498 0018 9A68     		ldr	r2, [r3, #8]
 499 001a 9142     		cmp	r1, r2
 500 001c FBD9     		bls	.L39
 501              		.loc 1 99 0
 502 001e 5A68     		ldr	r2, [r3, #4]
 503              		.loc 1 98 0
 504 0020 2360     		str	r3, [r4]
 505              		.loc 1 99 0
 506 0022 6260     		str	r2, [r4, #4]
 507              		.loc 1 100 0
 508 0024 5C60     		str	r4, [r3, #4]
 509              	.LVL32:
 510 0026 1460     		str	r4, [r2]
 511              	.LBE74:
 512              	.LBE73:
 513              		.loc 1 242 0
ARM GAS  /var/folders/6q/x_mk5n_j3p7_c40r_2k_78980000gn/T//ccdCZv55.s 			page 10


 514 0028 F0BC     		pop	{r4, r5, r6, r7}
 515              		.cfi_remember_state
 516              		.cfi_restore 7
 517              		.cfi_restore 6
 518              		.cfi_restore 5
 519              		.cfi_restore 4
 520              		.cfi_def_cfa_offset 0
 521              	.LVL33:
 522 002a 7047     		bx	lr
 523              	.LVL34:
 524              	.L38:
 525              		.cfi_restore_state
 526              	.LBB75:
 527              	.LBB76:
 528              	.LBB77:
 529              		.loc 1 93 0
 530 002c 1A46     		mov	r2, r3
 531              		.loc 1 92 0
 532 002e 0021     		movs	r1, #0
 533 0030 2977     		strb	r1, [r5, #28]
 534              	.LVL35:
 535              	.L41:
 536              		.loc 1 95 0
 537 0032 1268     		ldr	r2, [r2]
 538              	.LVL36:
 539              		.loc 1 96 0
 540 0034 9168     		ldr	r1, [r2, #8]
 541 0036 8842     		cmp	r0, r1
 542 0038 FBD9     		bls	.L41
 543              		.loc 1 99 0
 544 003a 5668     		ldr	r6, [r2, #4]
 545              	.LBE77:
 546              	.LBE76:
 547              		.loc 1 239 0
 548 003c 0127     		movs	r7, #1
 549              	.LBB79:
 550              	.LBB78:
 551              		.loc 1 99 0
 552 003e 85E84400 		stmia	r5, {r2, r6}
 553              		.loc 1 100 0
 554 0042 5560     		str	r5, [r2, #4]
 555 0044 3560     		str	r5, [r6]
 556              	.LVL37:
 557              	.LBE78:
 558              	.LBE79:
 559              		.loc 1 239 0
 560 0046 2777     		strb	r7, [r4, #28]
 561              		.loc 1 240 0
 562 0048 2946     		mov	r1, r5
 563 004a 2046     		mov	r0, r4
 564              		.loc 1 238 0
 565 004c 9C61     		str	r4, [r3, #24]
 566              	.LBE75:
 567              		.loc 1 242 0
 568 004e F0BC     		pop	{r4, r5, r6, r7}
 569              		.cfi_restore 7
 570              		.cfi_restore 6
ARM GAS  /var/folders/6q/x_mk5n_j3p7_c40r_2k_78980000gn/T//ccdCZv55.s 			page 11


 571              		.cfi_restore 5
 572              		.cfi_restore 4
 573              		.cfi_def_cfa_offset 0
 574              	.LVL38:
 575              	.LBB80:
 576              		.loc 1 240 0
 577 0050 FFF7FEBF 		b	_port_switch
 578              	.LVL39:
 579              	.L47:
 580              		.align	2
 581              	.L46:
 582 0054 00000000 		.word	.LANCHOR0
 583              	.LBE80:
 584              		.cfi_endproc
 585              	.LFE12:
 586              		.size	chSchWakeupS, .-chSchWakeupS
 587              		.section	.text.chSchDoRescheduleBehind,"ax",%progbits
 588              		.align	2
 589              		.p2align 4,,15
 590              		.global	chSchDoRescheduleBehind
 591              		.thumb
 592              		.thumb_func
 593              		.type	chSchDoRescheduleBehind, %function
 594              	chSchDoRescheduleBehind:
 595              	.LFB14:
 596              		.loc 1 304 0
 597              		.cfi_startproc
 598              		@ args = 0, pretend = 0, frame = 0
 599              		@ frame_needed = 0, uses_anonymous_args = 0
 600              		@ link register save eliminated.
 601              		.loc 1 307 0
 602 0000 0E4A     		ldr	r2, .L53
 603              		.loc 1 304 0
 604 0002 F0B4     		push	{r4, r5, r6, r7}
 605              		.cfi_def_cfa_offset 16
 606              		.cfi_offset 4, -16
 607              		.cfi_offset 5, -12
 608              		.cfi_offset 6, -8
 609              		.cfi_offset 7, -4
 610              	.LBB81:
 611              	.LBB82:
 612              		.loc 2 60 0
 613 0004 1068     		ldr	r0, [r2]
 614              	.LBE82:
 615              	.LBE81:
 616              		.loc 1 307 0
 617 0006 9469     		ldr	r4, [r2, #24]
 618              	.LVL40:
 619              	.LBB86:
 620              	.LBB83:
 621              		.loc 2 62 0
 622 0008 0568     		ldr	r5, [r0]
 623              	.LBE83:
 624              	.LBE86:
 625              		.loc 1 310 0
 626 000a 0121     		movs	r1, #1
 627              	.LBB87:
ARM GAS  /var/folders/6q/x_mk5n_j3p7_c40r_2k_78980000gn/T//ccdCZv55.s 			page 12


 628              	.LBB84:
 629              		.loc 2 62 0
 630 000c 6A60     		str	r2, [r5, #4]
 631              	.LVL41:
 632              	.LBE84:
 633              	.LBE87:
 634              		.loc 1 312 0
 635 000e 1427     		movs	r7, #20
 636              		.loc 1 310 0
 637 0010 0177     		strb	r1, [r0, #28]
 638              	.LBB88:
 639              	.LBB89:
 640              		.loc 1 92 0
 641 0012 0026     		movs	r6, #0
 642 0014 A168     		ldr	r1, [r4, #8]
 643 0016 0346     		mov	r3, r0
 644              	.LBE89:
 645              	.LBE88:
 646              	.LBB92:
 647              	.LBB85:
 648              		.loc 2 62 0
 649 0018 1560     		str	r5, [r2]
 650              	.LBE85:
 651              	.LBE92:
 652              		.loc 1 309 0
 653 001a 9061     		str	r0, [r2, #24]
 654              		.loc 1 312 0
 655 001c E777     		strb	r7, [r4, #31]
 656              	.LVL42:
 657              	.LBB93:
 658              	.LBB90:
 659              		.loc 1 92 0
 660 001e 2677     		strb	r6, [r4, #28]
 661              	.LVL43:
 662 0020 00E0     		b	.L50
 663              	.LVL44:
 664              	.L52:
 665 0022 1B68     		ldr	r3, [r3]
 666              	.L50:
 667              		.loc 1 96 0
 668 0024 9A68     		ldr	r2, [r3, #8]
 669 0026 8A42     		cmp	r2, r1
 670 0028 FBD2     		bcs	.L52
 671              		.loc 1 99 0
 672 002a 5A68     		ldr	r2, [r3, #4]
 673              	.LBE90:
 674              	.LBE93:
 675              		.loc 1 315 0
 676 002c 2146     		mov	r1, r4
 677              	.LBB94:
 678              	.LBB91:
 679              		.loc 1 98 0
 680 002e 2360     		str	r3, [r4]
 681              		.loc 1 99 0
 682 0030 6260     		str	r2, [r4, #4]
 683              		.loc 1 100 0
 684 0032 5C60     		str	r4, [r3, #4]
ARM GAS  /var/folders/6q/x_mk5n_j3p7_c40r_2k_78980000gn/T//ccdCZv55.s 			page 13


 685 0034 1460     		str	r4, [r2]
 686              	.LVL45:
 687              	.LBE91:
 688              	.LBE94:
 689              		.loc 1 316 0
 690 0036 F0BC     		pop	{r4, r5, r6, r7}
 691              		.cfi_restore 7
 692              		.cfi_restore 6
 693              		.cfi_restore 5
 694              		.cfi_restore 4
 695              		.cfi_def_cfa_offset 0
 696              	.LVL46:
 697              		.loc 1 315 0
 698 0038 FFF7FEBF 		b	_port_switch
 699              	.LVL47:
 700              	.L54:
 701              		.align	2
 702              	.L53:
 703 003c 00000000 		.word	.LANCHOR0
 704              		.cfi_endproc
 705              	.LFE14:
 706              		.size	chSchDoRescheduleBehind, .-chSchDoRescheduleBehind
 707              		.section	.text.chSchDoRescheduleAhead,"ax",%progbits
 708              		.align	2
 709              		.p2align 4,,15
 710              		.global	chSchDoRescheduleAhead
 711              		.thumb
 712              		.thumb_func
 713              		.type	chSchDoRescheduleAhead, %function
 714              	chSchDoRescheduleAhead:
 715              	.LFB15:
 716              		.loc 1 329 0
 717              		.cfi_startproc
 718              		@ args = 0, pretend = 0, frame = 0
 719              		@ frame_needed = 0, uses_anonymous_args = 0
 720              		@ link register save eliminated.
 721              		.loc 1 332 0
 722 0000 0D4A     		ldr	r2, .L60
 723              		.loc 1 329 0
 724 0002 70B4     		push	{r4, r5, r6}
 725              		.cfi_def_cfa_offset 12
 726              		.cfi_offset 4, -12
 727              		.cfi_offset 5, -8
 728              		.cfi_offset 6, -4
 729              	.LBB95:
 730              	.LBB96:
 731              		.loc 2 60 0
 732 0004 1068     		ldr	r0, [r2]
 733              	.LBE96:
 734              	.LBE95:
 735              		.loc 1 332 0
 736 0006 9469     		ldr	r4, [r2, #24]
 737              	.LVL48:
 738              	.LBB100:
 739              	.LBB97:
 740              		.loc 2 62 0
 741 0008 0568     		ldr	r5, [r0]
ARM GAS  /var/folders/6q/x_mk5n_j3p7_c40r_2k_78980000gn/T//ccdCZv55.s 			page 14


 742              	.LBE97:
 743              	.LBE100:
 744              		.loc 1 335 0
 745 000a 0121     		movs	r1, #1
 746              	.LBB101:
 747              	.LBB98:
 748              		.loc 2 62 0
 749 000c 6A60     		str	r2, [r5, #4]
 750              	.LVL49:
 751              	.LBE98:
 752              	.LBE101:
 753              		.loc 1 337 0
 754 000e 0026     		movs	r6, #0
 755              		.loc 1 335 0
 756 0010 0177     		strb	r1, [r0, #28]
 757 0012 A168     		ldr	r1, [r4, #8]
 758              		.loc 1 337 0
 759 0014 0346     		mov	r3, r0
 760              	.LBB102:
 761              	.LBB99:
 762              		.loc 2 62 0
 763 0016 1560     		str	r5, [r2]
 764              	.LBE99:
 765              	.LBE102:
 766              		.loc 1 334 0
 767 0018 9061     		str	r0, [r2, #24]
 768              		.loc 1 337 0
 769 001a 2677     		strb	r6, [r4, #28]
 770              	.LVL50:
 771 001c 00E0     		b	.L57
 772              	.LVL51:
 773              	.L59:
 774 001e 1B68     		ldr	r3, [r3]
 775              	.L57:
 776              		.loc 1 341 0 discriminator 1
 777 0020 9A68     		ldr	r2, [r3, #8]
 778 0022 8A42     		cmp	r2, r1
 779 0024 FBD8     		bhi	.L59
 780              		.loc 1 344 0
 781 0026 5A68     		ldr	r2, [r3, #4]
 782              		.loc 1 347 0
 783 0028 2146     		mov	r1, r4
 784              		.loc 1 343 0
 785 002a 2360     		str	r3, [r4]
 786              		.loc 1 344 0
 787 002c 6260     		str	r2, [r4, #4]
 788              		.loc 1 345 0
 789 002e 5C60     		str	r4, [r3, #4]
 790 0030 1460     		str	r4, [r2]
 791              		.loc 1 348 0
 792 0032 70BC     		pop	{r4, r5, r6}
 793              		.cfi_restore 6
 794              		.cfi_restore 5
 795              		.cfi_restore 4
 796              		.cfi_def_cfa_offset 0
 797              	.LVL52:
 798              		.loc 1 347 0
ARM GAS  /var/folders/6q/x_mk5n_j3p7_c40r_2k_78980000gn/T//ccdCZv55.s 			page 15


 799 0034 FFF7FEBF 		b	_port_switch
 800              	.LVL53:
 801              	.L61:
 802              		.align	2
 803              	.L60:
 804 0038 00000000 		.word	.LANCHOR0
 805              		.cfi_endproc
 806              	.LFE15:
 807              		.size	chSchDoRescheduleAhead, .-chSchDoRescheduleAhead
 808              		.section	.text.chSchRescheduleS,"ax",%progbits
 809              		.align	2
 810              		.p2align 4,,15
 811              		.global	chSchRescheduleS
 812              		.thumb
 813              		.thumb_func
 814              		.type	chSchRescheduleS, %function
 815              	chSchRescheduleS:
 816              	.LFB13:
 817              		.loc 1 253 0
 818              		.cfi_startproc
 819              		@ args = 0, pretend = 0, frame = 0
 820              		@ frame_needed = 0, uses_anonymous_args = 0
 821              		@ link register save eliminated.
 822              		.loc 1 257 0
 823 0000 044B     		ldr	r3, .L65
 824 0002 1A68     		ldr	r2, [r3]
 825 0004 9B69     		ldr	r3, [r3, #24]
 826 0006 9268     		ldr	r2, [r2, #8]
 827 0008 9B68     		ldr	r3, [r3, #8]
 828 000a 9A42     		cmp	r2, r3
 829 000c 00D8     		bhi	.L64
 830 000e 7047     		bx	lr
 831              	.L64:
 832              		.loc 1 258 0
 833 0010 FFF7FEBF 		b	chSchDoRescheduleAhead
 834              	.LVL54:
 835              	.L66:
 836              		.align	2
 837              	.L65:
 838 0014 00000000 		.word	.LANCHOR0
 839              		.cfi_endproc
 840              	.LFE13:
 841              		.size	chSchRescheduleS, .-chSchRescheduleS
 842              		.section	.text.chSchDoReschedule,"ax",%progbits
 843              		.align	2
 844              		.p2align 4,,15
 845              		.global	chSchDoReschedule
 846              		.thumb
 847              		.thumb_func
 848              		.type	chSchDoReschedule, %function
 849              	chSchDoReschedule:
 850              	.LFB16:
 851              		.loc 1 362 0
 852              		.cfi_startproc
 853              		@ args = 0, pretend = 0, frame = 0
 854              		@ frame_needed = 0, uses_anonymous_args = 0
 855              		@ link register save eliminated.
ARM GAS  /var/folders/6q/x_mk5n_j3p7_c40r_2k_78980000gn/T//ccdCZv55.s 			page 16


 856              		.loc 1 367 0
 857 0000 034B     		ldr	r3, .L70
 858 0002 9B69     		ldr	r3, [r3, #24]
 859 0004 DB7F     		ldrb	r3, [r3, #31]	@ zero_extendqisi2
 860 0006 0BB1     		cbz	r3, .L69
 861              		.loc 1 375 0
 862 0008 FFF7FEBF 		b	chSchDoRescheduleAhead
 863              	.LVL55:
 864              	.L69:
 865              		.loc 1 370 0
 866 000c FFF7FEBF 		b	chSchDoRescheduleBehind
 867              	.LVL56:
 868              	.L71:
 869              		.align	2
 870              	.L70:
 871 0010 00000000 		.word	.LANCHOR0
 872              		.cfi_endproc
 873              	.LFE16:
 874              		.size	chSchDoReschedule, .-chSchDoReschedule
 875              		.global	rlist
 876              		.section	.bss.rlist,"aw",%nobits
 877              		.align	2
 878              		.set	.LANCHOR0,. + 0
 879              		.type	rlist, %object
 880              		.size	rlist, 28
 881              	rlist:
 882 0000 00000000 		.space	28
 882      00000000 
 882      00000000 
 882      00000000 
 882      00000000 
 883              		.text
 884              	.Letext0:
 885              		.file 3 "/Users/Luca/src/vexilla/src/gcc-arm-none-eabi-5_4-2016q3/arm-none-eabi/include/machine/_d
 886              		.file 4 "/Users/Luca/src/vexilla/src/gcc-arm-none-eabi-5_4-2016q3/arm-none-eabi/include/sys/_stdin
 887              		.file 5 "../ChibiOS/os/ports/GCC/ARMCMx/chtypes.h"
 888              		.file 6 "../ChibiOS/os/kernel/include/chlists.h"
 889              		.file 7 "../ChibiOS/os/kernel/include/chthreads.h"
 890              		.file 8 "../ChibiOS/os/ports/GCC/ARMCMx/chcore_v7m.h"
 891              		.file 9 "../ChibiOS/os/kernel/include/chvt.h"
 892              		.file 10 "../ChibiOS/os/kernel/include/chschd.h"
 893              		.file 11 "../ChibiOS/os/kernel/include/chsem.h"
 894              		.file 12 "../ChibiOS/os/kernel/include/chmtx.h"
 895              		.section	.debug_info,"",%progbits
 896              	.Ldebug_info0:
 897 0000 C0090000 		.4byte	0x9c0
 898 0004 0400     		.2byte	0x4
 899 0006 00000000 		.4byte	.Ldebug_abbrev0
 900 000a 04       		.byte	0x4
 901 000b 01       		.uleb128 0x1
 902 000c 45010000 		.4byte	.LASF91
 903 0010 0C       		.byte	0xc
 904 0011 5C040000 		.4byte	.LASF92
 905 0015 C1030000 		.4byte	.LASF93
 906 0019 30010000 		.4byte	.Ldebug_ranges0+0x130
 907 001d 00000000 		.4byte	0
 908 0021 00000000 		.4byte	.Ldebug_line0
ARM GAS  /var/folders/6q/x_mk5n_j3p7_c40r_2k_78980000gn/T//ccdCZv55.s 			page 17


 909 0025 02       		.uleb128 0x2
 910 0026 04       		.byte	0x4
 911 0027 05       		.byte	0x5
 912 0028 696E7400 		.ascii	"int\000"
 913 002c 03       		.uleb128 0x3
 914 002d 04       		.byte	0x4
 915 002e 07       		.byte	0x7
 916 002f 01010000 		.4byte	.LASF0
 917 0033 03       		.uleb128 0x3
 918 0034 08       		.byte	0x8
 919 0035 05       		.byte	0x5
 920 0036 66000000 		.4byte	.LASF1
 921 003a 03       		.uleb128 0x3
 922 003b 08       		.byte	0x8
 923 003c 04       		.byte	0x4
 924 003d 92020000 		.4byte	.LASF2
 925 0041 03       		.uleb128 0x3
 926 0042 01       		.byte	0x1
 927 0043 06       		.byte	0x6
 928 0044 74000000 		.4byte	.LASF3
 929 0048 04       		.uleb128 0x4
 930 0049 25000000 		.4byte	.LASF7
 931 004d 03       		.byte	0x3
 932 004e 1D       		.byte	0x1d
 933 004f 53000000 		.4byte	0x53
 934 0053 03       		.uleb128 0x3
 935 0054 01       		.byte	0x1
 936 0055 08       		.byte	0x8
 937 0056 19030000 		.4byte	.LASF4
 938 005a 03       		.uleb128 0x3
 939 005b 02       		.byte	0x2
 940 005c 05       		.byte	0x5
 941 005d 3A030000 		.4byte	.LASF5
 942 0061 03       		.uleb128 0x3
 943 0062 02       		.byte	0x2
 944 0063 07       		.byte	0x7
 945 0064 2D020000 		.4byte	.LASF6
 946 0068 04       		.uleb128 0x4
 947 0069 0B040000 		.4byte	.LASF8
 948 006d 03       		.byte	0x3
 949 006e 3F       		.byte	0x3f
 950 006f 73000000 		.4byte	0x73
 951 0073 03       		.uleb128 0x3
 952 0074 04       		.byte	0x4
 953 0075 05       		.byte	0x5
 954 0076 9A000000 		.4byte	.LASF9
 955 007a 04       		.uleb128 0x4
 956 007b CD000000 		.4byte	.LASF10
 957 007f 03       		.byte	0x3
 958 0080 41       		.byte	0x41
 959 0081 85000000 		.4byte	0x85
 960 0085 03       		.uleb128 0x3
 961 0086 04       		.byte	0x4
 962 0087 07       		.byte	0x7
 963 0088 2A010000 		.4byte	.LASF11
 964 008c 03       		.uleb128 0x3
 965 008d 08       		.byte	0x8
ARM GAS  /var/folders/6q/x_mk5n_j3p7_c40r_2k_78980000gn/T//ccdCZv55.s 			page 18


 966 008e 07       		.byte	0x7
 967 008f 2F000000 		.4byte	.LASF12
 968 0093 04       		.uleb128 0x4
 969 0094 84040000 		.4byte	.LASF13
 970 0098 04       		.byte	0x4
 971 0099 18       		.byte	0x18
 972 009a 48000000 		.4byte	0x48
 973 009e 04       		.uleb128 0x4
 974 009f 11030000 		.4byte	.LASF14
 975 00a3 04       		.byte	0x4
 976 00a4 2C       		.byte	0x2c
 977 00a5 68000000 		.4byte	0x68
 978 00a9 04       		.uleb128 0x4
 979 00aa 9E030000 		.4byte	.LASF15
 980 00ae 04       		.byte	0x4
 981 00af 30       		.byte	0x30
 982 00b0 7A000000 		.4byte	0x7a
 983 00b4 03       		.uleb128 0x3
 984 00b5 01       		.byte	0x1
 985 00b6 02       		.byte	0x2
 986 00b7 0B030000 		.4byte	.LASF16
 987 00bb 04       		.uleb128 0x4
 988 00bc 5B020000 		.4byte	.LASF17
 989 00c0 05       		.byte	0x5
 990 00c1 2C       		.byte	0x2c
 991 00c2 93000000 		.4byte	0x93
 992 00c6 04       		.uleb128 0x4
 993 00c7 A3000000 		.4byte	.LASF18
 994 00cb 05       		.byte	0x5
 995 00cc 2D       		.byte	0x2d
 996 00cd 93000000 		.4byte	0x93
 997 00d1 04       		.uleb128 0x4
 998 00d2 F4020000 		.4byte	.LASF19
 999 00d6 05       		.byte	0x5
 1000 00d7 2E       		.byte	0x2e
 1001 00d8 93000000 		.4byte	0x93
 1002 00dc 04       		.uleb128 0x4
 1003 00dd 90000000 		.4byte	.LASF20
 1004 00e1 05       		.byte	0x5
 1005 00e2 2F       		.byte	0x2f
 1006 00e3 93000000 		.4byte	0x93
 1007 00e7 04       		.uleb128 0x4
 1008 00e8 03030000 		.4byte	.LASF21
 1009 00ec 05       		.byte	0x5
 1010 00ed 30       		.byte	0x30
 1011 00ee A9000000 		.4byte	0xa9
 1012 00f2 04       		.uleb128 0x4
 1013 00f3 4D020000 		.4byte	.LASF22
 1014 00f7 05       		.byte	0x5
 1015 00f8 31       		.byte	0x31
 1016 00f9 9E000000 		.4byte	0x9e
 1017 00fd 04       		.uleb128 0x4
 1018 00fe 6F020000 		.4byte	.LASF23
 1019 0102 05       		.byte	0x5
 1020 0103 33       		.byte	0x33
 1021 0104 A9000000 		.4byte	0xa9
 1022 0108 04       		.uleb128 0x4
ARM GAS  /var/folders/6q/x_mk5n_j3p7_c40r_2k_78980000gn/T//ccdCZv55.s 			page 19


 1023 0109 F6030000 		.4byte	.LASF24
 1024 010d 05       		.byte	0x5
 1025 010e 35       		.byte	0x35
 1026 010f A9000000 		.4byte	0xa9
 1027 0113 04       		.uleb128 0x4
 1028 0114 FB000000 		.4byte	.LASF25
 1029 0118 05       		.byte	0x5
 1030 0119 36       		.byte	0x36
 1031 011a 9E000000 		.4byte	0x9e
 1032 011e 04       		.uleb128 0x4
 1033 011f 73030000 		.4byte	.LASF26
 1034 0123 06       		.byte	0x6
 1035 0124 2A       		.byte	0x2a
 1036 0125 29010000 		.4byte	0x129
 1037 0129 05       		.uleb128 0x5
 1038 012a 73030000 		.4byte	.LASF26
 1039 012e 48       		.byte	0x48
 1040 012f 07       		.byte	0x7
 1041 0130 5E       		.byte	0x5e
 1042 0131 26020000 		.4byte	0x226
 1043 0135 06       		.uleb128 0x6
 1044 0136 64030000 		.4byte	.LASF27
 1045 013a 07       		.byte	0x7
 1046 013b 5F       		.byte	0x5f
 1047 013c 47020000 		.4byte	0x247
 1048 0140 00       		.byte	0
 1049 0141 06       		.uleb128 0x6
 1050 0142 FC020000 		.4byte	.LASF28
 1051 0146 07       		.byte	0x7
 1052 0147 61       		.byte	0x61
 1053 0148 47020000 		.4byte	0x247
 1054 014c 04       		.byte	0x4
 1055 014d 06       		.uleb128 0x6
 1056 014e 4F000000 		.4byte	.LASF29
 1057 0152 07       		.byte	0x7
 1058 0153 63       		.byte	0x63
 1059 0154 E7000000 		.4byte	0xe7
 1060 0158 08       		.byte	0x8
 1061 0159 06       		.uleb128 0x6
 1062 015a B7040000 		.4byte	.LASF30
 1063 015e 07       		.byte	0x7
 1064 015f 64       		.byte	0x64
 1065 0160 01030000 		.4byte	0x301
 1066 0164 0C       		.byte	0xc
 1067 0165 06       		.uleb128 0x6
 1068 0166 AC000000 		.4byte	.LASF31
 1069 016a 07       		.byte	0x7
 1070 016b 66       		.byte	0x66
 1071 016c 47020000 		.4byte	0x247
 1072 0170 10       		.byte	0x10
 1073 0171 06       		.uleb128 0x6
 1074 0172 BF020000 		.4byte	.LASF32
 1075 0176 07       		.byte	0x7
 1076 0177 67       		.byte	0x67
 1077 0178 47020000 		.4byte	0x247
 1078 017c 14       		.byte	0x14
 1079 017d 06       		.uleb128 0x6
ARM GAS  /var/folders/6q/x_mk5n_j3p7_c40r_2k_78980000gn/T//ccdCZv55.s 			page 20


 1080 017e 93040000 		.4byte	.LASF33
 1081 0182 07       		.byte	0x7
 1082 0183 6E       		.byte	0x6e
 1083 0184 A7040000 		.4byte	0x4a7
 1084 0188 18       		.byte	0x18
 1085 0189 06       		.uleb128 0x6
 1086 018a 44030000 		.4byte	.LASF34
 1087 018e 07       		.byte	0x7
 1088 018f 79       		.byte	0x79
 1089 0190 C6000000 		.4byte	0xc6
 1090 0194 1C       		.byte	0x1c
 1091 0195 06       		.uleb128 0x6
 1092 0196 6B030000 		.4byte	.LASF35
 1093 019a 07       		.byte	0x7
 1094 019b 7D       		.byte	0x7d
 1095 019c BB000000 		.4byte	0xbb
 1096 01a0 1D       		.byte	0x1d
 1097 01a1 06       		.uleb128 0x6
 1098 01a2 4B040000 		.4byte	.LASF36
 1099 01a6 07       		.byte	0x7
 1100 01a7 82       		.byte	0x82
 1101 01a8 D1000000 		.4byte	0xd1
 1102 01ac 1E       		.byte	0x1e
 1103 01ad 06       		.uleb128 0x6
 1104 01ae 4C030000 		.4byte	.LASF37
 1105 01b2 07       		.byte	0x7
 1106 01b3 88       		.byte	0x88
 1107 01b4 DC000000 		.4byte	0xdc
 1108 01b8 1F       		.byte	0x1f
 1109 01b9 06       		.uleb128 0x6
 1110 01ba 15040000 		.4byte	.LASF38
 1111 01be 07       		.byte	0x7
 1112 01bf 8F       		.byte	0x8f
 1113 01c0 9F030000 		.4byte	0x39f
 1114 01c4 20       		.byte	0x20
 1115 01c5 07       		.uleb128 0x7
 1116 01c6 705F7500 		.ascii	"p_u\000"
 1117 01ca 07       		.byte	0x7
 1118 01cb B4       		.byte	0xb4
 1119 01cc 72040000 		.4byte	0x472
 1120 01d0 24       		.byte	0x24
 1121 01d1 06       		.uleb128 0x6
 1122 01d2 BD040000 		.4byte	.LASF39
 1123 01d6 07       		.byte	0x7
 1124 01d7 B9       		.byte	0xb9
 1125 01d8 6D020000 		.4byte	0x26d
 1126 01dc 28       		.byte	0x28
 1127 01dd 06       		.uleb128 0x6
 1128 01de 23040000 		.4byte	.LASF40
 1129 01e2 07       		.byte	0x7
 1130 01e3 BF       		.byte	0xbf
 1131 01e4 4D020000 		.4byte	0x24d
 1132 01e8 2C       		.byte	0x2c
 1133 01e9 06       		.uleb128 0x6
 1134 01ea 00000000 		.4byte	.LASF41
 1135 01ee 07       		.byte	0x7
 1136 01ef C3       		.byte	0xc3
ARM GAS  /var/folders/6q/x_mk5n_j3p7_c40r_2k_78980000gn/T//ccdCZv55.s 			page 21


 1137 01f0 F2000000 		.4byte	0xf2
 1138 01f4 34       		.byte	0x34
 1139 01f5 06       		.uleb128 0x6
 1140 01f6 93030000 		.4byte	.LASF42
 1141 01fa 07       		.byte	0x7
 1142 01fb C9       		.byte	0xc9
 1143 01fc FD000000 		.4byte	0xfd
 1144 0200 38       		.byte	0x38
 1145 0201 06       		.uleb128 0x6
 1146 0202 30030000 		.4byte	.LASF43
 1147 0206 07       		.byte	0x7
 1148 0207 D0       		.byte	0xd0
 1149 0208 B9040000 		.4byte	0x4b9
 1150 020c 3C       		.byte	0x3c
 1151 020d 06       		.uleb128 0x6
 1152 020e 00040000 		.4byte	.LASF44
 1153 0212 07       		.byte	0x7
 1154 0213 D4       		.byte	0xd4
 1155 0214 E7000000 		.4byte	0xe7
 1156 0218 40       		.byte	0x40
 1157 0219 06       		.uleb128 0x6
 1158 021a 80000000 		.4byte	.LASF45
 1159 021e 07       		.byte	0x7
 1160 021f DA       		.byte	0xda
 1161 0220 83020000 		.4byte	0x283
 1162 0224 44       		.byte	0x44
 1163 0225 00       		.byte	0
 1164 0226 08       		.uleb128 0x8
 1165 0227 08       		.byte	0x8
 1166 0228 06       		.byte	0x6
 1167 0229 61       		.byte	0x61
 1168 022a 47020000 		.4byte	0x247
 1169 022e 06       		.uleb128 0x6
 1170 022f 64030000 		.4byte	.LASF27
 1171 0233 06       		.byte	0x6
 1172 0234 62       		.byte	0x62
 1173 0235 47020000 		.4byte	0x247
 1174 0239 00       		.byte	0
 1175 023a 06       		.uleb128 0x6
 1176 023b FC020000 		.4byte	.LASF28
 1177 023f 06       		.byte	0x6
 1178 0240 64       		.byte	0x64
 1179 0241 47020000 		.4byte	0x247
 1180 0245 04       		.byte	0x4
 1181 0246 00       		.byte	0
 1182 0247 09       		.uleb128 0x9
 1183 0248 04       		.byte	0x4
 1184 0249 1E010000 		.4byte	0x11e
 1185 024d 04       		.uleb128 0x4
 1186 024e CD020000 		.4byte	.LASF46
 1187 0252 06       		.byte	0x6
 1188 0253 66       		.byte	0x66
 1189 0254 26020000 		.4byte	0x226
 1190 0258 08       		.uleb128 0x8
 1191 0259 04       		.byte	0x4
 1192 025a 06       		.byte	0x6
 1193 025b 6B       		.byte	0x6b
ARM GAS  /var/folders/6q/x_mk5n_j3p7_c40r_2k_78980000gn/T//ccdCZv55.s 			page 22


 1194 025c 6D020000 		.4byte	0x26d
 1195 0260 06       		.uleb128 0x6
 1196 0261 64030000 		.4byte	.LASF27
 1197 0265 06       		.byte	0x6
 1198 0266 6D       		.byte	0x6d
 1199 0267 47020000 		.4byte	0x247
 1200 026b 00       		.byte	0
 1201 026c 00       		.byte	0
 1202 026d 04       		.uleb128 0x4
 1203 026e 63020000 		.4byte	.LASF47
 1204 0272 06       		.byte	0x6
 1205 0273 70       		.byte	0x70
 1206 0274 58020000 		.4byte	0x258
 1207 0278 04       		.uleb128 0x4
 1208 0279 D8000000 		.4byte	.LASF48
 1209 027d 08       		.byte	0x8
 1210 027e E5       		.byte	0xe5
 1211 027f 83020000 		.4byte	0x283
 1212 0283 0A       		.uleb128 0xa
 1213 0284 04       		.byte	0x4
 1214 0285 0B       		.uleb128 0xb
 1215 0286 1C040000 		.4byte	.LASF49
 1216 028a 24       		.byte	0x24
 1217 028b 08       		.byte	0x8
 1218 028c 0C01     		.2byte	0x10c
 1219 028e 01030000 		.4byte	0x301
 1220 0292 0C       		.uleb128 0xc
 1221 0293 723400   		.ascii	"r4\000"
 1222 0296 08       		.byte	0x8
 1223 0297 1F01     		.2byte	0x11f
 1224 0299 78020000 		.4byte	0x278
 1225 029d 00       		.byte	0
 1226 029e 0C       		.uleb128 0xc
 1227 029f 723500   		.ascii	"r5\000"
 1228 02a2 08       		.byte	0x8
 1229 02a3 2001     		.2byte	0x120
 1230 02a5 78020000 		.4byte	0x278
 1231 02a9 04       		.byte	0x4
 1232 02aa 0C       		.uleb128 0xc
 1233 02ab 723600   		.ascii	"r6\000"
 1234 02ae 08       		.byte	0x8
 1235 02af 2101     		.2byte	0x121
 1236 02b1 78020000 		.4byte	0x278
 1237 02b5 08       		.byte	0x8
 1238 02b6 0C       		.uleb128 0xc
 1239 02b7 723700   		.ascii	"r7\000"
 1240 02ba 08       		.byte	0x8
 1241 02bb 2201     		.2byte	0x122
 1242 02bd 78020000 		.4byte	0x278
 1243 02c1 0C       		.byte	0xc
 1244 02c2 0C       		.uleb128 0xc
 1245 02c3 723800   		.ascii	"r8\000"
 1246 02c6 08       		.byte	0x8
 1247 02c7 2301     		.2byte	0x123
 1248 02c9 78020000 		.4byte	0x278
 1249 02cd 10       		.byte	0x10
 1250 02ce 0C       		.uleb128 0xc
ARM GAS  /var/folders/6q/x_mk5n_j3p7_c40r_2k_78980000gn/T//ccdCZv55.s 			page 23


 1251 02cf 723900   		.ascii	"r9\000"
 1252 02d2 08       		.byte	0x8
 1253 02d3 2401     		.2byte	0x124
 1254 02d5 78020000 		.4byte	0x278
 1255 02d9 14       		.byte	0x14
 1256 02da 0C       		.uleb128 0xc
 1257 02db 72313000 		.ascii	"r10\000"
 1258 02df 08       		.byte	0x8
 1259 02e0 2501     		.2byte	0x125
 1260 02e2 78020000 		.4byte	0x278
 1261 02e6 18       		.byte	0x18
 1262 02e7 0C       		.uleb128 0xc
 1263 02e8 72313100 		.ascii	"r11\000"
 1264 02ec 08       		.byte	0x8
 1265 02ed 2601     		.2byte	0x126
 1266 02ef 78020000 		.4byte	0x278
 1267 02f3 1C       		.byte	0x1c
 1268 02f4 0C       		.uleb128 0xc
 1269 02f5 6C7200   		.ascii	"lr\000"
 1270 02f8 08       		.byte	0x8
 1271 02f9 2701     		.2byte	0x127
 1272 02fb 78020000 		.4byte	0x278
 1273 02ff 20       		.byte	0x20
 1274 0300 00       		.byte	0
 1275 0301 0B       		.uleb128 0xb
 1276 0302 25020000 		.4byte	.LASF50
 1277 0306 04       		.byte	0x4
 1278 0307 08       		.byte	0x8
 1279 0308 3101     		.2byte	0x131
 1280 030a 1C030000 		.4byte	0x31c
 1281 030e 0C       		.uleb128 0xc
 1282 030f 72313300 		.ascii	"r13\000"
 1283 0313 08       		.byte	0x8
 1284 0314 3201     		.2byte	0x132
 1285 0316 1C030000 		.4byte	0x31c
 1286 031a 00       		.byte	0
 1287 031b 00       		.byte	0
 1288 031c 09       		.uleb128 0x9
 1289 031d 04       		.byte	0x4
 1290 031e 85020000 		.4byte	0x285
 1291 0322 03       		.uleb128 0x3
 1292 0323 04       		.byte	0x4
 1293 0324 07       		.byte	0x7
 1294 0325 89020000 		.4byte	.LASF51
 1295 0329 04       		.uleb128 0x4
 1296 032a 3C010000 		.4byte	.LASF52
 1297 032e 09       		.byte	0x9
 1298 032f 58       		.byte	0x58
 1299 0330 34030000 		.4byte	0x334
 1300 0334 09       		.uleb128 0x9
 1301 0335 04       		.byte	0x4
 1302 0336 3A030000 		.4byte	0x33a
 1303 033a 0D       		.uleb128 0xd
 1304 033b 45030000 		.4byte	0x345
 1305 033f 0E       		.uleb128 0xe
 1306 0340 83020000 		.4byte	0x283
 1307 0344 00       		.byte	0
ARM GAS  /var/folders/6q/x_mk5n_j3p7_c40r_2k_78980000gn/T//ccdCZv55.s 			page 24


 1308 0345 04       		.uleb128 0x4
 1309 0346 AF030000 		.4byte	.LASF53
 1310 034a 09       		.byte	0x9
 1311 034b 5D       		.byte	0x5d
 1312 034c 50030000 		.4byte	0x350
 1313 0350 05       		.uleb128 0x5
 1314 0351 AF030000 		.4byte	.LASF53
 1315 0355 14       		.byte	0x14
 1316 0356 09       		.byte	0x9
 1317 0357 64       		.byte	0x64
 1318 0358 99030000 		.4byte	0x399
 1319 035c 06       		.uleb128 0x6
 1320 035d 15010000 		.4byte	.LASF54
 1321 0361 09       		.byte	0x9
 1322 0362 65       		.byte	0x65
 1323 0363 99030000 		.4byte	0x399
 1324 0367 00       		.byte	0
 1325 0368 06       		.uleb128 0x6
 1326 0369 E1000000 		.4byte	.LASF55
 1327 036d 09       		.byte	0x9
 1328 036e 67       		.byte	0x67
 1329 036f 99030000 		.4byte	0x399
 1330 0373 04       		.byte	0x4
 1331 0374 06       		.uleb128 0x6
 1332 0375 81020000 		.4byte	.LASF56
 1333 0379 09       		.byte	0x9
 1334 037a 69       		.byte	0x69
 1335 037b 08010000 		.4byte	0x108
 1336 037f 08       		.byte	0x8
 1337 0380 06       		.uleb128 0x6
 1338 0381 06000000 		.4byte	.LASF57
 1339 0385 09       		.byte	0x9
 1340 0386 6A       		.byte	0x6a
 1341 0387 29030000 		.4byte	0x329
 1342 038b 0C       		.byte	0xc
 1343 038c 06       		.uleb128 0x6
 1344 038d 33040000 		.4byte	.LASF58
 1345 0391 09       		.byte	0x9
 1346 0392 6C       		.byte	0x6c
 1347 0393 83020000 		.4byte	0x283
 1348 0397 10       		.byte	0x10
 1349 0398 00       		.byte	0
 1350 0399 09       		.uleb128 0x9
 1351 039a 04       		.byte	0x4
 1352 039b 45030000 		.4byte	0x345
 1353 039f 0F       		.uleb128 0xf
 1354 03a0 08010000 		.4byte	0x108
 1355 03a4 08       		.uleb128 0x8
 1356 03a5 1C       		.byte	0x1c
 1357 03a6 0A       		.byte	0xa
 1358 03a7 5E       		.byte	0x5e
 1359 03a8 F5030000 		.4byte	0x3f5
 1360 03ac 06       		.uleb128 0x6
 1361 03ad A7030000 		.4byte	.LASF59
 1362 03b1 0A       		.byte	0xa
 1363 03b2 5F       		.byte	0x5f
 1364 03b3 4D020000 		.4byte	0x24d
ARM GAS  /var/folders/6q/x_mk5n_j3p7_c40r_2k_78980000gn/T//ccdCZv55.s 			page 25


 1365 03b7 00       		.byte	0
 1366 03b8 06       		.uleb128 0x6
 1367 03b9 56030000 		.4byte	.LASF60
 1368 03bd 0A       		.byte	0xa
 1369 03be 60       		.byte	0x60
 1370 03bf E7000000 		.4byte	0xe7
 1371 03c3 08       		.byte	0x8
 1372 03c4 06       		.uleb128 0x6
 1373 03c5 C7020000 		.4byte	.LASF61
 1374 03c9 0A       		.byte	0xa
 1375 03ca 62       		.byte	0x62
 1376 03cb 01030000 		.4byte	0x301
 1377 03cf 0C       		.byte	0xc
 1378 03d0 06       		.uleb128 0x6
 1379 03d1 53020000 		.4byte	.LASF62
 1380 03d5 0A       		.byte	0xa
 1381 03d6 65       		.byte	0x65
 1382 03d7 47020000 		.4byte	0x247
 1383 03db 10       		.byte	0x10
 1384 03dc 06       		.uleb128 0x6
 1385 03dd EC020000 		.4byte	.LASF63
 1386 03e1 0A       		.byte	0xa
 1387 03e2 66       		.byte	0x66
 1388 03e3 47020000 		.4byte	0x247
 1389 03e7 14       		.byte	0x14
 1390 03e8 06       		.uleb128 0x6
 1391 03e9 E2020000 		.4byte	.LASF64
 1392 03ed 0A       		.byte	0xa
 1393 03ee 69       		.byte	0x69
 1394 03ef 47020000 		.4byte	0x247
 1395 03f3 18       		.byte	0x18
 1396 03f4 00       		.byte	0
 1397 03f5 04       		.uleb128 0x4
 1398 03f6 52040000 		.4byte	.LASF65
 1399 03fa 0A       		.byte	0xa
 1400 03fb 6B       		.byte	0x6b
 1401 03fc A4030000 		.4byte	0x3a4
 1402 0400 05       		.uleb128 0x5
 1403 0401 3A040000 		.4byte	.LASF66
 1404 0405 0C       		.byte	0xc
 1405 0406 0B       		.byte	0xb
 1406 0407 2C       		.byte	0x2c
 1407 0408 25040000 		.4byte	0x425
 1408 040c 06       		.uleb128 0x6
 1409 040d B4000000 		.4byte	.LASF67
 1410 0411 0B       		.byte	0xb
 1411 0412 2D       		.byte	0x2d
 1412 0413 4D020000 		.4byte	0x24d
 1413 0417 00       		.byte	0
 1414 0418 06       		.uleb128 0x6
 1415 0419 1F020000 		.4byte	.LASF68
 1416 041d 0B       		.byte	0xb
 1417 041e 2F       		.byte	0x2f
 1418 041f 13010000 		.4byte	0x113
 1419 0423 08       		.byte	0x8
 1420 0424 00       		.byte	0
 1421 0425 04       		.uleb128 0x4
ARM GAS  /var/folders/6q/x_mk5n_j3p7_c40r_2k_78980000gn/T//ccdCZv55.s 			page 26


 1422 0426 3A040000 		.4byte	.LASF66
 1423 042a 0B       		.byte	0xb
 1424 042b 30       		.byte	0x30
 1425 042c 00040000 		.4byte	0x400
 1426 0430 05       		.uleb128 0x5
 1427 0431 7B020000 		.4byte	.LASF69
 1428 0435 10       		.byte	0x10
 1429 0436 0C       		.byte	0xc
 1430 0437 2C       		.byte	0x2c
 1431 0438 61040000 		.4byte	0x461
 1432 043c 06       		.uleb128 0x6
 1433 043d 88000000 		.4byte	.LASF70
 1434 0441 0C       		.byte	0xc
 1435 0442 2D       		.byte	0x2d
 1436 0443 4D020000 		.4byte	0x24d
 1437 0447 00       		.byte	0
 1438 0448 06       		.uleb128 0x6
 1439 0449 AF040000 		.4byte	.LASF71
 1440 044d 0C       		.byte	0xc
 1441 044e 2F       		.byte	0x2f
 1442 044f 47020000 		.4byte	0x247
 1443 0453 08       		.byte	0x8
 1444 0454 06       		.uleb128 0x6
 1445 0455 EF030000 		.4byte	.LASF72
 1446 0459 0C       		.byte	0xc
 1447 045a 31       		.byte	0x31
 1448 045b 61040000 		.4byte	0x461
 1449 045f 0C       		.byte	0xc
 1450 0460 00       		.byte	0
 1451 0461 09       		.uleb128 0x9
 1452 0462 04       		.byte	0x4
 1453 0463 30040000 		.4byte	0x430
 1454 0467 04       		.uleb128 0x4
 1455 0468 7B020000 		.4byte	.LASF69
 1456 046c 0C       		.byte	0xc
 1457 046d 33       		.byte	0x33
 1458 046e 30040000 		.4byte	0x430
 1459 0472 10       		.uleb128 0x10
 1460 0473 04       		.byte	0x4
 1461 0474 07       		.byte	0x7
 1462 0475 96       		.byte	0x96
 1463 0476 A7040000 		.4byte	0x4a7
 1464 047a 11       		.uleb128 0x11
 1465 047b 44040000 		.4byte	.LASF73
 1466 047f 07       		.byte	0x7
 1467 0480 9D       		.byte	0x9d
 1468 0481 F2000000 		.4byte	0xf2
 1469 0485 11       		.uleb128 0x11
 1470 0486 46000000 		.4byte	.LASF74
 1471 048a 07       		.byte	0x7
 1472 048b A4       		.byte	0xa4
 1473 048c F2000000 		.4byte	0xf2
 1474 0490 11       		.uleb128 0x11
 1475 0491 8C040000 		.4byte	.LASF75
 1476 0495 07       		.byte	0x7
 1477 0496 AB       		.byte	0xab
 1478 0497 83020000 		.4byte	0x283
ARM GAS  /var/folders/6q/x_mk5n_j3p7_c40r_2k_78980000gn/T//ccdCZv55.s 			page 27


 1479 049b 11       		.uleb128 0x11
 1480 049c 5D030000 		.4byte	.LASF76
 1481 04a0 07       		.byte	0x7
 1482 04a1 B2       		.byte	0xb2
 1483 04a2 FD000000 		.4byte	0xfd
 1484 04a6 00       		.byte	0
 1485 04a7 09       		.uleb128 0x9
 1486 04a8 04       		.byte	0x4
 1487 04a9 B4040000 		.4byte	0x4b4
 1488 04ad 03       		.uleb128 0x3
 1489 04ae 01       		.byte	0x1
 1490 04af 08       		.byte	0x8
 1491 04b0 BC030000 		.4byte	.LASF77
 1492 04b4 12       		.uleb128 0x12
 1493 04b5 AD040000 		.4byte	0x4ad
 1494 04b9 09       		.uleb128 0x9
 1495 04ba 04       		.byte	0x4
 1496 04bb 67040000 		.4byte	0x467
 1497 04bf 13       		.uleb128 0x13
 1498 04c0 DA020000 		.4byte	.LASF78
 1499 04c4 02       		.byte	0x2
 1500 04c5 49       		.byte	0x49
 1501 04c6 47020000 		.4byte	0x247
 1502 04ca 03       		.byte	0x3
 1503 04cb DA040000 		.4byte	0x4da
 1504 04cf 14       		.uleb128 0x14
 1505 04d0 747000   		.ascii	"tp\000"
 1506 04d3 02       		.byte	0x2
 1507 04d4 49       		.byte	0x49
 1508 04d5 47020000 		.4byte	0x247
 1509 04d9 00       		.byte	0
 1510 04da 15       		.uleb128 0x15
 1511 04db E3030000 		.4byte	.LASF94
 1512 04df 01       		.byte	0x1
 1513 04e0 51       		.byte	0x51
 1514 04e1 47020000 		.4byte	0x247
 1515 04e5 01       		.byte	0x1
 1516 04e6 FF040000 		.4byte	0x4ff
 1517 04ea 14       		.uleb128 0x14
 1518 04eb 747000   		.ascii	"tp\000"
 1519 04ee 01       		.byte	0x1
 1520 04ef 51       		.byte	0x51
 1521 04f0 47020000 		.4byte	0x247
 1522 04f4 16       		.uleb128 0x16
 1523 04f5 637000   		.ascii	"cp\000"
 1524 04f8 01       		.byte	0x1
 1525 04f9 52       		.byte	0x52
 1526 04fa 47020000 		.4byte	0x247
 1527 04fe 00       		.byte	0
 1528 04ff 17       		.uleb128 0x17
 1529 0500 0E010000 		.4byte	.LASF95
 1530 0504 01       		.byte	0x1
 1531 0505 88       		.byte	0x88
 1532 0506 01       		.byte	0x1
 1533 0507 4E050000 		.4byte	0x54e
 1534 050b 14       		.uleb128 0x14
 1535 050c 7000     		.ascii	"p\000"
ARM GAS  /var/folders/6q/x_mk5n_j3p7_c40r_2k_78980000gn/T//ccdCZv55.s 			page 28


 1536 050e 01       		.byte	0x1
 1537 050f 88       		.byte	0x88
 1538 0510 83020000 		.4byte	0x283
 1539 0514 16       		.uleb128 0x16
 1540 0515 747000   		.ascii	"tp\000"
 1541 0518 01       		.byte	0x1
 1542 0519 89       		.byte	0x89
 1543 051a 47020000 		.4byte	0x247
 1544 051e 18       		.uleb128 0x18
 1545 051f 2F050000 		.4byte	0x52f
 1546 0523 16       		.uleb128 0x16
 1547 0524 746D7000 		.ascii	"tmp\000"
 1548 0528 01       		.byte	0x1
 1549 0529 8B       		.byte	0x8b
 1550 052a A9000000 		.4byte	0xa9
 1551 052e 00       		.byte	0
 1552 052f 18       		.uleb128 0x18
 1553 0530 40050000 		.4byte	0x540
 1554 0534 16       		.uleb128 0x16
 1555 0535 746D7000 		.ascii	"tmp\000"
 1556 0539 01       		.byte	0x1
 1557 053a 90       		.byte	0x90
 1558 053b A9000000 		.4byte	0xa9
 1559 053f 00       		.byte	0
 1560 0540 19       		.uleb128 0x19
 1561 0541 16       		.uleb128 0x16
 1562 0542 746D7000 		.ascii	"tmp\000"
 1563 0546 01       		.byte	0x1
 1564 0547 A5       		.byte	0xa5
 1565 0548 A9000000 		.4byte	0xa9
 1566 054c 00       		.byte	0
 1567 054d 00       		.byte	0
 1568 054e 13       		.uleb128 0x13
 1569 054f C7040000 		.4byte	.LASF79
 1570 0553 02       		.byte	0x2
 1571 0554 3B       		.byte	0x3b
 1572 0555 47020000 		.4byte	0x247
 1573 0559 03       		.byte	0x3
 1574 055a 74050000 		.4byte	0x574
 1575 055e 14       		.uleb128 0x14
 1576 055f 74717000 		.ascii	"tqp\000"
 1577 0563 02       		.byte	0x2
 1578 0564 3B       		.byte	0x3b
 1579 0565 74050000 		.4byte	0x574
 1580 0569 16       		.uleb128 0x16
 1581 056a 747000   		.ascii	"tp\000"
 1582 056d 02       		.byte	0x2
 1583 056e 3C       		.byte	0x3c
 1584 056f 47020000 		.4byte	0x247
 1585 0573 00       		.byte	0
 1586 0574 09       		.uleb128 0x9
 1587 0575 04       		.byte	0x4
 1588 0576 4D020000 		.4byte	0x24d
 1589 057a 1A       		.uleb128 0x1a
 1590 057b FF040000 		.4byte	0x4ff
 1591 057f 00000000 		.4byte	.LFB10
 1592 0583 6C000000 		.4byte	.LFE10-.LFB10
ARM GAS  /var/folders/6q/x_mk5n_j3p7_c40r_2k_78980000gn/T//ccdCZv55.s 			page 29


 1593 0587 01       		.uleb128 0x1
 1594 0588 9C       		.byte	0x9c
 1595 0589 5E060000 		.4byte	0x65e
 1596 058d 1B       		.uleb128 0x1b
 1597 058e 0B050000 		.4byte	0x50b
 1598 0592 01       		.uleb128 0x1
 1599 0593 50       		.byte	0x50
 1600 0594 1C       		.uleb128 0x1c
 1601 0595 14050000 		.4byte	0x514
 1602 0599 01       		.uleb128 0x1
 1603 059a 50       		.byte	0x50
 1604 059b 1D       		.uleb128 0x1d
 1605 059c 02000000 		.4byte	.LBB44
 1606 05a0 06000000 		.4byte	.LBE44-.LBB44
 1607 05a4 B0050000 		.4byte	0x5b0
 1608 05a8 1C       		.uleb128 0x1c
 1609 05a9 23050000 		.4byte	0x523
 1610 05ad 01       		.uleb128 0x1
 1611 05ae 53       		.byte	0x53
 1612 05af 00       		.byte	0
 1613 05b0 1E       		.uleb128 0x1e
 1614 05b1 BF040000 		.4byte	0x4bf
 1615 05b5 28000000 		.4byte	.LBB45
 1616 05b9 0A000000 		.4byte	.LBE45-.LBB45
 1617 05bd 01       		.byte	0x1
 1618 05be A0       		.byte	0xa0
 1619 05bf CD050000 		.4byte	0x5cd
 1620 05c3 1F       		.uleb128 0x1f
 1621 05c4 CF040000 		.4byte	0x4cf
 1622 05c8 00000000 		.4byte	.LLST0
 1623 05cc 00       		.byte	0
 1624 05cd 20       		.uleb128 0x20
 1625 05ce DA040000 		.4byte	0x4da
 1626 05d2 36000000 		.4byte	.LBB47
 1627 05d6 00000000 		.4byte	.Ldebug_ranges0+0
 1628 05da 01       		.byte	0x1
 1629 05db A4       		.byte	0xa4
 1630 05dc F9050000 		.4byte	0x5f9
 1631 05e0 1F       		.uleb128 0x1f
 1632 05e1 EA040000 		.4byte	0x4ea
 1633 05e5 13000000 		.4byte	.LLST1
 1634 05e9 21       		.uleb128 0x21
 1635 05ea 00000000 		.4byte	.Ldebug_ranges0+0
 1636 05ee 22       		.uleb128 0x22
 1637 05ef F4040000 		.4byte	0x4f4
 1638 05f3 26000000 		.4byte	.LLST2
 1639 05f7 00       		.byte	0
 1640 05f8 00       		.byte	0
 1641 05f9 23       		.uleb128 0x23
 1642 05fa 18000000 		.4byte	.Ldebug_ranges0+0x18
 1643 05fe 4C060000 		.4byte	0x64c
 1644 0602 1F       		.uleb128 0x1f
 1645 0603 0B050000 		.4byte	0x50b
 1646 0607 3E000000 		.4byte	.LLST3
 1647 060b 21       		.uleb128 0x21
 1648 060c 18000000 		.4byte	.Ldebug_ranges0+0x18
 1649 0610 24       		.uleb128 0x24
ARM GAS  /var/folders/6q/x_mk5n_j3p7_c40r_2k_78980000gn/T//ccdCZv55.s 			page 30


 1650 0611 14050000 		.4byte	0x514
 1651 0615 20       		.uleb128 0x20
 1652 0616 DA040000 		.4byte	0x4da
 1653 061a 3A000000 		.4byte	.LBB52
 1654 061e 30000000 		.4byte	.Ldebug_ranges0+0x30
 1655 0622 01       		.byte	0x1
 1656 0623 A4       		.byte	0xa4
 1657 0624 3D060000 		.4byte	0x63d
 1658 0628 25       		.uleb128 0x25
 1659 0629 EA040000 		.4byte	0x4ea
 1660 062d 21       		.uleb128 0x21
 1661 062e 30000000 		.4byte	.Ldebug_ranges0+0x30
 1662 0632 22       		.uleb128 0x22
 1663 0633 F4040000 		.4byte	0x4f4
 1664 0637 51000000 		.4byte	.LLST4
 1665 063b 00       		.byte	0
 1666 063c 00       		.byte	0
 1667 063d 21       		.uleb128 0x21
 1668 063e 50000000 		.4byte	.Ldebug_ranges0+0x50
 1669 0642 1C       		.uleb128 0x1c
 1670 0643 41050000 		.4byte	0x541
 1671 0647 01       		.uleb128 0x1
 1672 0648 53       		.byte	0x53
 1673 0649 00       		.byte	0
 1674 064a 00       		.byte	0
 1675 064b 00       		.byte	0
 1676 064c 26       		.uleb128 0x26
 1677 064d 5C000000 		.4byte	.LBB63
 1678 0651 06000000 		.4byte	.LBE63-.LBB63
 1679 0655 1C       		.uleb128 0x1c
 1680 0656 34050000 		.4byte	0x534
 1681 065a 01       		.uleb128 0x1
 1682 065b 53       		.byte	0x53
 1683 065c 00       		.byte	0
 1684 065d 00       		.byte	0
 1685 065e 27       		.uleb128 0x27
 1686 065f 56000000 		.4byte	.LASF96
 1687 0663 01       		.byte	0x1
 1688 0664 37       		.byte	0x37
 1689 0665 00000000 		.4byte	.LFB7
 1690 0669 14000000 		.4byte	.LFE7-.LFB7
 1691 066d 01       		.uleb128 0x1
 1692 066e 9C       		.byte	0x9c
 1693 066f 1A       		.uleb128 0x1a
 1694 0670 DA040000 		.4byte	0x4da
 1695 0674 00000000 		.4byte	.LFB8
 1696 0678 28000000 		.4byte	.LFE8-.LFB8
 1697 067c 01       		.uleb128 0x1
 1698 067d 9C       		.byte	0x9c
 1699 067e 93060000 		.4byte	0x693
 1700 0682 1F       		.uleb128 0x1f
 1701 0683 EA040000 		.4byte	0x4ea
 1702 0687 64000000 		.4byte	.LLST5
 1703 068b 1C       		.uleb128 0x1c
 1704 068c F4040000 		.4byte	0x4f4
 1705 0690 01       		.uleb128 0x1
 1706 0691 53       		.byte	0x53
ARM GAS  /var/folders/6q/x_mk5n_j3p7_c40r_2k_78980000gn/T//ccdCZv55.s 			page 31


 1707 0692 00       		.byte	0
 1708 0693 28       		.uleb128 0x28
 1709 0694 85030000 		.4byte	.LASF82
 1710 0698 01       		.byte	0x1
 1711 0699 73       		.byte	0x73
 1712 069a 00000000 		.4byte	.LFB9
 1713 069e 28000000 		.4byte	.LFE9-.LFB9
 1714 06a2 01       		.uleb128 0x1
 1715 06a3 9C       		.byte	0x9c
 1716 06a4 FC060000 		.4byte	0x6fc
 1717 06a8 29       		.uleb128 0x29
 1718 06a9 27030000 		.4byte	.LASF80
 1719 06ad 01       		.byte	0x1
 1720 06ae 73       		.byte	0x73
 1721 06af C6000000 		.4byte	0xc6
 1722 06b3 8D000000 		.4byte	.LLST6
 1723 06b7 2A       		.uleb128 0x2a
 1724 06b8 6F747000 		.ascii	"otp\000"
 1725 06bc 01       		.byte	0x1
 1726 06bd 74       		.byte	0x74
 1727 06be 47020000 		.4byte	0x247
 1728 06c2 AE000000 		.4byte	.LLST7
 1729 06c6 20       		.uleb128 0x20
 1730 06c7 4E050000 		.4byte	0x54e
 1731 06cb 06000000 		.4byte	.LBB64
 1732 06cf 68000000 		.4byte	.Ldebug_ranges0+0x68
 1733 06d3 01       		.byte	0x1
 1734 06d4 7E       		.byte	0x7e
 1735 06d5 F2060000 		.4byte	0x6f2
 1736 06d9 1F       		.uleb128 0x1f
 1737 06da 5E050000 		.4byte	0x55e
 1738 06de C1000000 		.4byte	.LLST8
 1739 06e2 21       		.uleb128 0x21
 1740 06e3 68000000 		.4byte	.Ldebug_ranges0+0x68
 1741 06e7 22       		.uleb128 0x22
 1742 06e8 69050000 		.4byte	0x569
 1743 06ec D9000000 		.4byte	.LLST9
 1744 06f0 00       		.byte	0
 1745 06f1 00       		.byte	0
 1746 06f2 2B       		.uleb128 0x2b
 1747 06f3 22000000 		.4byte	.LVL18
 1748 06f7 A1090000 		.4byte	0x9a1
 1749 06fb 00       		.byte	0
 1750 06fc 2C       		.uleb128 0x2c
 1751 06fd 9A040000 		.4byte	.LASF97
 1752 0701 01       		.byte	0x1
 1753 0702 BD       		.byte	0xbd
 1754 0703 F2000000 		.4byte	0xf2
 1755 0707 00000000 		.4byte	.LFB11
 1756 070b 44000000 		.4byte	.LFE11-.LFB11
 1757 070f 01       		.uleb128 0x1
 1758 0710 9C       		.byte	0x9c
 1759 0711 A0070000 		.4byte	0x7a0
 1760 0715 29       		.uleb128 0x29
 1761 0716 27030000 		.4byte	.LASF80
 1762 071a 01       		.byte	0x1
 1763 071b BD       		.byte	0xbd
ARM GAS  /var/folders/6q/x_mk5n_j3p7_c40r_2k_78980000gn/T//ccdCZv55.s 			page 32


 1764 071c C6000000 		.4byte	0xc6
 1765 0720 EC000000 		.4byte	.LLST10
 1766 0724 29       		.uleb128 0x29
 1767 0725 2E040000 		.4byte	.LASF81
 1768 0729 01       		.byte	0x1
 1769 072a BD       		.byte	0xbd
 1770 072b 08010000 		.4byte	0x108
 1771 072f 26010000 		.4byte	.LLST11
 1772 0733 1D       		.uleb128 0x1d
 1773 0734 0A000000 		.4byte	.LBB72
 1774 0738 1C000000 		.4byte	.LBE72-.LBB72
 1775 073c 96070000 		.4byte	0x796
 1776 0740 2D       		.uleb128 0x2d
 1777 0741 767400   		.ascii	"vt\000"
 1778 0744 01       		.byte	0x1
 1779 0745 C2       		.byte	0xc2
 1780 0746 45030000 		.4byte	0x345
 1781 074a 02       		.uleb128 0x2
 1782 074b 91       		.byte	0x91
 1783 074c 5C       		.sleb128 -36
 1784 074d 2E       		.uleb128 0x2e
 1785 074e 16000000 		.4byte	.LVL21
 1786 0752 AD090000 		.4byte	0x9ad
 1787 0756 71070000 		.4byte	0x771
 1788 075a 2F       		.uleb128 0x2f
 1789 075b 01       		.uleb128 0x1
 1790 075c 50       		.byte	0x50
 1791 075d 02       		.uleb128 0x2
 1792 075e 91       		.byte	0x91
 1793 075f 5C       		.sleb128 -36
 1794 0760 2F       		.uleb128 0x2f
 1795 0761 01       		.uleb128 0x1
 1796 0762 51       		.byte	0x51
 1797 0763 03       		.uleb128 0x3
 1798 0764 F3       		.byte	0xf3
 1799 0765 01       		.uleb128 0x1
 1800 0766 51       		.byte	0x51
 1801 0767 2F       		.uleb128 0x2f
 1802 0768 01       		.uleb128 0x1
 1803 0769 52       		.byte	0x52
 1804 076a 05       		.uleb128 0x5
 1805 076b 03       		.byte	0x3
 1806 076c 00000000 		.4byte	wakeup
 1807 0770 00       		.byte	0
 1808 0771 2E       		.uleb128 0x2e
 1809 0772 1C000000 		.4byte	.LVL22
 1810 0776 93060000 		.4byte	0x693
 1811 077a 85070000 		.4byte	0x785
 1812 077e 2F       		.uleb128 0x2f
 1813 077f 01       		.uleb128 0x1
 1814 0780 50       		.byte	0x50
 1815 0781 02       		.uleb128 0x2
 1816 0782 75       		.byte	0x75
 1817 0783 00       		.sleb128 0
 1818 0784 00       		.byte	0
 1819 0785 30       		.uleb128 0x30
 1820 0786 26000000 		.4byte	.LVL23
ARM GAS  /var/folders/6q/x_mk5n_j3p7_c40r_2k_78980000gn/T//ccdCZv55.s 			page 33


 1821 078a B8090000 		.4byte	0x9b8
 1822 078e 2F       		.uleb128 0x2f
 1823 078f 01       		.uleb128 0x1
 1824 0790 50       		.byte	0x50
 1825 0791 02       		.uleb128 0x2
 1826 0792 91       		.byte	0x91
 1827 0793 5C       		.sleb128 -36
 1828 0794 00       		.byte	0
 1829 0795 00       		.byte	0
 1830 0796 31       		.uleb128 0x31
 1831 0797 32000000 		.4byte	.LVL25
 1832 079b 93060000 		.4byte	0x693
 1833 079f 00       		.byte	0
 1834 07a0 28       		.uleb128 0x28
 1835 07a1 40020000 		.4byte	.LASF83
 1836 07a5 01       		.byte	0x1
 1837 07a6 E1       		.byte	0xe1
 1838 07a7 00000000 		.4byte	.LFB12
 1839 07ab 58000000 		.4byte	.LFE12-.LFB12
 1840 07af 01       		.uleb128 0x1
 1841 07b0 9C       		.byte	0x9c
 1842 07b1 52080000 		.4byte	0x852
 1843 07b5 32       		.uleb128 0x32
 1844 07b6 6E747000 		.ascii	"ntp\000"
 1845 07ba 01       		.byte	0x1
 1846 07bb E1       		.byte	0xe1
 1847 07bc 47020000 		.4byte	0x247
 1848 07c0 60010000 		.4byte	.LLST12
 1849 07c4 32       		.uleb128 0x32
 1850 07c5 6D736700 		.ascii	"msg\000"
 1851 07c9 01       		.byte	0x1
 1852 07ca E1       		.byte	0xe1
 1853 07cb F2000000 		.4byte	0xf2
 1854 07cf AE010000 		.4byte	.LLST13
 1855 07d3 1E       		.uleb128 0x1e
 1856 07d4 DA040000 		.4byte	0x4da
 1857 07d8 12000000 		.4byte	.LBB73
 1858 07dc 16000000 		.4byte	.LBE73-.LBB73
 1859 07e0 01       		.byte	0x1
 1860 07e1 EB       		.byte	0xeb
 1861 07e2 03080000 		.4byte	0x803
 1862 07e6 1F       		.uleb128 0x1f
 1863 07e7 EA040000 		.4byte	0x4ea
 1864 07eb 01020000 		.4byte	.LLST14
 1865 07ef 26       		.uleb128 0x26
 1866 07f0 12000000 		.4byte	.LBB74
 1867 07f4 16000000 		.4byte	.LBE74-.LBB74
 1868 07f8 22       		.uleb128 0x22
 1869 07f9 F4040000 		.4byte	0x4f4
 1870 07fd 20020000 		.4byte	.LLST15
 1871 0801 00       		.byte	0
 1872 0802 00       		.byte	0
 1873 0803 21       		.uleb128 0x21
 1874 0804 90000000 		.4byte	.Ldebug_ranges0+0x90
 1875 0808 16       		.uleb128 0x16
 1876 0809 6F747000 		.ascii	"otp\000"
 1877 080d 01       		.byte	0x1
ARM GAS  /var/folders/6q/x_mk5n_j3p7_c40r_2k_78980000gn/T//ccdCZv55.s 			page 34


 1878 080e ED       		.byte	0xed
 1879 080f 47020000 		.4byte	0x247
 1880 0813 20       		.uleb128 0x20
 1881 0814 DA040000 		.4byte	0x4da
 1882 0818 2C000000 		.4byte	.LBB76
 1883 081c A8000000 		.4byte	.Ldebug_ranges0+0xa8
 1884 0820 01       		.byte	0x1
 1885 0821 ED       		.byte	0xed
 1886 0822 3F080000 		.4byte	0x83f
 1887 0826 1F       		.uleb128 0x1f
 1888 0827 EA040000 		.4byte	0x4ea
 1889 082b 33020000 		.4byte	.LLST16
 1890 082f 21       		.uleb128 0x21
 1891 0830 A8000000 		.4byte	.Ldebug_ranges0+0xa8
 1892 0834 22       		.uleb128 0x22
 1893 0835 F4040000 		.4byte	0x4f4
 1894 0839 46020000 		.4byte	.LLST17
 1895 083d 00       		.byte	0
 1896 083e 00       		.byte	0
 1897 083f 33       		.uleb128 0x33
 1898 0840 54000000 		.4byte	.LVL39
 1899 0844 A1090000 		.4byte	0x9a1
 1900 0848 2F       		.uleb128 0x2f
 1901 0849 01       		.uleb128 0x1
 1902 084a 50       		.byte	0x50
 1903 084b 03       		.uleb128 0x3
 1904 084c F3       		.byte	0xf3
 1905 084d 01       		.uleb128 0x1
 1906 084e 50       		.byte	0x50
 1907 084f 00       		.byte	0
 1908 0850 00       		.byte	0
 1909 0851 00       		.byte	0
 1910 0852 34       		.uleb128 0x34
 1911 0853 9E020000 		.4byte	.LASF84
 1912 0857 01       		.byte	0x1
 1913 0858 3001     		.2byte	0x130
 1914 085a 00000000 		.4byte	.LFB14
 1915 085e 40000000 		.4byte	.LFE14-.LFB14
 1916 0862 01       		.uleb128 0x1
 1917 0863 9C       		.byte	0x9c
 1918 0864 DC080000 		.4byte	0x8dc
 1919 0868 35       		.uleb128 0x35
 1920 0869 6F747000 		.ascii	"otp\000"
 1921 086d 01       		.byte	0x1
 1922 086e 3101     		.2byte	0x131
 1923 0870 47020000 		.4byte	0x247
 1924 0874 59020000 		.4byte	.LLST18
 1925 0878 36       		.uleb128 0x36
 1926 0879 4E050000 		.4byte	0x54e
 1927 087d 04000000 		.4byte	.LBB81
 1928 0881 C0000000 		.4byte	.Ldebug_ranges0+0xc0
 1929 0885 01       		.byte	0x1
 1930 0886 3501     		.2byte	0x135
 1931 0888 A5080000 		.4byte	0x8a5
 1932 088c 1F       		.uleb128 0x1f
 1933 088d 5E050000 		.4byte	0x55e
 1934 0891 77020000 		.4byte	.LLST19
ARM GAS  /var/folders/6q/x_mk5n_j3p7_c40r_2k_78980000gn/T//ccdCZv55.s 			page 35


 1935 0895 21       		.uleb128 0x21
 1936 0896 C0000000 		.4byte	.Ldebug_ranges0+0xc0
 1937 089a 22       		.uleb128 0x22
 1938 089b 69050000 		.4byte	0x569
 1939 089f 8F020000 		.4byte	.LLST20
 1940 08a3 00       		.byte	0
 1941 08a4 00       		.byte	0
 1942 08a5 36       		.uleb128 0x36
 1943 08a6 DA040000 		.4byte	0x4da
 1944 08aa 12000000 		.4byte	.LBB88
 1945 08ae E8000000 		.4byte	.Ldebug_ranges0+0xe8
 1946 08b2 01       		.byte	0x1
 1947 08b3 3A01     		.2byte	0x13a
 1948 08b5 D2080000 		.4byte	0x8d2
 1949 08b9 1F       		.uleb128 0x1f
 1950 08ba EA040000 		.4byte	0x4ea
 1951 08be A2020000 		.4byte	.LLST21
 1952 08c2 21       		.uleb128 0x21
 1953 08c3 E8000000 		.4byte	.Ldebug_ranges0+0xe8
 1954 08c7 22       		.uleb128 0x22
 1955 08c8 F4040000 		.4byte	0x4f4
 1956 08cc B5020000 		.4byte	.LLST22
 1957 08d0 00       		.byte	0
 1958 08d1 00       		.byte	0
 1959 08d2 2B       		.uleb128 0x2b
 1960 08d3 3C000000 		.4byte	.LVL47
 1961 08d7 A1090000 		.4byte	0x9a1
 1962 08db 00       		.byte	0
 1963 08dc 34       		.uleb128 0x34
 1964 08dd 0E000000 		.4byte	.LASF85
 1965 08e1 01       		.byte	0x1
 1966 08e2 4901     		.2byte	0x149
 1967 08e4 00000000 		.4byte	.LFB15
 1968 08e8 3C000000 		.4byte	.LFE15-.LFB15
 1969 08ec 01       		.uleb128 0x1
 1970 08ed 9C       		.byte	0x9c
 1971 08ee 48090000 		.4byte	0x948
 1972 08f2 35       		.uleb128 0x35
 1973 08f3 6F747000 		.ascii	"otp\000"
 1974 08f7 01       		.byte	0x1
 1975 08f8 4A01     		.2byte	0x14a
 1976 08fa 47020000 		.4byte	0x247
 1977 08fe CD020000 		.4byte	.LLST23
 1978 0902 35       		.uleb128 0x35
 1979 0903 637000   		.ascii	"cp\000"
 1980 0906 01       		.byte	0x1
 1981 0907 4A01     		.2byte	0x14a
 1982 0909 47020000 		.4byte	0x247
 1983 090d EB020000 		.4byte	.LLST24
 1984 0911 36       		.uleb128 0x36
 1985 0912 4E050000 		.4byte	0x54e
 1986 0916 04000000 		.4byte	.LBB95
 1987 091a 08010000 		.4byte	.Ldebug_ranges0+0x108
 1988 091e 01       		.byte	0x1
 1989 091f 4E01     		.2byte	0x14e
 1990 0921 3E090000 		.4byte	0x93e
 1991 0925 1F       		.uleb128 0x1f
ARM GAS  /var/folders/6q/x_mk5n_j3p7_c40r_2k_78980000gn/T//ccdCZv55.s 			page 36


 1992 0926 5E050000 		.4byte	0x55e
 1993 092a 03030000 		.4byte	.LLST25
 1994 092e 21       		.uleb128 0x21
 1995 092f 08010000 		.4byte	.Ldebug_ranges0+0x108
 1996 0933 22       		.uleb128 0x22
 1997 0934 69050000 		.4byte	0x569
 1998 0938 1B030000 		.4byte	.LLST26
 1999 093c 00       		.byte	0
 2000 093d 00       		.byte	0
 2001 093e 2B       		.uleb128 0x2b
 2002 093f 38000000 		.4byte	.LVL53
 2003 0943 A1090000 		.4byte	0x9a1
 2004 0947 00       		.byte	0
 2005 0948 28       		.uleb128 0x28
 2006 0949 BC000000 		.4byte	.LASF86
 2007 094d 01       		.byte	0x1
 2008 094e FD       		.byte	0xfd
 2009 094f 00000000 		.4byte	.LFB13
 2010 0953 18000000 		.4byte	.LFE13-.LFB13
 2011 0957 01       		.uleb128 0x1
 2012 0958 9C       		.byte	0x9c
 2013 0959 67090000 		.4byte	0x967
 2014 095d 2B       		.uleb128 0x2b
 2015 095e 14000000 		.4byte	.LVL54
 2016 0962 DC080000 		.4byte	0x8dc
 2017 0966 00       		.byte	0
 2018 0967 34       		.uleb128 0x34
 2019 0968 E9000000 		.4byte	.LASF87
 2020 096c 01       		.byte	0x1
 2021 096d 6A01     		.2byte	0x16a
 2022 096f 00000000 		.4byte	.LFB16
 2023 0973 14000000 		.4byte	.LFE16-.LFB16
 2024 0977 01       		.uleb128 0x1
 2025 0978 9C       		.byte	0x9c
 2026 0979 90090000 		.4byte	0x990
 2027 097d 2B       		.uleb128 0x2b
 2028 097e 0C000000 		.4byte	.LVL55
 2029 0982 DC080000 		.4byte	0x8dc
 2030 0986 2B       		.uleb128 0x2b
 2031 0987 10000000 		.4byte	.LVL56
 2032 098b 52080000 		.4byte	0x852
 2033 098f 00       		.byte	0
 2034 0990 37       		.uleb128 0x37
 2035 0991 7E040000 		.4byte	.LASF98
 2036 0995 01       		.byte	0x1
 2037 0996 2F       		.byte	0x2f
 2038 0997 F5030000 		.4byte	0x3f5
 2039 099b 05       		.uleb128 0x5
 2040 099c 03       		.byte	0x3
 2041 099d 00000000 		.4byte	rlist
 2042 09a1 38       		.uleb128 0x38
 2043 09a2 1D010000 		.4byte	.LASF88
 2044 09a6 1D010000 		.4byte	.LASF88
 2045 09aa 08       		.byte	0x8
 2046 09ab 0602     		.2byte	0x206
 2047 09ad 39       		.uleb128 0x39
 2048 09ae B6020000 		.4byte	.LASF89
ARM GAS  /var/folders/6q/x_mk5n_j3p7_c40r_2k_78980000gn/T//ccdCZv55.s 			page 37


 2049 09b2 B6020000 		.4byte	.LASF89
 2050 09b6 09       		.byte	0x9
 2051 09b7 FE       		.byte	0xfe
 2052 09b8 39       		.uleb128 0x39
 2053 09b9 7A030000 		.4byte	.LASF90
 2054 09bd 7A030000 		.4byte	.LASF90
 2055 09c1 09       		.byte	0x9
 2056 09c2 FF       		.byte	0xff
 2057 09c3 00       		.byte	0
 2058              		.section	.debug_abbrev,"",%progbits
 2059              	.Ldebug_abbrev0:
 2060 0000 01       		.uleb128 0x1
 2061 0001 11       		.uleb128 0x11
 2062 0002 01       		.byte	0x1
 2063 0003 25       		.uleb128 0x25
 2064 0004 0E       		.uleb128 0xe
 2065 0005 13       		.uleb128 0x13
 2066 0006 0B       		.uleb128 0xb
 2067 0007 03       		.uleb128 0x3
 2068 0008 0E       		.uleb128 0xe
 2069 0009 1B       		.uleb128 0x1b
 2070 000a 0E       		.uleb128 0xe
 2071 000b 55       		.uleb128 0x55
 2072 000c 17       		.uleb128 0x17
 2073 000d 11       		.uleb128 0x11
 2074 000e 01       		.uleb128 0x1
 2075 000f 10       		.uleb128 0x10
 2076 0010 17       		.uleb128 0x17
 2077 0011 00       		.byte	0
 2078 0012 00       		.byte	0
 2079 0013 02       		.uleb128 0x2
 2080 0014 24       		.uleb128 0x24
 2081 0015 00       		.byte	0
 2082 0016 0B       		.uleb128 0xb
 2083 0017 0B       		.uleb128 0xb
 2084 0018 3E       		.uleb128 0x3e
 2085 0019 0B       		.uleb128 0xb
 2086 001a 03       		.uleb128 0x3
 2087 001b 08       		.uleb128 0x8
 2088 001c 00       		.byte	0
 2089 001d 00       		.byte	0
 2090 001e 03       		.uleb128 0x3
 2091 001f 24       		.uleb128 0x24
 2092 0020 00       		.byte	0
 2093 0021 0B       		.uleb128 0xb
 2094 0022 0B       		.uleb128 0xb
 2095 0023 3E       		.uleb128 0x3e
 2096 0024 0B       		.uleb128 0xb
 2097 0025 03       		.uleb128 0x3
 2098 0026 0E       		.uleb128 0xe
 2099 0027 00       		.byte	0
 2100 0028 00       		.byte	0
 2101 0029 04       		.uleb128 0x4
 2102 002a 16       		.uleb128 0x16
 2103 002b 00       		.byte	0
 2104 002c 03       		.uleb128 0x3
 2105 002d 0E       		.uleb128 0xe
ARM GAS  /var/folders/6q/x_mk5n_j3p7_c40r_2k_78980000gn/T//ccdCZv55.s 			page 38


 2106 002e 3A       		.uleb128 0x3a
 2107 002f 0B       		.uleb128 0xb
 2108 0030 3B       		.uleb128 0x3b
 2109 0031 0B       		.uleb128 0xb
 2110 0032 49       		.uleb128 0x49
 2111 0033 13       		.uleb128 0x13
 2112 0034 00       		.byte	0
 2113 0035 00       		.byte	0
 2114 0036 05       		.uleb128 0x5
 2115 0037 13       		.uleb128 0x13
 2116 0038 01       		.byte	0x1
 2117 0039 03       		.uleb128 0x3
 2118 003a 0E       		.uleb128 0xe
 2119 003b 0B       		.uleb128 0xb
 2120 003c 0B       		.uleb128 0xb
 2121 003d 3A       		.uleb128 0x3a
 2122 003e 0B       		.uleb128 0xb
 2123 003f 3B       		.uleb128 0x3b
 2124 0040 0B       		.uleb128 0xb
 2125 0041 01       		.uleb128 0x1
 2126 0042 13       		.uleb128 0x13
 2127 0043 00       		.byte	0
 2128 0044 00       		.byte	0
 2129 0045 06       		.uleb128 0x6
 2130 0046 0D       		.uleb128 0xd
 2131 0047 00       		.byte	0
 2132 0048 03       		.uleb128 0x3
 2133 0049 0E       		.uleb128 0xe
 2134 004a 3A       		.uleb128 0x3a
 2135 004b 0B       		.uleb128 0xb
 2136 004c 3B       		.uleb128 0x3b
 2137 004d 0B       		.uleb128 0xb
 2138 004e 49       		.uleb128 0x49
 2139 004f 13       		.uleb128 0x13
 2140 0050 38       		.uleb128 0x38
 2141 0051 0B       		.uleb128 0xb
 2142 0052 00       		.byte	0
 2143 0053 00       		.byte	0
 2144 0054 07       		.uleb128 0x7
 2145 0055 0D       		.uleb128 0xd
 2146 0056 00       		.byte	0
 2147 0057 03       		.uleb128 0x3
 2148 0058 08       		.uleb128 0x8
 2149 0059 3A       		.uleb128 0x3a
 2150 005a 0B       		.uleb128 0xb
 2151 005b 3B       		.uleb128 0x3b
 2152 005c 0B       		.uleb128 0xb
 2153 005d 49       		.uleb128 0x49
 2154 005e 13       		.uleb128 0x13
 2155 005f 38       		.uleb128 0x38
 2156 0060 0B       		.uleb128 0xb
 2157 0061 00       		.byte	0
 2158 0062 00       		.byte	0
 2159 0063 08       		.uleb128 0x8
 2160 0064 13       		.uleb128 0x13
 2161 0065 01       		.byte	0x1
 2162 0066 0B       		.uleb128 0xb
ARM GAS  /var/folders/6q/x_mk5n_j3p7_c40r_2k_78980000gn/T//ccdCZv55.s 			page 39


 2163 0067 0B       		.uleb128 0xb
 2164 0068 3A       		.uleb128 0x3a
 2165 0069 0B       		.uleb128 0xb
 2166 006a 3B       		.uleb128 0x3b
 2167 006b 0B       		.uleb128 0xb
 2168 006c 01       		.uleb128 0x1
 2169 006d 13       		.uleb128 0x13
 2170 006e 00       		.byte	0
 2171 006f 00       		.byte	0
 2172 0070 09       		.uleb128 0x9
 2173 0071 0F       		.uleb128 0xf
 2174 0072 00       		.byte	0
 2175 0073 0B       		.uleb128 0xb
 2176 0074 0B       		.uleb128 0xb
 2177 0075 49       		.uleb128 0x49
 2178 0076 13       		.uleb128 0x13
 2179 0077 00       		.byte	0
 2180 0078 00       		.byte	0
 2181 0079 0A       		.uleb128 0xa
 2182 007a 0F       		.uleb128 0xf
 2183 007b 00       		.byte	0
 2184 007c 0B       		.uleb128 0xb
 2185 007d 0B       		.uleb128 0xb
 2186 007e 00       		.byte	0
 2187 007f 00       		.byte	0
 2188 0080 0B       		.uleb128 0xb
 2189 0081 13       		.uleb128 0x13
 2190 0082 01       		.byte	0x1
 2191 0083 03       		.uleb128 0x3
 2192 0084 0E       		.uleb128 0xe
 2193 0085 0B       		.uleb128 0xb
 2194 0086 0B       		.uleb128 0xb
 2195 0087 3A       		.uleb128 0x3a
 2196 0088 0B       		.uleb128 0xb
 2197 0089 3B       		.uleb128 0x3b
 2198 008a 05       		.uleb128 0x5
 2199 008b 01       		.uleb128 0x1
 2200 008c 13       		.uleb128 0x13
 2201 008d 00       		.byte	0
 2202 008e 00       		.byte	0
 2203 008f 0C       		.uleb128 0xc
 2204 0090 0D       		.uleb128 0xd
 2205 0091 00       		.byte	0
 2206 0092 03       		.uleb128 0x3
 2207 0093 08       		.uleb128 0x8
 2208 0094 3A       		.uleb128 0x3a
 2209 0095 0B       		.uleb128 0xb
 2210 0096 3B       		.uleb128 0x3b
 2211 0097 05       		.uleb128 0x5
 2212 0098 49       		.uleb128 0x49
 2213 0099 13       		.uleb128 0x13
 2214 009a 38       		.uleb128 0x38
 2215 009b 0B       		.uleb128 0xb
 2216 009c 00       		.byte	0
 2217 009d 00       		.byte	0
 2218 009e 0D       		.uleb128 0xd
 2219 009f 15       		.uleb128 0x15
ARM GAS  /var/folders/6q/x_mk5n_j3p7_c40r_2k_78980000gn/T//ccdCZv55.s 			page 40


 2220 00a0 01       		.byte	0x1
 2221 00a1 27       		.uleb128 0x27
 2222 00a2 19       		.uleb128 0x19
 2223 00a3 01       		.uleb128 0x1
 2224 00a4 13       		.uleb128 0x13
 2225 00a5 00       		.byte	0
 2226 00a6 00       		.byte	0
 2227 00a7 0E       		.uleb128 0xe
 2228 00a8 05       		.uleb128 0x5
 2229 00a9 00       		.byte	0
 2230 00aa 49       		.uleb128 0x49
 2231 00ab 13       		.uleb128 0x13
 2232 00ac 00       		.byte	0
 2233 00ad 00       		.byte	0
 2234 00ae 0F       		.uleb128 0xf
 2235 00af 35       		.uleb128 0x35
 2236 00b0 00       		.byte	0
 2237 00b1 49       		.uleb128 0x49
 2238 00b2 13       		.uleb128 0x13
 2239 00b3 00       		.byte	0
 2240 00b4 00       		.byte	0
 2241 00b5 10       		.uleb128 0x10
 2242 00b6 17       		.uleb128 0x17
 2243 00b7 01       		.byte	0x1
 2244 00b8 0B       		.uleb128 0xb
 2245 00b9 0B       		.uleb128 0xb
 2246 00ba 3A       		.uleb128 0x3a
 2247 00bb 0B       		.uleb128 0xb
 2248 00bc 3B       		.uleb128 0x3b
 2249 00bd 0B       		.uleb128 0xb
 2250 00be 01       		.uleb128 0x1
 2251 00bf 13       		.uleb128 0x13
 2252 00c0 00       		.byte	0
 2253 00c1 00       		.byte	0
 2254 00c2 11       		.uleb128 0x11
 2255 00c3 0D       		.uleb128 0xd
 2256 00c4 00       		.byte	0
 2257 00c5 03       		.uleb128 0x3
 2258 00c6 0E       		.uleb128 0xe
 2259 00c7 3A       		.uleb128 0x3a
 2260 00c8 0B       		.uleb128 0xb
 2261 00c9 3B       		.uleb128 0x3b
 2262 00ca 0B       		.uleb128 0xb
 2263 00cb 49       		.uleb128 0x49
 2264 00cc 13       		.uleb128 0x13
 2265 00cd 00       		.byte	0
 2266 00ce 00       		.byte	0
 2267 00cf 12       		.uleb128 0x12
 2268 00d0 26       		.uleb128 0x26
 2269 00d1 00       		.byte	0
 2270 00d2 49       		.uleb128 0x49
 2271 00d3 13       		.uleb128 0x13
 2272 00d4 00       		.byte	0
 2273 00d5 00       		.byte	0
 2274 00d6 13       		.uleb128 0x13
 2275 00d7 2E       		.uleb128 0x2e
 2276 00d8 01       		.byte	0x1
ARM GAS  /var/folders/6q/x_mk5n_j3p7_c40r_2k_78980000gn/T//ccdCZv55.s 			page 41


 2277 00d9 03       		.uleb128 0x3
 2278 00da 0E       		.uleb128 0xe
 2279 00db 3A       		.uleb128 0x3a
 2280 00dc 0B       		.uleb128 0xb
 2281 00dd 3B       		.uleb128 0x3b
 2282 00de 0B       		.uleb128 0xb
 2283 00df 27       		.uleb128 0x27
 2284 00e0 19       		.uleb128 0x19
 2285 00e1 49       		.uleb128 0x49
 2286 00e2 13       		.uleb128 0x13
 2287 00e3 20       		.uleb128 0x20
 2288 00e4 0B       		.uleb128 0xb
 2289 00e5 01       		.uleb128 0x1
 2290 00e6 13       		.uleb128 0x13
 2291 00e7 00       		.byte	0
 2292 00e8 00       		.byte	0
 2293 00e9 14       		.uleb128 0x14
 2294 00ea 05       		.uleb128 0x5
 2295 00eb 00       		.byte	0
 2296 00ec 03       		.uleb128 0x3
 2297 00ed 08       		.uleb128 0x8
 2298 00ee 3A       		.uleb128 0x3a
 2299 00ef 0B       		.uleb128 0xb
 2300 00f0 3B       		.uleb128 0x3b
 2301 00f1 0B       		.uleb128 0xb
 2302 00f2 49       		.uleb128 0x49
 2303 00f3 13       		.uleb128 0x13
 2304 00f4 00       		.byte	0
 2305 00f5 00       		.byte	0
 2306 00f6 15       		.uleb128 0x15
 2307 00f7 2E       		.uleb128 0x2e
 2308 00f8 01       		.byte	0x1
 2309 00f9 3F       		.uleb128 0x3f
 2310 00fa 19       		.uleb128 0x19
 2311 00fb 03       		.uleb128 0x3
 2312 00fc 0E       		.uleb128 0xe
 2313 00fd 3A       		.uleb128 0x3a
 2314 00fe 0B       		.uleb128 0xb
 2315 00ff 3B       		.uleb128 0x3b
 2316 0100 0B       		.uleb128 0xb
 2317 0101 27       		.uleb128 0x27
 2318 0102 19       		.uleb128 0x19
 2319 0103 49       		.uleb128 0x49
 2320 0104 13       		.uleb128 0x13
 2321 0105 20       		.uleb128 0x20
 2322 0106 0B       		.uleb128 0xb
 2323 0107 01       		.uleb128 0x1
 2324 0108 13       		.uleb128 0x13
 2325 0109 00       		.byte	0
 2326 010a 00       		.byte	0
 2327 010b 16       		.uleb128 0x16
 2328 010c 34       		.uleb128 0x34
 2329 010d 00       		.byte	0
 2330 010e 03       		.uleb128 0x3
 2331 010f 08       		.uleb128 0x8
 2332 0110 3A       		.uleb128 0x3a
 2333 0111 0B       		.uleb128 0xb
ARM GAS  /var/folders/6q/x_mk5n_j3p7_c40r_2k_78980000gn/T//ccdCZv55.s 			page 42


 2334 0112 3B       		.uleb128 0x3b
 2335 0113 0B       		.uleb128 0xb
 2336 0114 49       		.uleb128 0x49
 2337 0115 13       		.uleb128 0x13
 2338 0116 00       		.byte	0
 2339 0117 00       		.byte	0
 2340 0118 17       		.uleb128 0x17
 2341 0119 2E       		.uleb128 0x2e
 2342 011a 01       		.byte	0x1
 2343 011b 03       		.uleb128 0x3
 2344 011c 0E       		.uleb128 0xe
 2345 011d 3A       		.uleb128 0x3a
 2346 011e 0B       		.uleb128 0xb
 2347 011f 3B       		.uleb128 0x3b
 2348 0120 0B       		.uleb128 0xb
 2349 0121 27       		.uleb128 0x27
 2350 0122 19       		.uleb128 0x19
 2351 0123 20       		.uleb128 0x20
 2352 0124 0B       		.uleb128 0xb
 2353 0125 01       		.uleb128 0x1
 2354 0126 13       		.uleb128 0x13
 2355 0127 00       		.byte	0
 2356 0128 00       		.byte	0
 2357 0129 18       		.uleb128 0x18
 2358 012a 0B       		.uleb128 0xb
 2359 012b 01       		.byte	0x1
 2360 012c 01       		.uleb128 0x1
 2361 012d 13       		.uleb128 0x13
 2362 012e 00       		.byte	0
 2363 012f 00       		.byte	0
 2364 0130 19       		.uleb128 0x19
 2365 0131 0B       		.uleb128 0xb
 2366 0132 01       		.byte	0x1
 2367 0133 00       		.byte	0
 2368 0134 00       		.byte	0
 2369 0135 1A       		.uleb128 0x1a
 2370 0136 2E       		.uleb128 0x2e
 2371 0137 01       		.byte	0x1
 2372 0138 31       		.uleb128 0x31
 2373 0139 13       		.uleb128 0x13
 2374 013a 11       		.uleb128 0x11
 2375 013b 01       		.uleb128 0x1
 2376 013c 12       		.uleb128 0x12
 2377 013d 06       		.uleb128 0x6
 2378 013e 40       		.uleb128 0x40
 2379 013f 18       		.uleb128 0x18
 2380 0140 9742     		.uleb128 0x2117
 2381 0142 19       		.uleb128 0x19
 2382 0143 01       		.uleb128 0x1
 2383 0144 13       		.uleb128 0x13
 2384 0145 00       		.byte	0
 2385 0146 00       		.byte	0
 2386 0147 1B       		.uleb128 0x1b
 2387 0148 05       		.uleb128 0x5
 2388 0149 00       		.byte	0
 2389 014a 31       		.uleb128 0x31
 2390 014b 13       		.uleb128 0x13
ARM GAS  /var/folders/6q/x_mk5n_j3p7_c40r_2k_78980000gn/T//ccdCZv55.s 			page 43


 2391 014c 02       		.uleb128 0x2
 2392 014d 18       		.uleb128 0x18
 2393 014e 00       		.byte	0
 2394 014f 00       		.byte	0
 2395 0150 1C       		.uleb128 0x1c
 2396 0151 34       		.uleb128 0x34
 2397 0152 00       		.byte	0
 2398 0153 31       		.uleb128 0x31
 2399 0154 13       		.uleb128 0x13
 2400 0155 02       		.uleb128 0x2
 2401 0156 18       		.uleb128 0x18
 2402 0157 00       		.byte	0
 2403 0158 00       		.byte	0
 2404 0159 1D       		.uleb128 0x1d
 2405 015a 0B       		.uleb128 0xb
 2406 015b 01       		.byte	0x1
 2407 015c 11       		.uleb128 0x11
 2408 015d 01       		.uleb128 0x1
 2409 015e 12       		.uleb128 0x12
 2410 015f 06       		.uleb128 0x6
 2411 0160 01       		.uleb128 0x1
 2412 0161 13       		.uleb128 0x13
 2413 0162 00       		.byte	0
 2414 0163 00       		.byte	0
 2415 0164 1E       		.uleb128 0x1e
 2416 0165 1D       		.uleb128 0x1d
 2417 0166 01       		.byte	0x1
 2418 0167 31       		.uleb128 0x31
 2419 0168 13       		.uleb128 0x13
 2420 0169 11       		.uleb128 0x11
 2421 016a 01       		.uleb128 0x1
 2422 016b 12       		.uleb128 0x12
 2423 016c 06       		.uleb128 0x6
 2424 016d 58       		.uleb128 0x58
 2425 016e 0B       		.uleb128 0xb
 2426 016f 59       		.uleb128 0x59
 2427 0170 0B       		.uleb128 0xb
 2428 0171 01       		.uleb128 0x1
 2429 0172 13       		.uleb128 0x13
 2430 0173 00       		.byte	0
 2431 0174 00       		.byte	0
 2432 0175 1F       		.uleb128 0x1f
 2433 0176 05       		.uleb128 0x5
 2434 0177 00       		.byte	0
 2435 0178 31       		.uleb128 0x31
 2436 0179 13       		.uleb128 0x13
 2437 017a 02       		.uleb128 0x2
 2438 017b 17       		.uleb128 0x17
 2439 017c 00       		.byte	0
 2440 017d 00       		.byte	0
 2441 017e 20       		.uleb128 0x20
 2442 017f 1D       		.uleb128 0x1d
 2443 0180 01       		.byte	0x1
 2444 0181 31       		.uleb128 0x31
 2445 0182 13       		.uleb128 0x13
 2446 0183 52       		.uleb128 0x52
 2447 0184 01       		.uleb128 0x1
ARM GAS  /var/folders/6q/x_mk5n_j3p7_c40r_2k_78980000gn/T//ccdCZv55.s 			page 44


 2448 0185 55       		.uleb128 0x55
 2449 0186 17       		.uleb128 0x17
 2450 0187 58       		.uleb128 0x58
 2451 0188 0B       		.uleb128 0xb
 2452 0189 59       		.uleb128 0x59
 2453 018a 0B       		.uleb128 0xb
 2454 018b 01       		.uleb128 0x1
 2455 018c 13       		.uleb128 0x13
 2456 018d 00       		.byte	0
 2457 018e 00       		.byte	0
 2458 018f 21       		.uleb128 0x21
 2459 0190 0B       		.uleb128 0xb
 2460 0191 01       		.byte	0x1
 2461 0192 55       		.uleb128 0x55
 2462 0193 17       		.uleb128 0x17
 2463 0194 00       		.byte	0
 2464 0195 00       		.byte	0
 2465 0196 22       		.uleb128 0x22
 2466 0197 34       		.uleb128 0x34
 2467 0198 00       		.byte	0
 2468 0199 31       		.uleb128 0x31
 2469 019a 13       		.uleb128 0x13
 2470 019b 02       		.uleb128 0x2
 2471 019c 17       		.uleb128 0x17
 2472 019d 00       		.byte	0
 2473 019e 00       		.byte	0
 2474 019f 23       		.uleb128 0x23
 2475 01a0 0B       		.uleb128 0xb
 2476 01a1 01       		.byte	0x1
 2477 01a2 55       		.uleb128 0x55
 2478 01a3 17       		.uleb128 0x17
 2479 01a4 01       		.uleb128 0x1
 2480 01a5 13       		.uleb128 0x13
 2481 01a6 00       		.byte	0
 2482 01a7 00       		.byte	0
 2483 01a8 24       		.uleb128 0x24
 2484 01a9 34       		.uleb128 0x34
 2485 01aa 00       		.byte	0
 2486 01ab 31       		.uleb128 0x31
 2487 01ac 13       		.uleb128 0x13
 2488 01ad 00       		.byte	0
 2489 01ae 00       		.byte	0
 2490 01af 25       		.uleb128 0x25
 2491 01b0 05       		.uleb128 0x5
 2492 01b1 00       		.byte	0
 2493 01b2 31       		.uleb128 0x31
 2494 01b3 13       		.uleb128 0x13
 2495 01b4 00       		.byte	0
 2496 01b5 00       		.byte	0
 2497 01b6 26       		.uleb128 0x26
 2498 01b7 0B       		.uleb128 0xb
 2499 01b8 01       		.byte	0x1
 2500 01b9 11       		.uleb128 0x11
 2501 01ba 01       		.uleb128 0x1
 2502 01bb 12       		.uleb128 0x12
 2503 01bc 06       		.uleb128 0x6
 2504 01bd 00       		.byte	0
ARM GAS  /var/folders/6q/x_mk5n_j3p7_c40r_2k_78980000gn/T//ccdCZv55.s 			page 45


 2505 01be 00       		.byte	0
 2506 01bf 27       		.uleb128 0x27
 2507 01c0 2E       		.uleb128 0x2e
 2508 01c1 00       		.byte	0
 2509 01c2 3F       		.uleb128 0x3f
 2510 01c3 19       		.uleb128 0x19
 2511 01c4 03       		.uleb128 0x3
 2512 01c5 0E       		.uleb128 0xe
 2513 01c6 3A       		.uleb128 0x3a
 2514 01c7 0B       		.uleb128 0xb
 2515 01c8 3B       		.uleb128 0x3b
 2516 01c9 0B       		.uleb128 0xb
 2517 01ca 27       		.uleb128 0x27
 2518 01cb 19       		.uleb128 0x19
 2519 01cc 11       		.uleb128 0x11
 2520 01cd 01       		.uleb128 0x1
 2521 01ce 12       		.uleb128 0x12
 2522 01cf 06       		.uleb128 0x6
 2523 01d0 40       		.uleb128 0x40
 2524 01d1 18       		.uleb128 0x18
 2525 01d2 9742     		.uleb128 0x2117
 2526 01d4 19       		.uleb128 0x19
 2527 01d5 00       		.byte	0
 2528 01d6 00       		.byte	0
 2529 01d7 28       		.uleb128 0x28
 2530 01d8 2E       		.uleb128 0x2e
 2531 01d9 01       		.byte	0x1
 2532 01da 3F       		.uleb128 0x3f
 2533 01db 19       		.uleb128 0x19
 2534 01dc 03       		.uleb128 0x3
 2535 01dd 0E       		.uleb128 0xe
 2536 01de 3A       		.uleb128 0x3a
 2537 01df 0B       		.uleb128 0xb
 2538 01e0 3B       		.uleb128 0x3b
 2539 01e1 0B       		.uleb128 0xb
 2540 01e2 27       		.uleb128 0x27
 2541 01e3 19       		.uleb128 0x19
 2542 01e4 11       		.uleb128 0x11
 2543 01e5 01       		.uleb128 0x1
 2544 01e6 12       		.uleb128 0x12
 2545 01e7 06       		.uleb128 0x6
 2546 01e8 40       		.uleb128 0x40
 2547 01e9 18       		.uleb128 0x18
 2548 01ea 9742     		.uleb128 0x2117
 2549 01ec 19       		.uleb128 0x19
 2550 01ed 01       		.uleb128 0x1
 2551 01ee 13       		.uleb128 0x13
 2552 01ef 00       		.byte	0
 2553 01f0 00       		.byte	0
 2554 01f1 29       		.uleb128 0x29
 2555 01f2 05       		.uleb128 0x5
 2556 01f3 00       		.byte	0
 2557 01f4 03       		.uleb128 0x3
 2558 01f5 0E       		.uleb128 0xe
 2559 01f6 3A       		.uleb128 0x3a
 2560 01f7 0B       		.uleb128 0xb
 2561 01f8 3B       		.uleb128 0x3b
ARM GAS  /var/folders/6q/x_mk5n_j3p7_c40r_2k_78980000gn/T//ccdCZv55.s 			page 46


 2562 01f9 0B       		.uleb128 0xb
 2563 01fa 49       		.uleb128 0x49
 2564 01fb 13       		.uleb128 0x13
 2565 01fc 02       		.uleb128 0x2
 2566 01fd 17       		.uleb128 0x17
 2567 01fe 00       		.byte	0
 2568 01ff 00       		.byte	0
 2569 0200 2A       		.uleb128 0x2a
 2570 0201 34       		.uleb128 0x34
 2571 0202 00       		.byte	0
 2572 0203 03       		.uleb128 0x3
 2573 0204 08       		.uleb128 0x8
 2574 0205 3A       		.uleb128 0x3a
 2575 0206 0B       		.uleb128 0xb
 2576 0207 3B       		.uleb128 0x3b
 2577 0208 0B       		.uleb128 0xb
 2578 0209 49       		.uleb128 0x49
 2579 020a 13       		.uleb128 0x13
 2580 020b 02       		.uleb128 0x2
 2581 020c 17       		.uleb128 0x17
 2582 020d 00       		.byte	0
 2583 020e 00       		.byte	0
 2584 020f 2B       		.uleb128 0x2b
 2585 0210 898201   		.uleb128 0x4109
 2586 0213 00       		.byte	0
 2587 0214 11       		.uleb128 0x11
 2588 0215 01       		.uleb128 0x1
 2589 0216 9542     		.uleb128 0x2115
 2590 0218 19       		.uleb128 0x19
 2591 0219 31       		.uleb128 0x31
 2592 021a 13       		.uleb128 0x13
 2593 021b 00       		.byte	0
 2594 021c 00       		.byte	0
 2595 021d 2C       		.uleb128 0x2c
 2596 021e 2E       		.uleb128 0x2e
 2597 021f 01       		.byte	0x1
 2598 0220 3F       		.uleb128 0x3f
 2599 0221 19       		.uleb128 0x19
 2600 0222 03       		.uleb128 0x3
 2601 0223 0E       		.uleb128 0xe
 2602 0224 3A       		.uleb128 0x3a
 2603 0225 0B       		.uleb128 0xb
 2604 0226 3B       		.uleb128 0x3b
 2605 0227 0B       		.uleb128 0xb
 2606 0228 27       		.uleb128 0x27
 2607 0229 19       		.uleb128 0x19
 2608 022a 49       		.uleb128 0x49
 2609 022b 13       		.uleb128 0x13
 2610 022c 11       		.uleb128 0x11
 2611 022d 01       		.uleb128 0x1
 2612 022e 12       		.uleb128 0x12
 2613 022f 06       		.uleb128 0x6
 2614 0230 40       		.uleb128 0x40
 2615 0231 18       		.uleb128 0x18
 2616 0232 9742     		.uleb128 0x2117
 2617 0234 19       		.uleb128 0x19
 2618 0235 01       		.uleb128 0x1
ARM GAS  /var/folders/6q/x_mk5n_j3p7_c40r_2k_78980000gn/T//ccdCZv55.s 			page 47


 2619 0236 13       		.uleb128 0x13
 2620 0237 00       		.byte	0
 2621 0238 00       		.byte	0
 2622 0239 2D       		.uleb128 0x2d
 2623 023a 34       		.uleb128 0x34
 2624 023b 00       		.byte	0
 2625 023c 03       		.uleb128 0x3
 2626 023d 08       		.uleb128 0x8
 2627 023e 3A       		.uleb128 0x3a
 2628 023f 0B       		.uleb128 0xb
 2629 0240 3B       		.uleb128 0x3b
 2630 0241 0B       		.uleb128 0xb
 2631 0242 49       		.uleb128 0x49
 2632 0243 13       		.uleb128 0x13
 2633 0244 02       		.uleb128 0x2
 2634 0245 18       		.uleb128 0x18
 2635 0246 00       		.byte	0
 2636 0247 00       		.byte	0
 2637 0248 2E       		.uleb128 0x2e
 2638 0249 898201   		.uleb128 0x4109
 2639 024c 01       		.byte	0x1
 2640 024d 11       		.uleb128 0x11
 2641 024e 01       		.uleb128 0x1
 2642 024f 31       		.uleb128 0x31
 2643 0250 13       		.uleb128 0x13
 2644 0251 01       		.uleb128 0x1
 2645 0252 13       		.uleb128 0x13
 2646 0253 00       		.byte	0
 2647 0254 00       		.byte	0
 2648 0255 2F       		.uleb128 0x2f
 2649 0256 8A8201   		.uleb128 0x410a
 2650 0259 00       		.byte	0
 2651 025a 02       		.uleb128 0x2
 2652 025b 18       		.uleb128 0x18
 2653 025c 9142     		.uleb128 0x2111
 2654 025e 18       		.uleb128 0x18
 2655 025f 00       		.byte	0
 2656 0260 00       		.byte	0
 2657 0261 30       		.uleb128 0x30
 2658 0262 898201   		.uleb128 0x4109
 2659 0265 01       		.byte	0x1
 2660 0266 11       		.uleb128 0x11
 2661 0267 01       		.uleb128 0x1
 2662 0268 31       		.uleb128 0x31
 2663 0269 13       		.uleb128 0x13
 2664 026a 00       		.byte	0
 2665 026b 00       		.byte	0
 2666 026c 31       		.uleb128 0x31
 2667 026d 898201   		.uleb128 0x4109
 2668 0270 00       		.byte	0
 2669 0271 11       		.uleb128 0x11
 2670 0272 01       		.uleb128 0x1
 2671 0273 31       		.uleb128 0x31
 2672 0274 13       		.uleb128 0x13
 2673 0275 00       		.byte	0
 2674 0276 00       		.byte	0
 2675 0277 32       		.uleb128 0x32
ARM GAS  /var/folders/6q/x_mk5n_j3p7_c40r_2k_78980000gn/T//ccdCZv55.s 			page 48


 2676 0278 05       		.uleb128 0x5
 2677 0279 00       		.byte	0
 2678 027a 03       		.uleb128 0x3
 2679 027b 08       		.uleb128 0x8
 2680 027c 3A       		.uleb128 0x3a
 2681 027d 0B       		.uleb128 0xb
 2682 027e 3B       		.uleb128 0x3b
 2683 027f 0B       		.uleb128 0xb
 2684 0280 49       		.uleb128 0x49
 2685 0281 13       		.uleb128 0x13
 2686 0282 02       		.uleb128 0x2
 2687 0283 17       		.uleb128 0x17
 2688 0284 00       		.byte	0
 2689 0285 00       		.byte	0
 2690 0286 33       		.uleb128 0x33
 2691 0287 898201   		.uleb128 0x4109
 2692 028a 01       		.byte	0x1
 2693 028b 11       		.uleb128 0x11
 2694 028c 01       		.uleb128 0x1
 2695 028d 9542     		.uleb128 0x2115
 2696 028f 19       		.uleb128 0x19
 2697 0290 31       		.uleb128 0x31
 2698 0291 13       		.uleb128 0x13
 2699 0292 00       		.byte	0
 2700 0293 00       		.byte	0
 2701 0294 34       		.uleb128 0x34
 2702 0295 2E       		.uleb128 0x2e
 2703 0296 01       		.byte	0x1
 2704 0297 3F       		.uleb128 0x3f
 2705 0298 19       		.uleb128 0x19
 2706 0299 03       		.uleb128 0x3
 2707 029a 0E       		.uleb128 0xe
 2708 029b 3A       		.uleb128 0x3a
 2709 029c 0B       		.uleb128 0xb
 2710 029d 3B       		.uleb128 0x3b
 2711 029e 05       		.uleb128 0x5
 2712 029f 27       		.uleb128 0x27
 2713 02a0 19       		.uleb128 0x19
 2714 02a1 11       		.uleb128 0x11
 2715 02a2 01       		.uleb128 0x1
 2716 02a3 12       		.uleb128 0x12
 2717 02a4 06       		.uleb128 0x6
 2718 02a5 40       		.uleb128 0x40
 2719 02a6 18       		.uleb128 0x18
 2720 02a7 9742     		.uleb128 0x2117
 2721 02a9 19       		.uleb128 0x19
 2722 02aa 01       		.uleb128 0x1
 2723 02ab 13       		.uleb128 0x13
 2724 02ac 00       		.byte	0
 2725 02ad 00       		.byte	0
 2726 02ae 35       		.uleb128 0x35
 2727 02af 34       		.uleb128 0x34
 2728 02b0 00       		.byte	0
 2729 02b1 03       		.uleb128 0x3
 2730 02b2 08       		.uleb128 0x8
 2731 02b3 3A       		.uleb128 0x3a
 2732 02b4 0B       		.uleb128 0xb
ARM GAS  /var/folders/6q/x_mk5n_j3p7_c40r_2k_78980000gn/T//ccdCZv55.s 			page 49


 2733 02b5 3B       		.uleb128 0x3b
 2734 02b6 05       		.uleb128 0x5
 2735 02b7 49       		.uleb128 0x49
 2736 02b8 13       		.uleb128 0x13
 2737 02b9 02       		.uleb128 0x2
 2738 02ba 17       		.uleb128 0x17
 2739 02bb 00       		.byte	0
 2740 02bc 00       		.byte	0
 2741 02bd 36       		.uleb128 0x36
 2742 02be 1D       		.uleb128 0x1d
 2743 02bf 01       		.byte	0x1
 2744 02c0 31       		.uleb128 0x31
 2745 02c1 13       		.uleb128 0x13
 2746 02c2 52       		.uleb128 0x52
 2747 02c3 01       		.uleb128 0x1
 2748 02c4 55       		.uleb128 0x55
 2749 02c5 17       		.uleb128 0x17
 2750 02c6 58       		.uleb128 0x58
 2751 02c7 0B       		.uleb128 0xb
 2752 02c8 59       		.uleb128 0x59
 2753 02c9 05       		.uleb128 0x5
 2754 02ca 01       		.uleb128 0x1
 2755 02cb 13       		.uleb128 0x13
 2756 02cc 00       		.byte	0
 2757 02cd 00       		.byte	0
 2758 02ce 37       		.uleb128 0x37
 2759 02cf 34       		.uleb128 0x34
 2760 02d0 00       		.byte	0
 2761 02d1 03       		.uleb128 0x3
 2762 02d2 0E       		.uleb128 0xe
 2763 02d3 3A       		.uleb128 0x3a
 2764 02d4 0B       		.uleb128 0xb
 2765 02d5 3B       		.uleb128 0x3b
 2766 02d6 0B       		.uleb128 0xb
 2767 02d7 49       		.uleb128 0x49
 2768 02d8 13       		.uleb128 0x13
 2769 02d9 3F       		.uleb128 0x3f
 2770 02da 19       		.uleb128 0x19
 2771 02db 02       		.uleb128 0x2
 2772 02dc 18       		.uleb128 0x18
 2773 02dd 00       		.byte	0
 2774 02de 00       		.byte	0
 2775 02df 38       		.uleb128 0x38
 2776 02e0 2E       		.uleb128 0x2e
 2777 02e1 00       		.byte	0
 2778 02e2 3F       		.uleb128 0x3f
 2779 02e3 19       		.uleb128 0x19
 2780 02e4 3C       		.uleb128 0x3c
 2781 02e5 19       		.uleb128 0x19
 2782 02e6 6E       		.uleb128 0x6e
 2783 02e7 0E       		.uleb128 0xe
 2784 02e8 03       		.uleb128 0x3
 2785 02e9 0E       		.uleb128 0xe
 2786 02ea 3A       		.uleb128 0x3a
 2787 02eb 0B       		.uleb128 0xb
 2788 02ec 3B       		.uleb128 0x3b
 2789 02ed 05       		.uleb128 0x5
ARM GAS  /var/folders/6q/x_mk5n_j3p7_c40r_2k_78980000gn/T//ccdCZv55.s 			page 50


 2790 02ee 00       		.byte	0
 2791 02ef 00       		.byte	0
 2792 02f0 39       		.uleb128 0x39
 2793 02f1 2E       		.uleb128 0x2e
 2794 02f2 00       		.byte	0
 2795 02f3 3F       		.uleb128 0x3f
 2796 02f4 19       		.uleb128 0x19
 2797 02f5 3C       		.uleb128 0x3c
 2798 02f6 19       		.uleb128 0x19
 2799 02f7 6E       		.uleb128 0x6e
 2800 02f8 0E       		.uleb128 0xe
 2801 02f9 03       		.uleb128 0x3
 2802 02fa 0E       		.uleb128 0xe
 2803 02fb 3A       		.uleb128 0x3a
 2804 02fc 0B       		.uleb128 0xb
 2805 02fd 3B       		.uleb128 0x3b
 2806 02fe 0B       		.uleb128 0xb
 2807 02ff 00       		.byte	0
 2808 0300 00       		.byte	0
 2809 0301 00       		.byte	0
 2810              		.section	.debug_loc,"",%progbits
 2811              	.Ldebug_loc0:
 2812              	.LLST0:
 2813 0000 28000000 		.4byte	.LVL1
 2814 0004 32000000 		.4byte	.LVL2
 2815 0008 0100     		.2byte	0x1
 2816 000a 50       		.byte	0x50
 2817 000b 00000000 		.4byte	0
 2818 000f 00000000 		.4byte	0
 2819              	.LLST1:
 2820 0013 3E000000 		.4byte	.LVL3
 2821 0017 5C000000 		.4byte	.LVL7
 2822 001b 0100     		.2byte	0x1
 2823 001d 50       		.byte	0x50
 2824 001e 00000000 		.4byte	0
 2825 0022 00000000 		.4byte	0
 2826              	.LLST2:
 2827 0026 40000000 		.4byte	.LVL4
 2828 002a 5C000000 		.4byte	.LVL7
 2829 002e 0600     		.2byte	0x6
 2830 0030 03       		.byte	0x3
 2831 0031 00000000 		.4byte	rlist
 2832 0035 9F       		.byte	0x9f
 2833 0036 00000000 		.4byte	0
 2834 003a 00000000 		.4byte	0
 2835              	.LLST3:
 2836 003e 40000000 		.4byte	.LVL4
 2837 0042 5C000000 		.4byte	.LVL7
 2838 0046 0100     		.2byte	0x1
 2839 0048 50       		.byte	0x50
 2840 0049 00000000 		.4byte	0
 2841 004d 00000000 		.4byte	0
 2842              	.LLST4:
 2843 0051 40000000 		.4byte	.LVL4
 2844 0055 54000000 		.4byte	.LVL6
 2845 0059 0100     		.2byte	0x1
 2846 005b 52       		.byte	0x52
ARM GAS  /var/folders/6q/x_mk5n_j3p7_c40r_2k_78980000gn/T//ccdCZv55.s 			page 51


 2847 005c 00000000 		.4byte	0
 2848 0060 00000000 		.4byte	0
 2849              	.LLST5:
 2850 0064 00000000 		.4byte	.LVL8
 2851 0068 18000000 		.4byte	.LVL11
 2852 006c 0100     		.2byte	0x1
 2853 006e 50       		.byte	0x50
 2854 006f 18000000 		.4byte	.LVL11
 2855 0073 22000000 		.4byte	.LVL12
 2856 0077 0100     		.2byte	0x1
 2857 0079 54       		.byte	0x54
 2858 007a 22000000 		.4byte	.LVL12
 2859 007e 28000000 		.4byte	.LFE8
 2860 0082 0100     		.2byte	0x1
 2861 0084 50       		.byte	0x50
 2862 0085 00000000 		.4byte	0
 2863 0089 00000000 		.4byte	0
 2864              	.LLST6:
 2865 008d 00000000 		.4byte	.LVL13
 2866 0091 1A000000 		.4byte	.LVL17
 2867 0095 0100     		.2byte	0x1
 2868 0097 50       		.byte	0x50
 2869 0098 1A000000 		.4byte	.LVL17
 2870 009c 28000000 		.4byte	.LFE9
 2871 00a0 0400     		.2byte	0x4
 2872 00a2 F3       		.byte	0xf3
 2873 00a3 01       		.uleb128 0x1
 2874 00a4 50       		.byte	0x50
 2875 00a5 9F       		.byte	0x9f
 2876 00a6 00000000 		.4byte	0
 2877 00aa 00000000 		.4byte	0
 2878              	.LLST7:
 2879 00ae 06000000 		.4byte	.LVL14
 2880 00b2 21000000 		.4byte	.LVL18-1
 2881 00b6 0100     		.2byte	0x1
 2882 00b8 51       		.byte	0x51
 2883 00b9 00000000 		.4byte	0
 2884 00bd 00000000 		.4byte	0
 2885              	.LLST8:
 2886 00c1 0E000000 		.4byte	.LVL15
 2887 00c5 14000000 		.4byte	.LVL16
 2888 00c9 0600     		.2byte	0x6
 2889 00cb 03       		.byte	0x3
 2890 00cc 00000000 		.4byte	rlist
 2891 00d0 9F       		.byte	0x9f
 2892 00d1 00000000 		.4byte	0
 2893 00d5 00000000 		.4byte	0
 2894              	.LLST9:
 2895 00d9 0E000000 		.4byte	.LVL15
 2896 00dd 14000000 		.4byte	.LVL16
 2897 00e1 0100     		.2byte	0x1
 2898 00e3 52       		.byte	0x52
 2899 00e4 00000000 		.4byte	0
 2900 00e8 00000000 		.4byte	0
 2901              	.LLST10:
 2902 00ec 00000000 		.4byte	.LVL19
 2903 00f0 0E000000 		.4byte	.LVL20
ARM GAS  /var/folders/6q/x_mk5n_j3p7_c40r_2k_78980000gn/T//ccdCZv55.s 			page 52


 2904 00f4 0100     		.2byte	0x1
 2905 00f6 50       		.byte	0x50
 2906 00f7 0E000000 		.4byte	.LVL20
 2907 00fb 2E000000 		.4byte	.LVL24
 2908 00ff 0400     		.2byte	0x4
 2909 0101 F3       		.byte	0xf3
 2910 0102 01       		.uleb128 0x1
 2911 0103 50       		.byte	0x50
 2912 0104 9F       		.byte	0x9f
 2913 0105 2E000000 		.4byte	.LVL24
 2914 0109 31000000 		.4byte	.LVL25-1
 2915 010d 0100     		.2byte	0x1
 2916 010f 50       		.byte	0x50
 2917 0110 31000000 		.4byte	.LVL25-1
 2918 0114 44000000 		.4byte	.LFE11
 2919 0118 0400     		.2byte	0x4
 2920 011a F3       		.byte	0xf3
 2921 011b 01       		.uleb128 0x1
 2922 011c 50       		.byte	0x50
 2923 011d 9F       		.byte	0x9f
 2924 011e 00000000 		.4byte	0
 2925 0122 00000000 		.4byte	0
 2926              	.LLST11:
 2927 0126 00000000 		.4byte	.LVL19
 2928 012a 15000000 		.4byte	.LVL21-1
 2929 012e 0100     		.2byte	0x1
 2930 0130 51       		.byte	0x51
 2931 0131 15000000 		.4byte	.LVL21-1
 2932 0135 2E000000 		.4byte	.LVL24
 2933 0139 0400     		.2byte	0x4
 2934 013b F3       		.byte	0xf3
 2935 013c 01       		.uleb128 0x1
 2936 013d 51       		.byte	0x51
 2937 013e 9F       		.byte	0x9f
 2938 013f 2E000000 		.4byte	.LVL24
 2939 0143 31000000 		.4byte	.LVL25-1
 2940 0147 0100     		.2byte	0x1
 2941 0149 51       		.byte	0x51
 2942 014a 31000000 		.4byte	.LVL25-1
 2943 014e 44000000 		.4byte	.LFE11
 2944 0152 0400     		.2byte	0x4
 2945 0154 F3       		.byte	0xf3
 2946 0155 01       		.uleb128 0x1
 2947 0156 51       		.byte	0x51
 2948 0157 9F       		.byte	0x9f
 2949 0158 00000000 		.4byte	0
 2950 015c 00000000 		.4byte	0
 2951              	.LLST12:
 2952 0160 00000000 		.4byte	.LVL26
 2953 0164 0E000000 		.4byte	.LVL28
 2954 0168 0100     		.2byte	0x1
 2955 016a 50       		.byte	0x50
 2956 016b 0E000000 		.4byte	.LVL28
 2957 016f 2A000000 		.4byte	.LVL33
 2958 0173 0100     		.2byte	0x1
 2959 0175 54       		.byte	0x54
 2960 0176 2A000000 		.4byte	.LVL33
ARM GAS  /var/folders/6q/x_mk5n_j3p7_c40r_2k_78980000gn/T//ccdCZv55.s 			page 53


 2961 017a 2C000000 		.4byte	.LVL34
 2962 017e 0200     		.2byte	0x2
 2963 0180 73       		.byte	0x73
 2964 0181 04       		.sleb128 4
 2965 0182 2C000000 		.4byte	.LVL34
 2966 0186 50000000 		.4byte	.LVL38
 2967 018a 0100     		.2byte	0x1
 2968 018c 54       		.byte	0x54
 2969 018d 50000000 		.4byte	.LVL38
 2970 0191 53000000 		.4byte	.LVL39-1
 2971 0195 0100     		.2byte	0x1
 2972 0197 50       		.byte	0x50
 2973 0198 53000000 		.4byte	.LVL39-1
 2974 019c 58000000 		.4byte	.LFE12
 2975 01a0 0400     		.2byte	0x4
 2976 01a2 F3       		.byte	0xf3
 2977 01a3 01       		.uleb128 0x1
 2978 01a4 50       		.byte	0x50
 2979 01a5 9F       		.byte	0x9f
 2980 01a6 00000000 		.4byte	0
 2981 01aa 00000000 		.4byte	0
 2982              	.LLST13:
 2983 01ae 00000000 		.4byte	.LVL26
 2984 01b2 0C000000 		.4byte	.LVL27
 2985 01b6 0100     		.2byte	0x1
 2986 01b8 51       		.byte	0x51
 2987 01b9 0C000000 		.4byte	.LVL27
 2988 01bd 0E000000 		.4byte	.LVL28
 2989 01c1 0200     		.2byte	0x2
 2990 01c3 70       		.byte	0x70
 2991 01c4 24       		.sleb128 36
 2992 01c5 0E000000 		.4byte	.LVL28
 2993 01c9 26000000 		.4byte	.LVL32
 2994 01cd 0200     		.2byte	0x2
 2995 01cf 74       		.byte	0x74
 2996 01d0 24       		.sleb128 36
 2997 01d1 26000000 		.4byte	.LVL32
 2998 01d5 2C000000 		.4byte	.LVL34
 2999 01d9 0400     		.2byte	0x4
 3000 01db F3       		.byte	0xf3
 3001 01dc 01       		.uleb128 0x1
 3002 01dd 51       		.byte	0x51
 3003 01de 9F       		.byte	0x9f
 3004 01df 2C000000 		.4byte	.LVL34
 3005 01e3 32000000 		.4byte	.LVL35
 3006 01e7 0200     		.2byte	0x2
 3007 01e9 74       		.byte	0x74
 3008 01ea 24       		.sleb128 36
 3009 01eb 32000000 		.4byte	.LVL35
 3010 01ef 58000000 		.4byte	.LFE12
 3011 01f3 0400     		.2byte	0x4
 3012 01f5 F3       		.byte	0xf3
 3013 01f6 01       		.uleb128 0x1
 3014 01f7 51       		.byte	0x51
 3015 01f8 9F       		.byte	0x9f
 3016 01f9 00000000 		.4byte	0
 3017 01fd 00000000 		.4byte	0
ARM GAS  /var/folders/6q/x_mk5n_j3p7_c40r_2k_78980000gn/T//ccdCZv55.s 			page 54


 3018              	.LLST14:
 3019 0201 12000000 		.4byte	.LVL29
 3020 0205 2A000000 		.4byte	.LVL33
 3021 0209 0100     		.2byte	0x1
 3022 020b 54       		.byte	0x54
 3023 020c 2A000000 		.4byte	.LVL33
 3024 0210 2C000000 		.4byte	.LVL34
 3025 0214 0200     		.2byte	0x2
 3026 0216 73       		.byte	0x73
 3027 0217 04       		.sleb128 4
 3028 0218 00000000 		.4byte	0
 3029 021c 00000000 		.4byte	0
 3030              	.LLST15:
 3031 0220 16000000 		.4byte	.LVL30
 3032 0224 2C000000 		.4byte	.LVL34
 3033 0228 0100     		.2byte	0x1
 3034 022a 53       		.byte	0x53
 3035 022b 00000000 		.4byte	0
 3036 022f 00000000 		.4byte	0
 3037              	.LLST16:
 3038 0233 2C000000 		.4byte	.LVL34
 3039 0237 46000000 		.4byte	.LVL37
 3040 023b 0100     		.2byte	0x1
 3041 023d 55       		.byte	0x55
 3042 023e 00000000 		.4byte	0
 3043 0242 00000000 		.4byte	0
 3044              	.LLST17:
 3045 0246 32000000 		.4byte	.LVL35
 3046 024a 46000000 		.4byte	.LVL37
 3047 024e 0100     		.2byte	0x1
 3048 0250 52       		.byte	0x52
 3049 0251 00000000 		.4byte	0
 3050 0255 00000000 		.4byte	0
 3051              	.LLST18:
 3052 0259 08000000 		.4byte	.LVL40
 3053 025d 38000000 		.4byte	.LVL46
 3054 0261 0100     		.2byte	0x1
 3055 0263 54       		.byte	0x54
 3056 0264 38000000 		.4byte	.LVL46
 3057 0268 3B000000 		.4byte	.LVL47-1
 3058 026c 0100     		.2byte	0x1
 3059 026e 51       		.byte	0x51
 3060 026f 00000000 		.4byte	0
 3061 0273 00000000 		.4byte	0
 3062              	.LLST19:
 3063 0277 08000000 		.4byte	.LVL40
 3064 027b 0E000000 		.4byte	.LVL41
 3065 027f 0600     		.2byte	0x6
 3066 0281 03       		.byte	0x3
 3067 0282 00000000 		.4byte	rlist
 3068 0286 9F       		.byte	0x9f
 3069 0287 00000000 		.4byte	0
 3070 028b 00000000 		.4byte	0
 3071              	.LLST20:
 3072 028f 08000000 		.4byte	.LVL40
 3073 0293 0E000000 		.4byte	.LVL41
 3074 0297 0100     		.2byte	0x1
ARM GAS  /var/folders/6q/x_mk5n_j3p7_c40r_2k_78980000gn/T//ccdCZv55.s 			page 55


 3075 0299 50       		.byte	0x50
 3076 029a 00000000 		.4byte	0
 3077 029e 00000000 		.4byte	0
 3078              	.LLST21:
 3079 02a2 1E000000 		.4byte	.LVL42
 3080 02a6 36000000 		.4byte	.LVL45
 3081 02aa 0100     		.2byte	0x1
 3082 02ac 54       		.byte	0x54
 3083 02ad 00000000 		.4byte	0
 3084 02b1 00000000 		.4byte	0
 3085              	.LLST22:
 3086 02b5 20000000 		.4byte	.LVL43
 3087 02b9 22000000 		.4byte	.LVL44
 3088 02bd 0600     		.2byte	0x6
 3089 02bf 03       		.byte	0x3
 3090 02c0 00000000 		.4byte	rlist
 3091 02c4 9F       		.byte	0x9f
 3092 02c5 00000000 		.4byte	0
 3093 02c9 00000000 		.4byte	0
 3094              	.LLST23:
 3095 02cd 08000000 		.4byte	.LVL48
 3096 02d1 34000000 		.4byte	.LVL52
 3097 02d5 0100     		.2byte	0x1
 3098 02d7 54       		.byte	0x54
 3099 02d8 34000000 		.4byte	.LVL52
 3100 02dc 37000000 		.4byte	.LVL53-1
 3101 02e0 0100     		.2byte	0x1
 3102 02e2 51       		.byte	0x51
 3103 02e3 00000000 		.4byte	0
 3104 02e7 00000000 		.4byte	0
 3105              	.LLST24:
 3106 02eb 1C000000 		.4byte	.LVL50
 3107 02ef 1E000000 		.4byte	.LVL51
 3108 02f3 0600     		.2byte	0x6
 3109 02f5 03       		.byte	0x3
 3110 02f6 00000000 		.4byte	rlist
 3111 02fa 9F       		.byte	0x9f
 3112 02fb 00000000 		.4byte	0
 3113 02ff 00000000 		.4byte	0
 3114              	.LLST25:
 3115 0303 08000000 		.4byte	.LVL48
 3116 0307 0E000000 		.4byte	.LVL49
 3117 030b 0600     		.2byte	0x6
 3118 030d 03       		.byte	0x3
 3119 030e 00000000 		.4byte	rlist
 3120 0312 9F       		.byte	0x9f
 3121 0313 00000000 		.4byte	0
 3122 0317 00000000 		.4byte	0
 3123              	.LLST26:
 3124 031b 08000000 		.4byte	.LVL48
 3125 031f 0E000000 		.4byte	.LVL49
 3126 0323 0100     		.2byte	0x1
 3127 0325 50       		.byte	0x50
 3128 0326 00000000 		.4byte	0
 3129 032a 00000000 		.4byte	0
 3130              		.section	.debug_aranges,"",%progbits
 3131 0000 64000000 		.4byte	0x64
ARM GAS  /var/folders/6q/x_mk5n_j3p7_c40r_2k_78980000gn/T//ccdCZv55.s 			page 56


 3132 0004 0200     		.2byte	0x2
 3133 0006 00000000 		.4byte	.Ldebug_info0
 3134 000a 04       		.byte	0x4
 3135 000b 00       		.byte	0
 3136 000c 0000     		.2byte	0
 3137 000e 0000     		.2byte	0
 3138 0010 00000000 		.4byte	.LFB10
 3139 0014 6C000000 		.4byte	.LFE10-.LFB10
 3140 0018 00000000 		.4byte	.LFB7
 3141 001c 14000000 		.4byte	.LFE7-.LFB7
 3142 0020 00000000 		.4byte	.LFB8
 3143 0024 28000000 		.4byte	.LFE8-.LFB8
 3144 0028 00000000 		.4byte	.LFB9
 3145 002c 28000000 		.4byte	.LFE9-.LFB9
 3146 0030 00000000 		.4byte	.LFB11
 3147 0034 44000000 		.4byte	.LFE11-.LFB11
 3148 0038 00000000 		.4byte	.LFB12
 3149 003c 58000000 		.4byte	.LFE12-.LFB12
 3150 0040 00000000 		.4byte	.LFB14
 3151 0044 40000000 		.4byte	.LFE14-.LFB14
 3152 0048 00000000 		.4byte	.LFB15
 3153 004c 3C000000 		.4byte	.LFE15-.LFB15
 3154 0050 00000000 		.4byte	.LFB13
 3155 0054 18000000 		.4byte	.LFE13-.LFB13
 3156 0058 00000000 		.4byte	.LFB16
 3157 005c 14000000 		.4byte	.LFE16-.LFB16
 3158 0060 00000000 		.4byte	0
 3159 0064 00000000 		.4byte	0
 3160              		.section	.debug_ranges,"",%progbits
 3161              	.Ldebug_ranges0:
 3162 0000 36000000 		.4byte	.LBB47
 3163 0004 3A000000 		.4byte	.LBE47
 3164 0008 3E000000 		.4byte	.LBB61
 3165 000c 40000000 		.4byte	.LBE61
 3166 0010 00000000 		.4byte	0
 3167 0014 00000000 		.4byte	0
 3168 0018 3A000000 		.4byte	.LBB50
 3169 001c 3C000000 		.4byte	.LBE50
 3170 0020 40000000 		.4byte	.LBB62
 3171 0024 58000000 		.4byte	.LBE62
 3172 0028 00000000 		.4byte	0
 3173 002c 00000000 		.4byte	0
 3174 0030 3A000000 		.4byte	.LBB52
 3175 0034 3C000000 		.4byte	.LBE52
 3176 0038 40000000 		.4byte	.LBB56
 3177 003c 4A000000 		.4byte	.LBE56
 3178 0040 4C000000 		.4byte	.LBB58
 3179 0044 54000000 		.4byte	.LBE58
 3180 0048 00000000 		.4byte	0
 3181 004c 00000000 		.4byte	0
 3182 0050 4A000000 		.4byte	.LBB57
 3183 0054 4C000000 		.4byte	.LBE57
 3184 0058 54000000 		.4byte	.LBB59
 3185 005c 58000000 		.4byte	.LBE59
 3186 0060 00000000 		.4byte	0
 3187 0064 00000000 		.4byte	0
 3188 0068 06000000 		.4byte	.LBB64
ARM GAS  /var/folders/6q/x_mk5n_j3p7_c40r_2k_78980000gn/T//ccdCZv55.s 			page 57


 3189 006c 08000000 		.4byte	.LBE64
 3190 0070 0E000000 		.4byte	.LBB69
 3191 0074 10000000 		.4byte	.LBE69
 3192 0078 12000000 		.4byte	.LBB70
 3193 007c 14000000 		.4byte	.LBE70
 3194 0080 16000000 		.4byte	.LBB71
 3195 0084 18000000 		.4byte	.LBE71
 3196 0088 00000000 		.4byte	0
 3197 008c 00000000 		.4byte	0
 3198 0090 2C000000 		.4byte	.LBB75
 3199 0094 4E000000 		.4byte	.LBE75
 3200 0098 50000000 		.4byte	.LBB80
 3201 009c 58000000 		.4byte	.LBE80
 3202 00a0 00000000 		.4byte	0
 3203 00a4 00000000 		.4byte	0
 3204 00a8 2C000000 		.4byte	.LBB76
 3205 00ac 3C000000 		.4byte	.LBE76
 3206 00b0 3E000000 		.4byte	.LBB79
 3207 00b4 46000000 		.4byte	.LBE79
 3208 00b8 00000000 		.4byte	0
 3209 00bc 00000000 		.4byte	0
 3210 00c0 04000000 		.4byte	.LBB81
 3211 00c4 06000000 		.4byte	.LBE81
 3212 00c8 08000000 		.4byte	.LBB86
 3213 00cc 0A000000 		.4byte	.LBE86
 3214 00d0 0C000000 		.4byte	.LBB87
 3215 00d4 0E000000 		.4byte	.LBE87
 3216 00d8 18000000 		.4byte	.LBB92
 3217 00dc 1A000000 		.4byte	.LBE92
 3218 00e0 00000000 		.4byte	0
 3219 00e4 00000000 		.4byte	0
 3220 00e8 12000000 		.4byte	.LBB88
 3221 00ec 18000000 		.4byte	.LBE88
 3222 00f0 1E000000 		.4byte	.LBB93
 3223 00f4 2C000000 		.4byte	.LBE93
 3224 00f8 2E000000 		.4byte	.LBB94
 3225 00fc 36000000 		.4byte	.LBE94
 3226 0100 00000000 		.4byte	0
 3227 0104 00000000 		.4byte	0
 3228 0108 04000000 		.4byte	.LBB95
 3229 010c 06000000 		.4byte	.LBE95
 3230 0110 08000000 		.4byte	.LBB100
 3231 0114 0A000000 		.4byte	.LBE100
 3232 0118 0C000000 		.4byte	.LBB101
 3233 011c 0E000000 		.4byte	.LBE101
 3234 0120 16000000 		.4byte	.LBB102
 3235 0124 18000000 		.4byte	.LBE102
 3236 0128 00000000 		.4byte	0
 3237 012c 00000000 		.4byte	0
 3238 0130 00000000 		.4byte	.LFB10
 3239 0134 6C000000 		.4byte	.LFE10
 3240 0138 00000000 		.4byte	.LFB7
 3241 013c 14000000 		.4byte	.LFE7
 3242 0140 00000000 		.4byte	.LFB8
 3243 0144 28000000 		.4byte	.LFE8
 3244 0148 00000000 		.4byte	.LFB9
 3245 014c 28000000 		.4byte	.LFE9
ARM GAS  /var/folders/6q/x_mk5n_j3p7_c40r_2k_78980000gn/T//ccdCZv55.s 			page 58


 3246 0150 00000000 		.4byte	.LFB11
 3247 0154 44000000 		.4byte	.LFE11
 3248 0158 00000000 		.4byte	.LFB12
 3249 015c 58000000 		.4byte	.LFE12
 3250 0160 00000000 		.4byte	.LFB14
 3251 0164 40000000 		.4byte	.LFE14
 3252 0168 00000000 		.4byte	.LFB15
 3253 016c 3C000000 		.4byte	.LFE15
 3254 0170 00000000 		.4byte	.LFB13
 3255 0174 18000000 		.4byte	.LFE13
 3256 0178 00000000 		.4byte	.LFB16
 3257 017c 14000000 		.4byte	.LFE16
 3258 0180 00000000 		.4byte	0
 3259 0184 00000000 		.4byte	0
 3260              		.section	.debug_line,"",%progbits
 3261              	.Ldebug_line0:
 3262 0000 B2030000 		.section	.debug_str,"MS",%progbits,1
 3262      0200B201 
 3262      00000201 
 3262      FB0E0D00 
 3262      01010101 
 3263              	.LASF41:
 3264 0000 705F6D73 		.ascii	"p_msg\000"
 3264      6700
 3265              	.LASF57:
 3266 0006 76745F66 		.ascii	"vt_func\000"
 3266      756E6300 
 3267              	.LASF85:
 3268 000e 63685363 		.ascii	"chSchDoRescheduleAhead\000"
 3268      68446F52 
 3268      65736368 
 3268      6564756C 
 3268      65416865 
 3269              	.LASF7:
 3270 0025 5F5F7569 		.ascii	"__uint8_t\000"
 3270      6E74385F 
 3270      7400
 3271              	.LASF12:
 3272 002f 6C6F6E67 		.ascii	"long long unsigned int\000"
 3272      206C6F6E 
 3272      6720756E 
 3272      7369676E 
 3272      65642069 
 3273              	.LASF74:
 3274 0046 65786974 		.ascii	"exitcode\000"
 3274      636F6465 
 3274      00
 3275              	.LASF29:
 3276 004f 705F7072 		.ascii	"p_prio\000"
 3276      696F00
 3277              	.LASF96:
 3278 0056 5F736368 		.ascii	"_scheduler_init\000"
 3278      6564756C 
 3278      65725F69 
 3278      6E697400 
 3279              	.LASF1:
 3280 0066 6C6F6E67 		.ascii	"long long int\000"
ARM GAS  /var/folders/6q/x_mk5n_j3p7_c40r_2k_78980000gn/T//ccdCZv55.s 			page 59


 3280      206C6F6E 
 3280      6720696E 
 3280      7400
 3281              	.LASF3:
 3282 0074 7369676E 		.ascii	"signed char\000"
 3282      65642063 
 3282      68617200 
 3283              	.LASF45:
 3284 0080 705F6D70 		.ascii	"p_mpool\000"
 3284      6F6F6C00 
 3285              	.LASF70:
 3286 0088 6D5F7175 		.ascii	"m_queue\000"
 3286      65756500 
 3287              	.LASF20:
 3288 0090 74736C69 		.ascii	"tslices_t\000"
 3288      6365735F 
 3288      7400
 3289              	.LASF9:
 3290 009a 6C6F6E67 		.ascii	"long int\000"
 3290      20696E74 
 3290      00
 3291              	.LASF18:
 3292 00a3 74737461 		.ascii	"tstate_t\000"
 3292      74655F74 
 3292      00
 3293              	.LASF31:
 3294 00ac 705F6E65 		.ascii	"p_newer\000"
 3294      77657200 
 3295              	.LASF67:
 3296 00b4 735F7175 		.ascii	"s_queue\000"
 3296      65756500 
 3297              	.LASF86:
 3298 00bc 63685363 		.ascii	"chSchRescheduleS\000"
 3298      68526573 
 3298      63686564 
 3298      756C6553 
 3298      00
 3299              	.LASF10:
 3300 00cd 5F5F7569 		.ascii	"__uint32_t\000"
 3300      6E743332 
 3300      5F7400
 3301              	.LASF48:
 3302 00d8 72656761 		.ascii	"regarm_t\000"
 3302      726D5F74 
 3302      00
 3303              	.LASF55:
 3304 00e1 76745F70 		.ascii	"vt_prev\000"
 3304      72657600 
 3305              	.LASF87:
 3306 00e9 63685363 		.ascii	"chSchDoReschedule\000"
 3306      68446F52 
 3306      65736368 
 3306      6564756C 
 3306      6500
 3307              	.LASF25:
 3308 00fb 636E745F 		.ascii	"cnt_t\000"
 3308      7400
ARM GAS  /var/folders/6q/x_mk5n_j3p7_c40r_2k_78980000gn/T//ccdCZv55.s 			page 60


 3309              	.LASF0:
 3310 0101 756E7369 		.ascii	"unsigned int\000"
 3310      676E6564 
 3310      20696E74 
 3310      00
 3311              	.LASF95:
 3312 010e 77616B65 		.ascii	"wakeup\000"
 3312      757000
 3313              	.LASF54:
 3314 0115 76745F6E 		.ascii	"vt_next\000"
 3314      65787400 
 3315              	.LASF88:
 3316 011d 5F706F72 		.ascii	"_port_switch\000"
 3316      745F7377 
 3316      69746368 
 3316      00
 3317              	.LASF11:
 3318 012a 6C6F6E67 		.ascii	"long unsigned int\000"
 3318      20756E73 
 3318      69676E65 
 3318      6420696E 
 3318      7400
 3319              	.LASF52:
 3320 013c 76746675 		.ascii	"vtfunc_t\000"
 3320      6E635F74 
 3320      00
 3321              	.LASF91:
 3322 0145 474E5520 		.ascii	"GNU C11 5.4.1 20160919 (release) [ARM/embedded-5-br"
 3322      43313120 
 3322      352E342E 
 3322      31203230 
 3322      31363039 
 3323 0178 616E6368 		.ascii	"anch revision 240496] -mcpu=cortex-m3 -mno-thumb-in"
 3323      20726576 
 3323      6973696F 
 3323      6E203234 
 3323      30343936 
 3324 01ab 74657277 		.ascii	"terwork -mthumb -ggdb -O2 -fomit-frame-pointer -fal"
 3324      6F726B20 
 3324      2D6D7468 
 3324      756D6220 
 3324      2D676764 
 3325 01de 69676E2D 		.ascii	"ign-functions=16 -ffunction-sections -fdata-section"
 3325      66756E63 
 3325      74696F6E 
 3325      733D3136 
 3325      202D6666 
 3326 0211 73202D66 		.ascii	"s -fno-common\000"
 3326      6E6F2D63 
 3326      6F6D6D6F 
 3326      6E00
 3327              	.LASF68:
 3328 021f 735F636E 		.ascii	"s_cnt\000"
 3328      7400
 3329              	.LASF50:
 3330 0225 636F6E74 		.ascii	"context\000"
 3330      65787400 
ARM GAS  /var/folders/6q/x_mk5n_j3p7_c40r_2k_78980000gn/T//ccdCZv55.s 			page 61


 3331              	.LASF6:
 3332 022d 73686F72 		.ascii	"short unsigned int\000"
 3332      7420756E 
 3332      7369676E 
 3332      65642069 
 3332      6E7400
 3333              	.LASF83:
 3334 0240 63685363 		.ascii	"chSchWakeupS\000"
 3334      6857616B 
 3334      65757053 
 3334      00
 3335              	.LASF22:
 3336 024d 6D73675F 		.ascii	"msg_t\000"
 3336      7400
 3337              	.LASF62:
 3338 0253 725F6E65 		.ascii	"r_newer\000"
 3338      77657200 
 3339              	.LASF17:
 3340 025b 746D6F64 		.ascii	"tmode_t\000"
 3340      655F7400 
 3341              	.LASF47:
 3342 0263 54687265 		.ascii	"ThreadsList\000"
 3342      6164734C 
 3342      69737400 
 3343              	.LASF23:
 3344 026f 6576656E 		.ascii	"eventmask_t\000"
 3344      746D6173 
 3344      6B5F7400 
 3345              	.LASF69:
 3346 027b 4D757465 		.ascii	"Mutex\000"
 3346      7800
 3347              	.LASF56:
 3348 0281 76745F74 		.ascii	"vt_time\000"
 3348      696D6500 
 3349              	.LASF51:
 3350 0289 73697A65 		.ascii	"sizetype\000"
 3350      74797065 
 3350      00
 3351              	.LASF2:
 3352 0292 6C6F6E67 		.ascii	"long double\000"
 3352      20646F75 
 3352      626C6500 
 3353              	.LASF84:
 3354 029e 63685363 		.ascii	"chSchDoRescheduleBehind\000"
 3354      68446F52 
 3354      65736368 
 3354      6564756C 
 3354      65426568 
 3355              	.LASF89:
 3356 02b6 63685654 		.ascii	"chVTSetI\000"
 3356      53657449 
 3356      00
 3357              	.LASF32:
 3358 02bf 705F6F6C 		.ascii	"p_older\000"
 3358      64657200 
 3359              	.LASF61:
 3360 02c7 725F6374 		.ascii	"r_ctx\000"
ARM GAS  /var/folders/6q/x_mk5n_j3p7_c40r_2k_78980000gn/T//ccdCZv55.s 			page 62


 3360      7800
 3361              	.LASF46:
 3362 02cd 54687265 		.ascii	"ThreadsQueue\000"
 3362      61647351 
 3362      75657565 
 3362      00
 3363              	.LASF78:
 3364 02da 64657175 		.ascii	"dequeue\000"
 3364      65756500 
 3365              	.LASF64:
 3366 02e2 725F6375 		.ascii	"r_current\000"
 3366      7272656E 
 3366      7400
 3367              	.LASF63:
 3368 02ec 725F6F6C 		.ascii	"r_older\000"
 3368      64657200 
 3369              	.LASF19:
 3370 02f4 74726566 		.ascii	"trefs_t\000"
 3370      735F7400 
 3371              	.LASF28:
 3372 02fc 705F7072 		.ascii	"p_prev\000"
 3372      657600
 3373              	.LASF21:
 3374 0303 74707269 		.ascii	"tprio_t\000"
 3374      6F5F7400 
 3375              	.LASF16:
 3376 030b 5F426F6F 		.ascii	"_Bool\000"
 3376      6C00
 3377              	.LASF14:
 3378 0311 696E7433 		.ascii	"int32_t\000"
 3378      325F7400 
 3379              	.LASF4:
 3380 0319 756E7369 		.ascii	"unsigned char\000"
 3380      676E6564 
 3380      20636861 
 3380      7200
 3381              	.LASF80:
 3382 0327 6E657773 		.ascii	"newstate\000"
 3382      74617465 
 3382      00
 3383              	.LASF43:
 3384 0330 705F6D74 		.ascii	"p_mtxlist\000"
 3384      786C6973 
 3384      7400
 3385              	.LASF5:
 3386 033a 73686F72 		.ascii	"short int\000"
 3386      7420696E 
 3386      7400
 3387              	.LASF34:
 3388 0344 705F7374 		.ascii	"p_state\000"
 3388      61746500 
 3389              	.LASF37:
 3390 034c 705F7072 		.ascii	"p_preempt\000"
 3390      65656D70 
 3390      7400
 3391              	.LASF60:
 3392 0356 725F7072 		.ascii	"r_prio\000"
ARM GAS  /var/folders/6q/x_mk5n_j3p7_c40r_2k_78980000gn/T//ccdCZv55.s 			page 63


 3392      696F00
 3393              	.LASF76:
 3394 035d 65776D61 		.ascii	"ewmask\000"
 3394      736B00
 3395              	.LASF27:
 3396 0364 705F6E65 		.ascii	"p_next\000"
 3396      787400
 3397              	.LASF35:
 3398 036b 705F666C 		.ascii	"p_flags\000"
 3398      61677300 
 3399              	.LASF26:
 3400 0373 54687265 		.ascii	"Thread\000"
 3400      616400
 3401              	.LASF90:
 3402 037a 63685654 		.ascii	"chVTResetI\000"
 3402      52657365 
 3402      744900
 3403              	.LASF82:
 3404 0385 63685363 		.ascii	"chSchGoSleepS\000"
 3404      68476F53 
 3404      6C656570 
 3404      5300
 3405              	.LASF42:
 3406 0393 705F6570 		.ascii	"p_epending\000"
 3406      656E6469 
 3406      6E6700
 3407              	.LASF15:
 3408 039e 75696E74 		.ascii	"uint32_t\000"
 3408      33325F74 
 3408      00
 3409              	.LASF59:
 3410 03a7 725F7175 		.ascii	"r_queue\000"
 3410      65756500 
 3411              	.LASF53:
 3412 03af 56697274 		.ascii	"VirtualTimer\000"
 3412      75616C54 
 3412      696D6572 
 3412      00
 3413              	.LASF77:
 3414 03bc 63686172 		.ascii	"char\000"
 3414      00
 3415              	.LASF93:
 3416 03c1 2F557365 		.ascii	"/Users/Luca/src/vexilla/src/teamA\000"
 3416      72732F4C 
 3416      7563612F 
 3416      7372632F 
 3416      76657869 
 3417              	.LASF94:
 3418 03e3 63685363 		.ascii	"chSchReadyI\000"
 3418      68526561 
 3418      64794900 
 3419              	.LASF72:
 3420 03ef 6D5F6E65 		.ascii	"m_next\000"
 3420      787400
 3421              	.LASF24:
 3422 03f6 73797374 		.ascii	"systime_t\000"
 3422      696D655F 
ARM GAS  /var/folders/6q/x_mk5n_j3p7_c40r_2k_78980000gn/T//ccdCZv55.s 			page 64


 3422      7400
 3423              	.LASF44:
 3424 0400 705F7265 		.ascii	"p_realprio\000"
 3424      616C7072 
 3424      696F00
 3425              	.LASF8:
 3426 040b 5F5F696E 		.ascii	"__int32_t\000"
 3426      7433325F 
 3426      7400
 3427              	.LASF38:
 3428 0415 705F7469 		.ascii	"p_time\000"
 3428      6D6500
 3429              	.LASF49:
 3430 041c 696E7463 		.ascii	"intctx\000"
 3430      747800
 3431              	.LASF40:
 3432 0423 705F6D73 		.ascii	"p_msgqueue\000"
 3432      67717565 
 3432      756500
 3433              	.LASF81:
 3434 042e 74696D65 		.ascii	"time\000"
 3434      00
 3435              	.LASF58:
 3436 0433 76745F70 		.ascii	"vt_par\000"
 3436      617200
 3437              	.LASF66:
 3438 043a 53656D61 		.ascii	"Semaphore\000"
 3438      70686F72 
 3438      6500
 3439              	.LASF73:
 3440 0444 7264796D 		.ascii	"rdymsg\000"
 3440      736700
 3441              	.LASF36:
 3442 044b 705F7265 		.ascii	"p_refs\000"
 3442      667300
 3443              	.LASF65:
 3444 0452 52656164 		.ascii	"ReadyList\000"
 3444      794C6973 
 3444      7400
 3445              	.LASF92:
 3446 045c 2E2E2F43 		.ascii	"../ChibiOS/os/kernel/src/chschd.c\000"
 3446      68696269 
 3446      4F532F6F 
 3446      732F6B65 
 3446      726E656C 
 3447              	.LASF98:
 3448 047e 726C6973 		.ascii	"rlist\000"
 3448      7400
 3449              	.LASF13:
 3450 0484 75696E74 		.ascii	"uint8_t\000"
 3450      385F7400 
 3451              	.LASF75:
 3452 048c 77746F62 		.ascii	"wtobjp\000"
 3452      6A7000
 3453              	.LASF33:
 3454 0493 705F6E61 		.ascii	"p_name\000"
 3454      6D6500
ARM GAS  /var/folders/6q/x_mk5n_j3p7_c40r_2k_78980000gn/T//ccdCZv55.s 			page 65


 3455              	.LASF97:
 3456 049a 63685363 		.ascii	"chSchGoSleepTimeoutS\000"
 3456      68476F53 
 3456      6C656570 
 3456      54696D65 
 3456      6F757453 
 3457              	.LASF71:
 3458 04af 6D5F6F77 		.ascii	"m_owner\000"
 3458      6E657200 
 3459              	.LASF30:
 3460 04b7 705F6374 		.ascii	"p_ctx\000"
 3460      7800
 3461              	.LASF39:
 3462 04bd 705F7761 		.ascii	"p_waiting\000"
 3462      6974696E 
 3462      6700
 3463              	.LASF79:
 3464 04c7 6669666F 		.ascii	"fifo_remove\000"
 3464      5F72656D 
 3464      6F766500 
 3465              		.ident	"GCC: (GNU Tools for ARM Embedded Processors) 5.4.1 20160919 (release) [ARM/embedded-5-bran
ARM GAS  /var/folders/6q/x_mk5n_j3p7_c40r_2k_78980000gn/T//ccdCZv55.s 			page 66


DEFINED SYMBOLS
                            *ABS*:0000000000000000 chschd.c
/var/folders/6q/x_mk5n_j3p7_c40r_2k_78980000gn/T//ccdCZv55.s:20     .text.wakeup:0000000000000000 $t
/var/folders/6q/x_mk5n_j3p7_c40r_2k_78980000gn/T//ccdCZv55.s:25     .text.wakeup:0000000000000000 wakeup
/var/folders/6q/x_mk5n_j3p7_c40r_2k_78980000gn/T//ccdCZv55.s:53     .text.wakeup:0000000000000012 $d
/var/folders/6q/x_mk5n_j3p7_c40r_2k_78980000gn/T//ccdCZv55.s:67     .text.wakeup:0000000000000020 $t
/var/folders/6q/x_mk5n_j3p7_c40r_2k_78980000gn/T//ccdCZv55.s:188    .text.wakeup:0000000000000068 $d
/var/folders/6q/x_mk5n_j3p7_c40r_2k_78980000gn/T//ccdCZv55.s:193    .text._scheduler_init:0000000000000000 $t
/var/folders/6q/x_mk5n_j3p7_c40r_2k_78980000gn/T//ccdCZv55.s:199    .text._scheduler_init:0000000000000000 _scheduler_init
/var/folders/6q/x_mk5n_j3p7_c40r_2k_78980000gn/T//ccdCZv55.s:222    .text._scheduler_init:0000000000000010 $d
/var/folders/6q/x_mk5n_j3p7_c40r_2k_78980000gn/T//ccdCZv55.s:227    .text.chSchReadyI:0000000000000000 $t
/var/folders/6q/x_mk5n_j3p7_c40r_2k_78980000gn/T//ccdCZv55.s:233    .text.chSchReadyI:0000000000000000 chSchReadyI
/var/folders/6q/x_mk5n_j3p7_c40r_2k_78980000gn/T//ccdCZv55.s:283    .text.chSchReadyI:0000000000000024 $d
/var/folders/6q/x_mk5n_j3p7_c40r_2k_78980000gn/T//ccdCZv55.s:288    .text.chSchGoSleepS:0000000000000000 $t
/var/folders/6q/x_mk5n_j3p7_c40r_2k_78980000gn/T//ccdCZv55.s:294    .text.chSchGoSleepS:0000000000000000 chSchGoSleepS
/var/folders/6q/x_mk5n_j3p7_c40r_2k_78980000gn/T//ccdCZv55.s:364    .text.chSchGoSleepS:0000000000000024 $d
/var/folders/6q/x_mk5n_j3p7_c40r_2k_78980000gn/T//ccdCZv55.s:369    .text.chSchGoSleepTimeoutS:0000000000000000 $t
/var/folders/6q/x_mk5n_j3p7_c40r_2k_78980000gn/T//ccdCZv55.s:375    .text.chSchGoSleepTimeoutS:0000000000000000 chSchGoSleepTimeoutS
/var/folders/6q/x_mk5n_j3p7_c40r_2k_78980000gn/T//ccdCZv55.s:444    .text.chSchGoSleepTimeoutS:000000000000003c $d
/var/folders/6q/x_mk5n_j3p7_c40r_2k_78980000gn/T//ccdCZv55.s:450    .text.chSchWakeupS:0000000000000000 $t
/var/folders/6q/x_mk5n_j3p7_c40r_2k_78980000gn/T//ccdCZv55.s:456    .text.chSchWakeupS:0000000000000000 chSchWakeupS
/var/folders/6q/x_mk5n_j3p7_c40r_2k_78980000gn/T//ccdCZv55.s:582    .text.chSchWakeupS:0000000000000054 $d
/var/folders/6q/x_mk5n_j3p7_c40r_2k_78980000gn/T//ccdCZv55.s:588    .text.chSchDoRescheduleBehind:0000000000000000 $t
/var/folders/6q/x_mk5n_j3p7_c40r_2k_78980000gn/T//ccdCZv55.s:594    .text.chSchDoRescheduleBehind:0000000000000000 chSchDoRescheduleBehind
/var/folders/6q/x_mk5n_j3p7_c40r_2k_78980000gn/T//ccdCZv55.s:703    .text.chSchDoRescheduleBehind:000000000000003c $d
/var/folders/6q/x_mk5n_j3p7_c40r_2k_78980000gn/T//ccdCZv55.s:708    .text.chSchDoRescheduleAhead:0000000000000000 $t
/var/folders/6q/x_mk5n_j3p7_c40r_2k_78980000gn/T//ccdCZv55.s:714    .text.chSchDoRescheduleAhead:0000000000000000 chSchDoRescheduleAhead
/var/folders/6q/x_mk5n_j3p7_c40r_2k_78980000gn/T//ccdCZv55.s:804    .text.chSchDoRescheduleAhead:0000000000000038 $d
/var/folders/6q/x_mk5n_j3p7_c40r_2k_78980000gn/T//ccdCZv55.s:809    .text.chSchRescheduleS:0000000000000000 $t
/var/folders/6q/x_mk5n_j3p7_c40r_2k_78980000gn/T//ccdCZv55.s:815    .text.chSchRescheduleS:0000000000000000 chSchRescheduleS
/var/folders/6q/x_mk5n_j3p7_c40r_2k_78980000gn/T//ccdCZv55.s:838    .text.chSchRescheduleS:0000000000000014 $d
/var/folders/6q/x_mk5n_j3p7_c40r_2k_78980000gn/T//ccdCZv55.s:843    .text.chSchDoReschedule:0000000000000000 $t
/var/folders/6q/x_mk5n_j3p7_c40r_2k_78980000gn/T//ccdCZv55.s:849    .text.chSchDoReschedule:0000000000000000 chSchDoReschedule
/var/folders/6q/x_mk5n_j3p7_c40r_2k_78980000gn/T//ccdCZv55.s:871    .text.chSchDoReschedule:0000000000000010 $d
/var/folders/6q/x_mk5n_j3p7_c40r_2k_78980000gn/T//ccdCZv55.s:881    .bss.rlist:0000000000000000 rlist
/var/folders/6q/x_mk5n_j3p7_c40r_2k_78980000gn/T//ccdCZv55.s:877    .bss.rlist:0000000000000000 $d
                     .debug_frame:0000000000000010 $d

UNDEFINED SYMBOLS
_port_switch
chVTSetI
chVTResetI
