ARM GAS  /var/folders/6q/x_mk5n_j3p7_c40r_2k_78980000gn/T//ccdCZv55.s 			page 1


   1              		.syntax unified
   2              		.cpu cortex-m3
   3              		.fpu softvfp
   4              		.eabi_attribute 20, 1
   5              		.eabi_attribute 21, 1
   6              		.eabi_attribute 23, 3
   7              		.eabi_attribute 24, 1
   8              		.eabi_attribute 25, 1
   9              		.eabi_attribute 26, 1
  10              		.eabi_attribute 30, 2
  11              		.eabi_attribute 34, 1
  12              		.eabi_attribute 18, 4
  13              		.thumb
  14              		.syntax unified
  15              		.file	"chschd.c"
  16              		.text
  17              	.Ltext0:
  18              		.cfi_sections	.debug_frame
  19              		.section	.text.wakeup,"ax",%progbits
  20              		.align	2
  21              		.p2align 4,,15
  22              		.thumb
  23              		.thumb_func
  24              		.type	wakeup, %function
  25              	wakeup:
  26              	.LFB10:
  27              		.file 1 "../ChibiOS/os/kernel/src/chschd.c"
  28              		.loc 1 136 0
  29              		.cfi_startproc
  30              		@ args = 0, pretend = 0, frame = 0
  31              		@ frame_needed = 0, uses_anonymous_args = 0
  32              		@ link register save eliminated.
  33              	.LVL0:
  34 0000 10B4     		push	{r4}
  35              		.cfi_def_cfa_offset 4
  36              		.cfi_offset 4, -4
  37              	.LBB44:
  38              		.loc 1 139 0
  39 0002 2023     		movs	r3, #32
  40              		.syntax unified
  41              	@ 139 "../ChibiOS/os/kernel/src/chschd.c" 1
  42 0004 83F31188 		msr     BASEPRI, r3
  43              	@ 0 "" 2
  44              		.thumb
  45              		.syntax unified
  46              	.LBE44:
  47              		.loc 1 140 0
  48 0008 037F     		ldrb	r3, [r0, #28]	@ zero_extendqisi2
  49 000a 0D2B     		cmp	r3, #13
  50 000c 11D8     		bhi	.L2
  51 000e DFE803F0 		tbb	[pc, r3]
  52              	.L4:
  53 0012 25       		.byte	(.L3-.L4)/2
  54 0013 10       		.byte	(.L2-.L4)/2
  55 0014 10       		.byte	(.L2-.L4)/2
  56 0015 07       		.byte	(.L5-.L4)/2
  57 0016 10       		.byte	(.L2-.L4)/2
ARM GAS  /var/folders/6q/x_mk5n_j3p7_c40r_2k_78980000gn/T//ccdCZv55.s 			page 2


  58 0017 0B       		.byte	(.L6-.L4)/2
  59 0018 10       		.byte	(.L2-.L4)/2
  60 0019 10       		.byte	(.L2-.L4)/2
  61 001a 10       		.byte	(.L2-.L4)/2
  62 001b 10       		.byte	(.L2-.L4)/2
  63 001c 10       		.byte	(.L2-.L4)/2
  64 001d 10       		.byte	(.L2-.L4)/2
  65 001e 10       		.byte	(.L2-.L4)/2
  66 001f 0B       		.byte	(.L6-.L4)/2
  67              		.p2align 1
  68              	.L5:
  69              		.loc 1 150 0
  70 0020 426A     		ldr	r2, [r0, #36]
  71 0022 9368     		ldr	r3, [r2, #8]
  72 0024 0133     		adds	r3, r3, #1
  73 0026 9360     		str	r3, [r2, #8]
  74              	.L6:
  75              	.LVL1:
  76              	.LBB45:
  77              	.LBB46:
  78              		.file 2 "../ChibiOS/os/kernel/include/chinline.h"
  79              		.loc 2 75 0
  80 0028 90E80C00 		ldmia	r0, {r2, r3}
  81 002c 1A60     		str	r2, [r3]
  82              		.loc 2 76 0
  83 002e 0268     		ldr	r2, [r0]
  84 0030 5360     		str	r3, [r2, #4]
  85              	.LVL2:
  86              	.L2:
  87              	.LBE46:
  88              	.LBE45:
  89              		.loc 1 163 0
  90 0032 4FF0FF34 		mov	r4, #-1
  91              	.LBB47:
  92              	.LBB48:
  93              		.loc 1 92 0
  94 0036 0023     		movs	r3, #0
  95 0038 8168     		ldr	r1, [r0, #8]
  96              	.LBE48:
  97              	.LBE47:
  98              	.LBB50:
  99              	.LBB51:
 100              	.LBB52:
 101              	.LBB53:
 102              		.loc 1 93 0
 103 003a 0B4A     		ldr	r2, .L12
 104              	.LBE53:
 105              	.LBE52:
 106              	.LBE51:
 107              	.LBE50:
 108              		.loc 1 163 0
 109 003c 4462     		str	r4, [r0, #36]
 110              	.LVL3:
 111              	.LBB61:
 112              	.LBB49:
 113              		.loc 1 92 0
 114 003e 0377     		strb	r3, [r0, #28]
ARM GAS  /var/folders/6q/x_mk5n_j3p7_c40r_2k_78980000gn/T//ccdCZv55.s 			page 3


 115              	.LVL4:
 116              	.L8:
 117              	.LBE49:
 118              	.LBE61:
 119              	.LBB62:
 120              	.LBB60:
 121              	.LBB56:
 122              	.LBB54:
 123              		.loc 1 95 0
 124 0040 1268     		ldr	r2, [r2]
 125              	.LVL5:
 126              		.loc 1 96 0
 127 0042 9368     		ldr	r3, [r2, #8]
 128 0044 8B42     		cmp	r3, r1
 129 0046 FBD2     		bcs	.L8
 130              		.loc 1 99 0
 131 0048 5168     		ldr	r1, [r2, #4]
 132              	.LBE54:
 133              	.LBE56:
 134              	.LBB57:
 135              		.loc 1 165 0
 136 004a 0023     		movs	r3, #0
 137              	.LBE57:
 138              	.LBB58:
 139              	.LBB55:
 140              		.loc 1 98 0
 141 004c 0260     		str	r2, [r0]
 142              		.loc 1 99 0
 143 004e 4160     		str	r1, [r0, #4]
 144              		.loc 1 100 0
 145 0050 5060     		str	r0, [r2, #4]
 146 0052 0860     		str	r0, [r1]
 147              	.LVL6:
 148              	.LBE55:
 149              	.LBE58:
 150              	.LBB59:
 151              		.loc 1 165 0
 152              		.syntax unified
 153              	@ 165 "../ChibiOS/os/kernel/src/chschd.c" 1
 154 0054 83F31188 		msr     BASEPRI, r3
 155              	@ 0 "" 2
 156              		.thumb
 157              		.syntax unified
 158              	.LBE59:
 159              	.LBE60:
 160              	.LBE62:
 161              		.loc 1 166 0
 162 0058 10BC     		pop	{r4}
 163              		.cfi_remember_state
 164              		.cfi_restore 4
 165              		.cfi_def_cfa_offset 0
 166 005a 7047     		bx	lr
 167              	.LVL7:
 168              	.L3:
 169              		.cfi_restore_state
 170              	.LBB63:
 171              		.loc 1 144 0
ARM GAS  /var/folders/6q/x_mk5n_j3p7_c40r_2k_78980000gn/T//ccdCZv55.s 			page 4


 172 005c 0023     		movs	r3, #0
 173              		.syntax unified
 174              	@ 144 "../ChibiOS/os/kernel/src/chschd.c" 1
 175 005e 83F31188 		msr     BASEPRI, r3
 176              	@ 0 "" 2
 177              		.thumb
 178              		.syntax unified
 179              	.LBE63:
 180              		.loc 1 166 0
 181 0062 10BC     		pop	{r4}
 182              		.cfi_restore 4
 183              		.cfi_def_cfa_offset 0
 184 0064 7047     		bx	lr
 185              	.L13:
 186 0066 00BF     		.align	2
 187              	.L12:
 188 0068 00000000 		.word	.LANCHOR0
 189              		.cfi_endproc
 190              	.LFE10:
 191              		.size	wakeup, .-wakeup
 192              		.section	.text._scheduler_init,"ax",%progbits
 193              		.align	2
 194              		.p2align 4,,15
 195              		.global	_scheduler_init
 196              		.thumb
 197              		.thumb_func
 198              		.type	_scheduler_init, %function
 199              	_scheduler_init:
 200              	.LFB7:
 201              		.loc 1 55 0
 202              		.cfi_startproc
 203              		@ args = 0, pretend = 0, frame = 0
 204              		@ frame_needed = 0, uses_anonymous_args = 0
 205              		@ link register save eliminated.
 206              		.loc 1 57 0
 207 0000 034B     		ldr	r3, .L15
 208              		.loc 1 58 0
 209 0002 0022     		movs	r2, #0
 210              		.loc 1 57 0
 211 0004 5B60     		str	r3, [r3, #4]
 212 0006 1B60     		str	r3, [r3]
 213              		.loc 1 60 0
 214 0008 5B61     		str	r3, [r3, #20]
 215 000a 1B61     		str	r3, [r3, #16]
 216              		.loc 1 58 0
 217 000c 9A60     		str	r2, [r3, #8]
 218 000e 7047     		bx	lr
 219              	.L16:
 220              		.align	2
 221              	.L15:
 222 0010 00000000 		.word	.LANCHOR0
 223              		.cfi_endproc
 224              	.LFE7:
 225              		.size	_scheduler_init, .-_scheduler_init
 226              		.section	.text.chSchReadyI,"ax",%progbits
 227              		.align	2
 228              		.p2align 4,,15
ARM GAS  /var/folders/6q/x_mk5n_j3p7_c40r_2k_78980000gn/T//ccdCZv55.s 			page 5


 229              		.global	chSchReadyI
 230              		.thumb
 231              		.thumb_func
 232              		.type	chSchReadyI, %function
 233              	chSchReadyI:
 234              	.LFB8:
 235              		.loc 1 81 0
 236              		.cfi_startproc
 237              		@ args = 0, pretend = 0, frame = 0
 238              		@ frame_needed = 0, uses_anonymous_args = 0
 239              		@ link register save eliminated.
 240              	.LVL8:
 241 0000 10B4     		push	{r4}
 242              		.cfi_def_cfa_offset 4
 243              		.cfi_offset 4, -4
 244              		.loc 1 81 0
 245 0002 0446     		mov	r4, r0
 246              		.loc 1 92 0
 247 0004 0022     		movs	r2, #0
 248 0006 8168     		ldr	r1, [r0, #8]
 249              		.loc 1 93 0
 250 0008 064B     		ldr	r3, .L21
 251              		.loc 1 92 0
 252 000a 0277     		strb	r2, [r0, #28]
 253              	.LVL9:
 254              	.L18:
 255              		.loc 1 95 0 discriminator 1
 256 000c 1B68     		ldr	r3, [r3]
 257              	.LVL10:
 258              		.loc 1 96 0 discriminator 1
 259 000e 9A68     		ldr	r2, [r3, #8]
 260 0010 8A42     		cmp	r2, r1
 261 0012 FBD2     		bcs	.L18
 262              		.loc 1 99 0
 263 0014 5A68     		ldr	r2, [r3, #4]
 264              		.loc 1 102 0
 265 0016 2046     		mov	r0, r4
 266              	.LVL11:
 267              		.loc 1 98 0
 268 0018 2360     		str	r3, [r4]
 269              		.loc 1 99 0
 270 001a 6260     		str	r2, [r4, #4]
 271              		.loc 1 100 0
 272 001c 5C60     		str	r4, [r3, #4]
 273 001e 1460     		str	r4, [r2]
 274              		.loc 1 102 0
 275 0020 10BC     		pop	{r4}
 276              		.cfi_restore 4
 277              		.cfi_def_cfa_offset 0
 278              	.LVL12:
 279 0022 7047     		bx	lr
 280              	.L22:
 281              		.align	2
 282              	.L21:
 283 0024 00000000 		.word	.LANCHOR0
 284              		.cfi_endproc
 285              	.LFE8:
ARM GAS  /var/folders/6q/x_mk5n_j3p7_c40r_2k_78980000gn/T//ccdCZv55.s 			page 6


 286              		.size	chSchReadyI, .-chSchReadyI
 287              		.section	.text.chSchGoSleepS,"ax",%progbits
 288              		.align	2
 289              		.p2align 4,,15
 290              		.global	chSchGoSleepS
 291              		.thumb
 292              		.thumb_func
 293              		.type	chSchGoSleepS, %function
 294              	chSchGoSleepS:
 295              	.LFB9:
 296              		.loc 1 115 0
 297              		.cfi_startproc
 298              		@ args = 0, pretend = 0, frame = 0
 299              		@ frame_needed = 0, uses_anonymous_args = 0
 300              		@ link register save eliminated.
 301              	.LVL13:
 302              		.loc 1 120 0
 303 0000 084B     		ldr	r3, .L25
 304              		.loc 1 115 0
 305 0002 30B4     		push	{r4, r5}
 306              		.cfi_def_cfa_offset 8
 307              		.cfi_offset 4, -8
 308              		.cfi_offset 5, -4
 309              		.loc 1 120 0
 310 0004 9969     		ldr	r1, [r3, #24]
 311              	.LVL14:
 312              	.LBB64:
 313              	.LBB65:
 314              		.loc 2 60 0
 315 0006 1A68     		ldr	r2, [r3]
 316              	.LBE65:
 317              	.LBE64:
 318              		.loc 1 124 0
 319 0008 1424     		movs	r4, #20
 320              		.loc 1 120 0
 321 000a 0877     		strb	r0, [r1, #28]
 322              		.loc 1 124 0
 323 000c CC77     		strb	r4, [r1, #31]
 324              	.LVL15:
 325              	.LBB69:
 326              	.LBB66:
 327              		.loc 2 62 0
 328 000e 1468     		ldr	r4, [r2]
 329              	.LBE66:
 330              	.LBE69:
 331              		.loc 1 127 0
 332 0010 0125     		movs	r5, #1
 333              	.LBB70:
 334              	.LBB67:
 335              		.loc 2 62 0
 336 0012 6360     		str	r3, [r4, #4]
 337              	.LVL16:
 338              	.LBE67:
 339              	.LBE70:
 340              		.loc 1 127 0
 341 0014 1577     		strb	r5, [r2, #28]
 342              	.LBB71:
ARM GAS  /var/folders/6q/x_mk5n_j3p7_c40r_2k_78980000gn/T//ccdCZv55.s 			page 7


 343              	.LBB68:
 344              		.loc 2 62 0
 345 0016 1C60     		str	r4, [r3]
 346              	.LBE68:
 347              	.LBE71:
 348              		.loc 1 128 0
 349 0018 1046     		mov	r0, r2
 350              	.LVL17:
 351              		.loc 1 129 0
 352 001a 30BC     		pop	{r4, r5}
 353              		.cfi_restore 5
 354              		.cfi_restore 4
 355              		.cfi_def_cfa_offset 0
 356              		.loc 1 126 0
 357 001c 9A61     		str	r2, [r3, #24]
 358              		.loc 1 128 0
 359 001e FFF7FEBF 		b	_port_switch
 360              	.LVL18:
 361              	.L26:
 362 0022 00BF     		.align	2
 363              	.L25:
 364 0024 00000000 		.word	.LANCHOR0
 365              		.cfi_endproc
 366              	.LFE9:
 367              		.size	chSchGoSleepS, .-chSchGoSleepS
 368              		.section	.text.chSchGoSleepTimeoutS,"ax",%progbits
 369              		.align	2
 370              		.p2align 4,,15
 371              		.global	chSchGoSleepTimeoutS
 372              		.thumb
 373              		.thumb_func
 374              		.type	chSchGoSleepTimeoutS, %function
 375              	chSchGoSleepTimeoutS:
 376              	.LFB11:
 377              		.loc 1 189 0
 378              		.cfi_startproc
 379              		@ args = 0, pretend = 0, frame = 24
 380              		@ frame_needed = 0, uses_anonymous_args = 0
 381              	.LVL19:
 382 0000 30B5     		push	{r4, r5, lr}
 383              		.cfi_def_cfa_offset 12
 384              		.cfi_offset 4, -12
 385              		.cfi_offset 5, -8
 386              		.cfi_offset 14, -4
 387              		.loc 1 193 0
 388 0002 4B1C     		adds	r3, r1, #1
 389              		.loc 1 189 0
 390 0004 87B0     		sub	sp, sp, #28
 391              		.cfi_def_cfa_offset 40
 392              		.loc 1 193 0
 393 0006 12D0     		beq	.L28
 394 0008 0546     		mov	r5, r0
 395              	.LBB72:
 396              		.loc 1 196 0
 397 000a 0C4C     		ldr	r4, .L35
 398 000c 01A8     		add	r0, sp, #4
 399              	.LVL20:
ARM GAS  /var/folders/6q/x_mk5n_j3p7_c40r_2k_78980000gn/T//ccdCZv55.s 			page 8


 400 000e A369     		ldr	r3, [r4, #24]
 401 0010 0B4A     		ldr	r2, .L35+4
 402 0012 FFF7FEFF 		bl	chVTSetI
 403              	.LVL21:
 404              		.loc 1 197 0
 405 0016 2846     		mov	r0, r5
 406 0018 FFF7FEFF 		bl	chSchGoSleepS
 407              	.LVL22:
 408              		.loc 1 198 0
 409 001c 049B     		ldr	r3, [sp, #16]
 410 001e 13B1     		cbz	r3, .L30
 411              		.loc 1 199 0
 412 0020 01A8     		add	r0, sp, #4
 413 0022 FFF7FEFF 		bl	chVTResetI
 414              	.LVL23:
 415              	.L30:
 416              	.LBE72:
 417              		.loc 1 203 0
 418 0026 A369     		ldr	r3, [r4, #24]
 419              		.loc 1 204 0
 420 0028 586A     		ldr	r0, [r3, #36]
 421 002a 07B0     		add	sp, sp, #28
 422              		.cfi_remember_state
 423              		.cfi_def_cfa_offset 12
 424              		@ sp needed
 425 002c 30BD     		pop	{r4, r5, pc}
 426              	.LVL24:
 427              	.L28:
 428              		.cfi_restore_state
 429              		.loc 1 202 0
 430 002e FFF7FEFF 		bl	chSchGoSleepS
 431              	.LVL25:
 432 0032 024C     		ldr	r4, .L35
 433              		.loc 1 203 0
 434 0034 A369     		ldr	r3, [r4, #24]
 435              		.loc 1 204 0
 436 0036 586A     		ldr	r0, [r3, #36]
 437 0038 07B0     		add	sp, sp, #28
 438              		.cfi_def_cfa_offset 12
 439              		@ sp needed
 440 003a 30BD     		pop	{r4, r5, pc}
 441              	.L36:
 442              		.align	2
 443              	.L35:
 444 003c 00000000 		.word	.LANCHOR0
 445 0040 00000000 		.word	wakeup
 446              		.cfi_endproc
 447              	.LFE11:
 448              		.size	chSchGoSleepTimeoutS, .-chSchGoSleepTimeoutS
 449              		.section	.text.chSchWakeupS,"ax",%progbits
 450              		.align	2
 451              		.p2align 4,,15
 452              		.global	chSchWakeupS
 453              		.thumb
 454              		.thumb_func
 455              		.type	chSchWakeupS, %function
 456              	chSchWakeupS:
ARM GAS  /var/folders/6q/x_mk5n_j3p7_c40r_2k_78980000gn/T//ccdCZv55.s 			page 9


 457              	.LFB12:
 458              		.loc 1 225 0
 459              		.cfi_startproc
 460              		@ args = 0, pretend = 0, frame = 0
 461              		@ frame_needed = 0, uses_anonymous_args = 0
 462              		@ link register save eliminated.
 463              	.LVL26:
 464              		.loc 1 234 0
 465 0000 144B     		ldr	r3, .L46
 466              		.loc 1 225 0
 467 0002 F0B4     		push	{r4, r5, r6, r7}
 468              		.cfi_def_cfa_offset 16
 469              		.cfi_offset 4, -16
 470              		.cfi_offset 5, -12
 471              		.cfi_offset 6, -8
 472              		.cfi_offset 7, -4
 473              		.loc 1 234 0
 474 0004 9D69     		ldr	r5, [r3, #24]
 475              		.loc 1 229 0
 476 0006 4162     		str	r1, [r0, #36]
 477              		.loc 1 225 0
 478 0008 0446     		mov	r4, r0
 479              		.loc 1 234 0
 480 000a 8168     		ldr	r1, [r0, #8]
 481              	.LVL27:
 482 000c A868     		ldr	r0, [r5, #8]
 483              	.LVL28:
 484 000e 8142     		cmp	r1, r0
 485 0010 0CD8     		bhi	.L38
 486              	.LVL29:
 487              	.LBB73:
 488              	.LBB74:
 489              		.loc 1 92 0
 490 0012 0022     		movs	r2, #0
 491 0014 2277     		strb	r2, [r4, #28]
 492              	.LVL30:
 493              	.L39:
 494              		.loc 1 95 0
 495 0016 1B68     		ldr	r3, [r3]
 496              	.LVL31:
 497              		.loc 1 96 0
 498 0018 9A68     		ldr	r2, [r3, #8]
 499 001a 9142     		cmp	r1, r2
 500 001c FBD9     		bls	.L39
 501              		.loc 1 99 0
 502 001e 5A68     		ldr	r2, [r3, #4]
 503              		.loc 1 98 0
 504 0020 2360     		str	r3, [r4]
 505              		.loc 1 99 0
 506 0022 6260     		str	r2, [r4, #4]
 507              		.loc 1 100 0
 508 0024 5C60     		str	r4, [r3, #4]
 509              	.LVL32:
 510 0026 1460     		str	r4, [r2]
 511              	.LBE74:
 512              	.LBE73:
 513              		.loc 1 242 0
ARM GAS  /var/folders/6q/x_mk5n_j3p7_c40r_2k_78980000gn/T//ccdCZv55.s 			page 10


 514 0028 F0BC     		pop	{r4, r5, r6, r7}
 515              		.cfi_remember_state
 516              		.cfi_restore 7
 517              		.cfi_restore 6
 518              		.cfi_restore 5
 519              		.cfi_restore 4
 520              		.cfi_def_cfa_offset 0
 521              	.LVL33:
 522 002a 7047     		bx	lr
 523              	.LVL34:
 524              	.L38:
 525              		.cfi_restore_state
 526              	.LBB75:
 527              	.LBB76:
 528              	.LBB77:
 529              		.loc 1 93 0
 530 002c 1A46     		mov	r2, r3
 531              		.loc 1 92 0
 532 002e 0021     		movs	r1, #0
 533 0030 2977     		strb	r1, [r5, #28]
 534              	.LVL35:
 535              	.L41:
 536              		.loc 1 95 0
 537 0032 1268     		ldr	r2, [r2]
 538              	.LVL36:
 539              		.loc 1 96 0
 540 0034 9168     		ldr	r1, [r2, #8]
 541 0036 8842     		cmp	r0, r1
 542 0038 FBD9     		bls	.L41
 543              		.loc 1 99 0
 544 003a 5668     		ldr	r6, [r2, #4]
 545              	.LBE77:
 546              	.LBE76:
 547              		.loc 1 239 0
 548 003c 0127     		movs	r7, #1
 549              	.LBB79:
 550              	.LBB78:
 551              		.loc 1 99 0
 552 003e 85E84400 		stmia	r5, {r2, r6}
 553              		.loc 1 100 0
 554 0042 5560     		str	r5, [r2, #4]
 555 0044 3560     		str	r5, [r6]
 556              	.LVL37:
 557              	.LBE78:
 558              	.LBE79:
 559              		.loc 1 239 0
 560 0046 2777     		strb	r7, [r4, #28]
 561              		.loc 1 240 0
 562 0048 2946     		mov	r1, r5
 563 004a 2046     		mov	r0, r4
 564              		.loc 1 238 0
 565 004c 9C61     		str	r4, [r3, #24]
 566              	.LBE75:
 567              		.loc 1 242 0
 568 004e F0BC     		pop	{r4, r5, r6, r7}
 569              		.cfi_restore 7
 570              		.cfi_restore 6
ARM GAS  /var/folders/6q/x_mk5n_j3p7_c40r_2k_78980000gn/T//ccdCZv55.s 			page 11


 571              		.cfi_restore 5
 572              		.cfi_restore 4
 573              		.cfi_def_cfa_offset 0
 574              	.LVL38:
 575              	.LBB80:
 576              		.loc 1 240 0
 577 0050 FFF7FEBF 		b	_port_switch
 578              	.LVL39:
 579              	.L47:
 580              		.align	2
 581              	.L46:
 582 0054 00000000 		.word	.LANCHOR0
 583              	.LBE80:
 584              		.cfi_endproc
 585              	.LFE12:
 586              		.size	chSchWakeupS, .-chSchWakeupS
 587              		.section	.text.chSchDoRescheduleBehind,"ax",%progbits
 588              		.align	2
 589              		.p2align 4,,15
 590              		.global	chSchDoRescheduleBehind
 591              		.thumb
 592              		.thumb_func
 593              		.type	chSchDoRescheduleBehind, %function
 594              	chSchDoRescheduleBehind:
 595              	.LFB14:
 596              		.loc 1 304 0
 597              		.cfi_startproc
 598              		@ args = 0, pretend = 0, frame = 0
 599              		@ frame_needed = 0, uses_anonymous_args = 0
 600              		@ link register save eliminated.
 601              		.loc 1 307 0
 602 0000 0E4A     		ldr	r2, .L53
 603              		.loc 1 304 0
 604 0002 F0B4     		push	{r4, r5, r6, r7}
 605              		.cfi_def_cfa_offset 16
 606              		.cfi_offset 4, -16
 607              		.cfi_offset 5, -12
 608              		.cfi_offset 6, -8
 609              		.cfi_offset 7, -4
 610              	.LBB81:
 611              	.LBB82:
 612              		.loc 2 60 0
 613 0004 1068     		ldr	r0, [r2]
 614              	.LBE82:
 615              	.LBE81:
 616              		.loc 1 307 0
 617 0006 9469     		ldr	r4, [r2, #24]
 618              	.LVL40:
 619              	.LBB86:
 620              	.LBB83:
 621              		.loc 2 62 0
 622 0008 0568     		ldr	r5, [r0]
 623              	.LBE83:
 624              	.LBE86:
 625              		.loc 1 310 0
 626 000a 0121     		movs	r1, #1
 627              	.LBB87:
ARM GAS  /var/folders/6q/x_mk5n_j3p7_c40r_2k_78980000gn/T//ccdCZv55.s 			page 12


 628              	.LBB84:
 629              		.loc 2 62 0
 630 000c 6A60     		str	r2, [r5, #4]
 631              	.LVL41:
 632              	.LBE84:
 633              	.LBE87:
 634              		.loc 1 312 0
 635 000e 1427     		movs	r7, #20
 636              		.loc 1 310 0
 637 0010 0177     		strb	r1, [r0, #28]
 638              	.LBB88:
 639              	.LBB89:
 640              		.loc 1 92 0
 641 0012 0026     		movs	r6, #0
 642 0014 A168     		ldr	r1, [r4, #8]
 643 0016 0346     		mov	r3, r0
 644              	.LBE89:
 645              	.LBE88:
 646              	.LBB92:
 647              	.LBB85:
 648              		.loc 2 62 0
 649 0018 1560     		str	r5, [r2]
 650              	.LBE85:
 651              	.LBE92:
 652              		.loc 1 309 0
 653 001a 9061     		str	r0, [r2, #24]
 654              		.loc 1 312 0
 655 001c E777     		strb	r7, [r4, #31]
 656              	.LVL42:
 657              	.LBB93:
 658              	.LBB90:
 659              		.loc 1 92 0
 660 001e 2677     		strb	r6, [r4, #28]
 661              	.LVL43:
 662 0020 00E0     		b	.L50
 663              	.LVL44:
 664              	.L52:
 665 0022 1B68     		ldr	r3, [r3]
 666              	.L50:
 667              		.loc 1 96 0
 668 0024 9A68     		ldr	r2, [r3, #8]
 669 0026 8A42     		cmp	r2, r1
 670 0028 FBD2     		bcs	.L52
 671              		.loc 1 99 0
 672 002a 5A68     		ldr	r2, [r3, #4]
 673              	.LBE90:
 674              	.LBE93:
 675              		.loc 1 315 0
 676 002c 2146     		mov	r1, r4
 677              	.LBB94:
 678              	.LBB91:
 679              		.loc 1 98 0
 680 002e 2360     		str	r3, [r4]
 681              		.loc 1 99 0
 682 0030 6260     		str	r2, [r4, #4]
 683              		.loc 1 100 0
 684 0032 5C60     		str	r4, [r3, #4]
ARM GAS  /var/folders/6q/x_mk5n_j3p7_c40r_2k_78980000gn/T//ccdCZv55.s 			page 13


 685 0034 1460     		str	r4, [r2]
 686              	.LVL45:
 687              	.LBE91:
 688              	.LBE94:
 689              		.loc 1 316 0
 690 0036 F0BC     		pop	{r4, r5, r6, r7}
 691              		.cfi_restore 7
 692              		.cfi_restore 6
 693              		.cfi_restore 5
 694              		.cfi_restore 4
 695              		.cfi_def_cfa_offset 0
 696              	.LVL46:
 697              		.loc 1 315 0
 698 0038 FFF7FEBF 		b	_port_switch
 699              	.LVL47:
 700              	.L54:
 701              		.align	2
 702              	.L53:
 703 003c 00000000 		.word	.LANCHOR0
 704              		.cfi_endproc
 705              	.LFE14:
 706              		.size	chSchDoRescheduleBehind, .-chSchDoRescheduleBehind
 707              		.section	.text.chSchDoRescheduleAhead,"ax",%progbits
 708              		.align	2
 709              		.p2align 4,,15
 710              		.global	chSchDoRescheduleAhead
 711              		.thumb
 712              		.thumb_func
 713              		.type	chSchDoRescheduleAhead, %function
 714              	chSchDoRescheduleAhead:
 715              	.LFB15:
 716              		.loc 1 329 0
 717              		.cfi_startproc
 718              		@ args = 0, pretend = 0, frame = 0
 719              		@ frame_needed = 0, uses_anonymous_args = 0
 720              		@ link register save eliminated.
 721              		.loc 1 332 0
 722 0000 0D4A     		ldr	r2, .L60
 723              		.loc 1 329 0
 724 0002 70B4     		push	{r4, r5, r6}
 725              		.cfi_def_cfa_offset 12
 726              		.cfi_offset 4, -12
 727              		.cfi_offset 5, -8
 728              		.cfi_offset 6, -4
 729              	.LBB95:
 730              	.LBB96:
 731              		.loc 2 60 0
 732 0004 1068     		ldr	r0, [r2]
 733              	.LBE96:
 734              	.LBE95:
 735              		.loc 1 332 0
 736 0006 9469     		ldr	r4, [r2, #24]
 737              	.LVL48:
 738              	.LBB100:
 739              	.LBB97:
 740              		.loc 2 62 0
 741 0008 0568     		ldr	r5, [r0]
ARM GAS  /var/folders/6q/x_mk5n_j3p7_c40r_2k_78980000gn/T//ccdCZv55.s 			page 14


 742              	.LBE97:
 743              	.LBE100:
 744              		.loc 1 335 0
 745 000a 0121     		movs	r1, #1
 746              	.LBB101:
 747              	.LBB98:
 748              		.loc 2 62 0
 749 000c 6A60     		str	r2, [r5, #4]
 750              	.LVL49:
 751              	.LBE98:
 752              	.LBE101:
 753              		.loc 1 337 0
 754 000e 0026     		movs	r6, #0
 755              		.loc 1 335 0
 756 0010 0177     		strb	r1, [r0, #28]
 757 0012 A168     		ldr	r1, [r4, #8]
 758              		.loc 1 337 0
 759 0014 0346     		mov	r3, r0
 760              	.LBB102:
 761              	.LBB99:
 762              		.loc 2 62 0
 763 0016 1560     		str	r5, [r2]
 764              	.LBE99:
 765              	.LBE102:
 766              		.loc 1 334 0
 767 0018 9061     		str	r0, [r2, #24]
 768              		.loc 1 337 0
 769 001a 2677     		strb	r6, [r4, #28]
 770              	.LVL50:
 771 001c 00E0     		b	.L57
 772              	.LVL51:
 773              	.L59:
 774 001e 1B68     		ldr	r3, [r3]
 775              	.L57:
 776              		.loc 1 341 0 discriminator 1
 777 0020 9A68     		ldr	r2, [r3, #8]
 778 0022 8A42     		cmp	r2, r1
 779 0024 FBD8     		bhi	.L59
 780              		.loc 1 344 0
 781 0026 5A68     		ldr	r2, [r3, #4]
 782              		.loc 1 347 0
 783 0028 2146     		mov	r1, r4
 784              		.loc 1 343 0
 785 002a 2360     		str	r3, [r4]
 786              		.loc 1 344 0
 787 002c 6260     		str	r2, [r4, #4]
 788              		.loc 1 345 0
 789 002e 5C60     		str	r4, [r3, #4]
 790 0030 1460     		str	r4, [r2]
 791              		.loc 1 348 0
 792 0032 70BC     		pop	{r4, r5, r6}
 793              		.cfi_restore 6
 794              		.cfi_restore 5
 795              		.cfi_restore 4
 796              		.cfi_def_cfa_offset 0
 797              	.LVL52:
 798              		.loc 1 347 0
ARM GAS  /var/folders/6q/x_mk5n_j3p7_c40r_2k_78980000gn/T//ccdCZv55.s 			page 15


 799 0034 FFF7FEBF 		b	_port_switch
 800              	.LVL53:
 801              	.L61:
 802              		.align	2
 803              	.L60:
 804 0038 00000000 		.word	.LANCHOR0
 805              		.cfi_endproc
 806              	.LFE15:
 807              		.size	chSchDoRescheduleAhead, .-chSchDoRescheduleAhead
 808              		.section	.text.chSchRescheduleS,"ax",%progbits
 809              		.align	2
 810              		.p2align 4,,15
 811              		.global	chSchRescheduleS
 812              		.thumb
 813              		.thumb_func
 814              		.type	chSchRescheduleS, %function
 815              	chSchRescheduleS:
 816              	.LFB13:
 817              		.loc 1 253 0
 818              		.cfi_startproc
 819              		@ args = 0, pretend = 0, frame = 0
 820              		@ frame_needed = 0, uses_anonymous_args = 0
 821              		@ link register save eliminated.
 822              		.loc 1 257 0
 823 0000 044B     		ldr	r3, .L65
 824 0002 1A68     		ldr	r2, [r3]
 825 0004 9B69     		ldr	r3, [r3, #24]
 826 0006 9268     		ldr	r2, [r2, #8]
 827 0008 9B68     		ldr	r3, [r3, #8]
 828 000a 9A42     		cmp	r2, r3
 829 000c 00D8     		bhi	.L64
 830 000e 7047     		bx	lr
 831              	.L64:
 832              		.loc 1 258 0
 833 0010 FFF7FEBF 		b	chSchDoRescheduleAhead
 834              	.LVL54:
 835              	.L66:
 836              		.align	2
 837              	.L65:
 838 0014 00000000 		.word	.LANCHOR0
 839              		.cfi_endproc
 840              	.LFE13:
 841              		.size	chSchRescheduleS, .-chSchRescheduleS
 842              		.section	.text.chSchDoReschedule,"ax",%progbits
 843              		.align	2
 844              		.p2align 4,,15
 845              		.global	chSchDoReschedule
 846              		.thumb
 847              		.thumb_func
 848              		.type	chSchDoReschedule, %function
 849              	chSchDoReschedule:
 850              	.LFB16:
 851              		.loc 1 362 0
 852              		.cfi_startproc
 853              		@ args = 0, pretend = 0, frame = 0
 854              		@ frame_needed = 0, uses_anonymous_args = 0
 855              		@ link register save eliminated.
ARM GAS  /var/folders/6q/x_mk5n_j3p7_c40r_2k_78980000gn/T//ccdCZv55.s 			page 16


 856              		.loc 1 367 0
 857 0000 034B     		ldr	r3, .L70
 858 0002 9B69     		ldr	r3, [r3, #24]
 859 0004 DB7F     		ldrb	r3, [r3, #31]	@ zero_extendqisi2
 860 0006 0BB1     		cbz	r3, .L69
 861              		.loc 1 375 0
 862 0008 FFF7FEBF 		b	chSchDoRescheduleAhead
 863              	.LVL55:
 864              	.L69:
 865              		.loc 1 370 0
 866 000c FFF7FEBF 		b	chSchDoRescheduleBehind
 867              	.LVL56:
 868              	.L71:
 869              		.align	2
 870              	.L70:
 871 0010 00000000 		.word	.LANCHOR0
 872              		.cfi_endproc
 873              	.LFE16:
 874              		.size	chSchDoReschedule, .-chSchDoReschedule
 875              		.global	rlist
 876              		.section	.bss.rlist,"aw",%nobits
 877              		.align	2
 878              		.set	.LANCHOR0,. + 0
 879              		.type	rlist, %object
 880              		.size	rlist, 28
 881              	rlist:
 882 0000 00000000 		.space	28
 882      00000000 
 882      00000000 
 882      00000000 
 882      00000000 
 883              		.text
 884              	.Letext0:
 885              		.file 3 "/Users/Luca/src/vexilla/src/gcc-arm-none-eabi-5_4-2016q3/arm-none-eabi/include/machine/_d
 886              		.file 4 "/Users/Luca/src/vexilla/src/gcc-arm-none-eabi-5_4-2016q3/arm-none-eabi/include/sys/_stdin
 887              		.file 5 "../ChibiOS/os/ports/GCC/ARMCMx/chtypes.h"
 888              		.file 6 "../ChibiOS/os/kernel/include/chlists.h"
 889              		.file 7 "../ChibiOS/os/kernel/include/chthreads.h"
 890              		.file 8 "../ChibiOS/os/ports/GCC/ARMCMx/chcore_v7m.h"
 891              		.file 9 "../ChibiOS/os/kernel/include/chvt.h"
 892              		.file 10 "../ChibiOS/os/kernel/include/chschd.h"
 893              		.file 11 "../ChibiOS/os/kernel/include/chsem.h"
 894              		.file 12 "../ChibiOS/os/kernel/include/chmtx.h"