ARM GAS  /var/folders/6q/x_mk5n_j3p7_c40r_2k_78980000gn/T//ccBEVPuW.s 			page 1


   1              		.syntax unified
   2              		.cpu cortex-m3
   3              		.fpu softvfp
   4              		.eabi_attribute 20, 1
   5              		.eabi_attribute 21, 1
   6              		.eabi_attribute 23, 3
   7              		.eabi_attribute 24, 1
   8              		.eabi_attribute 25, 1
   9              		.eabi_attribute 26, 1
  10              		.eabi_attribute 30, 2
  11              		.eabi_attribute 34, 1
  12              		.eabi_attribute 18, 4
  13              		.thumb
  14              		.syntax unified
  15              		.file	"chthreads.c"
  16              		.text
  17              	.Ltext0:
  18              		.cfi_sections	.debug_frame
  19              		.section	.text._thread_init,"ax",%progbits
  20              		.align	2
  21              		.p2align 4,,15
  22              		.global	_thread_init
  23              		.thumb
  24              		.thumb_func
  25              		.type	_thread_init, %function
  26              	_thread_init:
  27              	.LFB7:
  28              		.file 1 "../ChibiOS/os/kernel/src/chthreads.c"
  29              		.loc 1 76 0
  30              		.cfi_startproc
  31              		@ args = 0, pretend = 0, frame = 0
  32              		@ frame_needed = 0, uses_anonymous_args = 0
  33              	.LVL0:
  34 0000 F0B5     		push	{r4, r5, r6, r7, lr}
  35              		.cfi_def_cfa_offset 20
  36              		.cfi_offset 4, -20
  37              		.cfi_offset 5, -16
  38              		.cfi_offset 6, -12
  39              		.cfi_offset 7, -8
  40              		.cfi_offset 14, -4
  41              		.loc 1 99 0
  42 0002 0F4C     		ldr	r4, .L3
  43              		.loc 1 80 0
  44 0004 0022     		movs	r2, #0
  45              		.loc 1 99 0
  46 0006 6569     		ldr	r5, [r4, #20]
  47              		.loc 1 85 0
  48 0008 0164     		str	r1, [r0, #64]
  49              		.loc 1 78 0
  50 000a 8160     		str	r1, [r0, #8]
  51              		.loc 1 99 0
  52 000c 0461     		str	r4, [r0, #16]
  53 000e 4561     		str	r5, [r0, #20]
  54              		.loc 1 105 0
  55 0010 00F12C01 		add	r1, r0, #44
  56              	.LVL1:
  57              		.loc 1 99 0
ARM GAS  /var/folders/6q/x_mk5n_j3p7_c40r_2k_78980000gn/T//ccBEVPuW.s 			page 2


  58 0014 6061     		str	r0, [r4, #20]
  59              		.loc 1 79 0
  60 0016 4FF0020E 		mov	lr, #2
  61              		.loc 1 82 0
  62 001a 1427     		movs	r7, #20
  63              		.loc 1 95 0
  64 001c 0126     		movs	r6, #1
  65              		.loc 1 102 0
  66 001e 00F12804 		add	r4, r0, #40
  67              		.loc 1 79 0
  68 0022 80F81CE0 		strb	lr, [r0, #28]
  69              		.loc 1 82 0
  70 0026 C777     		strb	r7, [r0, #31]
  71              		.loc 1 95 0
  72 0028 8677     		strb	r6, [r0, #30]
  73              		.loc 1 80 0
  74 002a 4277     		strb	r2, [r0, #29]
  75              		.loc 1 86 0
  76 002c C263     		str	r2, [r0, #60]
  77              		.loc 1 89 0
  78 002e 8263     		str	r2, [r0, #56]
  79              		.loc 1 92 0
  80 0030 0262     		str	r2, [r0, #32]
  81              		.loc 1 98 0
  82 0032 8261     		str	r2, [r0, #24]
  83              		.loc 1 99 0
  84 0034 2861     		str	r0, [r5, #16]
  85              		.loc 1 102 0
  86 0036 8462     		str	r4, [r0, #40]
  87              		.loc 1 105 0
  88 0038 0163     		str	r1, [r0, #48]
  89 003a C162     		str	r1, [r0, #44]
  90              		.loc 1 114 0
  91 003c F0BD     		pop	{r4, r5, r6, r7, pc}
  92              	.L4:
  93 003e 00BF     		.align	2
  94              	.L3:
  95 0040 00000000 		.word	rlist
  96              		.cfi_endproc
  97              	.LFE7:
  98              		.size	_thread_init, .-_thread_init
  99              		.section	.text.chThdCreateI,"ax",%progbits
 100              		.align	2
 101              		.p2align 4,,15
 102              		.global	chThdCreateI
 103              		.thumb
 104              		.thumb_func
 105              		.type	chThdCreateI, %function
 106              	chThdCreateI:
 107              	.LFB8:
 108              		.loc 1 158 0
 109              		.cfi_startproc
 110              		@ args = 4, pretend = 0, frame = 0
 111              		@ frame_needed = 0, uses_anonymous_args = 0
 112              	.LVL2:
 113              		.loc 1 167 0
 114 0000 2439     		subs	r1, r1, #36
ARM GAS  /var/folders/6q/x_mk5n_j3p7_c40r_2k_78980000gn/T//ccBEVPuW.s 			page 3


 115              	.LVL3:
 116              		.loc 1 158 0
 117 0002 F0B5     		push	{r4, r5, r6, r7, lr}
 118              		.cfi_def_cfa_offset 20
 119              		.cfi_offset 4, -20
 120              		.cfi_offset 5, -16
 121              		.cfi_offset 6, -12
 122              		.cfi_offset 7, -8
 123              		.cfi_offset 14, -4
 124              		.loc 1 167 0
 125 0004 4618     		adds	r6, r0, r1
 126 0006 C660     		str	r6, [r0, #12]
 127              	.LBB16:
 128              	.LBB17:
 129              		.loc 1 99 0
 130 0008 114D     		ldr	r5, .L7
 131              	.LBE17:
 132              	.LBE16:
 133              		.loc 1 167 0
 134 000a 4350     		str	r3, [r0, r1]
 135 000c 059B     		ldr	r3, [sp, #20]
 136              	.LVL4:
 137 000e 114F     		ldr	r7, .L7+4
 138              	.LBB21:
 139              	.LBB18:
 140              		.loc 1 99 0
 141 0010 6969     		ldr	r1, [r5, #20]
 142              	.LVL5:
 143              	.LBE18:
 144              	.LBE21:
 145              		.loc 1 167 0
 146 0012 7360     		str	r3, [r6, #4]
 147              	.LBB22:
 148              	.LBB19:
 149              		.loc 1 79 0
 150 0014 0223     		movs	r3, #2
 151              	.LBE19:
 152              	.LBE22:
 153              		.loc 1 167 0
 154 0016 3762     		str	r7, [r6, #32]
 155              	.LVL6:
 156              	.LBB23:
 157              	.LBB20:
 158              		.loc 1 82 0
 159 0018 4FF0140E 		mov	lr, #20
 160              		.loc 1 78 0
 161 001c 8260     		str	r2, [r0, #8]
 162              		.loc 1 85 0
 163 001e 0264     		str	r2, [r0, #64]
 164              		.loc 1 79 0
 165 0020 0377     		strb	r3, [r0, #28]
 166              	.LVL7:
 167              		.loc 1 105 0
 168 0022 00F12C02 		add	r2, r0, #44
 169              	.LVL8:
 170              		.loc 1 80 0
 171 0026 0023     		movs	r3, #0
ARM GAS  /var/folders/6q/x_mk5n_j3p7_c40r_2k_78980000gn/T//ccBEVPuW.s 			page 4


 172              		.loc 1 95 0
 173 0028 0127     		movs	r7, #1
 174              		.loc 1 102 0
 175 002a 00F12806 		add	r6, r0, #40
 176              		.loc 1 99 0
 177 002e 0561     		str	r5, [r0, #16]
 178 0030 4161     		str	r1, [r0, #20]
 179              		.loc 1 82 0
 180 0032 80F81FE0 		strb	lr, [r0, #31]
 181              		.loc 1 95 0
 182 0036 8777     		strb	r7, [r0, #30]
 183              		.loc 1 80 0
 184 0038 4377     		strb	r3, [r0, #29]
 185              		.loc 1 99 0
 186 003a 6861     		str	r0, [r5, #20]
 187              		.loc 1 86 0
 188 003c C363     		str	r3, [r0, #60]
 189              		.loc 1 89 0
 190 003e 8363     		str	r3, [r0, #56]
 191              		.loc 1 92 0
 192 0040 0362     		str	r3, [r0, #32]
 193              		.loc 1 98 0
 194 0042 8361     		str	r3, [r0, #24]
 195              		.loc 1 99 0
 196 0044 0861     		str	r0, [r1, #16]
 197              		.loc 1 102 0
 198 0046 8662     		str	r6, [r0, #40]
 199              		.loc 1 105 0
 200 0048 0263     		str	r2, [r0, #48]
 201 004a C262     		str	r2, [r0, #44]
 202              	.LVL9:
 203              	.LBE20:
 204              	.LBE23:
 205              		.loc 1 169 0
 206 004c F0BD     		pop	{r4, r5, r6, r7, pc}
 207              	.LVL10:
 208              	.L8:
 209 004e 00BF     		.align	2
 210              	.L7:
 211 0050 00000000 		.word	rlist
 212 0054 00000000 		.word	_port_thread_start
 213              		.cfi_endproc
 214              	.LFE8:
 215              		.size	chThdCreateI, .-chThdCreateI
 216              		.section	.text.chThdCreateStatic,"ax",%progbits
 217              		.align	2
 218              		.p2align 4,,15
 219              		.global	chThdCreateStatic
 220              		.thumb
 221              		.thumb_func
 222              		.type	chThdCreateStatic, %function
 223              	chThdCreateStatic:
 224              	.LFB9:
 225              		.loc 1 188 0
 226              		.cfi_startproc
 227              		@ args = 4, pretend = 0, frame = 0
 228              		@ frame_needed = 0, uses_anonymous_args = 0
ARM GAS  /var/folders/6q/x_mk5n_j3p7_c40r_2k_78980000gn/T//ccBEVPuW.s 			page 5


 229              	.LVL11:
 230 0000 F8B5     		push	{r3, r4, r5, r6, r7, lr}
 231              		.cfi_def_cfa_offset 24
 232              		.cfi_offset 3, -24
 233              		.cfi_offset 4, -20
 234              		.cfi_offset 5, -16
 235              		.cfi_offset 6, -12
 236              		.cfi_offset 7, -8
 237              		.cfi_offset 14, -4
 238              		.loc 1 188 0
 239 0002 1F46     		mov	r7, r3
 240 0004 0446     		mov	r4, r0
 241              	.LBB24:
 242              		.loc 1 199 0
 243 0006 2023     		movs	r3, #32
 244              	.LVL12:
 245              		.syntax unified
 246              	@ 199 "../ChibiOS/os/kernel/src/chthreads.c" 1
 247 0008 83F31188 		msr     BASEPRI, r3
 248              	@ 0 "" 2
 249              	.LVL13:
 250              		.thumb
 251              		.syntax unified
 252              	.LBE24:
 253              	.LBB25:
 254              	.LBB26:
 255              		.loc 1 167 0
 256 000c 2439     		subs	r1, r1, #36
 257              	.LVL14:
 258 000e 4518     		adds	r5, r0, r1
 259              	.LBB27:
 260              	.LBB28:
 261              		.loc 1 99 0
 262 0010 164B     		ldr	r3, .L11
 263              	.LBE28:
 264              	.LBE27:
 265              		.loc 1 167 0
 266 0012 C560     		str	r5, [r0, #12]
 267 0014 164E     		ldr	r6, .L11+4
 268 0016 4750     		str	r7, [r0, r1]
 269 0018 0699     		ldr	r1, [sp, #24]
 270              	.LVL15:
 271              	.LBB32:
 272              	.LBB29:
 273              		.loc 1 99 0
 274 001a 5F69     		ldr	r7, [r3, #20]
 275              	.LVL16:
 276              	.LBE29:
 277              	.LBE32:
 278              		.loc 1 167 0
 279 001c 2E62     		str	r6, [r5, #32]
 280              	.LVL17:
 281 001e 6960     		str	r1, [r5, #4]
 282              	.LBB33:
 283              	.LBB30:
 284              		.loc 1 79 0
 285 0020 4FF0020C 		mov	ip, #2
ARM GAS  /var/folders/6q/x_mk5n_j3p7_c40r_2k_78980000gn/T//ccBEVPuW.s 			page 6


 286              		.loc 1 80 0
 287 0024 0025     		movs	r5, #0
 288              	.LVL18:
 289              		.loc 1 78 0
 290 0026 8260     		str	r2, [r0, #8]
 291              		.loc 1 85 0
 292 0028 0264     		str	r2, [r0, #64]
 293              		.loc 1 82 0
 294 002a 4FF0140E 		mov	lr, #20
 295              		.loc 1 105 0
 296 002e 00F12C02 		add	r2, r0, #44
 297              	.LVL19:
 298              		.loc 1 102 0
 299 0032 00F12806 		add	r6, r0, #40
 300              		.loc 1 95 0
 301 0036 0121     		movs	r1, #1
 302              		.loc 1 99 0
 303 0038 0361     		str	r3, [r0, #16]
 304              		.loc 1 95 0
 305 003a 8177     		strb	r1, [r0, #30]
 306              	.LVL20:
 307              		.loc 1 99 0
 308 003c 4761     		str	r7, [r0, #20]
 309              		.loc 1 79 0
 310 003e 80F81CC0 		strb	ip, [r0, #28]
 311              		.loc 1 99 0
 312 0042 5861     		str	r0, [r3, #20]
 313              		.loc 1 82 0
 314 0044 80F81FE0 		strb	lr, [r0, #31]
 315              		.loc 1 80 0
 316 0048 4577     		strb	r5, [r0, #29]
 317              		.loc 1 86 0
 318 004a C563     		str	r5, [r0, #60]
 319              		.loc 1 89 0
 320 004c 8563     		str	r5, [r0, #56]
 321              		.loc 1 92 0
 322 004e 0562     		str	r5, [r0, #32]
 323              		.loc 1 98 0
 324 0050 8561     		str	r5, [r0, #24]
 325              	.LBE30:
 326              	.LBE33:
 327              	.LBE26:
 328              	.LBE25:
 329              		.loc 1 200 0
 330 0052 2946     		mov	r1, r5
 331              	.LBB36:
 332              	.LBB35:
 333              	.LBB34:
 334              	.LBB31:
 335              		.loc 1 99 0
 336 0054 3861     		str	r0, [r7, #16]
 337              		.loc 1 102 0
 338 0056 8662     		str	r6, [r0, #40]
 339              		.loc 1 105 0
 340 0058 0263     		str	r2, [r0, #48]
 341 005a C262     		str	r2, [r0, #44]
 342              	.LVL21:
ARM GAS  /var/folders/6q/x_mk5n_j3p7_c40r_2k_78980000gn/T//ccBEVPuW.s 			page 7


 343              	.LBE31:
 344              	.LBE34:
 345              	.LBE35:
 346              	.LBE36:
 347              		.loc 1 200 0
 348 005c FFF7FEFF 		bl	chSchWakeupS
 349              	.LVL22:
 350              	.LBB37:
 351              		.loc 1 201 0
 352 0060 2B46     		mov	r3, r5
 353              		.syntax unified
 354              	@ 201 "../ChibiOS/os/kernel/src/chthreads.c" 1
 355 0062 83F31188 		msr     BASEPRI, r3
 356              	@ 0 "" 2
 357              		.thumb
 358              		.syntax unified
 359              	.LBE37:
 360              		.loc 1 203 0
 361 0066 2046     		mov	r0, r4
 362 0068 F8BD     		pop	{r3, r4, r5, r6, r7, pc}
 363              	.LVL23:
 364              	.L12:
 365 006a 00BF     		.align	2
 366              	.L11:
 367 006c 00000000 		.word	rlist
 368 0070 00000000 		.word	_port_thread_start
 369              		.cfi_endproc
 370              	.LFE9:
 371              		.size	chThdCreateStatic, .-chThdCreateStatic
 372              		.section	.text.chThdSetPriority,"ax",%progbits
 373              		.align	2
 374              		.p2align 4,,15
 375              		.global	chThdSetPriority
 376              		.thumb
 377              		.thumb_func
 378              		.type	chThdSetPriority, %function
 379              	chThdSetPriority:
 380              	.LFB10:
 381              		.loc 1 217 0
 382              		.cfi_startproc
 383              		@ args = 0, pretend = 0, frame = 0
 384              		@ frame_needed = 0, uses_anonymous_args = 0
 385              	.LVL24:
 386 0000 10B5     		push	{r4, lr}
 387              		.cfi_def_cfa_offset 8
 388              		.cfi_offset 4, -8
 389              		.cfi_offset 14, -4
 390              	.LBB38:
 391              		.loc 1 222 0
 392 0002 2023     		movs	r3, #32
 393              		.syntax unified
 394              	@ 222 "../ChibiOS/os/kernel/src/chthreads.c" 1
 395 0004 83F31188 		msr     BASEPRI, r3
 396              	@ 0 "" 2
 397              		.thumb
 398              		.syntax unified
 399              	.LBE38:
ARM GAS  /var/folders/6q/x_mk5n_j3p7_c40r_2k_78980000gn/T//ccBEVPuW.s 			page 8


 400              		.loc 1 224 0
 401 0008 084B     		ldr	r3, .L18
 402 000a 9B69     		ldr	r3, [r3, #24]
 403 000c 1C6C     		ldr	r4, [r3, #64]
 404              	.LVL25:
 405              		.loc 1 225 0
 406 000e 9968     		ldr	r1, [r3, #8]
 407 0010 8C42     		cmp	r4, r1
 408 0012 01D0     		beq	.L14
 409              		.loc 1 225 0 is_stmt 0 discriminator 1
 410 0014 8142     		cmp	r1, r0
 411 0016 00D2     		bcs	.L15
 412              	.L14:
 413              		.loc 1 226 0 is_stmt 1
 414 0018 9860     		str	r0, [r3, #8]
 415              	.L15:
 416              		.loc 1 227 0
 417 001a 1864     		str	r0, [r3, #64]
 418              		.loc 1 232 0
 419 001c FFF7FEFF 		bl	chSchRescheduleS
 420              	.LVL26:
 421              	.LBB39:
 422              		.loc 1 233 0
 423 0020 0023     		movs	r3, #0
 424              		.syntax unified
 425              	@ 233 "../ChibiOS/os/kernel/src/chthreads.c" 1
 426 0022 83F31188 		msr     BASEPRI, r3
 427              	@ 0 "" 2
 428              		.thumb
 429              		.syntax unified
 430              	.LBE39:
 431              		.loc 1 235 0
 432 0026 2046     		mov	r0, r4
 433 0028 10BD     		pop	{r4, pc}
 434              	.LVL27:
 435              	.L19:
 436 002a 00BF     		.align	2
 437              	.L18:
 438 002c 00000000 		.word	rlist
 439              		.cfi_endproc
 440              	.LFE10:
 441              		.size	chThdSetPriority, .-chThdSetPriority
 442              		.section	.text.chThdResume,"ax",%progbits
 443              		.align	2
 444              		.p2align 4,,15
 445              		.global	chThdResume
 446              		.thumb
 447              		.thumb_func
 448              		.type	chThdResume, %function
 449              	chThdResume:
 450              	.LFB11:
 451              		.loc 1 250 0
 452              		.cfi_startproc
 453              		@ args = 0, pretend = 0, frame = 0
 454              		@ frame_needed = 0, uses_anonymous_args = 0
 455              	.LVL28:
 456 0000 10B5     		push	{r4, lr}
ARM GAS  /var/folders/6q/x_mk5n_j3p7_c40r_2k_78980000gn/T//ccBEVPuW.s 			page 9


 457              		.cfi_def_cfa_offset 8
 458              		.cfi_offset 4, -8
 459              		.cfi_offset 14, -4
 460              	.LBB40:
 461              		.loc 1 252 0
 462 0002 2023     		movs	r3, #32
 463              	.LBE40:
 464              		.loc 1 250 0
 465 0004 0446     		mov	r4, r0
 466              	.LBB41:
 467              		.loc 1 252 0
 468              		.syntax unified
 469              	@ 252 "../ChibiOS/os/kernel/src/chthreads.c" 1
 470 0006 83F31188 		msr     BASEPRI, r3
 471              	@ 0 "" 2
 472              		.thumb
 473              		.syntax unified
 474              	.LBE41:
 475              		.loc 1 256 0
 476 000a 0021     		movs	r1, #0
 477 000c FFF7FEFF 		bl	chSchWakeupS
 478              	.LVL29:
 479              	.LBB42:
 480              		.loc 1 257 0
 481 0010 0023     		movs	r3, #0
 482              		.syntax unified
 483              	@ 257 "../ChibiOS/os/kernel/src/chthreads.c" 1
 484 0012 83F31188 		msr     BASEPRI, r3
 485              	@ 0 "" 2
 486              		.thumb
 487              		.syntax unified
 488              	.LBE42:
 489              		.loc 1 259 0
 490 0016 2046     		mov	r0, r4
 491 0018 10BD     		pop	{r4, pc}
 492              		.cfi_endproc
 493              	.LFE11:
 494              		.size	chThdResume, .-chThdResume
 495 001a 00BF     		.section	.text.chThdTerminate,"ax",%progbits
 496              		.align	2
 497              		.p2align 4,,15
 498              		.global	chThdTerminate
 499              		.thumb
 500              		.thumb_func
 501              		.type	chThdTerminate, %function
 502              	chThdTerminate:
 503              	.LFB12:
 504              		.loc 1 273 0
 505              		.cfi_startproc
 506              		@ args = 0, pretend = 0, frame = 0
 507              		@ frame_needed = 0, uses_anonymous_args = 0
 508              		@ link register save eliminated.
 509              	.LVL30:
 510              	.LBB43:
 511              		.loc 1 275 0
 512 0000 2023     		movs	r3, #32
 513              		.syntax unified
ARM GAS  /var/folders/6q/x_mk5n_j3p7_c40r_2k_78980000gn/T//ccBEVPuW.s 			page 10


 514              	@ 275 "../ChibiOS/os/kernel/src/chthreads.c" 1
 515 0002 83F31188 		msr     BASEPRI, r3
 516              	@ 0 "" 2
 517              		.thumb
 518              		.syntax unified
 519              	.LBE43:
 520              		.loc 1 276 0
 521 0006 427F     		ldrb	r2, [r0, #29]	@ zero_extendqisi2
 522              	.LBB44:
 523              		.loc 1 277 0
 524 0008 0023     		movs	r3, #0
 525              	.LBE44:
 526              		.loc 1 276 0
 527 000a 42F00402 		orr	r2, r2, #4
 528 000e 4277     		strb	r2, [r0, #29]
 529              	.LBB45:
 530              		.loc 1 277 0
 531              		.syntax unified
 532              	@ 277 "../ChibiOS/os/kernel/src/chthreads.c" 1
 533 0010 83F31188 		msr     BASEPRI, r3
 534              	@ 0 "" 2
 535              		.thumb
 536              		.syntax unified
 537 0014 7047     		bx	lr
 538              	.LBE45:
 539              		.cfi_endproc
 540              	.LFE12:
 541              		.size	chThdTerminate, .-chThdTerminate
 542 0016 00BF     		.section	.text.chThdSleep,"ax",%progbits
 543              		.align	2
 544              		.p2align 4,,15
 545              		.global	chThdSleep
 546              		.thumb
 547              		.thumb_func
 548              		.type	chThdSleep, %function
 549              	chThdSleep:
 550              	.LFB13:
 551              		.loc 1 292 0
 552              		.cfi_startproc
 553              		@ args = 0, pretend = 0, frame = 0
 554              		@ frame_needed = 0, uses_anonymous_args = 0
 555              	.LVL31:
 556 0000 08B5     		push	{r3, lr}
 557              		.cfi_def_cfa_offset 8
 558              		.cfi_offset 3, -8
 559              		.cfi_offset 14, -4
 560              		.loc 1 292 0
 561 0002 0146     		mov	r1, r0
 562              	.LBB46:
 563              		.loc 1 296 0
 564 0004 2023     		movs	r3, #32
 565              		.syntax unified
 566              	@ 296 "../ChibiOS/os/kernel/src/chthreads.c" 1
 567 0006 83F31188 		msr     BASEPRI, r3
 568              	@ 0 "" 2
 569              		.thumb
 570              		.syntax unified
ARM GAS  /var/folders/6q/x_mk5n_j3p7_c40r_2k_78980000gn/T//ccBEVPuW.s 			page 11


 571              	.LBE46:
 572              		.loc 1 297 0
 573 000a 0620     		movs	r0, #6
 574              	.LVL32:
 575 000c FFF7FEFF 		bl	chSchGoSleepTimeoutS
 576              	.LVL33:
 577              	.LBB47:
 578              		.loc 1 298 0
 579 0010 0023     		movs	r3, #0
 580              		.syntax unified
 581              	@ 298 "../ChibiOS/os/kernel/src/chthreads.c" 1
 582 0012 83F31188 		msr     BASEPRI, r3
 583              	@ 0 "" 2
 584              		.thumb
 585              		.syntax unified
 586 0016 08BD     		pop	{r3, pc}
 587              	.LBE47:
 588              		.cfi_endproc
 589              	.LFE13:
 590              		.size	chThdSleep, .-chThdSleep
 591              		.section	.text.chThdSleepUntil,"ax",%progbits
 592              		.align	2
 593              		.p2align 4,,15
 594              		.global	chThdSleepUntil
 595              		.thumb
 596              		.thumb_func
 597              		.type	chThdSleepUntil, %function
 598              	chThdSleepUntil:
 599              	.LFB14:
 600              		.loc 1 309 0
 601              		.cfi_startproc
 602              		@ args = 0, pretend = 0, frame = 0
 603              		@ frame_needed = 0, uses_anonymous_args = 0
 604              	.LVL34:
 605 0000 08B5     		push	{r3, lr}
 606              		.cfi_def_cfa_offset 8
 607              		.cfi_offset 3, -8
 608              		.cfi_offset 14, -4
 609              	.LBB48:
 610              		.loc 1 311 0
 611 0002 2023     		movs	r3, #32
 612              		.syntax unified
 613              	@ 311 "../ChibiOS/os/kernel/src/chthreads.c" 1
 614 0004 83F31188 		msr     BASEPRI, r3
 615              	@ 0 "" 2
 616              		.thumb
 617              		.syntax unified
 618              	.LBE48:
 619              		.loc 1 312 0
 620 0008 054B     		ldr	r3, .L31
 621 000a D968     		ldr	r1, [r3, #12]
 622              	.LVL35:
 623 000c 411A     		subs	r1, r0, r1
 624              	.LVL36:
 625 000e 02D0     		beq	.L26
 626              		.loc 1 313 0
 627 0010 0620     		movs	r0, #6
ARM GAS  /var/folders/6q/x_mk5n_j3p7_c40r_2k_78980000gn/T//ccBEVPuW.s 			page 12


 628 0012 FFF7FEFF 		bl	chSchGoSleepTimeoutS
 629              	.LVL37:
 630              	.L26:
 631              	.LBB49:
 632              		.loc 1 314 0
 633 0016 0023     		movs	r3, #0
 634              		.syntax unified
 635              	@ 314 "../ChibiOS/os/kernel/src/chthreads.c" 1
 636 0018 83F31188 		msr     BASEPRI, r3
 637              	@ 0 "" 2
 638              		.thumb
 639              		.syntax unified
 640 001c 08BD     		pop	{r3, pc}
 641              	.L32:
 642 001e 00BF     		.align	2
 643              	.L31:
 644 0020 00000000 		.word	vtlist
 645              	.LBE49:
 646              		.cfi_endproc
 647              	.LFE14:
 648              		.size	chThdSleepUntil, .-chThdSleepUntil
 649              		.section	.text.chThdYield,"ax",%progbits
 650              		.align	2
 651              		.p2align 4,,15
 652              		.global	chThdYield
 653              		.thumb
 654              		.thumb_func
 655              		.type	chThdYield, %function
 656              	chThdYield:
 657              	.LFB15:
 658              		.loc 1 324 0
 659              		.cfi_startproc
 660              		@ args = 0, pretend = 0, frame = 0
 661              		@ frame_needed = 0, uses_anonymous_args = 0
 662 0000 08B5     		push	{r3, lr}
 663              		.cfi_def_cfa_offset 8
 664              		.cfi_offset 3, -8
 665              		.cfi_offset 14, -4
 666              	.LBB50:
 667              		.loc 1 326 0
 668 0002 2023     		movs	r3, #32
 669              		.syntax unified
 670              	@ 326 "../ChibiOS/os/kernel/src/chthreads.c" 1
 671 0004 83F31188 		msr     BASEPRI, r3
 672              	@ 0 "" 2
 673              		.thumb
 674              		.syntax unified
 675              	.LBE50:
 676              		.loc 1 327 0
 677 0008 064B     		ldr	r3, .L36
 678 000a 1A68     		ldr	r2, [r3]
 679 000c 9B69     		ldr	r3, [r3, #24]
 680 000e 9268     		ldr	r2, [r2, #8]
 681 0010 9B68     		ldr	r3, [r3, #8]
 682 0012 9A42     		cmp	r2, r3
 683 0014 01D3     		bcc	.L34
 684              		.loc 1 327 0 is_stmt 0 discriminator 1
ARM GAS  /var/folders/6q/x_mk5n_j3p7_c40r_2k_78980000gn/T//ccBEVPuW.s 			page 13


 685 0016 FFF7FEFF 		bl	chSchDoRescheduleBehind
 686              	.LVL38:
 687              	.L34:
 688              	.LBB51:
 689              		.loc 1 328 0 is_stmt 1
 690 001a 0023     		movs	r3, #0
 691              		.syntax unified
 692              	@ 328 "../ChibiOS/os/kernel/src/chthreads.c" 1
 693 001c 83F31188 		msr     BASEPRI, r3
 694              	@ 0 "" 2
 695              		.thumb
 696              		.syntax unified
 697 0020 08BD     		pop	{r3, pc}
 698              	.L37:
 699 0022 00BF     		.align	2
 700              	.L36:
 701 0024 00000000 		.word	rlist
 702              	.LBE51:
 703              		.cfi_endproc
 704              	.LFE15:
 705              		.size	chThdYield, .-chThdYield
 706              		.section	.text.chThdExitS,"ax",%progbits
 707              		.align	2
 708              		.p2align 4,,15
 709              		.global	chThdExitS
 710              		.thumb
 711              		.thumb_func
 712              		.type	chThdExitS, %function
 713              	chThdExitS:
 714              	.LFB17:
 715              		.loc 1 366 0
 716              		.cfi_startproc
 717              		@ args = 0, pretend = 0, frame = 0
 718              		@ frame_needed = 0, uses_anonymous_args = 0
 719              	.LVL39:
 720 0000 38B5     		push	{r3, r4, r5, lr}
 721              		.cfi_def_cfa_offset 16
 722              		.cfi_offset 3, -16
 723              		.cfi_offset 4, -12
 724              		.cfi_offset 5, -8
 725              		.cfi_offset 14, -4
 726              		.loc 1 367 0
 727 0002 0E4B     		ldr	r3, .L46
 728 0004 9C69     		ldr	r4, [r3, #24]
 729              	.LVL40:
 730              		.loc 1 374 0
 731 0006 2546     		mov	r5, r4
 732              		.loc 1 369 0
 733 0008 6062     		str	r0, [r4, #36]
 734              		.loc 1 374 0
 735 000a 55F8280F 		ldr	r0, [r5, #40]!
 736              	.LVL41:
 737 000e A842     		cmp	r0, r5
 738 0010 06D0     		beq	.L43
 739              	.LVL42:
 740              	.L42:
 741              	.LBB52:
ARM GAS  /var/folders/6q/x_mk5n_j3p7_c40r_2k_78980000gn/T//ccBEVPuW.s 			page 14


 742              	.LBB53:
 743              		.file 2 "../ChibiOS/os/kernel/include/chinline.h"
 744              		.loc 2 89 0
 745 0012 0368     		ldr	r3, [r0]
 746 0014 A362     		str	r3, [r4, #40]
 747              	.LVL43:
 748              	.LBE53:
 749              	.LBE52:
 750              		.loc 1 375 0
 751 0016 FFF7FEFF 		bl	chSchReadyI
 752              	.LVL44:
 753              		.loc 1 374 0
 754 001a A06A     		ldr	r0, [r4, #40]
 755 001c A842     		cmp	r0, r5
 756 001e F8D1     		bne	.L42
 757              	.L43:
 758              		.loc 1 380 0
 759 0020 637F     		ldrb	r3, [r4, #29]	@ zero_extendqisi2
 760 0022 9B07     		lsls	r3, r3, #30
 761 0024 04D1     		bne	.L41
 762              		.loc 1 381 0
 763 0026 2269     		ldr	r2, [r4, #16]
 764 0028 6369     		ldr	r3, [r4, #20]
 765 002a 1A61     		str	r2, [r3, #16]
 766 002c 2269     		ldr	r2, [r4, #16]
 767 002e 5361     		str	r3, [r2, #20]
 768              	.L41:
 769              		.loc 1 383 0
 770 0030 0E20     		movs	r0, #14
 771              		.loc 1 386 0
 772 0032 BDE83840 		pop	{r3, r4, r5, lr}
 773              		.cfi_restore 14
 774              		.cfi_restore 5
 775              		.cfi_restore 4
 776              		.cfi_restore 3
 777              		.cfi_def_cfa_offset 0
 778              	.LVL45:
 779              		.loc 1 383 0
 780 0036 FFF7FEBF 		b	chSchGoSleepS
 781              	.LVL46:
 782              	.L47:
 783 003a 00BF     		.align	2
 784              	.L46:
 785 003c 00000000 		.word	rlist
 786              		.cfi_endproc
 787              	.LFE17:
 788              		.size	chThdExitS, .-chThdExitS
 789              		.section	.text.chThdExit,"ax",%progbits
 790              		.align	2
 791              		.p2align 4,,15
 792              		.global	chThdExit
 793              		.thumb
 794              		.thumb_func
 795              		.type	chThdExit, %function
 796              	chThdExit:
 797              	.LFB16:
 798              		.loc 1 345 0
ARM GAS  /var/folders/6q/x_mk5n_j3p7_c40r_2k_78980000gn/T//ccBEVPuW.s 			page 15


 799              		.cfi_startproc
 800              		@ args = 0, pretend = 0, frame = 0
 801              		@ frame_needed = 0, uses_anonymous_args = 0
 802              		@ link register save eliminated.
 803              	.LVL47:
 804              	.LBB54:
 805              		.loc 1 347 0
 806 0000 2023     		movs	r3, #32
 807              		.syntax unified
 808              	@ 347 "../ChibiOS/os/kernel/src/chthreads.c" 1
 809 0002 83F31188 		msr     BASEPRI, r3
 810              	@ 0 "" 2
 811              		.thumb
 812              		.syntax unified
 813              	.LBE54:
 814              		.loc 1 348 0
 815 0006 FFF7FEBF 		b	chThdExitS
 816              	.LVL48:
 817              		.cfi_endproc
 818              	.LFE16:
 819              		.size	chThdExit, .-chThdExit
 820 000a 00BF     		.section	.text.chThdWait,"ax",%progbits
 821              		.align	2
 822              		.p2align 4,,15
 823              		.global	chThdWait
 824              		.thumb
 825              		.thumb_func
 826              		.type	chThdWait, %function
 827              	chThdWait:
 828              	.LFB18:
 829              		.loc 1 420 0
 830              		.cfi_startproc
 831              		@ args = 0, pretend = 0, frame = 0
 832              		@ frame_needed = 0, uses_anonymous_args = 0
 833              	.LVL49:
 834 0000 38B5     		push	{r3, r4, r5, lr}
 835              		.cfi_def_cfa_offset 16
 836              		.cfi_offset 3, -16
 837              		.cfi_offset 4, -12
 838              		.cfi_offset 5, -8
 839              		.cfi_offset 14, -4
 840              		.loc 1 420 0
 841 0002 0446     		mov	r4, r0
 842              	.LBB55:
 843              		.loc 1 425 0
 844 0004 2023     		movs	r3, #32
 845              		.syntax unified
 846              	@ 425 "../ChibiOS/os/kernel/src/chthreads.c" 1
 847 0006 83F31188 		msr     BASEPRI, r3
 848              	@ 0 "" 2
 849              		.thumb
 850              		.syntax unified
 851              	.LBE55:
 852              		.loc 1 430 0
 853 000a 037F     		ldrb	r3, [r0, #28]	@ zero_extendqisi2
 854 000c 0E2B     		cmp	r3, #14
 855 000e 07D0     		beq	.L50
ARM GAS  /var/folders/6q/x_mk5n_j3p7_c40r_2k_78980000gn/T//ccBEVPuW.s 			page 16


 856              		.loc 1 431 0
 857 0010 084B     		ldr	r3, .L55
 858              	.LBB56:
 859              	.LBB57:
 860              		.loc 2 82 0
 861 0012 826A     		ldr	r2, [r0, #40]
 862              	.LBE57:
 863              	.LBE56:
 864              		.loc 1 431 0
 865 0014 9B69     		ldr	r3, [r3, #24]
 866              	.LVL50:
 867              		.loc 1 432 0
 868 0016 0720     		movs	r0, #7
 869              	.LVL51:
 870              	.LBB59:
 871              	.LBB58:
 872              		.loc 2 82 0
 873 0018 1A60     		str	r2, [r3]
 874              		.loc 2 83 0
 875 001a A362     		str	r3, [r4, #40]
 876              	.LVL52:
 877              	.LBE58:
 878              	.LBE59:
 879              		.loc 1 432 0
 880 001c FFF7FEFF 		bl	chSchGoSleepS
 881              	.LVL53:
 882              	.L50:
 883              		.loc 1 434 0
 884 0020 656A     		ldr	r5, [r4, #36]
 885              	.LVL54:
 886              	.LBB60:
 887              		.loc 1 435 0
 888 0022 0023     		movs	r3, #0
 889              		.syntax unified
 890              	@ 435 "../ChibiOS/os/kernel/src/chthreads.c" 1
 891 0024 83F31188 		msr     BASEPRI, r3
 892              	@ 0 "" 2
 893              		.thumb
 894              		.syntax unified
 895              	.LBE60:
 896              		.loc 1 437 0
 897 0028 2046     		mov	r0, r4
 898 002a FFF7FEFF 		bl	chThdRelease
 899              	.LVL55:
 900              		.loc 1 440 0
 901 002e 2846     		mov	r0, r5
 902 0030 38BD     		pop	{r3, r4, r5, pc}
 903              	.LVL56:
 904              	.L56:
 905 0032 00BF     		.align	2
 906              	.L55:
 907 0034 00000000 		.word	rlist
 908              		.cfi_endproc
 909              	.LFE18:
 910              		.size	chThdWait, .-chThdWait
 911              		.text
 912              	.Letext0:
ARM GAS  /var/folders/6q/x_mk5n_j3p7_c40r_2k_78980000gn/T//ccBEVPuW.s 			page 17


 913              		.file 3 "/Users/Luca/src/vexilla/src/gcc-arm-none-eabi-5_4-2016q3/lib/gcc/arm-none-eabi/5.4.1/incl
 914              		.file 4 "/Users/Luca/src/vexilla/src/gcc-arm-none-eabi-5_4-2016q3/arm-none-eabi/include/machine/_d
 915              		.file 5 "/Users/Luca/src/vexilla/src/gcc-arm-none-eabi-5_4-2016q3/arm-none-eabi/include/sys/_stdin
 916              		.file 6 "../ChibiOS/os/ports/GCC/ARMCMx/chtypes.h"
 917              		.file 7 "../ChibiOS/os/kernel/include/chlists.h"
 918              		.file 8 "../ChibiOS/os/kernel/include/chthreads.h"
 919              		.file 9 "../ChibiOS/os/ports/GCC/ARMCMx/chcore_v7m.h"
 920              		.file 10 "../ChibiOS/os/kernel/include/chvt.h"
 921              		.file 11 "../ChibiOS/os/kernel/include/chschd.h"
 922              		.file 12 "../ChibiOS/os/kernel/include/chmtx.h"
 923              		.file 13 "../ChibiOS/os/kernel/include/chdynamic.h"