ARM GAS  /var/folders/6q/x_mk5n_j3p7_c40r_2k_78980000gn/T//ccBEVPuW.s 			page 1


   1              		.syntax unified
   2              		.cpu cortex-m3
   3              		.fpu softvfp
   4              		.eabi_attribute 20, 1
   5              		.eabi_attribute 21, 1
   6              		.eabi_attribute 23, 3
   7              		.eabi_attribute 24, 1
   8              		.eabi_attribute 25, 1
   9              		.eabi_attribute 26, 1
  10              		.eabi_attribute 30, 2
  11              		.eabi_attribute 34, 1
  12              		.eabi_attribute 18, 4
  13              		.thumb
  14              		.syntax unified
  15              		.file	"chthreads.c"
  16              		.text
  17              	.Ltext0:
  18              		.cfi_sections	.debug_frame
  19              		.section	.text._thread_init,"ax",%progbits
  20              		.align	2
  21              		.p2align 4,,15
  22              		.global	_thread_init
  23              		.thumb
  24              		.thumb_func
  25              		.type	_thread_init, %function
  26              	_thread_init:
  27              	.LFB7:
  28              		.file 1 "../ChibiOS/os/kernel/src/chthreads.c"
  29              		.loc 1 76 0
  30              		.cfi_startproc
  31              		@ args = 0, pretend = 0, frame = 0
  32              		@ frame_needed = 0, uses_anonymous_args = 0
  33              	.LVL0:
  34 0000 F0B5     		push	{r4, r5, r6, r7, lr}
  35              		.cfi_def_cfa_offset 20
  36              		.cfi_offset 4, -20
  37              		.cfi_offset 5, -16
  38              		.cfi_offset 6, -12
  39              		.cfi_offset 7, -8
  40              		.cfi_offset 14, -4
  41              		.loc 1 99 0
  42 0002 0F4C     		ldr	r4, .L3
  43              		.loc 1 80 0
  44 0004 0022     		movs	r2, #0
  45              		.loc 1 99 0
  46 0006 6569     		ldr	r5, [r4, #20]
  47              		.loc 1 85 0
  48 0008 0164     		str	r1, [r0, #64]
  49              		.loc 1 78 0
  50 000a 8160     		str	r1, [r0, #8]
  51              		.loc 1 99 0
  52 000c 0461     		str	r4, [r0, #16]
  53 000e 4561     		str	r5, [r0, #20]
  54              		.loc 1 105 0
  55 0010 00F12C01 		add	r1, r0, #44
  56              	.LVL1:
  57              		.loc 1 99 0
ARM GAS  /var/folders/6q/x_mk5n_j3p7_c40r_2k_78980000gn/T//ccBEVPuW.s 			page 2


  58 0014 6061     		str	r0, [r4, #20]
  59              		.loc 1 79 0
  60 0016 4FF0020E 		mov	lr, #2
  61              		.loc 1 82 0
  62 001a 1427     		movs	r7, #20
  63              		.loc 1 95 0
  64 001c 0126     		movs	r6, #1
  65              		.loc 1 102 0
  66 001e 00F12804 		add	r4, r0, #40
  67              		.loc 1 79 0
  68 0022 80F81CE0 		strb	lr, [r0, #28]
  69              		.loc 1 82 0
  70 0026 C777     		strb	r7, [r0, #31]
  71              		.loc 1 95 0
  72 0028 8677     		strb	r6, [r0, #30]
  73              		.loc 1 80 0
  74 002a 4277     		strb	r2, [r0, #29]
  75              		.loc 1 86 0
  76 002c C263     		str	r2, [r0, #60]
  77              		.loc 1 89 0
  78 002e 8263     		str	r2, [r0, #56]
  79              		.loc 1 92 0
  80 0030 0262     		str	r2, [r0, #32]
  81              		.loc 1 98 0
  82 0032 8261     		str	r2, [r0, #24]
  83              		.loc 1 99 0
  84 0034 2861     		str	r0, [r5, #16]
  85              		.loc 1 102 0
  86 0036 8462     		str	r4, [r0, #40]
  87              		.loc 1 105 0
  88 0038 0163     		str	r1, [r0, #48]
  89 003a C162     		str	r1, [r0, #44]
  90              		.loc 1 114 0
  91 003c F0BD     		pop	{r4, r5, r6, r7, pc}
  92              	.L4:
  93 003e 00BF     		.align	2
  94              	.L3:
  95 0040 00000000 		.word	rlist
  96              		.cfi_endproc
  97              	.LFE7:
  98              		.size	_thread_init, .-_thread_init
  99              		.section	.text.chThdCreateI,"ax",%progbits
 100              		.align	2
 101              		.p2align 4,,15
 102              		.global	chThdCreateI
 103              		.thumb
 104              		.thumb_func
 105              		.type	chThdCreateI, %function
 106              	chThdCreateI:
 107              	.LFB8:
 108              		.loc 1 158 0
 109              		.cfi_startproc
 110              		@ args = 4, pretend = 0, frame = 0
 111              		@ frame_needed = 0, uses_anonymous_args = 0
 112              	.LVL2:
 113              		.loc 1 167 0
 114 0000 2439     		subs	r1, r1, #36
ARM GAS  /var/folders/6q/x_mk5n_j3p7_c40r_2k_78980000gn/T//ccBEVPuW.s 			page 3


 115              	.LVL3:
 116              		.loc 1 158 0
 117 0002 F0B5     		push	{r4, r5, r6, r7, lr}
 118              		.cfi_def_cfa_offset 20
 119              		.cfi_offset 4, -20
 120              		.cfi_offset 5, -16
 121              		.cfi_offset 6, -12
 122              		.cfi_offset 7, -8
 123              		.cfi_offset 14, -4
 124              		.loc 1 167 0
 125 0004 4618     		adds	r6, r0, r1
 126 0006 C660     		str	r6, [r0, #12]
 127              	.LBB16:
 128              	.LBB17:
 129              		.loc 1 99 0
 130 0008 114D     		ldr	r5, .L7
 131              	.LBE17:
 132              	.LBE16:
 133              		.loc 1 167 0
 134 000a 4350     		str	r3, [r0, r1]
 135 000c 059B     		ldr	r3, [sp, #20]
 136              	.LVL4:
 137 000e 114F     		ldr	r7, .L7+4
 138              	.LBB21:
 139              	.LBB18:
 140              		.loc 1 99 0
 141 0010 6969     		ldr	r1, [r5, #20]
 142              	.LVL5:
 143              	.LBE18:
 144              	.LBE21:
 145              		.loc 1 167 0
 146 0012 7360     		str	r3, [r6, #4]
 147              	.LBB22:
 148              	.LBB19:
 149              		.loc 1 79 0
 150 0014 0223     		movs	r3, #2
 151              	.LBE19:
 152              	.LBE22:
 153              		.loc 1 167 0
 154 0016 3762     		str	r7, [r6, #32]
 155              	.LVL6:
 156              	.LBB23:
 157              	.LBB20:
 158              		.loc 1 82 0
 159 0018 4FF0140E 		mov	lr, #20
 160              		.loc 1 78 0
 161 001c 8260     		str	r2, [r0, #8]
 162              		.loc 1 85 0
 163 001e 0264     		str	r2, [r0, #64]
 164              		.loc 1 79 0
 165 0020 0377     		strb	r3, [r0, #28]
 166              	.LVL7:
 167              		.loc 1 105 0
 168 0022 00F12C02 		add	r2, r0, #44
 169              	.LVL8:
 170              		.loc 1 80 0
 171 0026 0023     		movs	r3, #0
ARM GAS  /var/folders/6q/x_mk5n_j3p7_c40r_2k_78980000gn/T//ccBEVPuW.s 			page 4


 172              		.loc 1 95 0
 173 0028 0127     		movs	r7, #1
 174              		.loc 1 102 0
 175 002a 00F12806 		add	r6, r0, #40
 176              		.loc 1 99 0
 177 002e 0561     		str	r5, [r0, #16]
 178 0030 4161     		str	r1, [r0, #20]
 179              		.loc 1 82 0
 180 0032 80F81FE0 		strb	lr, [r0, #31]
 181              		.loc 1 95 0
 182 0036 8777     		strb	r7, [r0, #30]
 183              		.loc 1 80 0
 184 0038 4377     		strb	r3, [r0, #29]
 185              		.loc 1 99 0
 186 003a 6861     		str	r0, [r5, #20]
 187              		.loc 1 86 0
 188 003c C363     		str	r3, [r0, #60]
 189              		.loc 1 89 0
 190 003e 8363     		str	r3, [r0, #56]
 191              		.loc 1 92 0
 192 0040 0362     		str	r3, [r0, #32]
 193              		.loc 1 98 0
 194 0042 8361     		str	r3, [r0, #24]
 195              		.loc 1 99 0
 196 0044 0861     		str	r0, [r1, #16]
 197              		.loc 1 102 0
 198 0046 8662     		str	r6, [r0, #40]
 199              		.loc 1 105 0
 200 0048 0263     		str	r2, [r0, #48]
 201 004a C262     		str	r2, [r0, #44]
 202              	.LVL9:
 203              	.LBE20:
 204              	.LBE23:
 205              		.loc 1 169 0
 206 004c F0BD     		pop	{r4, r5, r6, r7, pc}
 207              	.LVL10:
 208              	.L8:
 209 004e 00BF     		.align	2
 210              	.L7:
 211 0050 00000000 		.word	rlist
 212 0054 00000000 		.word	_port_thread_start
 213              		.cfi_endproc
 214              	.LFE8:
 215              		.size	chThdCreateI, .-chThdCreateI
 216              		.section	.text.chThdCreateStatic,"ax",%progbits
 217              		.align	2
 218              		.p2align 4,,15
 219              		.global	chThdCreateStatic
 220              		.thumb
 221              		.thumb_func
 222              		.type	chThdCreateStatic, %function
 223              	chThdCreateStatic:
 224              	.LFB9:
 225              		.loc 1 188 0
 226              		.cfi_startproc
 227              		@ args = 4, pretend = 0, frame = 0
 228              		@ frame_needed = 0, uses_anonymous_args = 0
ARM GAS  /var/folders/6q/x_mk5n_j3p7_c40r_2k_78980000gn/T//ccBEVPuW.s 			page 5


 229              	.LVL11:
 230 0000 F8B5     		push	{r3, r4, r5, r6, r7, lr}
 231              		.cfi_def_cfa_offset 24
 232              		.cfi_offset 3, -24
 233              		.cfi_offset 4, -20
 234              		.cfi_offset 5, -16
 235              		.cfi_offset 6, -12
 236              		.cfi_offset 7, -8
 237              		.cfi_offset 14, -4
 238              		.loc 1 188 0
 239 0002 1F46     		mov	r7, r3
 240 0004 0446     		mov	r4, r0
 241              	.LBB24:
 242              		.loc 1 199 0
 243 0006 2023     		movs	r3, #32
 244              	.LVL12:
 245              		.syntax unified
 246              	@ 199 "../ChibiOS/os/kernel/src/chthreads.c" 1
 247 0008 83F31188 		msr     BASEPRI, r3
 248              	@ 0 "" 2
 249              	.LVL13:
 250              		.thumb
 251              		.syntax unified
 252              	.LBE24:
 253              	.LBB25:
 254              	.LBB26:
 255              		.loc 1 167 0
 256 000c 2439     		subs	r1, r1, #36
 257              	.LVL14:
 258 000e 4518     		adds	r5, r0, r1
 259              	.LBB27:
 260              	.LBB28:
 261              		.loc 1 99 0
 262 0010 164B     		ldr	r3, .L11
 263              	.LBE28:
 264              	.LBE27:
 265              		.loc 1 167 0
 266 0012 C560     		str	r5, [r0, #12]
 267 0014 164E     		ldr	r6, .L11+4
 268 0016 4750     		str	r7, [r0, r1]
 269 0018 0699     		ldr	r1, [sp, #24]
 270              	.LVL15:
 271              	.LBB32:
 272              	.LBB29:
 273              		.loc 1 99 0
 274 001a 5F69     		ldr	r7, [r3, #20]
 275              	.LVL16:
 276              	.LBE29:
 277              	.LBE32:
 278              		.loc 1 167 0
 279 001c 2E62     		str	r6, [r5, #32]
 280              	.LVL17:
 281 001e 6960     		str	r1, [r5, #4]
 282              	.LBB33:
 283              	.LBB30:
 284              		.loc 1 79 0
 285 0020 4FF0020C 		mov	ip, #2
ARM GAS  /var/folders/6q/x_mk5n_j3p7_c40r_2k_78980000gn/T//ccBEVPuW.s 			page 6


 286              		.loc 1 80 0
 287 0024 0025     		movs	r5, #0
 288              	.LVL18:
 289              		.loc 1 78 0
 290 0026 8260     		str	r2, [r0, #8]
 291              		.loc 1 85 0
 292 0028 0264     		str	r2, [r0, #64]
 293              		.loc 1 82 0
 294 002a 4FF0140E 		mov	lr, #20
 295              		.loc 1 105 0
 296 002e 00F12C02 		add	r2, r0, #44
 297              	.LVL19:
 298              		.loc 1 102 0
 299 0032 00F12806 		add	r6, r0, #40
 300              		.loc 1 95 0
 301 0036 0121     		movs	r1, #1
 302              		.loc 1 99 0
 303 0038 0361     		str	r3, [r0, #16]
 304              		.loc 1 95 0
 305 003a 8177     		strb	r1, [r0, #30]
 306              	.LVL20:
 307              		.loc 1 99 0
 308 003c 4761     		str	r7, [r0, #20]
 309              		.loc 1 79 0
 310 003e 80F81CC0 		strb	ip, [r0, #28]
 311              		.loc 1 99 0
 312 0042 5861     		str	r0, [r3, #20]
 313              		.loc 1 82 0
 314 0044 80F81FE0 		strb	lr, [r0, #31]
 315              		.loc 1 80 0
 316 0048 4577     		strb	r5, [r0, #29]
 317              		.loc 1 86 0
 318 004a C563     		str	r5, [r0, #60]
 319              		.loc 1 89 0
 320 004c 8563     		str	r5, [r0, #56]
 321              		.loc 1 92 0
 322 004e 0562     		str	r5, [r0, #32]
 323              		.loc 1 98 0
 324 0050 8561     		str	r5, [r0, #24]
 325              	.LBE30:
 326              	.LBE33:
 327              	.LBE26:
 328              	.LBE25:
 329              		.loc 1 200 0
 330 0052 2946     		mov	r1, r5
 331              	.LBB36:
 332              	.LBB35:
 333              	.LBB34:
 334              	.LBB31:
 335              		.loc 1 99 0
 336 0054 3861     		str	r0, [r7, #16]
 337              		.loc 1 102 0
 338 0056 8662     		str	r6, [r0, #40]
 339              		.loc 1 105 0
 340 0058 0263     		str	r2, [r0, #48]
 341 005a C262     		str	r2, [r0, #44]
 342              	.LVL21:
ARM GAS  /var/folders/6q/x_mk5n_j3p7_c40r_2k_78980000gn/T//ccBEVPuW.s 			page 7


 343              	.LBE31:
 344              	.LBE34:
 345              	.LBE35:
 346              	.LBE36:
 347              		.loc 1 200 0
 348 005c FFF7FEFF 		bl	chSchWakeupS
 349              	.LVL22:
 350              	.LBB37:
 351              		.loc 1 201 0
 352 0060 2B46     		mov	r3, r5
 353              		.syntax unified
 354              	@ 201 "../ChibiOS/os/kernel/src/chthreads.c" 1
 355 0062 83F31188 		msr     BASEPRI, r3
 356              	@ 0 "" 2
 357              		.thumb
 358              		.syntax unified
 359              	.LBE37:
 360              		.loc 1 203 0
 361 0066 2046     		mov	r0, r4
 362 0068 F8BD     		pop	{r3, r4, r5, r6, r7, pc}
 363              	.LVL23:
 364              	.L12:
 365 006a 00BF     		.align	2
 366              	.L11:
 367 006c 00000000 		.word	rlist
 368 0070 00000000 		.word	_port_thread_start
 369              		.cfi_endproc
 370              	.LFE9:
 371              		.size	chThdCreateStatic, .-chThdCreateStatic
 372              		.section	.text.chThdSetPriority,"ax",%progbits
 373              		.align	2
 374              		.p2align 4,,15
 375              		.global	chThdSetPriority
 376              		.thumb
 377              		.thumb_func
 378              		.type	chThdSetPriority, %function
 379              	chThdSetPriority:
 380              	.LFB10:
 381              		.loc 1 217 0
 382              		.cfi_startproc
 383              		@ args = 0, pretend = 0, frame = 0
 384              		@ frame_needed = 0, uses_anonymous_args = 0
 385              	.LVL24:
 386 0000 10B5     		push	{r4, lr}
 387              		.cfi_def_cfa_offset 8
 388              		.cfi_offset 4, -8
 389              		.cfi_offset 14, -4
 390              	.LBB38:
 391              		.loc 1 222 0
 392 0002 2023     		movs	r3, #32
 393              		.syntax unified
 394              	@ 222 "../ChibiOS/os/kernel/src/chthreads.c" 1
 395 0004 83F31188 		msr     BASEPRI, r3
 396              	@ 0 "" 2
 397              		.thumb
 398              		.syntax unified
 399              	.LBE38:
ARM GAS  /var/folders/6q/x_mk5n_j3p7_c40r_2k_78980000gn/T//ccBEVPuW.s 			page 8


 400              		.loc 1 224 0
 401 0008 084B     		ldr	r3, .L18
 402 000a 9B69     		ldr	r3, [r3, #24]
 403 000c 1C6C     		ldr	r4, [r3, #64]
 404              	.LVL25:
 405              		.loc 1 225 0
 406 000e 9968     		ldr	r1, [r3, #8]
 407 0010 8C42     		cmp	r4, r1
 408 0012 01D0     		beq	.L14
 409              		.loc 1 225 0 is_stmt 0 discriminator 1
 410 0014 8142     		cmp	r1, r0
 411 0016 00D2     		bcs	.L15
 412              	.L14:
 413              		.loc 1 226 0 is_stmt 1
 414 0018 9860     		str	r0, [r3, #8]
 415              	.L15:
 416              		.loc 1 227 0
 417 001a 1864     		str	r0, [r3, #64]
 418              		.loc 1 232 0
 419 001c FFF7FEFF 		bl	chSchRescheduleS
 420              	.LVL26:
 421              	.LBB39:
 422              		.loc 1 233 0
 423 0020 0023     		movs	r3, #0
 424              		.syntax unified
 425              	@ 233 "../ChibiOS/os/kernel/src/chthreads.c" 1
 426 0022 83F31188 		msr     BASEPRI, r3
 427              	@ 0 "" 2
 428              		.thumb
 429              		.syntax unified
 430              	.LBE39:
 431              		.loc 1 235 0
 432 0026 2046     		mov	r0, r4
 433 0028 10BD     		pop	{r4, pc}
 434              	.LVL27:
 435              	.L19:
 436 002a 00BF     		.align	2
 437              	.L18:
 438 002c 00000000 		.word	rlist
 439              		.cfi_endproc
 440              	.LFE10:
 441              		.size	chThdSetPriority, .-chThdSetPriority
 442              		.section	.text.chThdResume,"ax",%progbits
 443              		.align	2
 444              		.p2align 4,,15
 445              		.global	chThdResume
 446              		.thumb
 447              		.thumb_func
 448              		.type	chThdResume, %function
 449              	chThdResume:
 450              	.LFB11:
 451              		.loc 1 250 0
 452              		.cfi_startproc
 453              		@ args = 0, pretend = 0, frame = 0
 454              		@ frame_needed = 0, uses_anonymous_args = 0
 455              	.LVL28:
 456 0000 10B5     		push	{r4, lr}
ARM GAS  /var/folders/6q/x_mk5n_j3p7_c40r_2k_78980000gn/T//ccBEVPuW.s 			page 9


 457              		.cfi_def_cfa_offset 8
 458              		.cfi_offset 4, -8
 459              		.cfi_offset 14, -4
 460              	.LBB40:
 461              		.loc 1 252 0
 462 0002 2023     		movs	r3, #32
 463              	.LBE40:
 464              		.loc 1 250 0
 465 0004 0446     		mov	r4, r0
 466              	.LBB41:
 467              		.loc 1 252 0
 468              		.syntax unified
 469              	@ 252 "../ChibiOS/os/kernel/src/chthreads.c" 1
 470 0006 83F31188 		msr     BASEPRI, r3
 471              	@ 0 "" 2
 472              		.thumb
 473              		.syntax unified
 474              	.LBE41:
 475              		.loc 1 256 0
 476 000a 0021     		movs	r1, #0
 477 000c FFF7FEFF 		bl	chSchWakeupS
 478              	.LVL29:
 479              	.LBB42:
 480              		.loc 1 257 0
 481 0010 0023     		movs	r3, #0
 482              		.syntax unified
 483              	@ 257 "../ChibiOS/os/kernel/src/chthreads.c" 1
 484 0012 83F31188 		msr     BASEPRI, r3
 485              	@ 0 "" 2
 486              		.thumb
 487              		.syntax unified
 488              	.LBE42:
 489              		.loc 1 259 0
 490 0016 2046     		mov	r0, r4
 491 0018 10BD     		pop	{r4, pc}
 492              		.cfi_endproc
 493              	.LFE11:
 494              		.size	chThdResume, .-chThdResume
 495 001a 00BF     		.section	.text.chThdTerminate,"ax",%progbits
 496              		.align	2
 497              		.p2align 4,,15
 498              		.global	chThdTerminate
 499              		.thumb
 500              		.thumb_func
 501              		.type	chThdTerminate, %function
 502              	chThdTerminate:
 503              	.LFB12:
 504              		.loc 1 273 0
 505              		.cfi_startproc
 506              		@ args = 0, pretend = 0, frame = 0
 507              		@ frame_needed = 0, uses_anonymous_args = 0
 508              		@ link register save eliminated.
 509              	.LVL30:
 510              	.LBB43:
 511              		.loc 1 275 0
 512 0000 2023     		movs	r3, #32
 513              		.syntax unified
ARM GAS  /var/folders/6q/x_mk5n_j3p7_c40r_2k_78980000gn/T//ccBEVPuW.s 			page 10


 514              	@ 275 "../ChibiOS/os/kernel/src/chthreads.c" 1
 515 0002 83F31188 		msr     BASEPRI, r3
 516              	@ 0 "" 2
 517              		.thumb
 518              		.syntax unified
 519              	.LBE43:
 520              		.loc 1 276 0
 521 0006 427F     		ldrb	r2, [r0, #29]	@ zero_extendqisi2
 522              	.LBB44:
 523              		.loc 1 277 0
 524 0008 0023     		movs	r3, #0
 525              	.LBE44:
 526              		.loc 1 276 0
 527 000a 42F00402 		orr	r2, r2, #4
 528 000e 4277     		strb	r2, [r0, #29]
 529              	.LBB45:
 530              		.loc 1 277 0
 531              		.syntax unified
 532              	@ 277 "../ChibiOS/os/kernel/src/chthreads.c" 1
 533 0010 83F31188 		msr     BASEPRI, r3
 534              	@ 0 "" 2
 535              		.thumb
 536              		.syntax unified
 537 0014 7047     		bx	lr
 538              	.LBE45:
 539              		.cfi_endproc
 540              	.LFE12:
 541              		.size	chThdTerminate, .-chThdTerminate
 542 0016 00BF     		.section	.text.chThdSleep,"ax",%progbits
 543              		.align	2
 544              		.p2align 4,,15
 545              		.global	chThdSleep
 546              		.thumb
 547              		.thumb_func
 548              		.type	chThdSleep, %function
 549              	chThdSleep:
 550              	.LFB13:
 551              		.loc 1 292 0
 552              		.cfi_startproc
 553              		@ args = 0, pretend = 0, frame = 0
 554              		@ frame_needed = 0, uses_anonymous_args = 0
 555              	.LVL31:
 556 0000 08B5     		push	{r3, lr}
 557              		.cfi_def_cfa_offset 8
 558              		.cfi_offset 3, -8
 559              		.cfi_offset 14, -4
 560              		.loc 1 292 0
 561 0002 0146     		mov	r1, r0
 562              	.LBB46:
 563              		.loc 1 296 0
 564 0004 2023     		movs	r3, #32
 565              		.syntax unified
 566              	@ 296 "../ChibiOS/os/kernel/src/chthreads.c" 1
 567 0006 83F31188 		msr     BASEPRI, r3
 568              	@ 0 "" 2
 569              		.thumb
 570              		.syntax unified
ARM GAS  /var/folders/6q/x_mk5n_j3p7_c40r_2k_78980000gn/T//ccBEVPuW.s 			page 11


 571              	.LBE46:
 572              		.loc 1 297 0
 573 000a 0620     		movs	r0, #6
 574              	.LVL32:
 575 000c FFF7FEFF 		bl	chSchGoSleepTimeoutS
 576              	.LVL33:
 577              	.LBB47:
 578              		.loc 1 298 0
 579 0010 0023     		movs	r3, #0
 580              		.syntax unified
 581              	@ 298 "../ChibiOS/os/kernel/src/chthreads.c" 1
 582 0012 83F31188 		msr     BASEPRI, r3
 583              	@ 0 "" 2
 584              		.thumb
 585              		.syntax unified
 586 0016 08BD     		pop	{r3, pc}
 587              	.LBE47:
 588              		.cfi_endproc
 589              	.LFE13:
 590              		.size	chThdSleep, .-chThdSleep
 591              		.section	.text.chThdSleepUntil,"ax",%progbits
 592              		.align	2
 593              		.p2align 4,,15
 594              		.global	chThdSleepUntil
 595              		.thumb
 596              		.thumb_func
 597              		.type	chThdSleepUntil, %function
 598              	chThdSleepUntil:
 599              	.LFB14:
 600              		.loc 1 309 0
 601              		.cfi_startproc
 602              		@ args = 0, pretend = 0, frame = 0
 603              		@ frame_needed = 0, uses_anonymous_args = 0
 604              	.LVL34:
 605 0000 08B5     		push	{r3, lr}
 606              		.cfi_def_cfa_offset 8
 607              		.cfi_offset 3, -8
 608              		.cfi_offset 14, -4
 609              	.LBB48:
 610              		.loc 1 311 0
 611 0002 2023     		movs	r3, #32
 612              		.syntax unified
 613              	@ 311 "../ChibiOS/os/kernel/src/chthreads.c" 1
 614 0004 83F31188 		msr     BASEPRI, r3
 615              	@ 0 "" 2
 616              		.thumb
 617              		.syntax unified
 618              	.LBE48:
 619              		.loc 1 312 0
 620 0008 054B     		ldr	r3, .L31
 621 000a D968     		ldr	r1, [r3, #12]
 622              	.LVL35:
 623 000c 411A     		subs	r1, r0, r1
 624              	.LVL36:
 625 000e 02D0     		beq	.L26
 626              		.loc 1 313 0
 627 0010 0620     		movs	r0, #6
ARM GAS  /var/folders/6q/x_mk5n_j3p7_c40r_2k_78980000gn/T//ccBEVPuW.s 			page 12


 628 0012 FFF7FEFF 		bl	chSchGoSleepTimeoutS
 629              	.LVL37:
 630              	.L26:
 631              	.LBB49:
 632              		.loc 1 314 0
 633 0016 0023     		movs	r3, #0
 634              		.syntax unified
 635              	@ 314 "../ChibiOS/os/kernel/src/chthreads.c" 1
 636 0018 83F31188 		msr     BASEPRI, r3
 637              	@ 0 "" 2
 638              		.thumb
 639              		.syntax unified
 640 001c 08BD     		pop	{r3, pc}
 641              	.L32:
 642 001e 00BF     		.align	2
 643              	.L31:
 644 0020 00000000 		.word	vtlist
 645              	.LBE49:
 646              		.cfi_endproc
 647              	.LFE14:
 648              		.size	chThdSleepUntil, .-chThdSleepUntil
 649              		.section	.text.chThdYield,"ax",%progbits
 650              		.align	2
 651              		.p2align 4,,15
 652              		.global	chThdYield
 653              		.thumb
 654              		.thumb_func
 655              		.type	chThdYield, %function
 656              	chThdYield:
 657              	.LFB15:
 658              		.loc 1 324 0
 659              		.cfi_startproc
 660              		@ args = 0, pretend = 0, frame = 0
 661              		@ frame_needed = 0, uses_anonymous_args = 0
 662 0000 08B5     		push	{r3, lr}
 663              		.cfi_def_cfa_offset 8
 664              		.cfi_offset 3, -8
 665              		.cfi_offset 14, -4
 666              	.LBB50:
 667              		.loc 1 326 0
 668 0002 2023     		movs	r3, #32
 669              		.syntax unified
 670              	@ 326 "../ChibiOS/os/kernel/src/chthreads.c" 1
 671 0004 83F31188 		msr     BASEPRI, r3
 672              	@ 0 "" 2
 673              		.thumb
 674              		.syntax unified
 675              	.LBE50:
 676              		.loc 1 327 0
 677 0008 064B     		ldr	r3, .L36
 678 000a 1A68     		ldr	r2, [r3]
 679 000c 9B69     		ldr	r3, [r3, #24]
 680 000e 9268     		ldr	r2, [r2, #8]
 681 0010 9B68     		ldr	r3, [r3, #8]
 682 0012 9A42     		cmp	r2, r3
 683 0014 01D3     		bcc	.L34
 684              		.loc 1 327 0 is_stmt 0 discriminator 1
ARM GAS  /var/folders/6q/x_mk5n_j3p7_c40r_2k_78980000gn/T//ccBEVPuW.s 			page 13


 685 0016 FFF7FEFF 		bl	chSchDoRescheduleBehind
 686              	.LVL38:
 687              	.L34:
 688              	.LBB51:
 689              		.loc 1 328 0 is_stmt 1
 690 001a 0023     		movs	r3, #0
 691              		.syntax unified
 692              	@ 328 "../ChibiOS/os/kernel/src/chthreads.c" 1
 693 001c 83F31188 		msr     BASEPRI, r3
 694              	@ 0 "" 2
 695              		.thumb
 696              		.syntax unified
 697 0020 08BD     		pop	{r3, pc}
 698              	.L37:
 699 0022 00BF     		.align	2
 700              	.L36:
 701 0024 00000000 		.word	rlist
 702              	.LBE51:
 703              		.cfi_endproc
 704              	.LFE15:
 705              		.size	chThdYield, .-chThdYield
 706              		.section	.text.chThdExitS,"ax",%progbits
 707              		.align	2
 708              		.p2align 4,,15
 709              		.global	chThdExitS
 710              		.thumb
 711              		.thumb_func
 712              		.type	chThdExitS, %function
 713              	chThdExitS:
 714              	.LFB17:
 715              		.loc 1 366 0
 716              		.cfi_startproc
 717              		@ args = 0, pretend = 0, frame = 0
 718              		@ frame_needed = 0, uses_anonymous_args = 0
 719              	.LVL39:
 720 0000 38B5     		push	{r3, r4, r5, lr}
 721              		.cfi_def_cfa_offset 16
 722              		.cfi_offset 3, -16
 723              		.cfi_offset 4, -12
 724              		.cfi_offset 5, -8
 725              		.cfi_offset 14, -4
 726              		.loc 1 367 0
 727 0002 0E4B     		ldr	r3, .L46
 728 0004 9C69     		ldr	r4, [r3, #24]
 729              	.LVL40:
 730              		.loc 1 374 0
 731 0006 2546     		mov	r5, r4
 732              		.loc 1 369 0
 733 0008 6062     		str	r0, [r4, #36]
 734              		.loc 1 374 0
 735 000a 55F8280F 		ldr	r0, [r5, #40]!
 736              	.LVL41:
 737 000e A842     		cmp	r0, r5
 738 0010 06D0     		beq	.L43
 739              	.LVL42:
 740              	.L42:
 741              	.LBB52:
ARM GAS  /var/folders/6q/x_mk5n_j3p7_c40r_2k_78980000gn/T//ccBEVPuW.s 			page 14


 742              	.LBB53:
 743              		.file 2 "../ChibiOS/os/kernel/include/chinline.h"
 744              		.loc 2 89 0
 745 0012 0368     		ldr	r3, [r0]
 746 0014 A362     		str	r3, [r4, #40]
 747              	.LVL43:
 748              	.LBE53:
 749              	.LBE52:
 750              		.loc 1 375 0
 751 0016 FFF7FEFF 		bl	chSchReadyI
 752              	.LVL44:
 753              		.loc 1 374 0
 754 001a A06A     		ldr	r0, [r4, #40]
 755 001c A842     		cmp	r0, r5
 756 001e F8D1     		bne	.L42
 757              	.L43:
 758              		.loc 1 380 0
 759 0020 637F     		ldrb	r3, [r4, #29]	@ zero_extendqisi2
 760 0022 9B07     		lsls	r3, r3, #30
 761 0024 04D1     		bne	.L41
 762              		.loc 1 381 0
 763 0026 2269     		ldr	r2, [r4, #16]
 764 0028 6369     		ldr	r3, [r4, #20]
 765 002a 1A61     		str	r2, [r3, #16]
 766 002c 2269     		ldr	r2, [r4, #16]
 767 002e 5361     		str	r3, [r2, #20]
 768              	.L41:
 769              		.loc 1 383 0
 770 0030 0E20     		movs	r0, #14
 771              		.loc 1 386 0
 772 0032 BDE83840 		pop	{r3, r4, r5, lr}
 773              		.cfi_restore 14
 774              		.cfi_restore 5
 775              		.cfi_restore 4
 776              		.cfi_restore 3
 777              		.cfi_def_cfa_offset 0
 778              	.LVL45:
 779              		.loc 1 383 0
 780 0036 FFF7FEBF 		b	chSchGoSleepS
 781              	.LVL46:
 782              	.L47:
 783 003a 00BF     		.align	2
 784              	.L46:
 785 003c 00000000 		.word	rlist
 786              		.cfi_endproc
 787              	.LFE17:
 788              		.size	chThdExitS, .-chThdExitS
 789              		.section	.text.chThdExit,"ax",%progbits
 790              		.align	2
 791              		.p2align 4,,15
 792              		.global	chThdExit
 793              		.thumb
 794              		.thumb_func
 795              		.type	chThdExit, %function
 796              	chThdExit:
 797              	.LFB16:
 798              		.loc 1 345 0
ARM GAS  /var/folders/6q/x_mk5n_j3p7_c40r_2k_78980000gn/T//ccBEVPuW.s 			page 15


 799              		.cfi_startproc
 800              		@ args = 0, pretend = 0, frame = 0
 801              		@ frame_needed = 0, uses_anonymous_args = 0
 802              		@ link register save eliminated.
 803              	.LVL47:
 804              	.LBB54:
 805              		.loc 1 347 0
 806 0000 2023     		movs	r3, #32
 807              		.syntax unified
 808              	@ 347 "../ChibiOS/os/kernel/src/chthreads.c" 1
 809 0002 83F31188 		msr     BASEPRI, r3
 810              	@ 0 "" 2
 811              		.thumb
 812              		.syntax unified
 813              	.LBE54:
 814              		.loc 1 348 0
 815 0006 FFF7FEBF 		b	chThdExitS
 816              	.LVL48:
 817              		.cfi_endproc
 818              	.LFE16:
 819              		.size	chThdExit, .-chThdExit
 820 000a 00BF     		.section	.text.chThdWait,"ax",%progbits
 821              		.align	2
 822              		.p2align 4,,15
 823              		.global	chThdWait
 824              		.thumb
 825              		.thumb_func
 826              		.type	chThdWait, %function
 827              	chThdWait:
 828              	.LFB18:
 829              		.loc 1 420 0
 830              		.cfi_startproc
 831              		@ args = 0, pretend = 0, frame = 0
 832              		@ frame_needed = 0, uses_anonymous_args = 0
 833              	.LVL49:
 834 0000 38B5     		push	{r3, r4, r5, lr}
 835              		.cfi_def_cfa_offset 16
 836              		.cfi_offset 3, -16
 837              		.cfi_offset 4, -12
 838              		.cfi_offset 5, -8
 839              		.cfi_offset 14, -4
 840              		.loc 1 420 0
 841 0002 0446     		mov	r4, r0
 842              	.LBB55:
 843              		.loc 1 425 0
 844 0004 2023     		movs	r3, #32
 845              		.syntax unified
 846              	@ 425 "../ChibiOS/os/kernel/src/chthreads.c" 1
 847 0006 83F31188 		msr     BASEPRI, r3
 848              	@ 0 "" 2
 849              		.thumb
 850              		.syntax unified
 851              	.LBE55:
 852              		.loc 1 430 0
 853 000a 037F     		ldrb	r3, [r0, #28]	@ zero_extendqisi2
 854 000c 0E2B     		cmp	r3, #14
 855 000e 07D0     		beq	.L50
ARM GAS  /var/folders/6q/x_mk5n_j3p7_c40r_2k_78980000gn/T//ccBEVPuW.s 			page 16


 856              		.loc 1 431 0
 857 0010 084B     		ldr	r3, .L55
 858              	.LBB56:
 859              	.LBB57:
 860              		.loc 2 82 0
 861 0012 826A     		ldr	r2, [r0, #40]
 862              	.LBE57:
 863              	.LBE56:
 864              		.loc 1 431 0
 865 0014 9B69     		ldr	r3, [r3, #24]
 866              	.LVL50:
 867              		.loc 1 432 0
 868 0016 0720     		movs	r0, #7
 869              	.LVL51:
 870              	.LBB59:
 871              	.LBB58:
 872              		.loc 2 82 0
 873 0018 1A60     		str	r2, [r3]
 874              		.loc 2 83 0
 875 001a A362     		str	r3, [r4, #40]
 876              	.LVL52:
 877              	.LBE58:
 878              	.LBE59:
 879              		.loc 1 432 0
 880 001c FFF7FEFF 		bl	chSchGoSleepS
 881              	.LVL53:
 882              	.L50:
 883              		.loc 1 434 0
 884 0020 656A     		ldr	r5, [r4, #36]
 885              	.LVL54:
 886              	.LBB60:
 887              		.loc 1 435 0
 888 0022 0023     		movs	r3, #0
 889              		.syntax unified
 890              	@ 435 "../ChibiOS/os/kernel/src/chthreads.c" 1
 891 0024 83F31188 		msr     BASEPRI, r3
 892              	@ 0 "" 2
 893              		.thumb
 894              		.syntax unified
 895              	.LBE60:
 896              		.loc 1 437 0
 897 0028 2046     		mov	r0, r4
 898 002a FFF7FEFF 		bl	chThdRelease
 899              	.LVL55:
 900              		.loc 1 440 0
 901 002e 2846     		mov	r0, r5
 902 0030 38BD     		pop	{r3, r4, r5, pc}
 903              	.LVL56:
 904              	.L56:
 905 0032 00BF     		.align	2
 906              	.L55:
 907 0034 00000000 		.word	rlist
 908              		.cfi_endproc
 909              	.LFE18:
 910              		.size	chThdWait, .-chThdWait
 911              		.text
 912              	.Letext0:
ARM GAS  /var/folders/6q/x_mk5n_j3p7_c40r_2k_78980000gn/T//ccBEVPuW.s 			page 17


 913              		.file 3 "/Users/Luca/src/vexilla/src/gcc-arm-none-eabi-5_4-2016q3/lib/gcc/arm-none-eabi/5.4.1/incl
 914              		.file 4 "/Users/Luca/src/vexilla/src/gcc-arm-none-eabi-5_4-2016q3/arm-none-eabi/include/machine/_d
 915              		.file 5 "/Users/Luca/src/vexilla/src/gcc-arm-none-eabi-5_4-2016q3/arm-none-eabi/include/sys/_stdin
 916              		.file 6 "../ChibiOS/os/ports/GCC/ARMCMx/chtypes.h"
 917              		.file 7 "../ChibiOS/os/kernel/include/chlists.h"
 918              		.file 8 "../ChibiOS/os/kernel/include/chthreads.h"
 919              		.file 9 "../ChibiOS/os/ports/GCC/ARMCMx/chcore_v7m.h"
 920              		.file 10 "../ChibiOS/os/kernel/include/chvt.h"
 921              		.file 11 "../ChibiOS/os/kernel/include/chschd.h"
 922              		.file 12 "../ChibiOS/os/kernel/include/chmtx.h"
 923              		.file 13 "../ChibiOS/os/kernel/include/chdynamic.h"
 924              		.section	.debug_info,"",%progbits
 925              	.Ldebug_info0:
 926 0000 D50B0000 		.4byte	0xbd5
 927 0004 0400     		.2byte	0x4
 928 0006 00000000 		.4byte	.Ldebug_abbrev0
 929 000a 04       		.byte	0x4
 930 000b 01       		.uleb128 0x1
 931 000c 44010000 		.4byte	.LASF104
 932 0010 0C       		.byte	0xc
 933 0011 47040000 		.4byte	.LASF105
 934 0015 19040000 		.4byte	.LASF106
 935 0019 B0000000 		.4byte	.Ldebug_ranges0+0xb0
 936 001d 00000000 		.4byte	0
 937 0021 00000000 		.4byte	.Ldebug_line0
 938 0025 02       		.uleb128 0x2
 939 0026 04       		.byte	0x4
 940 0027 05       		.byte	0x5
 941 0028 696E7400 		.ascii	"int\000"
 942 002c 03       		.uleb128 0x3
 943 002d 0E000000 		.4byte	.LASF4
 944 0031 03       		.byte	0x3
 945 0032 D8       		.byte	0xd8
 946 0033 37000000 		.4byte	0x37
 947 0037 04       		.uleb128 0x4
 948 0038 04       		.byte	0x4
 949 0039 07       		.byte	0x7
 950 003a 14010000 		.4byte	.LASF0
 951 003e 04       		.uleb128 0x4
 952 003f 08       		.byte	0x8
 953 0040 05       		.byte	0x5
 954 0041 65000000 		.4byte	.LASF1
 955 0045 04       		.uleb128 0x4
 956 0046 08       		.byte	0x8
 957 0047 04       		.byte	0x4
 958 0048 C1020000 		.4byte	.LASF2
 959 004c 04       		.uleb128 0x4
 960 004d 01       		.byte	0x1
 961 004e 06       		.byte	0x6
 962 004f 73000000 		.4byte	.LASF3
 963 0053 03       		.uleb128 0x3
 964 0054 22000000 		.4byte	.LASF5
 965 0058 04       		.byte	0x4
 966 0059 1D       		.byte	0x1d
 967 005a 5E000000 		.4byte	0x5e
 968 005e 04       		.uleb128 0x4
 969 005f 01       		.byte	0x1
ARM GAS  /var/folders/6q/x_mk5n_j3p7_c40r_2k_78980000gn/T//ccBEVPuW.s 			page 18


 970 0060 08       		.byte	0x8
 971 0061 6B030000 		.4byte	.LASF6
 972 0065 04       		.uleb128 0x4
 973 0066 02       		.byte	0x2
 974 0067 05       		.byte	0x5
 975 0068 83030000 		.4byte	.LASF7
 976 006c 04       		.uleb128 0x4
 977 006d 02       		.byte	0x2
 978 006e 07       		.byte	0x7
 979 006f 2B020000 		.4byte	.LASF8
 980 0073 03       		.uleb128 0x3
 981 0074 81040000 		.4byte	.LASF9
 982 0078 04       		.byte	0x4
 983 0079 3F       		.byte	0x3f
 984 007a 7E000000 		.4byte	0x7e
 985 007e 04       		.uleb128 0x4
 986 007f 04       		.byte	0x4
 987 0080 05       		.byte	0x5
 988 0081 B0000000 		.4byte	.LASF10
 989 0085 03       		.uleb128 0x3
 990 0086 E7000000 		.4byte	.LASF11
 991 008a 04       		.byte	0x4
 992 008b 41       		.byte	0x41
 993 008c 90000000 		.4byte	0x90
 994 0090 04       		.uleb128 0x4
 995 0091 04       		.byte	0x4
 996 0092 07       		.byte	0x7
 997 0093 29010000 		.4byte	.LASF12
 998 0097 04       		.uleb128 0x4
 999 0098 08       		.byte	0x8
 1000 0099 07       		.byte	0x7
 1001 009a 3E000000 		.4byte	.LASF13
 1002 009e 03       		.uleb128 0x3
 1003 009f DE040000 		.4byte	.LASF14
 1004 00a3 05       		.byte	0x5
 1005 00a4 18       		.byte	0x18
 1006 00a5 53000000 		.4byte	0x53
 1007 00a9 03       		.uleb128 0x3
 1008 00aa 63030000 		.4byte	.LASF15
 1009 00ae 05       		.byte	0x5
 1010 00af 2C       		.byte	0x2c
 1011 00b0 73000000 		.4byte	0x73
 1012 00b4 03       		.uleb128 0x3
 1013 00b5 E9030000 		.4byte	.LASF16
 1014 00b9 05       		.byte	0x5
 1015 00ba 30       		.byte	0x30
 1016 00bb 85000000 		.4byte	0x85
 1017 00bf 04       		.uleb128 0x4
 1018 00c0 01       		.byte	0x1
 1019 00c1 02       		.byte	0x2
 1020 00c2 5D030000 		.4byte	.LASF17
 1021 00c6 03       		.uleb128 0x3
 1022 00c7 61020000 		.4byte	.LASF18
 1023 00cb 06       		.byte	0x6
 1024 00cc 2C       		.byte	0x2c
 1025 00cd 9E000000 		.4byte	0x9e
 1026 00d1 03       		.uleb128 0x3
ARM GAS  /var/folders/6q/x_mk5n_j3p7_c40r_2k_78980000gn/T//ccBEVPuW.s 			page 19


 1027 00d2 B9000000 		.4byte	.LASF19
 1028 00d6 06       		.byte	0x6
 1029 00d7 2D       		.byte	0x2d
 1030 00d8 9E000000 		.4byte	0x9e
 1031 00dc 03       		.uleb128 0x3
 1032 00dd 46030000 		.4byte	.LASF20
 1033 00e1 06       		.byte	0x6
 1034 00e2 2E       		.byte	0x2e
 1035 00e3 9E000000 		.4byte	0x9e
 1036 00e7 03       		.uleb128 0x3
 1037 00e8 99000000 		.4byte	.LASF21
 1038 00ec 06       		.byte	0x6
 1039 00ed 2F       		.byte	0x2f
 1040 00ee 9E000000 		.4byte	0x9e
 1041 00f2 03       		.uleb128 0x3
 1042 00f3 55030000 		.4byte	.LASF22
 1043 00f7 06       		.byte	0x6
 1044 00f8 30       		.byte	0x30
 1045 00f9 B4000000 		.4byte	0xb4
 1046 00fd 03       		.uleb128 0x3
 1047 00fe 4B020000 		.4byte	.LASF23
 1048 0102 06       		.byte	0x6
 1049 0103 31       		.byte	0x31
 1050 0104 A9000000 		.4byte	0xa9
 1051 0108 03       		.uleb128 0x3
 1052 0109 84020000 		.4byte	.LASF24
 1053 010d 06       		.byte	0x6
 1054 010e 33       		.byte	0x33
 1055 010f B4000000 		.4byte	0xb4
 1056 0113 03       		.uleb128 0x3
 1057 0114 6C040000 		.4byte	.LASF25
 1058 0118 06       		.byte	0x6
 1059 0119 35       		.byte	0x35
 1060 011a B4000000 		.4byte	0xb4
 1061 011e 03       		.uleb128 0x3
 1062 011f C9030000 		.4byte	.LASF26
 1063 0123 07       		.byte	0x7
 1064 0124 2A       		.byte	0x2a
 1065 0125 29010000 		.4byte	0x129
 1066 0129 05       		.uleb128 0x5
 1067 012a C9030000 		.4byte	.LASF26
 1068 012e 48       		.byte	0x48
 1069 012f 08       		.byte	0x8
 1070 0130 5E       		.byte	0x5e
 1071 0131 26020000 		.4byte	0x226
 1072 0135 06       		.uleb128 0x6
 1073 0136 AD030000 		.4byte	.LASF27
 1074 013a 08       		.byte	0x8
 1075 013b 5F       		.byte	0x5f
 1076 013c 47020000 		.4byte	0x247
 1077 0140 00       		.byte	0
 1078 0141 06       		.uleb128 0x6
 1079 0142 4E030000 		.4byte	.LASF28
 1080 0146 08       		.byte	0x8
 1081 0147 61       		.byte	0x61
 1082 0148 47020000 		.4byte	0x247
 1083 014c 04       		.byte	0x4
ARM GAS  /var/folders/6q/x_mk5n_j3p7_c40r_2k_78980000gn/T//ccBEVPuW.s 			page 20


 1084 014d 06       		.uleb128 0x6
 1085 014e 5E000000 		.4byte	.LASF29
 1086 0152 08       		.byte	0x8
 1087 0153 63       		.byte	0x63
 1088 0154 F2000000 		.4byte	0xf2
 1089 0158 08       		.byte	0x8
 1090 0159 06       		.uleb128 0x6
 1091 015a 2E050000 		.4byte	.LASF30
 1092 015e 08       		.byte	0x8
 1093 015f 64       		.byte	0x64
 1094 0160 01030000 		.4byte	0x301
 1095 0164 0C       		.byte	0xc
 1096 0165 06       		.uleb128 0x6
 1097 0166 C2000000 		.4byte	.LASF31
 1098 016a 08       		.byte	0x8
 1099 016b 66       		.byte	0x66
 1100 016c 47020000 		.4byte	0x247
 1101 0170 10       		.byte	0x10
 1102 0171 06       		.uleb128 0x6
 1103 0172 F1020000 		.4byte	.LASF32
 1104 0176 08       		.byte	0x8
 1105 0177 67       		.byte	0x67
 1106 0178 47020000 		.4byte	0x247
 1107 017c 14       		.byte	0x14
 1108 017d 06       		.uleb128 0x6
 1109 017e F8040000 		.4byte	.LASF33
 1110 0182 08       		.byte	0x8
 1111 0183 6E       		.byte	0x6e
 1112 0184 BB040000 		.4byte	0x4bb
 1113 0188 18       		.byte	0x18
 1114 0189 06       		.uleb128 0x6
 1115 018a 8D030000 		.4byte	.LASF34
 1116 018e 08       		.byte	0x8
 1117 018f 79       		.byte	0x79
 1118 0190 D1000000 		.4byte	0xd1
 1119 0194 1C       		.byte	0x1c
 1120 0195 06       		.uleb128 0x6
 1121 0196 B4030000 		.4byte	.LASF35
 1122 019a 08       		.byte	0x8
 1123 019b 7D       		.byte	0x7d
 1124 019c C6000000 		.4byte	0xc6
 1125 01a0 1D       		.byte	0x1d
 1126 01a1 06       		.uleb128 0x6
 1127 01a2 C7040000 		.4byte	.LASF36
 1128 01a6 08       		.byte	0x8
 1129 01a7 82       		.byte	0x82
 1130 01a8 DC000000 		.4byte	0xdc
 1131 01ac 1E       		.byte	0x1e
 1132 01ad 06       		.uleb128 0x6
 1133 01ae 95030000 		.4byte	.LASF37
 1134 01b2 08       		.byte	0x8
 1135 01b3 88       		.byte	0x88
 1136 01b4 E7000000 		.4byte	0xe7
 1137 01b8 1F       		.byte	0x1f
 1138 01b9 06       		.uleb128 0x6
 1139 01ba 8B040000 		.4byte	.LASF38
 1140 01be 08       		.byte	0x8
ARM GAS  /var/folders/6q/x_mk5n_j3p7_c40r_2k_78980000gn/T//ccBEVPuW.s 			page 21


 1141 01bf 8F       		.byte	0x8f
 1142 01c0 D8030000 		.4byte	0x3d8
 1143 01c4 20       		.byte	0x20
 1144 01c5 07       		.uleb128 0x7
 1145 01c6 705F7500 		.ascii	"p_u\000"
 1146 01ca 08       		.byte	0x8
 1147 01cb B4       		.byte	0xb4
 1148 01cc 86040000 		.4byte	0x486
 1149 01d0 24       		.byte	0x24
 1150 01d1 06       		.uleb128 0x6
 1151 01d2 34050000 		.4byte	.LASF39
 1152 01d6 08       		.byte	0x8
 1153 01d7 B9       		.byte	0xb9
 1154 01d8 6D020000 		.4byte	0x26d
 1155 01dc 28       		.byte	0x28
 1156 01dd 06       		.uleb128 0x6
 1157 01de 99040000 		.4byte	.LASF40
 1158 01e2 08       		.byte	0x8
 1159 01e3 BF       		.byte	0xbf
 1160 01e4 4D020000 		.4byte	0x24d
 1161 01e8 2C       		.byte	0x2c
 1162 01e9 06       		.uleb128 0x6
 1163 01ea 08000000 		.4byte	.LASF41
 1164 01ee 08       		.byte	0x8
 1165 01ef C3       		.byte	0xc3
 1166 01f0 FD000000 		.4byte	0xfd
 1167 01f4 34       		.byte	0x34
 1168 01f5 06       		.uleb128 0x6
 1169 01f6 DE030000 		.4byte	.LASF42
 1170 01fa 08       		.byte	0x8
 1171 01fb C9       		.byte	0xc9
 1172 01fc 08010000 		.4byte	0x108
 1173 0200 38       		.byte	0x38
 1174 0201 06       		.uleb128 0x6
 1175 0202 79030000 		.4byte	.LASF43
 1176 0206 08       		.byte	0x8
 1177 0207 D0       		.byte	0xd0
 1178 0208 CD040000 		.4byte	0x4cd
 1179 020c 3C       		.byte	0x3c
 1180 020d 06       		.uleb128 0x6
 1181 020e 76040000 		.4byte	.LASF44
 1182 0212 08       		.byte	0x8
 1183 0213 D4       		.byte	0xd4
 1184 0214 F2000000 		.4byte	0xf2
 1185 0218 40       		.byte	0x40
 1186 0219 06       		.uleb128 0x6
 1187 021a 89000000 		.4byte	.LASF45
 1188 021e 08       		.byte	0x8
 1189 021f DA       		.byte	0xda
 1190 0220 83020000 		.4byte	0x283
 1191 0224 44       		.byte	0x44
 1192 0225 00       		.byte	0
 1193 0226 08       		.uleb128 0x8
 1194 0227 08       		.byte	0x8
 1195 0228 07       		.byte	0x7
 1196 0229 61       		.byte	0x61
 1197 022a 47020000 		.4byte	0x247
ARM GAS  /var/folders/6q/x_mk5n_j3p7_c40r_2k_78980000gn/T//ccBEVPuW.s 			page 22


 1198 022e 06       		.uleb128 0x6
 1199 022f AD030000 		.4byte	.LASF27
 1200 0233 07       		.byte	0x7
 1201 0234 62       		.byte	0x62
 1202 0235 47020000 		.4byte	0x247
 1203 0239 00       		.byte	0
 1204 023a 06       		.uleb128 0x6
 1205 023b 4E030000 		.4byte	.LASF28
 1206 023f 07       		.byte	0x7
 1207 0240 64       		.byte	0x64
 1208 0241 47020000 		.4byte	0x247
 1209 0245 04       		.byte	0x4
 1210 0246 00       		.byte	0
 1211 0247 09       		.uleb128 0x9
 1212 0248 04       		.byte	0x4
 1213 0249 1E010000 		.4byte	0x11e
 1214 024d 03       		.uleb128 0x3
 1215 024e FF020000 		.4byte	.LASF46
 1216 0252 07       		.byte	0x7
 1217 0253 66       		.byte	0x66
 1218 0254 26020000 		.4byte	0x226
 1219 0258 08       		.uleb128 0x8
 1220 0259 04       		.byte	0x4
 1221 025a 07       		.byte	0x7
 1222 025b 6B       		.byte	0x6b
 1223 025c 6D020000 		.4byte	0x26d
 1224 0260 06       		.uleb128 0x6
 1225 0261 AD030000 		.4byte	.LASF27
 1226 0265 07       		.byte	0x7
 1227 0266 6D       		.byte	0x6d
 1228 0267 47020000 		.4byte	0x247
 1229 026b 00       		.byte	0
 1230 026c 00       		.byte	0
 1231 026d 03       		.uleb128 0x3
 1232 026e 78020000 		.4byte	.LASF47
 1233 0272 07       		.byte	0x7
 1234 0273 70       		.byte	0x70
 1235 0274 58020000 		.4byte	0x258
 1236 0278 03       		.uleb128 0x3
 1237 0279 F2000000 		.4byte	.LASF48
 1238 027d 09       		.byte	0x9
 1239 027e E5       		.byte	0xe5
 1240 027f 83020000 		.4byte	0x283
 1241 0283 0A       		.uleb128 0xa
 1242 0284 04       		.byte	0x4
 1243 0285 0B       		.uleb128 0xb
 1244 0286 92040000 		.4byte	.LASF49
 1245 028a 24       		.byte	0x24
 1246 028b 09       		.byte	0x9
 1247 028c 0C01     		.2byte	0x10c
 1248 028e 01030000 		.4byte	0x301
 1249 0292 0C       		.uleb128 0xc
 1250 0293 723400   		.ascii	"r4\000"
 1251 0296 09       		.byte	0x9
 1252 0297 1F01     		.2byte	0x11f
 1253 0299 78020000 		.4byte	0x278
 1254 029d 00       		.byte	0
ARM GAS  /var/folders/6q/x_mk5n_j3p7_c40r_2k_78980000gn/T//ccBEVPuW.s 			page 23


 1255 029e 0C       		.uleb128 0xc
 1256 029f 723500   		.ascii	"r5\000"
 1257 02a2 09       		.byte	0x9
 1258 02a3 2001     		.2byte	0x120
 1259 02a5 78020000 		.4byte	0x278
 1260 02a9 04       		.byte	0x4
 1261 02aa 0C       		.uleb128 0xc
 1262 02ab 723600   		.ascii	"r6\000"
 1263 02ae 09       		.byte	0x9
 1264 02af 2101     		.2byte	0x121
 1265 02b1 78020000 		.4byte	0x278
 1266 02b5 08       		.byte	0x8
 1267 02b6 0C       		.uleb128 0xc
 1268 02b7 723700   		.ascii	"r7\000"
 1269 02ba 09       		.byte	0x9
 1270 02bb 2201     		.2byte	0x122
 1271 02bd 78020000 		.4byte	0x278
 1272 02c1 0C       		.byte	0xc
 1273 02c2 0C       		.uleb128 0xc
 1274 02c3 723800   		.ascii	"r8\000"
 1275 02c6 09       		.byte	0x9
 1276 02c7 2301     		.2byte	0x123
 1277 02c9 78020000 		.4byte	0x278
 1278 02cd 10       		.byte	0x10
 1279 02ce 0C       		.uleb128 0xc
 1280 02cf 723900   		.ascii	"r9\000"
 1281 02d2 09       		.byte	0x9
 1282 02d3 2401     		.2byte	0x124
 1283 02d5 78020000 		.4byte	0x278
 1284 02d9 14       		.byte	0x14
 1285 02da 0C       		.uleb128 0xc
 1286 02db 72313000 		.ascii	"r10\000"
 1287 02df 09       		.byte	0x9
 1288 02e0 2501     		.2byte	0x125
 1289 02e2 78020000 		.4byte	0x278
 1290 02e6 18       		.byte	0x18
 1291 02e7 0C       		.uleb128 0xc
 1292 02e8 72313100 		.ascii	"r11\000"
 1293 02ec 09       		.byte	0x9
 1294 02ed 2601     		.2byte	0x126
 1295 02ef 78020000 		.4byte	0x278
 1296 02f3 1C       		.byte	0x1c
 1297 02f4 0C       		.uleb128 0xc
 1298 02f5 6C7200   		.ascii	"lr\000"
 1299 02f8 09       		.byte	0x9
 1300 02f9 2701     		.2byte	0x127
 1301 02fb 78020000 		.4byte	0x278
 1302 02ff 20       		.byte	0x20
 1303 0300 00       		.byte	0
 1304 0301 0B       		.uleb128 0xb
 1305 0302 1E020000 		.4byte	.LASF50
 1306 0306 04       		.byte	0x4
 1307 0307 09       		.byte	0x9
 1308 0308 3101     		.2byte	0x131
 1309 030a 1C030000 		.4byte	0x31c
 1310 030e 0C       		.uleb128 0xc
 1311 030f 72313300 		.ascii	"r13\000"
ARM GAS  /var/folders/6q/x_mk5n_j3p7_c40r_2k_78980000gn/T//ccBEVPuW.s 			page 24


 1312 0313 09       		.byte	0x9
 1313 0314 3201     		.2byte	0x132
 1314 0316 1C030000 		.4byte	0x31c
 1315 031a 00       		.byte	0
 1316 031b 00       		.byte	0
 1317 031c 09       		.uleb128 0x9
 1318 031d 04       		.byte	0x4
 1319 031e 85020000 		.4byte	0x285
 1320 0322 04       		.uleb128 0x4
 1321 0323 04       		.byte	0x4
 1322 0324 07       		.byte	0x7
 1323 0325 B8020000 		.4byte	.LASF51
 1324 0329 03       		.uleb128 0x3
 1325 032a 3B010000 		.4byte	.LASF52
 1326 032e 0A       		.byte	0xa
 1327 032f 58       		.byte	0x58
 1328 0330 34030000 		.4byte	0x334
 1329 0334 09       		.uleb128 0x9
 1330 0335 04       		.byte	0x4
 1331 0336 3A030000 		.4byte	0x33a
 1332 033a 0D       		.uleb128 0xd
 1333 033b 45030000 		.4byte	0x345
 1334 033f 0E       		.uleb128 0xe
 1335 0340 83020000 		.4byte	0x283
 1336 0344 00       		.byte	0
 1337 0345 03       		.uleb128 0x3
 1338 0346 07040000 		.4byte	.LASF53
 1339 034a 0A       		.byte	0xa
 1340 034b 5D       		.byte	0x5d
 1341 034c 50030000 		.4byte	0x350
 1342 0350 05       		.uleb128 0x5
 1343 0351 07040000 		.4byte	.LASF53
 1344 0355 14       		.byte	0x14
 1345 0356 0A       		.byte	0xa
 1346 0357 64       		.byte	0x64
 1347 0358 99030000 		.4byte	0x399
 1348 035c 06       		.uleb128 0x6
 1349 035d 21010000 		.4byte	.LASF54
 1350 0361 0A       		.byte	0xa
 1351 0362 65       		.byte	0x65
 1352 0363 99030000 		.4byte	0x399
 1353 0367 00       		.byte	0
 1354 0368 06       		.uleb128 0x6
 1355 0369 FB000000 		.4byte	.LASF55
 1356 036d 0A       		.byte	0xa
 1357 036e 67       		.byte	0x67
 1358 036f 99030000 		.4byte	0x399
 1359 0373 04       		.byte	0x4
 1360 0374 06       		.uleb128 0x6
 1361 0375 B0020000 		.4byte	.LASF56
 1362 0379 0A       		.byte	0xa
 1363 037a 69       		.byte	0x69
 1364 037b 13010000 		.4byte	0x113
 1365 037f 08       		.byte	0x8
 1366 0380 06       		.uleb128 0x6
 1367 0381 1A000000 		.4byte	.LASF57
 1368 0385 0A       		.byte	0xa
ARM GAS  /var/folders/6q/x_mk5n_j3p7_c40r_2k_78980000gn/T//ccBEVPuW.s 			page 25


 1369 0386 6A       		.byte	0x6a
 1370 0387 29030000 		.4byte	0x329
 1371 038b 0C       		.byte	0xc
 1372 038c 06       		.uleb128 0x6
 1373 038d AE040000 		.4byte	.LASF58
 1374 0391 0A       		.byte	0xa
 1375 0392 6C       		.byte	0x6c
 1376 0393 83020000 		.4byte	0x283
 1377 0397 10       		.byte	0x10
 1378 0398 00       		.byte	0
 1379 0399 09       		.uleb128 0x9
 1380 039a 04       		.byte	0x4
 1381 039b 45030000 		.4byte	0x345
 1382 039f 08       		.uleb128 0x8
 1383 03a0 10       		.byte	0x10
 1384 03a1 0A       		.byte	0xa
 1385 03a2 76       		.byte	0x76
 1386 03a3 D8030000 		.4byte	0x3d8
 1387 03a7 06       		.uleb128 0x6
 1388 03a8 21010000 		.4byte	.LASF54
 1389 03ac 0A       		.byte	0xa
 1390 03ad 77       		.byte	0x77
 1391 03ae 99030000 		.4byte	0x399
 1392 03b2 00       		.byte	0
 1393 03b3 06       		.uleb128 0x6
 1394 03b4 FB000000 		.4byte	.LASF55
 1395 03b8 0A       		.byte	0xa
 1396 03b9 79       		.byte	0x79
 1397 03ba 99030000 		.4byte	0x399
 1398 03be 04       		.byte	0x4
 1399 03bf 06       		.uleb128 0x6
 1400 03c0 B0020000 		.4byte	.LASF56
 1401 03c4 0A       		.byte	0xa
 1402 03c5 7B       		.byte	0x7b
 1403 03c6 13010000 		.4byte	0x113
 1404 03ca 08       		.byte	0x8
 1405 03cb 06       		.uleb128 0x6
 1406 03cc FF040000 		.4byte	.LASF59
 1407 03d0 0A       		.byte	0xa
 1408 03d1 7C       		.byte	0x7c
 1409 03d2 D8030000 		.4byte	0x3d8
 1410 03d6 0C       		.byte	0xc
 1411 03d7 00       		.byte	0
 1412 03d8 0F       		.uleb128 0xf
 1413 03d9 13010000 		.4byte	0x113
 1414 03dd 03       		.uleb128 0x3
 1415 03de 1F050000 		.4byte	.LASF60
 1416 03e2 0A       		.byte	0xa
 1417 03e3 7D       		.byte	0x7d
 1418 03e4 9F030000 		.4byte	0x39f
 1419 03e8 08       		.uleb128 0x8
 1420 03e9 1C       		.byte	0x1c
 1421 03ea 0B       		.byte	0xb
 1422 03eb 5E       		.byte	0x5e
 1423 03ec 39040000 		.4byte	0x439
 1424 03f0 06       		.uleb128 0x6
 1425 03f1 FF030000 		.4byte	.LASF61
ARM GAS  /var/folders/6q/x_mk5n_j3p7_c40r_2k_78980000gn/T//ccBEVPuW.s 			page 26


 1426 03f5 0B       		.byte	0xb
 1427 03f6 5F       		.byte	0x5f
 1428 03f7 4D020000 		.4byte	0x24d
 1429 03fb 00       		.byte	0
 1430 03fc 06       		.uleb128 0x6
 1431 03fd 9F030000 		.4byte	.LASF62
 1432 0401 0B       		.byte	0xb
 1433 0402 60       		.byte	0x60
 1434 0403 F2000000 		.4byte	0xf2
 1435 0407 08       		.byte	0x8
 1436 0408 06       		.uleb128 0x6
 1437 0409 F9020000 		.4byte	.LASF63
 1438 040d 0B       		.byte	0xb
 1439 040e 62       		.byte	0x62
 1440 040f 01030000 		.4byte	0x301
 1441 0413 0C       		.byte	0xc
 1442 0414 06       		.uleb128 0x6
 1443 0415 51020000 		.4byte	.LASF64
 1444 0419 0B       		.byte	0xb
 1445 041a 65       		.byte	0x65
 1446 041b 47020000 		.4byte	0x247
 1447 041f 10       		.byte	0x10
 1448 0420 06       		.uleb128 0x6
 1449 0421 2E030000 		.4byte	.LASF65
 1450 0425 0B       		.byte	0xb
 1451 0426 66       		.byte	0x66
 1452 0427 47020000 		.4byte	0x247
 1453 042b 14       		.byte	0x14
 1454 042c 06       		.uleb128 0x6
 1455 042d 24030000 		.4byte	.LASF66
 1456 0431 0B       		.byte	0xb
 1457 0432 69       		.byte	0x69
 1458 0433 47020000 		.4byte	0x247
 1459 0437 18       		.byte	0x18
 1460 0438 00       		.byte	0
 1461 0439 03       		.uleb128 0x3
 1462 043a CE040000 		.4byte	.LASF67
 1463 043e 0B       		.byte	0xb
 1464 043f 6B       		.byte	0x6b
 1465 0440 E8030000 		.4byte	0x3e8
 1466 0444 05       		.uleb128 0x5
 1467 0445 90020000 		.4byte	.LASF68
 1468 0449 10       		.byte	0x10
 1469 044a 0C       		.byte	0xc
 1470 044b 2C       		.byte	0x2c
 1471 044c 75040000 		.4byte	0x475
 1472 0450 06       		.uleb128 0x6
 1473 0451 91000000 		.4byte	.LASF69
 1474 0455 0C       		.byte	0xc
 1475 0456 2D       		.byte	0x2d
 1476 0457 4D020000 		.4byte	0x24d
 1477 045b 00       		.byte	0
 1478 045c 06       		.uleb128 0x6
 1479 045d 26050000 		.4byte	.LASF70
 1480 0461 0C       		.byte	0xc
 1481 0462 2F       		.byte	0x2f
 1482 0463 47020000 		.4byte	0x247
ARM GAS  /var/folders/6q/x_mk5n_j3p7_c40r_2k_78980000gn/T//ccBEVPuW.s 			page 27


 1483 0467 08       		.byte	0x8
 1484 0468 06       		.uleb128 0x6
 1485 0469 0C030000 		.4byte	.LASF71
 1486 046d 0C       		.byte	0xc
 1487 046e 31       		.byte	0x31
 1488 046f 75040000 		.4byte	0x475
 1489 0473 0C       		.byte	0xc
 1490 0474 00       		.byte	0
 1491 0475 09       		.uleb128 0x9
 1492 0476 04       		.byte	0x4
 1493 0477 44040000 		.4byte	0x444
 1494 047b 03       		.uleb128 0x3
 1495 047c 90020000 		.4byte	.LASF68
 1496 0480 0C       		.byte	0xc
 1497 0481 33       		.byte	0x33
 1498 0482 44040000 		.4byte	0x444
 1499 0486 10       		.uleb128 0x10
 1500 0487 04       		.byte	0x4
 1501 0488 08       		.byte	0x8
 1502 0489 96       		.byte	0x96
 1503 048a BB040000 		.4byte	0x4bb
 1504 048e 11       		.uleb128 0x11
 1505 048f C0040000 		.4byte	.LASF72
 1506 0493 08       		.byte	0x8
 1507 0494 9D       		.byte	0x9d
 1508 0495 FD000000 		.4byte	0xfd
 1509 0499 11       		.uleb128 0x11
 1510 049a 55000000 		.4byte	.LASF73
 1511 049e 08       		.byte	0x8
 1512 049f A4       		.byte	0xa4
 1513 04a0 FD000000 		.4byte	0xfd
 1514 04a4 11       		.uleb128 0x11
 1515 04a5 F1040000 		.4byte	.LASF74
 1516 04a9 08       		.byte	0x8
 1517 04aa AB       		.byte	0xab
 1518 04ab 83020000 		.4byte	0x283
 1519 04af 11       		.uleb128 0x11
 1520 04b0 A6030000 		.4byte	.LASF75
 1521 04b4 08       		.byte	0x8
 1522 04b5 B2       		.byte	0xb2
 1523 04b6 08010000 		.4byte	0x108
 1524 04ba 00       		.byte	0
 1525 04bb 09       		.uleb128 0x9
 1526 04bc 04       		.byte	0x4
 1527 04bd C8040000 		.4byte	0x4c8
 1528 04c1 04       		.uleb128 0x4
 1529 04c2 01       		.byte	0x1
 1530 04c3 08       		.byte	0x8
 1531 04c4 14040000 		.4byte	.LASF76
 1532 04c8 12       		.uleb128 0x12
 1533 04c9 C1040000 		.4byte	0x4c1
 1534 04cd 09       		.uleb128 0x9
 1535 04ce 04       		.byte	0x4
 1536 04cf 7B040000 		.4byte	0x47b
 1537 04d3 03       		.uleb128 0x3
 1538 04d4 00000000 		.4byte	.LASF77
 1539 04d8 08       		.byte	0x8
ARM GAS  /var/folders/6q/x_mk5n_j3p7_c40r_2k_78980000gn/T//ccBEVPuW.s 			page 28


 1540 04d9 E5       		.byte	0xe5
 1541 04da DE040000 		.4byte	0x4de
 1542 04de 09       		.uleb128 0x9
 1543 04df 04       		.byte	0x4
 1544 04e0 E4040000 		.4byte	0x4e4
 1545 04e4 13       		.uleb128 0x13
 1546 04e5 FD000000 		.4byte	0xfd
 1547 04e9 F3040000 		.4byte	0x4f3
 1548 04ed 0E       		.uleb128 0xe
 1549 04ee 83020000 		.4byte	0x283
 1550 04f2 00       		.byte	0
 1551 04f3 14       		.uleb128 0x14
 1552 04f4 F2030000 		.4byte	.LASF79
 1553 04f8 01       		.byte	0x1
 1554 04f9 4C       		.byte	0x4c
 1555 04fa 47020000 		.4byte	0x247
 1556 04fe 01       		.byte	0x1
 1557 04ff 19050000 		.4byte	0x519
 1558 0503 15       		.uleb128 0x15
 1559 0504 747000   		.ascii	"tp\000"
 1560 0507 01       		.byte	0x1
 1561 0508 4C       		.byte	0x4c
 1562 0509 47020000 		.4byte	0x247
 1563 050d 16       		.uleb128 0x16
 1564 050e 15000000 		.4byte	.LASF78
 1565 0512 01       		.byte	0x1
 1566 0513 4C       		.byte	0x4c
 1567 0514 F2000000 		.4byte	0xf2
 1568 0518 00       		.byte	0
 1569 0519 14       		.uleb128 0x14
 1570 051a A3000000 		.4byte	.LASF80
 1571 051e 01       		.byte	0x1
 1572 051f 9D       		.byte	0x9d
 1573 0520 47020000 		.4byte	0x247
 1574 0524 01       		.byte	0x1
 1575 0525 6A050000 		.4byte	0x56a
 1576 0529 15       		.uleb128 0x15
 1577 052a 77737000 		.ascii	"wsp\000"
 1578 052e 01       		.byte	0x1
 1579 052f 9D       		.byte	0x9d
 1580 0530 83020000 		.4byte	0x283
 1581 0534 16       		.uleb128 0x16
 1582 0535 26020000 		.4byte	.LASF81
 1583 0539 01       		.byte	0x1
 1584 053a 9D       		.byte	0x9d
 1585 053b 2C000000 		.4byte	0x2c
 1586 053f 16       		.uleb128 0x16
 1587 0540 15000000 		.4byte	.LASF78
 1588 0544 01       		.byte	0x1
 1589 0545 9E       		.byte	0x9e
 1590 0546 F2000000 		.4byte	0xf2
 1591 054a 15       		.uleb128 0x15
 1592 054b 706600   		.ascii	"pf\000"
 1593 054e 01       		.byte	0x1
 1594 054f 9E       		.byte	0x9e
 1595 0550 D3040000 		.4byte	0x4d3
 1596 0554 15       		.uleb128 0x15
ARM GAS  /var/folders/6q/x_mk5n_j3p7_c40r_2k_78980000gn/T//ccBEVPuW.s 			page 29


 1597 0555 61726700 		.ascii	"arg\000"
 1598 0559 01       		.byte	0x1
 1599 055a 9E       		.byte	0x9e
 1600 055b 83020000 		.4byte	0x283
 1601 055f 17       		.uleb128 0x17
 1602 0560 747000   		.ascii	"tp\000"
 1603 0563 01       		.byte	0x1
 1604 0564 A0       		.byte	0xa0
 1605 0565 47020000 		.4byte	0x247
 1606 0569 00       		.byte	0
 1607 056a 18       		.uleb128 0x18
 1608 056b CA000000 		.4byte	.LASF107
 1609 056f 02       		.byte	0x2
 1610 0570 56       		.byte	0x56
 1611 0571 47020000 		.4byte	0x247
 1612 0575 03       		.byte	0x3
 1613 0576 90050000 		.4byte	0x590
 1614 057a 15       		.uleb128 0x15
 1615 057b 746C7000 		.ascii	"tlp\000"
 1616 057f 02       		.byte	0x2
 1617 0580 56       		.byte	0x56
 1618 0581 90050000 		.4byte	0x590
 1619 0585 17       		.uleb128 0x17
 1620 0586 747000   		.ascii	"tp\000"
 1621 0589 02       		.byte	0x2
 1622 058a 58       		.byte	0x58
 1623 058b 47020000 		.4byte	0x247
 1624 058f 00       		.byte	0
 1625 0590 09       		.uleb128 0x9
 1626 0591 04       		.byte	0x4
 1627 0592 6D020000 		.4byte	0x26d
 1628 0596 19       		.uleb128 0x19
 1629 0597 18030000 		.4byte	.LASF108
 1630 059b 02       		.byte	0x2
 1631 059c 50       		.byte	0x50
 1632 059d 03       		.byte	0x3
 1633 059e B8050000 		.4byte	0x5b8
 1634 05a2 15       		.uleb128 0x15
 1635 05a3 747000   		.ascii	"tp\000"
 1636 05a6 02       		.byte	0x2
 1637 05a7 50       		.byte	0x50
 1638 05a8 47020000 		.4byte	0x247
 1639 05ac 15       		.uleb128 0x15
 1640 05ad 746C7000 		.ascii	"tlp\000"
 1641 05b1 02       		.byte	0x2
 1642 05b2 50       		.byte	0x50
 1643 05b3 90050000 		.4byte	0x590
 1644 05b7 00       		.byte	0
 1645 05b8 1A       		.uleb128 0x1a
 1646 05b9 F3040000 		.4byte	0x4f3
 1647 05bd 00000000 		.4byte	.LFB7
 1648 05c1 44000000 		.4byte	.LFE7-.LFB7
 1649 05c5 01       		.uleb128 0x1
 1650 05c6 9C       		.byte	0x9c
 1651 05c7 DC050000 		.4byte	0x5dc
 1652 05cb 1B       		.uleb128 0x1b
 1653 05cc 03050000 		.4byte	0x503
ARM GAS  /var/folders/6q/x_mk5n_j3p7_c40r_2k_78980000gn/T//ccBEVPuW.s 			page 30


 1654 05d0 01       		.uleb128 0x1
 1655 05d1 50       		.byte	0x50
 1656 05d2 1C       		.uleb128 0x1c
 1657 05d3 0D050000 		.4byte	0x50d
 1658 05d7 00000000 		.4byte	.LLST0
 1659 05db 00       		.byte	0
 1660 05dc 1A       		.uleb128 0x1a
 1661 05dd 19050000 		.4byte	0x519
 1662 05e1 00000000 		.4byte	.LFB8
 1663 05e5 58000000 		.4byte	.LFE8-.LFB8
 1664 05e9 01       		.uleb128 0x1
 1665 05ea 9C       		.byte	0x9c
 1666 05eb 44060000 		.4byte	0x644
 1667 05ef 1B       		.uleb128 0x1b
 1668 05f0 29050000 		.4byte	0x529
 1669 05f4 01       		.uleb128 0x1
 1670 05f5 50       		.byte	0x50
 1671 05f6 1C       		.uleb128 0x1c
 1672 05f7 34050000 		.4byte	0x534
 1673 05fb 20000000 		.4byte	.LLST1
 1674 05ff 1C       		.uleb128 0x1c
 1675 0600 3F050000 		.4byte	0x53f
 1676 0604 4E000000 		.4byte	.LLST2
 1677 0608 1C       		.uleb128 0x1c
 1678 0609 4A050000 		.4byte	0x54a
 1679 060d 6D000000 		.4byte	.LLST3
 1680 0611 1C       		.uleb128 0x1c
 1681 0612 54050000 		.4byte	0x554
 1682 0616 9A000000 		.4byte	.LLST4
 1683 061a 1D       		.uleb128 0x1d
 1684 061b 5F050000 		.4byte	0x55f
 1685 061f 01       		.uleb128 0x1
 1686 0620 50       		.byte	0x50
 1687 0621 1E       		.uleb128 0x1e
 1688 0622 F3040000 		.4byte	0x4f3
 1689 0626 08000000 		.4byte	.LBB16
 1690 062a 00000000 		.4byte	.Ldebug_ranges0+0
 1691 062e 01       		.byte	0x1
 1692 062f A8       		.byte	0xa8
 1693 0630 1C       		.uleb128 0x1c
 1694 0631 0D050000 		.4byte	0x50d
 1695 0635 BA000000 		.4byte	.LLST5
 1696 0639 1C       		.uleb128 0x1c
 1697 063a 03050000 		.4byte	0x503
 1698 063e D9000000 		.4byte	.LLST6
 1699 0642 00       		.byte	0
 1700 0643 00       		.byte	0
 1701 0644 1F       		.uleb128 0x1f
 1702 0645 9E020000 		.4byte	.LASF82
 1703 0649 01       		.byte	0x1
 1704 064a BB       		.byte	0xbb
 1705 064b 47020000 		.4byte	0x247
 1706 064f 00000000 		.4byte	.LFB9
 1707 0653 74000000 		.4byte	.LFE9-.LFB9
 1708 0657 01       		.uleb128 0x1
 1709 0658 9C       		.byte	0x9c
 1710 0659 70070000 		.4byte	0x770
ARM GAS  /var/folders/6q/x_mk5n_j3p7_c40r_2k_78980000gn/T//ccBEVPuW.s 			page 31


 1711 065d 20       		.uleb128 0x20
 1712 065e 77737000 		.ascii	"wsp\000"
 1713 0662 01       		.byte	0x1
 1714 0663 BB       		.byte	0xbb
 1715 0664 83020000 		.4byte	0x283
 1716 0668 EC000000 		.4byte	.LLST7
 1717 066c 21       		.uleb128 0x21
 1718 066d 26020000 		.4byte	.LASF81
 1719 0671 01       		.byte	0x1
 1720 0672 BB       		.byte	0xbb
 1721 0673 2C000000 		.4byte	0x2c
 1722 0677 15010000 		.4byte	.LLST8
 1723 067b 21       		.uleb128 0x21
 1724 067c 15000000 		.4byte	.LASF78
 1725 0680 01       		.byte	0x1
 1726 0681 BC       		.byte	0xbc
 1727 0682 F2000000 		.4byte	0xf2
 1728 0686 43010000 		.4byte	.LLST9
 1729 068a 20       		.uleb128 0x20
 1730 068b 706600   		.ascii	"pf\000"
 1731 068e 01       		.byte	0x1
 1732 068f BC       		.byte	0xbc
 1733 0690 D3040000 		.4byte	0x4d3
 1734 0694 70010000 		.4byte	.LLST10
 1735 0698 20       		.uleb128 0x20
 1736 0699 61726700 		.ascii	"arg\000"
 1737 069d 01       		.byte	0x1
 1738 069e BC       		.byte	0xbc
 1739 069f 83020000 		.4byte	0x283
 1740 06a3 B5010000 		.4byte	.LLST11
 1741 06a7 17       		.uleb128 0x17
 1742 06a8 747000   		.ascii	"tp\000"
 1743 06ab 01       		.byte	0x1
 1744 06ac BD       		.byte	0xbd
 1745 06ad 47020000 		.4byte	0x247
 1746 06b1 22       		.uleb128 0x22
 1747 06b2 06000000 		.4byte	.LBB24
 1748 06b6 06000000 		.4byte	.LBE24-.LBB24
 1749 06ba CC060000 		.4byte	0x6cc
 1750 06be 23       		.uleb128 0x23
 1751 06bf 746D7000 		.ascii	"tmp\000"
 1752 06c3 01       		.byte	0x1
 1753 06c4 C7       		.byte	0xc7
 1754 06c5 B4000000 		.4byte	0xb4
 1755 06c9 01       		.uleb128 0x1
 1756 06ca 53       		.byte	0x53
 1757 06cb 00       		.byte	0
 1758 06cc 24       		.uleb128 0x24
 1759 06cd 19050000 		.4byte	0x519
 1760 06d1 0C000000 		.4byte	.LBB25
 1761 06d5 28000000 		.4byte	.Ldebug_ranges0+0x28
 1762 06d9 01       		.byte	0x1
 1763 06da C8       		.byte	0xc8
 1764 06db 3E070000 		.4byte	0x73e
 1765 06df 1C       		.uleb128 0x1c
 1766 06e0 54050000 		.4byte	0x554
 1767 06e4 D5010000 		.4byte	.LLST12
ARM GAS  /var/folders/6q/x_mk5n_j3p7_c40r_2k_78980000gn/T//ccBEVPuW.s 			page 32


 1768 06e8 1C       		.uleb128 0x1c
 1769 06e9 4A050000 		.4byte	0x54a
 1770 06ed E9010000 		.4byte	.LLST13
 1771 06f1 1C       		.uleb128 0x1c
 1772 06f2 3F050000 		.4byte	0x53f
 1773 06f6 23020000 		.4byte	.LLST14
 1774 06fa 1C       		.uleb128 0x1c
 1775 06fb 34050000 		.4byte	0x534
 1776 06ff 42020000 		.4byte	.LLST15
 1777 0703 1C       		.uleb128 0x1c
 1778 0704 29050000 		.4byte	0x529
 1779 0708 70020000 		.4byte	.LLST16
 1780 070c 25       		.uleb128 0x25
 1781 070d 28000000 		.4byte	.Ldebug_ranges0+0x28
 1782 0711 26       		.uleb128 0x26
 1783 0712 5F050000 		.4byte	0x55f
 1784 0716 83020000 		.4byte	.LLST17
 1785 071a 1E       		.uleb128 0x1e
 1786 071b F3040000 		.4byte	0x4f3
 1787 071f 10000000 		.4byte	.LBB27
 1788 0723 40000000 		.4byte	.Ldebug_ranges0+0x40
 1789 0727 01       		.byte	0x1
 1790 0728 A8       		.byte	0xa8
 1791 0729 1C       		.uleb128 0x1c
 1792 072a 0D050000 		.4byte	0x50d
 1793 072e AC020000 		.4byte	.LLST18
 1794 0732 1C       		.uleb128 0x1c
 1795 0733 03050000 		.4byte	0x503
 1796 0737 CB020000 		.4byte	.LLST19
 1797 073b 00       		.byte	0
 1798 073c 00       		.byte	0
 1799 073d 00       		.byte	0
 1800 073e 22       		.uleb128 0x22
 1801 073f 60000000 		.4byte	.LBB37
 1802 0743 06000000 		.4byte	.LBE37-.LBB37
 1803 0747 59070000 		.4byte	0x759
 1804 074b 23       		.uleb128 0x23
 1805 074c 746D7000 		.ascii	"tmp\000"
 1806 0750 01       		.byte	0x1
 1807 0751 C9       		.byte	0xc9
 1808 0752 B4000000 		.4byte	0xb4
 1809 0756 01       		.uleb128 0x1
 1810 0757 53       		.byte	0x53
 1811 0758 00       		.byte	0
 1812 0759 27       		.uleb128 0x27
 1813 075a 60000000 		.4byte	.LVL22
 1814 075e 8B0B0000 		.4byte	0xb8b
 1815 0762 28       		.uleb128 0x28
 1816 0763 01       		.uleb128 0x1
 1817 0764 50       		.byte	0x50
 1818 0765 02       		.uleb128 0x2
 1819 0766 74       		.byte	0x74
 1820 0767 00       		.sleb128 0
 1821 0768 28       		.uleb128 0x28
 1822 0769 01       		.uleb128 0x1
 1823 076a 51       		.byte	0x51
 1824 076b 02       		.uleb128 0x2
ARM GAS  /var/folders/6q/x_mk5n_j3p7_c40r_2k_78980000gn/T//ccBEVPuW.s 			page 33


 1825 076c 75       		.byte	0x75
 1826 076d 00       		.sleb128 0
 1827 076e 00       		.byte	0
 1828 076f 00       		.byte	0
 1829 0770 1F       		.uleb128 0x1f
 1830 0771 03010000 		.4byte	.LASF83
 1831 0775 01       		.byte	0x1
 1832 0776 D9       		.byte	0xd9
 1833 0777 F2000000 		.4byte	0xf2
 1834 077b 00000000 		.4byte	.LFB10
 1835 077f 30000000 		.4byte	.LFE10-.LFB10
 1836 0783 01       		.uleb128 0x1
 1837 0784 9C       		.byte	0x9c
 1838 0785 E7070000 		.4byte	0x7e7
 1839 0789 21       		.uleb128 0x21
 1840 078a 59020000 		.4byte	.LASF84
 1841 078e 01       		.byte	0x1
 1842 078f D9       		.byte	0xd9
 1843 0790 F2000000 		.4byte	0xf2
 1844 0794 DE020000 		.4byte	.LLST20
 1845 0798 29       		.uleb128 0x29
 1846 0799 96020000 		.4byte	.LASF85
 1847 079d 01       		.byte	0x1
 1848 079e DA       		.byte	0xda
 1849 079f F2000000 		.4byte	0xf2
 1850 07a3 FF020000 		.4byte	.LLST21
 1851 07a7 22       		.uleb128 0x22
 1852 07a8 02000000 		.4byte	.LBB38
 1853 07ac 06000000 		.4byte	.LBE38-.LBB38
 1854 07b0 C2070000 		.4byte	0x7c2
 1855 07b4 23       		.uleb128 0x23
 1856 07b5 746D7000 		.ascii	"tmp\000"
 1857 07b9 01       		.byte	0x1
 1858 07ba DE       		.byte	0xde
 1859 07bb B4000000 		.4byte	0xb4
 1860 07bf 01       		.uleb128 0x1
 1861 07c0 53       		.byte	0x53
 1862 07c1 00       		.byte	0
 1863 07c2 22       		.uleb128 0x22
 1864 07c3 20000000 		.4byte	.LBB39
 1865 07c7 06000000 		.4byte	.LBE39-.LBB39
 1866 07cb DD070000 		.4byte	0x7dd
 1867 07cf 23       		.uleb128 0x23
 1868 07d0 746D7000 		.ascii	"tmp\000"
 1869 07d4 01       		.byte	0x1
 1870 07d5 E9       		.byte	0xe9
 1871 07d6 B4000000 		.4byte	0xb4
 1872 07da 01       		.uleb128 0x1
 1873 07db 53       		.byte	0x53
 1874 07dc 00       		.byte	0
 1875 07dd 2A       		.uleb128 0x2a
 1876 07de 20000000 		.4byte	.LVL26
 1877 07e2 960B0000 		.4byte	0xb96
 1878 07e6 00       		.byte	0
 1879 07e7 1F       		.uleb128 0x1f
 1880 07e8 CD020000 		.4byte	.LASF86
 1881 07ec 01       		.byte	0x1
ARM GAS  /var/folders/6q/x_mk5n_j3p7_c40r_2k_78980000gn/T//ccBEVPuW.s 			page 34


 1882 07ed FA       		.byte	0xfa
 1883 07ee 47020000 		.4byte	0x247
 1884 07f2 00000000 		.4byte	.LFB11
 1885 07f6 1A000000 		.4byte	.LFE11-.LFB11
 1886 07fa 01       		.uleb128 0x1
 1887 07fb 9C       		.byte	0x9c
 1888 07fc 57080000 		.4byte	0x857
 1889 0800 20       		.uleb128 0x20
 1890 0801 747000   		.ascii	"tp\000"
 1891 0804 01       		.byte	0x1
 1892 0805 FA       		.byte	0xfa
 1893 0806 47020000 		.4byte	0x247
 1894 080a 1D030000 		.4byte	.LLST22
 1895 080e 2B       		.uleb128 0x2b
 1896 080f 68000000 		.4byte	.Ldebug_ranges0+0x68
 1897 0813 25080000 		.4byte	0x825
 1898 0817 23       		.uleb128 0x23
 1899 0818 746D7000 		.ascii	"tmp\000"
 1900 081c 01       		.byte	0x1
 1901 081d FC       		.byte	0xfc
 1902 081e B4000000 		.4byte	0xb4
 1903 0822 01       		.uleb128 0x1
 1904 0823 53       		.byte	0x53
 1905 0824 00       		.byte	0
 1906 0825 22       		.uleb128 0x22
 1907 0826 10000000 		.4byte	.LBB42
 1908 082a 06000000 		.4byte	.LBE42-.LBB42
 1909 082e 41080000 		.4byte	0x841
 1910 0832 2C       		.uleb128 0x2c
 1911 0833 746D7000 		.ascii	"tmp\000"
 1912 0837 01       		.byte	0x1
 1913 0838 0101     		.2byte	0x101
 1914 083a B4000000 		.4byte	0xb4
 1915 083e 01       		.uleb128 0x1
 1916 083f 53       		.byte	0x53
 1917 0840 00       		.byte	0
 1918 0841 27       		.uleb128 0x27
 1919 0842 10000000 		.4byte	.LVL29
 1920 0846 8B0B0000 		.4byte	0xb8b
 1921 084a 28       		.uleb128 0x28
 1922 084b 01       		.uleb128 0x1
 1923 084c 50       		.byte	0x50
 1924 084d 02       		.uleb128 0x2
 1925 084e 74       		.byte	0x74
 1926 084f 00       		.sleb128 0
 1927 0850 28       		.uleb128 0x28
 1928 0851 01       		.uleb128 0x1
 1929 0852 51       		.byte	0x51
 1930 0853 01       		.uleb128 0x1
 1931 0854 30       		.byte	0x30
 1932 0855 00       		.byte	0
 1933 0856 00       		.byte	0
 1934 0857 2D       		.uleb128 0x2d
 1935 0858 69020000 		.4byte	.LASF87
 1936 085c 01       		.byte	0x1
 1937 085d 1101     		.2byte	0x111
 1938 085f 00000000 		.4byte	.LFB12
ARM GAS  /var/folders/6q/x_mk5n_j3p7_c40r_2k_78980000gn/T//ccBEVPuW.s 			page 35


 1939 0863 16000000 		.4byte	.LFE12-.LFB12
 1940 0867 01       		.uleb128 0x1
 1941 0868 9C       		.byte	0x9c
 1942 0869 AB080000 		.4byte	0x8ab
 1943 086d 2E       		.uleb128 0x2e
 1944 086e 747000   		.ascii	"tp\000"
 1945 0871 01       		.byte	0x1
 1946 0872 1101     		.2byte	0x111
 1947 0874 47020000 		.4byte	0x247
 1948 0878 01       		.uleb128 0x1
 1949 0879 50       		.byte	0x50
 1950 087a 22       		.uleb128 0x22
 1951 087b 00000000 		.4byte	.LBB43
 1952 087f 06000000 		.4byte	.LBE43-.LBB43
 1953 0883 96080000 		.4byte	0x896
 1954 0887 2C       		.uleb128 0x2c
 1955 0888 746D7000 		.ascii	"tmp\000"
 1956 088c 01       		.byte	0x1
 1957 088d 1301     		.2byte	0x113
 1958 088f B4000000 		.4byte	0xb4
 1959 0893 01       		.uleb128 0x1
 1960 0894 53       		.byte	0x53
 1961 0895 00       		.byte	0
 1962 0896 25       		.uleb128 0x25
 1963 0897 80000000 		.4byte	.Ldebug_ranges0+0x80
 1964 089b 2C       		.uleb128 0x2c
 1965 089c 746D7000 		.ascii	"tmp\000"
 1966 08a0 01       		.byte	0x1
 1967 08a1 1501     		.2byte	0x115
 1968 08a3 B4000000 		.4byte	0xb4
 1969 08a7 01       		.uleb128 0x1
 1970 08a8 53       		.byte	0x53
 1971 08a9 00       		.byte	0
 1972 08aa 00       		.byte	0
 1973 08ab 2D       		.uleb128 0x2d
 1974 08ac B5040000 		.4byte	.LASF88
 1975 08b0 01       		.byte	0x1
 1976 08b1 2401     		.2byte	0x124
 1977 08b3 00000000 		.4byte	.LFB13
 1978 08b7 18000000 		.4byte	.LFE13-.LFB13
 1979 08bb 01       		.uleb128 0x1
 1980 08bc 9C       		.byte	0x9c
 1981 08bd 20090000 		.4byte	0x920
 1982 08c1 2F       		.uleb128 0x2f
 1983 08c2 13030000 		.4byte	.LASF89
 1984 08c6 01       		.byte	0x1
 1985 08c7 2401     		.2byte	0x124
 1986 08c9 13010000 		.4byte	0x113
 1987 08cd 3B030000 		.4byte	.LLST23
 1988 08d1 22       		.uleb128 0x22
 1989 08d2 04000000 		.4byte	.LBB46
 1990 08d6 06000000 		.4byte	.LBE46-.LBB46
 1991 08da ED080000 		.4byte	0x8ed
 1992 08de 2C       		.uleb128 0x2c
 1993 08df 746D7000 		.ascii	"tmp\000"
 1994 08e3 01       		.byte	0x1
 1995 08e4 2801     		.2byte	0x128
ARM GAS  /var/folders/6q/x_mk5n_j3p7_c40r_2k_78980000gn/T//ccBEVPuW.s 			page 36


 1996 08e6 B4000000 		.4byte	0xb4
 1997 08ea 01       		.uleb128 0x1
 1998 08eb 53       		.byte	0x53
 1999 08ec 00       		.byte	0
 2000 08ed 22       		.uleb128 0x22
 2001 08ee 10000000 		.4byte	.LBB47
 2002 08f2 08000000 		.4byte	.LBE47-.LBB47
 2003 08f6 09090000 		.4byte	0x909
 2004 08fa 2C       		.uleb128 0x2c
 2005 08fb 746D7000 		.ascii	"tmp\000"
 2006 08ff 01       		.byte	0x1
 2007 0900 2A01     		.2byte	0x12a
 2008 0902 B4000000 		.4byte	0xb4
 2009 0906 01       		.uleb128 0x1
 2010 0907 53       		.byte	0x53
 2011 0908 00       		.byte	0
 2012 0909 27       		.uleb128 0x27
 2013 090a 10000000 		.4byte	.LVL33
 2014 090e A10B0000 		.4byte	0xba1
 2015 0912 28       		.uleb128 0x28
 2016 0913 01       		.uleb128 0x1
 2017 0914 50       		.byte	0x50
 2018 0915 01       		.uleb128 0x1
 2019 0916 36       		.byte	0x36
 2020 0917 28       		.uleb128 0x28
 2021 0918 01       		.uleb128 0x1
 2022 0919 51       		.byte	0x51
 2023 091a 03       		.uleb128 0x3
 2024 091b F3       		.byte	0xf3
 2025 091c 01       		.uleb128 0x1
 2026 091d 50       		.byte	0x50
 2027 091e 00       		.byte	0
 2028 091f 00       		.byte	0
 2029 0920 2D       		.uleb128 0x2d
 2030 0921 36030000 		.4byte	.LASF90
 2031 0925 01       		.byte	0x1
 2032 0926 3501     		.2byte	0x135
 2033 0928 00000000 		.4byte	.LFB14
 2034 092c 24000000 		.4byte	.LFE14-.LFB14
 2035 0930 01       		.uleb128 0x1
 2036 0931 9C       		.byte	0x9c
 2037 0932 8E090000 		.4byte	0x98e
 2038 0936 2F       		.uleb128 0x2f
 2039 0937 13030000 		.4byte	.LASF89
 2040 093b 01       		.byte	0x1
 2041 093c 3501     		.2byte	0x135
 2042 093e 13010000 		.4byte	0x113
 2043 0942 67030000 		.4byte	.LLST24
 2044 0946 22       		.uleb128 0x22
 2045 0947 02000000 		.4byte	.LBB48
 2046 094b 06000000 		.4byte	.LBE48-.LBB48
 2047 094f 62090000 		.4byte	0x962
 2048 0953 2C       		.uleb128 0x2c
 2049 0954 746D7000 		.ascii	"tmp\000"
 2050 0958 01       		.byte	0x1
 2051 0959 3701     		.2byte	0x137
 2052 095b B4000000 		.4byte	0xb4
ARM GAS  /var/folders/6q/x_mk5n_j3p7_c40r_2k_78980000gn/T//ccBEVPuW.s 			page 37


 2053 095f 01       		.uleb128 0x1
 2054 0960 53       		.byte	0x53
 2055 0961 00       		.byte	0
 2056 0962 22       		.uleb128 0x22
 2057 0963 16000000 		.4byte	.LBB49
 2058 0967 0E000000 		.4byte	.LBE49-.LBB49
 2059 096b 7E090000 		.4byte	0x97e
 2060 096f 2C       		.uleb128 0x2c
 2061 0970 746D7000 		.ascii	"tmp\000"
 2062 0974 01       		.byte	0x1
 2063 0975 3A01     		.2byte	0x13a
 2064 0977 B4000000 		.4byte	0xb4
 2065 097b 01       		.uleb128 0x1
 2066 097c 53       		.byte	0x53
 2067 097d 00       		.byte	0
 2068 097e 27       		.uleb128 0x27
 2069 097f 16000000 		.4byte	.LVL37
 2070 0983 A10B0000 		.4byte	0xba1
 2071 0987 28       		.uleb128 0x28
 2072 0988 01       		.uleb128 0x1
 2073 0989 50       		.byte	0x50
 2074 098a 01       		.uleb128 0x1
 2075 098b 36       		.byte	0x36
 2076 098c 00       		.byte	0
 2077 098d 00       		.byte	0
 2078 098e 2D       		.uleb128 0x2d
 2079 098f E6040000 		.4byte	.LASF91
 2080 0993 01       		.byte	0x1
 2081 0994 4401     		.2byte	0x144
 2082 0996 00000000 		.4byte	.LFB15
 2083 099a 28000000 		.4byte	.LFE15-.LFB15
 2084 099e 01       		.uleb128 0x1
 2085 099f 9C       		.byte	0x9c
 2086 09a0 E6090000 		.4byte	0x9e6
 2087 09a4 22       		.uleb128 0x22
 2088 09a5 02000000 		.4byte	.LBB50
 2089 09a9 06000000 		.4byte	.LBE50-.LBB50
 2090 09ad C0090000 		.4byte	0x9c0
 2091 09b1 2C       		.uleb128 0x2c
 2092 09b2 746D7000 		.ascii	"tmp\000"
 2093 09b6 01       		.byte	0x1
 2094 09b7 4601     		.2byte	0x146
 2095 09b9 B4000000 		.4byte	0xb4
 2096 09bd 01       		.uleb128 0x1
 2097 09be 53       		.byte	0x53
 2098 09bf 00       		.byte	0
 2099 09c0 22       		.uleb128 0x22
 2100 09c1 1A000000 		.4byte	.LBB51
 2101 09c5 0E000000 		.4byte	.LBE51-.LBB51
 2102 09c9 DC090000 		.4byte	0x9dc
 2103 09cd 2C       		.uleb128 0x2c
 2104 09ce 746D7000 		.ascii	"tmp\000"
 2105 09d2 01       		.byte	0x1
 2106 09d3 4801     		.2byte	0x148
 2107 09d5 B4000000 		.4byte	0xb4
 2108 09d9 01       		.uleb128 0x1
 2109 09da 53       		.byte	0x53
ARM GAS  /var/folders/6q/x_mk5n_j3p7_c40r_2k_78980000gn/T//ccBEVPuW.s 			page 38


 2110 09db 00       		.byte	0
 2111 09dc 2A       		.uleb128 0x2a
 2112 09dd 1A000000 		.4byte	.LVL38
 2113 09e1 AC0B0000 		.4byte	0xbac
 2114 09e5 00       		.byte	0
 2115 09e6 2D       		.uleb128 0x2d
 2116 09e7 33000000 		.4byte	.LASF92
 2117 09eb 01       		.byte	0x1
 2118 09ec 6E01     		.2byte	0x16e
 2119 09ee 00000000 		.4byte	.LFB17
 2120 09f2 40000000 		.4byte	.LFE17-.LFB17
 2121 09f6 01       		.uleb128 0x1
 2122 09f7 9C       		.byte	0x9c
 2123 09f8 650A0000 		.4byte	0xa65
 2124 09fc 30       		.uleb128 0x30
 2125 09fd 6D736700 		.ascii	"msg\000"
 2126 0a01 01       		.byte	0x1
 2127 0a02 6E01     		.2byte	0x16e
 2128 0a04 FD000000 		.4byte	0xfd
 2129 0a08 95030000 		.4byte	.LLST25
 2130 0a0c 31       		.uleb128 0x31
 2131 0a0d 747000   		.ascii	"tp\000"
 2132 0a10 01       		.byte	0x1
 2133 0a11 6F01     		.2byte	0x16f
 2134 0a13 47020000 		.4byte	0x247
 2135 0a17 C2030000 		.4byte	.LLST26
 2136 0a1b 32       		.uleb128 0x32
 2137 0a1c 6A050000 		.4byte	0x56a
 2138 0a20 12000000 		.4byte	.LBB52
 2139 0a24 04000000 		.4byte	.LBE52-.LBB52
 2140 0a28 01       		.byte	0x1
 2141 0a29 7701     		.2byte	0x177
 2142 0a2b 4C0A0000 		.4byte	0xa4c
 2143 0a2f 1C       		.uleb128 0x1c
 2144 0a30 7A050000 		.4byte	0x57a
 2145 0a34 D5030000 		.4byte	.LLST27
 2146 0a38 33       		.uleb128 0x33
 2147 0a39 12000000 		.4byte	.LBB53
 2148 0a3d 04000000 		.4byte	.LBE53-.LBB53
 2149 0a41 26       		.uleb128 0x26
 2150 0a42 85050000 		.4byte	0x585
 2151 0a46 EA030000 		.4byte	.LLST28
 2152 0a4a 00       		.byte	0
 2153 0a4b 00       		.byte	0
 2154 0a4c 2A       		.uleb128 0x2a
 2155 0a4d 1A000000 		.4byte	.LVL44
 2156 0a51 B70B0000 		.4byte	0xbb7
 2157 0a55 34       		.uleb128 0x34
 2158 0a56 3A000000 		.4byte	.LVL46
 2159 0a5a C20B0000 		.4byte	0xbc2
 2160 0a5e 28       		.uleb128 0x28
 2161 0a5f 01       		.uleb128 0x1
 2162 0a60 50       		.byte	0x50
 2163 0a61 01       		.uleb128 0x1
 2164 0a62 3E       		.byte	0x3e
 2165 0a63 00       		.byte	0
 2166 0a64 00       		.byte	0
ARM GAS  /var/folders/6q/x_mk5n_j3p7_c40r_2k_78980000gn/T//ccBEVPuW.s 			page 39


 2167 0a65 2D       		.uleb128 0x2d
 2168 0a66 7F000000 		.4byte	.LASF93
 2169 0a6a 01       		.byte	0x1
 2170 0a6b 5901     		.2byte	0x159
 2171 0a6d 00000000 		.4byte	.LFB16
 2172 0a71 0A000000 		.4byte	.LFE16-.LFB16
 2173 0a75 01       		.uleb128 0x1
 2174 0a76 9C       		.byte	0x9c
 2175 0a77 B90A0000 		.4byte	0xab9
 2176 0a7b 30       		.uleb128 0x30
 2177 0a7c 6D736700 		.ascii	"msg\000"
 2178 0a80 01       		.byte	0x1
 2179 0a81 5901     		.2byte	0x159
 2180 0a83 FD000000 		.4byte	0xfd
 2181 0a87 FD030000 		.4byte	.LLST29
 2182 0a8b 22       		.uleb128 0x22
 2183 0a8c 00000000 		.4byte	.LBB54
 2184 0a90 06000000 		.4byte	.LBE54-.LBB54
 2185 0a94 A70A0000 		.4byte	0xaa7
 2186 0a98 2C       		.uleb128 0x2c
 2187 0a99 746D7000 		.ascii	"tmp\000"
 2188 0a9d 01       		.byte	0x1
 2189 0a9e 5B01     		.2byte	0x15b
 2190 0aa0 B4000000 		.4byte	0xb4
 2191 0aa4 01       		.uleb128 0x1
 2192 0aa5 53       		.byte	0x53
 2193 0aa6 00       		.byte	0
 2194 0aa7 34       		.uleb128 0x34
 2195 0aa8 0A000000 		.4byte	.LVL48
 2196 0aac E6090000 		.4byte	0x9e6
 2197 0ab0 28       		.uleb128 0x28
 2198 0ab1 01       		.uleb128 0x1
 2199 0ab2 50       		.byte	0x50
 2200 0ab3 03       		.uleb128 0x3
 2201 0ab4 F3       		.byte	0xf3
 2202 0ab5 01       		.uleb128 0x1
 2203 0ab6 50       		.byte	0x50
 2204 0ab7 00       		.byte	0
 2205 0ab8 00       		.byte	0
 2206 0ab9 35       		.uleb128 0x35
 2207 0aba A4040000 		.4byte	.LASF94
 2208 0abe 01       		.byte	0x1
 2209 0abf A401     		.2byte	0x1a4
 2210 0ac1 FD000000 		.4byte	0xfd
 2211 0ac5 00000000 		.4byte	.LFB18
 2212 0ac9 38000000 		.4byte	.LFE18-.LFB18
 2213 0acd 01       		.uleb128 0x1
 2214 0ace 9C       		.byte	0x9c
 2215 0acf 750B0000 		.4byte	0xb75
 2216 0ad3 30       		.uleb128 0x30
 2217 0ad4 747000   		.ascii	"tp\000"
 2218 0ad7 01       		.byte	0x1
 2219 0ad8 A401     		.2byte	0x1a4
 2220 0ada 47020000 		.4byte	0x247
 2221 0ade 1E040000 		.4byte	.LLST30
 2222 0ae2 31       		.uleb128 0x31
 2223 0ae3 6D736700 		.ascii	"msg\000"
ARM GAS  /var/folders/6q/x_mk5n_j3p7_c40r_2k_78980000gn/T//ccBEVPuW.s 			page 40


 2224 0ae7 01       		.byte	0x1
 2225 0ae8 A501     		.2byte	0x1a5
 2226 0aea FD000000 		.4byte	0xfd
 2227 0aee 4A040000 		.4byte	.LLST31
 2228 0af2 22       		.uleb128 0x22
 2229 0af3 04000000 		.4byte	.LBB55
 2230 0af7 06000000 		.4byte	.LBE55-.LBB55
 2231 0afb 0E0B0000 		.4byte	0xb0e
 2232 0aff 2C       		.uleb128 0x2c
 2233 0b00 746D7000 		.ascii	"tmp\000"
 2234 0b04 01       		.byte	0x1
 2235 0b05 A901     		.2byte	0x1a9
 2236 0b07 B4000000 		.4byte	0xb4
 2237 0b0b 01       		.uleb128 0x1
 2238 0b0c 53       		.byte	0x53
 2239 0b0d 00       		.byte	0
 2240 0b0e 36       		.uleb128 0x36
 2241 0b0f 96050000 		.4byte	0x596
 2242 0b13 12000000 		.4byte	.LBB56
 2243 0b17 98000000 		.4byte	.Ldebug_ranges0+0x98
 2244 0b1b 01       		.byte	0x1
 2245 0b1c AF01     		.2byte	0x1af
 2246 0b1e 350B0000 		.4byte	0xb35
 2247 0b22 1C       		.uleb128 0x1c
 2248 0b23 AC050000 		.4byte	0x5ac
 2249 0b27 68040000 		.4byte	.LLST32
 2250 0b2b 1C       		.uleb128 0x1c
 2251 0b2c A2050000 		.4byte	0x5a2
 2252 0b30 8A040000 		.4byte	.LLST33
 2253 0b34 00       		.byte	0
 2254 0b35 22       		.uleb128 0x22
 2255 0b36 22000000 		.4byte	.LBB60
 2256 0b3a 06000000 		.4byte	.LBE60-.LBB60
 2257 0b3e 510B0000 		.4byte	0xb51
 2258 0b42 2C       		.uleb128 0x2c
 2259 0b43 746D7000 		.ascii	"tmp\000"
 2260 0b47 01       		.byte	0x1
 2261 0b48 B301     		.2byte	0x1b3
 2262 0b4a B4000000 		.4byte	0xb4
 2263 0b4e 01       		.uleb128 0x1
 2264 0b4f 53       		.byte	0x53
 2265 0b50 00       		.byte	0
 2266 0b51 37       		.uleb128 0x37
 2267 0b52 20000000 		.4byte	.LVL53
 2268 0b56 C20B0000 		.4byte	0xbc2
 2269 0b5a 640B0000 		.4byte	0xb64
 2270 0b5e 28       		.uleb128 0x28
 2271 0b5f 01       		.uleb128 0x1
 2272 0b60 50       		.byte	0x50
 2273 0b61 01       		.uleb128 0x1
 2274 0b62 37       		.byte	0x37
 2275 0b63 00       		.byte	0
 2276 0b64 27       		.uleb128 0x27
 2277 0b65 2E000000 		.4byte	.LVL55
 2278 0b69 CD0B0000 		.4byte	0xbcd
 2279 0b6d 28       		.uleb128 0x28
 2280 0b6e 01       		.uleb128 0x1
ARM GAS  /var/folders/6q/x_mk5n_j3p7_c40r_2k_78980000gn/T//ccBEVPuW.s 			page 41


 2281 0b6f 50       		.byte	0x50
 2282 0b70 02       		.uleb128 0x2
 2283 0b71 74       		.byte	0x74
 2284 0b72 00       		.sleb128 0
 2285 0b73 00       		.byte	0
 2286 0b74 00       		.byte	0
 2287 0b75 38       		.uleb128 0x38
 2288 0b76 2C000000 		.4byte	.LASF95
 2289 0b7a 0A       		.byte	0xa
 2290 0b7b F5       		.byte	0xf5
 2291 0b7c DD030000 		.4byte	0x3dd
 2292 0b80 38       		.uleb128 0x38
 2293 0b81 D8040000 		.4byte	.LASF96
 2294 0b85 0B       		.byte	0xb
 2295 0b86 6F       		.byte	0x6f
 2296 0b87 39040000 		.4byte	0x439
 2297 0b8b 39       		.uleb128 0x39
 2298 0b8c 3E020000 		.4byte	.LASF97
 2299 0b90 3E020000 		.4byte	.LASF97
 2300 0b94 0B       		.byte	0xb
 2301 0b95 99       		.byte	0x99
 2302 0b96 39       		.uleb128 0x39
 2303 0b97 D6000000 		.4byte	.LASF98
 2304 0b9b D6000000 		.4byte	.LASF98
 2305 0b9f 0B       		.byte	0xb
 2306 0ba0 9C       		.byte	0x9c
 2307 0ba1 39       		.uleb128 0x39
 2308 0ba2 0A050000 		.4byte	.LASF99
 2309 0ba6 0A050000 		.4byte	.LASF99
 2310 0baa 0B       		.byte	0xb
 2311 0bab 96       		.byte	0x96
 2312 0bac 39       		.uleb128 0x39
 2313 0bad D9020000 		.4byte	.LASF100
 2314 0bb1 D9020000 		.4byte	.LASF100
 2315 0bb5 0B       		.byte	0xb
 2316 0bb6 A2       		.byte	0xa2
 2317 0bb7 39       		.uleb128 0x39
 2318 0bb8 3B040000 		.4byte	.LASF101
 2319 0bbc 3B040000 		.4byte	.LASF101
 2320 0bc0 0B       		.byte	0xb
 2321 0bc1 90       		.byte	0x90
 2322 0bc2 39       		.uleb128 0x39
 2323 0bc3 D0030000 		.4byte	.LASF102
 2324 0bc7 D0030000 		.4byte	.LASF102
 2325 0bcb 0B       		.byte	0xb
 2326 0bcc 93       		.byte	0x93
 2327 0bcd 39       		.uleb128 0x39
 2328 0bce BC030000 		.4byte	.LASF103
 2329 0bd2 BC030000 		.4byte	.LASF103
 2330 0bd6 0D       		.byte	0xd
 2331 0bd7 3A       		.byte	0x3a
 2332 0bd8 00       		.byte	0
 2333              		.section	.debug_abbrev,"",%progbits
 2334              	.Ldebug_abbrev0:
 2335 0000 01       		.uleb128 0x1
 2336 0001 11       		.uleb128 0x11
 2337 0002 01       		.byte	0x1
ARM GAS  /var/folders/6q/x_mk5n_j3p7_c40r_2k_78980000gn/T//ccBEVPuW.s 			page 42


 2338 0003 25       		.uleb128 0x25
 2339 0004 0E       		.uleb128 0xe
 2340 0005 13       		.uleb128 0x13
 2341 0006 0B       		.uleb128 0xb
 2342 0007 03       		.uleb128 0x3
 2343 0008 0E       		.uleb128 0xe
 2344 0009 1B       		.uleb128 0x1b
 2345 000a 0E       		.uleb128 0xe
 2346 000b 55       		.uleb128 0x55
 2347 000c 17       		.uleb128 0x17
 2348 000d 11       		.uleb128 0x11
 2349 000e 01       		.uleb128 0x1
 2350 000f 10       		.uleb128 0x10
 2351 0010 17       		.uleb128 0x17
 2352 0011 00       		.byte	0
 2353 0012 00       		.byte	0
 2354 0013 02       		.uleb128 0x2
 2355 0014 24       		.uleb128 0x24
 2356 0015 00       		.byte	0
 2357 0016 0B       		.uleb128 0xb
 2358 0017 0B       		.uleb128 0xb
 2359 0018 3E       		.uleb128 0x3e
 2360 0019 0B       		.uleb128 0xb
 2361 001a 03       		.uleb128 0x3
 2362 001b 08       		.uleb128 0x8
 2363 001c 00       		.byte	0
 2364 001d 00       		.byte	0
 2365 001e 03       		.uleb128 0x3
 2366 001f 16       		.uleb128 0x16
 2367 0020 00       		.byte	0
 2368 0021 03       		.uleb128 0x3
 2369 0022 0E       		.uleb128 0xe
 2370 0023 3A       		.uleb128 0x3a
 2371 0024 0B       		.uleb128 0xb
 2372 0025 3B       		.uleb128 0x3b
 2373 0026 0B       		.uleb128 0xb
 2374 0027 49       		.uleb128 0x49
 2375 0028 13       		.uleb128 0x13
 2376 0029 00       		.byte	0
 2377 002a 00       		.byte	0
 2378 002b 04       		.uleb128 0x4
 2379 002c 24       		.uleb128 0x24
 2380 002d 00       		.byte	0
 2381 002e 0B       		.uleb128 0xb
 2382 002f 0B       		.uleb128 0xb
 2383 0030 3E       		.uleb128 0x3e
 2384 0031 0B       		.uleb128 0xb
 2385 0032 03       		.uleb128 0x3
 2386 0033 0E       		.uleb128 0xe
 2387 0034 00       		.byte	0
 2388 0035 00       		.byte	0
 2389 0036 05       		.uleb128 0x5
 2390 0037 13       		.uleb128 0x13
 2391 0038 01       		.byte	0x1
 2392 0039 03       		.uleb128 0x3
 2393 003a 0E       		.uleb128 0xe
 2394 003b 0B       		.uleb128 0xb
ARM GAS  /var/folders/6q/x_mk5n_j3p7_c40r_2k_78980000gn/T//ccBEVPuW.s 			page 43


 2395 003c 0B       		.uleb128 0xb
 2396 003d 3A       		.uleb128 0x3a
 2397 003e 0B       		.uleb128 0xb
 2398 003f 3B       		.uleb128 0x3b
 2399 0040 0B       		.uleb128 0xb
 2400 0041 01       		.uleb128 0x1
 2401 0042 13       		.uleb128 0x13
 2402 0043 00       		.byte	0
 2403 0044 00       		.byte	0
 2404 0045 06       		.uleb128 0x6
 2405 0046 0D       		.uleb128 0xd
 2406 0047 00       		.byte	0
 2407 0048 03       		.uleb128 0x3
 2408 0049 0E       		.uleb128 0xe
 2409 004a 3A       		.uleb128 0x3a
 2410 004b 0B       		.uleb128 0xb
 2411 004c 3B       		.uleb128 0x3b
 2412 004d 0B       		.uleb128 0xb
 2413 004e 49       		.uleb128 0x49
 2414 004f 13       		.uleb128 0x13
 2415 0050 38       		.uleb128 0x38
 2416 0051 0B       		.uleb128 0xb
 2417 0052 00       		.byte	0
 2418 0053 00       		.byte	0
 2419 0054 07       		.uleb128 0x7
 2420 0055 0D       		.uleb128 0xd
 2421 0056 00       		.byte	0
 2422 0057 03       		.uleb128 0x3
 2423 0058 08       		.uleb128 0x8
 2424 0059 3A       		.uleb128 0x3a
 2425 005a 0B       		.uleb128 0xb
 2426 005b 3B       		.uleb128 0x3b
 2427 005c 0B       		.uleb128 0xb
 2428 005d 49       		.uleb128 0x49
 2429 005e 13       		.uleb128 0x13
 2430 005f 38       		.uleb128 0x38
 2431 0060 0B       		.uleb128 0xb
 2432 0061 00       		.byte	0
 2433 0062 00       		.byte	0
 2434 0063 08       		.uleb128 0x8
 2435 0064 13       		.uleb128 0x13
 2436 0065 01       		.byte	0x1
 2437 0066 0B       		.uleb128 0xb
 2438 0067 0B       		.uleb128 0xb
 2439 0068 3A       		.uleb128 0x3a
 2440 0069 0B       		.uleb128 0xb
 2441 006a 3B       		.uleb128 0x3b
 2442 006b 0B       		.uleb128 0xb
 2443 006c 01       		.uleb128 0x1
 2444 006d 13       		.uleb128 0x13
 2445 006e 00       		.byte	0
 2446 006f 00       		.byte	0
 2447 0070 09       		.uleb128 0x9
 2448 0071 0F       		.uleb128 0xf
 2449 0072 00       		.byte	0
 2450 0073 0B       		.uleb128 0xb
 2451 0074 0B       		.uleb128 0xb
ARM GAS  /var/folders/6q/x_mk5n_j3p7_c40r_2k_78980000gn/T//ccBEVPuW.s 			page 44


 2452 0075 49       		.uleb128 0x49
 2453 0076 13       		.uleb128 0x13
 2454 0077 00       		.byte	0
 2455 0078 00       		.byte	0
 2456 0079 0A       		.uleb128 0xa
 2457 007a 0F       		.uleb128 0xf
 2458 007b 00       		.byte	0
 2459 007c 0B       		.uleb128 0xb
 2460 007d 0B       		.uleb128 0xb
 2461 007e 00       		.byte	0
 2462 007f 00       		.byte	0
 2463 0080 0B       		.uleb128 0xb
 2464 0081 13       		.uleb128 0x13
 2465 0082 01       		.byte	0x1
 2466 0083 03       		.uleb128 0x3
 2467 0084 0E       		.uleb128 0xe
 2468 0085 0B       		.uleb128 0xb
 2469 0086 0B       		.uleb128 0xb
 2470 0087 3A       		.uleb128 0x3a
 2471 0088 0B       		.uleb128 0xb
 2472 0089 3B       		.uleb128 0x3b
 2473 008a 05       		.uleb128 0x5
 2474 008b 01       		.uleb128 0x1
 2475 008c 13       		.uleb128 0x13
 2476 008d 00       		.byte	0
 2477 008e 00       		.byte	0
 2478 008f 0C       		.uleb128 0xc
 2479 0090 0D       		.uleb128 0xd
 2480 0091 00       		.byte	0
 2481 0092 03       		.uleb128 0x3
 2482 0093 08       		.uleb128 0x8
 2483 0094 3A       		.uleb128 0x3a
 2484 0095 0B       		.uleb128 0xb
 2485 0096 3B       		.uleb128 0x3b
 2486 0097 05       		.uleb128 0x5
 2487 0098 49       		.uleb128 0x49
 2488 0099 13       		.uleb128 0x13
 2489 009a 38       		.uleb128 0x38
 2490 009b 0B       		.uleb128 0xb
 2491 009c 00       		.byte	0
 2492 009d 00       		.byte	0
 2493 009e 0D       		.uleb128 0xd
 2494 009f 15       		.uleb128 0x15
 2495 00a0 01       		.byte	0x1
 2496 00a1 27       		.uleb128 0x27
 2497 00a2 19       		.uleb128 0x19
 2498 00a3 01       		.uleb128 0x1
 2499 00a4 13       		.uleb128 0x13
 2500 00a5 00       		.byte	0
 2501 00a6 00       		.byte	0
 2502 00a7 0E       		.uleb128 0xe
 2503 00a8 05       		.uleb128 0x5
 2504 00a9 00       		.byte	0
 2505 00aa 49       		.uleb128 0x49
 2506 00ab 13       		.uleb128 0x13
 2507 00ac 00       		.byte	0
 2508 00ad 00       		.byte	0
ARM GAS  /var/folders/6q/x_mk5n_j3p7_c40r_2k_78980000gn/T//ccBEVPuW.s 			page 45


 2509 00ae 0F       		.uleb128 0xf
 2510 00af 35       		.uleb128 0x35
 2511 00b0 00       		.byte	0
 2512 00b1 49       		.uleb128 0x49
 2513 00b2 13       		.uleb128 0x13
 2514 00b3 00       		.byte	0
 2515 00b4 00       		.byte	0
 2516 00b5 10       		.uleb128 0x10
 2517 00b6 17       		.uleb128 0x17
 2518 00b7 01       		.byte	0x1
 2519 00b8 0B       		.uleb128 0xb
 2520 00b9 0B       		.uleb128 0xb
 2521 00ba 3A       		.uleb128 0x3a
 2522 00bb 0B       		.uleb128 0xb
 2523 00bc 3B       		.uleb128 0x3b
 2524 00bd 0B       		.uleb128 0xb
 2525 00be 01       		.uleb128 0x1
 2526 00bf 13       		.uleb128 0x13
 2527 00c0 00       		.byte	0
 2528 00c1 00       		.byte	0
 2529 00c2 11       		.uleb128 0x11
 2530 00c3 0D       		.uleb128 0xd
 2531 00c4 00       		.byte	0
 2532 00c5 03       		.uleb128 0x3
 2533 00c6 0E       		.uleb128 0xe
 2534 00c7 3A       		.uleb128 0x3a
 2535 00c8 0B       		.uleb128 0xb
 2536 00c9 3B       		.uleb128 0x3b
 2537 00ca 0B       		.uleb128 0xb
 2538 00cb 49       		.uleb128 0x49
 2539 00cc 13       		.uleb128 0x13
 2540 00cd 00       		.byte	0
 2541 00ce 00       		.byte	0
 2542 00cf 12       		.uleb128 0x12
 2543 00d0 26       		.uleb128 0x26
 2544 00d1 00       		.byte	0
 2545 00d2 49       		.uleb128 0x49
 2546 00d3 13       		.uleb128 0x13
 2547 00d4 00       		.byte	0
 2548 00d5 00       		.byte	0
 2549 00d6 13       		.uleb128 0x13
 2550 00d7 15       		.uleb128 0x15
 2551 00d8 01       		.byte	0x1
 2552 00d9 27       		.uleb128 0x27
 2553 00da 19       		.uleb128 0x19
 2554 00db 49       		.uleb128 0x49
 2555 00dc 13       		.uleb128 0x13
 2556 00dd 01       		.uleb128 0x1
 2557 00de 13       		.uleb128 0x13
 2558 00df 00       		.byte	0
 2559 00e0 00       		.byte	0
 2560 00e1 14       		.uleb128 0x14
 2561 00e2 2E       		.uleb128 0x2e
 2562 00e3 01       		.byte	0x1
 2563 00e4 3F       		.uleb128 0x3f
 2564 00e5 19       		.uleb128 0x19
 2565 00e6 03       		.uleb128 0x3
ARM GAS  /var/folders/6q/x_mk5n_j3p7_c40r_2k_78980000gn/T//ccBEVPuW.s 			page 46


 2566 00e7 0E       		.uleb128 0xe
 2567 00e8 3A       		.uleb128 0x3a
 2568 00e9 0B       		.uleb128 0xb
 2569 00ea 3B       		.uleb128 0x3b
 2570 00eb 0B       		.uleb128 0xb
 2571 00ec 27       		.uleb128 0x27
 2572 00ed 19       		.uleb128 0x19
 2573 00ee 49       		.uleb128 0x49
 2574 00ef 13       		.uleb128 0x13
 2575 00f0 20       		.uleb128 0x20
 2576 00f1 0B       		.uleb128 0xb
 2577 00f2 01       		.uleb128 0x1
 2578 00f3 13       		.uleb128 0x13
 2579 00f4 00       		.byte	0
 2580 00f5 00       		.byte	0
 2581 00f6 15       		.uleb128 0x15
 2582 00f7 05       		.uleb128 0x5
 2583 00f8 00       		.byte	0
 2584 00f9 03       		.uleb128 0x3
 2585 00fa 08       		.uleb128 0x8
 2586 00fb 3A       		.uleb128 0x3a
 2587 00fc 0B       		.uleb128 0xb
 2588 00fd 3B       		.uleb128 0x3b
 2589 00fe 0B       		.uleb128 0xb
 2590 00ff 49       		.uleb128 0x49
 2591 0100 13       		.uleb128 0x13
 2592 0101 00       		.byte	0
 2593 0102 00       		.byte	0
 2594 0103 16       		.uleb128 0x16
 2595 0104 05       		.uleb128 0x5
 2596 0105 00       		.byte	0
 2597 0106 03       		.uleb128 0x3
 2598 0107 0E       		.uleb128 0xe
 2599 0108 3A       		.uleb128 0x3a
 2600 0109 0B       		.uleb128 0xb
 2601 010a 3B       		.uleb128 0x3b
 2602 010b 0B       		.uleb128 0xb
 2603 010c 49       		.uleb128 0x49
 2604 010d 13       		.uleb128 0x13
 2605 010e 00       		.byte	0
 2606 010f 00       		.byte	0
 2607 0110 17       		.uleb128 0x17
 2608 0111 34       		.uleb128 0x34
 2609 0112 00       		.byte	0
 2610 0113 03       		.uleb128 0x3
 2611 0114 08       		.uleb128 0x8
 2612 0115 3A       		.uleb128 0x3a
 2613 0116 0B       		.uleb128 0xb
 2614 0117 3B       		.uleb128 0x3b
 2615 0118 0B       		.uleb128 0xb
 2616 0119 49       		.uleb128 0x49
 2617 011a 13       		.uleb128 0x13
 2618 011b 00       		.byte	0
 2619 011c 00       		.byte	0
 2620 011d 18       		.uleb128 0x18
 2621 011e 2E       		.uleb128 0x2e
 2622 011f 01       		.byte	0x1
ARM GAS  /var/folders/6q/x_mk5n_j3p7_c40r_2k_78980000gn/T//ccBEVPuW.s 			page 47


 2623 0120 03       		.uleb128 0x3
 2624 0121 0E       		.uleb128 0xe
 2625 0122 3A       		.uleb128 0x3a
 2626 0123 0B       		.uleb128 0xb
 2627 0124 3B       		.uleb128 0x3b
 2628 0125 0B       		.uleb128 0xb
 2629 0126 27       		.uleb128 0x27
 2630 0127 19       		.uleb128 0x19
 2631 0128 49       		.uleb128 0x49
 2632 0129 13       		.uleb128 0x13
 2633 012a 20       		.uleb128 0x20
 2634 012b 0B       		.uleb128 0xb
 2635 012c 01       		.uleb128 0x1
 2636 012d 13       		.uleb128 0x13
 2637 012e 00       		.byte	0
 2638 012f 00       		.byte	0
 2639 0130 19       		.uleb128 0x19
 2640 0131 2E       		.uleb128 0x2e
 2641 0132 01       		.byte	0x1
 2642 0133 03       		.uleb128 0x3
 2643 0134 0E       		.uleb128 0xe
 2644 0135 3A       		.uleb128 0x3a
 2645 0136 0B       		.uleb128 0xb
 2646 0137 3B       		.uleb128 0x3b
 2647 0138 0B       		.uleb128 0xb
 2648 0139 27       		.uleb128 0x27
 2649 013a 19       		.uleb128 0x19
 2650 013b 20       		.uleb128 0x20
 2651 013c 0B       		.uleb128 0xb
 2652 013d 01       		.uleb128 0x1
 2653 013e 13       		.uleb128 0x13
 2654 013f 00       		.byte	0
 2655 0140 00       		.byte	0
 2656 0141 1A       		.uleb128 0x1a
 2657 0142 2E       		.uleb128 0x2e
 2658 0143 01       		.byte	0x1
 2659 0144 31       		.uleb128 0x31
 2660 0145 13       		.uleb128 0x13
 2661 0146 11       		.uleb128 0x11
 2662 0147 01       		.uleb128 0x1
 2663 0148 12       		.uleb128 0x12
 2664 0149 06       		.uleb128 0x6
 2665 014a 40       		.uleb128 0x40
 2666 014b 18       		.uleb128 0x18
 2667 014c 9742     		.uleb128 0x2117
 2668 014e 19       		.uleb128 0x19
 2669 014f 01       		.uleb128 0x1
 2670 0150 13       		.uleb128 0x13
 2671 0151 00       		.byte	0
 2672 0152 00       		.byte	0
 2673 0153 1B       		.uleb128 0x1b
 2674 0154 05       		.uleb128 0x5
 2675 0155 00       		.byte	0
 2676 0156 31       		.uleb128 0x31
 2677 0157 13       		.uleb128 0x13
 2678 0158 02       		.uleb128 0x2
 2679 0159 18       		.uleb128 0x18
ARM GAS  /var/folders/6q/x_mk5n_j3p7_c40r_2k_78980000gn/T//ccBEVPuW.s 			page 48


 2680 015a 00       		.byte	0
 2681 015b 00       		.byte	0
 2682 015c 1C       		.uleb128 0x1c
 2683 015d 05       		.uleb128 0x5
 2684 015e 00       		.byte	0
 2685 015f 31       		.uleb128 0x31
 2686 0160 13       		.uleb128 0x13
 2687 0161 02       		.uleb128 0x2
 2688 0162 17       		.uleb128 0x17
 2689 0163 00       		.byte	0
 2690 0164 00       		.byte	0
 2691 0165 1D       		.uleb128 0x1d
 2692 0166 34       		.uleb128 0x34
 2693 0167 00       		.byte	0
 2694 0168 31       		.uleb128 0x31
 2695 0169 13       		.uleb128 0x13
 2696 016a 02       		.uleb128 0x2
 2697 016b 18       		.uleb128 0x18
 2698 016c 00       		.byte	0
 2699 016d 00       		.byte	0
 2700 016e 1E       		.uleb128 0x1e
 2701 016f 1D       		.uleb128 0x1d
 2702 0170 01       		.byte	0x1
 2703 0171 31       		.uleb128 0x31
 2704 0172 13       		.uleb128 0x13
 2705 0173 52       		.uleb128 0x52
 2706 0174 01       		.uleb128 0x1
 2707 0175 55       		.uleb128 0x55
 2708 0176 17       		.uleb128 0x17
 2709 0177 58       		.uleb128 0x58
 2710 0178 0B       		.uleb128 0xb
 2711 0179 59       		.uleb128 0x59
 2712 017a 0B       		.uleb128 0xb
 2713 017b 00       		.byte	0
 2714 017c 00       		.byte	0
 2715 017d 1F       		.uleb128 0x1f
 2716 017e 2E       		.uleb128 0x2e
 2717 017f 01       		.byte	0x1
 2718 0180 3F       		.uleb128 0x3f
 2719 0181 19       		.uleb128 0x19
 2720 0182 03       		.uleb128 0x3
 2721 0183 0E       		.uleb128 0xe
 2722 0184 3A       		.uleb128 0x3a
 2723 0185 0B       		.uleb128 0xb
 2724 0186 3B       		.uleb128 0x3b
 2725 0187 0B       		.uleb128 0xb
 2726 0188 27       		.uleb128 0x27
 2727 0189 19       		.uleb128 0x19
 2728 018a 49       		.uleb128 0x49
 2729 018b 13       		.uleb128 0x13
 2730 018c 11       		.uleb128 0x11
 2731 018d 01       		.uleb128 0x1
 2732 018e 12       		.uleb128 0x12
 2733 018f 06       		.uleb128 0x6
 2734 0190 40       		.uleb128 0x40
 2735 0191 18       		.uleb128 0x18
 2736 0192 9742     		.uleb128 0x2117
ARM GAS  /var/folders/6q/x_mk5n_j3p7_c40r_2k_78980000gn/T//ccBEVPuW.s 			page 49


 2737 0194 19       		.uleb128 0x19
 2738 0195 01       		.uleb128 0x1
 2739 0196 13       		.uleb128 0x13
 2740 0197 00       		.byte	0
 2741 0198 00       		.byte	0
 2742 0199 20       		.uleb128 0x20
 2743 019a 05       		.uleb128 0x5
 2744 019b 00       		.byte	0
 2745 019c 03       		.uleb128 0x3
 2746 019d 08       		.uleb128 0x8
 2747 019e 3A       		.uleb128 0x3a
 2748 019f 0B       		.uleb128 0xb
 2749 01a0 3B       		.uleb128 0x3b
 2750 01a1 0B       		.uleb128 0xb
 2751 01a2 49       		.uleb128 0x49
 2752 01a3 13       		.uleb128 0x13
 2753 01a4 02       		.uleb128 0x2
 2754 01a5 17       		.uleb128 0x17
 2755 01a6 00       		.byte	0
 2756 01a7 00       		.byte	0
 2757 01a8 21       		.uleb128 0x21
 2758 01a9 05       		.uleb128 0x5
 2759 01aa 00       		.byte	0
 2760 01ab 03       		.uleb128 0x3
 2761 01ac 0E       		.uleb128 0xe
 2762 01ad 3A       		.uleb128 0x3a
 2763 01ae 0B       		.uleb128 0xb
 2764 01af 3B       		.uleb128 0x3b
 2765 01b0 0B       		.uleb128 0xb
 2766 01b1 49       		.uleb128 0x49
 2767 01b2 13       		.uleb128 0x13
 2768 01b3 02       		.uleb128 0x2
 2769 01b4 17       		.uleb128 0x17
 2770 01b5 00       		.byte	0
 2771 01b6 00       		.byte	0
 2772 01b7 22       		.uleb128 0x22
 2773 01b8 0B       		.uleb128 0xb
 2774 01b9 01       		.byte	0x1
 2775 01ba 11       		.uleb128 0x11
 2776 01bb 01       		.uleb128 0x1
 2777 01bc 12       		.uleb128 0x12
 2778 01bd 06       		.uleb128 0x6
 2779 01be 01       		.uleb128 0x1
 2780 01bf 13       		.uleb128 0x13
 2781 01c0 00       		.byte	0
 2782 01c1 00       		.byte	0
 2783 01c2 23       		.uleb128 0x23
 2784 01c3 34       		.uleb128 0x34
 2785 01c4 00       		.byte	0
 2786 01c5 03       		.uleb128 0x3
 2787 01c6 08       		.uleb128 0x8
 2788 01c7 3A       		.uleb128 0x3a
 2789 01c8 0B       		.uleb128 0xb
 2790 01c9 3B       		.uleb128 0x3b
 2791 01ca 0B       		.uleb128 0xb
 2792 01cb 49       		.uleb128 0x49
 2793 01cc 13       		.uleb128 0x13
ARM GAS  /var/folders/6q/x_mk5n_j3p7_c40r_2k_78980000gn/T//ccBEVPuW.s 			page 50


 2794 01cd 02       		.uleb128 0x2
 2795 01ce 18       		.uleb128 0x18
 2796 01cf 00       		.byte	0
 2797 01d0 00       		.byte	0
 2798 01d1 24       		.uleb128 0x24
 2799 01d2 1D       		.uleb128 0x1d
 2800 01d3 01       		.byte	0x1
 2801 01d4 31       		.uleb128 0x31
 2802 01d5 13       		.uleb128 0x13
 2803 01d6 52       		.uleb128 0x52
 2804 01d7 01       		.uleb128 0x1
 2805 01d8 55       		.uleb128 0x55
 2806 01d9 17       		.uleb128 0x17
 2807 01da 58       		.uleb128 0x58
 2808 01db 0B       		.uleb128 0xb
 2809 01dc 59       		.uleb128 0x59
 2810 01dd 0B       		.uleb128 0xb
 2811 01de 01       		.uleb128 0x1
 2812 01df 13       		.uleb128 0x13
 2813 01e0 00       		.byte	0
 2814 01e1 00       		.byte	0
 2815 01e2 25       		.uleb128 0x25
 2816 01e3 0B       		.uleb128 0xb
 2817 01e4 01       		.byte	0x1
 2818 01e5 55       		.uleb128 0x55
 2819 01e6 17       		.uleb128 0x17
 2820 01e7 00       		.byte	0
 2821 01e8 00       		.byte	0
 2822 01e9 26       		.uleb128 0x26
 2823 01ea 34       		.uleb128 0x34
 2824 01eb 00       		.byte	0
 2825 01ec 31       		.uleb128 0x31
 2826 01ed 13       		.uleb128 0x13
 2827 01ee 02       		.uleb128 0x2
 2828 01ef 17       		.uleb128 0x17
 2829 01f0 00       		.byte	0
 2830 01f1 00       		.byte	0
 2831 01f2 27       		.uleb128 0x27
 2832 01f3 898201   		.uleb128 0x4109
 2833 01f6 01       		.byte	0x1
 2834 01f7 11       		.uleb128 0x11
 2835 01f8 01       		.uleb128 0x1
 2836 01f9 31       		.uleb128 0x31
 2837 01fa 13       		.uleb128 0x13
 2838 01fb 00       		.byte	0
 2839 01fc 00       		.byte	0
 2840 01fd 28       		.uleb128 0x28
 2841 01fe 8A8201   		.uleb128 0x410a
 2842 0201 00       		.byte	0
 2843 0202 02       		.uleb128 0x2
 2844 0203 18       		.uleb128 0x18
 2845 0204 9142     		.uleb128 0x2111
 2846 0206 18       		.uleb128 0x18
 2847 0207 00       		.byte	0
 2848 0208 00       		.byte	0
 2849 0209 29       		.uleb128 0x29
 2850 020a 34       		.uleb128 0x34
ARM GAS  /var/folders/6q/x_mk5n_j3p7_c40r_2k_78980000gn/T//ccBEVPuW.s 			page 51


 2851 020b 00       		.byte	0
 2852 020c 03       		.uleb128 0x3
 2853 020d 0E       		.uleb128 0xe
 2854 020e 3A       		.uleb128 0x3a
 2855 020f 0B       		.uleb128 0xb
 2856 0210 3B       		.uleb128 0x3b
 2857 0211 0B       		.uleb128 0xb
 2858 0212 49       		.uleb128 0x49
 2859 0213 13       		.uleb128 0x13
 2860 0214 02       		.uleb128 0x2
 2861 0215 17       		.uleb128 0x17
 2862 0216 00       		.byte	0
 2863 0217 00       		.byte	0
 2864 0218 2A       		.uleb128 0x2a
 2865 0219 898201   		.uleb128 0x4109
 2866 021c 00       		.byte	0
 2867 021d 11       		.uleb128 0x11
 2868 021e 01       		.uleb128 0x1
 2869 021f 31       		.uleb128 0x31
 2870 0220 13       		.uleb128 0x13
 2871 0221 00       		.byte	0
 2872 0222 00       		.byte	0
 2873 0223 2B       		.uleb128 0x2b
 2874 0224 0B       		.uleb128 0xb
 2875 0225 01       		.byte	0x1
 2876 0226 55       		.uleb128 0x55
 2877 0227 17       		.uleb128 0x17
 2878 0228 01       		.uleb128 0x1
 2879 0229 13       		.uleb128 0x13
 2880 022a 00       		.byte	0
 2881 022b 00       		.byte	0
 2882 022c 2C       		.uleb128 0x2c
 2883 022d 34       		.uleb128 0x34
 2884 022e 00       		.byte	0
 2885 022f 03       		.uleb128 0x3
 2886 0230 08       		.uleb128 0x8
 2887 0231 3A       		.uleb128 0x3a
 2888 0232 0B       		.uleb128 0xb
 2889 0233 3B       		.uleb128 0x3b
 2890 0234 05       		.uleb128 0x5
 2891 0235 49       		.uleb128 0x49
 2892 0236 13       		.uleb128 0x13
 2893 0237 02       		.uleb128 0x2
 2894 0238 18       		.uleb128 0x18
 2895 0239 00       		.byte	0
 2896 023a 00       		.byte	0
 2897 023b 2D       		.uleb128 0x2d
 2898 023c 2E       		.uleb128 0x2e
 2899 023d 01       		.byte	0x1
 2900 023e 3F       		.uleb128 0x3f
 2901 023f 19       		.uleb128 0x19
 2902 0240 03       		.uleb128 0x3
 2903 0241 0E       		.uleb128 0xe
 2904 0242 3A       		.uleb128 0x3a
 2905 0243 0B       		.uleb128 0xb
 2906 0244 3B       		.uleb128 0x3b
 2907 0245 05       		.uleb128 0x5
ARM GAS  /var/folders/6q/x_mk5n_j3p7_c40r_2k_78980000gn/T//ccBEVPuW.s 			page 52


 2908 0246 27       		.uleb128 0x27
 2909 0247 19       		.uleb128 0x19
 2910 0248 11       		.uleb128 0x11
 2911 0249 01       		.uleb128 0x1
 2912 024a 12       		.uleb128 0x12
 2913 024b 06       		.uleb128 0x6
 2914 024c 40       		.uleb128 0x40
 2915 024d 18       		.uleb128 0x18
 2916 024e 9742     		.uleb128 0x2117
 2917 0250 19       		.uleb128 0x19
 2918 0251 01       		.uleb128 0x1
 2919 0252 13       		.uleb128 0x13
 2920 0253 00       		.byte	0
 2921 0254 00       		.byte	0
 2922 0255 2E       		.uleb128 0x2e
 2923 0256 05       		.uleb128 0x5
 2924 0257 00       		.byte	0
 2925 0258 03       		.uleb128 0x3
 2926 0259 08       		.uleb128 0x8
 2927 025a 3A       		.uleb128 0x3a
 2928 025b 0B       		.uleb128 0xb
 2929 025c 3B       		.uleb128 0x3b
 2930 025d 05       		.uleb128 0x5
 2931 025e 49       		.uleb128 0x49
 2932 025f 13       		.uleb128 0x13
 2933 0260 02       		.uleb128 0x2
 2934 0261 18       		.uleb128 0x18
 2935 0262 00       		.byte	0
 2936 0263 00       		.byte	0
 2937 0264 2F       		.uleb128 0x2f
 2938 0265 05       		.uleb128 0x5
 2939 0266 00       		.byte	0
 2940 0267 03       		.uleb128 0x3
 2941 0268 0E       		.uleb128 0xe
 2942 0269 3A       		.uleb128 0x3a
 2943 026a 0B       		.uleb128 0xb
 2944 026b 3B       		.uleb128 0x3b
 2945 026c 05       		.uleb128 0x5
 2946 026d 49       		.uleb128 0x49
 2947 026e 13       		.uleb128 0x13
 2948 026f 02       		.uleb128 0x2
 2949 0270 17       		.uleb128 0x17
 2950 0271 00       		.byte	0
 2951 0272 00       		.byte	0
 2952 0273 30       		.uleb128 0x30
 2953 0274 05       		.uleb128 0x5
 2954 0275 00       		.byte	0
 2955 0276 03       		.uleb128 0x3
 2956 0277 08       		.uleb128 0x8
 2957 0278 3A       		.uleb128 0x3a
 2958 0279 0B       		.uleb128 0xb
 2959 027a 3B       		.uleb128 0x3b
 2960 027b 05       		.uleb128 0x5
 2961 027c 49       		.uleb128 0x49
 2962 027d 13       		.uleb128 0x13
 2963 027e 02       		.uleb128 0x2
 2964 027f 17       		.uleb128 0x17
ARM GAS  /var/folders/6q/x_mk5n_j3p7_c40r_2k_78980000gn/T//ccBEVPuW.s 			page 53


 2965 0280 00       		.byte	0
 2966 0281 00       		.byte	0
 2967 0282 31       		.uleb128 0x31
 2968 0283 34       		.uleb128 0x34
 2969 0284 00       		.byte	0
 2970 0285 03       		.uleb128 0x3
 2971 0286 08       		.uleb128 0x8
 2972 0287 3A       		.uleb128 0x3a
 2973 0288 0B       		.uleb128 0xb
 2974 0289 3B       		.uleb128 0x3b
 2975 028a 05       		.uleb128 0x5
 2976 028b 49       		.uleb128 0x49
 2977 028c 13       		.uleb128 0x13
 2978 028d 02       		.uleb128 0x2
 2979 028e 17       		.uleb128 0x17
 2980 028f 00       		.byte	0
 2981 0290 00       		.byte	0
 2982 0291 32       		.uleb128 0x32
 2983 0292 1D       		.uleb128 0x1d
 2984 0293 01       		.byte	0x1
 2985 0294 31       		.uleb128 0x31
 2986 0295 13       		.uleb128 0x13
 2987 0296 11       		.uleb128 0x11
 2988 0297 01       		.uleb128 0x1
 2989 0298 12       		.uleb128 0x12
 2990 0299 06       		.uleb128 0x6
 2991 029a 58       		.uleb128 0x58
 2992 029b 0B       		.uleb128 0xb
 2993 029c 59       		.uleb128 0x59
 2994 029d 05       		.uleb128 0x5
 2995 029e 01       		.uleb128 0x1
 2996 029f 13       		.uleb128 0x13
 2997 02a0 00       		.byte	0
 2998 02a1 00       		.byte	0
 2999 02a2 33       		.uleb128 0x33
 3000 02a3 0B       		.uleb128 0xb
 3001 02a4 01       		.byte	0x1
 3002 02a5 11       		.uleb128 0x11
 3003 02a6 01       		.uleb128 0x1
 3004 02a7 12       		.uleb128 0x12
 3005 02a8 06       		.uleb128 0x6
 3006 02a9 00       		.byte	0
 3007 02aa 00       		.byte	0
 3008 02ab 34       		.uleb128 0x34
 3009 02ac 898201   		.uleb128 0x4109
 3010 02af 01       		.byte	0x1
 3011 02b0 11       		.uleb128 0x11
 3012 02b1 01       		.uleb128 0x1
 3013 02b2 9542     		.uleb128 0x2115
 3014 02b4 19       		.uleb128 0x19
 3015 02b5 31       		.uleb128 0x31
 3016 02b6 13       		.uleb128 0x13
 3017 02b7 00       		.byte	0
 3018 02b8 00       		.byte	0
 3019 02b9 35       		.uleb128 0x35
 3020 02ba 2E       		.uleb128 0x2e
 3021 02bb 01       		.byte	0x1
ARM GAS  /var/folders/6q/x_mk5n_j3p7_c40r_2k_78980000gn/T//ccBEVPuW.s 			page 54


 3022 02bc 3F       		.uleb128 0x3f
 3023 02bd 19       		.uleb128 0x19
 3024 02be 03       		.uleb128 0x3
 3025 02bf 0E       		.uleb128 0xe
 3026 02c0 3A       		.uleb128 0x3a
 3027 02c1 0B       		.uleb128 0xb
 3028 02c2 3B       		.uleb128 0x3b
 3029 02c3 05       		.uleb128 0x5
 3030 02c4 27       		.uleb128 0x27
 3031 02c5 19       		.uleb128 0x19
 3032 02c6 49       		.uleb128 0x49
 3033 02c7 13       		.uleb128 0x13
 3034 02c8 11       		.uleb128 0x11
 3035 02c9 01       		.uleb128 0x1
 3036 02ca 12       		.uleb128 0x12
 3037 02cb 06       		.uleb128 0x6
 3038 02cc 40       		.uleb128 0x40
 3039 02cd 18       		.uleb128 0x18
 3040 02ce 9742     		.uleb128 0x2117
 3041 02d0 19       		.uleb128 0x19
 3042 02d1 01       		.uleb128 0x1
 3043 02d2 13       		.uleb128 0x13
 3044 02d3 00       		.byte	0
 3045 02d4 00       		.byte	0
 3046 02d5 36       		.uleb128 0x36
 3047 02d6 1D       		.uleb128 0x1d
 3048 02d7 01       		.byte	0x1
 3049 02d8 31       		.uleb128 0x31
 3050 02d9 13       		.uleb128 0x13
 3051 02da 52       		.uleb128 0x52
 3052 02db 01       		.uleb128 0x1
 3053 02dc 55       		.uleb128 0x55
 3054 02dd 17       		.uleb128 0x17
 3055 02de 58       		.uleb128 0x58
 3056 02df 0B       		.uleb128 0xb
 3057 02e0 59       		.uleb128 0x59
 3058 02e1 05       		.uleb128 0x5
 3059 02e2 01       		.uleb128 0x1
 3060 02e3 13       		.uleb128 0x13
 3061 02e4 00       		.byte	0
 3062 02e5 00       		.byte	0
 3063 02e6 37       		.uleb128 0x37
 3064 02e7 898201   		.uleb128 0x4109
 3065 02ea 01       		.byte	0x1
 3066 02eb 11       		.uleb128 0x11
 3067 02ec 01       		.uleb128 0x1
 3068 02ed 31       		.uleb128 0x31
 3069 02ee 13       		.uleb128 0x13
 3070 02ef 01       		.uleb128 0x1
 3071 02f0 13       		.uleb128 0x13
 3072 02f1 00       		.byte	0
 3073 02f2 00       		.byte	0
 3074 02f3 38       		.uleb128 0x38
 3075 02f4 34       		.uleb128 0x34
 3076 02f5 00       		.byte	0
 3077 02f6 03       		.uleb128 0x3
 3078 02f7 0E       		.uleb128 0xe
ARM GAS  /var/folders/6q/x_mk5n_j3p7_c40r_2k_78980000gn/T//ccBEVPuW.s 			page 55


 3079 02f8 3A       		.uleb128 0x3a
 3080 02f9 0B       		.uleb128 0xb
 3081 02fa 3B       		.uleb128 0x3b
 3082 02fb 0B       		.uleb128 0xb
 3083 02fc 49       		.uleb128 0x49
 3084 02fd 13       		.uleb128 0x13
 3085 02fe 3F       		.uleb128 0x3f
 3086 02ff 19       		.uleb128 0x19
 3087 0300 3C       		.uleb128 0x3c
 3088 0301 19       		.uleb128 0x19
 3089 0302 00       		.byte	0
 3090 0303 00       		.byte	0
 3091 0304 39       		.uleb128 0x39
 3092 0305 2E       		.uleb128 0x2e
 3093 0306 00       		.byte	0
 3094 0307 3F       		.uleb128 0x3f
 3095 0308 19       		.uleb128 0x19
 3096 0309 3C       		.uleb128 0x3c
 3097 030a 19       		.uleb128 0x19
 3098 030b 6E       		.uleb128 0x6e
 3099 030c 0E       		.uleb128 0xe
 3100 030d 03       		.uleb128 0x3
 3101 030e 0E       		.uleb128 0xe
 3102 030f 3A       		.uleb128 0x3a
 3103 0310 0B       		.uleb128 0xb
 3104 0311 3B       		.uleb128 0x3b
 3105 0312 0B       		.uleb128 0xb
 3106 0313 00       		.byte	0
 3107 0314 00       		.byte	0
 3108 0315 00       		.byte	0
 3109              		.section	.debug_loc,"",%progbits
 3110              	.Ldebug_loc0:
 3111              	.LLST0:
 3112 0000 00000000 		.4byte	.LVL0
 3113 0004 14000000 		.4byte	.LVL1
 3114 0008 0100     		.2byte	0x1
 3115 000a 51       		.byte	0x51
 3116 000b 14000000 		.4byte	.LVL1
 3117 000f 44000000 		.4byte	.LFE7
 3118 0013 0300     		.2byte	0x3
 3119 0015 70       		.byte	0x70
 3120 0016 C000     		.sleb128 64
 3121 0018 00000000 		.4byte	0
 3122 001c 00000000 		.4byte	0
 3123              	.LLST1:
 3124 0020 00000000 		.4byte	.LVL2
 3125 0024 02000000 		.4byte	.LVL3
 3126 0028 0100     		.2byte	0x1
 3127 002a 51       		.byte	0x51
 3128 002b 02000000 		.4byte	.LVL3
 3129 002f 12000000 		.4byte	.LVL5
 3130 0033 0300     		.2byte	0x3
 3131 0035 71       		.byte	0x71
 3132 0036 24       		.sleb128 36
 3133 0037 9F       		.byte	0x9f
 3134 0038 12000000 		.4byte	.LVL5
 3135 003c 58000000 		.4byte	.LFE8
ARM GAS  /var/folders/6q/x_mk5n_j3p7_c40r_2k_78980000gn/T//ccBEVPuW.s 			page 56


 3136 0040 0400     		.2byte	0x4
 3137 0042 F3       		.byte	0xf3
 3138 0043 01       		.uleb128 0x1
 3139 0044 51       		.byte	0x51
 3140 0045 9F       		.byte	0x9f
 3141 0046 00000000 		.4byte	0
 3142 004a 00000000 		.4byte	0
 3143              	.LLST2:
 3144 004e 00000000 		.4byte	.LVL2
 3145 0052 26000000 		.4byte	.LVL8
 3146 0056 0100     		.2byte	0x1
 3147 0058 52       		.byte	0x52
 3148 0059 26000000 		.4byte	.LVL8
 3149 005d 58000000 		.4byte	.LFE8
 3150 0061 0200     		.2byte	0x2
 3151 0063 70       		.byte	0x70
 3152 0064 08       		.sleb128 8
 3153 0065 00000000 		.4byte	0
 3154 0069 00000000 		.4byte	0
 3155              	.LLST3:
 3156 006d 00000000 		.4byte	.LVL2
 3157 0071 0E000000 		.4byte	.LVL4
 3158 0075 0100     		.2byte	0x1
 3159 0077 53       		.byte	0x53
 3160 0078 0E000000 		.4byte	.LVL4
 3161 007c 22000000 		.4byte	.LVL7
 3162 0080 0200     		.2byte	0x2
 3163 0082 76       		.byte	0x76
 3164 0083 00       		.sleb128 0
 3165 0084 22000000 		.4byte	.LVL7
 3166 0088 58000000 		.4byte	.LFE8
 3167 008c 0400     		.2byte	0x4
 3168 008e F3       		.byte	0xf3
 3169 008f 01       		.uleb128 0x1
 3170 0090 53       		.byte	0x53
 3171 0091 9F       		.byte	0x9f
 3172 0092 00000000 		.4byte	0
 3173 0096 00000000 		.4byte	0
 3174              	.LLST4:
 3175 009a 00000000 		.4byte	.LVL2
 3176 009e 4E000000 		.4byte	.LVL10
 3177 00a2 0200     		.2byte	0x2
 3178 00a4 91       		.byte	0x91
 3179 00a5 00       		.sleb128 0
 3180 00a6 4E000000 		.4byte	.LVL10
 3181 00aa 58000000 		.4byte	.LFE8
 3182 00ae 0200     		.2byte	0x2
 3183 00b0 7D       		.byte	0x7d
 3184 00b1 00       		.sleb128 0
 3185 00b2 00000000 		.4byte	0
 3186 00b6 00000000 		.4byte	0
 3187              	.LLST5:
 3188 00ba 18000000 		.4byte	.LVL6
 3189 00be 26000000 		.4byte	.LVL8
 3190 00c2 0100     		.2byte	0x1
 3191 00c4 52       		.byte	0x52
 3192 00c5 26000000 		.4byte	.LVL8
ARM GAS  /var/folders/6q/x_mk5n_j3p7_c40r_2k_78980000gn/T//ccBEVPuW.s 			page 57


 3193 00c9 4C000000 		.4byte	.LVL9
 3194 00cd 0200     		.2byte	0x2
 3195 00cf 70       		.byte	0x70
 3196 00d0 08       		.sleb128 8
 3197 00d1 00000000 		.4byte	0
 3198 00d5 00000000 		.4byte	0
 3199              	.LLST6:
 3200 00d9 18000000 		.4byte	.LVL6
 3201 00dd 4C000000 		.4byte	.LVL9
 3202 00e1 0100     		.2byte	0x1
 3203 00e3 50       		.byte	0x50
 3204 00e4 00000000 		.4byte	0
 3205 00e8 00000000 		.4byte	0
 3206              	.LLST7:
 3207 00ec 00000000 		.4byte	.LVL11
 3208 00f0 5F000000 		.4byte	.LVL22-1
 3209 00f4 0100     		.2byte	0x1
 3210 00f6 50       		.byte	0x50
 3211 00f7 5F000000 		.4byte	.LVL22-1
 3212 00fb 6A000000 		.4byte	.LVL23
 3213 00ff 0100     		.2byte	0x1
 3214 0101 54       		.byte	0x54
 3215 0102 6A000000 		.4byte	.LVL23
 3216 0106 74000000 		.4byte	.LFE9
 3217 010a 0100     		.2byte	0x1
 3218 010c 50       		.byte	0x50
 3219 010d 00000000 		.4byte	0
 3220 0111 00000000 		.4byte	0
 3221              	.LLST8:
 3222 0115 00000000 		.4byte	.LVL11
 3223 0119 0E000000 		.4byte	.LVL14
 3224 011d 0100     		.2byte	0x1
 3225 011f 51       		.byte	0x51
 3226 0120 0E000000 		.4byte	.LVL14
 3227 0124 1A000000 		.4byte	.LVL15
 3228 0128 0300     		.2byte	0x3
 3229 012a 71       		.byte	0x71
 3230 012b 24       		.sleb128 36
 3231 012c 9F       		.byte	0x9f
 3232 012d 1A000000 		.4byte	.LVL15
 3233 0131 74000000 		.4byte	.LFE9
 3234 0135 0400     		.2byte	0x4
 3235 0137 F3       		.byte	0xf3
 3236 0138 01       		.uleb128 0x1
 3237 0139 51       		.byte	0x51
 3238 013a 9F       		.byte	0x9f
 3239 013b 00000000 		.4byte	0
 3240 013f 00000000 		.4byte	0
 3241              	.LLST9:
 3242 0143 00000000 		.4byte	.LVL11
 3243 0147 32000000 		.4byte	.LVL19
 3244 014b 0100     		.2byte	0x1
 3245 014d 52       		.byte	0x52
 3246 014e 32000000 		.4byte	.LVL19
 3247 0152 5F000000 		.4byte	.LVL22-1
 3248 0156 0200     		.2byte	0x2
 3249 0158 70       		.byte	0x70
ARM GAS  /var/folders/6q/x_mk5n_j3p7_c40r_2k_78980000gn/T//ccBEVPuW.s 			page 58


 3250 0159 08       		.sleb128 8
 3251 015a 5F000000 		.4byte	.LVL22-1
 3252 015e 74000000 		.4byte	.LFE9
 3253 0162 0400     		.2byte	0x4
 3254 0164 F3       		.byte	0xf3
 3255 0165 01       		.uleb128 0x1
 3256 0166 52       		.byte	0x52
 3257 0167 9F       		.byte	0x9f
 3258 0168 00000000 		.4byte	0
 3259 016c 00000000 		.4byte	0
 3260              	.LLST10:
 3261 0170 00000000 		.4byte	.LVL11
 3262 0174 08000000 		.4byte	.LVL12
 3263 0178 0100     		.2byte	0x1
 3264 017a 53       		.byte	0x53
 3265 017b 08000000 		.4byte	.LVL12
 3266 017f 1C000000 		.4byte	.LVL16
 3267 0183 0100     		.2byte	0x1
 3268 0185 57       		.byte	0x57
 3269 0186 1C000000 		.4byte	.LVL16
 3270 018a 26000000 		.4byte	.LVL18
 3271 018e 0200     		.2byte	0x2
 3272 0190 75       		.byte	0x75
 3273 0191 00       		.sleb128 0
 3274 0192 26000000 		.4byte	.LVL18
 3275 0196 3C000000 		.4byte	.LVL20
 3276 019a 0300     		.2byte	0x3
 3277 019c 70       		.byte	0x70
 3278 019d 0C       		.sleb128 12
 3279 019e 06       		.byte	0x6
 3280 019f 3C000000 		.4byte	.LVL20
 3281 01a3 74000000 		.4byte	.LFE9
 3282 01a7 0400     		.2byte	0x4
 3283 01a9 F3       		.byte	0xf3
 3284 01aa 01       		.uleb128 0x1
 3285 01ab 53       		.byte	0x53
 3286 01ac 9F       		.byte	0x9f
 3287 01ad 00000000 		.4byte	0
 3288 01b1 00000000 		.4byte	0
 3289              	.LLST11:
 3290 01b5 00000000 		.4byte	.LVL11
 3291 01b9 6A000000 		.4byte	.LVL23
 3292 01bd 0200     		.2byte	0x2
 3293 01bf 91       		.byte	0x91
 3294 01c0 00       		.sleb128 0
 3295 01c1 6A000000 		.4byte	.LVL23
 3296 01c5 74000000 		.4byte	.LFE9
 3297 01c9 0200     		.2byte	0x2
 3298 01cb 7D       		.byte	0x7d
 3299 01cc 00       		.sleb128 0
 3300 01cd 00000000 		.4byte	0
 3301 01d1 00000000 		.4byte	0
 3302              	.LLST12:
 3303 01d5 0C000000 		.4byte	.LVL13
 3304 01d9 5C000000 		.4byte	.LVL21
 3305 01dd 0200     		.2byte	0x2
 3306 01df 91       		.byte	0x91
ARM GAS  /var/folders/6q/x_mk5n_j3p7_c40r_2k_78980000gn/T//ccBEVPuW.s 			page 59


 3307 01e0 00       		.sleb128 0
 3308 01e1 00000000 		.4byte	0
 3309 01e5 00000000 		.4byte	0
 3310              	.LLST13:
 3311 01e9 0C000000 		.4byte	.LVL13
 3312 01ed 1C000000 		.4byte	.LVL16
 3313 01f1 0100     		.2byte	0x1
 3314 01f3 57       		.byte	0x57
 3315 01f4 1C000000 		.4byte	.LVL16
 3316 01f8 26000000 		.4byte	.LVL18
 3317 01fc 0200     		.2byte	0x2
 3318 01fe 75       		.byte	0x75
 3319 01ff 00       		.sleb128 0
 3320 0200 26000000 		.4byte	.LVL18
 3321 0204 3C000000 		.4byte	.LVL20
 3322 0208 0300     		.2byte	0x3
 3323 020a 70       		.byte	0x70
 3324 020b 0C       		.sleb128 12
 3325 020c 06       		.byte	0x6
 3326 020d 3C000000 		.4byte	.LVL20
 3327 0211 5C000000 		.4byte	.LVL21
 3328 0215 0400     		.2byte	0x4
 3329 0217 F3       		.byte	0xf3
 3330 0218 01       		.uleb128 0x1
 3331 0219 53       		.byte	0x53
 3332 021a 9F       		.byte	0x9f
 3333 021b 00000000 		.4byte	0
 3334 021f 00000000 		.4byte	0
 3335              	.LLST14:
 3336 0223 0C000000 		.4byte	.LVL13
 3337 0227 32000000 		.4byte	.LVL19
 3338 022b 0100     		.2byte	0x1
 3339 022d 52       		.byte	0x52
 3340 022e 32000000 		.4byte	.LVL19
 3341 0232 5C000000 		.4byte	.LVL21
 3342 0236 0200     		.2byte	0x2
 3343 0238 70       		.byte	0x70
 3344 0239 08       		.sleb128 8
 3345 023a 00000000 		.4byte	0
 3346 023e 00000000 		.4byte	0
 3347              	.LLST15:
 3348 0242 0C000000 		.4byte	.LVL13
 3349 0246 0E000000 		.4byte	.LVL14
 3350 024a 0100     		.2byte	0x1
 3351 024c 51       		.byte	0x51
 3352 024d 0E000000 		.4byte	.LVL14
 3353 0251 1A000000 		.4byte	.LVL15
 3354 0255 0300     		.2byte	0x3
 3355 0257 71       		.byte	0x71
 3356 0258 24       		.sleb128 36
 3357 0259 9F       		.byte	0x9f
 3358 025a 1A000000 		.4byte	.LVL15
 3359 025e 5C000000 		.4byte	.LVL21
 3360 0262 0400     		.2byte	0x4
 3361 0264 F3       		.byte	0xf3
 3362 0265 01       		.uleb128 0x1
 3363 0266 51       		.byte	0x51
ARM GAS  /var/folders/6q/x_mk5n_j3p7_c40r_2k_78980000gn/T//ccBEVPuW.s 			page 60


 3364 0267 9F       		.byte	0x9f
 3365 0268 00000000 		.4byte	0
 3366 026c 00000000 		.4byte	0
 3367              	.LLST16:
 3368 0270 0C000000 		.4byte	.LVL13
 3369 0274 5C000000 		.4byte	.LVL21
 3370 0278 0100     		.2byte	0x1
 3371 027a 50       		.byte	0x50
 3372 027b 00000000 		.4byte	0
 3373 027f 00000000 		.4byte	0
 3374              	.LLST17:
 3375 0283 0C000000 		.4byte	.LVL13
 3376 0287 5F000000 		.4byte	.LVL22-1
 3377 028b 0100     		.2byte	0x1
 3378 028d 50       		.byte	0x50
 3379 028e 5F000000 		.4byte	.LVL22-1
 3380 0292 6A000000 		.4byte	.LVL23
 3381 0296 0100     		.2byte	0x1
 3382 0298 54       		.byte	0x54
 3383 0299 6A000000 		.4byte	.LVL23
 3384 029d 74000000 		.4byte	.LFE9
 3385 02a1 0100     		.2byte	0x1
 3386 02a3 50       		.byte	0x50
 3387 02a4 00000000 		.4byte	0
 3388 02a8 00000000 		.4byte	0
 3389              	.LLST18:
 3390 02ac 1E000000 		.4byte	.LVL17
 3391 02b0 32000000 		.4byte	.LVL19
 3392 02b4 0100     		.2byte	0x1
 3393 02b6 52       		.byte	0x52
 3394 02b7 32000000 		.4byte	.LVL19
 3395 02bb 5C000000 		.4byte	.LVL21
 3396 02bf 0200     		.2byte	0x2
 3397 02c1 70       		.byte	0x70
 3398 02c2 08       		.sleb128 8
 3399 02c3 00000000 		.4byte	0
 3400 02c7 00000000 		.4byte	0
 3401              	.LLST19:
 3402 02cb 1E000000 		.4byte	.LVL17
 3403 02cf 5C000000 		.4byte	.LVL21
 3404 02d3 0100     		.2byte	0x1
 3405 02d5 50       		.byte	0x50
 3406 02d6 00000000 		.4byte	0
 3407 02da 00000000 		.4byte	0
 3408              	.LLST20:
 3409 02de 00000000 		.4byte	.LVL24
 3410 02e2 1F000000 		.4byte	.LVL26-1
 3411 02e6 0100     		.2byte	0x1
 3412 02e8 50       		.byte	0x50
 3413 02e9 1F000000 		.4byte	.LVL26-1
 3414 02ed 30000000 		.4byte	.LFE10
 3415 02f1 0400     		.2byte	0x4
 3416 02f3 F3       		.byte	0xf3
 3417 02f4 01       		.uleb128 0x1
 3418 02f5 50       		.byte	0x50
 3419 02f6 9F       		.byte	0x9f
 3420 02f7 00000000 		.4byte	0
ARM GAS  /var/folders/6q/x_mk5n_j3p7_c40r_2k_78980000gn/T//ccBEVPuW.s 			page 61


 3421 02fb 00000000 		.4byte	0
 3422              	.LLST21:
 3423 02ff 0E000000 		.4byte	.LVL25
 3424 0303 2A000000 		.4byte	.LVL27
 3425 0307 0100     		.2byte	0x1
 3426 0309 54       		.byte	0x54
 3427 030a 2A000000 		.4byte	.LVL27
 3428 030e 30000000 		.4byte	.LFE10
 3429 0312 0100     		.2byte	0x1
 3430 0314 50       		.byte	0x50
 3431 0315 00000000 		.4byte	0
 3432 0319 00000000 		.4byte	0
 3433              	.LLST22:
 3434 031d 00000000 		.4byte	.LVL28
 3435 0321 0F000000 		.4byte	.LVL29-1
 3436 0325 0100     		.2byte	0x1
 3437 0327 50       		.byte	0x50
 3438 0328 0F000000 		.4byte	.LVL29-1
 3439 032c 1A000000 		.4byte	.LFE11
 3440 0330 0100     		.2byte	0x1
 3441 0332 54       		.byte	0x54
 3442 0333 00000000 		.4byte	0
 3443 0337 00000000 		.4byte	0
 3444              	.LLST23:
 3445 033b 00000000 		.4byte	.LVL31
 3446 033f 0C000000 		.4byte	.LVL32
 3447 0343 0100     		.2byte	0x1
 3448 0345 50       		.byte	0x50
 3449 0346 0C000000 		.4byte	.LVL32
 3450 034a 0F000000 		.4byte	.LVL33-1
 3451 034e 0100     		.2byte	0x1
 3452 0350 51       		.byte	0x51
 3453 0351 0F000000 		.4byte	.LVL33-1
 3454 0355 18000000 		.4byte	.LFE13
 3455 0359 0400     		.2byte	0x4
 3456 035b F3       		.byte	0xf3
 3457 035c 01       		.uleb128 0x1
 3458 035d 50       		.byte	0x50
 3459 035e 9F       		.byte	0x9f
 3460 035f 00000000 		.4byte	0
 3461 0363 00000000 		.4byte	0
 3462              	.LLST24:
 3463 0367 00000000 		.4byte	.LVL34
 3464 036b 0C000000 		.4byte	.LVL35
 3465 036f 0100     		.2byte	0x1
 3466 0371 50       		.byte	0x50
 3467 0372 0C000000 		.4byte	.LVL35
 3468 0376 0E000000 		.4byte	.LVL36
 3469 037a 0600     		.2byte	0x6
 3470 037c 70       		.byte	0x70
 3471 037d 00       		.sleb128 0
 3472 037e 71       		.byte	0x71
 3473 037f 00       		.sleb128 0
 3474 0380 1C       		.byte	0x1c
 3475 0381 9F       		.byte	0x9f
 3476 0382 0E000000 		.4byte	.LVL36
 3477 0386 15000000 		.4byte	.LVL37-1
ARM GAS  /var/folders/6q/x_mk5n_j3p7_c40r_2k_78980000gn/T//ccBEVPuW.s 			page 62


 3478 038a 0100     		.2byte	0x1
 3479 038c 51       		.byte	0x51
 3480 038d 00000000 		.4byte	0
 3481 0391 00000000 		.4byte	0
 3482              	.LLST25:
 3483 0395 00000000 		.4byte	.LVL39
 3484 0399 0E000000 		.4byte	.LVL41
 3485 039d 0100     		.2byte	0x1
 3486 039f 50       		.byte	0x50
 3487 03a0 0E000000 		.4byte	.LVL41
 3488 03a4 12000000 		.4byte	.LVL42
 3489 03a8 0200     		.2byte	0x2
 3490 03aa 74       		.byte	0x74
 3491 03ab 24       		.sleb128 36
 3492 03ac 12000000 		.4byte	.LVL42
 3493 03b0 40000000 		.4byte	.LFE17
 3494 03b4 0400     		.2byte	0x4
 3495 03b6 F3       		.byte	0xf3
 3496 03b7 01       		.uleb128 0x1
 3497 03b8 50       		.byte	0x50
 3498 03b9 9F       		.byte	0x9f
 3499 03ba 00000000 		.4byte	0
 3500 03be 00000000 		.4byte	0
 3501              	.LLST26:
 3502 03c2 06000000 		.4byte	.LVL40
 3503 03c6 36000000 		.4byte	.LVL45
 3504 03ca 0100     		.2byte	0x1
 3505 03cc 54       		.byte	0x54
 3506 03cd 00000000 		.4byte	0
 3507 03d1 00000000 		.4byte	0
 3508              	.LLST27:
 3509 03d5 12000000 		.4byte	.LVL42
 3510 03d9 16000000 		.4byte	.LVL43
 3511 03dd 0300     		.2byte	0x3
 3512 03df 74       		.byte	0x74
 3513 03e0 28       		.sleb128 40
 3514 03e1 9F       		.byte	0x9f
 3515 03e2 00000000 		.4byte	0
 3516 03e6 00000000 		.4byte	0
 3517              	.LLST28:
 3518 03ea 12000000 		.4byte	.LVL42
 3519 03ee 16000000 		.4byte	.LVL43
 3520 03f2 0100     		.2byte	0x1
 3521 03f4 50       		.byte	0x50
 3522 03f5 00000000 		.4byte	0
 3523 03f9 00000000 		.4byte	0
 3524              	.LLST29:
 3525 03fd 00000000 		.4byte	.LVL47
 3526 0401 09000000 		.4byte	.LVL48-1
 3527 0405 0100     		.2byte	0x1
 3528 0407 50       		.byte	0x50
 3529 0408 09000000 		.4byte	.LVL48-1
 3530 040c 0A000000 		.4byte	.LFE16
 3531 0410 0400     		.2byte	0x4
 3532 0412 F3       		.byte	0xf3
 3533 0413 01       		.uleb128 0x1
 3534 0414 50       		.byte	0x50
ARM GAS  /var/folders/6q/x_mk5n_j3p7_c40r_2k_78980000gn/T//ccBEVPuW.s 			page 63


 3535 0415 9F       		.byte	0x9f
 3536 0416 00000000 		.4byte	0
 3537 041a 00000000 		.4byte	0
 3538              	.LLST30:
 3539 041e 00000000 		.4byte	.LVL49
 3540 0422 18000000 		.4byte	.LVL51
 3541 0426 0100     		.2byte	0x1
 3542 0428 50       		.byte	0x50
 3543 0429 18000000 		.4byte	.LVL51
 3544 042d 32000000 		.4byte	.LVL56
 3545 0431 0100     		.2byte	0x1
 3546 0433 54       		.byte	0x54
 3547 0434 32000000 		.4byte	.LVL56
 3548 0438 38000000 		.4byte	.LFE18
 3549 043c 0400     		.2byte	0x4
 3550 043e F3       		.byte	0xf3
 3551 043f 01       		.uleb128 0x1
 3552 0440 50       		.byte	0x50
 3553 0441 9F       		.byte	0x9f
 3554 0442 00000000 		.4byte	0
 3555 0446 00000000 		.4byte	0
 3556              	.LLST31:
 3557 044a 22000000 		.4byte	.LVL54
 3558 044e 32000000 		.4byte	.LVL56
 3559 0452 0100     		.2byte	0x1
 3560 0454 55       		.byte	0x55
 3561 0455 32000000 		.4byte	.LVL56
 3562 0459 38000000 		.4byte	.LFE18
 3563 045d 0100     		.2byte	0x1
 3564 045f 50       		.byte	0x50
 3565 0460 00000000 		.4byte	0
 3566 0464 00000000 		.4byte	0
 3567              	.LLST32:
 3568 0468 16000000 		.4byte	.LVL50
 3569 046c 18000000 		.4byte	.LVL51
 3570 0470 0300     		.2byte	0x3
 3571 0472 70       		.byte	0x70
 3572 0473 28       		.sleb128 40
 3573 0474 9F       		.byte	0x9f
 3574 0475 18000000 		.4byte	.LVL51
 3575 0479 1C000000 		.4byte	.LVL52
 3576 047d 0300     		.2byte	0x3
 3577 047f 74       		.byte	0x74
 3578 0480 28       		.sleb128 40
 3579 0481 9F       		.byte	0x9f
 3580 0482 00000000 		.4byte	0
 3581 0486 00000000 		.4byte	0
 3582              	.LLST33:
 3583 048a 16000000 		.4byte	.LVL50
 3584 048e 1C000000 		.4byte	.LVL52
 3585 0492 0100     		.2byte	0x1
 3586 0494 53       		.byte	0x53
 3587 0495 00000000 		.4byte	0
 3588 0499 00000000 		.4byte	0
 3589              		.section	.debug_aranges,"",%progbits
 3590 0000 74000000 		.4byte	0x74
 3591 0004 0200     		.2byte	0x2
ARM GAS  /var/folders/6q/x_mk5n_j3p7_c40r_2k_78980000gn/T//ccBEVPuW.s 			page 64


 3592 0006 00000000 		.4byte	.Ldebug_info0
 3593 000a 04       		.byte	0x4
 3594 000b 00       		.byte	0
 3595 000c 0000     		.2byte	0
 3596 000e 0000     		.2byte	0
 3597 0010 00000000 		.4byte	.LFB7
 3598 0014 44000000 		.4byte	.LFE7-.LFB7
 3599 0018 00000000 		.4byte	.LFB8
 3600 001c 58000000 		.4byte	.LFE8-.LFB8
 3601 0020 00000000 		.4byte	.LFB9
 3602 0024 74000000 		.4byte	.LFE9-.LFB9
 3603 0028 00000000 		.4byte	.LFB10
 3604 002c 30000000 		.4byte	.LFE10-.LFB10
 3605 0030 00000000 		.4byte	.LFB11
 3606 0034 1A000000 		.4byte	.LFE11-.LFB11
 3607 0038 00000000 		.4byte	.LFB12
 3608 003c 16000000 		.4byte	.LFE12-.LFB12
 3609 0040 00000000 		.4byte	.LFB13
 3610 0044 18000000 		.4byte	.LFE13-.LFB13
 3611 0048 00000000 		.4byte	.LFB14
 3612 004c 24000000 		.4byte	.LFE14-.LFB14
 3613 0050 00000000 		.4byte	.LFB15
 3614 0054 28000000 		.4byte	.LFE15-.LFB15
 3615 0058 00000000 		.4byte	.LFB17
 3616 005c 40000000 		.4byte	.LFE17-.LFB17
 3617 0060 00000000 		.4byte	.LFB16
 3618 0064 0A000000 		.4byte	.LFE16-.LFB16
 3619 0068 00000000 		.4byte	.LFB18
 3620 006c 38000000 		.4byte	.LFE18-.LFB18
 3621 0070 00000000 		.4byte	0
 3622 0074 00000000 		.4byte	0
 3623              		.section	.debug_ranges,"",%progbits
 3624              	.Ldebug_ranges0:
 3625 0000 08000000 		.4byte	.LBB16
 3626 0004 0A000000 		.4byte	.LBE16
 3627 0008 10000000 		.4byte	.LBB21
 3628 000c 12000000 		.4byte	.LBE21
 3629 0010 14000000 		.4byte	.LBB22
 3630 0014 16000000 		.4byte	.LBE22
 3631 0018 18000000 		.4byte	.LBB23
 3632 001c 4C000000 		.4byte	.LBE23
 3633 0020 00000000 		.4byte	0
 3634 0024 00000000 		.4byte	0
 3635 0028 0C000000 		.4byte	.LBB25
 3636 002c 52000000 		.4byte	.LBE25
 3637 0030 54000000 		.4byte	.LBB36
 3638 0034 5C000000 		.4byte	.LBE36
 3639 0038 00000000 		.4byte	0
 3640 003c 00000000 		.4byte	0
 3641 0040 10000000 		.4byte	.LBB27
 3642 0044 12000000 		.4byte	.LBE27
 3643 0048 1A000000 		.4byte	.LBB32
 3644 004c 1C000000 		.4byte	.LBE32
 3645 0050 20000000 		.4byte	.LBB33
 3646 0054 52000000 		.4byte	.LBE33
 3647 0058 54000000 		.4byte	.LBB34
 3648 005c 5C000000 		.4byte	.LBE34
ARM GAS  /var/folders/6q/x_mk5n_j3p7_c40r_2k_78980000gn/T//ccBEVPuW.s 			page 65


 3649 0060 00000000 		.4byte	0
 3650 0064 00000000 		.4byte	0
 3651 0068 02000000 		.4byte	.LBB40
 3652 006c 04000000 		.4byte	.LBE40
 3653 0070 06000000 		.4byte	.LBB41
 3654 0074 0A000000 		.4byte	.LBE41
 3655 0078 00000000 		.4byte	0
 3656 007c 00000000 		.4byte	0
 3657 0080 08000000 		.4byte	.LBB44
 3658 0084 0A000000 		.4byte	.LBE44
 3659 0088 10000000 		.4byte	.LBB45
 3660 008c 16000000 		.4byte	.LBE45
 3661 0090 00000000 		.4byte	0
 3662 0094 00000000 		.4byte	0
 3663 0098 12000000 		.4byte	.LBB56
 3664 009c 14000000 		.4byte	.LBE56
 3665 00a0 18000000 		.4byte	.LBB59
 3666 00a4 1C000000 		.4byte	.LBE59
 3667 00a8 00000000 		.4byte	0
 3668 00ac 00000000 		.4byte	0
 3669 00b0 00000000 		.4byte	.LFB7
 3670 00b4 44000000 		.4byte	.LFE7
 3671 00b8 00000000 		.4byte	.LFB8
 3672 00bc 58000000 		.4byte	.LFE8
 3673 00c0 00000000 		.4byte	.LFB9
 3674 00c4 74000000 		.4byte	.LFE9
 3675 00c8 00000000 		.4byte	.LFB10
 3676 00cc 30000000 		.4byte	.LFE10
 3677 00d0 00000000 		.4byte	.LFB11
 3678 00d4 1A000000 		.4byte	.LFE11
 3679 00d8 00000000 		.4byte	.LFB12
 3680 00dc 16000000 		.4byte	.LFE12
 3681 00e0 00000000 		.4byte	.LFB13
 3682 00e4 18000000 		.4byte	.LFE13
 3683 00e8 00000000 		.4byte	.LFB14
 3684 00ec 24000000 		.4byte	.LFE14
 3685 00f0 00000000 		.4byte	.LFB15
 3686 00f4 28000000 		.4byte	.LFE15
 3687 00f8 00000000 		.4byte	.LFB17
 3688 00fc 40000000 		.4byte	.LFE17
 3689 0100 00000000 		.4byte	.LFB16
 3690 0104 0A000000 		.4byte	.LFE16
 3691 0108 00000000 		.4byte	.LFB18
 3692 010c 38000000 		.4byte	.LFE18
 3693 0110 00000000 		.4byte	0
 3694 0114 00000000 		.4byte	0
 3695              		.section	.debug_line,"",%progbits
 3696              	.Ldebug_line0:
 3697 0000 15040000 		.section	.debug_str,"MS",%progbits,1
 3697      02002202 
 3697      00000201 
 3697      FB0E0D00 
 3697      01010101 
 3698              	.LASF77:
 3699 0000 7466756E 		.ascii	"tfunc_t\000"
 3699      635F7400 
 3700              	.LASF41:
ARM GAS  /var/folders/6q/x_mk5n_j3p7_c40r_2k_78980000gn/T//ccBEVPuW.s 			page 66


 3701 0008 705F6D73 		.ascii	"p_msg\000"
 3701      6700
 3702              	.LASF4:
 3703 000e 73697A65 		.ascii	"size_t\000"
 3703      5F7400
 3704              	.LASF78:
 3705 0015 7072696F 		.ascii	"prio\000"
 3705      00
 3706              	.LASF57:
 3707 001a 76745F66 		.ascii	"vt_func\000"
 3707      756E6300 
 3708              	.LASF5:
 3709 0022 5F5F7569 		.ascii	"__uint8_t\000"
 3709      6E74385F 
 3709      7400
 3710              	.LASF95:
 3711 002c 76746C69 		.ascii	"vtlist\000"
 3711      737400
 3712              	.LASF92:
 3713 0033 63685468 		.ascii	"chThdExitS\000"
 3713      64457869 
 3713      745300
 3714              	.LASF13:
 3715 003e 6C6F6E67 		.ascii	"long long unsigned int\000"
 3715      206C6F6E 
 3715      6720756E 
 3715      7369676E 
 3715      65642069 
 3716              	.LASF73:
 3717 0055 65786974 		.ascii	"exitcode\000"
 3717      636F6465 
 3717      00
 3718              	.LASF29:
 3719 005e 705F7072 		.ascii	"p_prio\000"
 3719      696F00
 3720              	.LASF1:
 3721 0065 6C6F6E67 		.ascii	"long long int\000"
 3721      206C6F6E 
 3721      6720696E 
 3721      7400
 3722              	.LASF3:
 3723 0073 7369676E 		.ascii	"signed char\000"
 3723      65642063 
 3723      68617200 
 3724              	.LASF93:
 3725 007f 63685468 		.ascii	"chThdExit\000"
 3725      64457869 
 3725      7400
 3726              	.LASF45:
 3727 0089 705F6D70 		.ascii	"p_mpool\000"
 3727      6F6F6C00 
 3728              	.LASF69:
 3729 0091 6D5F7175 		.ascii	"m_queue\000"
 3729      65756500 
 3730              	.LASF21:
 3731 0099 74736C69 		.ascii	"tslices_t\000"
 3731      6365735F 
ARM GAS  /var/folders/6q/x_mk5n_j3p7_c40r_2k_78980000gn/T//ccBEVPuW.s 			page 67


 3731      7400
 3732              	.LASF80:
 3733 00a3 63685468 		.ascii	"chThdCreateI\000"
 3733      64437265 
 3733      61746549 
 3733      00
 3734              	.LASF10:
 3735 00b0 6C6F6E67 		.ascii	"long int\000"
 3735      20696E74 
 3735      00
 3736              	.LASF19:
 3737 00b9 74737461 		.ascii	"tstate_t\000"
 3737      74655F74 
 3737      00
 3738              	.LASF31:
 3739 00c2 705F6E65 		.ascii	"p_newer\000"
 3739      77657200 
 3740              	.LASF107:
 3741 00ca 6C697374 		.ascii	"list_remove\000"
 3741      5F72656D 
 3741      6F766500 
 3742              	.LASF98:
 3743 00d6 63685363 		.ascii	"chSchRescheduleS\000"
 3743      68526573 
 3743      63686564 
 3743      756C6553 
 3743      00
 3744              	.LASF11:
 3745 00e7 5F5F7569 		.ascii	"__uint32_t\000"
 3745      6E743332 
 3745      5F7400
 3746              	.LASF48:
 3747 00f2 72656761 		.ascii	"regarm_t\000"
 3747      726D5F74 
 3747      00
 3748              	.LASF55:
 3749 00fb 76745F70 		.ascii	"vt_prev\000"
 3749      72657600 
 3750              	.LASF83:
 3751 0103 63685468 		.ascii	"chThdSetPriority\000"
 3751      64536574 
 3751      5072696F 
 3751      72697479 
 3751      00
 3752              	.LASF0:
 3753 0114 756E7369 		.ascii	"unsigned int\000"
 3753      676E6564 
 3753      20696E74 
 3753      00
 3754              	.LASF54:
 3755 0121 76745F6E 		.ascii	"vt_next\000"
 3755      65787400 
 3756              	.LASF12:
 3757 0129 6C6F6E67 		.ascii	"long unsigned int\000"
 3757      20756E73 
 3757      69676E65 
 3757      6420696E 
ARM GAS  /var/folders/6q/x_mk5n_j3p7_c40r_2k_78980000gn/T//ccBEVPuW.s 			page 68


 3757      7400
 3758              	.LASF52:
 3759 013b 76746675 		.ascii	"vtfunc_t\000"
 3759      6E635F74 
 3759      00
 3760              	.LASF104:
 3761 0144 474E5520 		.ascii	"GNU C11 5.4.1 20160919 (release) [ARM/embedded-5-br"
 3761      43313120 
 3761      352E342E 
 3761      31203230 
 3761      31363039 
 3762 0177 616E6368 		.ascii	"anch revision 240496] -mcpu=cortex-m3 -mno-thumb-in"
 3762      20726576 
 3762      6973696F 
 3762      6E203234 
 3762      30343936 
 3763 01aa 74657277 		.ascii	"terwork -mthumb -ggdb -O2 -fomit-frame-pointer -fal"
 3763      6F726B20 
 3763      2D6D7468 
 3763      756D6220 
 3763      2D676764 
 3764 01dd 69676E2D 		.ascii	"ign-functions=16 -ffunction-sections -fdata-section"
 3764      66756E63 
 3764      74696F6E 
 3764      733D3136 
 3764      202D6666 
 3765 0210 73202D66 		.ascii	"s -fno-common\000"
 3765      6E6F2D63 
 3765      6F6D6D6F 
 3765      6E00
 3766              	.LASF50:
 3767 021e 636F6E74 		.ascii	"context\000"
 3767      65787400 
 3768              	.LASF81:
 3769 0226 73697A65 		.ascii	"size\000"
 3769      00
 3770              	.LASF8:
 3771 022b 73686F72 		.ascii	"short unsigned int\000"
 3771      7420756E 
 3771      7369676E 
 3771      65642069 
 3771      6E7400
 3772              	.LASF97:
 3773 023e 63685363 		.ascii	"chSchWakeupS\000"
 3773      6857616B 
 3773      65757053 
 3773      00
 3774              	.LASF23:
 3775 024b 6D73675F 		.ascii	"msg_t\000"
 3775      7400
 3776              	.LASF64:
 3777 0251 725F6E65 		.ascii	"r_newer\000"
 3777      77657200 
 3778              	.LASF84:
 3779 0259 6E657770 		.ascii	"newprio\000"
 3779      72696F00 
 3780              	.LASF18:
ARM GAS  /var/folders/6q/x_mk5n_j3p7_c40r_2k_78980000gn/T//ccBEVPuW.s 			page 69


 3781 0261 746D6F64 		.ascii	"tmode_t\000"
 3781      655F7400 
 3782              	.LASF87:
 3783 0269 63685468 		.ascii	"chThdTerminate\000"
 3783      64546572 
 3783      6D696E61 
 3783      746500
 3784              	.LASF47:
 3785 0278 54687265 		.ascii	"ThreadsList\000"
 3785      6164734C 
 3785      69737400 
 3786              	.LASF24:
 3787 0284 6576656E 		.ascii	"eventmask_t\000"
 3787      746D6173 
 3787      6B5F7400 
 3788              	.LASF68:
 3789 0290 4D757465 		.ascii	"Mutex\000"
 3789      7800
 3790              	.LASF85:
 3791 0296 6F6C6470 		.ascii	"oldprio\000"
 3791      72696F00 
 3792              	.LASF82:
 3793 029e 63685468 		.ascii	"chThdCreateStatic\000"
 3793      64437265 
 3793      61746553 
 3793      74617469 
 3793      6300
 3794              	.LASF56:
 3795 02b0 76745F74 		.ascii	"vt_time\000"
 3795      696D6500 
 3796              	.LASF51:
 3797 02b8 73697A65 		.ascii	"sizetype\000"
 3797      74797065 
 3797      00
 3798              	.LASF2:
 3799 02c1 6C6F6E67 		.ascii	"long double\000"
 3799      20646F75 
 3799      626C6500 
 3800              	.LASF86:
 3801 02cd 63685468 		.ascii	"chThdResume\000"
 3801      64526573 
 3801      756D6500 
 3802              	.LASF100:
 3803 02d9 63685363 		.ascii	"chSchDoRescheduleBehind\000"
 3803      68446F52 
 3803      65736368 
 3803      6564756C 
 3803      65426568 
 3804              	.LASF32:
 3805 02f1 705F6F6C 		.ascii	"p_older\000"
 3805      64657200 
 3806              	.LASF63:
 3807 02f9 725F6374 		.ascii	"r_ctx\000"
 3807      7800
 3808              	.LASF46:
 3809 02ff 54687265 		.ascii	"ThreadsQueue\000"
 3809      61647351 
ARM GAS  /var/folders/6q/x_mk5n_j3p7_c40r_2k_78980000gn/T//ccBEVPuW.s 			page 70


 3809      75657565 
 3809      00
 3810              	.LASF71:
 3811 030c 6D5F6E65 		.ascii	"m_next\000"
 3811      787400
 3812              	.LASF89:
 3813 0313 74696D65 		.ascii	"time\000"
 3813      00
 3814              	.LASF108:
 3815 0318 6C697374 		.ascii	"list_insert\000"
 3815      5F696E73 
 3815      65727400 
 3816              	.LASF66:
 3817 0324 725F6375 		.ascii	"r_current\000"
 3817      7272656E 
 3817      7400
 3818              	.LASF65:
 3819 032e 725F6F6C 		.ascii	"r_older\000"
 3819      64657200 
 3820              	.LASF90:
 3821 0336 63685468 		.ascii	"chThdSleepUntil\000"
 3821      64536C65 
 3821      6570556E 
 3821      74696C00 
 3822              	.LASF20:
 3823 0346 74726566 		.ascii	"trefs_t\000"
 3823      735F7400 
 3824              	.LASF28:
 3825 034e 705F7072 		.ascii	"p_prev\000"
 3825      657600
 3826              	.LASF22:
 3827 0355 74707269 		.ascii	"tprio_t\000"
 3827      6F5F7400 
 3828              	.LASF17:
 3829 035d 5F426F6F 		.ascii	"_Bool\000"
 3829      6C00
 3830              	.LASF15:
 3831 0363 696E7433 		.ascii	"int32_t\000"
 3831      325F7400 
 3832              	.LASF6:
 3833 036b 756E7369 		.ascii	"unsigned char\000"
 3833      676E6564 
 3833      20636861 
 3833      7200
 3834              	.LASF43:
 3835 0379 705F6D74 		.ascii	"p_mtxlist\000"
 3835      786C6973 
 3835      7400
 3836              	.LASF7:
 3837 0383 73686F72 		.ascii	"short int\000"
 3837      7420696E 
 3837      7400
 3838              	.LASF34:
 3839 038d 705F7374 		.ascii	"p_state\000"
 3839      61746500 
 3840              	.LASF37:
 3841 0395 705F7072 		.ascii	"p_preempt\000"
ARM GAS  /var/folders/6q/x_mk5n_j3p7_c40r_2k_78980000gn/T//ccBEVPuW.s 			page 71


 3841      65656D70 
 3841      7400
 3842              	.LASF62:
 3843 039f 725F7072 		.ascii	"r_prio\000"
 3843      696F00
 3844              	.LASF75:
 3845 03a6 65776D61 		.ascii	"ewmask\000"
 3845      736B00
 3846              	.LASF27:
 3847 03ad 705F6E65 		.ascii	"p_next\000"
 3847      787400
 3848              	.LASF35:
 3849 03b4 705F666C 		.ascii	"p_flags\000"
 3849      61677300 
 3850              	.LASF103:
 3851 03bc 63685468 		.ascii	"chThdRelease\000"
 3851      6452656C 
 3851      65617365 
 3851      00
 3852              	.LASF26:
 3853 03c9 54687265 		.ascii	"Thread\000"
 3853      616400
 3854              	.LASF102:
 3855 03d0 63685363 		.ascii	"chSchGoSleepS\000"
 3855      68476F53 
 3855      6C656570 
 3855      5300
 3856              	.LASF42:
 3857 03de 705F6570 		.ascii	"p_epending\000"
 3857      656E6469 
 3857      6E6700
 3858              	.LASF16:
 3859 03e9 75696E74 		.ascii	"uint32_t\000"
 3859      33325F74 
 3859      00
 3860              	.LASF79:
 3861 03f2 5F746872 		.ascii	"_thread_init\000"
 3861      6561645F 
 3861      696E6974 
 3861      00
 3862              	.LASF61:
 3863 03ff 725F7175 		.ascii	"r_queue\000"
 3863      65756500 
 3864              	.LASF53:
 3865 0407 56697274 		.ascii	"VirtualTimer\000"
 3865      75616C54 
 3865      696D6572 
 3865      00
 3866              	.LASF76:
 3867 0414 63686172 		.ascii	"char\000"
 3867      00
 3868              	.LASF106:
 3869 0419 2F557365 		.ascii	"/Users/Luca/src/vexilla/src/teamA\000"
 3869      72732F4C 
 3869      7563612F 
 3869      7372632F 
 3869      76657869 
ARM GAS  /var/folders/6q/x_mk5n_j3p7_c40r_2k_78980000gn/T//ccBEVPuW.s 			page 72


 3870              	.LASF101:
 3871 043b 63685363 		.ascii	"chSchReadyI\000"
 3871      68526561 
 3871      64794900 
 3872              	.LASF105:
 3873 0447 2E2E2F43 		.ascii	"../ChibiOS/os/kernel/src/chthreads.c\000"
 3873      68696269 
 3873      4F532F6F 
 3873      732F6B65 
 3873      726E656C 
 3874              	.LASF25:
 3875 046c 73797374 		.ascii	"systime_t\000"
 3875      696D655F 
 3875      7400
 3876              	.LASF44:
 3877 0476 705F7265 		.ascii	"p_realprio\000"
 3877      616C7072 
 3877      696F00
 3878              	.LASF9:
 3879 0481 5F5F696E 		.ascii	"__int32_t\000"
 3879      7433325F 
 3879      7400
 3880              	.LASF38:
 3881 048b 705F7469 		.ascii	"p_time\000"
 3881      6D6500
 3882              	.LASF49:
 3883 0492 696E7463 		.ascii	"intctx\000"
 3883      747800
 3884              	.LASF40:
 3885 0499 705F6D73 		.ascii	"p_msgqueue\000"
 3885      67717565 
 3885      756500
 3886              	.LASF94:
 3887 04a4 63685468 		.ascii	"chThdWait\000"
 3887      64576169 
 3887      7400
 3888              	.LASF58:
 3889 04ae 76745F70 		.ascii	"vt_par\000"
 3889      617200
 3890              	.LASF88:
 3891 04b5 63685468 		.ascii	"chThdSleep\000"
 3891      64536C65 
 3891      657000
 3892              	.LASF72:
 3893 04c0 7264796D 		.ascii	"rdymsg\000"
 3893      736700
 3894              	.LASF36:
 3895 04c7 705F7265 		.ascii	"p_refs\000"
 3895      667300
 3896              	.LASF67:
 3897 04ce 52656164 		.ascii	"ReadyList\000"
 3897      794C6973 
 3897      7400
 3898              	.LASF96:
 3899 04d8 726C6973 		.ascii	"rlist\000"
 3899      7400
 3900              	.LASF14:
ARM GAS  /var/folders/6q/x_mk5n_j3p7_c40r_2k_78980000gn/T//ccBEVPuW.s 			page 73


 3901 04de 75696E74 		.ascii	"uint8_t\000"
 3901      385F7400 
 3902              	.LASF91:
 3903 04e6 63685468 		.ascii	"chThdYield\000"
 3903      64596965 
 3903      6C6400
 3904              	.LASF74:
 3905 04f1 77746F62 		.ascii	"wtobjp\000"
 3905      6A7000
 3906              	.LASF33:
 3907 04f8 705F6E61 		.ascii	"p_name\000"
 3907      6D6500
 3908              	.LASF59:
 3909 04ff 76745F73 		.ascii	"vt_systime\000"
 3909      79737469 
 3909      6D6500
 3910              	.LASF99:
 3911 050a 63685363 		.ascii	"chSchGoSleepTimeoutS\000"
 3911      68476F53 
 3911      6C656570 
 3911      54696D65 
 3911      6F757453 
 3912              	.LASF60:
 3913 051f 56544C69 		.ascii	"VTList\000"
 3913      737400
 3914              	.LASF70:
 3915 0526 6D5F6F77 		.ascii	"m_owner\000"
 3915      6E657200 
 3916              	.LASF30:
 3917 052e 705F6374 		.ascii	"p_ctx\000"
 3917      7800
 3918              	.LASF39:
 3919 0534 705F7761 		.ascii	"p_waiting\000"
 3919      6974696E 
 3919      6700
 3920              		.ident	"GCC: (GNU Tools for ARM Embedded Processors) 5.4.1 20160919 (release) [ARM/embedded-5-bran
ARM GAS  /var/folders/6q/x_mk5n_j3p7_c40r_2k_78980000gn/T//ccBEVPuW.s 			page 74


DEFINED SYMBOLS
                            *ABS*:0000000000000000 chthreads.c
/var/folders/6q/x_mk5n_j3p7_c40r_2k_78980000gn/T//ccBEVPuW.s:20     .text._thread_init:0000000000000000 $t
/var/folders/6q/x_mk5n_j3p7_c40r_2k_78980000gn/T//ccBEVPuW.s:26     .text._thread_init:0000000000000000 _thread_init
/var/folders/6q/x_mk5n_j3p7_c40r_2k_78980000gn/T//ccBEVPuW.s:95     .text._thread_init:0000000000000040 $d
/var/folders/6q/x_mk5n_j3p7_c40r_2k_78980000gn/T//ccBEVPuW.s:100    .text.chThdCreateI:0000000000000000 $t
/var/folders/6q/x_mk5n_j3p7_c40r_2k_78980000gn/T//ccBEVPuW.s:106    .text.chThdCreateI:0000000000000000 chThdCreateI
/var/folders/6q/x_mk5n_j3p7_c40r_2k_78980000gn/T//ccBEVPuW.s:211    .text.chThdCreateI:0000000000000050 $d
/var/folders/6q/x_mk5n_j3p7_c40r_2k_78980000gn/T//ccBEVPuW.s:217    .text.chThdCreateStatic:0000000000000000 $t
/var/folders/6q/x_mk5n_j3p7_c40r_2k_78980000gn/T//ccBEVPuW.s:223    .text.chThdCreateStatic:0000000000000000 chThdCreateStatic
/var/folders/6q/x_mk5n_j3p7_c40r_2k_78980000gn/T//ccBEVPuW.s:367    .text.chThdCreateStatic:000000000000006c $d
/var/folders/6q/x_mk5n_j3p7_c40r_2k_78980000gn/T//ccBEVPuW.s:373    .text.chThdSetPriority:0000000000000000 $t
/var/folders/6q/x_mk5n_j3p7_c40r_2k_78980000gn/T//ccBEVPuW.s:379    .text.chThdSetPriority:0000000000000000 chThdSetPriority
/var/folders/6q/x_mk5n_j3p7_c40r_2k_78980000gn/T//ccBEVPuW.s:438    .text.chThdSetPriority:000000000000002c $d
/var/folders/6q/x_mk5n_j3p7_c40r_2k_78980000gn/T//ccBEVPuW.s:443    .text.chThdResume:0000000000000000 $t
/var/folders/6q/x_mk5n_j3p7_c40r_2k_78980000gn/T//ccBEVPuW.s:449    .text.chThdResume:0000000000000000 chThdResume
/var/folders/6q/x_mk5n_j3p7_c40r_2k_78980000gn/T//ccBEVPuW.s:496    .text.chThdTerminate:0000000000000000 $t
/var/folders/6q/x_mk5n_j3p7_c40r_2k_78980000gn/T//ccBEVPuW.s:502    .text.chThdTerminate:0000000000000000 chThdTerminate
/var/folders/6q/x_mk5n_j3p7_c40r_2k_78980000gn/T//ccBEVPuW.s:543    .text.chThdSleep:0000000000000000 $t
/var/folders/6q/x_mk5n_j3p7_c40r_2k_78980000gn/T//ccBEVPuW.s:549    .text.chThdSleep:0000000000000000 chThdSleep
/var/folders/6q/x_mk5n_j3p7_c40r_2k_78980000gn/T//ccBEVPuW.s:592    .text.chThdSleepUntil:0000000000000000 $t
/var/folders/6q/x_mk5n_j3p7_c40r_2k_78980000gn/T//ccBEVPuW.s:598    .text.chThdSleepUntil:0000000000000000 chThdSleepUntil
/var/folders/6q/x_mk5n_j3p7_c40r_2k_78980000gn/T//ccBEVPuW.s:644    .text.chThdSleepUntil:0000000000000020 $d
/var/folders/6q/x_mk5n_j3p7_c40r_2k_78980000gn/T//ccBEVPuW.s:650    .text.chThdYield:0000000000000000 $t
/var/folders/6q/x_mk5n_j3p7_c40r_2k_78980000gn/T//ccBEVPuW.s:656    .text.chThdYield:0000000000000000 chThdYield
/var/folders/6q/x_mk5n_j3p7_c40r_2k_78980000gn/T//ccBEVPuW.s:701    .text.chThdYield:0000000000000024 $d
/var/folders/6q/x_mk5n_j3p7_c40r_2k_78980000gn/T//ccBEVPuW.s:707    .text.chThdExitS:0000000000000000 $t
/var/folders/6q/x_mk5n_j3p7_c40r_2k_78980000gn/T//ccBEVPuW.s:713    .text.chThdExitS:0000000000000000 chThdExitS
/var/folders/6q/x_mk5n_j3p7_c40r_2k_78980000gn/T//ccBEVPuW.s:785    .text.chThdExitS:000000000000003c $d
/var/folders/6q/x_mk5n_j3p7_c40r_2k_78980000gn/T//ccBEVPuW.s:790    .text.chThdExit:0000000000000000 $t
/var/folders/6q/x_mk5n_j3p7_c40r_2k_78980000gn/T//ccBEVPuW.s:796    .text.chThdExit:0000000000000000 chThdExit
/var/folders/6q/x_mk5n_j3p7_c40r_2k_78980000gn/T//ccBEVPuW.s:821    .text.chThdWait:0000000000000000 $t
/var/folders/6q/x_mk5n_j3p7_c40r_2k_78980000gn/T//ccBEVPuW.s:827    .text.chThdWait:0000000000000000 chThdWait
/var/folders/6q/x_mk5n_j3p7_c40r_2k_78980000gn/T//ccBEVPuW.s:907    .text.chThdWait:0000000000000034 $d
                     .debug_frame:0000000000000010 $d

UNDEFINED SYMBOLS
rlist
_port_thread_start
chSchWakeupS
chSchRescheduleS
chSchGoSleepTimeoutS
vtlist
chSchDoRescheduleBehind
chSchReadyI
chSchGoSleepS
chThdRelease
