ARM GAS  /var/folders/6q/x_mk5n_j3p7_c40r_2k_78980000gn/T//ccZidkCg.s 			page 1


   1              		.syntax unified
   2              		.cpu cortex-m3
   3              		.fpu softvfp
   4              		.eabi_attribute 20, 1
   5              		.eabi_attribute 21, 1
   6              		.eabi_attribute 23, 3
   7              		.eabi_attribute 24, 1
   8              		.eabi_attribute 25, 1
   9              		.eabi_attribute 26, 1
  10              		.eabi_attribute 30, 2
  11              		.eabi_attribute 34, 1
  12              		.eabi_attribute 18, 4
  13              		.thumb
  14              		.syntax unified
  15              		.file	"chvt.c"
  16              		.text
  17              	.Ltext0:
  18              		.cfi_sections	.debug_frame
  19              		.section	.text._vt_init,"ax",%progbits
  20              		.align	2
  21              		.p2align 4,,15
  22              		.global	_vt_init
  23              		.thumb
  24              		.thumb_func
  25              		.type	_vt_init, %function
  26              	_vt_init:
  27              	.LFB7:
  28              		.file 1 "../ChibiOS/os/kernel/src/chvt.c"
  29              		.loc 1 50 0
  30              		.cfi_startproc
  31              		@ args = 0, pretend = 0, frame = 0
  32              		@ frame_needed = 0, uses_anonymous_args = 0
  33              		@ link register save eliminated.
  34              		.loc 1 52 0
  35 0000 044B     		ldr	r3, .L2
  36              		.loc 1 53 0
  37 0002 4FF0FF31 		mov	r1, #-1
  38              		.loc 1 54 0
  39 0006 0022     		movs	r2, #0
  40              		.loc 1 52 0
  41 0008 5B60     		str	r3, [r3, #4]
  42 000a 1B60     		str	r3, [r3]
  43              		.loc 1 53 0
  44 000c 9960     		str	r1, [r3, #8]
  45              		.loc 1 54 0
  46 000e DA60     		str	r2, [r3, #12]
  47 0010 7047     		bx	lr
  48              	.L3:
  49 0012 00BF     		.align	2
  50              	.L2:
  51 0014 00000000 		.word	.LANCHOR0
  52              		.cfi_endproc
  53              	.LFE7:
  54              		.size	_vt_init, .-_vt_init
  55              		.section	.text.chVTSetI,"ax",%progbits
  56              		.align	2
  57              		.p2align 4,,15
ARM GAS  /var/folders/6q/x_mk5n_j3p7_c40r_2k_78980000gn/T//ccZidkCg.s 			page 2


  58              		.global	chVTSetI
  59              		.thumb
  60              		.thumb_func
  61              		.type	chVTSetI, %function
  62              	chVTSetI:
  63              	.LFB8:
  64              		.loc 1 76 0
  65              		.cfi_startproc
  66              		@ args = 0, pretend = 0, frame = 0
  67              		@ frame_needed = 0, uses_anonymous_args = 0
  68              		@ link register save eliminated.
  69              	.LVL0:
  70 0000 10B4     		push	{r4}
  71              		.cfi_def_cfa_offset 4
  72              		.cfi_offset 4, -4
  73              		.loc 1 85 0
  74 0002 0C4C     		ldr	r4, .L11
  75              		.loc 1 83 0
  76 0004 0361     		str	r3, [r0, #16]
  77              		.loc 1 85 0
  78 0006 2368     		ldr	r3, [r4]
  79              	.LVL1:
  80              		.loc 1 84 0
  81 0008 C260     		str	r2, [r0, #12]
  82              		.loc 1 86 0
  83 000a 9A68     		ldr	r2, [r3, #8]
  84              	.LVL2:
  85 000c 9142     		cmp	r1, r2
  86 000e 04D9     		bls	.L5
  87              	.L6:
  88              		.loc 1 88 0
  89 0010 1B68     		ldr	r3, [r3]
  90              	.LVL3:
  91              		.loc 1 87 0
  92 0012 891A     		subs	r1, r1, r2
  93              	.LVL4:
  94              		.loc 1 86 0
  95 0014 9A68     		ldr	r2, [r3, #8]
  96 0016 8A42     		cmp	r2, r1
  97 0018 FAD3     		bcc	.L6
  98              	.L5:
  99              		.loc 1 91 0
 100 001a 5A68     		ldr	r2, [r3, #4]
 101              		.loc 1 94 0
 102 001c A342     		cmp	r3, r4
 103              		.loc 1 91 0
 104 001e 0360     		str	r3, [r0]
 105 0020 4260     		str	r2, [r0, #4]
 106              		.loc 1 92 0
 107 0022 5860     		str	r0, [r3, #4]
 108 0024 1060     		str	r0, [r2]
 109              		.loc 1 93 0
 110 0026 8160     		str	r1, [r0, #8]
 111              		.loc 1 94 0
 112 0028 02D0     		beq	.L4
 113              		.loc 1 95 0
 114 002a 9A68     		ldr	r2, [r3, #8]
ARM GAS  /var/folders/6q/x_mk5n_j3p7_c40r_2k_78980000gn/T//ccZidkCg.s 			page 3


 115 002c 511A     		subs	r1, r2, r1
 116              	.LVL5:
 117 002e 9960     		str	r1, [r3, #8]
 118              	.LVL6:
 119              	.L4:
 120              		.loc 1 96 0
 121 0030 10BC     		pop	{r4}
 122              		.cfi_restore 4
 123              		.cfi_def_cfa_offset 0
 124 0032 7047     		bx	lr
 125              	.L12:
 126              		.align	2
 127              	.L11:
 128 0034 00000000 		.word	.LANCHOR0
 129              		.cfi_endproc
 130              	.LFE8:
 131              		.size	chVTSetI, .-chVTSetI
 132              		.section	.text.chVTResetI,"ax",%progbits
 133              		.align	2
 134              		.p2align 4,,15
 135              		.global	chVTResetI
 136              		.thumb
 137              		.thumb_func
 138              		.type	chVTResetI, %function
 139              	chVTResetI:
 140              	.LFB9:
 141              		.loc 1 106 0
 142              		.cfi_startproc
 143              		@ args = 0, pretend = 0, frame = 0
 144              		@ frame_needed = 0, uses_anonymous_args = 0
 145              		@ link register save eliminated.
 146              	.LVL7:
 147              		.loc 1 114 0
 148 0000 074A     		ldr	r2, .L15
 149 0002 0368     		ldr	r3, [r0]
 150 0004 9342     		cmp	r3, r2
 151 0006 03D0     		beq	.L14
 152              		.loc 1 115 0
 153 0008 9968     		ldr	r1, [r3, #8]
 154 000a 8268     		ldr	r2, [r0, #8]
 155 000c 0A44     		add	r2, r2, r1
 156 000e 9A60     		str	r2, [r3, #8]
 157              	.L14:
 158              		.loc 1 116 0
 159 0010 4268     		ldr	r2, [r0, #4]
 160              		.loc 1 118 0
 161 0012 0021     		movs	r1, #0
 162              		.loc 1 116 0
 163 0014 1360     		str	r3, [r2]
 164              		.loc 1 117 0
 165 0016 0368     		ldr	r3, [r0]
 166 0018 5A60     		str	r2, [r3, #4]
 167              		.loc 1 118 0
 168 001a C160     		str	r1, [r0, #12]
 169 001c 7047     		bx	lr
 170              	.L16:
 171 001e 00BF     		.align	2
ARM GAS  /var/folders/6q/x_mk5n_j3p7_c40r_2k_78980000gn/T//ccZidkCg.s 			page 4


 172              	.L15:
 173 0020 00000000 		.word	.LANCHOR0
 174              		.cfi_endproc
 175              	.LFE9:
 176              		.size	chVTResetI, .-chVTResetI
 177              		.global	vtlist
 178              		.section	.bss.vtlist,"aw",%nobits
 179              		.align	2
 180              		.set	.LANCHOR0,. + 0
 181              		.type	vtlist, %object
 182              		.size	vtlist, 16
 183              	vtlist:
 184 0000 00000000 		.space	16
 184      00000000 
 184      00000000 
 184      00000000 
 185              		.text
 186              	.Letext0:
 187              		.file 2 "/Users/Luca/src/vexilla/src/gcc-arm-none-eabi-5_4-2016q3/arm-none-eabi/include/machine/_d
 188              		.file 3 "/Users/Luca/src/vexilla/src/gcc-arm-none-eabi-5_4-2016q3/arm-none-eabi/include/sys/_stdin
 189              		.file 4 "../ChibiOS/os/ports/GCC/ARMCMx/chtypes.h"
 190              		.file 5 "../ChibiOS/os/kernel/include/chvt.h"