ARM GAS  /var/folders/6q/x_mk5n_j3p7_c40r_2k_78980000gn/T//cckuxcXP.s 			page 1


   1              		.syntax unified
   2              		.cpu cortex-m3
   3              		.fpu softvfp
   4              		.eabi_attribute 20, 1
   5              		.eabi_attribute 21, 1
   6              		.eabi_attribute 23, 3
   7              		.eabi_attribute 24, 1
   8              		.eabi_attribute 25, 1
   9              		.eabi_attribute 26, 1
  10              		.eabi_attribute 30, 2
  11              		.eabi_attribute 34, 1
  12              		.eabi_attribute 18, 4
  13              		.thumb
  14              		.syntax unified
  15              		.file	"crt0.c"
  16              		.text
  17              	.Ltext0:
  18              		.cfi_sections	.debug_frame
  19              		.section	.text.__early_init,"ax",%progbits
  20              		.align	2
  21              		.p2align 4,,15
  22              		.weak	__early_init
  23              		.thumb
  24              		.thumb_func
  25              		.type	__early_init, %function
  26              	__early_init:
  27              	.LFB5:
  28              		.cfi_startproc
  29              		@ args = 0, pretend = 0, frame = 0
  30              		@ frame_needed = 0, uses_anonymous_args = 0
  31              		@ link register save eliminated.
  32 0000 7047     		bx	lr
  33              		.cfi_endproc
  34              	.LFE5:
  35              		.size	__early_init, .-__early_init
  36 0002 00BF     		.section	.text.__late_init,"ax",%progbits
  37              		.align	2
  38              		.p2align 4,,15
  39              		.weak	__late_init
  40              		.thumb
  41              		.thumb_func
  42              		.type	__late_init, %function
  43              	__late_init:
  44              	.LFB1:
  45              		.file 1 "../ChibiOS/os/ports/GCC/ARMCMx/crt0.c"
  46              		.loc 1 246 0
  47              		.cfi_startproc
  48              		@ args = 0, pretend = 0, frame = 0
  49              		@ frame_needed = 0, uses_anonymous_args = 0
  50              		@ link register save eliminated.
  51 0000 7047     		bx	lr
  52              		.cfi_endproc
  53              	.LFE1:
  54              		.size	__late_init, .-__late_init
  55 0002 00BF     		.section	.text._default_exit,"ax",%progbits
  56              		.align	2
  57              		.p2align 4,,15
ARM GAS  /var/folders/6q/x_mk5n_j3p7_c40r_2k_78980000gn/T//cckuxcXP.s 			page 2


  58              		.weak	_default_exit
  59              		.thumb
  60              		.thumb_func
  61              		.type	_default_exit, %function
  62              	_default_exit:
  63              	.LFB2:
  64              		.loc 1 257 0
  65              		.cfi_startproc
  66              		@ Naked Function: prologue and epilogue provided by programmer.
  67              		@ args = 0, pretend = 0, frame = 0
  68              		@ frame_needed = 0, uses_anonymous_args = 0
  69              	.L4:
  70 0000 FEE7     		b	.L4
  71              		.cfi_endproc
  72              	.LFE2:
  73              		.size	_default_exit, .-_default_exit
  74 0002 00BF     		.section	.text.ResetHandler,"ax",%progbits
  75              		.align	2
  76              		.p2align 4,,15
  77              		.global	ResetHandler
  78              		.thumb
  79              		.thumb_func
  80              		.type	ResetHandler, %function
  81              	ResetHandler:
  82              	.LFB3:
  83              		.loc 1 268 0
  84              		.cfi_startproc
  85              		@ Naked Function: prologue and epilogue provided by programmer.
  86              		@ args = 0, pretend = 0, frame = 0
  87              		@ frame_needed = 0, uses_anonymous_args = 0
  88              		.loc 1 274 0
  89              		.syntax unified
  90              	@ 274 "../ChibiOS/os/ports/GCC/ARMCMx/crt0.c" 1
  91 0000 72B6     		cpsid   i
  92              	@ 0 "" 2
  93              		.loc 1 275 0
  94              		.thumb
  95              		.syntax unified
  96 0002 3248     		ldr	r0, .L32
  97              	.LVL0:
  98              		.loc 1 276 0
  99              		.syntax unified
 100              	@ 276 "../ChibiOS/os/ports/GCC/ARMCMx/crt0.c" 1
 101 0004 80F30988 		msr     PSP, r0
 102              	@ 0 "" 2
 103              	.LVL1:
 104              		.loc 1 296 0
 105              		.thumb
 106              		.syntax unified
 107 0008 0223     		movs	r3, #2
 108              		.syntax unified
 109              	@ 296 "../ChibiOS/os/ports/GCC/ARMCMx/crt0.c" 1
 110 000a 83F31488 		msr     CONTROL, r3
 111              	@ 0 "" 2
 112              		.loc 1 297 0
 113              	@ 297 "../ChibiOS/os/ports/GCC/ARMCMx/crt0.c" 1
 114 000e BFF36F8F 		isb
ARM GAS  /var/folders/6q/x_mk5n_j3p7_c40r_2k_78980000gn/T//cckuxcXP.s 			page 3


 115              	@ 0 "" 2
 116              	.LVL2:
 117              		.thumb
 118              		.syntax unified
 119              	.LBB2:
 120              		.loc 1 301 0
 121 0012 2F49     		ldr	r1, .L32+4
 122 0014 2F4A     		ldr	r2, .L32+8
 123 0016 9142     		cmp	r1, r2
 124 0018 0CD2     		bcs	.L10
 125 001a CC43     		mvns	r4, r1
 126 001c 2244     		add	r2, r2, r4
 127 001e 22F00302 		bic	r2, r2, #3
 128 0022 0432     		adds	r2, r2, #4
 129 0024 0B46     		mov	r3, r1
 130 0026 0A44     		add	r2, r2, r1
 131 0028 4FF05531 		mov	r1, #1431655765
 132              	.LVL3:
 133              	.L9:
 134              		.loc 1 301 0 is_stmt 0 discriminator 3
 135 002c 43F8041B 		str	r1, [r3], #4
 136              	.LVL4:
 137 0030 9342     		cmp	r3, r2
 138 0032 FBD1     		bne	.L9
 139              	.LVL5:
 140              	.L10:
 141              	.LBE2:
 142              	.LBB3:
 143              		.loc 1 304 0 is_stmt 1
 144 0034 2849     		ldr	r1, .L32+12
 145 0036 8142     		cmp	r1, r0
 146 0038 0CD2     		bcs	.L8
 147 003a 0B46     		mov	r3, r1
 148 003c 274A     		ldr	r2, .L32+16
 149 003e 4FF05530 		mov	r0, #1431655765
 150 0042 521A     		subs	r2, r2, r1
 151 0044 22F00302 		bic	r2, r2, #3
 152 0048 0432     		adds	r2, r2, #4
 153 004a 0A44     		add	r2, r2, r1
 154              	.LVL6:
 155              	.L13:
 156              		.loc 1 304 0 is_stmt 0 discriminator 3
 157 004c 43F8040B 		str	r0, [r3], #4
 158              	.LVL7:
 159 0050 9342     		cmp	r3, r2
 160 0052 FBD1     		bne	.L13
 161              	.LVL8:
 162              	.L8:
 163              	.LBE3:
 164              		.loc 1 310 0 is_stmt 1
 165 0054 FFF7FEFF 		bl	__early_init
 166              	.LVL9:
 167              	.LBB4:
 168              		.loc 1 319 0
 169 0058 214A     		ldr	r2, .L32+20
 170 005a 224B     		ldr	r3, .L32+24
 171 005c 9A42     		cmp	r2, r3
ARM GAS  /var/folders/6q/x_mk5n_j3p7_c40r_2k_78980000gn/T//cckuxcXP.s 			page 4


 172 005e 0DD2     		bcs	.L12
 173 0060 D043     		mvns	r0, r2
 174 0062 2149     		ldr	r1, .L32+28
 175 0064 1844     		add	r0, r0, r3
 176 0066 0B46     		mov	r3, r1
 177 0068 20F00300 		bic	r0, r0, #3
 178 006c 0430     		adds	r0, r0, #4
 179 006e 0844     		add	r0, r0, r1
 180              	.LVL10:
 181              	.L16:
 182              		.loc 1 320 0
 183 0070 53F8041B 		ldr	r1, [r3], #4
 184              	.LVL11:
 185              		.loc 1 319 0
 186 0074 8342     		cmp	r3, r0
 187              		.loc 1 320 0
 188 0076 42F8041B 		str	r1, [r2], #4
 189              	.LVL12:
 190              		.loc 1 319 0
 191 007a F9D1     		bne	.L16
 192              	.LVL13:
 193              	.L12:
 194              	.LBE4:
 195              	.LBB5:
 196              		.loc 1 326 0
 197 007c 1B49     		ldr	r1, .L32+32
 198 007e 1C4A     		ldr	r2, .L32+36
 199 0080 9142     		cmp	r1, r2
 200 0082 0BD2     		bcs	.L15
 201 0084 C843     		mvns	r0, r1
 202 0086 0244     		add	r2, r2, r0
 203 0088 22F00302 		bic	r2, r2, #3
 204 008c 0432     		adds	r2, r2, #4
 205 008e 0B46     		mov	r3, r1
 206 0090 0A44     		add	r2, r2, r1
 207 0092 0021     		movs	r1, #0
 208              	.LVL14:
 209              	.L19:
 210              		.loc 1 326 0 is_stmt 0 discriminator 3
 211 0094 43F8041B 		str	r1, [r3], #4
 212              	.LVL15:
 213 0098 9A42     		cmp	r2, r3
 214 009a FBD1     		bne	.L19
 215              	.LVL16:
 216              	.L15:
 217              	.LBE5:
 218              	.LBB6:
 219              		.loc 1 336 0 is_stmt 1
 220 009c 154D     		ldr	r5, .L32+40
 221 009e 164C     		ldr	r4, .L32+44
 222              	.LBE6:
 223              		.loc 1 330 0
 224 00a0 FFF7FEFF 		bl	__late_init
 225              	.LVL17:
 226              	.LBB7:
 227              		.loc 1 336 0
 228 00a4 AC42     		cmp	r4, r5
ARM GAS  /var/folders/6q/x_mk5n_j3p7_c40r_2k_78980000gn/T//cckuxcXP.s 			page 5


 229 00a6 04D2     		bcs	.L18
 230              	.LVL18:
 231              	.L22:
 232              		.loc 1 337 0
 233 00a8 54F8043B 		ldr	r3, [r4], #4
 234              	.LVL19:
 235 00ac 9847     		blx	r3
 236              	.LVL20:
 237              		.loc 1 336 0
 238 00ae AC42     		cmp	r4, r5
 239 00b0 FAD3     		bcc	.L22
 240              	.LVL21:
 241              	.L18:
 242              	.LBE7:
 243              	.LBB8:
 244              		.loc 1 350 0
 245 00b2 124D     		ldr	r5, .L32+48
 246 00b4 124C     		ldr	r4, .L32+52
 247              	.LBE8:
 248              		.loc 1 344 0
 249 00b6 FFF7FEFF 		bl	main
 250              	.LVL22:
 251              	.LBB9:
 252              		.loc 1 350 0
 253 00ba AC42     		cmp	r4, r5
 254 00bc 04D2     		bcs	.L21
 255              	.LVL23:
 256              	.L23:
 257              		.loc 1 351 0
 258 00be 54F8043B 		ldr	r3, [r4], #4
 259              	.LVL24:
 260 00c2 9847     		blx	r3
 261              	.LVL25:
 262              		.loc 1 350 0
 263 00c4 AC42     		cmp	r4, r5
 264 00c6 FAD3     		bcc	.L23
 265              	.LVL26:
 266              	.L21:
 267              	.LBE9:
 268              		.loc 1 358 0
 269 00c8 FFF7FEFF 		bl	_default_exit
 270              	.LVL27:
 271              		.loc 1 359 0
 272              	.L33:
 273              		.align	2
 274              	.L32:
 275 00cc 00000000 		.word	__process_stack_end__
 276 00d0 00000000 		.word	__main_stack_base__
 277 00d4 00000000 		.word	__main_stack_end__
 278 00d8 00000000 		.word	__process_stack_base__
 279 00dc FFFFFFFF 		.word	__process_stack_end__-1
 280 00e0 00000000 		.word	_data
 281 00e4 00000000 		.word	_edata
 282 00e8 00000000 		.word	_textdata
 283 00ec 00000000 		.word	_bss_start
 284 00f0 00000000 		.word	_bss_end
 285 00f4 00000000 		.word	__init_array_end
ARM GAS  /var/folders/6q/x_mk5n_j3p7_c40r_2k_78980000gn/T//cckuxcXP.s 			page 6


 286 00f8 00000000 		.word	__init_array_start
 287 00fc 00000000 		.word	__fini_array_end
 288 0100 00000000 		.word	__fini_array_start
 289              		.cfi_endproc
 290              	.LFE3:
 291              		.size	ResetHandler, .-ResetHandler
 292              		.text
 293              	.Letext0:
 294              		.file 2 "/Users/Luca/src/vexilla/src/gcc-arm-none-eabi-5_4-2016q3/arm-none-eabi/include/machine/_d
 295              		.file 3 "/Users/Luca/src/vexilla/src/gcc-arm-none-eabi-5_4-2016q3/arm-none-eabi/include/sys/_stdin