ARM GAS  /var/folders/6q/x_mk5n_j3p7_c40r_2k_78980000gn/T//ccKT3Jiv.s 			page 1


   1              		.syntax unified
   2              		.cpu cortex-m3
   3              		.fpu softvfp
   4              		.eabi_attribute 20, 1
   5              		.eabi_attribute 21, 1
   6              		.eabi_attribute 23, 3
   7              		.eabi_attribute 24, 1
   8              		.eabi_attribute 25, 1
   9              		.eabi_attribute 26, 1
  10              		.eabi_attribute 30, 2
  11              		.eabi_attribute 34, 1
  12              		.eabi_attribute 18, 4
  13              		.thumb
  14              		.syntax unified
  15              		.file	"ext.c"
  16              		.text
  17              	.Ltext0:
  18              		.cfi_sections	.debug_frame
  19              		.section	.text.extInit,"ax",%progbits
  20              		.align	2
  21              		.p2align 4,,15
  22              		.global	extInit
  23              		.thumb
  24              		.thumb_func
  25              		.type	extInit, %function
  26              	extInit:
  27              	.LFB63:
  28              		.file 1 "../ChibiOS/os/hal/src/ext.c"
  29              		.loc 1 68 0
  30              		.cfi_startproc
  31              		@ args = 0, pretend = 0, frame = 0
  32              		@ frame_needed = 0, uses_anonymous_args = 0
  33              		@ link register save eliminated.
  34              		.loc 1 70 0
  35 0000 FFF7FEBF 		b	ext_lld_init
  36              	.LVL0:
  37              		.cfi_endproc
  38              	.LFE63:
  39              		.size	extInit, .-extInit
  40              		.section	.text.extObjectInit,"ax",%progbits
  41              		.align	2
  42              		.p2align 4,,15
  43              		.global	extObjectInit
  44              		.thumb
  45              		.thumb_func
  46              		.type	extObjectInit, %function
  47              	extObjectInit:
  48              	.LFB64:
  49              		.loc 1 80 0
  50              		.cfi_startproc
  51              		@ args = 0, pretend = 0, frame = 0
  52              		@ frame_needed = 0, uses_anonymous_args = 0
  53              		@ link register save eliminated.
  54              	.LVL1:
  55              		.loc 1 82 0
  56 0000 0122     		movs	r2, #1
  57              		.loc 1 83 0
ARM GAS  /var/folders/6q/x_mk5n_j3p7_c40r_2k_78980000gn/T//ccKT3Jiv.s 			page 2


  58 0002 0023     		movs	r3, #0
  59              		.loc 1 82 0
  60 0004 0270     		strb	r2, [r0]
  61              		.loc 1 83 0
  62 0006 4360     		str	r3, [r0, #4]
  63 0008 7047     		bx	lr
  64              		.cfi_endproc
  65              	.LFE64:
  66              		.size	extObjectInit, .-extObjectInit
  67 000a 00BF     		.section	.text.extStart,"ax",%progbits
  68              		.align	2
  69              		.p2align 4,,15
  70              		.global	extStart
  71              		.thumb
  72              		.thumb_func
  73              		.type	extStart, %function
  74              	extStart:
  75              	.LFB65:
  76              		.loc 1 96 0
  77              		.cfi_startproc
  78              		@ args = 0, pretend = 0, frame = 0
  79              		@ frame_needed = 0, uses_anonymous_args = 0
  80              	.LVL2:
  81 0000 10B5     		push	{r4, lr}
  82              		.cfi_def_cfa_offset 8
  83              		.cfi_offset 4, -8
  84              		.cfi_offset 14, -4
  85              	.LBB2:
  86              		.loc 1 100 0
  87 0002 2023     		movs	r3, #32
  88              	.LBE2:
  89              		.loc 1 96 0
  90 0004 0446     		mov	r4, r0
  91              	.LBB3:
  92              		.loc 1 100 0
  93              		.syntax unified
  94              	@ 100 "../ChibiOS/os/hal/src/ext.c" 1
  95 0006 83F31188 		msr     BASEPRI, r3
  96              	@ 0 "" 2
  97              		.thumb
  98              		.syntax unified
  99              	.LBE3:
 100              		.loc 1 103 0
 101 000a 4160     		str	r1, [r0, #4]
 102              		.loc 1 104 0
 103 000c FFF7FEFF 		bl	ext_lld_start
 104              	.LVL3:
 105              		.loc 1 105 0
 106 0010 0223     		movs	r3, #2
 107 0012 2370     		strb	r3, [r4]
 108              	.LBB4:
 109              		.loc 1 106 0
 110 0014 0023     		movs	r3, #0
 111              		.syntax unified
 112              	@ 106 "../ChibiOS/os/hal/src/ext.c" 1
 113 0016 83F31188 		msr     BASEPRI, r3
 114              	@ 0 "" 2
ARM GAS  /var/folders/6q/x_mk5n_j3p7_c40r_2k_78980000gn/T//ccKT3Jiv.s 			page 3


 115              		.thumb
 116              		.syntax unified
 117 001a 10BD     		pop	{r4, pc}
 118              	.LBE4:
 119              		.cfi_endproc
 120              	.LFE65:
 121              		.size	extStart, .-extStart
 122              		.section	.text.extStop,"ax",%progbits
 123              		.align	2
 124              		.p2align 4,,15
 125              		.global	extStop
 126              		.thumb
 127              		.thumb_func
 128              		.type	extStop, %function
 129              	extStop:
 130              	.LFB66:
 131              		.loc 1 116 0
 132              		.cfi_startproc
 133              		@ args = 0, pretend = 0, frame = 0
 134              		@ frame_needed = 0, uses_anonymous_args = 0
 135              	.LVL4:
 136 0000 10B5     		push	{r4, lr}
 137              		.cfi_def_cfa_offset 8
 138              		.cfi_offset 4, -8
 139              		.cfi_offset 14, -4
 140              	.LBB5:
 141              		.loc 1 120 0
 142 0002 2023     		movs	r3, #32
 143              	.LBE5:
 144              		.loc 1 116 0
 145 0004 0446     		mov	r4, r0
 146              	.LBB6:
 147              		.loc 1 120 0
 148              		.syntax unified
 149              	@ 120 "../ChibiOS/os/hal/src/ext.c" 1
 150 0006 83F31188 		msr     BASEPRI, r3
 151              	@ 0 "" 2
 152              		.thumb
 153              		.syntax unified
 154              	.LBE6:
 155              		.loc 1 123 0
 156 000a FFF7FEFF 		bl	ext_lld_stop
 157              	.LVL5:
 158              		.loc 1 124 0
 159 000e 0123     		movs	r3, #1
 160 0010 2370     		strb	r3, [r4]
 161              	.LBB7:
 162              		.loc 1 125 0
 163 0012 0023     		movs	r3, #0
 164              		.syntax unified
 165              	@ 125 "../ChibiOS/os/hal/src/ext.c" 1
 166 0014 83F31188 		msr     BASEPRI, r3
 167              	@ 0 "" 2
 168              		.thumb
 169              		.syntax unified
 170 0018 10BD     		pop	{r4, pc}
 171              	.LBE7:
ARM GAS  /var/folders/6q/x_mk5n_j3p7_c40r_2k_78980000gn/T//ccKT3Jiv.s 			page 4


 172              		.cfi_endproc
 173              	.LFE66:
 174              		.size	extStop, .-extStop
 175 001a 00BF     		.section	.text.extChannelEnable,"ax",%progbits
 176              		.align	2
 177              		.p2align 4,,15
 178              		.global	extChannelEnable
 179              		.thumb
 180              		.thumb_func
 181              		.type	extChannelEnable, %function
 182              	extChannelEnable:
 183              	.LFB67:
 184              		.loc 1 137 0
 185              		.cfi_startproc
 186              		@ args = 0, pretend = 0, frame = 0
 187              		@ frame_needed = 0, uses_anonymous_args = 0
 188              	.LVL6:
 189 0000 08B5     		push	{r3, lr}
 190              		.cfi_def_cfa_offset 8
 191              		.cfi_offset 3, -8
 192              		.cfi_offset 14, -4
 193              	.LBB8:
 194              		.loc 1 142 0
 195 0002 2023     		movs	r3, #32
 196              		.syntax unified
 197              	@ 142 "../ChibiOS/os/hal/src/ext.c" 1
 198 0004 83F31188 		msr     BASEPRI, r3
 199              	@ 0 "" 2
 200              		.thumb
 201              		.syntax unified
 202              	.LBE8:
 203              		.loc 1 147 0
 204 0008 FFF7FEFF 		bl	ext_lld_channel_enable
 205              	.LVL7:
 206              	.LBB9:
 207              		.loc 1 148 0
 208 000c 0023     		movs	r3, #0
 209              		.syntax unified
 210              	@ 148 "../ChibiOS/os/hal/src/ext.c" 1
 211 000e 83F31188 		msr     BASEPRI, r3
 212              	@ 0 "" 2
 213              		.thumb
 214              		.syntax unified
 215 0012 08BD     		pop	{r3, pc}
 216              	.LBE9:
 217              		.cfi_endproc
 218              	.LFE67:
 219              		.size	extChannelEnable, .-extChannelEnable
 220              		.section	.text.extChannelDisable,"ax",%progbits
 221              		.align	2
 222              		.p2align 4,,15
 223              		.global	extChannelDisable
 224              		.thumb
 225              		.thumb_func
 226              		.type	extChannelDisable, %function
 227              	extChannelDisable:
 228              	.LFB68:
ARM GAS  /var/folders/6q/x_mk5n_j3p7_c40r_2k_78980000gn/T//ccKT3Jiv.s 			page 5


 229              		.loc 1 160 0
 230              		.cfi_startproc
 231              		@ args = 0, pretend = 0, frame = 0
 232              		@ frame_needed = 0, uses_anonymous_args = 0
 233              	.LVL8:
 234 0000 08B5     		push	{r3, lr}
 235              		.cfi_def_cfa_offset 8
 236              		.cfi_offset 3, -8
 237              		.cfi_offset 14, -4
 238              	.LBB10:
 239              		.loc 1 165 0
 240 0002 2023     		movs	r3, #32
 241              		.syntax unified
 242              	@ 165 "../ChibiOS/os/hal/src/ext.c" 1
 243 0004 83F31188 		msr     BASEPRI, r3
 244              	@ 0 "" 2
 245              		.thumb
 246              		.syntax unified
 247              	.LBE10:
 248              		.loc 1 170 0
 249 0008 FFF7FEFF 		bl	ext_lld_channel_disable
 250              	.LVL9:
 251              	.LBB11:
 252              		.loc 1 171 0
 253 000c 0023     		movs	r3, #0
 254              		.syntax unified
 255              	@ 171 "../ChibiOS/os/hal/src/ext.c" 1
 256 000e 83F31188 		msr     BASEPRI, r3
 257              	@ 0 "" 2
 258              		.thumb
 259              		.syntax unified
 260 0012 08BD     		pop	{r3, pc}
 261              	.LBE11:
 262              		.cfi_endproc
 263              	.LFE68:
 264              		.size	extChannelDisable, .-extChannelDisable
 265              		.section	.text.extSetChannelModeI,"ax",%progbits
 266              		.align	2
 267              		.p2align 4,,15
 268              		.global	extSetChannelModeI
 269              		.thumb
 270              		.thumb_func
 271              		.type	extSetChannelModeI, %function
 272              	extSetChannelModeI:
 273              	.LFB69:
 274              		.loc 1 193 0
 275              		.cfi_startproc
 276              		@ args = 0, pretend = 0, frame = 0
 277              		@ frame_needed = 0, uses_anonymous_args = 0
 278              		@ link register save eliminated.
 279              	.LVL10:
 280 0000 30B4     		push	{r4, r5}
 281              		.cfi_def_cfa_offset 8
 282              		.cfi_offset 4, -8
 283              		.cfi_offset 5, -4
 284              		.loc 1 193 0
 285 0002 0446     		mov	r4, r0
ARM GAS  /var/folders/6q/x_mk5n_j3p7_c40r_2k_78980000gn/T//ccKT3Jiv.s 			page 6


 286 0004 0D46     		mov	r5, r1
 287              	.LVL11:
 288              		.loc 1 208 0
 289 0006 92E80300 		ldmia	r2, {r0, r1}
 290              	.LVL12:
 291 000a 6368     		ldr	r3, [r4, #4]
 292 000c 03EBC503 		add	r3, r3, r5, lsl #3
 293 0010 83E80300 		stmia	r3, {r0, r1}
 294              	.LVL13:
 295              		.loc 1 209 0
 296 0014 2946     		mov	r1, r5
 297 0016 2046     		mov	r0, r4
 298              		.loc 1 210 0
 299 0018 30BC     		pop	{r4, r5}
 300              		.cfi_restore 5
 301              		.cfi_restore 4
 302              		.cfi_def_cfa_offset 0
 303              	.LVL14:
 304              		.loc 1 209 0
 305 001a FFF7FEBF 		b	ext_lld_channel_enable
 306              	.LVL15:
 307              		.cfi_endproc
 308              	.LFE69:
 309              		.size	extSetChannelModeI, .-extSetChannelModeI
 310 001e 00BF     		.text
 311              	.Letext0:
 312              		.file 2 "/Users/Luca/src/vexilla/src/gcc-arm-none-eabi-5_4-2016q3/arm-none-eabi/include/machine/_d
 313              		.file 3 "/Users/Luca/src/vexilla/src/gcc-arm-none-eabi-5_4-2016q3/arm-none-eabi/include/sys/_stdin
 314              		.file 4 "../ChibiOS/os/hal/include/ext.h"
 315              		.file 5 "../ChibiOS/os/hal/platforms/STM32/ext_lld.h"
 316              		.file 6 "../ChibiOS/os/ports/common/ARMCMx/CMSIS/include/core_cm3.h"