ARM GAS  /var/folders/6q/x_mk5n_j3p7_c40r_2k_78980000gn/T//ccKT3Jiv.s 			page 1


   1              		.syntax unified
   2              		.cpu cortex-m3
   3              		.fpu softvfp
   4              		.eabi_attribute 20, 1
   5              		.eabi_attribute 21, 1
   6              		.eabi_attribute 23, 3
   7              		.eabi_attribute 24, 1
   8              		.eabi_attribute 25, 1
   9              		.eabi_attribute 26, 1
  10              		.eabi_attribute 30, 2
  11              		.eabi_attribute 34, 1
  12              		.eabi_attribute 18, 4
  13              		.thumb
  14              		.syntax unified
  15              		.file	"ext.c"
  16              		.text
  17              	.Ltext0:
  18              		.cfi_sections	.debug_frame
  19              		.section	.text.extInit,"ax",%progbits
  20              		.align	2
  21              		.p2align 4,,15
  22              		.global	extInit
  23              		.thumb
  24              		.thumb_func
  25              		.type	extInit, %function
  26              	extInit:
  27              	.LFB63:
  28              		.file 1 "../ChibiOS/os/hal/src/ext.c"
  29              		.loc 1 68 0
  30              		.cfi_startproc
  31              		@ args = 0, pretend = 0, frame = 0
  32              		@ frame_needed = 0, uses_anonymous_args = 0
  33              		@ link register save eliminated.
  34              		.loc 1 70 0
  35 0000 FFF7FEBF 		b	ext_lld_init
  36              	.LVL0:
  37              		.cfi_endproc
  38              	.LFE63:
  39              		.size	extInit, .-extInit
  40              		.section	.text.extObjectInit,"ax",%progbits
  41              		.align	2
  42              		.p2align 4,,15
  43              		.global	extObjectInit
  44              		.thumb
  45              		.thumb_func
  46              		.type	extObjectInit, %function
  47              	extObjectInit:
  48              	.LFB64:
  49              		.loc 1 80 0
  50              		.cfi_startproc
  51              		@ args = 0, pretend = 0, frame = 0
  52              		@ frame_needed = 0, uses_anonymous_args = 0
  53              		@ link register save eliminated.
  54              	.LVL1:
  55              		.loc 1 82 0
  56 0000 0122     		movs	r2, #1
  57              		.loc 1 83 0
ARM GAS  /var/folders/6q/x_mk5n_j3p7_c40r_2k_78980000gn/T//ccKT3Jiv.s 			page 2


  58 0002 0023     		movs	r3, #0
  59              		.loc 1 82 0
  60 0004 0270     		strb	r2, [r0]
  61              		.loc 1 83 0
  62 0006 4360     		str	r3, [r0, #4]
  63 0008 7047     		bx	lr
  64              		.cfi_endproc
  65              	.LFE64:
  66              		.size	extObjectInit, .-extObjectInit
  67 000a 00BF     		.section	.text.extStart,"ax",%progbits
  68              		.align	2
  69              		.p2align 4,,15
  70              		.global	extStart
  71              		.thumb
  72              		.thumb_func
  73              		.type	extStart, %function
  74              	extStart:
  75              	.LFB65:
  76              		.loc 1 96 0
  77              		.cfi_startproc
  78              		@ args = 0, pretend = 0, frame = 0
  79              		@ frame_needed = 0, uses_anonymous_args = 0
  80              	.LVL2:
  81 0000 10B5     		push	{r4, lr}
  82              		.cfi_def_cfa_offset 8
  83              		.cfi_offset 4, -8
  84              		.cfi_offset 14, -4
  85              	.LBB2:
  86              		.loc 1 100 0
  87 0002 2023     		movs	r3, #32
  88              	.LBE2:
  89              		.loc 1 96 0
  90 0004 0446     		mov	r4, r0
  91              	.LBB3:
  92              		.loc 1 100 0
  93              		.syntax unified
  94              	@ 100 "../ChibiOS/os/hal/src/ext.c" 1
  95 0006 83F31188 		msr     BASEPRI, r3
  96              	@ 0 "" 2
  97              		.thumb
  98              		.syntax unified
  99              	.LBE3:
 100              		.loc 1 103 0
 101 000a 4160     		str	r1, [r0, #4]
 102              		.loc 1 104 0
 103 000c FFF7FEFF 		bl	ext_lld_start
 104              	.LVL3:
 105              		.loc 1 105 0
 106 0010 0223     		movs	r3, #2
 107 0012 2370     		strb	r3, [r4]
 108              	.LBB4:
 109              		.loc 1 106 0
 110 0014 0023     		movs	r3, #0
 111              		.syntax unified
 112              	@ 106 "../ChibiOS/os/hal/src/ext.c" 1
 113 0016 83F31188 		msr     BASEPRI, r3
 114              	@ 0 "" 2
ARM GAS  /var/folders/6q/x_mk5n_j3p7_c40r_2k_78980000gn/T//ccKT3Jiv.s 			page 3


 115              		.thumb
 116              		.syntax unified
 117 001a 10BD     		pop	{r4, pc}
 118              	.LBE4:
 119              		.cfi_endproc
 120              	.LFE65:
 121              		.size	extStart, .-extStart
 122              		.section	.text.extStop,"ax",%progbits
 123              		.align	2
 124              		.p2align 4,,15
 125              		.global	extStop
 126              		.thumb
 127              		.thumb_func
 128              		.type	extStop, %function
 129              	extStop:
 130              	.LFB66:
 131              		.loc 1 116 0
 132              		.cfi_startproc
 133              		@ args = 0, pretend = 0, frame = 0
 134              		@ frame_needed = 0, uses_anonymous_args = 0
 135              	.LVL4:
 136 0000 10B5     		push	{r4, lr}
 137              		.cfi_def_cfa_offset 8
 138              		.cfi_offset 4, -8
 139              		.cfi_offset 14, -4
 140              	.LBB5:
 141              		.loc 1 120 0
 142 0002 2023     		movs	r3, #32
 143              	.LBE5:
 144              		.loc 1 116 0
 145 0004 0446     		mov	r4, r0
 146              	.LBB6:
 147              		.loc 1 120 0
 148              		.syntax unified
 149              	@ 120 "../ChibiOS/os/hal/src/ext.c" 1
 150 0006 83F31188 		msr     BASEPRI, r3
 151              	@ 0 "" 2
 152              		.thumb
 153              		.syntax unified
 154              	.LBE6:
 155              		.loc 1 123 0
 156 000a FFF7FEFF 		bl	ext_lld_stop
 157              	.LVL5:
 158              		.loc 1 124 0
 159 000e 0123     		movs	r3, #1
 160 0010 2370     		strb	r3, [r4]
 161              	.LBB7:
 162              		.loc 1 125 0
 163 0012 0023     		movs	r3, #0
 164              		.syntax unified
 165              	@ 125 "../ChibiOS/os/hal/src/ext.c" 1
 166 0014 83F31188 		msr     BASEPRI, r3
 167              	@ 0 "" 2
 168              		.thumb
 169              		.syntax unified
 170 0018 10BD     		pop	{r4, pc}
 171              	.LBE7:
ARM GAS  /var/folders/6q/x_mk5n_j3p7_c40r_2k_78980000gn/T//ccKT3Jiv.s 			page 4


 172              		.cfi_endproc
 173              	.LFE66:
 174              		.size	extStop, .-extStop
 175 001a 00BF     		.section	.text.extChannelEnable,"ax",%progbits
 176              		.align	2
 177              		.p2align 4,,15
 178              		.global	extChannelEnable
 179              		.thumb
 180              		.thumb_func
 181              		.type	extChannelEnable, %function
 182              	extChannelEnable:
 183              	.LFB67:
 184              		.loc 1 137 0
 185              		.cfi_startproc
 186              		@ args = 0, pretend = 0, frame = 0
 187              		@ frame_needed = 0, uses_anonymous_args = 0
 188              	.LVL6:
 189 0000 08B5     		push	{r3, lr}
 190              		.cfi_def_cfa_offset 8
 191              		.cfi_offset 3, -8
 192              		.cfi_offset 14, -4
 193              	.LBB8:
 194              		.loc 1 142 0
 195 0002 2023     		movs	r3, #32
 196              		.syntax unified
 197              	@ 142 "../ChibiOS/os/hal/src/ext.c" 1
 198 0004 83F31188 		msr     BASEPRI, r3
 199              	@ 0 "" 2
 200              		.thumb
 201              		.syntax unified
 202              	.LBE8:
 203              		.loc 1 147 0
 204 0008 FFF7FEFF 		bl	ext_lld_channel_enable
 205              	.LVL7:
 206              	.LBB9:
 207              		.loc 1 148 0
 208 000c 0023     		movs	r3, #0
 209              		.syntax unified
 210              	@ 148 "../ChibiOS/os/hal/src/ext.c" 1
 211 000e 83F31188 		msr     BASEPRI, r3
 212              	@ 0 "" 2
 213              		.thumb
 214              		.syntax unified
 215 0012 08BD     		pop	{r3, pc}
 216              	.LBE9:
 217              		.cfi_endproc
 218              	.LFE67:
 219              		.size	extChannelEnable, .-extChannelEnable
 220              		.section	.text.extChannelDisable,"ax",%progbits
 221              		.align	2
 222              		.p2align 4,,15
 223              		.global	extChannelDisable
 224              		.thumb
 225              		.thumb_func
 226              		.type	extChannelDisable, %function
 227              	extChannelDisable:
 228              	.LFB68:
ARM GAS  /var/folders/6q/x_mk5n_j3p7_c40r_2k_78980000gn/T//ccKT3Jiv.s 			page 5


 229              		.loc 1 160 0
 230              		.cfi_startproc
 231              		@ args = 0, pretend = 0, frame = 0
 232              		@ frame_needed = 0, uses_anonymous_args = 0
 233              	.LVL8:
 234 0000 08B5     		push	{r3, lr}
 235              		.cfi_def_cfa_offset 8
 236              		.cfi_offset 3, -8
 237              		.cfi_offset 14, -4
 238              	.LBB10:
 239              		.loc 1 165 0
 240 0002 2023     		movs	r3, #32
 241              		.syntax unified
 242              	@ 165 "../ChibiOS/os/hal/src/ext.c" 1
 243 0004 83F31188 		msr     BASEPRI, r3
 244              	@ 0 "" 2
 245              		.thumb
 246              		.syntax unified
 247              	.LBE10:
 248              		.loc 1 170 0
 249 0008 FFF7FEFF 		bl	ext_lld_channel_disable
 250              	.LVL9:
 251              	.LBB11:
 252              		.loc 1 171 0
 253 000c 0023     		movs	r3, #0
 254              		.syntax unified
 255              	@ 171 "../ChibiOS/os/hal/src/ext.c" 1
 256 000e 83F31188 		msr     BASEPRI, r3
 257              	@ 0 "" 2
 258              		.thumb
 259              		.syntax unified
 260 0012 08BD     		pop	{r3, pc}
 261              	.LBE11:
 262              		.cfi_endproc
 263              	.LFE68:
 264              		.size	extChannelDisable, .-extChannelDisable
 265              		.section	.text.extSetChannelModeI,"ax",%progbits
 266              		.align	2
 267              		.p2align 4,,15
 268              		.global	extSetChannelModeI
 269              		.thumb
 270              		.thumb_func
 271              		.type	extSetChannelModeI, %function
 272              	extSetChannelModeI:
 273              	.LFB69:
 274              		.loc 1 193 0
 275              		.cfi_startproc
 276              		@ args = 0, pretend = 0, frame = 0
 277              		@ frame_needed = 0, uses_anonymous_args = 0
 278              		@ link register save eliminated.
 279              	.LVL10:
 280 0000 30B4     		push	{r4, r5}
 281              		.cfi_def_cfa_offset 8
 282              		.cfi_offset 4, -8
 283              		.cfi_offset 5, -4
 284              		.loc 1 193 0
 285 0002 0446     		mov	r4, r0
ARM GAS  /var/folders/6q/x_mk5n_j3p7_c40r_2k_78980000gn/T//ccKT3Jiv.s 			page 6


 286 0004 0D46     		mov	r5, r1
 287              	.LVL11:
 288              		.loc 1 208 0
 289 0006 92E80300 		ldmia	r2, {r0, r1}
 290              	.LVL12:
 291 000a 6368     		ldr	r3, [r4, #4]
 292 000c 03EBC503 		add	r3, r3, r5, lsl #3
 293 0010 83E80300 		stmia	r3, {r0, r1}
 294              	.LVL13:
 295              		.loc 1 209 0
 296 0014 2946     		mov	r1, r5
 297 0016 2046     		mov	r0, r4
 298              		.loc 1 210 0
 299 0018 30BC     		pop	{r4, r5}
 300              		.cfi_restore 5
 301              		.cfi_restore 4
 302              		.cfi_def_cfa_offset 0
 303              	.LVL14:
 304              		.loc 1 209 0
 305 001a FFF7FEBF 		b	ext_lld_channel_enable
 306              	.LVL15:
 307              		.cfi_endproc
 308              	.LFE69:
 309              		.size	extSetChannelModeI, .-extSetChannelModeI
 310 001e 00BF     		.text
 311              	.Letext0:
 312              		.file 2 "/Users/Luca/src/vexilla/src/gcc-arm-none-eabi-5_4-2016q3/arm-none-eabi/include/machine/_d
 313              		.file 3 "/Users/Luca/src/vexilla/src/gcc-arm-none-eabi-5_4-2016q3/arm-none-eabi/include/sys/_stdin
 314              		.file 4 "../ChibiOS/os/hal/include/ext.h"
 315              		.file 5 "../ChibiOS/os/hal/platforms/STM32/ext_lld.h"
 316              		.file 6 "../ChibiOS/os/ports/common/ARMCMx/CMSIS/include/core_cm3.h"
 317              		.section	.debug_info,"",%progbits
 318              	.Ldebug_info0:
 319 0000 88040000 		.4byte	0x488
 320 0004 0400     		.2byte	0x4
 321 0006 00000000 		.4byte	.Ldebug_abbrev0
 322 000a 04       		.byte	0x4
 323 000b 01       		.uleb128 0x1
 324 000c 00000000 		.4byte	.LASF46
 325 0010 0C       		.byte	0xc
 326 0011 DD010000 		.4byte	.LASF47
 327 0015 D8020000 		.4byte	.LASF48
 328 0019 30000000 		.4byte	.Ldebug_ranges0+0x30
 329 001d 00000000 		.4byte	0
 330 0021 00000000 		.4byte	.Ldebug_line0
 331 0025 02       		.uleb128 0x2
 332 0026 04       		.byte	0x4
 333 0027 05       		.byte	0x5
 334 0028 696E7400 		.ascii	"int\000"
 335 002c 03       		.uleb128 0x3
 336 002d 04       		.byte	0x4
 337 002e 07       		.byte	0x7
 338 002f 37020000 		.4byte	.LASF0
 339 0033 03       		.uleb128 0x3
 340 0034 08       		.byte	0x8
 341 0035 05       		.byte	0x5
 342 0036 98020000 		.4byte	.LASF1
ARM GAS  /var/folders/6q/x_mk5n_j3p7_c40r_2k_78980000gn/T//ccKT3Jiv.s 			page 7


 343 003a 03       		.uleb128 0x3
 344 003b 08       		.byte	0x8
 345 003c 04       		.byte	0x4
 346 003d 0C030000 		.4byte	.LASF2
 347 0041 03       		.uleb128 0x3
 348 0042 01       		.byte	0x1
 349 0043 06       		.byte	0x6
 350 0044 18030000 		.4byte	.LASF3
 351 0048 03       		.uleb128 0x3
 352 0049 01       		.byte	0x1
 353 004a 08       		.byte	0x8
 354 004b 97010000 		.4byte	.LASF4
 355 004f 03       		.uleb128 0x3
 356 0050 02       		.byte	0x2
 357 0051 05       		.byte	0x5
 358 0052 C0020000 		.4byte	.LASF5
 359 0056 03       		.uleb128 0x3
 360 0057 02       		.byte	0x2
 361 0058 07       		.byte	0x7
 362 0059 BD010000 		.4byte	.LASF6
 363 005d 04       		.uleb128 0x4
 364 005e 26010000 		.4byte	.LASF8
 365 0062 02       		.byte	0x2
 366 0063 3F       		.byte	0x3f
 367 0064 68000000 		.4byte	0x68
 368 0068 03       		.uleb128 0x3
 369 0069 04       		.byte	0x4
 370 006a 05       		.byte	0x5
 371 006b 03030000 		.4byte	.LASF7
 372 006f 04       		.uleb128 0x4
 373 0070 0A020000 		.4byte	.LASF9
 374 0074 02       		.byte	0x2
 375 0075 41       		.byte	0x41
 376 0076 7A000000 		.4byte	0x7a
 377 007a 03       		.uleb128 0x3
 378 007b 04       		.byte	0x4
 379 007c 07       		.byte	0x7
 380 007d AB010000 		.4byte	.LASF10
 381 0081 03       		.uleb128 0x3
 382 0082 08       		.byte	0x8
 383 0083 07       		.byte	0x7
 384 0084 80010000 		.4byte	.LASF11
 385 0088 04       		.uleb128 0x4
 386 0089 87020000 		.4byte	.LASF12
 387 008d 03       		.byte	0x3
 388 008e 2C       		.byte	0x2c
 389 008f 5D000000 		.4byte	0x5d
 390 0093 04       		.uleb128 0x4
 391 0094 FA020000 		.4byte	.LASF13
 392 0098 03       		.byte	0x3
 393 0099 30       		.byte	0x30
 394 009a 6F000000 		.4byte	0x6f
 395 009e 03       		.uleb128 0x3
 396 009f 01       		.byte	0x1
 397 00a0 02       		.byte	0x2
 398 00a1 24030000 		.4byte	.LASF14
 399 00a5 03       		.uleb128 0x3
ARM GAS  /var/folders/6q/x_mk5n_j3p7_c40r_2k_78980000gn/T//ccKT3Jiv.s 			page 8


 400 00a6 04       		.byte	0x4
 401 00a7 07       		.byte	0x7
 402 00a8 8F020000 		.4byte	.LASF15
 403 00ac 03       		.uleb128 0x3
 404 00ad 01       		.byte	0x1
 405 00ae 08       		.byte	0x8
 406 00af 49020000 		.4byte	.LASF16
 407 00b3 05       		.uleb128 0x5
 408 00b4 88000000 		.4byte	0x88
 409 00b8 06       		.uleb128 0x6
 410 00b9 01       		.byte	0x1
 411 00ba 48000000 		.4byte	0x48
 412 00be 04       		.byte	0x4
 413 00bf 4A       		.byte	0x4a
 414 00c0 D7000000 		.4byte	0xd7
 415 00c4 07       		.uleb128 0x7
 416 00c5 1B010000 		.4byte	.LASF17
 417 00c9 00       		.byte	0
 418 00ca 07       		.uleb128 0x7
 419 00cb 38030000 		.4byte	.LASF18
 420 00cf 01       		.byte	0x1
 421 00d0 07       		.uleb128 0x7
 422 00d1 2C020000 		.4byte	.LASF19
 423 00d5 02       		.byte	0x2
 424 00d6 00       		.byte	0
 425 00d7 04       		.uleb128 0x4
 426 00d8 FF000000 		.4byte	.LASF20
 427 00dc 04       		.byte	0x4
 428 00dd 4E       		.byte	0x4e
 429 00de B8000000 		.4byte	0xb8
 430 00e2 04       		.uleb128 0x4
 431 00e3 DA000000 		.4byte	.LASF21
 432 00e7 04       		.byte	0x4
 433 00e8 53       		.byte	0x53
 434 00e9 ED000000 		.4byte	0xed
 435 00ed 08       		.uleb128 0x8
 436 00ee DA000000 		.4byte	.LASF21
 437 00f2 08       		.byte	0x8
 438 00f3 05       		.byte	0x5
 439 00f4 71       		.byte	0x71
 440 00f5 12010000 		.4byte	0x112
 441 00f9 09       		.uleb128 0x9
 442 00fa F9000000 		.4byte	.LASF22
 443 00fe 05       		.byte	0x5
 444 00ff 75       		.byte	0x75
 445 0100 D7000000 		.4byte	0xd7
 446 0104 00       		.byte	0
 447 0105 09       		.uleb128 0x9
 448 0106 F9010000 		.4byte	.LASF23
 449 010a 05       		.byte	0x5
 450 010b 79       		.byte	0x79
 451 010c 9F010000 		.4byte	0x19f
 452 0110 04       		.byte	0x4
 453 0111 00       		.byte	0
 454 0112 04       		.uleb128 0x4
 455 0113 52010000 		.4byte	.LASF24
 456 0117 05       		.byte	0x5
ARM GAS  /var/folders/6q/x_mk5n_j3p7_c40r_2k_78980000gn/T//ccKT3Jiv.s 			page 9


 457 0118 47       		.byte	0x47
 458 0119 93000000 		.4byte	0x93
 459 011d 04       		.uleb128 0x4
 460 011e 4E020000 		.4byte	.LASF25
 461 0122 05       		.byte	0x5
 462 0123 4F       		.byte	0x4f
 463 0124 28010000 		.4byte	0x128
 464 0128 0A       		.uleb128 0xa
 465 0129 04       		.byte	0x4
 466 012a 2E010000 		.4byte	0x12e
 467 012e 0B       		.uleb128 0xb
 468 012f 3E010000 		.4byte	0x13e
 469 0133 0C       		.uleb128 0xc
 470 0134 3E010000 		.4byte	0x13e
 471 0138 0C       		.uleb128 0xc
 472 0139 12010000 		.4byte	0x112
 473 013d 00       		.byte	0
 474 013e 0A       		.uleb128 0xa
 475 013f 04       		.byte	0x4
 476 0140 E2000000 		.4byte	0xe2
 477 0144 0D       		.uleb128 0xd
 478 0145 08       		.byte	0x8
 479 0146 05       		.byte	0x5
 480 0147 54       		.byte	0x54
 481 0148 64010000 		.4byte	0x164
 482 014c 09       		.uleb128 0x9
 483 014d 5C020000 		.4byte	.LASF26
 484 0151 05       		.byte	0x5
 485 0152 58       		.byte	0x58
 486 0153 93000000 		.4byte	0x93
 487 0157 00       		.byte	0
 488 0158 0E       		.uleb128 0xe
 489 0159 636200   		.ascii	"cb\000"
 490 015c 05       		.byte	0x5
 491 015d 5F       		.byte	0x5f
 492 015e 1D010000 		.4byte	0x11d
 493 0162 04       		.byte	0x4
 494 0163 00       		.byte	0
 495 0164 04       		.uleb128 0x4
 496 0165 0A010000 		.4byte	.LASF27
 497 0169 05       		.byte	0x5
 498 016a 60       		.byte	0x60
 499 016b 44010000 		.4byte	0x144
 500 016f 0D       		.uleb128 0xd
 501 0170 98       		.byte	0x98
 502 0171 05       		.byte	0x5
 503 0172 66       		.byte	0x66
 504 0173 84010000 		.4byte	0x184
 505 0177 09       		.uleb128 0x9
 506 0178 A6020000 		.4byte	.LASF28
 507 017c 05       		.byte	0x5
 508 017d 6A       		.byte	0x6a
 509 017e 84010000 		.4byte	0x184
 510 0182 00       		.byte	0
 511 0183 00       		.byte	0
 512 0184 0F       		.uleb128 0xf
 513 0185 64010000 		.4byte	0x164
ARM GAS  /var/folders/6q/x_mk5n_j3p7_c40r_2k_78980000gn/T//ccKT3Jiv.s 			page 10


 514 0189 94010000 		.4byte	0x194
 515 018d 10       		.uleb128 0x10
 516 018e A5000000 		.4byte	0xa5
 517 0192 12       		.byte	0x12
 518 0193 00       		.byte	0
 519 0194 04       		.uleb128 0x4
 520 0195 00020000 		.4byte	.LASF29
 521 0199 05       		.byte	0x5
 522 019a 6C       		.byte	0x6c
 523 019b 6F010000 		.4byte	0x16f
 524 019f 0A       		.uleb128 0xa
 525 01a0 04       		.byte	0x4
 526 01a1 A5010000 		.4byte	0x1a5
 527 01a5 11       		.uleb128 0x11
 528 01a6 94010000 		.4byte	0x194
 529 01aa 12       		.uleb128 0x12
 530 01ab 38010000 		.4byte	.LASF30
 531 01af 01       		.byte	0x1
 532 01b0 44       		.byte	0x44
 533 01b1 00000000 		.4byte	.LFB63
 534 01b5 04000000 		.4byte	.LFE63-.LFB63
 535 01b9 01       		.uleb128 0x1
 536 01ba 9C       		.byte	0x9c
 537 01bb C9010000 		.4byte	0x1c9
 538 01bf 13       		.uleb128 0x13
 539 01c0 04000000 		.4byte	.LVL0
 540 01c4 54040000 		.4byte	0x454
 541 01c8 00       		.byte	0
 542 01c9 12       		.uleb128 0x12
 543 01ca CA020000 		.4byte	.LASF31
 544 01ce 01       		.byte	0x1
 545 01cf 50       		.byte	0x50
 546 01d0 00000000 		.4byte	.LFB64
 547 01d4 0A000000 		.4byte	.LFE64-.LFB64
 548 01d8 01       		.uleb128 0x1
 549 01d9 9C       		.byte	0x9c
 550 01da EC010000 		.4byte	0x1ec
 551 01de 14       		.uleb128 0x14
 552 01df 44020000 		.4byte	.LASF33
 553 01e3 01       		.byte	0x1
 554 01e4 50       		.byte	0x50
 555 01e5 3E010000 		.4byte	0x13e
 556 01e9 01       		.uleb128 0x1
 557 01ea 50       		.byte	0x50
 558 01eb 00       		.byte	0
 559 01ec 12       		.uleb128 0x12
 560 01ed 5F010000 		.4byte	.LASF32
 561 01f1 01       		.byte	0x1
 562 01f2 60       		.byte	0x60
 563 01f3 00000000 		.4byte	.LFB65
 564 01f7 1C000000 		.4byte	.LFE65-.LFB65
 565 01fb 01       		.uleb128 0x1
 566 01fc 9C       		.byte	0x9c
 567 01fd 62020000 		.4byte	0x262
 568 0201 15       		.uleb128 0x15
 569 0202 44020000 		.4byte	.LASF33
 570 0206 01       		.byte	0x1
ARM GAS  /var/folders/6q/x_mk5n_j3p7_c40r_2k_78980000gn/T//ccKT3Jiv.s 			page 11


 571 0207 60       		.byte	0x60
 572 0208 3E010000 		.4byte	0x13e
 573 020c 00000000 		.4byte	.LLST0
 574 0210 15       		.uleb128 0x15
 575 0211 F9010000 		.4byte	.LASF23
 576 0215 01       		.byte	0x1
 577 0216 60       		.byte	0x60
 578 0217 9F010000 		.4byte	0x19f
 579 021b 1E000000 		.4byte	.LLST1
 580 021f 16       		.uleb128 0x16
 581 0220 00000000 		.4byte	.Ldebug_ranges0+0
 582 0224 36020000 		.4byte	0x236
 583 0228 17       		.uleb128 0x17
 584 0229 746D7000 		.ascii	"tmp\000"
 585 022d 01       		.byte	0x1
 586 022e 64       		.byte	0x64
 587 022f 93000000 		.4byte	0x93
 588 0233 01       		.uleb128 0x1
 589 0234 53       		.byte	0x53
 590 0235 00       		.byte	0
 591 0236 18       		.uleb128 0x18
 592 0237 14000000 		.4byte	.LBB4
 593 023b 08000000 		.4byte	.LBE4-.LBB4
 594 023f 51020000 		.4byte	0x251
 595 0243 17       		.uleb128 0x17
 596 0244 746D7000 		.ascii	"tmp\000"
 597 0248 01       		.byte	0x1
 598 0249 6A       		.byte	0x6a
 599 024a 93000000 		.4byte	0x93
 600 024e 01       		.uleb128 0x1
 601 024f 53       		.byte	0x53
 602 0250 00       		.byte	0
 603 0251 19       		.uleb128 0x19
 604 0252 10000000 		.4byte	.LVL3
 605 0256 5F040000 		.4byte	0x45f
 606 025a 1A       		.uleb128 0x1a
 607 025b 01       		.uleb128 0x1
 608 025c 50       		.byte	0x50
 609 025d 02       		.uleb128 0x2
 610 025e 74       		.byte	0x74
 611 025f 00       		.sleb128 0
 612 0260 00       		.byte	0
 613 0261 00       		.byte	0
 614 0262 12       		.uleb128 0x12
 615 0263 30010000 		.4byte	.LASF34
 616 0267 01       		.byte	0x1
 617 0268 74       		.byte	0x74
 618 0269 00000000 		.4byte	.LFB66
 619 026d 1A000000 		.4byte	.LFE66-.LFB66
 620 0271 01       		.uleb128 0x1
 621 0272 9C       		.byte	0x9c
 622 0273 C9020000 		.4byte	0x2c9
 623 0277 15       		.uleb128 0x15
 624 0278 44020000 		.4byte	.LASF33
 625 027c 01       		.byte	0x1
 626 027d 74       		.byte	0x74
 627 027e 3E010000 		.4byte	0x13e
ARM GAS  /var/folders/6q/x_mk5n_j3p7_c40r_2k_78980000gn/T//ccKT3Jiv.s 			page 12


 628 0282 3F000000 		.4byte	.LLST2
 629 0286 16       		.uleb128 0x16
 630 0287 18000000 		.4byte	.Ldebug_ranges0+0x18
 631 028b 9D020000 		.4byte	0x29d
 632 028f 17       		.uleb128 0x17
 633 0290 746D7000 		.ascii	"tmp\000"
 634 0294 01       		.byte	0x1
 635 0295 78       		.byte	0x78
 636 0296 93000000 		.4byte	0x93
 637 029a 01       		.uleb128 0x1
 638 029b 53       		.byte	0x53
 639 029c 00       		.byte	0
 640 029d 18       		.uleb128 0x18
 641 029e 12000000 		.4byte	.LBB7
 642 02a2 08000000 		.4byte	.LBE7-.LBB7
 643 02a6 B8020000 		.4byte	0x2b8
 644 02aa 17       		.uleb128 0x17
 645 02ab 746D7000 		.ascii	"tmp\000"
 646 02af 01       		.byte	0x1
 647 02b0 7D       		.byte	0x7d
 648 02b1 93000000 		.4byte	0x93
 649 02b5 01       		.uleb128 0x1
 650 02b6 53       		.byte	0x53
 651 02b7 00       		.byte	0
 652 02b8 19       		.uleb128 0x19
 653 02b9 0E000000 		.4byte	.LVL5
 654 02bd 6A040000 		.4byte	0x46a
 655 02c1 1A       		.uleb128 0x1a
 656 02c2 01       		.uleb128 0x1
 657 02c3 50       		.byte	0x50
 658 02c4 02       		.uleb128 0x2
 659 02c5 74       		.byte	0x74
 660 02c6 00       		.sleb128 0
 661 02c7 00       		.byte	0
 662 02c8 00       		.byte	0
 663 02c9 12       		.uleb128 0x12
 664 02ca AF020000 		.4byte	.LASF35
 665 02ce 01       		.byte	0x1
 666 02cf 89       		.byte	0x89
 667 02d0 00000000 		.4byte	.LFB67
 668 02d4 14000000 		.4byte	.LFE67-.LFB67
 669 02d8 01       		.uleb128 0x1
 670 02d9 9C       		.byte	0x9c
 671 02da 4B030000 		.4byte	0x34b
 672 02de 15       		.uleb128 0x15
 673 02df 44020000 		.4byte	.LASF33
 674 02e3 01       		.byte	0x1
 675 02e4 89       		.byte	0x89
 676 02e5 3E010000 		.4byte	0x13e
 677 02e9 5D000000 		.4byte	.LLST3
 678 02ed 15       		.uleb128 0x15
 679 02ee E4000000 		.4byte	.LASF36
 680 02f2 01       		.byte	0x1
 681 02f3 89       		.byte	0x89
 682 02f4 12010000 		.4byte	0x112
 683 02f8 7E000000 		.4byte	.LLST4
 684 02fc 18       		.uleb128 0x18
ARM GAS  /var/folders/6q/x_mk5n_j3p7_c40r_2k_78980000gn/T//ccKT3Jiv.s 			page 13


 685 02fd 02000000 		.4byte	.LBB8
 686 0301 06000000 		.4byte	.LBE8-.LBB8
 687 0305 17030000 		.4byte	0x317
 688 0309 17       		.uleb128 0x17
 689 030a 746D7000 		.ascii	"tmp\000"
 690 030e 01       		.byte	0x1
 691 030f 8E       		.byte	0x8e
 692 0310 93000000 		.4byte	0x93
 693 0314 01       		.uleb128 0x1
 694 0315 53       		.byte	0x53
 695 0316 00       		.byte	0
 696 0317 18       		.uleb128 0x18
 697 0318 0C000000 		.4byte	.LBB9
 698 031c 08000000 		.4byte	.LBE9-.LBB9
 699 0320 32030000 		.4byte	0x332
 700 0324 17       		.uleb128 0x17
 701 0325 746D7000 		.ascii	"tmp\000"
 702 0329 01       		.byte	0x1
 703 032a 94       		.byte	0x94
 704 032b 93000000 		.4byte	0x93
 705 032f 01       		.uleb128 0x1
 706 0330 53       		.byte	0x53
 707 0331 00       		.byte	0
 708 0332 19       		.uleb128 0x19
 709 0333 0C000000 		.4byte	.LVL7
 710 0337 75040000 		.4byte	0x475
 711 033b 1A       		.uleb128 0x1a
 712 033c 01       		.uleb128 0x1
 713 033d 50       		.byte	0x50
 714 033e 03       		.uleb128 0x3
 715 033f F3       		.byte	0xf3
 716 0340 01       		.uleb128 0x1
 717 0341 50       		.byte	0x50
 718 0342 1A       		.uleb128 0x1a
 719 0343 01       		.uleb128 0x1
 720 0344 51       		.byte	0x51
 721 0345 03       		.uleb128 0x3
 722 0346 F3       		.byte	0xf3
 723 0347 01       		.uleb128 0x1
 724 0348 51       		.byte	0x51
 725 0349 00       		.byte	0
 726 034a 00       		.byte	0
 727 034b 12       		.uleb128 0x12
 728 034c 40010000 		.4byte	.LASF37
 729 0350 01       		.byte	0x1
 730 0351 A0       		.byte	0xa0
 731 0352 00000000 		.4byte	.LFB68
 732 0356 14000000 		.4byte	.LFE68-.LFB68
 733 035a 01       		.uleb128 0x1
 734 035b 9C       		.byte	0x9c
 735 035c CD030000 		.4byte	0x3cd
 736 0360 15       		.uleb128 0x15
 737 0361 44020000 		.4byte	.LASF33
 738 0365 01       		.byte	0x1
 739 0366 A0       		.byte	0xa0
 740 0367 3E010000 		.4byte	0x13e
 741 036b 9F000000 		.4byte	.LLST5
ARM GAS  /var/folders/6q/x_mk5n_j3p7_c40r_2k_78980000gn/T//ccKT3Jiv.s 			page 14


 742 036f 15       		.uleb128 0x15
 743 0370 E4000000 		.4byte	.LASF36
 744 0374 01       		.byte	0x1
 745 0375 A0       		.byte	0xa0
 746 0376 12010000 		.4byte	0x112
 747 037a C0000000 		.4byte	.LLST6
 748 037e 18       		.uleb128 0x18
 749 037f 02000000 		.4byte	.LBB10
 750 0383 06000000 		.4byte	.LBE10-.LBB10
 751 0387 99030000 		.4byte	0x399
 752 038b 17       		.uleb128 0x17
 753 038c 746D7000 		.ascii	"tmp\000"
 754 0390 01       		.byte	0x1
 755 0391 A5       		.byte	0xa5
 756 0392 93000000 		.4byte	0x93
 757 0396 01       		.uleb128 0x1
 758 0397 53       		.byte	0x53
 759 0398 00       		.byte	0
 760 0399 18       		.uleb128 0x18
 761 039a 0C000000 		.4byte	.LBB11
 762 039e 08000000 		.4byte	.LBE11-.LBB11
 763 03a2 B4030000 		.4byte	0x3b4
 764 03a6 17       		.uleb128 0x17
 765 03a7 746D7000 		.ascii	"tmp\000"
 766 03ab 01       		.byte	0x1
 767 03ac AB       		.byte	0xab
 768 03ad 93000000 		.4byte	0x93
 769 03b1 01       		.uleb128 0x1
 770 03b2 53       		.byte	0x53
 771 03b3 00       		.byte	0
 772 03b4 19       		.uleb128 0x19
 773 03b5 0C000000 		.4byte	.LVL9
 774 03b9 80040000 		.4byte	0x480
 775 03bd 1A       		.uleb128 0x1a
 776 03be 01       		.uleb128 0x1
 777 03bf 50       		.byte	0x50
 778 03c0 03       		.uleb128 0x3
 779 03c1 F3       		.byte	0xf3
 780 03c2 01       		.uleb128 0x1
 781 03c3 50       		.byte	0x50
 782 03c4 1A       		.uleb128 0x1a
 783 03c5 01       		.uleb128 0x1
 784 03c6 51       		.byte	0x51
 785 03c7 03       		.uleb128 0x3
 786 03c8 F3       		.byte	0xf3
 787 03c9 01       		.uleb128 0x1
 788 03ca 51       		.byte	0x51
 789 03cb 00       		.byte	0
 790 03cc 00       		.byte	0
 791 03cd 12       		.uleb128 0x12
 792 03ce 6E020000 		.4byte	.LASF38
 793 03d2 01       		.byte	0x1
 794 03d3 BF       		.byte	0xbf
 795 03d4 00000000 		.4byte	.LFB69
 796 03d8 1E000000 		.4byte	.LFE69-.LFB69
 797 03dc 01       		.uleb128 0x1
 798 03dd 9C       		.byte	0x9c
ARM GAS  /var/folders/6q/x_mk5n_j3p7_c40r_2k_78980000gn/T//ccKT3Jiv.s 			page 15


 799 03de 37040000 		.4byte	0x437
 800 03e2 15       		.uleb128 0x15
 801 03e3 44020000 		.4byte	.LASF33
 802 03e7 01       		.byte	0x1
 803 03e8 BF       		.byte	0xbf
 804 03e9 3E010000 		.4byte	0x13e
 805 03ed E1000000 		.4byte	.LLST7
 806 03f1 15       		.uleb128 0x15
 807 03f2 E4000000 		.4byte	.LASF36
 808 03f6 01       		.byte	0x1
 809 03f7 C0       		.byte	0xc0
 810 03f8 12010000 		.4byte	0x112
 811 03fc 18010000 		.4byte	.LLST8
 812 0400 15       		.uleb128 0x15
 813 0401 A5010000 		.4byte	.LASF39
 814 0405 01       		.byte	0x1
 815 0406 C1       		.byte	0xc1
 816 0407 37040000 		.4byte	0x437
 817 040b 4F010000 		.4byte	.LLST9
 818 040f 1B       		.uleb128 0x1b
 819 0410 81020000 		.4byte	.LASF40
 820 0414 01       		.byte	0x1
 821 0415 C2       		.byte	0xc2
 822 0416 42040000 		.4byte	0x442
 823 041a 70010000 		.4byte	.LLST10
 824 041e 1C       		.uleb128 0x1c
 825 041f 1E000000 		.4byte	.LVL15
 826 0423 75040000 		.4byte	0x475
 827 0427 1A       		.uleb128 0x1a
 828 0428 01       		.uleb128 0x1
 829 0429 50       		.byte	0x50
 830 042a 03       		.uleb128 0x3
 831 042b F3       		.byte	0xf3
 832 042c 01       		.uleb128 0x1
 833 042d 50       		.byte	0x50
 834 042e 1A       		.uleb128 0x1a
 835 042f 01       		.uleb128 0x1
 836 0430 51       		.byte	0x51
 837 0431 03       		.uleb128 0x3
 838 0432 F3       		.byte	0xf3
 839 0433 01       		.uleb128 0x1
 840 0434 51       		.byte	0x51
 841 0435 00       		.byte	0
 842 0436 00       		.byte	0
 843 0437 0A       		.uleb128 0xa
 844 0438 04       		.byte	0x4
 845 0439 3D040000 		.4byte	0x43d
 846 043d 11       		.uleb128 0x11
 847 043e 64010000 		.4byte	0x164
 848 0442 0A       		.uleb128 0xa
 849 0443 04       		.byte	0x4
 850 0444 64010000 		.4byte	0x164
 851 0448 1D       		.uleb128 0x1d
 852 0449 D0010000 		.4byte	.LASF49
 853 044d 06       		.byte	0x6
 854 044e 0706     		.2byte	0x607
 855 0450 B3000000 		.4byte	0xb3
ARM GAS  /var/folders/6q/x_mk5n_j3p7_c40r_2k_78980000gn/T//ccKT3Jiv.s 			page 16


 856 0454 1E       		.uleb128 0x1e
 857 0455 EC000000 		.4byte	.LASF41
 858 0459 EC000000 		.4byte	.LASF41
 859 045d 05       		.byte	0x5
 860 045e 8C       		.byte	0x8c
 861 045f 1E       		.uleb128 0x1e
 862 0460 2A030000 		.4byte	.LASF42
 863 0464 2A030000 		.4byte	.LASF42
 864 0468 05       		.byte	0x5
 865 0469 8D       		.byte	0x8d
 866 046a 1E       		.uleb128 0x1e
 867 046b 61020000 		.4byte	.LASF43
 868 046f 61020000 		.4byte	.LASF43
 869 0473 05       		.byte	0x5
 870 0474 8E       		.byte	0x8e
 871 0475 1E       		.uleb128 0x1e
 872 0476 15020000 		.4byte	.LASF44
 873 047a 15020000 		.4byte	.LASF44
 874 047e 05       		.byte	0x5
 875 047f 8F       		.byte	0x8f
 876 0480 1E       		.uleb128 0x1e
 877 0481 68010000 		.4byte	.LASF45
 878 0485 68010000 		.4byte	.LASF45
 879 0489 05       		.byte	0x5
 880 048a 90       		.byte	0x90
 881 048b 00       		.byte	0
 882              		.section	.debug_abbrev,"",%progbits
 883              	.Ldebug_abbrev0:
 884 0000 01       		.uleb128 0x1
 885 0001 11       		.uleb128 0x11
 886 0002 01       		.byte	0x1
 887 0003 25       		.uleb128 0x25
 888 0004 0E       		.uleb128 0xe
 889 0005 13       		.uleb128 0x13
 890 0006 0B       		.uleb128 0xb
 891 0007 03       		.uleb128 0x3
 892 0008 0E       		.uleb128 0xe
 893 0009 1B       		.uleb128 0x1b
 894 000a 0E       		.uleb128 0xe
 895 000b 55       		.uleb128 0x55
 896 000c 17       		.uleb128 0x17
 897 000d 11       		.uleb128 0x11
 898 000e 01       		.uleb128 0x1
 899 000f 10       		.uleb128 0x10
 900 0010 17       		.uleb128 0x17
 901 0011 00       		.byte	0
 902 0012 00       		.byte	0
 903 0013 02       		.uleb128 0x2
 904 0014 24       		.uleb128 0x24
 905 0015 00       		.byte	0
 906 0016 0B       		.uleb128 0xb
 907 0017 0B       		.uleb128 0xb
 908 0018 3E       		.uleb128 0x3e
 909 0019 0B       		.uleb128 0xb
 910 001a 03       		.uleb128 0x3
 911 001b 08       		.uleb128 0x8
 912 001c 00       		.byte	0
ARM GAS  /var/folders/6q/x_mk5n_j3p7_c40r_2k_78980000gn/T//ccKT3Jiv.s 			page 17


 913 001d 00       		.byte	0
 914 001e 03       		.uleb128 0x3
 915 001f 24       		.uleb128 0x24
 916 0020 00       		.byte	0
 917 0021 0B       		.uleb128 0xb
 918 0022 0B       		.uleb128 0xb
 919 0023 3E       		.uleb128 0x3e
 920 0024 0B       		.uleb128 0xb
 921 0025 03       		.uleb128 0x3
 922 0026 0E       		.uleb128 0xe
 923 0027 00       		.byte	0
 924 0028 00       		.byte	0
 925 0029 04       		.uleb128 0x4
 926 002a 16       		.uleb128 0x16
 927 002b 00       		.byte	0
 928 002c 03       		.uleb128 0x3
 929 002d 0E       		.uleb128 0xe
 930 002e 3A       		.uleb128 0x3a
 931 002f 0B       		.uleb128 0xb
 932 0030 3B       		.uleb128 0x3b
 933 0031 0B       		.uleb128 0xb
 934 0032 49       		.uleb128 0x49
 935 0033 13       		.uleb128 0x13
 936 0034 00       		.byte	0
 937 0035 00       		.byte	0
 938 0036 05       		.uleb128 0x5
 939 0037 35       		.uleb128 0x35
 940 0038 00       		.byte	0
 941 0039 49       		.uleb128 0x49
 942 003a 13       		.uleb128 0x13
 943 003b 00       		.byte	0
 944 003c 00       		.byte	0
 945 003d 06       		.uleb128 0x6
 946 003e 04       		.uleb128 0x4
 947 003f 01       		.byte	0x1
 948 0040 0B       		.uleb128 0xb
 949 0041 0B       		.uleb128 0xb
 950 0042 49       		.uleb128 0x49
 951 0043 13       		.uleb128 0x13
 952 0044 3A       		.uleb128 0x3a
 953 0045 0B       		.uleb128 0xb
 954 0046 3B       		.uleb128 0x3b
 955 0047 0B       		.uleb128 0xb
 956 0048 01       		.uleb128 0x1
 957 0049 13       		.uleb128 0x13
 958 004a 00       		.byte	0
 959 004b 00       		.byte	0
 960 004c 07       		.uleb128 0x7
 961 004d 28       		.uleb128 0x28
 962 004e 00       		.byte	0
 963 004f 03       		.uleb128 0x3
 964 0050 0E       		.uleb128 0xe
 965 0051 1C       		.uleb128 0x1c
 966 0052 0B       		.uleb128 0xb
 967 0053 00       		.byte	0
 968 0054 00       		.byte	0
 969 0055 08       		.uleb128 0x8
ARM GAS  /var/folders/6q/x_mk5n_j3p7_c40r_2k_78980000gn/T//ccKT3Jiv.s 			page 18


 970 0056 13       		.uleb128 0x13
 971 0057 01       		.byte	0x1
 972 0058 03       		.uleb128 0x3
 973 0059 0E       		.uleb128 0xe
 974 005a 0B       		.uleb128 0xb
 975 005b 0B       		.uleb128 0xb
 976 005c 3A       		.uleb128 0x3a
 977 005d 0B       		.uleb128 0xb
 978 005e 3B       		.uleb128 0x3b
 979 005f 0B       		.uleb128 0xb
 980 0060 01       		.uleb128 0x1
 981 0061 13       		.uleb128 0x13
 982 0062 00       		.byte	0
 983 0063 00       		.byte	0
 984 0064 09       		.uleb128 0x9
 985 0065 0D       		.uleb128 0xd
 986 0066 00       		.byte	0
 987 0067 03       		.uleb128 0x3
 988 0068 0E       		.uleb128 0xe
 989 0069 3A       		.uleb128 0x3a
 990 006a 0B       		.uleb128 0xb
 991 006b 3B       		.uleb128 0x3b
 992 006c 0B       		.uleb128 0xb
 993 006d 49       		.uleb128 0x49
 994 006e 13       		.uleb128 0x13
 995 006f 38       		.uleb128 0x38
 996 0070 0B       		.uleb128 0xb
 997 0071 00       		.byte	0
 998 0072 00       		.byte	0
 999 0073 0A       		.uleb128 0xa
 1000 0074 0F       		.uleb128 0xf
 1001 0075 00       		.byte	0
 1002 0076 0B       		.uleb128 0xb
 1003 0077 0B       		.uleb128 0xb
 1004 0078 49       		.uleb128 0x49
 1005 0079 13       		.uleb128 0x13
 1006 007a 00       		.byte	0
 1007 007b 00       		.byte	0
 1008 007c 0B       		.uleb128 0xb
 1009 007d 15       		.uleb128 0x15
 1010 007e 01       		.byte	0x1
 1011 007f 27       		.uleb128 0x27
 1012 0080 19       		.uleb128 0x19
 1013 0081 01       		.uleb128 0x1
 1014 0082 13       		.uleb128 0x13
 1015 0083 00       		.byte	0
 1016 0084 00       		.byte	0
 1017 0085 0C       		.uleb128 0xc
 1018 0086 05       		.uleb128 0x5
 1019 0087 00       		.byte	0
 1020 0088 49       		.uleb128 0x49
 1021 0089 13       		.uleb128 0x13
 1022 008a 00       		.byte	0
 1023 008b 00       		.byte	0
 1024 008c 0D       		.uleb128 0xd
 1025 008d 13       		.uleb128 0x13
 1026 008e 01       		.byte	0x1
ARM GAS  /var/folders/6q/x_mk5n_j3p7_c40r_2k_78980000gn/T//ccKT3Jiv.s 			page 19


 1027 008f 0B       		.uleb128 0xb
 1028 0090 0B       		.uleb128 0xb
 1029 0091 3A       		.uleb128 0x3a
 1030 0092 0B       		.uleb128 0xb
 1031 0093 3B       		.uleb128 0x3b
 1032 0094 0B       		.uleb128 0xb
 1033 0095 01       		.uleb128 0x1
 1034 0096 13       		.uleb128 0x13
 1035 0097 00       		.byte	0
 1036 0098 00       		.byte	0
 1037 0099 0E       		.uleb128 0xe
 1038 009a 0D       		.uleb128 0xd
 1039 009b 00       		.byte	0
 1040 009c 03       		.uleb128 0x3
 1041 009d 08       		.uleb128 0x8
 1042 009e 3A       		.uleb128 0x3a
 1043 009f 0B       		.uleb128 0xb
 1044 00a0 3B       		.uleb128 0x3b
 1045 00a1 0B       		.uleb128 0xb
 1046 00a2 49       		.uleb128 0x49
 1047 00a3 13       		.uleb128 0x13
 1048 00a4 38       		.uleb128 0x38
 1049 00a5 0B       		.uleb128 0xb
 1050 00a6 00       		.byte	0
 1051 00a7 00       		.byte	0
 1052 00a8 0F       		.uleb128 0xf
 1053 00a9 01       		.uleb128 0x1
 1054 00aa 01       		.byte	0x1
 1055 00ab 49       		.uleb128 0x49
 1056 00ac 13       		.uleb128 0x13
 1057 00ad 01       		.uleb128 0x1
 1058 00ae 13       		.uleb128 0x13
 1059 00af 00       		.byte	0
 1060 00b0 00       		.byte	0
 1061 00b1 10       		.uleb128 0x10
 1062 00b2 21       		.uleb128 0x21
 1063 00b3 00       		.byte	0
 1064 00b4 49       		.uleb128 0x49
 1065 00b5 13       		.uleb128 0x13
 1066 00b6 2F       		.uleb128 0x2f
 1067 00b7 0B       		.uleb128 0xb
 1068 00b8 00       		.byte	0
 1069 00b9 00       		.byte	0
 1070 00ba 11       		.uleb128 0x11
 1071 00bb 26       		.uleb128 0x26
 1072 00bc 00       		.byte	0
 1073 00bd 49       		.uleb128 0x49
 1074 00be 13       		.uleb128 0x13
 1075 00bf 00       		.byte	0
 1076 00c0 00       		.byte	0
 1077 00c1 12       		.uleb128 0x12
 1078 00c2 2E       		.uleb128 0x2e
 1079 00c3 01       		.byte	0x1
 1080 00c4 3F       		.uleb128 0x3f
 1081 00c5 19       		.uleb128 0x19
 1082 00c6 03       		.uleb128 0x3
 1083 00c7 0E       		.uleb128 0xe
ARM GAS  /var/folders/6q/x_mk5n_j3p7_c40r_2k_78980000gn/T//ccKT3Jiv.s 			page 20


 1084 00c8 3A       		.uleb128 0x3a
 1085 00c9 0B       		.uleb128 0xb
 1086 00ca 3B       		.uleb128 0x3b
 1087 00cb 0B       		.uleb128 0xb
 1088 00cc 27       		.uleb128 0x27
 1089 00cd 19       		.uleb128 0x19
 1090 00ce 11       		.uleb128 0x11
 1091 00cf 01       		.uleb128 0x1
 1092 00d0 12       		.uleb128 0x12
 1093 00d1 06       		.uleb128 0x6
 1094 00d2 40       		.uleb128 0x40
 1095 00d3 18       		.uleb128 0x18
 1096 00d4 9742     		.uleb128 0x2117
 1097 00d6 19       		.uleb128 0x19
 1098 00d7 01       		.uleb128 0x1
 1099 00d8 13       		.uleb128 0x13
 1100 00d9 00       		.byte	0
 1101 00da 00       		.byte	0
 1102 00db 13       		.uleb128 0x13
 1103 00dc 898201   		.uleb128 0x4109
 1104 00df 00       		.byte	0
 1105 00e0 11       		.uleb128 0x11
 1106 00e1 01       		.uleb128 0x1
 1107 00e2 9542     		.uleb128 0x2115
 1108 00e4 19       		.uleb128 0x19
 1109 00e5 31       		.uleb128 0x31
 1110 00e6 13       		.uleb128 0x13
 1111 00e7 00       		.byte	0
 1112 00e8 00       		.byte	0
 1113 00e9 14       		.uleb128 0x14
 1114 00ea 05       		.uleb128 0x5
 1115 00eb 00       		.byte	0
 1116 00ec 03       		.uleb128 0x3
 1117 00ed 0E       		.uleb128 0xe
 1118 00ee 3A       		.uleb128 0x3a
 1119 00ef 0B       		.uleb128 0xb
 1120 00f0 3B       		.uleb128 0x3b
 1121 00f1 0B       		.uleb128 0xb
 1122 00f2 49       		.uleb128 0x49
 1123 00f3 13       		.uleb128 0x13
 1124 00f4 02       		.uleb128 0x2
 1125 00f5 18       		.uleb128 0x18
 1126 00f6 00       		.byte	0
 1127 00f7 00       		.byte	0
 1128 00f8 15       		.uleb128 0x15
 1129 00f9 05       		.uleb128 0x5
 1130 00fa 00       		.byte	0
 1131 00fb 03       		.uleb128 0x3
 1132 00fc 0E       		.uleb128 0xe
 1133 00fd 3A       		.uleb128 0x3a
 1134 00fe 0B       		.uleb128 0xb
 1135 00ff 3B       		.uleb128 0x3b
 1136 0100 0B       		.uleb128 0xb
 1137 0101 49       		.uleb128 0x49
 1138 0102 13       		.uleb128 0x13
 1139 0103 02       		.uleb128 0x2
 1140 0104 17       		.uleb128 0x17
ARM GAS  /var/folders/6q/x_mk5n_j3p7_c40r_2k_78980000gn/T//ccKT3Jiv.s 			page 21


 1141 0105 00       		.byte	0
 1142 0106 00       		.byte	0
 1143 0107 16       		.uleb128 0x16
 1144 0108 0B       		.uleb128 0xb
 1145 0109 01       		.byte	0x1
 1146 010a 55       		.uleb128 0x55
 1147 010b 17       		.uleb128 0x17
 1148 010c 01       		.uleb128 0x1
 1149 010d 13       		.uleb128 0x13
 1150 010e 00       		.byte	0
 1151 010f 00       		.byte	0
 1152 0110 17       		.uleb128 0x17
 1153 0111 34       		.uleb128 0x34
 1154 0112 00       		.byte	0
 1155 0113 03       		.uleb128 0x3
 1156 0114 08       		.uleb128 0x8
 1157 0115 3A       		.uleb128 0x3a
 1158 0116 0B       		.uleb128 0xb
 1159 0117 3B       		.uleb128 0x3b
 1160 0118 0B       		.uleb128 0xb
 1161 0119 49       		.uleb128 0x49
 1162 011a 13       		.uleb128 0x13
 1163 011b 02       		.uleb128 0x2
 1164 011c 18       		.uleb128 0x18
 1165 011d 00       		.byte	0
 1166 011e 00       		.byte	0
 1167 011f 18       		.uleb128 0x18
 1168 0120 0B       		.uleb128 0xb
 1169 0121 01       		.byte	0x1
 1170 0122 11       		.uleb128 0x11
 1171 0123 01       		.uleb128 0x1
 1172 0124 12       		.uleb128 0x12
 1173 0125 06       		.uleb128 0x6
 1174 0126 01       		.uleb128 0x1
 1175 0127 13       		.uleb128 0x13
 1176 0128 00       		.byte	0
 1177 0129 00       		.byte	0
 1178 012a 19       		.uleb128 0x19
 1179 012b 898201   		.uleb128 0x4109
 1180 012e 01       		.byte	0x1
 1181 012f 11       		.uleb128 0x11
 1182 0130 01       		.uleb128 0x1
 1183 0131 31       		.uleb128 0x31
 1184 0132 13       		.uleb128 0x13
 1185 0133 00       		.byte	0
 1186 0134 00       		.byte	0
 1187 0135 1A       		.uleb128 0x1a
 1188 0136 8A8201   		.uleb128 0x410a
 1189 0139 00       		.byte	0
 1190 013a 02       		.uleb128 0x2
 1191 013b 18       		.uleb128 0x18
 1192 013c 9142     		.uleb128 0x2111
 1193 013e 18       		.uleb128 0x18
 1194 013f 00       		.byte	0
 1195 0140 00       		.byte	0
 1196 0141 1B       		.uleb128 0x1b
 1197 0142 34       		.uleb128 0x34
ARM GAS  /var/folders/6q/x_mk5n_j3p7_c40r_2k_78980000gn/T//ccKT3Jiv.s 			page 22


 1198 0143 00       		.byte	0
 1199 0144 03       		.uleb128 0x3
 1200 0145 0E       		.uleb128 0xe
 1201 0146 3A       		.uleb128 0x3a
 1202 0147 0B       		.uleb128 0xb
 1203 0148 3B       		.uleb128 0x3b
 1204 0149 0B       		.uleb128 0xb
 1205 014a 49       		.uleb128 0x49
 1206 014b 13       		.uleb128 0x13
 1207 014c 02       		.uleb128 0x2
 1208 014d 17       		.uleb128 0x17
 1209 014e 00       		.byte	0
 1210 014f 00       		.byte	0
 1211 0150 1C       		.uleb128 0x1c
 1212 0151 898201   		.uleb128 0x4109
 1213 0154 01       		.byte	0x1
 1214 0155 11       		.uleb128 0x11
 1215 0156 01       		.uleb128 0x1
 1216 0157 9542     		.uleb128 0x2115
 1217 0159 19       		.uleb128 0x19
 1218 015a 31       		.uleb128 0x31
 1219 015b 13       		.uleb128 0x13
 1220 015c 00       		.byte	0
 1221 015d 00       		.byte	0
 1222 015e 1D       		.uleb128 0x1d
 1223 015f 34       		.uleb128 0x34
 1224 0160 00       		.byte	0
 1225 0161 03       		.uleb128 0x3
 1226 0162 0E       		.uleb128 0xe
 1227 0163 3A       		.uleb128 0x3a
 1228 0164 0B       		.uleb128 0xb
 1229 0165 3B       		.uleb128 0x3b
 1230 0166 05       		.uleb128 0x5
 1231 0167 49       		.uleb128 0x49
 1232 0168 13       		.uleb128 0x13
 1233 0169 3F       		.uleb128 0x3f
 1234 016a 19       		.uleb128 0x19
 1235 016b 3C       		.uleb128 0x3c
 1236 016c 19       		.uleb128 0x19
 1237 016d 00       		.byte	0
 1238 016e 00       		.byte	0
 1239 016f 1E       		.uleb128 0x1e
 1240 0170 2E       		.uleb128 0x2e
 1241 0171 00       		.byte	0
 1242 0172 3F       		.uleb128 0x3f
 1243 0173 19       		.uleb128 0x19
 1244 0174 3C       		.uleb128 0x3c
 1245 0175 19       		.uleb128 0x19
 1246 0176 6E       		.uleb128 0x6e
 1247 0177 0E       		.uleb128 0xe
 1248 0178 03       		.uleb128 0x3
 1249 0179 0E       		.uleb128 0xe
 1250 017a 3A       		.uleb128 0x3a
 1251 017b 0B       		.uleb128 0xb
 1252 017c 3B       		.uleb128 0x3b
 1253 017d 0B       		.uleb128 0xb
 1254 017e 00       		.byte	0
ARM GAS  /var/folders/6q/x_mk5n_j3p7_c40r_2k_78980000gn/T//ccKT3Jiv.s 			page 23


 1255 017f 00       		.byte	0
 1256 0180 00       		.byte	0
 1257              		.section	.debug_loc,"",%progbits
 1258              	.Ldebug_loc0:
 1259              	.LLST0:
 1260 0000 00000000 		.4byte	.LVL2
 1261 0004 0F000000 		.4byte	.LVL3-1
 1262 0008 0100     		.2byte	0x1
 1263 000a 50       		.byte	0x50
 1264 000b 0F000000 		.4byte	.LVL3-1
 1265 000f 1C000000 		.4byte	.LFE65
 1266 0013 0100     		.2byte	0x1
 1267 0015 54       		.byte	0x54
 1268 0016 00000000 		.4byte	0
 1269 001a 00000000 		.4byte	0
 1270              	.LLST1:
 1271 001e 00000000 		.4byte	.LVL2
 1272 0022 0F000000 		.4byte	.LVL3-1
 1273 0026 0100     		.2byte	0x1
 1274 0028 51       		.byte	0x51
 1275 0029 0F000000 		.4byte	.LVL3-1
 1276 002d 1C000000 		.4byte	.LFE65
 1277 0031 0400     		.2byte	0x4
 1278 0033 F3       		.byte	0xf3
 1279 0034 01       		.uleb128 0x1
 1280 0035 51       		.byte	0x51
 1281 0036 9F       		.byte	0x9f
 1282 0037 00000000 		.4byte	0
 1283 003b 00000000 		.4byte	0
 1284              	.LLST2:
 1285 003f 00000000 		.4byte	.LVL4
 1286 0043 0D000000 		.4byte	.LVL5-1
 1287 0047 0100     		.2byte	0x1
 1288 0049 50       		.byte	0x50
 1289 004a 0D000000 		.4byte	.LVL5-1
 1290 004e 1A000000 		.4byte	.LFE66
 1291 0052 0100     		.2byte	0x1
 1292 0054 54       		.byte	0x54
 1293 0055 00000000 		.4byte	0
 1294 0059 00000000 		.4byte	0
 1295              	.LLST3:
 1296 005d 00000000 		.4byte	.LVL6
 1297 0061 0B000000 		.4byte	.LVL7-1
 1298 0065 0100     		.2byte	0x1
 1299 0067 50       		.byte	0x50
 1300 0068 0B000000 		.4byte	.LVL7-1
 1301 006c 14000000 		.4byte	.LFE67
 1302 0070 0400     		.2byte	0x4
 1303 0072 F3       		.byte	0xf3
 1304 0073 01       		.uleb128 0x1
 1305 0074 50       		.byte	0x50
 1306 0075 9F       		.byte	0x9f
 1307 0076 00000000 		.4byte	0
 1308 007a 00000000 		.4byte	0
 1309              	.LLST4:
 1310 007e 00000000 		.4byte	.LVL6
 1311 0082 0B000000 		.4byte	.LVL7-1
ARM GAS  /var/folders/6q/x_mk5n_j3p7_c40r_2k_78980000gn/T//ccKT3Jiv.s 			page 24


 1312 0086 0100     		.2byte	0x1
 1313 0088 51       		.byte	0x51
 1314 0089 0B000000 		.4byte	.LVL7-1
 1315 008d 14000000 		.4byte	.LFE67
 1316 0091 0400     		.2byte	0x4
 1317 0093 F3       		.byte	0xf3
 1318 0094 01       		.uleb128 0x1
 1319 0095 51       		.byte	0x51
 1320 0096 9F       		.byte	0x9f
 1321 0097 00000000 		.4byte	0
 1322 009b 00000000 		.4byte	0
 1323              	.LLST5:
 1324 009f 00000000 		.4byte	.LVL8
 1325 00a3 0B000000 		.4byte	.LVL9-1
 1326 00a7 0100     		.2byte	0x1
 1327 00a9 50       		.byte	0x50
 1328 00aa 0B000000 		.4byte	.LVL9-1
 1329 00ae 14000000 		.4byte	.LFE68
 1330 00b2 0400     		.2byte	0x4
 1331 00b4 F3       		.byte	0xf3
 1332 00b5 01       		.uleb128 0x1
 1333 00b6 50       		.byte	0x50
 1334 00b7 9F       		.byte	0x9f
 1335 00b8 00000000 		.4byte	0
 1336 00bc 00000000 		.4byte	0
 1337              	.LLST6:
 1338 00c0 00000000 		.4byte	.LVL8
 1339 00c4 0B000000 		.4byte	.LVL9-1
 1340 00c8 0100     		.2byte	0x1
 1341 00ca 51       		.byte	0x51
 1342 00cb 0B000000 		.4byte	.LVL9-1
 1343 00cf 14000000 		.4byte	.LFE68
 1344 00d3 0400     		.2byte	0x4
 1345 00d5 F3       		.byte	0xf3
 1346 00d6 01       		.uleb128 0x1
 1347 00d7 51       		.byte	0x51
 1348 00d8 9F       		.byte	0x9f
 1349 00d9 00000000 		.4byte	0
 1350 00dd 00000000 		.4byte	0
 1351              	.LLST7:
 1352 00e1 00000000 		.4byte	.LVL10
 1353 00e5 0A000000 		.4byte	.LVL12
 1354 00e9 0100     		.2byte	0x1
 1355 00eb 50       		.byte	0x50
 1356 00ec 0A000000 		.4byte	.LVL12
 1357 00f0 1A000000 		.4byte	.LVL14
 1358 00f4 0100     		.2byte	0x1
 1359 00f6 54       		.byte	0x54
 1360 00f7 1A000000 		.4byte	.LVL14
 1361 00fb 1D000000 		.4byte	.LVL15-1
 1362 00ff 0100     		.2byte	0x1
 1363 0101 50       		.byte	0x50
 1364 0102 1D000000 		.4byte	.LVL15-1
 1365 0106 1E000000 		.4byte	.LFE69
 1366 010a 0400     		.2byte	0x4
 1367 010c F3       		.byte	0xf3
 1368 010d 01       		.uleb128 0x1
ARM GAS  /var/folders/6q/x_mk5n_j3p7_c40r_2k_78980000gn/T//ccKT3Jiv.s 			page 25


 1369 010e 50       		.byte	0x50
 1370 010f 9F       		.byte	0x9f
 1371 0110 00000000 		.4byte	0
 1372 0114 00000000 		.4byte	0
 1373              	.LLST8:
 1374 0118 00000000 		.4byte	.LVL10
 1375 011c 0A000000 		.4byte	.LVL12
 1376 0120 0100     		.2byte	0x1
 1377 0122 51       		.byte	0x51
 1378 0123 0A000000 		.4byte	.LVL12
 1379 0127 1A000000 		.4byte	.LVL14
 1380 012b 0100     		.2byte	0x1
 1381 012d 55       		.byte	0x55
 1382 012e 1A000000 		.4byte	.LVL14
 1383 0132 1D000000 		.4byte	.LVL15-1
 1384 0136 0100     		.2byte	0x1
 1385 0138 51       		.byte	0x51
 1386 0139 1D000000 		.4byte	.LVL15-1
 1387 013d 1E000000 		.4byte	.LFE69
 1388 0141 0400     		.2byte	0x4
 1389 0143 F3       		.byte	0xf3
 1390 0144 01       		.uleb128 0x1
 1391 0145 51       		.byte	0x51
 1392 0146 9F       		.byte	0x9f
 1393 0147 00000000 		.4byte	0
 1394 014b 00000000 		.4byte	0
 1395              	.LLST9:
 1396 014f 00000000 		.4byte	.LVL10
 1397 0153 1D000000 		.4byte	.LVL15-1
 1398 0157 0100     		.2byte	0x1
 1399 0159 52       		.byte	0x52
 1400 015a 1D000000 		.4byte	.LVL15-1
 1401 015e 1E000000 		.4byte	.LFE69
 1402 0162 0400     		.2byte	0x4
 1403 0164 F3       		.byte	0xf3
 1404 0165 01       		.uleb128 0x1
 1405 0166 52       		.byte	0x52
 1406 0167 9F       		.byte	0x9f
 1407 0168 00000000 		.4byte	0
 1408 016c 00000000 		.4byte	0
 1409              	.LLST10:
 1410 0170 06000000 		.4byte	.LVL11
 1411 0174 0A000000 		.4byte	.LVL12
 1412 0178 0900     		.2byte	0x9
 1413 017a 71       		.byte	0x71
 1414 017b 00       		.sleb128 0
 1415 017c 33       		.byte	0x33
 1416 017d 24       		.byte	0x24
 1417 017e 70       		.byte	0x70
 1418 017f 04       		.sleb128 4
 1419 0180 06       		.byte	0x6
 1420 0181 22       		.byte	0x22
 1421 0182 9F       		.byte	0x9f
 1422 0183 0A000000 		.4byte	.LVL12
 1423 0187 14000000 		.4byte	.LVL13
 1424 018b 0900     		.2byte	0x9
 1425 018d 75       		.byte	0x75
ARM GAS  /var/folders/6q/x_mk5n_j3p7_c40r_2k_78980000gn/T//ccKT3Jiv.s 			page 26


 1426 018e 00       		.sleb128 0
 1427 018f 33       		.byte	0x33
 1428 0190 24       		.byte	0x24
 1429 0191 74       		.byte	0x74
 1430 0192 04       		.sleb128 4
 1431 0193 06       		.byte	0x6
 1432 0194 22       		.byte	0x22
 1433 0195 9F       		.byte	0x9f
 1434 0196 00000000 		.4byte	0
 1435 019a 00000000 		.4byte	0
 1436              		.section	.debug_aranges,"",%progbits
 1437 0000 4C000000 		.4byte	0x4c
 1438 0004 0200     		.2byte	0x2
 1439 0006 00000000 		.4byte	.Ldebug_info0
 1440 000a 04       		.byte	0x4
 1441 000b 00       		.byte	0
 1442 000c 0000     		.2byte	0
 1443 000e 0000     		.2byte	0
 1444 0010 00000000 		.4byte	.LFB63
 1445 0014 04000000 		.4byte	.LFE63-.LFB63
 1446 0018 00000000 		.4byte	.LFB64
 1447 001c 0A000000 		.4byte	.LFE64-.LFB64
 1448 0020 00000000 		.4byte	.LFB65
 1449 0024 1C000000 		.4byte	.LFE65-.LFB65
 1450 0028 00000000 		.4byte	.LFB66
 1451 002c 1A000000 		.4byte	.LFE66-.LFB66
 1452 0030 00000000 		.4byte	.LFB67
 1453 0034 14000000 		.4byte	.LFE67-.LFB67
 1454 0038 00000000 		.4byte	.LFB68
 1455 003c 14000000 		.4byte	.LFE68-.LFB68
 1456 0040 00000000 		.4byte	.LFB69
 1457 0044 1E000000 		.4byte	.LFE69-.LFB69
 1458 0048 00000000 		.4byte	0
 1459 004c 00000000 		.4byte	0
 1460              		.section	.debug_ranges,"",%progbits
 1461              	.Ldebug_ranges0:
 1462 0000 02000000 		.4byte	.LBB2
 1463 0004 04000000 		.4byte	.LBE2
 1464 0008 06000000 		.4byte	.LBB3
 1465 000c 0A000000 		.4byte	.LBE3
 1466 0010 00000000 		.4byte	0
 1467 0014 00000000 		.4byte	0
 1468 0018 02000000 		.4byte	.LBB5
 1469 001c 04000000 		.4byte	.LBE5
 1470 0020 06000000 		.4byte	.LBB6
 1471 0024 0A000000 		.4byte	.LBE6
 1472 0028 00000000 		.4byte	0
 1473 002c 00000000 		.4byte	0
 1474 0030 00000000 		.4byte	.LFB63
 1475 0034 04000000 		.4byte	.LFE63
 1476 0038 00000000 		.4byte	.LFB64
 1477 003c 0A000000 		.4byte	.LFE64
 1478 0040 00000000 		.4byte	.LFB65
 1479 0044 1C000000 		.4byte	.LFE65
 1480 0048 00000000 		.4byte	.LFB66
 1481 004c 1A000000 		.4byte	.LFE66
 1482 0050 00000000 		.4byte	.LFB67
ARM GAS  /var/folders/6q/x_mk5n_j3p7_c40r_2k_78980000gn/T//ccKT3Jiv.s 			page 27


 1483 0054 14000000 		.4byte	.LFE67
 1484 0058 00000000 		.4byte	.LFB68
 1485 005c 14000000 		.4byte	.LFE68
 1486 0060 00000000 		.4byte	.LFB69
 1487 0064 1E000000 		.4byte	.LFE69
 1488 0068 00000000 		.4byte	0
 1489 006c 00000000 		.4byte	0
 1490              		.section	.debug_line,"",%progbits
 1491              	.Ldebug_line0:
 1492 0000 22020000 		.section	.debug_str,"MS",%progbits,1
 1492      02008D01 
 1492      00000201 
 1492      FB0E0D00 
 1492      01010101 
 1493              	.LASF46:
 1494 0000 474E5520 		.ascii	"GNU C11 5.4.1 20160919 (release) [ARM/embedded-5-br"
 1494      43313120 
 1494      352E342E 
 1494      31203230 
 1494      31363039 
 1495 0033 616E6368 		.ascii	"anch revision 240496] -mcpu=cortex-m3 -mno-thumb-in"
 1495      20726576 
 1495      6973696F 
 1495      6E203234 
 1495      30343936 
 1496 0066 74657277 		.ascii	"terwork -mthumb -ggdb -O2 -fomit-frame-pointer -fal"
 1496      6F726B20 
 1496      2D6D7468 
 1496      756D6220 
 1496      2D676764 
 1497 0099 69676E2D 		.ascii	"ign-functions=16 -ffunction-sections -fdata-section"
 1497      66756E63 
 1497      74696F6E 
 1497      733D3136 
 1497      202D6666 
 1498 00cc 73202D66 		.ascii	"s -fno-common\000"
 1498      6E6F2D63 
 1498      6F6D6D6F 
 1498      6E00
 1499              	.LASF21:
 1500 00da 45585444 		.ascii	"EXTDriver\000"
 1500      72697665 
 1500      7200
 1501              	.LASF36:
 1502 00e4 6368616E 		.ascii	"channel\000"
 1502      6E656C00 
 1503              	.LASF41:
 1504 00ec 6578745F 		.ascii	"ext_lld_init\000"
 1504      6C6C645F 
 1504      696E6974 
 1504      00
 1505              	.LASF22:
 1506 00f9 73746174 		.ascii	"state\000"
 1506      6500
 1507              	.LASF20:
 1508 00ff 65787473 		.ascii	"extstate_t\000"
 1508      74617465 
ARM GAS  /var/folders/6q/x_mk5n_j3p7_c40r_2k_78980000gn/T//ccKT3Jiv.s 			page 28


 1508      5F7400
 1509              	.LASF27:
 1510 010a 45585443 		.ascii	"EXTChannelConfig\000"
 1510      68616E6E 
 1510      656C436F 
 1510      6E666967 
 1510      00
 1511              	.LASF17:
 1512 011b 4558545F 		.ascii	"EXT_UNINIT\000"
 1512      554E494E 
 1512      495400
 1513              	.LASF8:
 1514 0126 5F5F696E 		.ascii	"__int32_t\000"
 1514      7433325F 
 1514      7400
 1515              	.LASF34:
 1516 0130 65787453 		.ascii	"extStop\000"
 1516      746F7000 
 1517              	.LASF30:
 1518 0138 65787449 		.ascii	"extInit\000"
 1518      6E697400 
 1519              	.LASF37:
 1520 0140 65787443 		.ascii	"extChannelDisable\000"
 1520      68616E6E 
 1520      656C4469 
 1520      7361626C 
 1520      6500
 1521              	.LASF24:
 1522 0152 65787063 		.ascii	"expchannel_t\000"
 1522      68616E6E 
 1522      656C5F74 
 1522      00
 1523              	.LASF32:
 1524 015f 65787453 		.ascii	"extStart\000"
 1524      74617274 
 1524      00
 1525              	.LASF45:
 1526 0168 6578745F 		.ascii	"ext_lld_channel_disable\000"
 1526      6C6C645F 
 1526      6368616E 
 1526      6E656C5F 
 1526      64697361 
 1527              	.LASF11:
 1528 0180 6C6F6E67 		.ascii	"long long unsigned int\000"
 1528      206C6F6E 
 1528      6720756E 
 1528      7369676E 
 1528      65642069 
 1529              	.LASF4:
 1530 0197 756E7369 		.ascii	"unsigned char\000"
 1530      676E6564 
 1530      20636861 
 1530      7200
 1531              	.LASF39:
 1532 01a5 65787463 		.ascii	"extcp\000"
 1532      7000
 1533              	.LASF10:
ARM GAS  /var/folders/6q/x_mk5n_j3p7_c40r_2k_78980000gn/T//ccKT3Jiv.s 			page 29


 1534 01ab 6C6F6E67 		.ascii	"long unsigned int\000"
 1534      20756E73 
 1534      69676E65 
 1534      6420696E 
 1534      7400
 1535              	.LASF6:
 1536 01bd 73686F72 		.ascii	"short unsigned int\000"
 1536      7420756E 
 1536      7369676E 
 1536      65642069 
 1536      6E7400
 1537              	.LASF49:
 1538 01d0 49544D5F 		.ascii	"ITM_RxBuffer\000"
 1538      52784275 
 1538      66666572 
 1538      00
 1539              	.LASF47:
 1540 01dd 2E2E2F43 		.ascii	"../ChibiOS/os/hal/src/ext.c\000"
 1540      68696269 
 1540      4F532F6F 
 1540      732F6861 
 1540      6C2F7372 
 1541              	.LASF23:
 1542 01f9 636F6E66 		.ascii	"config\000"
 1542      696700
 1543              	.LASF29:
 1544 0200 45585443 		.ascii	"EXTConfig\000"
 1544      6F6E6669 
 1544      6700
 1545              	.LASF9:
 1546 020a 5F5F7569 		.ascii	"__uint32_t\000"
 1546      6E743332 
 1546      5F7400
 1547              	.LASF44:
 1548 0215 6578745F 		.ascii	"ext_lld_channel_enable\000"
 1548      6C6C645F 
 1548      6368616E 
 1548      6E656C5F 
 1548      656E6162 
 1549              	.LASF19:
 1550 022c 4558545F 		.ascii	"EXT_ACTIVE\000"
 1550      41435449 
 1550      564500
 1551              	.LASF0:
 1552 0237 756E7369 		.ascii	"unsigned int\000"
 1552      676E6564 
 1552      20696E74 
 1552      00
 1553              	.LASF33:
 1554 0244 65787470 		.ascii	"extp\000"
 1554      00
 1555              	.LASF16:
 1556 0249 63686172 		.ascii	"char\000"
 1556      00
 1557              	.LASF25:
 1558 024e 65787463 		.ascii	"extcallback_t\000"
 1558      616C6C62 
ARM GAS  /var/folders/6q/x_mk5n_j3p7_c40r_2k_78980000gn/T//ccKT3Jiv.s 			page 30


 1558      61636B5F 
 1558      7400
 1559              	.LASF26:
 1560 025c 6D6F6465 		.ascii	"mode\000"
 1560      00
 1561              	.LASF43:
 1562 0261 6578745F 		.ascii	"ext_lld_stop\000"
 1562      6C6C645F 
 1562      73746F70 
 1562      00
 1563              	.LASF38:
 1564 026e 65787453 		.ascii	"extSetChannelModeI\000"
 1564      65744368 
 1564      616E6E65 
 1564      6C4D6F64 
 1564      654900
 1565              	.LASF40:
 1566 0281 6F6C6463 		.ascii	"oldcp\000"
 1566      7000
 1567              	.LASF12:
 1568 0287 696E7433 		.ascii	"int32_t\000"
 1568      325F7400 
 1569              	.LASF15:
 1570 028f 73697A65 		.ascii	"sizetype\000"
 1570      74797065 
 1570      00
 1571              	.LASF1:
 1572 0298 6C6F6E67 		.ascii	"long long int\000"
 1572      206C6F6E 
 1572      6720696E 
 1572      7400
 1573              	.LASF28:
 1574 02a6 6368616E 		.ascii	"channels\000"
 1574      6E656C73 
 1574      00
 1575              	.LASF35:
 1576 02af 65787443 		.ascii	"extChannelEnable\000"
 1576      68616E6E 
 1576      656C456E 
 1576      61626C65 
 1576      00
 1577              	.LASF5:
 1578 02c0 73686F72 		.ascii	"short int\000"
 1578      7420696E 
 1578      7400
 1579              	.LASF31:
 1580 02ca 6578744F 		.ascii	"extObjectInit\000"
 1580      626A6563 
 1580      74496E69 
 1580      7400
 1581              	.LASF48:
 1582 02d8 2F557365 		.ascii	"/Users/Luca/src/vexilla/src/teamA\000"
 1582      72732F4C 
 1582      7563612F 
 1582      7372632F 
 1582      76657869 
 1583              	.LASF13:
ARM GAS  /var/folders/6q/x_mk5n_j3p7_c40r_2k_78980000gn/T//ccKT3Jiv.s 			page 31


 1584 02fa 75696E74 		.ascii	"uint32_t\000"
 1584      33325F74 
 1584      00
 1585              	.LASF7:
 1586 0303 6C6F6E67 		.ascii	"long int\000"
 1586      20696E74 
 1586      00
 1587              	.LASF2:
 1588 030c 6C6F6E67 		.ascii	"long double\000"
 1588      20646F75 
 1588      626C6500 
 1589              	.LASF3:
 1590 0318 7369676E 		.ascii	"signed char\000"
 1590      65642063 
 1590      68617200 
 1591              	.LASF14:
 1592 0324 5F426F6F 		.ascii	"_Bool\000"
 1592      6C00
 1593              	.LASF42:
 1594 032a 6578745F 		.ascii	"ext_lld_start\000"
 1594      6C6C645F 
 1594      73746172 
 1594      7400
 1595              	.LASF18:
 1596 0338 4558545F 		.ascii	"EXT_STOP\000"
 1596      53544F50 
 1596      00
 1597              		.ident	"GCC: (GNU Tools for ARM Embedded Processors) 5.4.1 20160919 (release) [ARM/embedded-5-bran
ARM GAS  /var/folders/6q/x_mk5n_j3p7_c40r_2k_78980000gn/T//ccKT3Jiv.s 			page 32


DEFINED SYMBOLS
                            *ABS*:0000000000000000 ext.c
/var/folders/6q/x_mk5n_j3p7_c40r_2k_78980000gn/T//ccKT3Jiv.s:20     .text.extInit:0000000000000000 $t
/var/folders/6q/x_mk5n_j3p7_c40r_2k_78980000gn/T//ccKT3Jiv.s:26     .text.extInit:0000000000000000 extInit
/var/folders/6q/x_mk5n_j3p7_c40r_2k_78980000gn/T//ccKT3Jiv.s:41     .text.extObjectInit:0000000000000000 $t
/var/folders/6q/x_mk5n_j3p7_c40r_2k_78980000gn/T//ccKT3Jiv.s:47     .text.extObjectInit:0000000000000000 extObjectInit
/var/folders/6q/x_mk5n_j3p7_c40r_2k_78980000gn/T//ccKT3Jiv.s:68     .text.extStart:0000000000000000 $t
/var/folders/6q/x_mk5n_j3p7_c40r_2k_78980000gn/T//ccKT3Jiv.s:74     .text.extStart:0000000000000000 extStart
/var/folders/6q/x_mk5n_j3p7_c40r_2k_78980000gn/T//ccKT3Jiv.s:123    .text.extStop:0000000000000000 $t
/var/folders/6q/x_mk5n_j3p7_c40r_2k_78980000gn/T//ccKT3Jiv.s:129    .text.extStop:0000000000000000 extStop
/var/folders/6q/x_mk5n_j3p7_c40r_2k_78980000gn/T//ccKT3Jiv.s:176    .text.extChannelEnable:0000000000000000 $t
/var/folders/6q/x_mk5n_j3p7_c40r_2k_78980000gn/T//ccKT3Jiv.s:182    .text.extChannelEnable:0000000000000000 extChannelEnable
/var/folders/6q/x_mk5n_j3p7_c40r_2k_78980000gn/T//ccKT3Jiv.s:221    .text.extChannelDisable:0000000000000000 $t
/var/folders/6q/x_mk5n_j3p7_c40r_2k_78980000gn/T//ccKT3Jiv.s:227    .text.extChannelDisable:0000000000000000 extChannelDisable
/var/folders/6q/x_mk5n_j3p7_c40r_2k_78980000gn/T//ccKT3Jiv.s:266    .text.extSetChannelModeI:0000000000000000 $t
/var/folders/6q/x_mk5n_j3p7_c40r_2k_78980000gn/T//ccKT3Jiv.s:272    .text.extSetChannelModeI:0000000000000000 extSetChannelModeI
                     .debug_frame:0000000000000010 $d

UNDEFINED SYMBOLS
ext_lld_init
ext_lld_start
ext_lld_stop
ext_lld_channel_enable
ext_lld_channel_disable
