ARM GAS  /var/folders/6q/x_mk5n_j3p7_c40r_2k_78980000gn/T//ccju1LKG.s 			page 1


   1              		.syntax unified
   2              		.cpu cortex-m3
   3              		.fpu softvfp
   4              		.eabi_attribute 20, 1
   5              		.eabi_attribute 21, 1
   6              		.eabi_attribute 23, 3
   7              		.eabi_attribute 24, 1
   8              		.eabi_attribute 25, 1
   9              		.eabi_attribute 26, 1
  10              		.eabi_attribute 30, 2
  11              		.eabi_attribute 34, 1
  12              		.eabi_attribute 18, 4
  13              		.thumb
  14              		.syntax unified
  15              		.file	"ext_lld_isr.c"
  16              		.text
  17              	.Ltext0:
  18              		.cfi_sections	.debug_frame
  19              		.section	.text.Vector58,"ax",%progbits
  20              		.align	2
  21              		.p2align 4,,15
  22              		.global	Vector58
  23              		.thumb
  24              		.thumb_func
  25              		.type	Vector58, %function
  26              	Vector58:
  27              	.LFB63:
  28              		.file 1 "../ChibiOS/os/hal/platforms/STM32F1xx/ext_lld_isr.c"
  29              		.loc 1 57 0
  30              		.cfi_startproc
  31              		@ args = 0, pretend = 0, frame = 0
  32              		@ frame_needed = 0, uses_anonymous_args = 0
  33 0000 08B5     		push	{r3, lr}
  34              		.cfi_def_cfa_offset 8
  35              		.cfi_offset 3, -8
  36              		.cfi_offset 14, -4
  37              		.loc 1 62 0
  38 0002 0648     		ldr	r0, .L3
  39              		.loc 1 61 0
  40 0004 064A     		ldr	r2, .L3+4
  41              		.loc 1 62 0
  42 0006 4368     		ldr	r3, [r0, #4]
  43              		.loc 1 61 0
  44 0008 0121     		movs	r1, #1
  45              		.loc 1 62 0
  46 000a 5B68     		ldr	r3, [r3, #4]
  47              		.loc 1 61 0
  48 000c 5161     		str	r1, [r2, #20]
  49              		.loc 1 62 0
  50 000e 0021     		movs	r1, #0
  51 0010 9847     		blx	r3
  52              	.LVL0:
  53              		.loc 1 65 0
  54 0012 BDE80840 		pop	{r3, lr}
  55              		.cfi_restore 14
  56              		.cfi_restore 3
  57              		.cfi_def_cfa_offset 0
ARM GAS  /var/folders/6q/x_mk5n_j3p7_c40r_2k_78980000gn/T//ccju1LKG.s 			page 2


  58              		.loc 1 64 0
  59 0016 FFF7FEBF 		b	_port_irq_epilogue
  60              	.LVL1:
  61              	.L4:
  62 001a 00BF     		.align	2
  63              	.L3:
  64 001c 00000000 		.word	EXTD1
  65 0020 00040140 		.word	1073808384
  66              		.cfi_endproc
  67              	.LFE63:
  68              		.size	Vector58, .-Vector58
  69              		.section	.text.Vector5C,"ax",%progbits
  70              		.align	2
  71              		.p2align 4,,15
  72              		.global	Vector5C
  73              		.thumb
  74              		.thumb_func
  75              		.type	Vector5C, %function
  76              	Vector5C:
  77              	.LFB64:
  78              		.loc 1 72 0
  79              		.cfi_startproc
  80              		@ args = 0, pretend = 0, frame = 0
  81              		@ frame_needed = 0, uses_anonymous_args = 0
  82 0000 08B5     		push	{r3, lr}
  83              		.cfi_def_cfa_offset 8
  84              		.cfi_offset 3, -8
  85              		.cfi_offset 14, -4
  86              		.loc 1 77 0
  87 0002 0648     		ldr	r0, .L7
  88              		.loc 1 76 0
  89 0004 064A     		ldr	r2, .L7+4
  90              		.loc 1 77 0
  91 0006 4368     		ldr	r3, [r0, #4]
  92              		.loc 1 76 0
  93 0008 0221     		movs	r1, #2
  94              		.loc 1 77 0
  95 000a DB68     		ldr	r3, [r3, #12]
  96              		.loc 1 76 0
  97 000c 5161     		str	r1, [r2, #20]
  98              		.loc 1 77 0
  99 000e 0121     		movs	r1, #1
 100 0010 9847     		blx	r3
 101              	.LVL2:
 102              		.loc 1 80 0
 103 0012 BDE80840 		pop	{r3, lr}
 104              		.cfi_restore 14
 105              		.cfi_restore 3
 106              		.cfi_def_cfa_offset 0
 107              		.loc 1 79 0
 108 0016 FFF7FEBF 		b	_port_irq_epilogue
 109              	.LVL3:
 110              	.L8:
 111 001a 00BF     		.align	2
 112              	.L7:
 113 001c 00000000 		.word	EXTD1
 114 0020 00040140 		.word	1073808384
ARM GAS  /var/folders/6q/x_mk5n_j3p7_c40r_2k_78980000gn/T//ccju1LKG.s 			page 3


 115              		.cfi_endproc
 116              	.LFE64:
 117              		.size	Vector5C, .-Vector5C
 118              		.section	.text.Vector60,"ax",%progbits
 119              		.align	2
 120              		.p2align 4,,15
 121              		.global	Vector60
 122              		.thumb
 123              		.thumb_func
 124              		.type	Vector60, %function
 125              	Vector60:
 126              	.LFB65:
 127              		.loc 1 87 0
 128              		.cfi_startproc
 129              		@ args = 0, pretend = 0, frame = 0
 130              		@ frame_needed = 0, uses_anonymous_args = 0
 131 0000 08B5     		push	{r3, lr}
 132              		.cfi_def_cfa_offset 8
 133              		.cfi_offset 3, -8
 134              		.cfi_offset 14, -4
 135              		.loc 1 92 0
 136 0002 0648     		ldr	r0, .L11
 137              		.loc 1 91 0
 138 0004 064A     		ldr	r2, .L11+4
 139              		.loc 1 92 0
 140 0006 4368     		ldr	r3, [r0, #4]
 141              		.loc 1 91 0
 142 0008 0421     		movs	r1, #4
 143              		.loc 1 92 0
 144 000a 5B69     		ldr	r3, [r3, #20]
 145              		.loc 1 91 0
 146 000c 5161     		str	r1, [r2, #20]
 147              		.loc 1 92 0
 148 000e 0221     		movs	r1, #2
 149 0010 9847     		blx	r3
 150              	.LVL4:
 151              		.loc 1 95 0
 152 0012 BDE80840 		pop	{r3, lr}
 153              		.cfi_restore 14
 154              		.cfi_restore 3
 155              		.cfi_def_cfa_offset 0
 156              		.loc 1 94 0
 157 0016 FFF7FEBF 		b	_port_irq_epilogue
 158              	.LVL5:
 159              	.L12:
 160 001a 00BF     		.align	2
 161              	.L11:
 162 001c 00000000 		.word	EXTD1
 163 0020 00040140 		.word	1073808384
 164              		.cfi_endproc
 165              	.LFE65:
 166              		.size	Vector60, .-Vector60
 167              		.section	.text.Vector64,"ax",%progbits
 168              		.align	2
 169              		.p2align 4,,15
 170              		.global	Vector64
 171              		.thumb
ARM GAS  /var/folders/6q/x_mk5n_j3p7_c40r_2k_78980000gn/T//ccju1LKG.s 			page 4


 172              		.thumb_func
 173              		.type	Vector64, %function
 174              	Vector64:
 175              	.LFB66:
 176              		.loc 1 102 0
 177              		.cfi_startproc
 178              		@ args = 0, pretend = 0, frame = 0
 179              		@ frame_needed = 0, uses_anonymous_args = 0
 180 0000 08B5     		push	{r3, lr}
 181              		.cfi_def_cfa_offset 8
 182              		.cfi_offset 3, -8
 183              		.cfi_offset 14, -4
 184              		.loc 1 107 0
 185 0002 0648     		ldr	r0, .L15
 186              		.loc 1 106 0
 187 0004 064A     		ldr	r2, .L15+4
 188              		.loc 1 107 0
 189 0006 4368     		ldr	r3, [r0, #4]
 190              		.loc 1 106 0
 191 0008 0821     		movs	r1, #8
 192              		.loc 1 107 0
 193 000a DB69     		ldr	r3, [r3, #28]
 194              		.loc 1 106 0
 195 000c 5161     		str	r1, [r2, #20]
 196              		.loc 1 107 0
 197 000e 0321     		movs	r1, #3
 198 0010 9847     		blx	r3
 199              	.LVL6:
 200              		.loc 1 110 0
 201 0012 BDE80840 		pop	{r3, lr}
 202              		.cfi_restore 14
 203              		.cfi_restore 3
 204              		.cfi_def_cfa_offset 0
 205              		.loc 1 109 0
 206 0016 FFF7FEBF 		b	_port_irq_epilogue
 207              	.LVL7:
 208              	.L16:
 209 001a 00BF     		.align	2
 210              	.L15:
 211 001c 00000000 		.word	EXTD1
 212 0020 00040140 		.word	1073808384
 213              		.cfi_endproc
 214              	.LFE66:
 215              		.size	Vector64, .-Vector64
 216              		.section	.text.Vector68,"ax",%progbits
 217              		.align	2
 218              		.p2align 4,,15
 219              		.global	Vector68
 220              		.thumb
 221              		.thumb_func
 222              		.type	Vector68, %function
 223              	Vector68:
 224              	.LFB67:
 225              		.loc 1 117 0
 226              		.cfi_startproc
 227              		@ args = 0, pretend = 0, frame = 0
 228              		@ frame_needed = 0, uses_anonymous_args = 0
ARM GAS  /var/folders/6q/x_mk5n_j3p7_c40r_2k_78980000gn/T//ccju1LKG.s 			page 5


 229 0000 08B5     		push	{r3, lr}
 230              		.cfi_def_cfa_offset 8
 231              		.cfi_offset 3, -8
 232              		.cfi_offset 14, -4
 233              		.loc 1 122 0
 234 0002 0648     		ldr	r0, .L19
 235              		.loc 1 121 0
 236 0004 064A     		ldr	r2, .L19+4
 237              		.loc 1 122 0
 238 0006 4368     		ldr	r3, [r0, #4]
 239              		.loc 1 121 0
 240 0008 1021     		movs	r1, #16
 241              		.loc 1 122 0
 242 000a 5B6A     		ldr	r3, [r3, #36]
 243              		.loc 1 121 0
 244 000c 5161     		str	r1, [r2, #20]
 245              		.loc 1 122 0
 246 000e 0421     		movs	r1, #4
 247 0010 9847     		blx	r3
 248              	.LVL8:
 249              		.loc 1 125 0
 250 0012 BDE80840 		pop	{r3, lr}
 251              		.cfi_restore 14
 252              		.cfi_restore 3
 253              		.cfi_def_cfa_offset 0
 254              		.loc 1 124 0
 255 0016 FFF7FEBF 		b	_port_irq_epilogue
 256              	.LVL9:
 257              	.L20:
 258 001a 00BF     		.align	2
 259              	.L19:
 260 001c 00000000 		.word	EXTD1
 261 0020 00040140 		.word	1073808384
 262              		.cfi_endproc
 263              	.LFE67:
 264              		.size	Vector68, .-Vector68
 265              		.section	.text.Vector9C,"ax",%progbits
 266              		.align	2
 267              		.p2align 4,,15
 268              		.global	Vector9C
 269              		.thumb
 270              		.thumb_func
 271              		.type	Vector9C, %function
 272              	Vector9C:
 273              	.LFB68:
 274              		.loc 1 132 0
 275              		.cfi_startproc
 276              		@ args = 0, pretend = 0, frame = 0
 277              		@ frame_needed = 0, uses_anonymous_args = 0
 278              		.loc 1 137 0
 279 0000 184B     		ldr	r3, .L48
 280              		.loc 1 132 0
 281 0002 10B5     		push	{r4, lr}
 282              		.cfi_def_cfa_offset 8
 283              		.cfi_offset 4, -8
 284              		.cfi_offset 14, -4
 285              		.loc 1 137 0
ARM GAS  /var/folders/6q/x_mk5n_j3p7_c40r_2k_78980000gn/T//ccju1LKG.s 			page 6


 286 0004 5C69     		ldr	r4, [r3, #20]
 287 0006 04F47872 		and	r2, r4, #992
 288              	.LVL10:
 289              		.loc 1 138 0
 290 000a 5A61     		str	r2, [r3, #20]
 291              		.loc 1 139 0
 292 000c A306     		lsls	r3, r4, #26
 293 000e 22D4     		bmi	.L44
 294              	.LVL11:
 295              	.L22:
 296              		.loc 1 141 0
 297 0010 6006     		lsls	r0, r4, #25
 298 0012 1AD4     		bmi	.L45
 299              	.L23:
 300              		.loc 1 143 0
 301 0014 2106     		lsls	r1, r4, #24
 302 0016 12D4     		bmi	.L46
 303              	.L24:
 304              		.loc 1 145 0
 305 0018 E205     		lsls	r2, r4, #23
 306 001a 0AD4     		bmi	.L47
 307              	.L25:
 308              		.loc 1 147 0
 309 001c A305     		lsls	r3, r4, #22
 310 001e 04D5     		bpl	.L26
 311              		.loc 1 148 0
 312 0020 1148     		ldr	r0, .L48+4
 313 0022 0921     		movs	r1, #9
 314 0024 4368     		ldr	r3, [r0, #4]
 315 0026 DB6C     		ldr	r3, [r3, #76]
 316 0028 9847     		blx	r3
 317              	.LVL12:
 318              	.L26:
 319              		.loc 1 151 0
 320 002a BDE81040 		pop	{r4, lr}
 321              		.cfi_remember_state
 322              		.cfi_restore 14
 323              		.cfi_restore 4
 324              		.cfi_def_cfa_offset 0
 325              	.LVL13:
 326              		.loc 1 150 0
 327 002e FFF7FEBF 		b	_port_irq_epilogue
 328              	.LVL14:
 329              	.L47:
 330              		.cfi_restore_state
 331              		.loc 1 146 0
 332 0032 0D48     		ldr	r0, .L48+4
 333 0034 0821     		movs	r1, #8
 334 0036 4368     		ldr	r3, [r0, #4]
 335 0038 5B6C     		ldr	r3, [r3, #68]
 336 003a 9847     		blx	r3
 337              	.LVL15:
 338 003c EEE7     		b	.L25
 339              	.L46:
 340              		.loc 1 144 0
 341 003e 0A48     		ldr	r0, .L48+4
 342 0040 0721     		movs	r1, #7
ARM GAS  /var/folders/6q/x_mk5n_j3p7_c40r_2k_78980000gn/T//ccju1LKG.s 			page 7


 343 0042 4368     		ldr	r3, [r0, #4]
 344 0044 DB6B     		ldr	r3, [r3, #60]
 345 0046 9847     		blx	r3
 346              	.LVL16:
 347 0048 E6E7     		b	.L24
 348              	.L45:
 349              		.loc 1 142 0
 350 004a 0748     		ldr	r0, .L48+4
 351 004c 0621     		movs	r1, #6
 352 004e 4368     		ldr	r3, [r0, #4]
 353 0050 5B6B     		ldr	r3, [r3, #52]
 354 0052 9847     		blx	r3
 355              	.LVL17:
 356 0054 DEE7     		b	.L23
 357              	.LVL18:
 358              	.L44:
 359              		.loc 1 140 0
 360 0056 0448     		ldr	r0, .L48+4
 361 0058 0521     		movs	r1, #5
 362 005a 4368     		ldr	r3, [r0, #4]
 363 005c DB6A     		ldr	r3, [r3, #44]
 364 005e 9847     		blx	r3
 365              	.LVL19:
 366 0060 D6E7     		b	.L22
 367              	.L49:
 368 0062 00BF     		.align	2
 369              	.L48:
 370 0064 00040140 		.word	1073808384
 371 0068 00000000 		.word	EXTD1
 372              		.cfi_endproc
 373              	.LFE68:
 374              		.size	Vector9C, .-Vector9C
 375              		.section	.text.VectorE0,"ax",%progbits
 376              		.align	2
 377              		.p2align 4,,15
 378              		.global	VectorE0
 379              		.thumb
 380              		.thumb_func
 381              		.type	VectorE0, %function
 382              	VectorE0:
 383              	.LFB69:
 384              		.loc 1 158 0
 385              		.cfi_startproc
 386              		@ args = 0, pretend = 0, frame = 0
 387              		@ frame_needed = 0, uses_anonymous_args = 0
 388              		.loc 1 163 0
 389 0000 1C4B     		ldr	r3, .L81
 390              		.loc 1 158 0
 391 0002 10B5     		push	{r4, lr}
 392              		.cfi_def_cfa_offset 8
 393              		.cfi_offset 4, -8
 394              		.cfi_offset 14, -4
 395              		.loc 1 163 0
 396 0004 5C69     		ldr	r4, [r3, #20]
 397 0006 04F47C42 		and	r2, r4, #64512
 398              	.LVL20:
 399              		.loc 1 165 0
ARM GAS  /var/folders/6q/x_mk5n_j3p7_c40r_2k_78980000gn/T//ccju1LKG.s 			page 8


 400 000a 5A61     		str	r2, [r3, #20]
 401              		.loc 1 166 0
 402 000c 6205     		lsls	r2, r4, #21
 403              	.LVL21:
 404 000e 2AD4     		bmi	.L76
 405              	.LVL22:
 406              	.L51:
 407              		.loc 1 168 0
 408 0010 2305     		lsls	r3, r4, #20
 409 0012 22D4     		bmi	.L77
 410              	.L52:
 411              		.loc 1 170 0
 412 0014 E004     		lsls	r0, r4, #19
 413 0016 1AD4     		bmi	.L78
 414              	.L53:
 415              		.loc 1 172 0
 416 0018 A104     		lsls	r1, r4, #18
 417 001a 12D4     		bmi	.L79
 418              	.L54:
 419              		.loc 1 174 0
 420 001c 6204     		lsls	r2, r4, #17
 421 001e 0AD4     		bmi	.L80
 422              	.L55:
 423              		.loc 1 176 0
 424 0020 2304     		lsls	r3, r4, #16
 425 0022 04D5     		bpl	.L56
 426              		.loc 1 177 0
 427 0024 1448     		ldr	r0, .L81+4
 428 0026 0F21     		movs	r1, #15
 429 0028 4368     		ldr	r3, [r0, #4]
 430 002a DB6F     		ldr	r3, [r3, #124]
 431 002c 9847     		blx	r3
 432              	.LVL23:
 433              	.L56:
 434              		.loc 1 180 0
 435 002e BDE81040 		pop	{r4, lr}
 436              		.cfi_remember_state
 437              		.cfi_restore 14
 438              		.cfi_restore 4
 439              		.cfi_def_cfa_offset 0
 440              	.LVL24:
 441              		.loc 1 179 0
 442 0032 FFF7FEBF 		b	_port_irq_epilogue
 443              	.LVL25:
 444              	.L80:
 445              		.cfi_restore_state
 446              		.loc 1 175 0
 447 0036 1048     		ldr	r0, .L81+4
 448 0038 0E21     		movs	r1, #14
 449 003a 4368     		ldr	r3, [r0, #4]
 450 003c 5B6F     		ldr	r3, [r3, #116]
 451 003e 9847     		blx	r3
 452              	.LVL26:
 453 0040 EEE7     		b	.L55
 454              	.L79:
 455              		.loc 1 173 0
 456 0042 0D48     		ldr	r0, .L81+4
ARM GAS  /var/folders/6q/x_mk5n_j3p7_c40r_2k_78980000gn/T//ccju1LKG.s 			page 9


 457 0044 0D21     		movs	r1, #13
 458 0046 4368     		ldr	r3, [r0, #4]
 459 0048 DB6E     		ldr	r3, [r3, #108]
 460 004a 9847     		blx	r3
 461              	.LVL27:
 462 004c E6E7     		b	.L54
 463              	.L78:
 464              		.loc 1 171 0
 465 004e 0A48     		ldr	r0, .L81+4
 466 0050 0C21     		movs	r1, #12
 467 0052 4368     		ldr	r3, [r0, #4]
 468 0054 5B6E     		ldr	r3, [r3, #100]
 469 0056 9847     		blx	r3
 470              	.LVL28:
 471 0058 DEE7     		b	.L53
 472              	.L77:
 473              		.loc 1 169 0
 474 005a 0748     		ldr	r0, .L81+4
 475 005c 0B21     		movs	r1, #11
 476 005e 4368     		ldr	r3, [r0, #4]
 477 0060 DB6D     		ldr	r3, [r3, #92]
 478 0062 9847     		blx	r3
 479              	.LVL29:
 480 0064 D6E7     		b	.L52
 481              	.LVL30:
 482              	.L76:
 483              		.loc 1 167 0
 484 0066 0448     		ldr	r0, .L81+4
 485 0068 0A21     		movs	r1, #10
 486 006a 4368     		ldr	r3, [r0, #4]
 487              	.LVL31:
 488 006c 5B6D     		ldr	r3, [r3, #84]
 489 006e 9847     		blx	r3
 490              	.LVL32:
 491 0070 CEE7     		b	.L51
 492              	.L82:
 493 0072 00BF     		.align	2
 494              	.L81:
 495 0074 00040140 		.word	1073808384
 496 0078 00000000 		.word	EXTD1
 497              		.cfi_endproc
 498              	.LFE69:
 499              		.size	VectorE0, .-VectorE0
 500              		.section	.text.Vector44,"ax",%progbits
 501              		.align	2
 502              		.p2align 4,,15
 503              		.global	Vector44
 504              		.thumb
 505              		.thumb_func
 506              		.type	Vector44, %function
 507              	Vector44:
 508              	.LFB70:
 509              		.loc 1 187 0
 510              		.cfi_startproc
 511              		@ args = 0, pretend = 0, frame = 0
 512              		@ frame_needed = 0, uses_anonymous_args = 0
 513 0000 08B5     		push	{r3, lr}
ARM GAS  /var/folders/6q/x_mk5n_j3p7_c40r_2k_78980000gn/T//ccju1LKG.s 			page 10


 514              		.cfi_def_cfa_offset 8
 515              		.cfi_offset 3, -8
 516              		.cfi_offset 14, -4
 517              		.loc 1 192 0
 518 0002 0748     		ldr	r0, .L85
 519              		.loc 1 191 0
 520 0004 074A     		ldr	r2, .L85+4
 521              		.loc 1 192 0
 522 0006 4368     		ldr	r3, [r0, #4]
 523              		.loc 1 191 0
 524 0008 4FF48031 		mov	r1, #65536
 525              		.loc 1 192 0
 526 000c D3F88430 		ldr	r3, [r3, #132]
 527              		.loc 1 191 0
 528 0010 5161     		str	r1, [r2, #20]
 529              		.loc 1 192 0
 530 0012 1021     		movs	r1, #16
 531 0014 9847     		blx	r3
 532              	.LVL33:
 533              		.loc 1 195 0
 534 0016 BDE80840 		pop	{r3, lr}
 535              		.cfi_restore 14
 536              		.cfi_restore 3
 537              		.cfi_def_cfa_offset 0
 538              		.loc 1 194 0
 539 001a FFF7FEBF 		b	_port_irq_epilogue
 540              	.LVL34:
 541              	.L86:
 542 001e 00BF     		.align	2
 543              	.L85:
 544 0020 00000000 		.word	EXTD1
 545 0024 00040140 		.word	1073808384
 546              		.cfi_endproc
 547              	.LFE70:
 548              		.size	Vector44, .-Vector44
 549              		.section	.text.VectorE4,"ax",%progbits
 550              		.align	2
 551              		.p2align 4,,15
 552              		.global	VectorE4
 553              		.thumb
 554              		.thumb_func
 555              		.type	VectorE4, %function
 556              	VectorE4:
 557              	.LFB71:
 558              		.loc 1 202 0
 559              		.cfi_startproc
 560              		@ args = 0, pretend = 0, frame = 0
 561              		@ frame_needed = 0, uses_anonymous_args = 0
 562 0000 08B5     		push	{r3, lr}
 563              		.cfi_def_cfa_offset 8
 564              		.cfi_offset 3, -8
 565              		.cfi_offset 14, -4
 566              		.loc 1 207 0
 567 0002 0748     		ldr	r0, .L89
 568              		.loc 1 206 0
 569 0004 074A     		ldr	r2, .L89+4
 570              		.loc 1 207 0
ARM GAS  /var/folders/6q/x_mk5n_j3p7_c40r_2k_78980000gn/T//ccju1LKG.s 			page 11


 571 0006 4368     		ldr	r3, [r0, #4]
 572              		.loc 1 206 0
 573 0008 4FF40031 		mov	r1, #131072
 574              		.loc 1 207 0
 575 000c D3F88C30 		ldr	r3, [r3, #140]
 576              		.loc 1 206 0
 577 0010 5161     		str	r1, [r2, #20]
 578              		.loc 1 207 0
 579 0012 1121     		movs	r1, #17
 580 0014 9847     		blx	r3
 581              	.LVL35:
 582              		.loc 1 210 0
 583 0016 BDE80840 		pop	{r3, lr}
 584              		.cfi_restore 14
 585              		.cfi_restore 3
 586              		.cfi_def_cfa_offset 0
 587              		.loc 1 209 0
 588 001a FFF7FEBF 		b	_port_irq_epilogue
 589              	.LVL36:
 590              	.L90:
 591 001e 00BF     		.align	2
 592              	.L89:
 593 0020 00000000 		.word	EXTD1
 594 0024 00040140 		.word	1073808384
 595              		.cfi_endproc
 596              	.LFE71:
 597              		.size	VectorE4, .-VectorE4
 598              		.section	.text.VectorE8,"ax",%progbits
 599              		.align	2
 600              		.p2align 4,,15
 601              		.global	VectorE8
 602              		.thumb
 603              		.thumb_func
 604              		.type	VectorE8, %function
 605              	VectorE8:
 606              	.LFB72:
 607              		.loc 1 251 0
 608              		.cfi_startproc
 609              		@ args = 0, pretend = 0, frame = 0
 610              		@ frame_needed = 0, uses_anonymous_args = 0
 611 0000 08B5     		push	{r3, lr}
 612              		.cfi_def_cfa_offset 8
 613              		.cfi_offset 3, -8
 614              		.cfi_offset 14, -4
 615              		.loc 1 256 0
 616 0002 0748     		ldr	r0, .L93
 617              		.loc 1 255 0
 618 0004 074A     		ldr	r2, .L93+4
 619              		.loc 1 256 0
 620 0006 4368     		ldr	r3, [r0, #4]
 621              		.loc 1 255 0
 622 0008 4FF48021 		mov	r1, #262144
 623              		.loc 1 256 0
 624 000c D3F89430 		ldr	r3, [r3, #148]
 625              		.loc 1 255 0
 626 0010 5161     		str	r1, [r2, #20]
 627              		.loc 1 256 0
ARM GAS  /var/folders/6q/x_mk5n_j3p7_c40r_2k_78980000gn/T//ccju1LKG.s 			page 12


 628 0012 1221     		movs	r1, #18
 629 0014 9847     		blx	r3
 630              	.LVL37:
 631              		.loc 1 259 0
 632 0016 BDE80840 		pop	{r3, lr}
 633              		.cfi_restore 14
 634              		.cfi_restore 3
 635              		.cfi_def_cfa_offset 0
 636              		.loc 1 258 0
 637 001a FFF7FEBF 		b	_port_irq_epilogue
 638              	.LVL38:
 639              	.L94:
 640 001e 00BF     		.align	2
 641              	.L93:
 642 0020 00000000 		.word	EXTD1
 643 0024 00040140 		.word	1073808384
 644              		.cfi_endproc
 645              	.LFE72:
 646              		.size	VectorE8, .-VectorE8
 647              		.section	.text.ext_lld_exti_irq_enable,"ax",%progbits
 648              		.align	2
 649              		.p2align 4,,15
 650              		.global	ext_lld_exti_irq_enable
 651              		.thumb
 652              		.thumb_func
 653              		.type	ext_lld_exti_irq_enable, %function
 654              	ext_lld_exti_irq_enable:
 655              	.LFB73:
 656              		.loc 1 271 0
 657              		.cfi_startproc
 658              		@ args = 0, pretend = 0, frame = 0
 659              		@ frame_needed = 0, uses_anonymous_args = 0
 660 0000 08B5     		push	{r3, lr}
 661              		.cfi_def_cfa_offset 8
 662              		.cfi_offset 3, -8
 663              		.cfi_offset 14, -4
 664              		.loc 1 273 0
 665 0002 6021     		movs	r1, #96
 666 0004 0620     		movs	r0, #6
 667 0006 FFF7FEFF 		bl	nvicEnableVector
 668              	.LVL39:
 669              		.loc 1 275 0
 670 000a 6021     		movs	r1, #96
 671 000c 0720     		movs	r0, #7
 672 000e FFF7FEFF 		bl	nvicEnableVector
 673              	.LVL40:
 674              		.loc 1 277 0
 675 0012 6021     		movs	r1, #96
 676 0014 0820     		movs	r0, #8
 677 0016 FFF7FEFF 		bl	nvicEnableVector
 678              	.LVL41:
 679              		.loc 1 279 0
 680 001a 6021     		movs	r1, #96
 681 001c 0920     		movs	r0, #9
 682 001e FFF7FEFF 		bl	nvicEnableVector
 683              	.LVL42:
 684              		.loc 1 281 0
ARM GAS  /var/folders/6q/x_mk5n_j3p7_c40r_2k_78980000gn/T//ccju1LKG.s 			page 13


 685 0022 6021     		movs	r1, #96
 686 0024 0A20     		movs	r0, #10
 687 0026 FFF7FEFF 		bl	nvicEnableVector
 688              	.LVL43:
 689              		.loc 1 283 0
 690 002a 6021     		movs	r1, #96
 691 002c 1720     		movs	r0, #23
 692 002e FFF7FEFF 		bl	nvicEnableVector
 693              	.LVL44:
 694              		.loc 1 285 0
 695 0032 6021     		movs	r1, #96
 696 0034 2820     		movs	r0, #40
 697 0036 FFF7FEFF 		bl	nvicEnableVector
 698              	.LVL45:
 699              		.loc 1 287 0
 700 003a 6021     		movs	r1, #96
 701 003c 0120     		movs	r0, #1
 702 003e FFF7FEFF 		bl	nvicEnableVector
 703              	.LVL46:
 704              		.loc 1 289 0
 705 0042 6021     		movs	r1, #96
 706 0044 2920     		movs	r0, #41
 707 0046 FFF7FEFF 		bl	nvicEnableVector
 708              	.LVL47:
 709              		.loc 1 305 0
 710 004a BDE80840 		pop	{r3, lr}
 711              		.cfi_restore 14
 712              		.cfi_restore 3
 713              		.cfi_def_cfa_offset 0
 714              		.loc 1 302 0
 715 004e 6021     		movs	r1, #96
 716 0050 2A20     		movs	r0, #42
 717 0052 FFF7FEBF 		b	nvicEnableVector
 718              	.LVL48:
 719              		.cfi_endproc
 720              	.LFE73:
 721              		.size	ext_lld_exti_irq_enable, .-ext_lld_exti_irq_enable
 722 0056 00BF     		.section	.text.ext_lld_exti_irq_disable,"ax",%progbits
 723              		.align	2
 724              		.p2align 4,,15
 725              		.global	ext_lld_exti_irq_disable
 726              		.thumb
 727              		.thumb_func
 728              		.type	ext_lld_exti_irq_disable, %function
 729              	ext_lld_exti_irq_disable:
 730              	.LFB74:
 731              		.loc 1 312 0
 732              		.cfi_startproc
 733              		@ args = 0, pretend = 0, frame = 0
 734              		@ frame_needed = 0, uses_anonymous_args = 0
 735 0000 08B5     		push	{r3, lr}
 736              		.cfi_def_cfa_offset 8
 737              		.cfi_offset 3, -8
 738              		.cfi_offset 14, -4
 739              		.loc 1 314 0
 740 0002 0620     		movs	r0, #6
 741 0004 FFF7FEFF 		bl	nvicDisableVector
ARM GAS  /var/folders/6q/x_mk5n_j3p7_c40r_2k_78980000gn/T//ccju1LKG.s 			page 14


 742              	.LVL49:
 743              		.loc 1 315 0
 744 0008 0720     		movs	r0, #7
 745 000a FFF7FEFF 		bl	nvicDisableVector
 746              	.LVL50:
 747              		.loc 1 316 0
 748 000e 0820     		movs	r0, #8
 749 0010 FFF7FEFF 		bl	nvicDisableVector
 750              	.LVL51:
 751              		.loc 1 317 0
 752 0014 0920     		movs	r0, #9
 753 0016 FFF7FEFF 		bl	nvicDisableVector
 754              	.LVL52:
 755              		.loc 1 318 0
 756 001a 0A20     		movs	r0, #10
 757 001c FFF7FEFF 		bl	nvicDisableVector
 758              	.LVL53:
 759              		.loc 1 319 0
 760 0020 1720     		movs	r0, #23
 761 0022 FFF7FEFF 		bl	nvicDisableVector
 762              	.LVL54:
 763              		.loc 1 320 0
 764 0026 2820     		movs	r0, #40
 765 0028 FFF7FEFF 		bl	nvicDisableVector
 766              	.LVL55:
 767              		.loc 1 321 0
 768 002c 0120     		movs	r0, #1
 769 002e FFF7FEFF 		bl	nvicDisableVector
 770              	.LVL56:
 771              		.loc 1 322 0
 772 0032 2920     		movs	r0, #41
 773 0034 FFF7FEFF 		bl	nvicDisableVector
 774              	.LVL57:
 775              		.loc 1 334 0
 776 0038 BDE80840 		pop	{r3, lr}
 777              		.cfi_restore 14
 778              		.cfi_restore 3
 779              		.cfi_def_cfa_offset 0
 780              		.loc 1 332 0
 781 003c 2A20     		movs	r0, #42
 782 003e FFF7FEBF 		b	nvicDisableVector
 783              	.LVL58:
 784              		.cfi_endproc
 785              	.LFE74:
 786              		.size	ext_lld_exti_irq_disable, .-ext_lld_exti_irq_disable
 787 0042 00BF     		.text
 788              	.Letext0:
 789              		.file 2 "/Users/Luca/src/vexilla/src/gcc-arm-none-eabi-5_4-2016q3/arm-none-eabi/include/machine/_d
 790              		.file 3 "/Users/Luca/src/vexilla/src/gcc-arm-none-eabi-5_4-2016q3/arm-none-eabi/include/sys/_stdin
 791              		.file 4 "../ChibiOS/os/hal/platforms/STM32F1xx/stm32f10x.h"
 792              		.file 5 "../ChibiOS/os/hal/include/ext.h"
 793              		.file 6 "../ChibiOS/os/hal/platforms/STM32/ext_lld.h"
 794              		.file 7 "../ChibiOS/os/ports/common/ARMCMx/CMSIS/include/core_cm3.h"
 795              		.file 8 "../ChibiOS/os/ports/GCC/ARMCMx/chcore_v7m.h"
 796              		.file 9 "../ChibiOS/os/ports/common/ARMCMx/nvic.h"
 797              		.section	.debug_info,"",%progbits
 798              	.Ldebug_info0:
ARM GAS  /var/folders/6q/x_mk5n_j3p7_c40r_2k_78980000gn/T//ccju1LKG.s 			page 15


 799 0000 3E080000 		.4byte	0x83e
 800 0004 0400     		.2byte	0x4
 801 0006 00000000 		.4byte	.Ldebug_abbrev0
 802 000a 04       		.byte	0x4
 803 000b 01       		.uleb128 0x1
 804 000c E6010000 		.4byte	.LASF119
 805 0010 0C       		.byte	0xc
 806 0011 C4060000 		.4byte	.LASF120
 807 0015 34060000 		.4byte	.LASF121
 808 0019 00000000 		.4byte	.Ldebug_ranges0+0
 809 001d 00000000 		.4byte	0
 810 0021 00000000 		.4byte	.Ldebug_line0
 811 0025 02       		.uleb128 0x2
 812 0026 04       		.byte	0x4
 813 0027 05       		.byte	0x5
 814 0028 696E7400 		.ascii	"int\000"
 815 002c 03       		.uleb128 0x3
 816 002d 04       		.byte	0x4
 817 002e 07       		.byte	0x7
 818 002f 9A010000 		.4byte	.LASF0
 819 0033 03       		.uleb128 0x3
 820 0034 08       		.byte	0x8
 821 0035 05       		.byte	0x5
 822 0036 C0000000 		.4byte	.LASF1
 823 003a 03       		.uleb128 0x3
 824 003b 08       		.byte	0x8
 825 003c 04       		.byte	0x4
 826 003d 71050000 		.4byte	.LASF2
 827 0041 03       		.uleb128 0x3
 828 0042 01       		.byte	0x1
 829 0043 06       		.byte	0x6
 830 0044 CE000000 		.4byte	.LASF3
 831 0048 03       		.uleb128 0x3
 832 0049 01       		.byte	0x1
 833 004a 08       		.byte	0x8
 834 004b 9E040000 		.4byte	.LASF4
 835 004f 03       		.uleb128 0x3
 836 0050 02       		.byte	0x2
 837 0051 05       		.byte	0x5
 838 0052 04050000 		.4byte	.LASF5
 839 0056 03       		.uleb128 0x3
 840 0057 02       		.byte	0x2
 841 0058 07       		.byte	0x7
 842 0059 D3020000 		.4byte	.LASF6
 843 005d 04       		.uleb128 0x4
 844 005e D1050000 		.4byte	.LASF8
 845 0062 02       		.byte	0x2
 846 0063 3F       		.byte	0x3f
 847 0064 68000000 		.4byte	0x68
 848 0068 03       		.uleb128 0x3
 849 0069 04       		.byte	0x4
 850 006a 05       		.byte	0x5
 851 006b F4000000 		.4byte	.LASF7
 852 006f 04       		.uleb128 0x4
 853 0070 68010000 		.4byte	.LASF9
 854 0074 02       		.byte	0x2
 855 0075 41       		.byte	0x41
ARM GAS  /var/folders/6q/x_mk5n_j3p7_c40r_2k_78980000gn/T//ccju1LKG.s 			page 16


 856 0076 7A000000 		.4byte	0x7a
 857 007a 03       		.uleb128 0x3
 858 007b 04       		.byte	0x4
 859 007c 07       		.byte	0x7
 860 007d D4010000 		.4byte	.LASF10
 861 0081 03       		.uleb128 0x3
 862 0082 08       		.byte	0x8
 863 0083 07       		.byte	0x7
 864 0084 40000000 		.4byte	.LASF11
 865 0088 04       		.uleb128 0x4
 866 0089 96040000 		.4byte	.LASF12
 867 008d 03       		.byte	0x3
 868 008e 2C       		.byte	0x2c
 869 008f 5D000000 		.4byte	0x5d
 870 0093 04       		.uleb128 0x4
 871 0094 4C050000 		.4byte	.LASF13
 872 0098 03       		.byte	0x3
 873 0099 30       		.byte	0x30
 874 009a 6F000000 		.4byte	0x6f
 875 009e 03       		.uleb128 0x3
 876 009f 01       		.byte	0x1
 877 00a0 02       		.byte	0x2
 878 00a1 90040000 		.4byte	.LASF14
 879 00a5 05       		.uleb128 0x5
 880 00a6 93000000 		.4byte	0x93
 881 00aa 03       		.uleb128 0x3
 882 00ab 04       		.byte	0x4
 883 00ac 07       		.byte	0x7
 884 00ad 90030000 		.4byte	.LASF15
 885 00b1 03       		.uleb128 0x3
 886 00b2 01       		.byte	0x1
 887 00b3 08       		.byte	0x8
 888 00b4 86050000 		.4byte	.LASF16
 889 00b8 06       		.uleb128 0x6
 890 00b9 61030000 		.4byte	.LASF122
 891 00bd 01       		.byte	0x1
 892 00be 41000000 		.4byte	0x41
 893 00c2 04       		.byte	0x4
 894 00c3 A9       		.byte	0xa9
 895 00c4 61020000 		.4byte	0x261
 896 00c8 07       		.uleb128 0x7
 897 00c9 BD050000 		.4byte	.LASF17
 898 00cd 72       		.sleb128 -14
 899 00ce 07       		.uleb128 0x7
 900 00cf BE010000 		.4byte	.LASF18
 901 00d3 74       		.sleb128 -12
 902 00d4 07       		.uleb128 0x7
 903 00d5 73010000 		.4byte	.LASF19
 904 00d9 75       		.sleb128 -11
 905 00da 07       		.uleb128 0x7
 906 00db 61050000 		.4byte	.LASF20
 907 00df 76       		.sleb128 -10
 908 00e0 07       		.uleb128 0x7
 909 00e1 B1030000 		.4byte	.LASF21
 910 00e5 7B       		.sleb128 -5
 911 00e6 07       		.uleb128 0x7
 912 00e7 92060000 		.4byte	.LASF22
ARM GAS  /var/folders/6q/x_mk5n_j3p7_c40r_2k_78980000gn/T//ccju1LKG.s 			page 17


 913 00eb 7C       		.sleb128 -4
 914 00ec 07       		.uleb128 0x7
 915 00ed 49010000 		.4byte	.LASF23
 916 00f1 7E       		.sleb128 -2
 917 00f2 07       		.uleb128 0x7
 918 00f3 33030000 		.4byte	.LASF24
 919 00f7 7F       		.sleb128 -1
 920 00f8 08       		.uleb128 0x8
 921 00f9 9B000000 		.4byte	.LASF25
 922 00fd 00       		.byte	0
 923 00fe 08       		.uleb128 0x8
 924 00ff 00000000 		.4byte	.LASF26
 925 0103 01       		.byte	0x1
 926 0104 08       		.uleb128 0x8
 927 0105 EE050000 		.4byte	.LASF27
 928 0109 02       		.byte	0x2
 929 010a 08       		.uleb128 0x8
 930 010b B1060000 		.4byte	.LASF28
 931 010f 03       		.byte	0x3
 932 0110 08       		.uleb128 0x8
 933 0111 41050000 		.4byte	.LASF29
 934 0115 04       		.byte	0x4
 935 0116 08       		.uleb128 0x8
 936 0117 76060000 		.4byte	.LASF30
 937 011b 05       		.byte	0x5
 938 011c 08       		.uleb128 0x8
 939 011d DA000000 		.4byte	.LASF31
 940 0121 06       		.byte	0x6
 941 0122 08       		.uleb128 0x8
 942 0123 16070000 		.4byte	.LASF32
 943 0127 07       		.byte	0x7
 944 0128 08       		.uleb128 0x8
 945 0129 90000000 		.4byte	.LASF33
 946 012d 08       		.byte	0x8
 947 012e 08       		.uleb128 0x8
 948 012f DA030000 		.4byte	.LASF34
 949 0133 09       		.byte	0x9
 950 0134 08       		.uleb128 0x8
 951 0135 F9040000 		.4byte	.LASF35
 952 0139 0A       		.byte	0xa
 953 013a 08       		.uleb128 0x8
 954 013b 40040000 		.4byte	.LASF36
 955 013f 0B       		.byte	0xb
 956 0140 08       		.uleb128 0x8
 957 0141 66030000 		.4byte	.LASF37
 958 0145 0C       		.byte	0xc
 959 0146 08       		.uleb128 0x8
 960 0147 19050000 		.4byte	.LASF38
 961 014b 0D       		.byte	0xd
 962 014c 08       		.uleb128 0x8
 963 014d 55010000 		.4byte	.LASF39
 964 0151 0E       		.byte	0xe
 965 0152 08       		.uleb128 0x8
 966 0153 C0020000 		.4byte	.LASF40
 967 0157 0F       		.byte	0xf
 968 0158 08       		.uleb128 0x8
 969 0159 DB050000 		.4byte	.LASF41
ARM GAS  /var/folders/6q/x_mk5n_j3p7_c40r_2k_78980000gn/T//ccju1LKG.s 			page 18


 970 015d 10       		.byte	0x10
 971 015e 08       		.uleb128 0x8
 972 015f 7F060000 		.4byte	.LASF42
 973 0163 11       		.byte	0x11
 974 0164 08       		.uleb128 0x8
 975 0165 21010000 		.4byte	.LASF43
 976 0169 12       		.byte	0x12
 977 016a 08       		.uleb128 0x8
 978 016b C9040000 		.4byte	.LASF44
 979 016f 13       		.byte	0x13
 980 0170 08       		.uleb128 0x8
 981 0171 65040000 		.4byte	.LASF45
 982 0175 14       		.byte	0x14
 983 0176 08       		.uleb128 0x8
 984 0177 32000000 		.4byte	.LASF46
 985 017b 15       		.byte	0x15
 986 017c 08       		.uleb128 0x8
 987 017d FE060000 		.4byte	.LASF47
 988 0181 16       		.byte	0x16
 989 0182 08       		.uleb128 0x8
 990 0183 0A010000 		.4byte	.LASF48
 991 0187 17       		.byte	0x17
 992 0188 08       		.uleb128 0x8
 993 0189 97050000 		.4byte	.LASF49
 994 018d 18       		.byte	0x18
 995 018e 08       		.uleb128 0x8
 996 018f 56060000 		.4byte	.LASF50
 997 0193 19       		.byte	0x19
 998 0194 08       		.uleb128 0x8
 999 0195 FE020000 		.4byte	.LASF51
 1000 0199 1A       		.byte	0x1a
 1001 019a 08       		.uleb128 0x8
 1002 019b 40030000 		.4byte	.LASF52
 1003 019f 1B       		.byte	0x1b
 1004 01a0 08       		.uleb128 0x8
 1005 01a1 1D060000 		.4byte	.LASF53
 1006 01a5 1C       		.byte	0x1c
 1007 01a6 08       		.uleb128 0x8
 1008 01a7 0C070000 		.4byte	.LASF54
 1009 01ab 1D       		.byte	0x1d
 1010 01ac 08       		.uleb128 0x8
 1011 01ad 86000000 		.4byte	.LASF55
 1012 01b1 1E       		.byte	0x1e
 1013 01b2 08       		.uleb128 0x8
 1014 01b3 12000000 		.4byte	.LASF56
 1015 01b7 1F       		.byte	0x1f
 1016 01b8 08       		.uleb128 0x8
 1017 01b9 FA050000 		.4byte	.LASF57
 1018 01bd 20       		.byte	0x20
 1019 01be 08       		.uleb128 0x8
 1020 01bf FD000000 		.4byte	.LASF58
 1021 01c3 21       		.byte	0x21
 1022 01c4 08       		.uleb128 0x8
 1023 01c5 79000000 		.4byte	.LASF59
 1024 01c9 22       		.byte	0x22
 1025 01ca 08       		.uleb128 0x8
 1026 01cb 29030000 		.4byte	.LASF60
ARM GAS  /var/folders/6q/x_mk5n_j3p7_c40r_2k_78980000gn/T//ccju1LKG.s 			page 19


 1027 01cf 23       		.byte	0x23
 1028 01d0 08       		.uleb128 0x8
 1029 01d1 E5030000 		.4byte	.LASF61
 1030 01d5 24       		.byte	0x24
 1031 01d6 08       		.uleb128 0x8
 1032 01d7 7A040000 		.4byte	.LASF62
 1033 01db 25       		.byte	0x25
 1034 01dc 08       		.uleb128 0x8
 1035 01dd 55050000 		.4byte	.LASF63
 1036 01e1 26       		.byte	0x26
 1037 01e2 08       		.uleb128 0x8
 1038 01e3 07060000 		.4byte	.LASF64
 1039 01e7 27       		.byte	0x27
 1040 01e8 08       		.uleb128 0x8
 1041 01e9 1A030000 		.4byte	.LASF65
 1042 01ed 28       		.byte	0x28
 1043 01ee 08       		.uleb128 0x8
 1044 01ef 6A000000 		.4byte	.LASF66
 1045 01f3 29       		.byte	0x29
 1046 01f4 08       		.uleb128 0x8
 1047 01f5 02040000 		.4byte	.LASF67
 1048 01f9 2A       		.byte	0x2a
 1049 01fa 08       		.uleb128 0x8
 1050 01fb 79030000 		.4byte	.LASF68
 1051 01ff 2B       		.byte	0x2b
 1052 0200 08       		.uleb128 0x8
 1053 0201 27060000 		.4byte	.LASF69
 1054 0205 2C       		.byte	0x2c
 1055 0206 08       		.uleb128 0x8
 1056 0207 B7040000 		.4byte	.LASF70
 1057 020b 2D       		.byte	0x2d
 1058 020c 08       		.uleb128 0x8
 1059 020d A4030000 		.4byte	.LASF71
 1060 0211 2E       		.byte	0x2e
 1061 0212 08       		.uleb128 0x8
 1062 0213 17010000 		.4byte	.LASF72
 1063 0217 2F       		.byte	0x2f
 1064 0218 08       		.uleb128 0x8
 1065 0219 86040000 		.4byte	.LASF73
 1066 021d 30       		.byte	0x30
 1067 021e 08       		.uleb128 0x8
 1068 021f A5000000 		.4byte	.LASF74
 1069 0223 31       		.byte	0x31
 1070 0224 08       		.uleb128 0x8
 1071 0225 D0030000 		.4byte	.LASF75
 1072 0229 32       		.byte	0x32
 1073 022a 08       		.uleb128 0x8
 1074 022b BA060000 		.4byte	.LASF76
 1075 022f 33       		.byte	0x33
 1076 0230 08       		.uleb128 0x8
 1077 0231 2D010000 		.4byte	.LASF77
 1078 0235 34       		.byte	0x34
 1079 0236 08       		.uleb128 0x8
 1080 0237 0E050000 		.4byte	.LASF78
 1081 023b 35       		.byte	0x35
 1082 023c 08       		.uleb128 0x8
 1083 023d EA040000 		.4byte	.LASF79
ARM GAS  /var/folders/6q/x_mk5n_j3p7_c40r_2k_78980000gn/T//ccju1LKG.s 			page 20


 1084 0241 36       		.byte	0x36
 1085 0242 08       		.uleb128 0x8
 1086 0243 B3050000 		.4byte	.LASF80
 1087 0247 37       		.byte	0x37
 1088 0248 08       		.uleb128 0x8
 1089 0249 57000000 		.4byte	.LASF81
 1090 024d 38       		.byte	0x38
 1091 024e 08       		.uleb128 0x8
 1092 024f BD030000 		.4byte	.LASF82
 1093 0253 39       		.byte	0x39
 1094 0254 08       		.uleb128 0x8
 1095 0255 EF030000 		.4byte	.LASF83
 1096 0259 3A       		.byte	0x3a
 1097 025a 08       		.uleb128 0x8
 1098 025b 2C050000 		.4byte	.LASF84
 1099 025f 3B       		.byte	0x3b
 1100 0260 00       		.byte	0
 1101 0261 05       		.uleb128 0x5
 1102 0262 88000000 		.4byte	0x88
 1103 0266 09       		.uleb128 0x9
 1104 0267 18       		.byte	0x18
 1105 0268 04       		.byte	0x4
 1106 0269 8603     		.2byte	0x386
 1107 026b BD020000 		.4byte	0x2bd
 1108 026f 0A       		.uleb128 0xa
 1109 0270 494D5200 		.ascii	"IMR\000"
 1110 0274 04       		.byte	0x4
 1111 0275 8803     		.2byte	0x388
 1112 0277 A5000000 		.4byte	0xa5
 1113 027b 00       		.byte	0
 1114 027c 0A       		.uleb128 0xa
 1115 027d 454D5200 		.ascii	"EMR\000"
 1116 0281 04       		.byte	0x4
 1117 0282 8903     		.2byte	0x389
 1118 0284 A5000000 		.4byte	0xa5
 1119 0288 04       		.byte	0x4
 1120 0289 0B       		.uleb128 0xb
 1121 028a B9010000 		.4byte	.LASF85
 1122 028e 04       		.byte	0x4
 1123 028f 8A03     		.2byte	0x38a
 1124 0291 A5000000 		.4byte	0xa5
 1125 0295 08       		.byte	0x8
 1126 0296 0B       		.uleb128 0xb
 1127 0297 F4040000 		.4byte	.LASF86
 1128 029b 04       		.byte	0x4
 1129 029c 8B03     		.2byte	0x38b
 1130 029e A5000000 		.4byte	0xa5
 1131 02a2 0C       		.byte	0xc
 1132 02a3 0B       		.uleb128 0xb
 1133 02a4 2C000000 		.4byte	.LASF87
 1134 02a8 04       		.byte	0x4
 1135 02a9 8C03     		.2byte	0x38c
 1136 02ab A5000000 		.4byte	0xa5
 1137 02af 10       		.byte	0x10
 1138 02b0 0A       		.uleb128 0xa
 1139 02b1 505200   		.ascii	"PR\000"
 1140 02b4 04       		.byte	0x4
ARM GAS  /var/folders/6q/x_mk5n_j3p7_c40r_2k_78980000gn/T//ccju1LKG.s 			page 21


 1141 02b5 8D03     		.2byte	0x38d
 1142 02b7 A5000000 		.4byte	0xa5
 1143 02bb 14       		.byte	0x14
 1144 02bc 00       		.byte	0
 1145 02bd 0C       		.uleb128 0xc
 1146 02be A4060000 		.4byte	.LASF88
 1147 02c2 04       		.byte	0x4
 1148 02c3 8E03     		.2byte	0x38e
 1149 02c5 66020000 		.4byte	0x266
 1150 02c9 0D       		.uleb128 0xd
 1151 02ca 01       		.byte	0x1
 1152 02cb 48000000 		.4byte	0x48
 1153 02cf 05       		.byte	0x5
 1154 02d0 4A       		.byte	0x4a
 1155 02d1 E8020000 		.4byte	0x2e8
 1156 02d5 08       		.uleb128 0x8
 1157 02d6 AC040000 		.4byte	.LASF89
 1158 02da 00       		.byte	0
 1159 02db 08       		.uleb128 0x8
 1160 02dc 7D050000 		.4byte	.LASF90
 1161 02e0 01       		.byte	0x1
 1162 02e1 08       		.uleb128 0x8
 1163 02e2 4D030000 		.4byte	.LASF91
 1164 02e6 02       		.byte	0x2
 1165 02e7 00       		.byte	0
 1166 02e8 04       		.uleb128 0x4
 1167 02e9 99030000 		.4byte	.LASF92
 1168 02ed 05       		.byte	0x5
 1169 02ee 4E       		.byte	0x4e
 1170 02ef C9020000 		.4byte	0x2c9
 1171 02f3 04       		.uleb128 0x4
 1172 02f4 13060000 		.4byte	.LASF93
 1173 02f8 05       		.byte	0x5
 1174 02f9 53       		.byte	0x53
 1175 02fa FE020000 		.4byte	0x2fe
 1176 02fe 0E       		.uleb128 0xe
 1177 02ff 13060000 		.4byte	.LASF93
 1178 0303 08       		.byte	0x8
 1179 0304 06       		.byte	0x6
 1180 0305 71       		.byte	0x71
 1181 0306 23030000 		.4byte	0x323
 1182 030a 0F       		.uleb128 0xf
 1183 030b E5000000 		.4byte	.LASF94
 1184 030f 06       		.byte	0x6
 1185 0310 75       		.byte	0x75
 1186 0311 E8020000 		.4byte	0x2e8
 1187 0315 00       		.byte	0
 1188 0316 0F       		.uleb128 0xf
 1189 0317 90050000 		.4byte	.LASF95
 1190 031b 06       		.byte	0x6
 1191 031c 79       		.byte	0x79
 1192 031d B0030000 		.4byte	0x3b0
 1193 0321 04       		.byte	0x4
 1194 0322 00       		.byte	0
 1195 0323 04       		.uleb128 0x4
 1196 0324 1F000000 		.4byte	.LASF96
 1197 0328 06       		.byte	0x6
ARM GAS  /var/folders/6q/x_mk5n_j3p7_c40r_2k_78980000gn/T//ccju1LKG.s 			page 22


 1198 0329 47       		.byte	0x47
 1199 032a 93000000 		.4byte	0x93
 1200 032e 04       		.uleb128 0x4
 1201 032f A5050000 		.4byte	.LASF97
 1202 0333 06       		.byte	0x6
 1203 0334 4F       		.byte	0x4f
 1204 0335 39030000 		.4byte	0x339
 1205 0339 10       		.uleb128 0x10
 1206 033a 04       		.byte	0x4
 1207 033b 3F030000 		.4byte	0x33f
 1208 033f 11       		.uleb128 0x11
 1209 0340 4F030000 		.4byte	0x34f
 1210 0344 12       		.uleb128 0x12
 1211 0345 4F030000 		.4byte	0x34f
 1212 0349 12       		.uleb128 0x12
 1213 034a 23030000 		.4byte	0x323
 1214 034e 00       		.byte	0
 1215 034f 10       		.uleb128 0x10
 1216 0350 04       		.byte	0x4
 1217 0351 F3020000 		.4byte	0x2f3
 1218 0355 13       		.uleb128 0x13
 1219 0356 08       		.byte	0x8
 1220 0357 06       		.byte	0x6
 1221 0358 54       		.byte	0x54
 1222 0359 75030000 		.4byte	0x375
 1223 035d 0F       		.uleb128 0xf
 1224 035e 8B050000 		.4byte	.LASF98
 1225 0362 06       		.byte	0x6
 1226 0363 58       		.byte	0x58
 1227 0364 93000000 		.4byte	0x93
 1228 0368 00       		.byte	0
 1229 0369 14       		.uleb128 0x14
 1230 036a 636200   		.ascii	"cb\000"
 1231 036d 06       		.byte	0x6
 1232 036e 5F       		.byte	0x5f
 1233 036f 2E030000 		.4byte	0x32e
 1234 0373 04       		.byte	0x4
 1235 0374 00       		.byte	0
 1236 0375 04       		.uleb128 0x4
 1237 0376 38010000 		.4byte	.LASF99
 1238 037a 06       		.byte	0x6
 1239 037b 60       		.byte	0x60
 1240 037c 55030000 		.4byte	0x355
 1241 0380 13       		.uleb128 0x13
 1242 0381 98       		.byte	0x98
 1243 0382 06       		.byte	0x6
 1244 0383 66       		.byte	0x66
 1245 0384 95030000 		.4byte	0x395
 1246 0388 0F       		.uleb128 0xf
 1247 0389 EB000000 		.4byte	.LASF100
 1248 038d 06       		.byte	0x6
 1249 038e 6A       		.byte	0x6a
 1250 038f 95030000 		.4byte	0x395
 1251 0393 00       		.byte	0
 1252 0394 00       		.byte	0
 1253 0395 15       		.uleb128 0x15
 1254 0396 75030000 		.4byte	0x375
ARM GAS  /var/folders/6q/x_mk5n_j3p7_c40r_2k_78980000gn/T//ccju1LKG.s 			page 23


 1255 039a A5030000 		.4byte	0x3a5
 1256 039e 16       		.uleb128 0x16
 1257 039f AA000000 		.4byte	0xaa
 1258 03a3 12       		.byte	0x12
 1259 03a4 00       		.byte	0
 1260 03a5 04       		.uleb128 0x4
 1261 03a6 10030000 		.4byte	.LASF101
 1262 03aa 06       		.byte	0x6
 1263 03ab 6C       		.byte	0x6c
 1264 03ac 80030000 		.4byte	0x380
 1265 03b0 10       		.uleb128 0x10
 1266 03b1 04       		.byte	0x4
 1267 03b2 B6030000 		.4byte	0x3b6
 1268 03b6 17       		.uleb128 0x17
 1269 03b7 A5030000 		.4byte	0x3a5
 1270 03bb 18       		.uleb128 0x18
 1271 03bc 58030000 		.4byte	.LASF102
 1272 03c0 01       		.byte	0x1
 1273 03c1 39       		.byte	0x39
 1274 03c2 00000000 		.4byte	.LFB63
 1275 03c6 24000000 		.4byte	.LFE63-.LFB63
 1276 03ca 01       		.uleb128 0x1
 1277 03cb 9C       		.byte	0x9c
 1278 03cc E9030000 		.4byte	0x3e9
 1279 03d0 19       		.uleb128 0x19
 1280 03d1 12000000 		.4byte	.LVL0
 1281 03d5 DF030000 		.4byte	0x3df
 1282 03d9 1A       		.uleb128 0x1a
 1283 03da 01       		.uleb128 0x1
 1284 03db 51       		.byte	0x51
 1285 03dc 01       		.uleb128 0x1
 1286 03dd 30       		.byte	0x30
 1287 03de 00       		.byte	0
 1288 03df 1B       		.uleb128 0x1b
 1289 03e0 1A000000 		.4byte	.LVL1
 1290 03e4 1D080000 		.4byte	0x81d
 1291 03e8 00       		.byte	0
 1292 03e9 18       		.uleb128 0x18
 1293 03ea 87030000 		.4byte	.LASF103
 1294 03ee 01       		.byte	0x1
 1295 03ef 48       		.byte	0x48
 1296 03f0 00000000 		.4byte	.LFB64
 1297 03f4 24000000 		.4byte	.LFE64-.LFB64
 1298 03f8 01       		.uleb128 0x1
 1299 03f9 9C       		.byte	0x9c
 1300 03fa 17040000 		.4byte	0x417
 1301 03fe 19       		.uleb128 0x19
 1302 03ff 12000000 		.4byte	.LVL2
 1303 0403 0D040000 		.4byte	0x40d
 1304 0407 1A       		.uleb128 0x1a
 1305 0408 01       		.uleb128 0x1
 1306 0409 51       		.byte	0x51
 1307 040a 01       		.uleb128 0x1
 1308 040b 31       		.byte	0x31
 1309 040c 00       		.byte	0
 1310 040d 1B       		.uleb128 0x1b
 1311 040e 1A000000 		.4byte	.LVL3
ARM GAS  /var/folders/6q/x_mk5n_j3p7_c40r_2k_78980000gn/T//ccju1LKG.s 			page 24


 1312 0412 1D080000 		.4byte	0x81d
 1313 0416 00       		.byte	0
 1314 0417 18       		.uleb128 0x18
 1315 0418 37040000 		.4byte	.LASF104
 1316 041c 01       		.byte	0x1
 1317 041d 57       		.byte	0x57
 1318 041e 00000000 		.4byte	.LFB65
 1319 0422 24000000 		.4byte	.LFE65-.LFB65
 1320 0426 01       		.uleb128 0x1
 1321 0427 9C       		.byte	0x9c
 1322 0428 45040000 		.4byte	0x445
 1323 042c 19       		.uleb128 0x19
 1324 042d 12000000 		.4byte	.LVL4
 1325 0431 3B040000 		.4byte	0x43b
 1326 0435 1A       		.uleb128 0x1a
 1327 0436 01       		.uleb128 0x1
 1328 0437 51       		.byte	0x51
 1329 0438 01       		.uleb128 0x1
 1330 0439 32       		.byte	0x32
 1331 043a 00       		.byte	0
 1332 043b 1B       		.uleb128 0x1b
 1333 043c 1A000000 		.4byte	.LVL5
 1334 0440 1D080000 		.4byte	0x81d
 1335 0444 00       		.byte	0
 1336 0445 18       		.uleb128 0x18
 1337 0446 53040000 		.4byte	.LASF105
 1338 044a 01       		.byte	0x1
 1339 044b 66       		.byte	0x66
 1340 044c 00000000 		.4byte	.LFB66
 1341 0450 24000000 		.4byte	.LFE66-.LFB66
 1342 0454 01       		.uleb128 0x1
 1343 0455 9C       		.byte	0x9c
 1344 0456 73040000 		.4byte	0x473
 1345 045a 19       		.uleb128 0x19
 1346 045b 12000000 		.4byte	.LVL6
 1347 045f 69040000 		.4byte	0x469
 1348 0463 1A       		.uleb128 0x1a
 1349 0464 01       		.uleb128 0x1
 1350 0465 51       		.byte	0x51
 1351 0466 01       		.uleb128 0x1
 1352 0467 33       		.byte	0x33
 1353 0468 00       		.byte	0
 1354 0469 1B       		.uleb128 0x1b
 1355 046a 1A000000 		.4byte	.LVL7
 1356 046e 1D080000 		.4byte	0x81d
 1357 0472 00       		.byte	0
 1358 0473 18       		.uleb128 0x18
 1359 0474 5C040000 		.4byte	.LASF106
 1360 0478 01       		.byte	0x1
 1361 0479 75       		.byte	0x75
 1362 047a 00000000 		.4byte	.LFB67
 1363 047e 24000000 		.4byte	.LFE67-.LFB67
 1364 0482 01       		.uleb128 0x1
 1365 0483 9C       		.byte	0x9c
 1366 0484 A1040000 		.4byte	0x4a1
 1367 0488 19       		.uleb128 0x19
 1368 0489 12000000 		.4byte	.LVL8
ARM GAS  /var/folders/6q/x_mk5n_j3p7_c40r_2k_78980000gn/T//ccju1LKG.s 			page 25


 1369 048d 97040000 		.4byte	0x497
 1370 0491 1A       		.uleb128 0x1a
 1371 0492 01       		.uleb128 0x1
 1372 0493 51       		.byte	0x51
 1373 0494 01       		.uleb128 0x1
 1374 0495 34       		.byte	0x34
 1375 0496 00       		.byte	0
 1376 0497 1B       		.uleb128 0x1b
 1377 0498 1A000000 		.4byte	.LVL9
 1378 049c 1D080000 		.4byte	0x81d
 1379 04a0 00       		.byte	0
 1380 04a1 18       		.uleb128 0x18
 1381 04a2 09000000 		.4byte	.LASF107
 1382 04a6 01       		.byte	0x1
 1383 04a7 84       		.byte	0x84
 1384 04a8 00000000 		.4byte	.LFB68
 1385 04ac 6C000000 		.4byte	.LFE68-.LFB68
 1386 04b0 01       		.uleb128 0x1
 1387 04b1 9C       		.byte	0x9c
 1388 04b2 15050000 		.4byte	0x515
 1389 04b6 1C       		.uleb128 0x1c
 1390 04b7 707200   		.ascii	"pr\000"
 1391 04ba 01       		.byte	0x1
 1392 04bb 85       		.byte	0x85
 1393 04bc 93000000 		.4byte	0x93
 1394 04c0 00000000 		.4byte	.LLST0
 1395 04c4 19       		.uleb128 0x19
 1396 04c5 2A000000 		.4byte	.LVL12
 1397 04c9 D3040000 		.4byte	0x4d3
 1398 04cd 1A       		.uleb128 0x1a
 1399 04ce 01       		.uleb128 0x1
 1400 04cf 51       		.byte	0x51
 1401 04d0 01       		.uleb128 0x1
 1402 04d1 39       		.byte	0x39
 1403 04d2 00       		.byte	0
 1404 04d3 1B       		.uleb128 0x1b
 1405 04d4 32000000 		.4byte	.LVL14
 1406 04d8 1D080000 		.4byte	0x81d
 1407 04dc 19       		.uleb128 0x19
 1408 04dd 3C000000 		.4byte	.LVL15
 1409 04e1 EB040000 		.4byte	0x4eb
 1410 04e5 1A       		.uleb128 0x1a
 1411 04e6 01       		.uleb128 0x1
 1412 04e7 51       		.byte	0x51
 1413 04e8 01       		.uleb128 0x1
 1414 04e9 38       		.byte	0x38
 1415 04ea 00       		.byte	0
 1416 04eb 19       		.uleb128 0x19
 1417 04ec 48000000 		.4byte	.LVL16
 1418 04f0 FA040000 		.4byte	0x4fa
 1419 04f4 1A       		.uleb128 0x1a
 1420 04f5 01       		.uleb128 0x1
 1421 04f6 51       		.byte	0x51
 1422 04f7 01       		.uleb128 0x1
 1423 04f8 37       		.byte	0x37
 1424 04f9 00       		.byte	0
 1425 04fa 19       		.uleb128 0x19
ARM GAS  /var/folders/6q/x_mk5n_j3p7_c40r_2k_78980000gn/T//ccju1LKG.s 			page 26


 1426 04fb 54000000 		.4byte	.LVL17
 1427 04ff 09050000 		.4byte	0x509
 1428 0503 1A       		.uleb128 0x1a
 1429 0504 01       		.uleb128 0x1
 1430 0505 51       		.byte	0x51
 1431 0506 01       		.uleb128 0x1
 1432 0507 36       		.byte	0x36
 1433 0508 00       		.byte	0
 1434 0509 1D       		.uleb128 0x1d
 1435 050a 60000000 		.4byte	.LVL19
 1436 050e 1A       		.uleb128 0x1a
 1437 050f 01       		.uleb128 0x1
 1438 0510 51       		.byte	0x51
 1439 0511 01       		.uleb128 0x1
 1440 0512 35       		.byte	0x35
 1441 0513 00       		.byte	0
 1442 0514 00       		.byte	0
 1443 0515 18       		.uleb128 0x18
 1444 0516 1C040000 		.4byte	.LASF108
 1445 051a 01       		.byte	0x1
 1446 051b 9E       		.byte	0x9e
 1447 051c 00000000 		.4byte	.LFB69
 1448 0520 7C000000 		.4byte	.LFE69-.LFB69
 1449 0524 01       		.uleb128 0x1
 1450 0525 9C       		.byte	0x9c
 1451 0526 98050000 		.4byte	0x598
 1452 052a 1C       		.uleb128 0x1c
 1453 052b 707200   		.ascii	"pr\000"
 1454 052e 01       		.byte	0x1
 1455 052f 9F       		.byte	0x9f
 1456 0530 93000000 		.4byte	0x93
 1457 0534 51000000 		.4byte	.LLST1
 1458 0538 19       		.uleb128 0x19
 1459 0539 2E000000 		.4byte	.LVL23
 1460 053d 47050000 		.4byte	0x547
 1461 0541 1A       		.uleb128 0x1a
 1462 0542 01       		.uleb128 0x1
 1463 0543 51       		.byte	0x51
 1464 0544 01       		.uleb128 0x1
 1465 0545 3F       		.byte	0x3f
 1466 0546 00       		.byte	0
 1467 0547 1B       		.uleb128 0x1b
 1468 0548 36000000 		.4byte	.LVL25
 1469 054c 1D080000 		.4byte	0x81d
 1470 0550 19       		.uleb128 0x19
 1471 0551 40000000 		.4byte	.LVL26
 1472 0555 5F050000 		.4byte	0x55f
 1473 0559 1A       		.uleb128 0x1a
 1474 055a 01       		.uleb128 0x1
 1475 055b 51       		.byte	0x51
 1476 055c 01       		.uleb128 0x1
 1477 055d 3E       		.byte	0x3e
 1478 055e 00       		.byte	0
 1479 055f 19       		.uleb128 0x19
 1480 0560 4C000000 		.4byte	.LVL27
 1481 0564 6E050000 		.4byte	0x56e
 1482 0568 1A       		.uleb128 0x1a
ARM GAS  /var/folders/6q/x_mk5n_j3p7_c40r_2k_78980000gn/T//ccju1LKG.s 			page 27


 1483 0569 01       		.uleb128 0x1
 1484 056a 51       		.byte	0x51
 1485 056b 01       		.uleb128 0x1
 1486 056c 3D       		.byte	0x3d
 1487 056d 00       		.byte	0
 1488 056e 19       		.uleb128 0x19
 1489 056f 58000000 		.4byte	.LVL28
 1490 0573 7D050000 		.4byte	0x57d
 1491 0577 1A       		.uleb128 0x1a
 1492 0578 01       		.uleb128 0x1
 1493 0579 51       		.byte	0x51
 1494 057a 01       		.uleb128 0x1
 1495 057b 3C       		.byte	0x3c
 1496 057c 00       		.byte	0
 1497 057d 19       		.uleb128 0x19
 1498 057e 64000000 		.4byte	.LVL29
 1499 0582 8C050000 		.4byte	0x58c
 1500 0586 1A       		.uleb128 0x1a
 1501 0587 01       		.uleb128 0x1
 1502 0588 51       		.byte	0x51
 1503 0589 01       		.uleb128 0x1
 1504 058a 3B       		.byte	0x3b
 1505 058b 00       		.byte	0
 1506 058c 1D       		.uleb128 0x1d
 1507 058d 70000000 		.4byte	.LVL32
 1508 0591 1A       		.uleb128 0x1a
 1509 0592 01       		.uleb128 0x1
 1510 0593 51       		.byte	0x51
 1511 0594 01       		.uleb128 0x1
 1512 0595 3A       		.byte	0x3a
 1513 0596 00       		.byte	0
 1514 0597 00       		.byte	0
 1515 0598 18       		.uleb128 0x18
 1516 0599 13040000 		.4byte	.LASF109
 1517 059d 01       		.byte	0x1
 1518 059e BB       		.byte	0xbb
 1519 059f 00000000 		.4byte	.LFB70
 1520 05a3 28000000 		.4byte	.LFE70-.LFB70
 1521 05a7 01       		.uleb128 0x1
 1522 05a8 9C       		.byte	0x9c
 1523 05a9 C6050000 		.4byte	0x5c6
 1524 05ad 19       		.uleb128 0x19
 1525 05ae 16000000 		.4byte	.LVL33
 1526 05b2 BC050000 		.4byte	0x5bc
 1527 05b6 1A       		.uleb128 0x1a
 1528 05b7 01       		.uleb128 0x1
 1529 05b8 51       		.byte	0x51
 1530 05b9 01       		.uleb128 0x1
 1531 05ba 40       		.byte	0x40
 1532 05bb 00       		.byte	0
 1533 05bc 1B       		.uleb128 0x1b
 1534 05bd 1E000000 		.4byte	.LVL34
 1535 05c1 1D080000 		.4byte	0x81d
 1536 05c5 00       		.byte	0
 1537 05c6 18       		.uleb128 0x18
 1538 05c7 25040000 		.4byte	.LASF110
 1539 05cb 01       		.byte	0x1
ARM GAS  /var/folders/6q/x_mk5n_j3p7_c40r_2k_78980000gn/T//ccju1LKG.s 			page 28


 1540 05cc CA       		.byte	0xca
 1541 05cd 00000000 		.4byte	.LFB71
 1542 05d1 28000000 		.4byte	.LFE71-.LFB71
 1543 05d5 01       		.uleb128 0x1
 1544 05d6 9C       		.byte	0x9c
 1545 05d7 F4050000 		.4byte	0x5f4
 1546 05db 19       		.uleb128 0x19
 1547 05dc 16000000 		.4byte	.LVL35
 1548 05e0 EA050000 		.4byte	0x5ea
 1549 05e4 1A       		.uleb128 0x1a
 1550 05e5 01       		.uleb128 0x1
 1551 05e6 51       		.byte	0x51
 1552 05e7 01       		.uleb128 0x1
 1553 05e8 41       		.byte	0x41
 1554 05e9 00       		.byte	0
 1555 05ea 1B       		.uleb128 0x1b
 1556 05eb 1E000000 		.4byte	.LVL36
 1557 05ef 1D080000 		.4byte	0x81d
 1558 05f3 00       		.byte	0
 1559 05f4 18       		.uleb128 0x18
 1560 05f5 2E040000 		.4byte	.LASF111
 1561 05f9 01       		.byte	0x1
 1562 05fa FB       		.byte	0xfb
 1563 05fb 00000000 		.4byte	.LFB72
 1564 05ff 28000000 		.4byte	.LFE72-.LFB72
 1565 0603 01       		.uleb128 0x1
 1566 0604 9C       		.byte	0x9c
 1567 0605 22060000 		.4byte	0x622
 1568 0609 19       		.uleb128 0x19
 1569 060a 16000000 		.4byte	.LVL37
 1570 060e 18060000 		.4byte	0x618
 1571 0612 1A       		.uleb128 0x1a
 1572 0613 01       		.uleb128 0x1
 1573 0614 51       		.byte	0x51
 1574 0615 01       		.uleb128 0x1
 1575 0616 42       		.byte	0x42
 1576 0617 00       		.byte	0
 1577 0618 1B       		.uleb128 0x1b
 1578 0619 1E000000 		.4byte	.LVL38
 1579 061d 1D080000 		.4byte	0x81d
 1580 0621 00       		.byte	0
 1581 0622 1E       		.uleb128 0x1e
 1582 0623 E6020000 		.4byte	.LASF112
 1583 0627 01       		.byte	0x1
 1584 0628 0F01     		.2byte	0x10f
 1585 062a 00000000 		.4byte	.LFB73
 1586 062e 56000000 		.4byte	.LFE73-.LFB73
 1587 0632 01       		.uleb128 0x1
 1588 0633 9C       		.byte	0x9c
 1589 0634 32070000 		.4byte	0x732
 1590 0638 1F       		.uleb128 0x1f
 1591 0639 0A000000 		.4byte	.LVL39
 1592 063d 29080000 		.4byte	0x829
 1593 0641 51060000 		.4byte	0x651
 1594 0645 1A       		.uleb128 0x1a
 1595 0646 01       		.uleb128 0x1
 1596 0647 50       		.byte	0x50
ARM GAS  /var/folders/6q/x_mk5n_j3p7_c40r_2k_78980000gn/T//ccju1LKG.s 			page 29


 1597 0648 01       		.uleb128 0x1
 1598 0649 36       		.byte	0x36
 1599 064a 1A       		.uleb128 0x1a
 1600 064b 01       		.uleb128 0x1
 1601 064c 51       		.byte	0x51
 1602 064d 02       		.uleb128 0x2
 1603 064e 08       		.byte	0x8
 1604 064f 60       		.byte	0x60
 1605 0650 00       		.byte	0
 1606 0651 1F       		.uleb128 0x1f
 1607 0652 12000000 		.4byte	.LVL40
 1608 0656 29080000 		.4byte	0x829
 1609 065a 6A060000 		.4byte	0x66a
 1610 065e 1A       		.uleb128 0x1a
 1611 065f 01       		.uleb128 0x1
 1612 0660 50       		.byte	0x50
 1613 0661 01       		.uleb128 0x1
 1614 0662 37       		.byte	0x37
 1615 0663 1A       		.uleb128 0x1a
 1616 0664 01       		.uleb128 0x1
 1617 0665 51       		.byte	0x51
 1618 0666 02       		.uleb128 0x2
 1619 0667 08       		.byte	0x8
 1620 0668 60       		.byte	0x60
 1621 0669 00       		.byte	0
 1622 066a 1F       		.uleb128 0x1f
 1623 066b 1A000000 		.4byte	.LVL41
 1624 066f 29080000 		.4byte	0x829
 1625 0673 83060000 		.4byte	0x683
 1626 0677 1A       		.uleb128 0x1a
 1627 0678 01       		.uleb128 0x1
 1628 0679 50       		.byte	0x50
 1629 067a 01       		.uleb128 0x1
 1630 067b 38       		.byte	0x38
 1631 067c 1A       		.uleb128 0x1a
 1632 067d 01       		.uleb128 0x1
 1633 067e 51       		.byte	0x51
 1634 067f 02       		.uleb128 0x2
 1635 0680 08       		.byte	0x8
 1636 0681 60       		.byte	0x60
 1637 0682 00       		.byte	0
 1638 0683 1F       		.uleb128 0x1f
 1639 0684 22000000 		.4byte	.LVL42
 1640 0688 29080000 		.4byte	0x829
 1641 068c 9C060000 		.4byte	0x69c
 1642 0690 1A       		.uleb128 0x1a
 1643 0691 01       		.uleb128 0x1
 1644 0692 50       		.byte	0x50
 1645 0693 01       		.uleb128 0x1
 1646 0694 39       		.byte	0x39
 1647 0695 1A       		.uleb128 0x1a
 1648 0696 01       		.uleb128 0x1
 1649 0697 51       		.byte	0x51
 1650 0698 02       		.uleb128 0x2
 1651 0699 08       		.byte	0x8
 1652 069a 60       		.byte	0x60
 1653 069b 00       		.byte	0
ARM GAS  /var/folders/6q/x_mk5n_j3p7_c40r_2k_78980000gn/T//ccju1LKG.s 			page 30


 1654 069c 1F       		.uleb128 0x1f
 1655 069d 2A000000 		.4byte	.LVL43
 1656 06a1 29080000 		.4byte	0x829
 1657 06a5 B5060000 		.4byte	0x6b5
 1658 06a9 1A       		.uleb128 0x1a
 1659 06aa 01       		.uleb128 0x1
 1660 06ab 50       		.byte	0x50
 1661 06ac 01       		.uleb128 0x1
 1662 06ad 3A       		.byte	0x3a
 1663 06ae 1A       		.uleb128 0x1a
 1664 06af 01       		.uleb128 0x1
 1665 06b0 51       		.byte	0x51
 1666 06b1 02       		.uleb128 0x2
 1667 06b2 08       		.byte	0x8
 1668 06b3 60       		.byte	0x60
 1669 06b4 00       		.byte	0
 1670 06b5 1F       		.uleb128 0x1f
 1671 06b6 32000000 		.4byte	.LVL44
 1672 06ba 29080000 		.4byte	0x829
 1673 06be CE060000 		.4byte	0x6ce
 1674 06c2 1A       		.uleb128 0x1a
 1675 06c3 01       		.uleb128 0x1
 1676 06c4 50       		.byte	0x50
 1677 06c5 01       		.uleb128 0x1
 1678 06c6 47       		.byte	0x47
 1679 06c7 1A       		.uleb128 0x1a
 1680 06c8 01       		.uleb128 0x1
 1681 06c9 51       		.byte	0x51
 1682 06ca 02       		.uleb128 0x2
 1683 06cb 08       		.byte	0x8
 1684 06cc 60       		.byte	0x60
 1685 06cd 00       		.byte	0
 1686 06ce 1F       		.uleb128 0x1f
 1687 06cf 3A000000 		.4byte	.LVL45
 1688 06d3 29080000 		.4byte	0x829
 1689 06d7 E8060000 		.4byte	0x6e8
 1690 06db 1A       		.uleb128 0x1a
 1691 06dc 01       		.uleb128 0x1
 1692 06dd 50       		.byte	0x50
 1693 06de 02       		.uleb128 0x2
 1694 06df 08       		.byte	0x8
 1695 06e0 28       		.byte	0x28
 1696 06e1 1A       		.uleb128 0x1a
 1697 06e2 01       		.uleb128 0x1
 1698 06e3 51       		.byte	0x51
 1699 06e4 02       		.uleb128 0x2
 1700 06e5 08       		.byte	0x8
 1701 06e6 60       		.byte	0x60
 1702 06e7 00       		.byte	0
 1703 06e8 1F       		.uleb128 0x1f
 1704 06e9 42000000 		.4byte	.LVL46
 1705 06ed 29080000 		.4byte	0x829
 1706 06f1 01070000 		.4byte	0x701
 1707 06f5 1A       		.uleb128 0x1a
 1708 06f6 01       		.uleb128 0x1
 1709 06f7 50       		.byte	0x50
 1710 06f8 01       		.uleb128 0x1
ARM GAS  /var/folders/6q/x_mk5n_j3p7_c40r_2k_78980000gn/T//ccju1LKG.s 			page 31


 1711 06f9 31       		.byte	0x31
 1712 06fa 1A       		.uleb128 0x1a
 1713 06fb 01       		.uleb128 0x1
 1714 06fc 51       		.byte	0x51
 1715 06fd 02       		.uleb128 0x2
 1716 06fe 08       		.byte	0x8
 1717 06ff 60       		.byte	0x60
 1718 0700 00       		.byte	0
 1719 0701 1F       		.uleb128 0x1f
 1720 0702 4A000000 		.4byte	.LVL47
 1721 0706 29080000 		.4byte	0x829
 1722 070a 1B070000 		.4byte	0x71b
 1723 070e 1A       		.uleb128 0x1a
 1724 070f 01       		.uleb128 0x1
 1725 0710 50       		.byte	0x50
 1726 0711 02       		.uleb128 0x2
 1727 0712 08       		.byte	0x8
 1728 0713 29       		.byte	0x29
 1729 0714 1A       		.uleb128 0x1a
 1730 0715 01       		.uleb128 0x1
 1731 0716 51       		.byte	0x51
 1732 0717 02       		.uleb128 0x2
 1733 0718 08       		.byte	0x8
 1734 0719 60       		.byte	0x60
 1735 071a 00       		.byte	0
 1736 071b 20       		.uleb128 0x20
 1737 071c 56000000 		.4byte	.LVL48
 1738 0720 29080000 		.4byte	0x829
 1739 0724 1A       		.uleb128 0x1a
 1740 0725 01       		.uleb128 0x1
 1741 0726 50       		.byte	0x50
 1742 0727 02       		.uleb128 0x2
 1743 0728 08       		.byte	0x8
 1744 0729 2A       		.byte	0x2a
 1745 072a 1A       		.uleb128 0x1a
 1746 072b 01       		.uleb128 0x1
 1747 072c 51       		.byte	0x51
 1748 072d 02       		.uleb128 0x2
 1749 072e 08       		.byte	0x8
 1750 072f 60       		.byte	0x60
 1751 0730 00       		.byte	0
 1752 0731 00       		.byte	0
 1753 0732 1E       		.uleb128 0x1e
 1754 0733 81010000 		.4byte	.LASF113
 1755 0737 01       		.byte	0x1
 1756 0738 3801     		.2byte	0x138
 1757 073a 00000000 		.4byte	.LFB74
 1758 073e 42000000 		.4byte	.LFE74-.LFB74
 1759 0742 01       		.uleb128 0x1
 1760 0743 9C       		.byte	0x9c
 1761 0744 06080000 		.4byte	0x806
 1762 0748 1F       		.uleb128 0x1f
 1763 0749 08000000 		.4byte	.LVL49
 1764 074d 35080000 		.4byte	0x835
 1765 0751 5B070000 		.4byte	0x75b
 1766 0755 1A       		.uleb128 0x1a
 1767 0756 01       		.uleb128 0x1
ARM GAS  /var/folders/6q/x_mk5n_j3p7_c40r_2k_78980000gn/T//ccju1LKG.s 			page 32


 1768 0757 50       		.byte	0x50
 1769 0758 01       		.uleb128 0x1
 1770 0759 36       		.byte	0x36
 1771 075a 00       		.byte	0
 1772 075b 1F       		.uleb128 0x1f
 1773 075c 0E000000 		.4byte	.LVL50
 1774 0760 35080000 		.4byte	0x835
 1775 0764 6E070000 		.4byte	0x76e
 1776 0768 1A       		.uleb128 0x1a
 1777 0769 01       		.uleb128 0x1
 1778 076a 50       		.byte	0x50
 1779 076b 01       		.uleb128 0x1
 1780 076c 37       		.byte	0x37
 1781 076d 00       		.byte	0
 1782 076e 1F       		.uleb128 0x1f
 1783 076f 14000000 		.4byte	.LVL51
 1784 0773 35080000 		.4byte	0x835
 1785 0777 81070000 		.4byte	0x781
 1786 077b 1A       		.uleb128 0x1a
 1787 077c 01       		.uleb128 0x1
 1788 077d 50       		.byte	0x50
 1789 077e 01       		.uleb128 0x1
 1790 077f 38       		.byte	0x38
 1791 0780 00       		.byte	0
 1792 0781 1F       		.uleb128 0x1f
 1793 0782 1A000000 		.4byte	.LVL52
 1794 0786 35080000 		.4byte	0x835
 1795 078a 94070000 		.4byte	0x794
 1796 078e 1A       		.uleb128 0x1a
 1797 078f 01       		.uleb128 0x1
 1798 0790 50       		.byte	0x50
 1799 0791 01       		.uleb128 0x1
 1800 0792 39       		.byte	0x39
 1801 0793 00       		.byte	0
 1802 0794 1F       		.uleb128 0x1f
 1803 0795 20000000 		.4byte	.LVL53
 1804 0799 35080000 		.4byte	0x835
 1805 079d A7070000 		.4byte	0x7a7
 1806 07a1 1A       		.uleb128 0x1a
 1807 07a2 01       		.uleb128 0x1
 1808 07a3 50       		.byte	0x50
 1809 07a4 01       		.uleb128 0x1
 1810 07a5 3A       		.byte	0x3a
 1811 07a6 00       		.byte	0
 1812 07a7 1F       		.uleb128 0x1f
 1813 07a8 26000000 		.4byte	.LVL54
 1814 07ac 35080000 		.4byte	0x835
 1815 07b0 BA070000 		.4byte	0x7ba
 1816 07b4 1A       		.uleb128 0x1a
 1817 07b5 01       		.uleb128 0x1
 1818 07b6 50       		.byte	0x50
 1819 07b7 01       		.uleb128 0x1
 1820 07b8 47       		.byte	0x47
 1821 07b9 00       		.byte	0
 1822 07ba 1F       		.uleb128 0x1f
 1823 07bb 2C000000 		.4byte	.LVL55
 1824 07bf 35080000 		.4byte	0x835
ARM GAS  /var/folders/6q/x_mk5n_j3p7_c40r_2k_78980000gn/T//ccju1LKG.s 			page 33


 1825 07c3 CE070000 		.4byte	0x7ce
 1826 07c7 1A       		.uleb128 0x1a
 1827 07c8 01       		.uleb128 0x1
 1828 07c9 50       		.byte	0x50
 1829 07ca 02       		.uleb128 0x2
 1830 07cb 08       		.byte	0x8
 1831 07cc 28       		.byte	0x28
 1832 07cd 00       		.byte	0
 1833 07ce 1F       		.uleb128 0x1f
 1834 07cf 32000000 		.4byte	.LVL56
 1835 07d3 35080000 		.4byte	0x835
 1836 07d7 E1070000 		.4byte	0x7e1
 1837 07db 1A       		.uleb128 0x1a
 1838 07dc 01       		.uleb128 0x1
 1839 07dd 50       		.byte	0x50
 1840 07de 01       		.uleb128 0x1
 1841 07df 31       		.byte	0x31
 1842 07e0 00       		.byte	0
 1843 07e1 1F       		.uleb128 0x1f
 1844 07e2 38000000 		.4byte	.LVL57
 1845 07e6 35080000 		.4byte	0x835
 1846 07ea F5070000 		.4byte	0x7f5
 1847 07ee 1A       		.uleb128 0x1a
 1848 07ef 01       		.uleb128 0x1
 1849 07f0 50       		.byte	0x50
 1850 07f1 02       		.uleb128 0x2
 1851 07f2 08       		.byte	0x8
 1852 07f3 29       		.byte	0x29
 1853 07f4 00       		.byte	0
 1854 07f5 20       		.uleb128 0x20
 1855 07f6 42000000 		.4byte	.LVL58
 1856 07fa 35080000 		.4byte	0x835
 1857 07fe 1A       		.uleb128 0x1a
 1858 07ff 01       		.uleb128 0x1
 1859 0800 50       		.byte	0x50
 1860 0801 02       		.uleb128 0x2
 1861 0802 08       		.byte	0x8
 1862 0803 2A       		.byte	0x2a
 1863 0804 00       		.byte	0
 1864 0805 00       		.byte	0
 1865 0806 21       		.uleb128 0x21
 1866 0807 DD040000 		.4byte	.LASF114
 1867 080b 07       		.byte	0x7
 1868 080c 0706     		.2byte	0x607
 1869 080e 61020000 		.4byte	0x261
 1870 0812 22       		.uleb128 0x22
 1871 0813 F8060000 		.4byte	.LASF115
 1872 0817 06       		.byte	0x6
 1873 0818 86       		.byte	0x86
 1874 0819 F3020000 		.4byte	0x2f3
 1875 081d 23       		.uleb128 0x23
 1876 081e 63060000 		.4byte	.LASF116
 1877 0822 63060000 		.4byte	.LASF116
 1878 0826 08       		.byte	0x8
 1879 0827 0302     		.2byte	0x203
 1880 0829 23       		.uleb128 0x23
 1881 082a AF000000 		.4byte	.LASF117
ARM GAS  /var/folders/6q/x_mk5n_j3p7_c40r_2k_78980000gn/T//ccju1LKG.s 			page 34


 1882 082e AF000000 		.4byte	.LASF117
 1883 0832 09       		.byte	0x9
 1884 0833 2301     		.2byte	0x123
 1885 0835 23       		.uleb128 0x23
 1886 0836 A7010000 		.4byte	.LASF118
 1887 083a A7010000 		.4byte	.LASF118
 1888 083e 09       		.byte	0x9
 1889 083f 2401     		.2byte	0x124
 1890 0841 00       		.byte	0
 1891              		.section	.debug_abbrev,"",%progbits
 1892              	.Ldebug_abbrev0:
 1893 0000 01       		.uleb128 0x1
 1894 0001 11       		.uleb128 0x11
 1895 0002 01       		.byte	0x1
 1896 0003 25       		.uleb128 0x25
 1897 0004 0E       		.uleb128 0xe
 1898 0005 13       		.uleb128 0x13
 1899 0006 0B       		.uleb128 0xb
 1900 0007 03       		.uleb128 0x3
 1901 0008 0E       		.uleb128 0xe
 1902 0009 1B       		.uleb128 0x1b
 1903 000a 0E       		.uleb128 0xe
 1904 000b 55       		.uleb128 0x55
 1905 000c 17       		.uleb128 0x17
 1906 000d 11       		.uleb128 0x11
 1907 000e 01       		.uleb128 0x1
 1908 000f 10       		.uleb128 0x10
 1909 0010 17       		.uleb128 0x17
 1910 0011 00       		.byte	0
 1911 0012 00       		.byte	0
 1912 0013 02       		.uleb128 0x2
 1913 0014 24       		.uleb128 0x24
 1914 0015 00       		.byte	0
 1915 0016 0B       		.uleb128 0xb
 1916 0017 0B       		.uleb128 0xb
 1917 0018 3E       		.uleb128 0x3e
 1918 0019 0B       		.uleb128 0xb
 1919 001a 03       		.uleb128 0x3
 1920 001b 08       		.uleb128 0x8
 1921 001c 00       		.byte	0
 1922 001d 00       		.byte	0
 1923 001e 03       		.uleb128 0x3
 1924 001f 24       		.uleb128 0x24
 1925 0020 00       		.byte	0
 1926 0021 0B       		.uleb128 0xb
 1927 0022 0B       		.uleb128 0xb
 1928 0023 3E       		.uleb128 0x3e
 1929 0024 0B       		.uleb128 0xb
 1930 0025 03       		.uleb128 0x3
 1931 0026 0E       		.uleb128 0xe
 1932 0027 00       		.byte	0
 1933 0028 00       		.byte	0
 1934 0029 04       		.uleb128 0x4
 1935 002a 16       		.uleb128 0x16
 1936 002b 00       		.byte	0
 1937 002c 03       		.uleb128 0x3
 1938 002d 0E       		.uleb128 0xe
ARM GAS  /var/folders/6q/x_mk5n_j3p7_c40r_2k_78980000gn/T//ccju1LKG.s 			page 35


 1939 002e 3A       		.uleb128 0x3a
 1940 002f 0B       		.uleb128 0xb
 1941 0030 3B       		.uleb128 0x3b
 1942 0031 0B       		.uleb128 0xb
 1943 0032 49       		.uleb128 0x49
 1944 0033 13       		.uleb128 0x13
 1945 0034 00       		.byte	0
 1946 0035 00       		.byte	0
 1947 0036 05       		.uleb128 0x5
 1948 0037 35       		.uleb128 0x35
 1949 0038 00       		.byte	0
 1950 0039 49       		.uleb128 0x49
 1951 003a 13       		.uleb128 0x13
 1952 003b 00       		.byte	0
 1953 003c 00       		.byte	0
 1954 003d 06       		.uleb128 0x6
 1955 003e 04       		.uleb128 0x4
 1956 003f 01       		.byte	0x1
 1957 0040 03       		.uleb128 0x3
 1958 0041 0E       		.uleb128 0xe
 1959 0042 0B       		.uleb128 0xb
 1960 0043 0B       		.uleb128 0xb
 1961 0044 49       		.uleb128 0x49
 1962 0045 13       		.uleb128 0x13
 1963 0046 3A       		.uleb128 0x3a
 1964 0047 0B       		.uleb128 0xb
 1965 0048 3B       		.uleb128 0x3b
 1966 0049 0B       		.uleb128 0xb
 1967 004a 01       		.uleb128 0x1
 1968 004b 13       		.uleb128 0x13
 1969 004c 00       		.byte	0
 1970 004d 00       		.byte	0
 1971 004e 07       		.uleb128 0x7
 1972 004f 28       		.uleb128 0x28
 1973 0050 00       		.byte	0
 1974 0051 03       		.uleb128 0x3
 1975 0052 0E       		.uleb128 0xe
 1976 0053 1C       		.uleb128 0x1c
 1977 0054 0D       		.uleb128 0xd
 1978 0055 00       		.byte	0
 1979 0056 00       		.byte	0
 1980 0057 08       		.uleb128 0x8
 1981 0058 28       		.uleb128 0x28
 1982 0059 00       		.byte	0
 1983 005a 03       		.uleb128 0x3
 1984 005b 0E       		.uleb128 0xe
 1985 005c 1C       		.uleb128 0x1c
 1986 005d 0B       		.uleb128 0xb
 1987 005e 00       		.byte	0
 1988 005f 00       		.byte	0
 1989 0060 09       		.uleb128 0x9
 1990 0061 13       		.uleb128 0x13
 1991 0062 01       		.byte	0x1
 1992 0063 0B       		.uleb128 0xb
 1993 0064 0B       		.uleb128 0xb
 1994 0065 3A       		.uleb128 0x3a
 1995 0066 0B       		.uleb128 0xb
ARM GAS  /var/folders/6q/x_mk5n_j3p7_c40r_2k_78980000gn/T//ccju1LKG.s 			page 36


 1996 0067 3B       		.uleb128 0x3b
 1997 0068 05       		.uleb128 0x5
 1998 0069 01       		.uleb128 0x1
 1999 006a 13       		.uleb128 0x13
 2000 006b 00       		.byte	0
 2001 006c 00       		.byte	0
 2002 006d 0A       		.uleb128 0xa
 2003 006e 0D       		.uleb128 0xd
 2004 006f 00       		.byte	0
 2005 0070 03       		.uleb128 0x3
 2006 0071 08       		.uleb128 0x8
 2007 0072 3A       		.uleb128 0x3a
 2008 0073 0B       		.uleb128 0xb
 2009 0074 3B       		.uleb128 0x3b
 2010 0075 05       		.uleb128 0x5
 2011 0076 49       		.uleb128 0x49
 2012 0077 13       		.uleb128 0x13
 2013 0078 38       		.uleb128 0x38
 2014 0079 0B       		.uleb128 0xb
 2015 007a 00       		.byte	0
 2016 007b 00       		.byte	0
 2017 007c 0B       		.uleb128 0xb
 2018 007d 0D       		.uleb128 0xd
 2019 007e 00       		.byte	0
 2020 007f 03       		.uleb128 0x3
 2021 0080 0E       		.uleb128 0xe
 2022 0081 3A       		.uleb128 0x3a
 2023 0082 0B       		.uleb128 0xb
 2024 0083 3B       		.uleb128 0x3b
 2025 0084 05       		.uleb128 0x5
 2026 0085 49       		.uleb128 0x49
 2027 0086 13       		.uleb128 0x13
 2028 0087 38       		.uleb128 0x38
 2029 0088 0B       		.uleb128 0xb
 2030 0089 00       		.byte	0
 2031 008a 00       		.byte	0
 2032 008b 0C       		.uleb128 0xc
 2033 008c 16       		.uleb128 0x16
 2034 008d 00       		.byte	0
 2035 008e 03       		.uleb128 0x3
 2036 008f 0E       		.uleb128 0xe
 2037 0090 3A       		.uleb128 0x3a
 2038 0091 0B       		.uleb128 0xb
 2039 0092 3B       		.uleb128 0x3b
 2040 0093 05       		.uleb128 0x5
 2041 0094 49       		.uleb128 0x49
 2042 0095 13       		.uleb128 0x13
 2043 0096 00       		.byte	0
 2044 0097 00       		.byte	0
 2045 0098 0D       		.uleb128 0xd
 2046 0099 04       		.uleb128 0x4
 2047 009a 01       		.byte	0x1
 2048 009b 0B       		.uleb128 0xb
 2049 009c 0B       		.uleb128 0xb
 2050 009d 49       		.uleb128 0x49
 2051 009e 13       		.uleb128 0x13
 2052 009f 3A       		.uleb128 0x3a
ARM GAS  /var/folders/6q/x_mk5n_j3p7_c40r_2k_78980000gn/T//ccju1LKG.s 			page 37


 2053 00a0 0B       		.uleb128 0xb
 2054 00a1 3B       		.uleb128 0x3b
 2055 00a2 0B       		.uleb128 0xb
 2056 00a3 01       		.uleb128 0x1
 2057 00a4 13       		.uleb128 0x13
 2058 00a5 00       		.byte	0
 2059 00a6 00       		.byte	0
 2060 00a7 0E       		.uleb128 0xe
 2061 00a8 13       		.uleb128 0x13
 2062 00a9 01       		.byte	0x1
 2063 00aa 03       		.uleb128 0x3
 2064 00ab 0E       		.uleb128 0xe
 2065 00ac 0B       		.uleb128 0xb
 2066 00ad 0B       		.uleb128 0xb
 2067 00ae 3A       		.uleb128 0x3a
 2068 00af 0B       		.uleb128 0xb
 2069 00b0 3B       		.uleb128 0x3b
 2070 00b1 0B       		.uleb128 0xb
 2071 00b2 01       		.uleb128 0x1
 2072 00b3 13       		.uleb128 0x13
 2073 00b4 00       		.byte	0
 2074 00b5 00       		.byte	0
 2075 00b6 0F       		.uleb128 0xf
 2076 00b7 0D       		.uleb128 0xd
 2077 00b8 00       		.byte	0
 2078 00b9 03       		.uleb128 0x3
 2079 00ba 0E       		.uleb128 0xe
 2080 00bb 3A       		.uleb128 0x3a
 2081 00bc 0B       		.uleb128 0xb
 2082 00bd 3B       		.uleb128 0x3b
 2083 00be 0B       		.uleb128 0xb
 2084 00bf 49       		.uleb128 0x49
 2085 00c0 13       		.uleb128 0x13
 2086 00c1 38       		.uleb128 0x38
 2087 00c2 0B       		.uleb128 0xb
 2088 00c3 00       		.byte	0
 2089 00c4 00       		.byte	0
 2090 00c5 10       		.uleb128 0x10
 2091 00c6 0F       		.uleb128 0xf
 2092 00c7 00       		.byte	0
 2093 00c8 0B       		.uleb128 0xb
 2094 00c9 0B       		.uleb128 0xb
 2095 00ca 49       		.uleb128 0x49
 2096 00cb 13       		.uleb128 0x13
 2097 00cc 00       		.byte	0
 2098 00cd 00       		.byte	0
 2099 00ce 11       		.uleb128 0x11
 2100 00cf 15       		.uleb128 0x15
 2101 00d0 01       		.byte	0x1
 2102 00d1 27       		.uleb128 0x27
 2103 00d2 19       		.uleb128 0x19
 2104 00d3 01       		.uleb128 0x1
 2105 00d4 13       		.uleb128 0x13
 2106 00d5 00       		.byte	0
 2107 00d6 00       		.byte	0
 2108 00d7 12       		.uleb128 0x12
 2109 00d8 05       		.uleb128 0x5
ARM GAS  /var/folders/6q/x_mk5n_j3p7_c40r_2k_78980000gn/T//ccju1LKG.s 			page 38


 2110 00d9 00       		.byte	0
 2111 00da 49       		.uleb128 0x49
 2112 00db 13       		.uleb128 0x13
 2113 00dc 00       		.byte	0
 2114 00dd 00       		.byte	0
 2115 00de 13       		.uleb128 0x13
 2116 00df 13       		.uleb128 0x13
 2117 00e0 01       		.byte	0x1
 2118 00e1 0B       		.uleb128 0xb
 2119 00e2 0B       		.uleb128 0xb
 2120 00e3 3A       		.uleb128 0x3a
 2121 00e4 0B       		.uleb128 0xb
 2122 00e5 3B       		.uleb128 0x3b
 2123 00e6 0B       		.uleb128 0xb
 2124 00e7 01       		.uleb128 0x1
 2125 00e8 13       		.uleb128 0x13
 2126 00e9 00       		.byte	0
 2127 00ea 00       		.byte	0
 2128 00eb 14       		.uleb128 0x14
 2129 00ec 0D       		.uleb128 0xd
 2130 00ed 00       		.byte	0
 2131 00ee 03       		.uleb128 0x3
 2132 00ef 08       		.uleb128 0x8
 2133 00f0 3A       		.uleb128 0x3a
 2134 00f1 0B       		.uleb128 0xb
 2135 00f2 3B       		.uleb128 0x3b
 2136 00f3 0B       		.uleb128 0xb
 2137 00f4 49       		.uleb128 0x49
 2138 00f5 13       		.uleb128 0x13
 2139 00f6 38       		.uleb128 0x38
 2140 00f7 0B       		.uleb128 0xb
 2141 00f8 00       		.byte	0
 2142 00f9 00       		.byte	0
 2143 00fa 15       		.uleb128 0x15
 2144 00fb 01       		.uleb128 0x1
 2145 00fc 01       		.byte	0x1
 2146 00fd 49       		.uleb128 0x49
 2147 00fe 13       		.uleb128 0x13
 2148 00ff 01       		.uleb128 0x1
 2149 0100 13       		.uleb128 0x13
 2150 0101 00       		.byte	0
 2151 0102 00       		.byte	0
 2152 0103 16       		.uleb128 0x16
 2153 0104 21       		.uleb128 0x21
 2154 0105 00       		.byte	0
 2155 0106 49       		.uleb128 0x49
 2156 0107 13       		.uleb128 0x13
 2157 0108 2F       		.uleb128 0x2f
 2158 0109 0B       		.uleb128 0xb
 2159 010a 00       		.byte	0
 2160 010b 00       		.byte	0
 2161 010c 17       		.uleb128 0x17
 2162 010d 26       		.uleb128 0x26
 2163 010e 00       		.byte	0
 2164 010f 49       		.uleb128 0x49
 2165 0110 13       		.uleb128 0x13
 2166 0111 00       		.byte	0
ARM GAS  /var/folders/6q/x_mk5n_j3p7_c40r_2k_78980000gn/T//ccju1LKG.s 			page 39


 2167 0112 00       		.byte	0
 2168 0113 18       		.uleb128 0x18
 2169 0114 2E       		.uleb128 0x2e
 2170 0115 01       		.byte	0x1
 2171 0116 3F       		.uleb128 0x3f
 2172 0117 19       		.uleb128 0x19
 2173 0118 03       		.uleb128 0x3
 2174 0119 0E       		.uleb128 0xe
 2175 011a 3A       		.uleb128 0x3a
 2176 011b 0B       		.uleb128 0xb
 2177 011c 3B       		.uleb128 0x3b
 2178 011d 0B       		.uleb128 0xb
 2179 011e 27       		.uleb128 0x27
 2180 011f 19       		.uleb128 0x19
 2181 0120 11       		.uleb128 0x11
 2182 0121 01       		.uleb128 0x1
 2183 0122 12       		.uleb128 0x12
 2184 0123 06       		.uleb128 0x6
 2185 0124 40       		.uleb128 0x40
 2186 0125 18       		.uleb128 0x18
 2187 0126 9742     		.uleb128 0x2117
 2188 0128 19       		.uleb128 0x19
 2189 0129 01       		.uleb128 0x1
 2190 012a 13       		.uleb128 0x13
 2191 012b 00       		.byte	0
 2192 012c 00       		.byte	0
 2193 012d 19       		.uleb128 0x19
 2194 012e 898201   		.uleb128 0x4109
 2195 0131 01       		.byte	0x1
 2196 0132 11       		.uleb128 0x11
 2197 0133 01       		.uleb128 0x1
 2198 0134 01       		.uleb128 0x1
 2199 0135 13       		.uleb128 0x13
 2200 0136 00       		.byte	0
 2201 0137 00       		.byte	0
 2202 0138 1A       		.uleb128 0x1a
 2203 0139 8A8201   		.uleb128 0x410a
 2204 013c 00       		.byte	0
 2205 013d 02       		.uleb128 0x2
 2206 013e 18       		.uleb128 0x18
 2207 013f 9142     		.uleb128 0x2111
 2208 0141 18       		.uleb128 0x18
 2209 0142 00       		.byte	0
 2210 0143 00       		.byte	0
 2211 0144 1B       		.uleb128 0x1b
 2212 0145 898201   		.uleb128 0x4109
 2213 0148 00       		.byte	0
 2214 0149 11       		.uleb128 0x11
 2215 014a 01       		.uleb128 0x1
 2216 014b 9542     		.uleb128 0x2115
 2217 014d 19       		.uleb128 0x19
 2218 014e 31       		.uleb128 0x31
 2219 014f 13       		.uleb128 0x13
 2220 0150 00       		.byte	0
 2221 0151 00       		.byte	0
 2222 0152 1C       		.uleb128 0x1c
 2223 0153 34       		.uleb128 0x34
ARM GAS  /var/folders/6q/x_mk5n_j3p7_c40r_2k_78980000gn/T//ccju1LKG.s 			page 40


 2224 0154 00       		.byte	0
 2225 0155 03       		.uleb128 0x3
 2226 0156 08       		.uleb128 0x8
 2227 0157 3A       		.uleb128 0x3a
 2228 0158 0B       		.uleb128 0xb
 2229 0159 3B       		.uleb128 0x3b
 2230 015a 0B       		.uleb128 0xb
 2231 015b 49       		.uleb128 0x49
 2232 015c 13       		.uleb128 0x13
 2233 015d 02       		.uleb128 0x2
 2234 015e 17       		.uleb128 0x17
 2235 015f 00       		.byte	0
 2236 0160 00       		.byte	0
 2237 0161 1D       		.uleb128 0x1d
 2238 0162 898201   		.uleb128 0x4109
 2239 0165 01       		.byte	0x1
 2240 0166 11       		.uleb128 0x11
 2241 0167 01       		.uleb128 0x1
 2242 0168 00       		.byte	0
 2243 0169 00       		.byte	0
 2244 016a 1E       		.uleb128 0x1e
 2245 016b 2E       		.uleb128 0x2e
 2246 016c 01       		.byte	0x1
 2247 016d 3F       		.uleb128 0x3f
 2248 016e 19       		.uleb128 0x19
 2249 016f 03       		.uleb128 0x3
 2250 0170 0E       		.uleb128 0xe
 2251 0171 3A       		.uleb128 0x3a
 2252 0172 0B       		.uleb128 0xb
 2253 0173 3B       		.uleb128 0x3b
 2254 0174 05       		.uleb128 0x5
 2255 0175 27       		.uleb128 0x27
 2256 0176 19       		.uleb128 0x19
 2257 0177 11       		.uleb128 0x11
 2258 0178 01       		.uleb128 0x1
 2259 0179 12       		.uleb128 0x12
 2260 017a 06       		.uleb128 0x6
 2261 017b 40       		.uleb128 0x40
 2262 017c 18       		.uleb128 0x18
 2263 017d 9742     		.uleb128 0x2117
 2264 017f 19       		.uleb128 0x19
 2265 0180 01       		.uleb128 0x1
 2266 0181 13       		.uleb128 0x13
 2267 0182 00       		.byte	0
 2268 0183 00       		.byte	0
 2269 0184 1F       		.uleb128 0x1f
 2270 0185 898201   		.uleb128 0x4109
 2271 0188 01       		.byte	0x1
 2272 0189 11       		.uleb128 0x11
 2273 018a 01       		.uleb128 0x1
 2274 018b 31       		.uleb128 0x31
 2275 018c 13       		.uleb128 0x13
 2276 018d 01       		.uleb128 0x1
 2277 018e 13       		.uleb128 0x13
 2278 018f 00       		.byte	0
 2279 0190 00       		.byte	0
 2280 0191 20       		.uleb128 0x20
ARM GAS  /var/folders/6q/x_mk5n_j3p7_c40r_2k_78980000gn/T//ccju1LKG.s 			page 41


 2281 0192 898201   		.uleb128 0x4109
 2282 0195 01       		.byte	0x1
 2283 0196 11       		.uleb128 0x11
 2284 0197 01       		.uleb128 0x1
 2285 0198 9542     		.uleb128 0x2115
 2286 019a 19       		.uleb128 0x19
 2287 019b 31       		.uleb128 0x31
 2288 019c 13       		.uleb128 0x13
 2289 019d 00       		.byte	0
 2290 019e 00       		.byte	0
 2291 019f 21       		.uleb128 0x21
 2292 01a0 34       		.uleb128 0x34
 2293 01a1 00       		.byte	0
 2294 01a2 03       		.uleb128 0x3
 2295 01a3 0E       		.uleb128 0xe
 2296 01a4 3A       		.uleb128 0x3a
 2297 01a5 0B       		.uleb128 0xb
 2298 01a6 3B       		.uleb128 0x3b
 2299 01a7 05       		.uleb128 0x5
 2300 01a8 49       		.uleb128 0x49
 2301 01a9 13       		.uleb128 0x13
 2302 01aa 3F       		.uleb128 0x3f
 2303 01ab 19       		.uleb128 0x19
 2304 01ac 3C       		.uleb128 0x3c
 2305 01ad 19       		.uleb128 0x19
 2306 01ae 00       		.byte	0
 2307 01af 00       		.byte	0
 2308 01b0 22       		.uleb128 0x22
 2309 01b1 34       		.uleb128 0x34
 2310 01b2 00       		.byte	0
 2311 01b3 03       		.uleb128 0x3
 2312 01b4 0E       		.uleb128 0xe
 2313 01b5 3A       		.uleb128 0x3a
 2314 01b6 0B       		.uleb128 0xb
 2315 01b7 3B       		.uleb128 0x3b
 2316 01b8 0B       		.uleb128 0xb
 2317 01b9 49       		.uleb128 0x49
 2318 01ba 13       		.uleb128 0x13
 2319 01bb 3F       		.uleb128 0x3f
 2320 01bc 19       		.uleb128 0x19
 2321 01bd 3C       		.uleb128 0x3c
 2322 01be 19       		.uleb128 0x19
 2323 01bf 00       		.byte	0
 2324 01c0 00       		.byte	0
 2325 01c1 23       		.uleb128 0x23
 2326 01c2 2E       		.uleb128 0x2e
 2327 01c3 00       		.byte	0
 2328 01c4 3F       		.uleb128 0x3f
 2329 01c5 19       		.uleb128 0x19
 2330 01c6 3C       		.uleb128 0x3c
 2331 01c7 19       		.uleb128 0x19
 2332 01c8 6E       		.uleb128 0x6e
 2333 01c9 0E       		.uleb128 0xe
 2334 01ca 03       		.uleb128 0x3
 2335 01cb 0E       		.uleb128 0xe
 2336 01cc 3A       		.uleb128 0x3a
 2337 01cd 0B       		.uleb128 0xb
ARM GAS  /var/folders/6q/x_mk5n_j3p7_c40r_2k_78980000gn/T//ccju1LKG.s 			page 42


 2338 01ce 3B       		.uleb128 0x3b
 2339 01cf 05       		.uleb128 0x5
 2340 01d0 00       		.byte	0
 2341 01d1 00       		.byte	0
 2342 01d2 00       		.byte	0
 2343              		.section	.debug_loc,"",%progbits
 2344              	.Ldebug_loc0:
 2345              	.LLST0:
 2346 0000 0A000000 		.4byte	.LVL10
 2347 0004 10000000 		.4byte	.LVL11
 2348 0008 0100     		.2byte	0x1
 2349 000a 52       		.byte	0x52
 2350 000b 10000000 		.4byte	.LVL11
 2351 000f 2E000000 		.4byte	.LVL13
 2352 0013 0700     		.2byte	0x7
 2353 0015 74       		.byte	0x74
 2354 0016 00       		.sleb128 0
 2355 0017 0A       		.byte	0xa
 2356 0018 E003     		.2byte	0x3e0
 2357 001a 1A       		.byte	0x1a
 2358 001b 9F       		.byte	0x9f
 2359 001c 32000000 		.4byte	.LVL14
 2360 0020 56000000 		.4byte	.LVL18
 2361 0024 0700     		.2byte	0x7
 2362 0026 74       		.byte	0x74
 2363 0027 00       		.sleb128 0
 2364 0028 0A       		.byte	0xa
 2365 0029 E003     		.2byte	0x3e0
 2366 002b 1A       		.byte	0x1a
 2367 002c 9F       		.byte	0x9f
 2368 002d 56000000 		.4byte	.LVL18
 2369 0031 5F000000 		.4byte	.LVL19-1
 2370 0035 0100     		.2byte	0x1
 2371 0037 52       		.byte	0x52
 2372 0038 5F000000 		.4byte	.LVL19-1
 2373 003c 6C000000 		.4byte	.LFE68
 2374 0040 0700     		.2byte	0x7
 2375 0042 74       		.byte	0x74
 2376 0043 00       		.sleb128 0
 2377 0044 0A       		.byte	0xa
 2378 0045 E003     		.2byte	0x3e0
 2379 0047 1A       		.byte	0x1a
 2380 0048 9F       		.byte	0x9f
 2381 0049 00000000 		.4byte	0
 2382 004d 00000000 		.4byte	0
 2383              	.LLST1:
 2384 0051 0A000000 		.4byte	.LVL20
 2385 0055 0E000000 		.4byte	.LVL21
 2386 0059 0100     		.2byte	0x1
 2387 005b 52       		.byte	0x52
 2388 005c 0E000000 		.4byte	.LVL21
 2389 0060 10000000 		.4byte	.LVL22
 2390 0064 0200     		.2byte	0x2
 2391 0066 73       		.byte	0x73
 2392 0067 14       		.sleb128 20
 2393 0068 10000000 		.4byte	.LVL22
 2394 006c 32000000 		.4byte	.LVL24
ARM GAS  /var/folders/6q/x_mk5n_j3p7_c40r_2k_78980000gn/T//ccju1LKG.s 			page 43


 2395 0070 0700     		.2byte	0x7
 2396 0072 74       		.byte	0x74
 2397 0073 00       		.sleb128 0
 2398 0074 0A       		.byte	0xa
 2399 0075 00FC     		.2byte	0xfc00
 2400 0077 1A       		.byte	0x1a
 2401 0078 9F       		.byte	0x9f
 2402 0079 36000000 		.4byte	.LVL25
 2403 007d 66000000 		.4byte	.LVL30
 2404 0081 0700     		.2byte	0x7
 2405 0083 74       		.byte	0x74
 2406 0084 00       		.sleb128 0
 2407 0085 0A       		.byte	0xa
 2408 0086 00FC     		.2byte	0xfc00
 2409 0088 1A       		.byte	0x1a
 2410 0089 9F       		.byte	0x9f
 2411 008a 66000000 		.4byte	.LVL30
 2412 008e 6C000000 		.4byte	.LVL31
 2413 0092 0200     		.2byte	0x2
 2414 0094 73       		.byte	0x73
 2415 0095 14       		.sleb128 20
 2416 0096 6C000000 		.4byte	.LVL31
 2417 009a 6F000000 		.4byte	.LVL32-1
 2418 009e 0500     		.2byte	0x5
 2419 00a0 0C       		.byte	0xc
 2420 00a1 14040140 		.4byte	0x40010414
 2421 00a5 6F000000 		.4byte	.LVL32-1
 2422 00a9 7C000000 		.4byte	.LFE69
 2423 00ad 0700     		.2byte	0x7
 2424 00af 74       		.byte	0x74
 2425 00b0 00       		.sleb128 0
 2426 00b1 0A       		.byte	0xa
 2427 00b2 00FC     		.2byte	0xfc00
 2428 00b4 1A       		.byte	0x1a
 2429 00b5 9F       		.byte	0x9f
 2430 00b6 00000000 		.4byte	0
 2431 00ba 00000000 		.4byte	0
 2432              		.section	.debug_aranges,"",%progbits
 2433 0000 74000000 		.4byte	0x74
 2434 0004 0200     		.2byte	0x2
 2435 0006 00000000 		.4byte	.Ldebug_info0
 2436 000a 04       		.byte	0x4
 2437 000b 00       		.byte	0
 2438 000c 0000     		.2byte	0
 2439 000e 0000     		.2byte	0
 2440 0010 00000000 		.4byte	.LFB63
 2441 0014 24000000 		.4byte	.LFE63-.LFB63
 2442 0018 00000000 		.4byte	.LFB64
 2443 001c 24000000 		.4byte	.LFE64-.LFB64
 2444 0020 00000000 		.4byte	.LFB65
 2445 0024 24000000 		.4byte	.LFE65-.LFB65
 2446 0028 00000000 		.4byte	.LFB66
 2447 002c 24000000 		.4byte	.LFE66-.LFB66
 2448 0030 00000000 		.4byte	.LFB67
 2449 0034 24000000 		.4byte	.LFE67-.LFB67
 2450 0038 00000000 		.4byte	.LFB68
 2451 003c 6C000000 		.4byte	.LFE68-.LFB68
ARM GAS  /var/folders/6q/x_mk5n_j3p7_c40r_2k_78980000gn/T//ccju1LKG.s 			page 44


 2452 0040 00000000 		.4byte	.LFB69
 2453 0044 7C000000 		.4byte	.LFE69-.LFB69
 2454 0048 00000000 		.4byte	.LFB70
 2455 004c 28000000 		.4byte	.LFE70-.LFB70
 2456 0050 00000000 		.4byte	.LFB71
 2457 0054 28000000 		.4byte	.LFE71-.LFB71
 2458 0058 00000000 		.4byte	.LFB72
 2459 005c 28000000 		.4byte	.LFE72-.LFB72
 2460 0060 00000000 		.4byte	.LFB73
 2461 0064 56000000 		.4byte	.LFE73-.LFB73
 2462 0068 00000000 		.4byte	.LFB74
 2463 006c 42000000 		.4byte	.LFE74-.LFB74
 2464 0070 00000000 		.4byte	0
 2465 0074 00000000 		.4byte	0
 2466              		.section	.debug_ranges,"",%progbits
 2467              	.Ldebug_ranges0:
 2468 0000 00000000 		.4byte	.LFB63
 2469 0004 24000000 		.4byte	.LFE63
 2470 0008 00000000 		.4byte	.LFB64
 2471 000c 24000000 		.4byte	.LFE64
 2472 0010 00000000 		.4byte	.LFB65
 2473 0014 24000000 		.4byte	.LFE65
 2474 0018 00000000 		.4byte	.LFB66
 2475 001c 24000000 		.4byte	.LFE66
 2476 0020 00000000 		.4byte	.LFB67
 2477 0024 24000000 		.4byte	.LFE67
 2478 0028 00000000 		.4byte	.LFB68
 2479 002c 6C000000 		.4byte	.LFE68
 2480 0030 00000000 		.4byte	.LFB69
 2481 0034 7C000000 		.4byte	.LFE69
 2482 0038 00000000 		.4byte	.LFB70
 2483 003c 28000000 		.4byte	.LFE70
 2484 0040 00000000 		.4byte	.LFB71
 2485 0044 28000000 		.4byte	.LFE71
 2486 0048 00000000 		.4byte	.LFB72
 2487 004c 28000000 		.4byte	.LFE72
 2488 0050 00000000 		.4byte	.LFB73
 2489 0054 56000000 		.4byte	.LFE73
 2490 0058 00000000 		.4byte	.LFB74
 2491 005c 42000000 		.4byte	.LFE74
 2492 0060 00000000 		.4byte	0
 2493 0064 00000000 		.4byte	0
 2494              		.section	.debug_line,"",%progbits
 2495              	.Ldebug_line0:
 2496 0000 58030000 		.section	.debug_str,"MS",%progbits,1
 2496      02000F02 
 2496      00000201 
 2496      FB0E0D00 
 2496      01010101 
 2497              	.LASF26:
 2498 0000 5056445F 		.ascii	"PVD_IRQn\000"
 2498      4952516E 
 2498      00
 2499              	.LASF107:
 2500 0009 56656374 		.ascii	"Vector9C\000"
 2500      6F723943 
 2500      00
ARM GAS  /var/folders/6q/x_mk5n_j3p7_c40r_2k_78980000gn/T//ccju1LKG.s 			page 45


 2501              	.LASF56:
 2502 0012 49324331 		.ascii	"I2C1_EV_IRQn\000"
 2502      5F45565F 
 2502      4952516E 
 2502      00
 2503              	.LASF96:
 2504 001f 65787063 		.ascii	"expchannel_t\000"
 2504      68616E6E 
 2504      656C5F74 
 2504      00
 2505              	.LASF87:
 2506 002c 53574945 		.ascii	"SWIER\000"
 2506      5200
 2507              	.LASF46:
 2508 0032 43414E31 		.ascii	"CAN1_RX1_IRQn\000"
 2508      5F525831 
 2508      5F495251 
 2508      6E00
 2509              	.LASF11:
 2510 0040 6C6F6E67 		.ascii	"long long unsigned int\000"
 2510      206C6F6E 
 2510      6720756E 
 2510      7369676E 
 2510      65642069 
 2511              	.LASF81:
 2512 0057 444D4132 		.ascii	"DMA2_Channel1_IRQn\000"
 2512      5F436861 
 2512      6E6E656C 
 2512      315F4952 
 2512      516E00
 2513              	.LASF66:
 2514 006a 5254435F 		.ascii	"RTC_Alarm_IRQn\000"
 2514      416C6172 
 2514      6D5F4952 
 2514      516E00
 2515              	.LASF59:
 2516 0079 49324332 		.ascii	"I2C2_ER_IRQn\000"
 2516      5F45525F 
 2516      4952516E 
 2516      00
 2517              	.LASF55:
 2518 0086 54494D34 		.ascii	"TIM4_IRQn\000"
 2518      5F495251 
 2518      6E00
 2519              	.LASF33:
 2520 0090 45585449 		.ascii	"EXTI2_IRQn\000"
 2520      325F4952 
 2520      516E00
 2521              	.LASF25:
 2522 009b 57574447 		.ascii	"WWDG_IRQn\000"
 2522      5F495251 
 2522      6E00
 2523              	.LASF74:
 2524 00a5 5344494F 		.ascii	"SDIO_IRQn\000"
 2524      5F495251 
 2524      6E00
 2525              	.LASF117:
ARM GAS  /var/folders/6q/x_mk5n_j3p7_c40r_2k_78980000gn/T//ccju1LKG.s 			page 46


 2526 00af 6E766963 		.ascii	"nvicEnableVector\000"
 2526      456E6162 
 2526      6C655665 
 2526      63746F72 
 2526      00
 2527              	.LASF1:
 2528 00c0 6C6F6E67 		.ascii	"long long int\000"
 2528      206C6F6E 
 2528      6720696E 
 2528      7400
 2529              	.LASF3:
 2530 00ce 7369676E 		.ascii	"signed char\000"
 2530      65642063 
 2530      68617200 
 2531              	.LASF31:
 2532 00da 45585449 		.ascii	"EXTI0_IRQn\000"
 2532      305F4952 
 2532      516E00
 2533              	.LASF94:
 2534 00e5 73746174 		.ascii	"state\000"
 2534      6500
 2535              	.LASF100:
 2536 00eb 6368616E 		.ascii	"channels\000"
 2536      6E656C73 
 2536      00
 2537              	.LASF7:
 2538 00f4 6C6F6E67 		.ascii	"long int\000"
 2538      20696E74 
 2538      00
 2539              	.LASF58:
 2540 00fd 49324332 		.ascii	"I2C2_EV_IRQn\000"
 2540      5F45565F 
 2540      4952516E 
 2540      00
 2541              	.LASF48:
 2542 010a 45585449 		.ascii	"EXTI9_5_IRQn\000"
 2542      395F355F 
 2542      4952516E 
 2542      00
 2543              	.LASF72:
 2544 0117 41444333 		.ascii	"ADC3_IRQn\000"
 2544      5F495251 
 2544      6E00
 2545              	.LASF43:
 2546 0121 41444331 		.ascii	"ADC1_2_IRQn\000"
 2546      5F325F49 
 2546      52516E00 
 2547              	.LASF77:
 2548 012d 55415254 		.ascii	"UART4_IRQn\000"
 2548      345F4952 
 2548      516E00
 2549              	.LASF99:
 2550 0138 45585443 		.ascii	"EXTChannelConfig\000"
 2550      68616E6E 
 2550      656C436F 
 2550      6E666967 
 2550      00
ARM GAS  /var/folders/6q/x_mk5n_j3p7_c40r_2k_78980000gn/T//ccju1LKG.s 			page 47


 2551              	.LASF23:
 2552 0149 50656E64 		.ascii	"PendSV_IRQn\000"
 2552      53565F49 
 2552      52516E00 
 2553              	.LASF39:
 2554 0155 444D4131 		.ascii	"DMA1_Channel4_IRQn\000"
 2554      5F436861 
 2554      6E6E656C 
 2554      345F4952 
 2554      516E00
 2555              	.LASF9:
 2556 0168 5F5F7569 		.ascii	"__uint32_t\000"
 2556      6E743332 
 2556      5F7400
 2557              	.LASF19:
 2558 0173 42757346 		.ascii	"BusFault_IRQn\000"
 2558      61756C74 
 2558      5F495251 
 2558      6E00
 2559              	.LASF113:
 2560 0181 6578745F 		.ascii	"ext_lld_exti_irq_disable\000"
 2560      6C6C645F 
 2560      65787469 
 2560      5F697271 
 2560      5F646973 
 2561              	.LASF0:
 2562 019a 756E7369 		.ascii	"unsigned int\000"
 2562      676E6564 
 2562      20696E74 
 2562      00
 2563              	.LASF118:
 2564 01a7 6E766963 		.ascii	"nvicDisableVector\000"
 2564      44697361 
 2564      626C6556 
 2564      6563746F 
 2564      7200
 2565              	.LASF85:
 2566 01b9 52545352 		.ascii	"RTSR\000"
 2566      00
 2567              	.LASF18:
 2568 01be 4D656D6F 		.ascii	"MemoryManagement_IRQn\000"
 2568      72794D61 
 2568      6E616765 
 2568      6D656E74 
 2568      5F495251 
 2569              	.LASF10:
 2570 01d4 6C6F6E67 		.ascii	"long unsigned int\000"
 2570      20756E73 
 2570      69676E65 
 2570      6420696E 
 2570      7400
 2571              	.LASF119:
 2572 01e6 474E5520 		.ascii	"GNU C11 5.4.1 20160919 (release) [ARM/embedded-5-br"
 2572      43313120 
 2572      352E342E 
 2572      31203230 
 2572      31363039 
ARM GAS  /var/folders/6q/x_mk5n_j3p7_c40r_2k_78980000gn/T//ccju1LKG.s 			page 48


 2573 0219 616E6368 		.ascii	"anch revision 240496] -mcpu=cortex-m3 -mno-thumb-in"
 2573      20726576 
 2573      6973696F 
 2573      6E203234 
 2573      30343936 
 2574 024c 74657277 		.ascii	"terwork -mthumb -ggdb -O2 -fomit-frame-pointer -fal"
 2574      6F726B20 
 2574      2D6D7468 
 2574      756D6220 
 2574      2D676764 
 2575 027f 69676E2D 		.ascii	"ign-functions=16 -ffunction-sections -fdata-section"
 2575      66756E63 
 2575      74696F6E 
 2575      733D3136 
 2575      202D6666 
 2576 02b2 73202D66 		.ascii	"s -fno-common\000"
 2576      6E6F2D63 
 2576      6F6D6D6F 
 2576      6E00
 2577              	.LASF40:
 2578 02c0 444D4131 		.ascii	"DMA1_Channel5_IRQn\000"
 2578      5F436861 
 2578      6E6E656C 
 2578      355F4952 
 2578      516E00
 2579              	.LASF6:
 2580 02d3 73686F72 		.ascii	"short unsigned int\000"
 2580      7420756E 
 2580      7369676E 
 2580      65642069 
 2580      6E7400
 2581              	.LASF112:
 2582 02e6 6578745F 		.ascii	"ext_lld_exti_irq_enable\000"
 2582      6C6C645F 
 2582      65787469 
 2582      5F697271 
 2582      5F656E61 
 2583              	.LASF51:
 2584 02fe 54494D31 		.ascii	"TIM1_TRG_COM_IRQn\000"
 2584      5F545247 
 2584      5F434F4D 
 2584      5F495251 
 2584      6E00
 2585              	.LASF101:
 2586 0310 45585443 		.ascii	"EXTConfig\000"
 2586      6F6E6669 
 2586      6700
 2587              	.LASF65:
 2588 031a 45585449 		.ascii	"EXTI15_10_IRQn\000"
 2588      31355F31 
 2588      305F4952 
 2588      516E00
 2589              	.LASF60:
 2590 0329 53504931 		.ascii	"SPI1_IRQn\000"
 2590      5F495251 
 2590      6E00
 2591              	.LASF24:
ARM GAS  /var/folders/6q/x_mk5n_j3p7_c40r_2k_78980000gn/T//ccju1LKG.s 			page 49


 2592 0333 53797354 		.ascii	"SysTick_IRQn\000"
 2592      69636B5F 
 2592      4952516E 
 2592      00
 2593              	.LASF52:
 2594 0340 54494D31 		.ascii	"TIM1_CC_IRQn\000"
 2594      5F43435F 
 2594      4952516E 
 2594      00
 2595              	.LASF91:
 2596 034d 4558545F 		.ascii	"EXT_ACTIVE\000"
 2596      41435449 
 2596      564500
 2597              	.LASF102:
 2598 0358 56656374 		.ascii	"Vector58\000"
 2598      6F723538 
 2598      00
 2599              	.LASF122:
 2600 0361 4952516E 		.ascii	"IRQn\000"
 2600      00
 2601              	.LASF37:
 2602 0366 444D4131 		.ascii	"DMA1_Channel2_IRQn\000"
 2602      5F436861 
 2602      6E6E656C 
 2602      325F4952 
 2602      516E00
 2603              	.LASF68:
 2604 0379 54494D38 		.ascii	"TIM8_BRK_IRQn\000"
 2604      5F42524B 
 2604      5F495251 
 2604      6E00
 2605              	.LASF103:
 2606 0387 56656374 		.ascii	"Vector5C\000"
 2606      6F723543 
 2606      00
 2607              	.LASF15:
 2608 0390 73697A65 		.ascii	"sizetype\000"
 2608      74797065 
 2608      00
 2609              	.LASF92:
 2610 0399 65787473 		.ascii	"extstate_t\000"
 2610      74617465 
 2610      5F7400
 2611              	.LASF71:
 2612 03a4 54494D38 		.ascii	"TIM8_CC_IRQn\000"
 2612      5F43435F 
 2612      4952516E 
 2612      00
 2613              	.LASF21:
 2614 03b1 53564361 		.ascii	"SVCall_IRQn\000"
 2614      6C6C5F49 
 2614      52516E00 
 2615              	.LASF82:
 2616 03bd 444D4132 		.ascii	"DMA2_Channel2_IRQn\000"
 2616      5F436861 
 2616      6E6E656C 
 2616      325F4952 
ARM GAS  /var/folders/6q/x_mk5n_j3p7_c40r_2k_78980000gn/T//ccju1LKG.s 			page 50


 2616      516E00
 2617              	.LASF75:
 2618 03d0 54494D35 		.ascii	"TIM5_IRQn\000"
 2618      5F495251 
 2618      6E00
 2619              	.LASF34:
 2620 03da 45585449 		.ascii	"EXTI3_IRQn\000"
 2620      335F4952 
 2620      516E00
 2621              	.LASF61:
 2622 03e5 53504932 		.ascii	"SPI2_IRQn\000"
 2622      5F495251 
 2622      6E00
 2623              	.LASF83:
 2624 03ef 444D4132 		.ascii	"DMA2_Channel3_IRQn\000"
 2624      5F436861 
 2624      6E6E656C 
 2624      335F4952 
 2624      516E00
 2625              	.LASF67:
 2626 0402 5553425F 		.ascii	"USB_FS_WKUP_IRQn\000"
 2626      46535F57 
 2626      4B55505F 
 2626      4952516E 
 2626      00
 2627              	.LASF109:
 2628 0413 56656374 		.ascii	"Vector44\000"
 2628      6F723434 
 2628      00
 2629              	.LASF108:
 2630 041c 56656374 		.ascii	"VectorE0\000"
 2630      6F724530 
 2630      00
 2631              	.LASF110:
 2632 0425 56656374 		.ascii	"VectorE4\000"
 2632      6F724534 
 2632      00
 2633              	.LASF111:
 2634 042e 56656374 		.ascii	"VectorE8\000"
 2634      6F724538 
 2634      00
 2635              	.LASF104:
 2636 0437 56656374 		.ascii	"Vector60\000"
 2636      6F723630 
 2636      00
 2637              	.LASF36:
 2638 0440 444D4131 		.ascii	"DMA1_Channel1_IRQn\000"
 2638      5F436861 
 2638      6E6E656C 
 2638      315F4952 
 2638      516E00
 2639              	.LASF105:
 2640 0453 56656374 		.ascii	"Vector64\000"
 2640      6F723634 
 2640      00
 2641              	.LASF106:
 2642 045c 56656374 		.ascii	"Vector68\000"
ARM GAS  /var/folders/6q/x_mk5n_j3p7_c40r_2k_78980000gn/T//ccju1LKG.s 			page 51


 2642      6F723638 
 2642      00
 2643              	.LASF45:
 2644 0465 5553425F 		.ascii	"USB_LP_CAN1_RX0_IRQn\000"
 2644      4C505F43 
 2644      414E315F 
 2644      5258305F 
 2644      4952516E 
 2645              	.LASF62:
 2646 047a 55534152 		.ascii	"USART1_IRQn\000"
 2646      54315F49 
 2646      52516E00 
 2647              	.LASF73:
 2648 0486 46534D43 		.ascii	"FSMC_IRQn\000"
 2648      5F495251 
 2648      6E00
 2649              	.LASF14:
 2650 0490 5F426F6F 		.ascii	"_Bool\000"
 2650      6C00
 2651              	.LASF12:
 2652 0496 696E7433 		.ascii	"int32_t\000"
 2652      325F7400 
 2653              	.LASF4:
 2654 049e 756E7369 		.ascii	"unsigned char\000"
 2654      676E6564 
 2654      20636861 
 2654      7200
 2655              	.LASF89:
 2656 04ac 4558545F 		.ascii	"EXT_UNINIT\000"
 2656      554E494E 
 2656      495400
 2657              	.LASF70:
 2658 04b7 54494D38 		.ascii	"TIM8_TRG_COM_IRQn\000"
 2658      5F545247 
 2658      5F434F4D 
 2658      5F495251 
 2658      6E00
 2659              	.LASF44:
 2660 04c9 5553425F 		.ascii	"USB_HP_CAN1_TX_IRQn\000"
 2660      48505F43 
 2660      414E315F 
 2660      54585F49 
 2660      52516E00 
 2661              	.LASF114:
 2662 04dd 49544D5F 		.ascii	"ITM_RxBuffer\000"
 2662      52784275 
 2662      66666572 
 2662      00
 2663              	.LASF79:
 2664 04ea 54494D36 		.ascii	"TIM6_IRQn\000"
 2664      5F495251 
 2664      6E00
 2665              	.LASF86:
 2666 04f4 46545352 		.ascii	"FTSR\000"
 2666      00
 2667              	.LASF35:
 2668 04f9 45585449 		.ascii	"EXTI4_IRQn\000"
ARM GAS  /var/folders/6q/x_mk5n_j3p7_c40r_2k_78980000gn/T//ccju1LKG.s 			page 52


 2668      345F4952 
 2668      516E00
 2669              	.LASF5:
 2670 0504 73686F72 		.ascii	"short int\000"
 2670      7420696E 
 2670      7400
 2671              	.LASF78:
 2672 050e 55415254 		.ascii	"UART5_IRQn\000"
 2672      355F4952 
 2672      516E00
 2673              	.LASF38:
 2674 0519 444D4131 		.ascii	"DMA1_Channel3_IRQn\000"
 2674      5F436861 
 2674      6E6E656C 
 2674      335F4952 
 2674      516E00
 2675              	.LASF84:
 2676 052c 444D4132 		.ascii	"DMA2_Channel4_5_IRQn\000"
 2676      5F436861 
 2676      6E6E656C 
 2676      345F355F 
 2676      4952516E 
 2677              	.LASF29:
 2678 0541 464C4153 		.ascii	"FLASH_IRQn\000"
 2678      485F4952 
 2678      516E00
 2679              	.LASF13:
 2680 054c 75696E74 		.ascii	"uint32_t\000"
 2680      33325F74 
 2680      00
 2681              	.LASF63:
 2682 0555 55534152 		.ascii	"USART2_IRQn\000"
 2682      54325F49 
 2682      52516E00 
 2683              	.LASF20:
 2684 0561 55736167 		.ascii	"UsageFault_IRQn\000"
 2684      65466175 
 2684      6C745F49 
 2684      52516E00 
 2685              	.LASF2:
 2686 0571 6C6F6E67 		.ascii	"long double\000"
 2686      20646F75 
 2686      626C6500 
 2687              	.LASF90:
 2688 057d 4558545F 		.ascii	"EXT_STOP\000"
 2688      53544F50 
 2688      00
 2689              	.LASF16:
 2690 0586 63686172 		.ascii	"char\000"
 2690      00
 2691              	.LASF98:
 2692 058b 6D6F6465 		.ascii	"mode\000"
 2692      00
 2693              	.LASF95:
 2694 0590 636F6E66 		.ascii	"config\000"
 2694      696700
 2695              	.LASF49:
ARM GAS  /var/folders/6q/x_mk5n_j3p7_c40r_2k_78980000gn/T//ccju1LKG.s 			page 53


 2696 0597 54494D31 		.ascii	"TIM1_BRK_IRQn\000"
 2696      5F42524B 
 2696      5F495251 
 2696      6E00
 2697              	.LASF97:
 2698 05a5 65787463 		.ascii	"extcallback_t\000"
 2698      616C6C62 
 2698      61636B5F 
 2698      7400
 2699              	.LASF80:
 2700 05b3 54494D37 		.ascii	"TIM7_IRQn\000"
 2700      5F495251 
 2700      6E00
 2701              	.LASF17:
 2702 05bd 4E6F6E4D 		.ascii	"NonMaskableInt_IRQn\000"
 2702      61736B61 
 2702      626C6549 
 2702      6E745F49 
 2702      52516E00 
 2703              	.LASF8:
 2704 05d1 5F5F696E 		.ascii	"__int32_t\000"
 2704      7433325F 
 2704      7400
 2705              	.LASF41:
 2706 05db 444D4131 		.ascii	"DMA1_Channel6_IRQn\000"
 2706      5F436861 
 2706      6E6E656C 
 2706      365F4952 
 2706      516E00
 2707              	.LASF27:
 2708 05ee 54414D50 		.ascii	"TAMPER_IRQn\000"
 2708      45525F49 
 2708      52516E00 
 2709              	.LASF57:
 2710 05fa 49324331 		.ascii	"I2C1_ER_IRQn\000"
 2710      5F45525F 
 2710      4952516E 
 2710      00
 2711              	.LASF64:
 2712 0607 55534152 		.ascii	"USART3_IRQn\000"
 2712      54335F49 
 2712      52516E00 
 2713              	.LASF93:
 2714 0613 45585444 		.ascii	"EXTDriver\000"
 2714      72697665 
 2714      7200
 2715              	.LASF53:
 2716 061d 54494D32 		.ascii	"TIM2_IRQn\000"
 2716      5F495251 
 2716      6E00
 2717              	.LASF69:
 2718 0627 54494D38 		.ascii	"TIM8_UP_IRQn\000"
 2718      5F55505F 
 2718      4952516E 
 2718      00
 2719              	.LASF121:
 2720 0634 2F557365 		.ascii	"/Users/Luca/src/vexilla/src/teamA\000"
ARM GAS  /var/folders/6q/x_mk5n_j3p7_c40r_2k_78980000gn/T//ccju1LKG.s 			page 54


 2720      72732F4C 
 2720      7563612F 
 2720      7372632F 
 2720      76657869 
 2721              	.LASF50:
 2722 0656 54494D31 		.ascii	"TIM1_UP_IRQn\000"
 2722      5F55505F 
 2722      4952516E 
 2722      00
 2723              	.LASF116:
 2724 0663 5F706F72 		.ascii	"_port_irq_epilogue\000"
 2724      745F6972 
 2724      715F6570 
 2724      696C6F67 
 2724      756500
 2725              	.LASF30:
 2726 0676 5243435F 		.ascii	"RCC_IRQn\000"
 2726      4952516E 
 2726      00
 2727              	.LASF42:
 2728 067f 444D4131 		.ascii	"DMA1_Channel7_IRQn\000"
 2728      5F436861 
 2728      6E6E656C 
 2728      375F4952 
 2728      516E00
 2729              	.LASF22:
 2730 0692 44656275 		.ascii	"DebugMonitor_IRQn\000"
 2730      674D6F6E 
 2730      69746F72 
 2730      5F495251 
 2730      6E00
 2731              	.LASF88:
 2732 06a4 45585449 		.ascii	"EXTI_TypeDef\000"
 2732      5F547970 
 2732      65446566 
 2732      00
 2733              	.LASF28:
 2734 06b1 5254435F 		.ascii	"RTC_IRQn\000"
 2734      4952516E 
 2734      00
 2735              	.LASF76:
 2736 06ba 53504933 		.ascii	"SPI3_IRQn\000"
 2736      5F495251 
 2736      6E00
 2737              	.LASF120:
 2738 06c4 2E2E2F43 		.ascii	"../ChibiOS/os/hal/platforms/STM32F1xx/ext_lld_isr.c"
 2738      68696269 
 2738      4F532F6F 
 2738      732F6861 
 2738      6C2F706C 
 2739 06f7 00       		.ascii	"\000"
 2740              	.LASF115:
 2741 06f8 45585444 		.ascii	"EXTD1\000"
 2741      3100
 2742              	.LASF47:
 2743 06fe 43414E31 		.ascii	"CAN1_SCE_IRQn\000"
 2743      5F534345 
ARM GAS  /var/folders/6q/x_mk5n_j3p7_c40r_2k_78980000gn/T//ccju1LKG.s 			page 55


 2743      5F495251 
 2743      6E00
 2744              	.LASF54:
 2745 070c 54494D33 		.ascii	"TIM3_IRQn\000"
 2745      5F495251 
 2745      6E00
 2746              	.LASF32:
 2747 0716 45585449 		.ascii	"EXTI1_IRQn\000"
 2747      315F4952 
 2747      516E00
 2748              		.ident	"GCC: (GNU Tools for ARM Embedded Processors) 5.4.1 20160919 (release) [ARM/embedded-5-bran
ARM GAS  /var/folders/6q/x_mk5n_j3p7_c40r_2k_78980000gn/T//ccju1LKG.s 			page 56


DEFINED SYMBOLS
                            *ABS*:0000000000000000 ext_lld_isr.c
/var/folders/6q/x_mk5n_j3p7_c40r_2k_78980000gn/T//ccju1LKG.s:20     .text.Vector58:0000000000000000 $t
/var/folders/6q/x_mk5n_j3p7_c40r_2k_78980000gn/T//ccju1LKG.s:26     .text.Vector58:0000000000000000 Vector58
/var/folders/6q/x_mk5n_j3p7_c40r_2k_78980000gn/T//ccju1LKG.s:64     .text.Vector58:000000000000001c $d
/var/folders/6q/x_mk5n_j3p7_c40r_2k_78980000gn/T//ccju1LKG.s:70     .text.Vector5C:0000000000000000 $t
/var/folders/6q/x_mk5n_j3p7_c40r_2k_78980000gn/T//ccju1LKG.s:76     .text.Vector5C:0000000000000000 Vector5C
/var/folders/6q/x_mk5n_j3p7_c40r_2k_78980000gn/T//ccju1LKG.s:113    .text.Vector5C:000000000000001c $d
/var/folders/6q/x_mk5n_j3p7_c40r_2k_78980000gn/T//ccju1LKG.s:119    .text.Vector60:0000000000000000 $t
/var/folders/6q/x_mk5n_j3p7_c40r_2k_78980000gn/T//ccju1LKG.s:125    .text.Vector60:0000000000000000 Vector60
/var/folders/6q/x_mk5n_j3p7_c40r_2k_78980000gn/T//ccju1LKG.s:162    .text.Vector60:000000000000001c $d
/var/folders/6q/x_mk5n_j3p7_c40r_2k_78980000gn/T//ccju1LKG.s:168    .text.Vector64:0000000000000000 $t
/var/folders/6q/x_mk5n_j3p7_c40r_2k_78980000gn/T//ccju1LKG.s:174    .text.Vector64:0000000000000000 Vector64
/var/folders/6q/x_mk5n_j3p7_c40r_2k_78980000gn/T//ccju1LKG.s:211    .text.Vector64:000000000000001c $d
/var/folders/6q/x_mk5n_j3p7_c40r_2k_78980000gn/T//ccju1LKG.s:217    .text.Vector68:0000000000000000 $t
/var/folders/6q/x_mk5n_j3p7_c40r_2k_78980000gn/T//ccju1LKG.s:223    .text.Vector68:0000000000000000 Vector68
/var/folders/6q/x_mk5n_j3p7_c40r_2k_78980000gn/T//ccju1LKG.s:260    .text.Vector68:000000000000001c $d
/var/folders/6q/x_mk5n_j3p7_c40r_2k_78980000gn/T//ccju1LKG.s:266    .text.Vector9C:0000000000000000 $t
/var/folders/6q/x_mk5n_j3p7_c40r_2k_78980000gn/T//ccju1LKG.s:272    .text.Vector9C:0000000000000000 Vector9C
/var/folders/6q/x_mk5n_j3p7_c40r_2k_78980000gn/T//ccju1LKG.s:370    .text.Vector9C:0000000000000064 $d
/var/folders/6q/x_mk5n_j3p7_c40r_2k_78980000gn/T//ccju1LKG.s:376    .text.VectorE0:0000000000000000 $t
/var/folders/6q/x_mk5n_j3p7_c40r_2k_78980000gn/T//ccju1LKG.s:382    .text.VectorE0:0000000000000000 VectorE0
/var/folders/6q/x_mk5n_j3p7_c40r_2k_78980000gn/T//ccju1LKG.s:495    .text.VectorE0:0000000000000074 $d
/var/folders/6q/x_mk5n_j3p7_c40r_2k_78980000gn/T//ccju1LKG.s:501    .text.Vector44:0000000000000000 $t
/var/folders/6q/x_mk5n_j3p7_c40r_2k_78980000gn/T//ccju1LKG.s:507    .text.Vector44:0000000000000000 Vector44
/var/folders/6q/x_mk5n_j3p7_c40r_2k_78980000gn/T//ccju1LKG.s:544    .text.Vector44:0000000000000020 $d
/var/folders/6q/x_mk5n_j3p7_c40r_2k_78980000gn/T//ccju1LKG.s:550    .text.VectorE4:0000000000000000 $t
/var/folders/6q/x_mk5n_j3p7_c40r_2k_78980000gn/T//ccju1LKG.s:556    .text.VectorE4:0000000000000000 VectorE4
/var/folders/6q/x_mk5n_j3p7_c40r_2k_78980000gn/T//ccju1LKG.s:593    .text.VectorE4:0000000000000020 $d
/var/folders/6q/x_mk5n_j3p7_c40r_2k_78980000gn/T//ccju1LKG.s:599    .text.VectorE8:0000000000000000 $t
/var/folders/6q/x_mk5n_j3p7_c40r_2k_78980000gn/T//ccju1LKG.s:605    .text.VectorE8:0000000000000000 VectorE8
/var/folders/6q/x_mk5n_j3p7_c40r_2k_78980000gn/T//ccju1LKG.s:642    .text.VectorE8:0000000000000020 $d
/var/folders/6q/x_mk5n_j3p7_c40r_2k_78980000gn/T//ccju1LKG.s:648    .text.ext_lld_exti_irq_enable:0000000000000000 $t
/var/folders/6q/x_mk5n_j3p7_c40r_2k_78980000gn/T//ccju1LKG.s:654    .text.ext_lld_exti_irq_enable:0000000000000000 ext_lld_exti_irq_enable
/var/folders/6q/x_mk5n_j3p7_c40r_2k_78980000gn/T//ccju1LKG.s:723    .text.ext_lld_exti_irq_disable:0000000000000000 $t
/var/folders/6q/x_mk5n_j3p7_c40r_2k_78980000gn/T//ccju1LKG.s:729    .text.ext_lld_exti_irq_disable:0000000000000000 ext_lld_exti_irq_disable
                     .debug_frame:0000000000000010 $d

UNDEFINED SYMBOLS
_port_irq_epilogue
EXTD1
nvicEnableVector
nvicDisableVector
