ARM GAS  /var/folders/6q/x_mk5n_j3p7_c40r_2k_78980000gn/T//ccju1LKG.s 			page 1


   1              		.syntax unified
   2              		.cpu cortex-m3
   3              		.fpu softvfp
   4              		.eabi_attribute 20, 1
   5              		.eabi_attribute 21, 1
   6              		.eabi_attribute 23, 3
   7              		.eabi_attribute 24, 1
   8              		.eabi_attribute 25, 1
   9              		.eabi_attribute 26, 1
  10              		.eabi_attribute 30, 2
  11              		.eabi_attribute 34, 1
  12              		.eabi_attribute 18, 4
  13              		.thumb
  14              		.syntax unified
  15              		.file	"ext_lld_isr.c"
  16              		.text
  17              	.Ltext0:
  18              		.cfi_sections	.debug_frame
  19              		.section	.text.Vector58,"ax",%progbits
  20              		.align	2
  21              		.p2align 4,,15
  22              		.global	Vector58
  23              		.thumb
  24              		.thumb_func
  25              		.type	Vector58, %function
  26              	Vector58:
  27              	.LFB63:
  28              		.file 1 "../ChibiOS/os/hal/platforms/STM32F1xx/ext_lld_isr.c"
  29              		.loc 1 57 0
  30              		.cfi_startproc
  31              		@ args = 0, pretend = 0, frame = 0
  32              		@ frame_needed = 0, uses_anonymous_args = 0
  33 0000 08B5     		push	{r3, lr}
  34              		.cfi_def_cfa_offset 8
  35              		.cfi_offset 3, -8
  36              		.cfi_offset 14, -4
  37              		.loc 1 62 0
  38 0002 0648     		ldr	r0, .L3
  39              		.loc 1 61 0
  40 0004 064A     		ldr	r2, .L3+4
  41              		.loc 1 62 0
  42 0006 4368     		ldr	r3, [r0, #4]
  43              		.loc 1 61 0
  44 0008 0121     		movs	r1, #1
  45              		.loc 1 62 0
  46 000a 5B68     		ldr	r3, [r3, #4]
  47              		.loc 1 61 0
  48 000c 5161     		str	r1, [r2, #20]
  49              		.loc 1 62 0
  50 000e 0021     		movs	r1, #0
  51 0010 9847     		blx	r3
  52              	.LVL0:
  53              		.loc 1 65 0
  54 0012 BDE80840 		pop	{r3, lr}
  55              		.cfi_restore 14
  56              		.cfi_restore 3
  57              		.cfi_def_cfa_offset 0
ARM GAS  /var/folders/6q/x_mk5n_j3p7_c40r_2k_78980000gn/T//ccju1LKG.s 			page 2


  58              		.loc 1 64 0
  59 0016 FFF7FEBF 		b	_port_irq_epilogue
  60              	.LVL1:
  61              	.L4:
  62 001a 00BF     		.align	2
  63              	.L3:
  64 001c 00000000 		.word	EXTD1
  65 0020 00040140 		.word	1073808384
  66              		.cfi_endproc
  67              	.LFE63:
  68              		.size	Vector58, .-Vector58
  69              		.section	.text.Vector5C,"ax",%progbits
  70              		.align	2
  71              		.p2align 4,,15
  72              		.global	Vector5C
  73              		.thumb
  74              		.thumb_func
  75              		.type	Vector5C, %function
  76              	Vector5C:
  77              	.LFB64:
  78              		.loc 1 72 0
  79              		.cfi_startproc
  80              		@ args = 0, pretend = 0, frame = 0
  81              		@ frame_needed = 0, uses_anonymous_args = 0
  82 0000 08B5     		push	{r3, lr}
  83              		.cfi_def_cfa_offset 8
  84              		.cfi_offset 3, -8
  85              		.cfi_offset 14, -4
  86              		.loc 1 77 0
  87 0002 0648     		ldr	r0, .L7
  88              		.loc 1 76 0
  89 0004 064A     		ldr	r2, .L7+4
  90              		.loc 1 77 0
  91 0006 4368     		ldr	r3, [r0, #4]
  92              		.loc 1 76 0
  93 0008 0221     		movs	r1, #2
  94              		.loc 1 77 0
  95 000a DB68     		ldr	r3, [r3, #12]
  96              		.loc 1 76 0
  97 000c 5161     		str	r1, [r2, #20]
  98              		.loc 1 77 0
  99 000e 0121     		movs	r1, #1
 100 0010 9847     		blx	r3
 101              	.LVL2:
 102              		.loc 1 80 0
 103 0012 BDE80840 		pop	{r3, lr}
 104              		.cfi_restore 14
 105              		.cfi_restore 3
 106              		.cfi_def_cfa_offset 0
 107              		.loc 1 79 0
 108 0016 FFF7FEBF 		b	_port_irq_epilogue
 109              	.LVL3:
 110              	.L8:
 111 001a 00BF     		.align	2
 112              	.L7:
 113 001c 00000000 		.word	EXTD1
 114 0020 00040140 		.word	1073808384
ARM GAS  /var/folders/6q/x_mk5n_j3p7_c40r_2k_78980000gn/T//ccju1LKG.s 			page 3


 115              		.cfi_endproc
 116              	.LFE64:
 117              		.size	Vector5C, .-Vector5C
 118              		.section	.text.Vector60,"ax",%progbits
 119              		.align	2
 120              		.p2align 4,,15
 121              		.global	Vector60
 122              		.thumb
 123              		.thumb_func
 124              		.type	Vector60, %function
 125              	Vector60:
 126              	.LFB65:
 127              		.loc 1 87 0
 128              		.cfi_startproc
 129              		@ args = 0, pretend = 0, frame = 0
 130              		@ frame_needed = 0, uses_anonymous_args = 0
 131 0000 08B5     		push	{r3, lr}
 132              		.cfi_def_cfa_offset 8
 133              		.cfi_offset 3, -8
 134              		.cfi_offset 14, -4
 135              		.loc 1 92 0
 136 0002 0648     		ldr	r0, .L11
 137              		.loc 1 91 0
 138 0004 064A     		ldr	r2, .L11+4
 139              		.loc 1 92 0
 140 0006 4368     		ldr	r3, [r0, #4]
 141              		.loc 1 91 0
 142 0008 0421     		movs	r1, #4
 143              		.loc 1 92 0
 144 000a 5B69     		ldr	r3, [r3, #20]
 145              		.loc 1 91 0
 146 000c 5161     		str	r1, [r2, #20]
 147              		.loc 1 92 0
 148 000e 0221     		movs	r1, #2
 149 0010 9847     		blx	r3
 150              	.LVL4:
 151              		.loc 1 95 0
 152 0012 BDE80840 		pop	{r3, lr}
 153              		.cfi_restore 14
 154              		.cfi_restore 3
 155              		.cfi_def_cfa_offset 0
 156              		.loc 1 94 0
 157 0016 FFF7FEBF 		b	_port_irq_epilogue
 158              	.LVL5:
 159              	.L12:
 160 001a 00BF     		.align	2
 161              	.L11:
 162 001c 00000000 		.word	EXTD1
 163 0020 00040140 		.word	1073808384
 164              		.cfi_endproc
 165              	.LFE65:
 166              		.size	Vector60, .-Vector60
 167              		.section	.text.Vector64,"ax",%progbits
 168              		.align	2
 169              		.p2align 4,,15
 170              		.global	Vector64
 171              		.thumb
ARM GAS  /var/folders/6q/x_mk5n_j3p7_c40r_2k_78980000gn/T//ccju1LKG.s 			page 4


 172              		.thumb_func
 173              		.type	Vector64, %function
 174              	Vector64:
 175              	.LFB66:
 176              		.loc 1 102 0
 177              		.cfi_startproc
 178              		@ args = 0, pretend = 0, frame = 0
 179              		@ frame_needed = 0, uses_anonymous_args = 0
 180 0000 08B5     		push	{r3, lr}
 181              		.cfi_def_cfa_offset 8
 182              		.cfi_offset 3, -8
 183              		.cfi_offset 14, -4
 184              		.loc 1 107 0
 185 0002 0648     		ldr	r0, .L15
 186              		.loc 1 106 0
 187 0004 064A     		ldr	r2, .L15+4
 188              		.loc 1 107 0
 189 0006 4368     		ldr	r3, [r0, #4]
 190              		.loc 1 106 0
 191 0008 0821     		movs	r1, #8
 192              		.loc 1 107 0
 193 000a DB69     		ldr	r3, [r3, #28]
 194              		.loc 1 106 0
 195 000c 5161     		str	r1, [r2, #20]
 196              		.loc 1 107 0
 197 000e 0321     		movs	r1, #3
 198 0010 9847     		blx	r3
 199              	.LVL6:
 200              		.loc 1 110 0
 201 0012 BDE80840 		pop	{r3, lr}
 202              		.cfi_restore 14
 203              		.cfi_restore 3
 204              		.cfi_def_cfa_offset 0
 205              		.loc 1 109 0
 206 0016 FFF7FEBF 		b	_port_irq_epilogue
 207              	.LVL7:
 208              	.L16:
 209 001a 00BF     		.align	2
 210              	.L15:
 211 001c 00000000 		.word	EXTD1
 212 0020 00040140 		.word	1073808384
 213              		.cfi_endproc
 214              	.LFE66:
 215              		.size	Vector64, .-Vector64
 216              		.section	.text.Vector68,"ax",%progbits
 217              		.align	2
 218              		.p2align 4,,15
 219              		.global	Vector68
 220              		.thumb
 221              		.thumb_func
 222              		.type	Vector68, %function
 223              	Vector68:
 224              	.LFB67:
 225              		.loc 1 117 0
 226              		.cfi_startproc
 227              		@ args = 0, pretend = 0, frame = 0
 228              		@ frame_needed = 0, uses_anonymous_args = 0
ARM GAS  /var/folders/6q/x_mk5n_j3p7_c40r_2k_78980000gn/T//ccju1LKG.s 			page 5


 229 0000 08B5     		push	{r3, lr}
 230              		.cfi_def_cfa_offset 8
 231              		.cfi_offset 3, -8
 232              		.cfi_offset 14, -4
 233              		.loc 1 122 0
 234 0002 0648     		ldr	r0, .L19
 235              		.loc 1 121 0
 236 0004 064A     		ldr	r2, .L19+4
 237              		.loc 1 122 0
 238 0006 4368     		ldr	r3, [r0, #4]
 239              		.loc 1 121 0
 240 0008 1021     		movs	r1, #16
 241              		.loc 1 122 0
 242 000a 5B6A     		ldr	r3, [r3, #36]
 243              		.loc 1 121 0
 244 000c 5161     		str	r1, [r2, #20]
 245              		.loc 1 122 0
 246 000e 0421     		movs	r1, #4
 247 0010 9847     		blx	r3
 248              	.LVL8:
 249              		.loc 1 125 0
 250 0012 BDE80840 		pop	{r3, lr}
 251              		.cfi_restore 14
 252              		.cfi_restore 3
 253              		.cfi_def_cfa_offset 0
 254              		.loc 1 124 0
 255 0016 FFF7FEBF 		b	_port_irq_epilogue
 256              	.LVL9:
 257              	.L20:
 258 001a 00BF     		.align	2
 259              	.L19:
 260 001c 00000000 		.word	EXTD1
 261 0020 00040140 		.word	1073808384
 262              		.cfi_endproc
 263              	.LFE67:
 264              		.size	Vector68, .-Vector68
 265              		.section	.text.Vector9C,"ax",%progbits
 266              		.align	2
 267              		.p2align 4,,15
 268              		.global	Vector9C
 269              		.thumb
 270              		.thumb_func
 271              		.type	Vector9C, %function
 272              	Vector9C:
 273              	.LFB68:
 274              		.loc 1 132 0
 275              		.cfi_startproc
 276              		@ args = 0, pretend = 0, frame = 0
 277              		@ frame_needed = 0, uses_anonymous_args = 0
 278              		.loc 1 137 0
 279 0000 184B     		ldr	r3, .L48
 280              		.loc 1 132 0
 281 0002 10B5     		push	{r4, lr}
 282              		.cfi_def_cfa_offset 8
 283              		.cfi_offset 4, -8
 284              		.cfi_offset 14, -4
 285              		.loc 1 137 0
ARM GAS  /var/folders/6q/x_mk5n_j3p7_c40r_2k_78980000gn/T//ccju1LKG.s 			page 6


 286 0004 5C69     		ldr	r4, [r3, #20]
 287 0006 04F47872 		and	r2, r4, #992
 288              	.LVL10:
 289              		.loc 1 138 0
 290 000a 5A61     		str	r2, [r3, #20]
 291              		.loc 1 139 0
 292 000c A306     		lsls	r3, r4, #26
 293 000e 22D4     		bmi	.L44
 294              	.LVL11:
 295              	.L22:
 296              		.loc 1 141 0
 297 0010 6006     		lsls	r0, r4, #25
 298 0012 1AD4     		bmi	.L45
 299              	.L23:
 300              		.loc 1 143 0
 301 0014 2106     		lsls	r1, r4, #24
 302 0016 12D4     		bmi	.L46
 303              	.L24:
 304              		.loc 1 145 0
 305 0018 E205     		lsls	r2, r4, #23
 306 001a 0AD4     		bmi	.L47
 307              	.L25:
 308              		.loc 1 147 0
 309 001c A305     		lsls	r3, r4, #22
 310 001e 04D5     		bpl	.L26
 311              		.loc 1 148 0
 312 0020 1148     		ldr	r0, .L48+4
 313 0022 0921     		movs	r1, #9
 314 0024 4368     		ldr	r3, [r0, #4]
 315 0026 DB6C     		ldr	r3, [r3, #76]
 316 0028 9847     		blx	r3
 317              	.LVL12:
 318              	.L26:
 319              		.loc 1 151 0
 320 002a BDE81040 		pop	{r4, lr}
 321              		.cfi_remember_state
 322              		.cfi_restore 14
 323              		.cfi_restore 4
 324              		.cfi_def_cfa_offset 0
 325              	.LVL13:
 326              		.loc 1 150 0
 327 002e FFF7FEBF 		b	_port_irq_epilogue
 328              	.LVL14:
 329              	.L47:
 330              		.cfi_restore_state
 331              		.loc 1 146 0
 332 0032 0D48     		ldr	r0, .L48+4
 333 0034 0821     		movs	r1, #8
 334 0036 4368     		ldr	r3, [r0, #4]
 335 0038 5B6C     		ldr	r3, [r3, #68]
 336 003a 9847     		blx	r3
 337              	.LVL15:
 338 003c EEE7     		b	.L25
 339              	.L46:
 340              		.loc 1 144 0
 341 003e 0A48     		ldr	r0, .L48+4
 342 0040 0721     		movs	r1, #7
ARM GAS  /var/folders/6q/x_mk5n_j3p7_c40r_2k_78980000gn/T//ccju1LKG.s 			page 7


 343 0042 4368     		ldr	r3, [r0, #4]
 344 0044 DB6B     		ldr	r3, [r3, #60]
 345 0046 9847     		blx	r3
 346              	.LVL16:
 347 0048 E6E7     		b	.L24
 348              	.L45:
 349              		.loc 1 142 0
 350 004a 0748     		ldr	r0, .L48+4
 351 004c 0621     		movs	r1, #6
 352 004e 4368     		ldr	r3, [r0, #4]
 353 0050 5B6B     		ldr	r3, [r3, #52]
 354 0052 9847     		blx	r3
 355              	.LVL17:
 356 0054 DEE7     		b	.L23
 357              	.LVL18:
 358              	.L44:
 359              		.loc 1 140 0
 360 0056 0448     		ldr	r0, .L48+4
 361 0058 0521     		movs	r1, #5
 362 005a 4368     		ldr	r3, [r0, #4]
 363 005c DB6A     		ldr	r3, [r3, #44]
 364 005e 9847     		blx	r3
 365              	.LVL19:
 366 0060 D6E7     		b	.L22
 367              	.L49:
 368 0062 00BF     		.align	2
 369              	.L48:
 370 0064 00040140 		.word	1073808384
 371 0068 00000000 		.word	EXTD1
 372              		.cfi_endproc
 373              	.LFE68:
 374              		.size	Vector9C, .-Vector9C
 375              		.section	.text.VectorE0,"ax",%progbits
 376              		.align	2
 377              		.p2align 4,,15
 378              		.global	VectorE0
 379              		.thumb
 380              		.thumb_func
 381              		.type	VectorE0, %function
 382              	VectorE0:
 383              	.LFB69:
 384              		.loc 1 158 0
 385              		.cfi_startproc
 386              		@ args = 0, pretend = 0, frame = 0
 387              		@ frame_needed = 0, uses_anonymous_args = 0
 388              		.loc 1 163 0
 389 0000 1C4B     		ldr	r3, .L81
 390              		.loc 1 158 0
 391 0002 10B5     		push	{r4, lr}
 392              		.cfi_def_cfa_offset 8
 393              		.cfi_offset 4, -8
 394              		.cfi_offset 14, -4
 395              		.loc 1 163 0
 396 0004 5C69     		ldr	r4, [r3, #20]
 397 0006 04F47C42 		and	r2, r4, #64512
 398              	.LVL20:
 399              		.loc 1 165 0
ARM GAS  /var/folders/6q/x_mk5n_j3p7_c40r_2k_78980000gn/T//ccju1LKG.s 			page 8


 400 000a 5A61     		str	r2, [r3, #20]
 401              		.loc 1 166 0
 402 000c 6205     		lsls	r2, r4, #21
 403              	.LVL21:
 404 000e 2AD4     		bmi	.L76
 405              	.LVL22:
 406              	.L51:
 407              		.loc 1 168 0
 408 0010 2305     		lsls	r3, r4, #20
 409 0012 22D4     		bmi	.L77
 410              	.L52:
 411              		.loc 1 170 0
 412 0014 E004     		lsls	r0, r4, #19
 413 0016 1AD4     		bmi	.L78
 414              	.L53:
 415              		.loc 1 172 0
 416 0018 A104     		lsls	r1, r4, #18
 417 001a 12D4     		bmi	.L79
 418              	.L54:
 419              		.loc 1 174 0
 420 001c 6204     		lsls	r2, r4, #17
 421 001e 0AD4     		bmi	.L80
 422              	.L55:
 423              		.loc 1 176 0
 424 0020 2304     		lsls	r3, r4, #16
 425 0022 04D5     		bpl	.L56
 426              		.loc 1 177 0
 427 0024 1448     		ldr	r0, .L81+4
 428 0026 0F21     		movs	r1, #15
 429 0028 4368     		ldr	r3, [r0, #4]
 430 002a DB6F     		ldr	r3, [r3, #124]
 431 002c 9847     		blx	r3
 432              	.LVL23:
 433              	.L56:
 434              		.loc 1 180 0
 435 002e BDE81040 		pop	{r4, lr}
 436              		.cfi_remember_state
 437              		.cfi_restore 14
 438              		.cfi_restore 4
 439              		.cfi_def_cfa_offset 0
 440              	.LVL24:
 441              		.loc 1 179 0
 442 0032 FFF7FEBF 		b	_port_irq_epilogue
 443              	.LVL25:
 444              	.L80:
 445              		.cfi_restore_state
 446              		.loc 1 175 0
 447 0036 1048     		ldr	r0, .L81+4
 448 0038 0E21     		movs	r1, #14
 449 003a 4368     		ldr	r3, [r0, #4]
 450 003c 5B6F     		ldr	r3, [r3, #116]
 451 003e 9847     		blx	r3
 452              	.LVL26:
 453 0040 EEE7     		b	.L55
 454              	.L79:
 455              		.loc 1 173 0
 456 0042 0D48     		ldr	r0, .L81+4
ARM GAS  /var/folders/6q/x_mk5n_j3p7_c40r_2k_78980000gn/T//ccju1LKG.s 			page 9


 457 0044 0D21     		movs	r1, #13
 458 0046 4368     		ldr	r3, [r0, #4]
 459 0048 DB6E     		ldr	r3, [r3, #108]
 460 004a 9847     		blx	r3
 461              	.LVL27:
 462 004c E6E7     		b	.L54
 463              	.L78:
 464              		.loc 1 171 0
 465 004e 0A48     		ldr	r0, .L81+4
 466 0050 0C21     		movs	r1, #12
 467 0052 4368     		ldr	r3, [r0, #4]
 468 0054 5B6E     		ldr	r3, [r3, #100]
 469 0056 9847     		blx	r3
 470              	.LVL28:
 471 0058 DEE7     		b	.L53
 472              	.L77:
 473              		.loc 1 169 0
 474 005a 0748     		ldr	r0, .L81+4
 475 005c 0B21     		movs	r1, #11
 476 005e 4368     		ldr	r3, [r0, #4]
 477 0060 DB6D     		ldr	r3, [r3, #92]
 478 0062 9847     		blx	r3
 479              	.LVL29:
 480 0064 D6E7     		b	.L52
 481              	.LVL30:
 482              	.L76:
 483              		.loc 1 167 0
 484 0066 0448     		ldr	r0, .L81+4
 485 0068 0A21     		movs	r1, #10
 486 006a 4368     		ldr	r3, [r0, #4]
 487              	.LVL31:
 488 006c 5B6D     		ldr	r3, [r3, #84]
 489 006e 9847     		blx	r3
 490              	.LVL32:
 491 0070 CEE7     		b	.L51
 492              	.L82:
 493 0072 00BF     		.align	2
 494              	.L81:
 495 0074 00040140 		.word	1073808384
 496 0078 00000000 		.word	EXTD1
 497              		.cfi_endproc
 498              	.LFE69:
 499              		.size	VectorE0, .-VectorE0
 500              		.section	.text.Vector44,"ax",%progbits
 501              		.align	2
 502              		.p2align 4,,15
 503              		.global	Vector44
 504              		.thumb
 505              		.thumb_func
 506              		.type	Vector44, %function
 507              	Vector44:
 508              	.LFB70:
 509              		.loc 1 187 0
 510              		.cfi_startproc
 511              		@ args = 0, pretend = 0, frame = 0
 512              		@ frame_needed = 0, uses_anonymous_args = 0
 513 0000 08B5     		push	{r3, lr}
ARM GAS  /var/folders/6q/x_mk5n_j3p7_c40r_2k_78980000gn/T//ccju1LKG.s 			page 10


 514              		.cfi_def_cfa_offset 8
 515              		.cfi_offset 3, -8
 516              		.cfi_offset 14, -4
 517              		.loc 1 192 0
 518 0002 0748     		ldr	r0, .L85
 519              		.loc 1 191 0
 520 0004 074A     		ldr	r2, .L85+4
 521              		.loc 1 192 0
 522 0006 4368     		ldr	r3, [r0, #4]
 523              		.loc 1 191 0
 524 0008 4FF48031 		mov	r1, #65536
 525              		.loc 1 192 0
 526 000c D3F88430 		ldr	r3, [r3, #132]
 527              		.loc 1 191 0
 528 0010 5161     		str	r1, [r2, #20]
 529              		.loc 1 192 0
 530 0012 1021     		movs	r1, #16
 531 0014 9847     		blx	r3
 532              	.LVL33:
 533              		.loc 1 195 0
 534 0016 BDE80840 		pop	{r3, lr}
 535              		.cfi_restore 14
 536              		.cfi_restore 3
 537              		.cfi_def_cfa_offset 0
 538              		.loc 1 194 0
 539 001a FFF7FEBF 		b	_port_irq_epilogue
 540              	.LVL34:
 541              	.L86:
 542 001e 00BF     		.align	2
 543              	.L85:
 544 0020 00000000 		.word	EXTD1
 545 0024 00040140 		.word	1073808384
 546              		.cfi_endproc
 547              	.LFE70:
 548              		.size	Vector44, .-Vector44
 549              		.section	.text.VectorE4,"ax",%progbits
 550              		.align	2
 551              		.p2align 4,,15
 552              		.global	VectorE4
 553              		.thumb
 554              		.thumb_func
 555              		.type	VectorE4, %function
 556              	VectorE4:
 557              	.LFB71:
 558              		.loc 1 202 0
 559              		.cfi_startproc
 560              		@ args = 0, pretend = 0, frame = 0
 561              		@ frame_needed = 0, uses_anonymous_args = 0
 562 0000 08B5     		push	{r3, lr}
 563              		.cfi_def_cfa_offset 8
 564              		.cfi_offset 3, -8
 565              		.cfi_offset 14, -4
 566              		.loc 1 207 0
 567 0002 0748     		ldr	r0, .L89
 568              		.loc 1 206 0
 569 0004 074A     		ldr	r2, .L89+4
 570              		.loc 1 207 0
ARM GAS  /var/folders/6q/x_mk5n_j3p7_c40r_2k_78980000gn/T//ccju1LKG.s 			page 11


 571 0006 4368     		ldr	r3, [r0, #4]
 572              		.loc 1 206 0
 573 0008 4FF40031 		mov	r1, #131072
 574              		.loc 1 207 0
 575 000c D3F88C30 		ldr	r3, [r3, #140]
 576              		.loc 1 206 0
 577 0010 5161     		str	r1, [r2, #20]
 578              		.loc 1 207 0
 579 0012 1121     		movs	r1, #17
 580 0014 9847     		blx	r3
 581              	.LVL35:
 582              		.loc 1 210 0
 583 0016 BDE80840 		pop	{r3, lr}
 584              		.cfi_restore 14
 585              		.cfi_restore 3
 586              		.cfi_def_cfa_offset 0
 587              		.loc 1 209 0
 588 001a FFF7FEBF 		b	_port_irq_epilogue
 589              	.LVL36:
 590              	.L90:
 591 001e 00BF     		.align	2
 592              	.L89:
 593 0020 00000000 		.word	EXTD1
 594 0024 00040140 		.word	1073808384
 595              		.cfi_endproc
 596              	.LFE71:
 597              		.size	VectorE4, .-VectorE4
 598              		.section	.text.VectorE8,"ax",%progbits
 599              		.align	2
 600              		.p2align 4,,15
 601              		.global	VectorE8
 602              		.thumb
 603              		.thumb_func
 604              		.type	VectorE8, %function
 605              	VectorE8:
 606              	.LFB72:
 607              		.loc 1 251 0
 608              		.cfi_startproc
 609              		@ args = 0, pretend = 0, frame = 0
 610              		@ frame_needed = 0, uses_anonymous_args = 0
 611 0000 08B5     		push	{r3, lr}
 612              		.cfi_def_cfa_offset 8
 613              		.cfi_offset 3, -8
 614              		.cfi_offset 14, -4
 615              		.loc 1 256 0
 616 0002 0748     		ldr	r0, .L93
 617              		.loc 1 255 0
 618 0004 074A     		ldr	r2, .L93+4
 619              		.loc 1 256 0
 620 0006 4368     		ldr	r3, [r0, #4]
 621              		.loc 1 255 0
 622 0008 4FF48021 		mov	r1, #262144
 623              		.loc 1 256 0
 624 000c D3F89430 		ldr	r3, [r3, #148]
 625              		.loc 1 255 0
 626 0010 5161     		str	r1, [r2, #20]
 627              		.loc 1 256 0
ARM GAS  /var/folders/6q/x_mk5n_j3p7_c40r_2k_78980000gn/T//ccju1LKG.s 			page 12


 628 0012 1221     		movs	r1, #18
 629 0014 9847     		blx	r3
 630              	.LVL37:
 631              		.loc 1 259 0
 632 0016 BDE80840 		pop	{r3, lr}
 633              		.cfi_restore 14
 634              		.cfi_restore 3
 635              		.cfi_def_cfa_offset 0
 636              		.loc 1 258 0
 637 001a FFF7FEBF 		b	_port_irq_epilogue
 638              	.LVL38:
 639              	.L94:
 640 001e 00BF     		.align	2
 641              	.L93:
 642 0020 00000000 		.word	EXTD1
 643 0024 00040140 		.word	1073808384
 644              		.cfi_endproc
 645              	.LFE72:
 646              		.size	VectorE8, .-VectorE8
 647              		.section	.text.ext_lld_exti_irq_enable,"ax",%progbits
 648              		.align	2
 649              		.p2align 4,,15
 650              		.global	ext_lld_exti_irq_enable
 651              		.thumb
 652              		.thumb_func
 653              		.type	ext_lld_exti_irq_enable, %function
 654              	ext_lld_exti_irq_enable:
 655              	.LFB73:
 656              		.loc 1 271 0
 657              		.cfi_startproc
 658              		@ args = 0, pretend = 0, frame = 0
 659              		@ frame_needed = 0, uses_anonymous_args = 0
 660 0000 08B5     		push	{r3, lr}
 661              		.cfi_def_cfa_offset 8
 662              		.cfi_offset 3, -8
 663              		.cfi_offset 14, -4
 664              		.loc 1 273 0
 665 0002 6021     		movs	r1, #96
 666 0004 0620     		movs	r0, #6
 667 0006 FFF7FEFF 		bl	nvicEnableVector
 668              	.LVL39:
 669              		.loc 1 275 0
 670 000a 6021     		movs	r1, #96
 671 000c 0720     		movs	r0, #7
 672 000e FFF7FEFF 		bl	nvicEnableVector
 673              	.LVL40:
 674              		.loc 1 277 0
 675 0012 6021     		movs	r1, #96
 676 0014 0820     		movs	r0, #8
 677 0016 FFF7FEFF 		bl	nvicEnableVector
 678              	.LVL41:
 679              		.loc 1 279 0
 680 001a 6021     		movs	r1, #96
 681 001c 0920     		movs	r0, #9
 682 001e FFF7FEFF 		bl	nvicEnableVector
 683              	.LVL42:
 684              		.loc 1 281 0
ARM GAS  /var/folders/6q/x_mk5n_j3p7_c40r_2k_78980000gn/T//ccju1LKG.s 			page 13


 685 0022 6021     		movs	r1, #96
 686 0024 0A20     		movs	r0, #10
 687 0026 FFF7FEFF 		bl	nvicEnableVector
 688              	.LVL43:
 689              		.loc 1 283 0
 690 002a 6021     		movs	r1, #96
 691 002c 1720     		movs	r0, #23
 692 002e FFF7FEFF 		bl	nvicEnableVector
 693              	.LVL44:
 694              		.loc 1 285 0
 695 0032 6021     		movs	r1, #96
 696 0034 2820     		movs	r0, #40
 697 0036 FFF7FEFF 		bl	nvicEnableVector
 698              	.LVL45:
 699              		.loc 1 287 0
 700 003a 6021     		movs	r1, #96
 701 003c 0120     		movs	r0, #1
 702 003e FFF7FEFF 		bl	nvicEnableVector
 703              	.LVL46:
 704              		.loc 1 289 0
 705 0042 6021     		movs	r1, #96
 706 0044 2920     		movs	r0, #41
 707 0046 FFF7FEFF 		bl	nvicEnableVector
 708              	.LVL47:
 709              		.loc 1 305 0
 710 004a BDE80840 		pop	{r3, lr}
 711              		.cfi_restore 14
 712              		.cfi_restore 3
 713              		.cfi_def_cfa_offset 0
 714              		.loc 1 302 0
 715 004e 6021     		movs	r1, #96
 716 0050 2A20     		movs	r0, #42
 717 0052 FFF7FEBF 		b	nvicEnableVector
 718              	.LVL48:
 719              		.cfi_endproc
 720              	.LFE73:
 721              		.size	ext_lld_exti_irq_enable, .-ext_lld_exti_irq_enable
 722 0056 00BF     		.section	.text.ext_lld_exti_irq_disable,"ax",%progbits
 723              		.align	2
 724              		.p2align 4,,15
 725              		.global	ext_lld_exti_irq_disable
 726              		.thumb
 727              		.thumb_func
 728              		.type	ext_lld_exti_irq_disable, %function
 729              	ext_lld_exti_irq_disable:
 730              	.LFB74:
 731              		.loc 1 312 0
 732              		.cfi_startproc
 733              		@ args = 0, pretend = 0, frame = 0
 734              		@ frame_needed = 0, uses_anonymous_args = 0
 735 0000 08B5     		push	{r3, lr}
 736              		.cfi_def_cfa_offset 8
 737              		.cfi_offset 3, -8
 738              		.cfi_offset 14, -4
 739              		.loc 1 314 0
 740 0002 0620     		movs	r0, #6
 741 0004 FFF7FEFF 		bl	nvicDisableVector
ARM GAS  /var/folders/6q/x_mk5n_j3p7_c40r_2k_78980000gn/T//ccju1LKG.s 			page 14


 742              	.LVL49:
 743              		.loc 1 315 0
 744 0008 0720     		movs	r0, #7
 745 000a FFF7FEFF 		bl	nvicDisableVector
 746              	.LVL50:
 747              		.loc 1 316 0
 748 000e 0820     		movs	r0, #8
 749 0010 FFF7FEFF 		bl	nvicDisableVector
 750              	.LVL51:
 751              		.loc 1 317 0
 752 0014 0920     		movs	r0, #9
 753 0016 FFF7FEFF 		bl	nvicDisableVector
 754              	.LVL52:
 755              		.loc 1 318 0
 756 001a 0A20     		movs	r0, #10
 757 001c FFF7FEFF 		bl	nvicDisableVector
 758              	.LVL53:
 759              		.loc 1 319 0
 760 0020 1720     		movs	r0, #23
 761 0022 FFF7FEFF 		bl	nvicDisableVector
 762              	.LVL54:
 763              		.loc 1 320 0
 764 0026 2820     		movs	r0, #40
 765 0028 FFF7FEFF 		bl	nvicDisableVector
 766              	.LVL55:
 767              		.loc 1 321 0
 768 002c 0120     		movs	r0, #1
 769 002e FFF7FEFF 		bl	nvicDisableVector
 770              	.LVL56:
 771              		.loc 1 322 0
 772 0032 2920     		movs	r0, #41
 773 0034 FFF7FEFF 		bl	nvicDisableVector
 774              	.LVL57:
 775              		.loc 1 334 0
 776 0038 BDE80840 		pop	{r3, lr}
 777              		.cfi_restore 14
 778              		.cfi_restore 3
 779              		.cfi_def_cfa_offset 0
 780              		.loc 1 332 0
 781 003c 2A20     		movs	r0, #42
 782 003e FFF7FEBF 		b	nvicDisableVector
 783              	.LVL58:
 784              		.cfi_endproc
 785              	.LFE74:
 786              		.size	ext_lld_exti_irq_disable, .-ext_lld_exti_irq_disable
 787 0042 00BF     		.text
 788              	.Letext0:
 789              		.file 2 "/Users/Luca/src/vexilla/src/gcc-arm-none-eabi-5_4-2016q3/arm-none-eabi/include/machine/_d
 790              		.file 3 "/Users/Luca/src/vexilla/src/gcc-arm-none-eabi-5_4-2016q3/arm-none-eabi/include/sys/_stdin
 791              		.file 4 "../ChibiOS/os/hal/platforms/STM32F1xx/stm32f10x.h"
 792              		.file 5 "../ChibiOS/os/hal/include/ext.h"
 793              		.file 6 "../ChibiOS/os/hal/platforms/STM32/ext_lld.h"
 794              		.file 7 "../ChibiOS/os/ports/common/ARMCMx/CMSIS/include/core_cm3.h"
 795              		.file 8 "../ChibiOS/os/ports/GCC/ARMCMx/chcore_v7m.h"
 796              		.file 9 "../ChibiOS/os/ports/common/ARMCMx/nvic.h"