ARM GAS  /var/folders/6q/x_mk5n_j3p7_c40r_2k_78980000gn/T//ccSKdZ8H.s 			page 1


   1              		.syntax unified
   2              		.cpu cortex-m3
   3              		.fpu softvfp
   4              		.eabi_attribute 20, 1
   5              		.eabi_attribute 21, 1
   6              		.eabi_attribute 23, 3
   7              		.eabi_attribute 24, 1
   8              		.eabi_attribute 25, 1
   9              		.eabi_attribute 26, 1
  10              		.eabi_attribute 30, 2
  11              		.eabi_attribute 34, 1
  12              		.eabi_attribute 18, 4
  13              		.thumb
  14              		.syntax unified
  15              		.file	"ext_lld.c"
  16              		.text
  17              	.Ltext0:
  18              		.cfi_sections	.debug_frame
  19              		.section	.text.ext_lld_init,"ax",%progbits
  20              		.align	2
  21              		.p2align 4,,15
  22              		.global	ext_lld_init
  23              		.thumb
  24              		.thumb_func
  25              		.type	ext_lld_init, %function
  26              	ext_lld_init:
  27              	.LFB63:
  28              		.file 1 "../ChibiOS/os/hal/platforms/STM32/ext_lld.c"
  29              		.loc 1 66 0
  30              		.cfi_startproc
  31              		@ args = 0, pretend = 0, frame = 0
  32              		@ frame_needed = 0, uses_anonymous_args = 0
  33              		@ link register save eliminated.
  34              		.loc 1 69 0
  35 0000 0148     		ldr	r0, .L2
  36 0002 FFF7FEBF 		b	extObjectInit
  37              	.LVL0:
  38              	.L3:
  39 0006 00BF     		.align	2
  40              	.L2:
  41 0008 00000000 		.word	.LANCHOR0
  42              		.cfi_endproc
  43              	.LFE63:
  44              		.size	ext_lld_init, .-ext_lld_init
  45              		.section	.text.ext_lld_stop,"ax",%progbits
  46              		.align	2
  47              		.p2align 4,,15
  48              		.global	ext_lld_stop
  49              		.thumb
  50              		.thumb_func
  51              		.type	ext_lld_stop, %function
  52              	ext_lld_stop:
  53              	.LFB65:
  54              		.loc 1 100 0
  55              		.cfi_startproc
  56              		@ args = 0, pretend = 0, frame = 0
  57              		@ frame_needed = 0, uses_anonymous_args = 0
ARM GAS  /var/folders/6q/x_mk5n_j3p7_c40r_2k_78980000gn/T//ccSKdZ8H.s 			page 2


  58              	.LVL1:
  59 0000 08B5     		push	{r3, lr}
  60              		.cfi_def_cfa_offset 8
  61              		.cfi_offset 3, -8
  62              		.cfi_offset 14, -4
  63              		.loc 1 102 0
  64 0002 0378     		ldrb	r3, [r0]	@ zero_extendqisi2
  65 0004 022B     		cmp	r3, #2
  66 0006 07D0     		beq	.L8
  67              	.LVL2:
  68              	.L5:
  69              		.loc 1 105 0
  70 0008 054B     		ldr	r3, .L9
  71 000a 0022     		movs	r2, #0
  72              		.loc 1 107 0
  73 000c 4FF0FF31 		mov	r1, #-1
  74              		.loc 1 105 0
  75 0010 5A60     		str	r2, [r3, #4]
  76              		.loc 1 106 0
  77 0012 1A60     		str	r2, [r3]
  78              		.loc 1 107 0
  79 0014 5961     		str	r1, [r3, #20]
  80 0016 08BD     		pop	{r3, pc}
  81              	.LVL3:
  82              	.L8:
  83              		.loc 1 103 0
  84 0018 FFF7FEFF 		bl	ext_lld_exti_irq_disable
  85              	.LVL4:
  86 001c F4E7     		b	.L5
  87              	.L10:
  88 001e 00BF     		.align	2
  89              	.L9:
  90 0020 00040140 		.word	1073808384
  91              		.cfi_endproc
  92              	.LFE65:
  93              		.size	ext_lld_stop, .-ext_lld_stop
  94              		.section	.text.ext_lld_channel_enable,"ax",%progbits
  95              		.align	2
  96              		.p2align 4,,15
  97              		.global	ext_lld_channel_enable
  98              		.thumb
  99              		.thumb_func
 100              		.type	ext_lld_channel_enable, %function
 101              	ext_lld_channel_enable:
 102              	.LFB66:
 103              		.loc 1 121 0
 104              		.cfi_startproc
 105              		@ args = 0, pretend = 0, frame = 0
 106              		@ frame_needed = 0, uses_anonymous_args = 0
 107              		@ link register save eliminated.
 108              	.LVL5:
 109 0000 F0B4     		push	{r4, r5, r6, r7}
 110              		.cfi_def_cfa_offset 16
 111              		.cfi_offset 4, -16
 112              		.cfi_offset 5, -12
 113              		.cfi_offset 6, -8
 114              		.cfi_offset 7, -4
ARM GAS  /var/folders/6q/x_mk5n_j3p7_c40r_2k_78980000gn/T//ccSKdZ8H.s 			page 3


 115 0002 4468     		ldr	r4, [r0, #4]
 116              		.loc 1 127 0
 117 0004 54F83120 		ldr	r2, [r4, r1, lsl #3]
 118 0008 04EBC100 		add	r0, r4, r1, lsl #3
 119              	.LVL6:
 120 000c D307     		lsls	r3, r2, #31
 121 000e 31D5     		bpl	.L12
 122              		.loc 1 128 0
 123 0010 204E     		ldr	r6, .L20
 124 0012 0123     		movs	r3, #1
 125 0014 B568     		ldr	r5, [r6, #8]
 126 0016 8B40     		lsls	r3, r3, r1
 127 0018 1D43     		orrs	r5, r5, r3
 128 001a B560     		str	r5, [r6, #8]
 129 001c DD43     		mvns	r5, r3
 130              	.L13:
 131              		.loc 1 132 0
 132 001e 1D4E     		ldr	r6, .L20
 133              		.loc 1 131 0
 134 0020 12F0020F 		tst	r2, #2
 135              		.loc 1 132 0
 136 0024 F268     		ldr	r2, [r6, #12]
 137 0026 14BF     		ite	ne
 138 0028 1A43     		orrne	r2, r2, r3
 139              		.loc 1 134 0
 140 002a 2A40     		andeq	r2, r2, r5
 141 002c F260     		str	r2, [r6, #12]
 142              		.loc 1 137 0
 143 002e 4268     		ldr	r2, [r0, #4]
 144 0030 42B3     		cbz	r2, .L16
 145              		.loc 1 138 0
 146 0032 184A     		ldr	r2, .L20
 147 0034 1068     		ldr	r0, [r2]
 148 0036 0343     		orrs	r3, r3, r0
 149 0038 1360     		str	r3, [r2]
 150              		.loc 1 139 0
 151 003a 5368     		ldr	r3, [r2, #4]
 152 003c 2B40     		ands	r3, r3, r5
 153 003e 5360     		str	r3, [r2, #4]
 154              	.L17:
 155              		.loc 1 171 0
 156 0040 0F29     		cmp	r1, #15
 157 0042 15D8     		bhi	.L11
 158              	.LVL7:
 159 0044 21F00303 		bic	r3, r1, #3
 160 0048 03F18043 		add	r3, r3, #1073741824
 161              	.LBB4:
 162              		.loc 1 182 0
 163 004c 54F83140 		ldr	r4, [r4, r1, lsl #3]
 164 0050 03F58033 		add	r3, r3, #65536
 165              		.loc 1 173 0
 166 0054 01F00301 		and	r1, r1, #3
 167              	.LVL8:
 168 0058 8900     		lsls	r1, r1, #2
 169              	.LVL9:
 170              		.loc 1 182 0
 171 005a 9868     		ldr	r0, [r3, #8]
ARM GAS  /var/folders/6q/x_mk5n_j3p7_c40r_2k_78980000gn/T//ccSKdZ8H.s 			page 4


 172 005c 0F22     		movs	r2, #15
 173 005e 8A40     		lsls	r2, r2, r1
 174 0060 C4F30314 		ubfx	r4, r4, #4, #4
 175 0064 04FA01F1 		lsl	r1, r4, r1
 176              	.LVL10:
 177 0068 20EA0202 		bic	r2, r0, r2
 178 006c 1143     		orrs	r1, r1, r2
 179 006e 9960     		str	r1, [r3, #8]
 180              	.LVL11:
 181              	.L11:
 182              	.LBE4:
 183              		.loc 1 185 0
 184 0070 F0BC     		pop	{r4, r5, r6, r7}
 185              		.cfi_remember_state
 186              		.cfi_restore 7
 187              		.cfi_restore 6
 188              		.cfi_restore 5
 189              		.cfi_restore 4
 190              		.cfi_def_cfa_offset 0
 191 0072 7047     		bx	lr
 192              	.LVL12:
 193              	.L12:
 194              		.cfi_restore_state
 195              		.loc 1 130 0
 196 0074 0123     		movs	r3, #1
 197 0076 8B40     		lsls	r3, r3, r1
 198 0078 DD43     		mvns	r5, r3
 199 007a 064F     		ldr	r7, .L20
 200 007c BE68     		ldr	r6, [r7, #8]
 201 007e 2E40     		ands	r6, r6, r5
 202 0080 BE60     		str	r6, [r7, #8]
 203 0082 CCE7     		b	.L13
 204              	.L16:
 205              		.loc 1 142 0
 206 0084 034A     		ldr	r2, .L20
 207 0086 5068     		ldr	r0, [r2, #4]
 208 0088 0343     		orrs	r3, r3, r0
 209 008a 5360     		str	r3, [r2, #4]
 210              		.loc 1 143 0
 211 008c 1368     		ldr	r3, [r2]
 212 008e 2B40     		ands	r3, r3, r5
 213 0090 1360     		str	r3, [r2]
 214 0092 D5E7     		b	.L17
 215              	.L21:
 216              		.align	2
 217              	.L20:
 218 0094 00040140 		.word	1073808384
 219              		.cfi_endproc
 220              	.LFE66:
 221              		.size	ext_lld_channel_enable, .-ext_lld_channel_enable
 222              		.section	.text.ext_lld_start,"ax",%progbits
 223              		.align	2
 224              		.p2align 4,,15
 225              		.global	ext_lld_start
 226              		.thumb
 227              		.thumb_func
 228              		.type	ext_lld_start, %function
ARM GAS  /var/folders/6q/x_mk5n_j3p7_c40r_2k_78980000gn/T//ccSKdZ8H.s 			page 5


 229              	ext_lld_start:
 230              	.LFB64:
 231              		.loc 1 79 0
 232              		.cfi_startproc
 233              		@ args = 0, pretend = 0, frame = 0
 234              		@ frame_needed = 0, uses_anonymous_args = 0
 235              	.LVL13:
 236 0000 F8B5     		push	{r3, r4, r5, r6, r7, lr}
 237              		.cfi_def_cfa_offset 24
 238              		.cfi_offset 3, -24
 239              		.cfi_offset 4, -20
 240              		.cfi_offset 5, -16
 241              		.cfi_offset 6, -12
 242              		.cfi_offset 7, -8
 243              		.cfi_offset 14, -4
 244              		.loc 1 82 0
 245 0002 0378     		ldrb	r3, [r0]	@ zero_extendqisi2
 246              		.loc 1 79 0
 247 0004 0646     		mov	r6, r0
 248              		.loc 1 82 0
 249 0006 012B     		cmp	r3, #1
 250 0008 26D0     		beq	.L29
 251              	.LVL14:
 252              	.L23:
 253              	.LBB5:
 254              	.LBB6:
 255              		.loc 1 202 0 discriminator 1
 256 000a 154C     		ldr	r4, .L31
 257              	.LBE6:
 258              	.LBE5:
 259              		.loc 1 79 0 discriminator 1
 260 000c 0025     		movs	r5, #0
 261              	.LBB11:
 262              	.LBB7:
 263              		.loc 1 202 0 discriminator 1
 264 000e 0127     		movs	r7, #1
 265 0010 13E0     		b	.L26
 266              	.LVL15:
 267              	.L24:
 268              		.loc 1 202 0 is_stmt 0
 269 0012 CB43     		mvns	r3, r1
 270 0014 2268     		ldr	r2, [r4]
 271              	.LBE7:
 272              	.LBE11:
 273              		.loc 1 86 0 is_stmt 1
 274 0016 0135     		adds	r5, r5, #1
 275              	.LVL16:
 276              	.LBB12:
 277              	.LBB8:
 278              		.loc 1 202 0
 279 0018 1A40     		ands	r2, r2, r3
 280 001a 2260     		str	r2, [r4]
 281              		.loc 1 203 0
 282 001c 6268     		ldr	r2, [r4, #4]
 283              	.LBE8:
 284              	.LBE12:
 285              		.loc 1 86 0
ARM GAS  /var/folders/6q/x_mk5n_j3p7_c40r_2k_78980000gn/T//ccSKdZ8H.s 			page 6


 286 001e 132D     		cmp	r5, #19
 287              	.LBB13:
 288              	.LBB9:
 289              		.loc 1 203 0
 290 0020 02EA0302 		and	r2, r2, r3
 291 0024 6260     		str	r2, [r4, #4]
 292              		.loc 1 204 0
 293 0026 A268     		ldr	r2, [r4, #8]
 294 0028 02EA0302 		and	r2, r2, r3
 295 002c A260     		str	r2, [r4, #8]
 296              		.loc 1 205 0
 297 002e E268     		ldr	r2, [r4, #12]
 298 0030 03EA0203 		and	r3, r3, r2
 299 0034 E360     		str	r3, [r4, #12]
 300              		.loc 1 206 0
 301 0036 6161     		str	r1, [r4, #20]
 302              	.LBE9:
 303              	.LBE13:
 304              		.loc 1 86 0
 305 0038 0DD0     		beq	.L30
 306              	.LVL17:
 307              	.L26:
 308              		.loc 1 87 0
 309 003a 7368     		ldr	r3, [r6, #4]
 310              	.LBB14:
 311              	.LBB10:
 312              		.loc 1 202 0
 313 003c 07FA05F1 		lsl	r1, r7, r5
 314              	.LBE10:
 315              	.LBE14:
 316              		.loc 1 87 0
 317 0040 53F83530 		ldr	r3, [r3, r5, lsl #3]
 318 0044 5B07     		lsls	r3, r3, #29
 319 0046 E4D5     		bpl	.L24
 320              		.loc 1 88 0
 321 0048 2946     		mov	r1, r5
 322 004a 3046     		mov	r0, r6
 323              		.loc 1 86 0
 324 004c 0135     		adds	r5, r5, #1
 325              	.LVL18:
 326              		.loc 1 88 0
 327 004e FFF7FEFF 		bl	ext_lld_channel_enable
 328              	.LVL19:
 329              		.loc 1 86 0
 330 0052 132D     		cmp	r5, #19
 331 0054 F1D1     		bne	.L26
 332              	.LVL20:
 333              	.L30:
 334              		.loc 1 91 0
 335 0056 F8BD     		pop	{r3, r4, r5, r6, r7, pc}
 336              	.LVL21:
 337              	.L29:
 338              		.loc 1 83 0
 339 0058 FFF7FEFF 		bl	ext_lld_exti_irq_enable
 340              	.LVL22:
 341 005c D5E7     		b	.L23
 342              	.L32:
ARM GAS  /var/folders/6q/x_mk5n_j3p7_c40r_2k_78980000gn/T//ccSKdZ8H.s 			page 7


 343 005e 00BF     		.align	2
 344              	.L31:
 345 0060 00040140 		.word	1073808384
 346              		.cfi_endproc
 347              	.LFE64:
 348              		.size	ext_lld_start, .-ext_lld_start
 349              		.section	.text.ext_lld_channel_disable,"ax",%progbits
 350              		.align	2
 351              		.p2align 4,,15
 352              		.global	ext_lld_channel_disable
 353              		.thumb
 354              		.thumb_func
 355              		.type	ext_lld_channel_disable, %function
 356              	ext_lld_channel_disable:
 357              	.LFB67:
 358              		.loc 1 195 0
 359              		.cfi_startproc
 360              		@ args = 0, pretend = 0, frame = 0
 361              		@ frame_needed = 0, uses_anonymous_args = 0
 362              		@ link register save eliminated.
 363              	.LVL23:
 364              		.loc 1 202 0
 365 0000 0123     		movs	r3, #1
 366 0002 03FA01F1 		lsl	r1, r3, r1
 367              	.LVL24:
 368 0006 CA43     		mvns	r2, r1
 369 0008 074B     		ldr	r3, .L34
 370 000a 1868     		ldr	r0, [r3]
 371              	.LVL25:
 372 000c 1040     		ands	r0, r0, r2
 373 000e 1860     		str	r0, [r3]
 374              		.loc 1 203 0
 375 0010 5868     		ldr	r0, [r3, #4]
 376 0012 1040     		ands	r0, r0, r2
 377 0014 5860     		str	r0, [r3, #4]
 378              		.loc 1 204 0
 379 0016 9868     		ldr	r0, [r3, #8]
 380 0018 1040     		ands	r0, r0, r2
 381 001a 9860     		str	r0, [r3, #8]
 382              		.loc 1 205 0
 383 001c D868     		ldr	r0, [r3, #12]
 384 001e 0240     		ands	r2, r2, r0
 385 0020 DA60     		str	r2, [r3, #12]
 386              		.loc 1 206 0
 387 0022 5961     		str	r1, [r3, #20]
 388 0024 7047     		bx	lr
 389              	.L35:
 390 0026 00BF     		.align	2
 391              	.L34:
 392 0028 00040140 		.word	1073808384
 393              		.cfi_endproc
 394              	.LFE67:
 395              		.size	ext_lld_channel_disable, .-ext_lld_channel_disable
 396              		.global	EXTD1
 397              		.section	.bss.EXTD1,"aw",%nobits
 398              		.align	2
 399              		.set	.LANCHOR0,. + 0
ARM GAS  /var/folders/6q/x_mk5n_j3p7_c40r_2k_78980000gn/T//ccSKdZ8H.s 			page 8


 400              		.type	EXTD1, %object
 401              		.size	EXTD1, 8
 402              	EXTD1:
 403 0000 00000000 		.space	8
 403      00000000 
 404              		.text
 405              	.Letext0:
 406              		.file 2 "/Users/Luca/src/vexilla/src/gcc-arm-none-eabi-5_4-2016q3/arm-none-eabi/include/machine/_d
 407              		.file 3 "/Users/Luca/src/vexilla/src/gcc-arm-none-eabi-5_4-2016q3/arm-none-eabi/include/sys/_stdin
 408              		.file 4 "../ChibiOS/os/hal/platforms/STM32F1xx/stm32f10x.h"
 409              		.file 5 "../ChibiOS/os/hal/include/ext.h"
 410              		.file 6 "../ChibiOS/os/hal/platforms/STM32/ext_lld.h"
 411              		.file 7 "../ChibiOS/os/ports/common/ARMCMx/CMSIS/include/core_cm3.h"
 412              		.file 8 "../ChibiOS/os/hal/platforms/STM32F1xx/ext_lld_isr.h"