ARM GAS  /var/folders/6q/x_mk5n_j3p7_c40r_2k_78980000gn/T//ccL33r6f.s 			page 1


   1              		.syntax unified
   2              		.cpu cortex-m3
   3              		.fpu softvfp
   4              		.eabi_attribute 20, 1
   5              		.eabi_attribute 21, 1
   6              		.eabi_attribute 23, 3
   7              		.eabi_attribute 24, 1
   8              		.eabi_attribute 25, 1
   9              		.eabi_attribute 26, 1
  10              		.eabi_attribute 30, 2
  11              		.eabi_attribute 34, 1
  12              		.eabi_attribute 18, 4
  13              		.thumb
  14              		.syntax unified
  15              		.file	"gpt_lld.c"
  16              		.text
  17              	.Ltext0:
  18              		.cfi_sections	.debug_frame
  19              		.section	.text.VectorA4,"ax",%progbits
  20              		.align	2
  21              		.p2align 4,,15
  22              		.global	VectorA4
  23              		.thumb
  24              		.thumb_func
  25              		.type	VectorA4, %function
  26              	VectorA4:
  27              	.LFB64:
  28              		.file 1 "../ChibiOS/os/hal/platforms/STM32/TIMv1/gpt_lld.c"
  29              		.loc 1 170 0
  30              		.cfi_startproc
  31              		@ args = 0, pretend = 0, frame = 0
  32              		@ frame_needed = 0, uses_anonymous_args = 0
  33              	.LVL0:
  34 0000 08B5     		push	{r3, lr}
  35              		.cfi_def_cfa_offset 8
  36              		.cfi_offset 3, -8
  37              		.cfi_offset 14, -4
  38              	.LBB16:
  39              	.LBB17:
  40              		.loc 1 149 0
  41 0002 0B4B     		ldr	r3, .L5
  42 0004 0021     		movs	r1, #0
  43              		.loc 1 150 0
  44 0006 1878     		ldrb	r0, [r3]	@ zero_extendqisi2
  45              		.loc 1 149 0
  46 0008 DA68     		ldr	r2, [r3, #12]
  47              		.loc 1 150 0
  48 000a 0428     		cmp	r0, #4
  49              		.loc 1 149 0
  50 000c 1161     		str	r1, [r2, #16]
  51              		.loc 1 150 0
  52 000e 07D1     		bne	.L2
  53              		.loc 1 151 0
  54 0010 0220     		movs	r0, #2
  55 0012 1870     		strb	r0, [r3]
  56              	.LVL1:
  57              	.LBB18:
ARM GAS  /var/folders/6q/x_mk5n_j3p7_c40r_2k_78980000gn/T//ccL33r6f.s 			page 2


  58              	.LBB19:
  59              		.loc 1 745 0
  60 0014 1160     		str	r1, [r2]
  61              		.loc 1 746 0
  62 0016 1161     		str	r1, [r2, #16]
  63              		.loc 1 749 0
  64 0018 D168     		ldr	r1, [r2, #12]
  65 001a 21F0FF01 		bic	r1, r1, #255
  66 001e D160     		str	r1, [r2, #12]
  67              	.LVL2:
  68              	.L2:
  69              	.LBE19:
  70              	.LBE18:
  71              		.loc 1 154 0
  72 0020 5B68     		ldr	r3, [r3, #4]
  73 0022 0348     		ldr	r0, .L5
  74 0024 5B68     		ldr	r3, [r3, #4]
  75 0026 9847     		blx	r3
  76              	.LVL3:
  77              	.LBE17:
  78              	.LBE16:
  79              		.loc 1 177 0
  80 0028 BDE80840 		pop	{r3, lr}
  81              		.cfi_restore 14
  82              		.cfi_restore 3
  83              		.cfi_def_cfa_offset 0
  84              		.loc 1 176 0
  85 002c FFF7FEBF 		b	_port_irq_epilogue
  86              	.LVL4:
  87              	.L6:
  88              		.align	2
  89              	.L5:
  90 0030 00000000 		.word	.LANCHOR0
  91              		.cfi_endproc
  92              	.LFE64:
  93              		.size	VectorA4, .-VectorA4
  94              		.section	.text.VectorB0,"ax",%progbits
  95              		.align	2
  96              		.p2align 4,,15
  97              		.global	VectorB0
  98              		.thumb
  99              		.thumb_func
 100              		.type	VectorB0, %function
 101              	VectorB0:
 102              	.LFB65:
 103              		.loc 1 189 0
 104              		.cfi_startproc
 105              		@ args = 0, pretend = 0, frame = 0
 106              		@ frame_needed = 0, uses_anonymous_args = 0
 107              	.LVL5:
 108 0000 08B5     		push	{r3, lr}
 109              		.cfi_def_cfa_offset 8
 110              		.cfi_offset 3, -8
 111              		.cfi_offset 14, -4
 112              	.LBB20:
 113              	.LBB21:
 114              		.loc 1 149 0
ARM GAS  /var/folders/6q/x_mk5n_j3p7_c40r_2k_78980000gn/T//ccL33r6f.s 			page 3


 115 0002 0B4B     		ldr	r3, .L10
 116 0004 0021     		movs	r1, #0
 117              		.loc 1 150 0
 118 0006 1878     		ldrb	r0, [r3]	@ zero_extendqisi2
 119              		.loc 1 149 0
 120 0008 DA68     		ldr	r2, [r3, #12]
 121              		.loc 1 150 0
 122 000a 0428     		cmp	r0, #4
 123              		.loc 1 149 0
 124 000c 1161     		str	r1, [r2, #16]
 125              		.loc 1 150 0
 126 000e 07D1     		bne	.L8
 127              		.loc 1 151 0
 128 0010 0220     		movs	r0, #2
 129 0012 1870     		strb	r0, [r3]
 130              	.LVL6:
 131              	.LBB22:
 132              	.LBB23:
 133              		.loc 1 745 0
 134 0014 1160     		str	r1, [r2]
 135              		.loc 1 746 0
 136 0016 1161     		str	r1, [r2, #16]
 137              		.loc 1 749 0
 138 0018 D168     		ldr	r1, [r2, #12]
 139 001a 21F0FF01 		bic	r1, r1, #255
 140 001e D160     		str	r1, [r2, #12]
 141              	.LVL7:
 142              	.L8:
 143              	.LBE23:
 144              	.LBE22:
 145              		.loc 1 154 0
 146 0020 5B68     		ldr	r3, [r3, #4]
 147 0022 0348     		ldr	r0, .L10
 148 0024 5B68     		ldr	r3, [r3, #4]
 149 0026 9847     		blx	r3
 150              	.LVL8:
 151              	.LBE21:
 152              	.LBE20:
 153              		.loc 1 196 0
 154 0028 BDE80840 		pop	{r3, lr}
 155              		.cfi_restore 14
 156              		.cfi_restore 3
 157              		.cfi_def_cfa_offset 0
 158              		.loc 1 195 0
 159 002c FFF7FEBF 		b	_port_irq_epilogue
 160              	.LVL9:
 161              	.L11:
 162              		.align	2
 163              	.L10:
 164 0030 00000000 		.word	.LANCHOR1
 165              		.cfi_endproc
 166              	.LFE65:
 167              		.size	VectorB0, .-VectorB0
 168              		.section	.text.Vector108,"ax",%progbits
 169              		.align	2
 170              		.p2align 4,,15
 171              		.global	Vector108
ARM GAS  /var/folders/6q/x_mk5n_j3p7_c40r_2k_78980000gn/T//ccL33r6f.s 			page 4


 172              		.thumb
 173              		.thumb_func
 174              		.type	Vector108, %function
 175              	Vector108:
 176              	.LFB66:
 177              		.loc 1 246 0
 178              		.cfi_startproc
 179              		@ args = 0, pretend = 0, frame = 0
 180              		@ frame_needed = 0, uses_anonymous_args = 0
 181              	.LVL10:
 182 0000 08B5     		push	{r3, lr}
 183              		.cfi_def_cfa_offset 8
 184              		.cfi_offset 3, -8
 185              		.cfi_offset 14, -4
 186              	.LBB24:
 187              	.LBB25:
 188              		.loc 1 149 0
 189 0002 0B4B     		ldr	r3, .L15
 190 0004 0021     		movs	r1, #0
 191              		.loc 1 150 0
 192 0006 1878     		ldrb	r0, [r3]	@ zero_extendqisi2
 193              		.loc 1 149 0
 194 0008 DA68     		ldr	r2, [r3, #12]
 195              		.loc 1 150 0
 196 000a 0428     		cmp	r0, #4
 197              		.loc 1 149 0
 198 000c 1161     		str	r1, [r2, #16]
 199              		.loc 1 150 0
 200 000e 07D1     		bne	.L13
 201              		.loc 1 151 0
 202 0010 0220     		movs	r0, #2
 203 0012 1870     		strb	r0, [r3]
 204              	.LVL11:
 205              	.LBB26:
 206              	.LBB27:
 207              		.loc 1 745 0
 208 0014 1160     		str	r1, [r2]
 209              		.loc 1 746 0
 210 0016 1161     		str	r1, [r2, #16]
 211              		.loc 1 749 0
 212 0018 D168     		ldr	r1, [r2, #12]
 213 001a 21F0FF01 		bic	r1, r1, #255
 214 001e D160     		str	r1, [r2, #12]
 215              	.LVL12:
 216              	.L13:
 217              	.LBE27:
 218              	.LBE26:
 219              		.loc 1 154 0
 220 0020 5B68     		ldr	r3, [r3, #4]
 221 0022 0348     		ldr	r0, .L15
 222 0024 5B68     		ldr	r3, [r3, #4]
 223 0026 9847     		blx	r3
 224              	.LVL13:
 225              	.LBE25:
 226              	.LBE24:
 227              		.loc 1 253 0
 228 0028 BDE80840 		pop	{r3, lr}
ARM GAS  /var/folders/6q/x_mk5n_j3p7_c40r_2k_78980000gn/T//ccL33r6f.s 			page 5


 229              		.cfi_restore 14
 230              		.cfi_restore 3
 231              		.cfi_def_cfa_offset 0
 232              		.loc 1 252 0
 233 002c FFF7FEBF 		b	_port_irq_epilogue
 234              	.LVL14:
 235              	.L16:
 236              		.align	2
 237              	.L15:
 238 0030 00000000 		.word	.LANCHOR2
 239              		.cfi_endproc
 240              	.LFE66:
 241              		.size	Vector108, .-Vector108
 242              		.section	.text.gpt_lld_init,"ax",%progbits
 243              		.align	2
 244              		.p2align 4,,15
 245              		.global	gpt_lld_init
 246              		.thumb
 247              		.thumb_func
 248              		.type	gpt_lld_init, %function
 249              	gpt_lld_init:
 250              	.LFB67:
 251              		.loc 1 398 0
 252              		.cfi_startproc
 253              		@ args = 0, pretend = 0, frame = 0
 254              		@ frame_needed = 0, uses_anonymous_args = 0
 255 0000 08B5     		push	{r3, lr}
 256              		.cfi_def_cfa_offset 8
 257              		.cfi_offset 3, -8
 258              		.cfi_offset 14, -4
 259              		.loc 1 402 0
 260 0002 0A4B     		ldr	r3, .L19
 261 0004 0A4A     		ldr	r2, .L19+4
 262              		.loc 1 403 0
 263 0006 1846     		mov	r0, r3
 264              		.loc 1 402 0
 265 0008 DA60     		str	r2, [r3, #12]
 266              		.loc 1 403 0
 267 000a FFF7FEFF 		bl	gptObjectInit
 268              	.LVL15:
 269              		.loc 1 408 0
 270 000e 094B     		ldr	r3, .L19+8
 271 0010 4FF08042 		mov	r2, #1073741824
 272              		.loc 1 409 0
 273 0014 1846     		mov	r0, r3
 274              		.loc 1 408 0
 275 0016 DA60     		str	r2, [r3, #12]
 276              		.loc 1 409 0
 277 0018 FFF7FEFF 		bl	gptObjectInit
 278              	.LVL16:
 279              		.loc 1 426 0
 280 001c 064B     		ldr	r3, .L19+12
 281 001e 074A     		ldr	r2, .L19+16
 282              		.loc 1 427 0
 283 0020 1846     		mov	r0, r3
 284              		.loc 1 426 0
 285 0022 DA60     		str	r2, [r3, #12]
ARM GAS  /var/folders/6q/x_mk5n_j3p7_c40r_2k_78980000gn/T//ccL33r6f.s 			page 6


 286              		.loc 1 471 0
 287 0024 BDE80840 		pop	{r3, lr}
 288              		.cfi_restore 14
 289              		.cfi_restore 3
 290              		.cfi_def_cfa_offset 0
 291              		.loc 1 427 0
 292 0028 FFF7FEBF 		b	gptObjectInit
 293              	.LVL17:
 294              	.L20:
 295              		.align	2
 296              	.L19:
 297 002c 00000000 		.word	.LANCHOR0
 298 0030 002C0140 		.word	1073818624
 299 0034 00000000 		.word	.LANCHOR1
 300 0038 00000000 		.word	.LANCHOR2
 301 003c 000C0040 		.word	1073744896
 302              		.cfi_endproc
 303              	.LFE67:
 304              		.size	gpt_lld_init, .-gpt_lld_init
 305              		.section	.text.gpt_lld_start,"ax",%progbits
 306              		.align	2
 307              		.p2align 4,,15
 308              		.global	gpt_lld_start
 309              		.thumb
 310              		.thumb_func
 311              		.type	gpt_lld_start, %function
 312              	gpt_lld_start:
 313              	.LFB68:
 314              		.loc 1 480 0
 315              		.cfi_startproc
 316              		@ args = 0, pretend = 0, frame = 0
 317              		@ frame_needed = 0, uses_anonymous_args = 0
 318              	.LVL18:
 319 0000 38B5     		push	{r3, r4, r5, lr}
 320              		.cfi_def_cfa_offset 16
 321              		.cfi_offset 3, -16
 322              		.cfi_offset 4, -12
 323              		.cfi_offset 5, -8
 324              		.cfi_offset 14, -4
 325              		.loc 1 483 0
 326 0002 0378     		ldrb	r3, [r0]	@ zero_extendqisi2
 327              		.loc 1 480 0
 328 0004 0446     		mov	r4, r0
 329              		.loc 1 483 0
 330 0006 012B     		cmp	r3, #1
 331 0008 10D0     		beq	.L27
 332              	.LVL19:
 333              	.L22:
 334              		.loc 1 612 0
 335 000a 6268     		ldr	r2, [r4, #4]
 336 000c A368     		ldr	r3, [r4, #8]
 337 000e 1168     		ldr	r1, [r2]
 338              		.loc 1 620 0
 339 0010 107A     		ldrb	r0, [r2, #8]	@ zero_extendqisi2
 340              		.loc 1 612 0
 341 0012 B3FBF1F3 		udiv	r3, r3, r1
 342              		.loc 1 617 0
ARM GAS  /var/folders/6q/x_mk5n_j3p7_c40r_2k_78980000gn/T//ccL33r6f.s 			page 7


 343 0016 E268     		ldr	r2, [r4, #12]
 344              		.loc 1 612 0
 345 0018 013B     		subs	r3, r3, #1
 346              		.loc 1 617 0
 347 001a 0021     		movs	r1, #0
 348              		.loc 1 612 0
 349 001c 9BB2     		uxth	r3, r3
 350              	.LVL20:
 351              		.loc 1 618 0
 352 001e 0824     		movs	r4, #8
 353              	.LVL21:
 354              		.loc 1 617 0
 355 0020 1160     		str	r1, [r2]
 356              		.loc 1 618 0
 357 0022 5460     		str	r4, [r2, #4]
 358              		.loc 1 619 0
 359 0024 9362     		str	r3, [r2, #40]
 360              		.loc 1 620 0
 361 0026 D060     		str	r0, [r2, #12]
 362              		.loc 1 622 0
 363 0028 1161     		str	r1, [r2, #16]
 364 002a 38BD     		pop	{r3, r4, r5, pc}
 365              	.LVL22:
 366              	.L27:
 367              		.loc 1 486 0
 368 002c 1C4B     		ldr	r3, .L30
 369 002e 9842     		cmp	r0, r3
 370 0030 17D0     		beq	.L28
 371              		.loc 1 499 0
 372 0032 1C4B     		ldr	r3, .L30+4
 373 0034 9842     		cmp	r0, r3
 374 0036 26D0     		beq	.L29
 375              		.loc 1 527 0
 376 0038 1B4B     		ldr	r3, .L30+8
 377 003a 9842     		cmp	r0, r3
 378 003c E5D1     		bne	.L22
 379              		.loc 1 528 0
 380 003e 1B4B     		ldr	r3, .L30+12
 381              		.loc 1 529 0
 382 0040 0025     		movs	r5, #0
 383              		.loc 1 528 0
 384 0042 DA69     		ldr	r2, [r3, #28]
 385              		.loc 1 530 0
 386 0044 7021     		movs	r1, #112
 387              		.loc 1 528 0
 388 0046 42F00802 		orr	r2, r2, #8
 389 004a DA61     		str	r2, [r3, #28]
 390              		.loc 1 529 0
 391 004c 1A69     		ldr	r2, [r3, #16]
 392              		.loc 1 530 0
 393 004e 3220     		movs	r0, #50
 394              	.LVL23:
 395              		.loc 1 529 0
 396 0050 42F00802 		orr	r2, r2, #8
 397              	.L26:
 398 0054 1A61     		str	r2, [r3, #16]
 399 0056 1D61     		str	r5, [r3, #16]
ARM GAS  /var/folders/6q/x_mk5n_j3p7_c40r_2k_78980000gn/T//ccL33r6f.s 			page 8


 400              		.loc 1 530 0
 401 0058 FFF7FEFF 		bl	nvicEnableVector
 402              	.LVL24:
 403              		.loc 1 532 0
 404 005c 144B     		ldr	r3, .L30+16
 405 005e A360     		str	r3, [r4, #8]
 406 0060 D3E7     		b	.L22
 407              	.LVL25:
 408              	.L28:
 409              		.loc 1 487 0
 410 0062 124B     		ldr	r3, .L30+12
 411              		.loc 1 488 0
 412 0064 0025     		movs	r5, #0
 413              		.loc 1 487 0
 414 0066 9A69     		ldr	r2, [r3, #24]
 415              		.loc 1 489 0
 416 0068 7021     		movs	r1, #112
 417              		.loc 1 487 0
 418 006a 42F40062 		orr	r2, r2, #2048
 419 006e 9A61     		str	r2, [r3, #24]
 420              		.loc 1 488 0
 421 0070 DA68     		ldr	r2, [r3, #12]
 422              		.loc 1 489 0
 423 0072 1920     		movs	r0, #25
 424              	.LVL26:
 425              		.loc 1 488 0
 426 0074 42F40062 		orr	r2, r2, #2048
 427 0078 DA60     		str	r2, [r3, #12]
 428 007a DD60     		str	r5, [r3, #12]
 429              		.loc 1 489 0
 430 007c FFF7FEFF 		bl	nvicEnableVector
 431              	.LVL27:
 432              		.loc 1 494 0
 433 0080 0B4B     		ldr	r3, .L30+16
 434 0082 A360     		str	r3, [r4, #8]
 435 0084 C1E7     		b	.L22
 436              	.LVL28:
 437              	.L29:
 438              		.loc 1 500 0
 439 0086 094B     		ldr	r3, .L30+12
 440              		.loc 1 501 0
 441 0088 0025     		movs	r5, #0
 442              		.loc 1 500 0
 443 008a DA69     		ldr	r2, [r3, #28]
 444              		.loc 1 502 0
 445 008c 7021     		movs	r1, #112
 446              		.loc 1 500 0
 447 008e 42F00102 		orr	r2, r2, #1
 448 0092 DA61     		str	r2, [r3, #28]
 449              		.loc 1 501 0
 450 0094 1A69     		ldr	r2, [r3, #16]
 451              		.loc 1 502 0
 452 0096 1C20     		movs	r0, #28
 453              	.LVL29:
 454              		.loc 1 501 0
 455 0098 42F00102 		orr	r2, r2, #1
 456 009c DAE7     		b	.L26
ARM GAS  /var/folders/6q/x_mk5n_j3p7_c40r_2k_78980000gn/T//ccL33r6f.s 			page 9


 457              	.L31:
 458 009e 00BF     		.align	2
 459              	.L30:
 460 00a0 00000000 		.word	.LANCHOR0
 461 00a4 00000000 		.word	.LANCHOR1
 462 00a8 00000000 		.word	.LANCHOR2
 463 00ac 00100240 		.word	1073876992
 464 00b0 00A24A04 		.word	72000000
 465              		.cfi_endproc
 466              	.LFE68:
 467              		.size	gpt_lld_start, .-gpt_lld_start
 468              		.section	.text.gpt_lld_stop,"ax",%progbits
 469              		.align	2
 470              		.p2align 4,,15
 471              		.global	gpt_lld_stop
 472              		.thumb
 473              		.thumb_func
 474              		.type	gpt_lld_stop, %function
 475              	gpt_lld_stop:
 476              	.LFB69:
 477              		.loc 1 632 0
 478              		.cfi_startproc
 479              		@ args = 0, pretend = 0, frame = 0
 480              		@ frame_needed = 0, uses_anonymous_args = 0
 481              	.LVL30:
 482 0000 08B5     		push	{r3, lr}
 483              		.cfi_def_cfa_offset 8
 484              		.cfi_offset 3, -8
 485              		.cfi_offset 14, -4
 486              		.loc 1 634 0
 487 0002 0378     		ldrb	r3, [r0]	@ zero_extendqisi2
 488 0004 022B     		cmp	r3, #2
 489 0006 00D0     		beq	.L39
 490              	.LVL31:
 491              	.L32:
 492 0008 08BD     		pop	{r3, pc}
 493              	.LVL32:
 494              	.L39:
 495              		.loc 1 640 0
 496 000a 1449     		ldr	r1, .L42
 497              		.loc 1 635 0
 498 000c C368     		ldr	r3, [r0, #12]
 499 000e 0022     		movs	r2, #0
 500              		.loc 1 640 0
 501 0010 8842     		cmp	r0, r1
 502              		.loc 1 635 0
 503 0012 1A60     		str	r2, [r3]
 504              		.loc 1 636 0
 505 0014 DA60     		str	r2, [r3, #12]
 506              		.loc 1 637 0
 507 0016 1A61     		str	r2, [r3, #16]
 508              		.loc 1 640 0
 509 0018 0ED0     		beq	.L40
 510              		.loc 1 646 0
 511 001a 114B     		ldr	r3, .L42+4
 512 001c 9842     		cmp	r0, r3
 513 001e 14D0     		beq	.L41
ARM GAS  /var/folders/6q/x_mk5n_j3p7_c40r_2k_78980000gn/T//ccL33r6f.s 			page 10


 514              		.loc 1 664 0
 515 0020 104B     		ldr	r3, .L42+8
 516 0022 9842     		cmp	r0, r3
 517 0024 F0D1     		bne	.L32
 518              		.loc 1 665 0
 519 0026 3220     		movs	r0, #50
 520              	.LVL33:
 521 0028 FFF7FEFF 		bl	nvicDisableVector
 522              	.LVL34:
 523              		.loc 1 666 0
 524 002c 0E4A     		ldr	r2, .L42+12
 525 002e D369     		ldr	r3, [r2, #28]
 526 0030 23F00803 		bic	r3, r3, #8
 527 0034 D361     		str	r3, [r2, #28]
 528              		.loc 1 712 0
 529 0036 E7E7     		b	.L32
 530              	.LVL35:
 531              	.L40:
 532              		.loc 1 641 0
 533 0038 1920     		movs	r0, #25
 534              	.LVL36:
 535 003a FFF7FEFF 		bl	nvicDisableVector
 536              	.LVL37:
 537              		.loc 1 642 0
 538 003e 0A4A     		ldr	r2, .L42+12
 539 0040 9369     		ldr	r3, [r2, #24]
 540 0042 23F40063 		bic	r3, r3, #2048
 541 0046 9361     		str	r3, [r2, #24]
 542 0048 08BD     		pop	{r3, pc}
 543              	.LVL38:
 544              	.L41:
 545              		.loc 1 647 0
 546 004a 1C20     		movs	r0, #28
 547              	.LVL39:
 548 004c FFF7FEFF 		bl	nvicDisableVector
 549              	.LVL40:
 550              		.loc 1 648 0
 551 0050 054A     		ldr	r2, .L42+12
 552 0052 D369     		ldr	r3, [r2, #28]
 553 0054 23F00103 		bic	r3, r3, #1
 554 0058 D361     		str	r3, [r2, #28]
 555 005a 08BD     		pop	{r3, pc}
 556              	.L43:
 557              		.align	2
 558              	.L42:
 559 005c 00000000 		.word	.LANCHOR0
 560 0060 00000000 		.word	.LANCHOR1
 561 0064 00000000 		.word	.LANCHOR2
 562 0068 00100240 		.word	1073876992
 563              		.cfi_endproc
 564              	.LFE69:
 565              		.size	gpt_lld_stop, .-gpt_lld_stop
 566              		.section	.text.gpt_lld_start_timer,"ax",%progbits
 567              		.align	2
 568              		.p2align 4,,15
 569              		.global	gpt_lld_start_timer
 570              		.thumb
ARM GAS  /var/folders/6q/x_mk5n_j3p7_c40r_2k_78980000gn/T//ccL33r6f.s 			page 11


 571              		.thumb_func
 572              		.type	gpt_lld_start_timer, %function
 573              	gpt_lld_start_timer:
 574              	.LFB70:
 575              		.loc 1 722 0
 576              		.cfi_startproc
 577              		@ args = 0, pretend = 0, frame = 0
 578              		@ frame_needed = 0, uses_anonymous_args = 0
 579              		@ link register save eliminated.
 580              	.LVL41:
 581              		.loc 1 724 0
 582 0000 C368     		ldr	r3, [r0, #12]
 583              		.loc 1 726 0
 584 0002 0022     		movs	r2, #0
 585              		.loc 1 724 0
 586 0004 0139     		subs	r1, r1, #1
 587              	.LVL42:
 588              		.loc 1 725 0
 589 0006 0120     		movs	r0, #1
 590              	.LVL43:
 591              		.loc 1 724 0
 592 0008 D962     		str	r1, [r3, #44]
 593              		.loc 1 725 0
 594 000a 5861     		str	r0, [r3, #20]
 595              		.loc 1 726 0
 596 000c 5A62     		str	r2, [r3, #36]
 597              		.loc 1 731 0
 598 000e 1A61     		str	r2, [r3, #16]
 599              		.loc 1 732 0
 600 0010 DA68     		ldr	r2, [r3, #12]
 601              		.loc 1 733 0
 602 0012 0521     		movs	r1, #5
 603              	.LVL44:
 604              		.loc 1 732 0
 605 0014 0243     		orrs	r2, r2, r0
 606 0016 DA60     		str	r2, [r3, #12]
 607              		.loc 1 733 0
 608 0018 1960     		str	r1, [r3]
 609 001a 7047     		bx	lr
 610              		.cfi_endproc
 611              	.LFE70:
 612              		.size	gpt_lld_start_timer, .-gpt_lld_start_timer
 613              		.section	.text.gpt_lld_stop_timer,"ax",%progbits
 614              		.align	2
 615              		.p2align 4,,15
 616              		.global	gpt_lld_stop_timer
 617              		.thumb
 618              		.thumb_func
 619              		.type	gpt_lld_stop_timer, %function
 620              	gpt_lld_stop_timer:
 621              	.LFB71:
 622              		.loc 1 743 0
 623              		.cfi_startproc
 624              		@ args = 0, pretend = 0, frame = 0
 625              		@ frame_needed = 0, uses_anonymous_args = 0
 626              		@ link register save eliminated.
 627              	.LVL45:
ARM GAS  /var/folders/6q/x_mk5n_j3p7_c40r_2k_78980000gn/T//ccL33r6f.s 			page 12


 628              		.loc 1 745 0
 629 0000 C368     		ldr	r3, [r0, #12]
 630 0002 0022     		movs	r2, #0
 631 0004 1A60     		str	r2, [r3]
 632              		.loc 1 746 0
 633 0006 1A61     		str	r2, [r3, #16]
 634              		.loc 1 749 0
 635 0008 DA68     		ldr	r2, [r3, #12]
 636 000a 22F0FF02 		bic	r2, r2, #255
 637 000e DA60     		str	r2, [r3, #12]
 638 0010 7047     		bx	lr
 639              		.cfi_endproc
 640              	.LFE71:
 641              		.size	gpt_lld_stop_timer, .-gpt_lld_stop_timer
 642 0012 00BF     		.section	.text.gpt_lld_polled_delay,"ax",%progbits
 643              		.align	2
 644              		.p2align 4,,15
 645              		.global	gpt_lld_polled_delay
 646              		.thumb
 647              		.thumb_func
 648              		.type	gpt_lld_polled_delay, %function
 649              	gpt_lld_polled_delay:
 650              	.LFB72:
 651              		.loc 1 763 0
 652              		.cfi_startproc
 653              		@ args = 0, pretend = 0, frame = 0
 654              		@ frame_needed = 0, uses_anonymous_args = 0
 655              		@ link register save eliminated.
 656              	.LVL46:
 657              		.loc 1 765 0
 658 0000 C268     		ldr	r2, [r0, #12]
 659              		.loc 1 763 0
 660 0002 10B4     		push	{r4}
 661              		.cfi_def_cfa_offset 4
 662              		.cfi_offset 4, -4
 663              		.loc 1 765 0
 664 0004 0139     		subs	r1, r1, #1
 665              	.LVL47:
 666              		.loc 1 766 0
 667 0006 0124     		movs	r4, #1
 668              		.loc 1 767 0
 669 0008 0020     		movs	r0, #0
 670              	.LVL48:
 671              		.loc 1 768 0
 672 000a 0D23     		movs	r3, #13
 673              		.loc 1 765 0
 674 000c D162     		str	r1, [r2, #44]
 675              		.loc 1 766 0
 676 000e 5461     		str	r4, [r2, #20]
 677              		.loc 1 767 0
 678 0010 1061     		str	r0, [r2, #16]
 679              		.loc 1 768 0
 680 0012 1360     		str	r3, [r2]
 681              	.L47:
 682              		.loc 1 769 0 discriminator 1
 683 0014 1369     		ldr	r3, [r2, #16]
 684 0016 DB07     		lsls	r3, r3, #31
ARM GAS  /var/folders/6q/x_mk5n_j3p7_c40r_2k_78980000gn/T//ccL33r6f.s 			page 13


 685 0018 FCD5     		bpl	.L47
 686              		.loc 1 771 0
 687 001a 10BC     		pop	{r4}
 688              		.cfi_restore 4
 689              		.cfi_def_cfa_offset 0
 690 001c 7047     		bx	lr
 691              		.cfi_endproc
 692              	.LFE72:
 693              		.size	gpt_lld_polled_delay, .-gpt_lld_polled_delay
 694              		.global	GPTD5
 695              		.global	GPTD2
 696              		.global	GPTD1
 697 001e 00BF     		.section	.bss.GPTD1,"aw",%nobits
 698              		.align	2
 699              		.set	.LANCHOR0,. + 0
 700              		.type	GPTD1, %object
 701              		.size	GPTD1, 16
 702              	GPTD1:
 703 0000 00000000 		.space	16
 703      00000000 
 703      00000000 
 703      00000000 
 704              		.section	.bss.GPTD2,"aw",%nobits
 705              		.align	2
 706              		.set	.LANCHOR1,. + 0
 707              		.type	GPTD2, %object
 708              		.size	GPTD2, 16
 709              	GPTD2:
 710 0000 00000000 		.space	16
 710      00000000 
 710      00000000 
 710      00000000 
 711              		.section	.bss.GPTD5,"aw",%nobits
 712              		.align	2
 713              		.set	.LANCHOR2,. + 0
 714              		.type	GPTD5, %object
 715              		.size	GPTD5, 16
 716              	GPTD5:
 717 0000 00000000 		.space	16
 717      00000000 
 717      00000000 
 717      00000000 
 718              		.text
 719              	.Letext0:
 720              		.file 2 "/Users/Luca/src/vexilla/src/gcc-arm-none-eabi-5_4-2016q3/arm-none-eabi/include/machine/_d
 721              		.file 3 "/Users/Luca/src/vexilla/src/gcc-arm-none-eabi-5_4-2016q3/arm-none-eabi/include/sys/_stdin
 722              		.file 4 "../ChibiOS/os/hal/platforms/STM32F1xx/stm32f10x.h"
 723              		.file 5 "../ChibiOS/os/hal/include/gpt.h"
 724              		.file 6 "../ChibiOS/os/hal/platforms/STM32/TIMv1/gpt_lld.h"
 725              		.file 7 "../ChibiOS/os/hal/platforms/STM32/TIMv1/stm32_tim.h"
 726              		.file 8 "../ChibiOS/os/ports/common/ARMCMx/CMSIS/include/core_cm3.h"
 727              		.file 9 "../ChibiOS/os/ports/GCC/ARMCMx/chcore_v7m.h"
 728              		.file 10 "../ChibiOS/os/ports/common/ARMCMx/nvic.h"