ARM GAS  /var/folders/6q/x_mk5n_j3p7_c40r_2k_78980000gn/T//ccDxIdbz.s 			page 1


   1              		.syntax unified
   2              		.cpu cortex-m3
   3              		.fpu softvfp
   4              		.eabi_attribute 20, 1
   5              		.eabi_attribute 21, 1
   6              		.eabi_attribute 23, 3
   7              		.eabi_attribute 24, 1
   8              		.eabi_attribute 25, 1
   9              		.eabi_attribute 26, 1
  10              		.eabi_attribute 30, 2
  11              		.eabi_attribute 34, 1
  12              		.eabi_attribute 18, 4
  13              		.thumb
  14              		.syntax unified
  15              		.file	"hal.c"
  16              		.text
  17              	.Ltext0:
  18              		.cfi_sections	.debug_frame
  19              		.section	.text.halInit,"ax",%progbits
  20              		.align	2
  21              		.p2align 4,,15
  22              		.global	halInit
  23              		.thumb
  24              		.thumb_func
  25              		.type	halInit, %function
  26              	halInit:
  27              	.LFB63:
  28              		.file 1 "../ChibiOS/os/hal/src/hal.c"
  29              		.loc 1 68 0
  30              		.cfi_startproc
  31              		@ args = 0, pretend = 0, frame = 0
  32              		@ frame_needed = 0, uses_anonymous_args = 0
  33 0000 08B5     		push	{r3, lr}
  34              		.cfi_def_cfa_offset 8
  35              		.cfi_offset 3, -8
  36              		.cfi_offset 14, -4
  37              		.loc 1 70 0
  38 0002 FFF7FEFF 		bl	hal_lld_init
  39              	.LVL0:
  40              		.loc 1 73 0
  41 0006 FFF7FEFF 		bl	tmInit
  42              	.LVL1:
  43              		.loc 1 76 0
  44 000a 0948     		ldr	r0, .L3
  45 000c FFF7FEFF 		bl	_pal_lld_init
  46              	.LVL2:
  47              		.loc 1 79 0
  48 0010 FFF7FEFF 		bl	adcInit
  49              	.LVL3:
  50              		.loc 1 85 0
  51 0014 FFF7FEFF 		bl	extInit
  52              	.LVL4:
  53              		.loc 1 88 0
  54 0018 FFF7FEFF 		bl	gptInit
  55              	.LVL5:
  56              		.loc 1 91 0
  57 001c FFF7FEFF 		bl	i2cInit
ARM GAS  /var/folders/6q/x_mk5n_j3p7_c40r_2k_78980000gn/T//ccDxIdbz.s 			page 2


  58              	.LVL6:
  59              		.loc 1 103 0
  60 0020 FFF7FEFF 		bl	sdInit
  61              	.LVL7:
  62              		.loc 1 109 0
  63 0024 FFF7FEFF 		bl	spiInit
  64              	.LVL8:
  65              		.loc 1 128 0
  66 0028 BDE80840 		pop	{r3, lr}
  67              		.cfi_restore 14
  68              		.cfi_restore 3
  69              		.cfi_def_cfa_offset 0
  70              		.loc 1 127 0
  71 002c FFF7FEBF 		b	boardInit
  72              	.LVL9:
  73              	.L4:
  74              		.align	2
  75              	.L3:
  76 0030 00000000 		.word	pal_default_config
  77              		.cfi_endproc
  78              	.LFE63:
  79              		.size	halInit, .-halInit
  80              		.section	.text.halIsCounterWithin,"ax",%progbits
  81              		.align	2
  82              		.p2align 4,,15
  83              		.global	halIsCounterWithin
  84              		.thumb
  85              		.thumb_func
  86              		.type	halIsCounterWithin, %function
  87              	halIsCounterWithin:
  88              	.LFB64:
  89              		.loc 1 174 0
  90              		.cfi_startproc
  91              		@ args = 0, pretend = 0, frame = 0
  92              		@ frame_needed = 0, uses_anonymous_args = 0
  93              		@ link register save eliminated.
  94              	.LVL10:
  95              		.loc 1 175 0
  96 0000 084B     		ldr	r3, .L15
  97              		.loc 1 177 0
  98 0002 8142     		cmp	r1, r0
  99              		.loc 1 175 0
 100 0004 5B68     		ldr	r3, [r3, #4]
 101              	.LVL11:
 102              		.loc 1 177 0
 103 0006 06D9     		bls	.L6
 104              		.loc 1 177 0 is_stmt 0 discriminator 1
 105 0008 8342     		cmp	r3, r0
 106 000a 08D3     		bcc	.L14
 107              	.L12:
 108 000c 8B42     		cmp	r3, r1
 109 000e 2CBF     		ite	cs
 110 0010 0020     		movcs	r0, #0
 111              	.LVL12:
 112 0012 0120     		movcc	r0, #1
 113 0014 7047     		bx	lr
 114              	.LVL13:
ARM GAS  /var/folders/6q/x_mk5n_j3p7_c40r_2k_78980000gn/T//ccDxIdbz.s 			page 3


 115              	.L6:
 116              		.loc 1 178 0 is_stmt 1
 117 0016 8342     		cmp	r3, r0
 118 0018 F8D3     		bcc	.L12
 119 001a 0120     		movs	r0, #1
 120              	.LVL14:
 121              		.loc 1 179 0
 122 001c 7047     		bx	lr
 123              	.LVL15:
 124              	.L14:
 125 001e 0020     		movs	r0, #0
 126              	.LVL16:
 127 0020 7047     		bx	lr
 128              	.L16:
 129 0022 00BF     		.align	2
 130              	.L15:
 131 0024 001000E0 		.word	-536866816
 132              		.cfi_endproc
 133              	.LFE64:
 134              		.size	halIsCounterWithin, .-halIsCounterWithin
 135              		.section	.text.halPolledDelay,"ax",%progbits
 136              		.align	2
 137              		.p2align 4,,15
 138              		.global	halPolledDelay
 139              		.thumb
 140              		.thumb_func
 141              		.type	halPolledDelay, %function
 142              	halPolledDelay:
 143              	.LFB65:
 144              		.loc 1 193 0
 145              		.cfi_startproc
 146              		@ args = 0, pretend = 0, frame = 0
 147              		@ frame_needed = 0, uses_anonymous_args = 0
 148              		@ link register save eliminated.
 149              	.LVL17:
 150              		.loc 1 194 0
 151 0000 084B     		ldr	r3, .L23
 152              	.LBB4:
 153              	.LBB5:
 154              		.loc 1 175 0
 155 0002 1946     		mov	r1, r3
 156              	.LBE5:
 157              	.LBE4:
 158              		.loc 1 194 0
 159 0004 5A68     		ldr	r2, [r3, #4]
 160              	.LVL18:
 161              		.loc 1 195 0
 162 0006 1044     		add	r0, r0, r2
 163              	.LVL19:
 164              	.L21:
 165              	.LBB8:
 166              	.LBB6:
 167              		.loc 1 177 0 discriminator 1
 168 0008 8242     		cmp	r2, r0
 169              		.loc 1 175 0 discriminator 1
 170 000a 4B68     		ldr	r3, [r1, #4]
 171              	.LVL20:
ARM GAS  /var/folders/6q/x_mk5n_j3p7_c40r_2k_78980000gn/T//ccDxIdbz.s 			page 4


 172              		.loc 1 177 0 discriminator 1
 173 000c 02D2     		bcs	.L18
 174              		.loc 1 177 0 is_stmt 0
 175 000e 9A42     		cmp	r2, r3
 176 0010 05D9     		bls	.L22
 177              	.LVL21:
 178              	.L17:
 179 0012 7047     		bx	lr
 180              	.LVL22:
 181              	.L18:
 182              		.loc 1 178 0 is_stmt 1
 183 0014 9A42     		cmp	r2, r3
 184 0016 F7D9     		bls	.L21
 185              	.LBE6:
 186              	.LBE8:
 187              		.loc 1 196 0
 188 0018 9842     		cmp	r0, r3
 189 001a F5D8     		bhi	.L21
 190 001c F9E7     		b	.L17
 191              	.LVL23:
 192              	.L22:
 193              	.LBB9:
 194              	.LBB7:
 195              		.loc 1 177 0
 196 001e 9842     		cmp	r0, r3
 197 0020 F2D8     		bhi	.L21
 198 0022 7047     		bx	lr
 199              	.L24:
 200              		.align	2
 201              	.L23:
 202 0024 001000E0 		.word	-536866816
 203              	.LBE7:
 204              	.LBE9:
 205              		.cfi_endproc
 206              	.LFE65:
 207              		.size	halPolledDelay, .-halPolledDelay
 208              		.text
 209              	.Letext0:
 210              		.file 2 "/Users/Luca/src/vexilla/src/gcc-arm-none-eabi-5_4-2016q3/arm-none-eabi/include/machine/_d
 211              		.file 3 "/Users/Luca/src/vexilla/src/gcc-arm-none-eabi-5_4-2016q3/arm-none-eabi/include/sys/_stdin
 212              		.file 4 "../ChibiOS/os/ports/GCC/ARMCMx/chtypes.h"
 213              		.file 5 "../ChibiOS/os/ports/common/ARMCMx/nvic.h"
 214              		.file 6 "../ChibiOS/os/hal/platforms/STM32F1xx/hal_lld.h"
 215              		.file 7 "../ChibiOS/os/hal/platforms/STM32/GPIOv1/pal_lld.h"
 216              		.file 8 "../ChibiOS/os/ports/common/ARMCMx/CMSIS/include/core_cm3.h"
 217              		.file 9 "../ChibiOS/os/hal/include/tm.h"
 218              		.file 10 "../ChibiOS/os/hal/include/adc.h"
 219              		.file 11 "../ChibiOS/os/hal/include/ext.h"
 220              		.file 12 "../ChibiOS/os/hal/include/gpt.h"
 221              		.file 13 "../ChibiOS/os/hal/include/i2c.h"
 222              		.file 14 "../ChibiOS/os/hal/include/serial.h"
 223              		.file 15 "../ChibiOS/os/hal/include/spi.h"
 224              		.file 16 "../convex-vexilla/cortex/boards/VEX_STM32_CORTEX/board.h"