ARM GAS  /var/folders/6q/x_mk5n_j3p7_c40r_2k_78980000gn/T//ccDxIdbz.s 			page 1


   1              		.syntax unified
   2              		.cpu cortex-m3
   3              		.fpu softvfp
   4              		.eabi_attribute 20, 1
   5              		.eabi_attribute 21, 1
   6              		.eabi_attribute 23, 3
   7              		.eabi_attribute 24, 1
   8              		.eabi_attribute 25, 1
   9              		.eabi_attribute 26, 1
  10              		.eabi_attribute 30, 2
  11              		.eabi_attribute 34, 1
  12              		.eabi_attribute 18, 4
  13              		.thumb
  14              		.syntax unified
  15              		.file	"hal.c"
  16              		.text
  17              	.Ltext0:
  18              		.cfi_sections	.debug_frame
  19              		.section	.text.halInit,"ax",%progbits
  20              		.align	2
  21              		.p2align 4,,15
  22              		.global	halInit
  23              		.thumb
  24              		.thumb_func
  25              		.type	halInit, %function
  26              	halInit:
  27              	.LFB63:
  28              		.file 1 "../ChibiOS/os/hal/src/hal.c"
  29              		.loc 1 68 0
  30              		.cfi_startproc
  31              		@ args = 0, pretend = 0, frame = 0
  32              		@ frame_needed = 0, uses_anonymous_args = 0
  33 0000 08B5     		push	{r3, lr}
  34              		.cfi_def_cfa_offset 8
  35              		.cfi_offset 3, -8
  36              		.cfi_offset 14, -4
  37              		.loc 1 70 0
  38 0002 FFF7FEFF 		bl	hal_lld_init
  39              	.LVL0:
  40              		.loc 1 73 0
  41 0006 FFF7FEFF 		bl	tmInit
  42              	.LVL1:
  43              		.loc 1 76 0
  44 000a 0948     		ldr	r0, .L3
  45 000c FFF7FEFF 		bl	_pal_lld_init
  46              	.LVL2:
  47              		.loc 1 79 0
  48 0010 FFF7FEFF 		bl	adcInit
  49              	.LVL3:
  50              		.loc 1 85 0
  51 0014 FFF7FEFF 		bl	extInit
  52              	.LVL4:
  53              		.loc 1 88 0
  54 0018 FFF7FEFF 		bl	gptInit
  55              	.LVL5:
  56              		.loc 1 91 0
  57 001c FFF7FEFF 		bl	i2cInit
ARM GAS  /var/folders/6q/x_mk5n_j3p7_c40r_2k_78980000gn/T//ccDxIdbz.s 			page 2


  58              	.LVL6:
  59              		.loc 1 103 0
  60 0020 FFF7FEFF 		bl	sdInit
  61              	.LVL7:
  62              		.loc 1 109 0
  63 0024 FFF7FEFF 		bl	spiInit
  64              	.LVL8:
  65              		.loc 1 128 0
  66 0028 BDE80840 		pop	{r3, lr}
  67              		.cfi_restore 14
  68              		.cfi_restore 3
  69              		.cfi_def_cfa_offset 0
  70              		.loc 1 127 0
  71 002c FFF7FEBF 		b	boardInit
  72              	.LVL9:
  73              	.L4:
  74              		.align	2
  75              	.L3:
  76 0030 00000000 		.word	pal_default_config
  77              		.cfi_endproc
  78              	.LFE63:
  79              		.size	halInit, .-halInit
  80              		.section	.text.halIsCounterWithin,"ax",%progbits
  81              		.align	2
  82              		.p2align 4,,15
  83              		.global	halIsCounterWithin
  84              		.thumb
  85              		.thumb_func
  86              		.type	halIsCounterWithin, %function
  87              	halIsCounterWithin:
  88              	.LFB64:
  89              		.loc 1 174 0
  90              		.cfi_startproc
  91              		@ args = 0, pretend = 0, frame = 0
  92              		@ frame_needed = 0, uses_anonymous_args = 0
  93              		@ link register save eliminated.
  94              	.LVL10:
  95              		.loc 1 175 0
  96 0000 084B     		ldr	r3, .L15
  97              		.loc 1 177 0
  98 0002 8142     		cmp	r1, r0
  99              		.loc 1 175 0
 100 0004 5B68     		ldr	r3, [r3, #4]
 101              	.LVL11:
 102              		.loc 1 177 0
 103 0006 06D9     		bls	.L6
 104              		.loc 1 177 0 is_stmt 0 discriminator 1
 105 0008 8342     		cmp	r3, r0
 106 000a 08D3     		bcc	.L14
 107              	.L12:
 108 000c 8B42     		cmp	r3, r1
 109 000e 2CBF     		ite	cs
 110 0010 0020     		movcs	r0, #0
 111              	.LVL12:
 112 0012 0120     		movcc	r0, #1
 113 0014 7047     		bx	lr
 114              	.LVL13:
ARM GAS  /var/folders/6q/x_mk5n_j3p7_c40r_2k_78980000gn/T//ccDxIdbz.s 			page 3


 115              	.L6:
 116              		.loc 1 178 0 is_stmt 1
 117 0016 8342     		cmp	r3, r0
 118 0018 F8D3     		bcc	.L12
 119 001a 0120     		movs	r0, #1
 120              	.LVL14:
 121              		.loc 1 179 0
 122 001c 7047     		bx	lr
 123              	.LVL15:
 124              	.L14:
 125 001e 0020     		movs	r0, #0
 126              	.LVL16:
 127 0020 7047     		bx	lr
 128              	.L16:
 129 0022 00BF     		.align	2
 130              	.L15:
 131 0024 001000E0 		.word	-536866816
 132              		.cfi_endproc
 133              	.LFE64:
 134              		.size	halIsCounterWithin, .-halIsCounterWithin
 135              		.section	.text.halPolledDelay,"ax",%progbits
 136              		.align	2
 137              		.p2align 4,,15
 138              		.global	halPolledDelay
 139              		.thumb
 140              		.thumb_func
 141              		.type	halPolledDelay, %function
 142              	halPolledDelay:
 143              	.LFB65:
 144              		.loc 1 193 0
 145              		.cfi_startproc
 146              		@ args = 0, pretend = 0, frame = 0
 147              		@ frame_needed = 0, uses_anonymous_args = 0
 148              		@ link register save eliminated.
 149              	.LVL17:
 150              		.loc 1 194 0
 151 0000 084B     		ldr	r3, .L23
 152              	.LBB4:
 153              	.LBB5:
 154              		.loc 1 175 0
 155 0002 1946     		mov	r1, r3
 156              	.LBE5:
 157              	.LBE4:
 158              		.loc 1 194 0
 159 0004 5A68     		ldr	r2, [r3, #4]
 160              	.LVL18:
 161              		.loc 1 195 0
 162 0006 1044     		add	r0, r0, r2
 163              	.LVL19:
 164              	.L21:
 165              	.LBB8:
 166              	.LBB6:
 167              		.loc 1 177 0 discriminator 1
 168 0008 8242     		cmp	r2, r0
 169              		.loc 1 175 0 discriminator 1
 170 000a 4B68     		ldr	r3, [r1, #4]
 171              	.LVL20:
ARM GAS  /var/folders/6q/x_mk5n_j3p7_c40r_2k_78980000gn/T//ccDxIdbz.s 			page 4


 172              		.loc 1 177 0 discriminator 1
 173 000c 02D2     		bcs	.L18
 174              		.loc 1 177 0 is_stmt 0
 175 000e 9A42     		cmp	r2, r3
 176 0010 05D9     		bls	.L22
 177              	.LVL21:
 178              	.L17:
 179 0012 7047     		bx	lr
 180              	.LVL22:
 181              	.L18:
 182              		.loc 1 178 0 is_stmt 1
 183 0014 9A42     		cmp	r2, r3
 184 0016 F7D9     		bls	.L21
 185              	.LBE6:
 186              	.LBE8:
 187              		.loc 1 196 0
 188 0018 9842     		cmp	r0, r3
 189 001a F5D8     		bhi	.L21
 190 001c F9E7     		b	.L17
 191              	.LVL23:
 192              	.L22:
 193              	.LBB9:
 194              	.LBB7:
 195              		.loc 1 177 0
 196 001e 9842     		cmp	r0, r3
 197 0020 F2D8     		bhi	.L21
 198 0022 7047     		bx	lr
 199              	.L24:
 200              		.align	2
 201              	.L23:
 202 0024 001000E0 		.word	-536866816
 203              	.LBE7:
 204              	.LBE9:
 205              		.cfi_endproc
 206              	.LFE65:
 207              		.size	halPolledDelay, .-halPolledDelay
 208              		.text
 209              	.Letext0:
 210              		.file 2 "/Users/Luca/src/vexilla/src/gcc-arm-none-eabi-5_4-2016q3/arm-none-eabi/include/machine/_d
 211              		.file 3 "/Users/Luca/src/vexilla/src/gcc-arm-none-eabi-5_4-2016q3/arm-none-eabi/include/sys/_stdin
 212              		.file 4 "../ChibiOS/os/ports/GCC/ARMCMx/chtypes.h"
 213              		.file 5 "../ChibiOS/os/ports/common/ARMCMx/nvic.h"
 214              		.file 6 "../ChibiOS/os/hal/platforms/STM32F1xx/hal_lld.h"
 215              		.file 7 "../ChibiOS/os/hal/platforms/STM32/GPIOv1/pal_lld.h"
 216              		.file 8 "../ChibiOS/os/ports/common/ARMCMx/CMSIS/include/core_cm3.h"
 217              		.file 9 "../ChibiOS/os/hal/include/tm.h"
 218              		.file 10 "../ChibiOS/os/hal/include/adc.h"
 219              		.file 11 "../ChibiOS/os/hal/include/ext.h"
 220              		.file 12 "../ChibiOS/os/hal/include/gpt.h"
 221              		.file 13 "../ChibiOS/os/hal/include/i2c.h"
 222              		.file 14 "../ChibiOS/os/hal/include/serial.h"
 223              		.file 15 "../ChibiOS/os/hal/include/spi.h"
 224              		.file 16 "../convex-vexilla/cortex/boards/VEX_STM32_CORTEX/board.h"
 225              		.section	.debug_info,"",%progbits
 226              	.Ldebug_info0:
 227 0000 C5030000 		.4byte	0x3c5
 228 0004 0400     		.2byte	0x4
ARM GAS  /var/folders/6q/x_mk5n_j3p7_c40r_2k_78980000gn/T//ccDxIdbz.s 			page 5


 229 0006 00000000 		.4byte	.Ldebug_abbrev0
 230 000a 04       		.byte	0x4
 231 000b 01       		.uleb128 0x1
 232 000c 69000000 		.4byte	.LASF54
 233 0010 0C       		.byte	0xc
 234 0011 98010000 		.4byte	.LASF55
 235 0015 43010000 		.4byte	.LASF56
 236 0019 20000000 		.4byte	.Ldebug_ranges0+0x20
 237 001d 00000000 		.4byte	0
 238 0021 00000000 		.4byte	.Ldebug_line0
 239 0025 02       		.uleb128 0x2
 240 0026 04       		.byte	0x4
 241 0027 05       		.byte	0x5
 242 0028 696E7400 		.ascii	"int\000"
 243 002c 03       		.uleb128 0x3
 244 002d 04       		.byte	0x4
 245 002e 07       		.byte	0x7
 246 002f 46020000 		.4byte	.LASF0
 247 0033 03       		.uleb128 0x3
 248 0034 08       		.byte	0x8
 249 0035 05       		.byte	0x5
 250 0036 7B010000 		.4byte	.LASF1
 251 003a 03       		.uleb128 0x3
 252 003b 08       		.byte	0x8
 253 003c 04       		.byte	0x4
 254 003d EC010000 		.4byte	.LASF2
 255 0041 03       		.uleb128 0x3
 256 0042 01       		.byte	0x1
 257 0043 06       		.byte	0x6
 258 0044 1A020000 		.4byte	.LASF3
 259 0048 03       		.uleb128 0x3
 260 0049 01       		.byte	0x1
 261 004a 08       		.byte	0x8
 262 004b FF010000 		.4byte	.LASF4
 263 004f 03       		.uleb128 0x3
 264 0050 02       		.byte	0x2
 265 0051 05       		.byte	0x5
 266 0052 2F000000 		.4byte	.LASF5
 267 0056 03       		.uleb128 0x3
 268 0057 02       		.byte	0x2
 269 0058 07       		.byte	0x7
 270 0059 79020000 		.4byte	.LASF6
 271 005d 04       		.uleb128 0x4
 272 005e F3020000 		.4byte	.LASF8
 273 0062 02       		.byte	0x2
 274 0063 3F       		.byte	0x3f
 275 0064 68000000 		.4byte	0x68
 276 0068 03       		.uleb128 0x3
 277 0069 04       		.byte	0x4
 278 006a 05       		.byte	0x5
 279 006b B4010000 		.4byte	.LASF7
 280 006f 04       		.uleb128 0x4
 281 0070 5E000000 		.4byte	.LASF9
 282 0074 02       		.byte	0x2
 283 0075 41       		.byte	0x41
 284 0076 7A000000 		.4byte	0x7a
 285 007a 03       		.uleb128 0x3
ARM GAS  /var/folders/6q/x_mk5n_j3p7_c40r_2k_78980000gn/T//ccDxIdbz.s 			page 6


 286 007b 04       		.byte	0x4
 287 007c 07       		.byte	0x7
 288 007d CD020000 		.4byte	.LASF10
 289 0081 03       		.uleb128 0x3
 290 0082 08       		.byte	0x8
 291 0083 07       		.byte	0x7
 292 0084 26020000 		.4byte	.LASF11
 293 0088 04       		.uleb128 0x4
 294 0089 91020000 		.4byte	.LASF12
 295 008d 03       		.byte	0x3
 296 008e 2C       		.byte	0x2c
 297 008f 5D000000 		.4byte	0x5d
 298 0093 04       		.uleb128 0x4
 299 0094 3D020000 		.4byte	.LASF13
 300 0098 03       		.byte	0x3
 301 0099 30       		.byte	0x30
 302 009a 6F000000 		.4byte	0x6f
 303 009e 04       		.uleb128 0x4
 304 009f 99020000 		.4byte	.LASF14
 305 00a3 04       		.byte	0x4
 306 00a4 2B       		.byte	0x2b
 307 00a5 A9000000 		.4byte	0xa9
 308 00a9 03       		.uleb128 0x3
 309 00aa 01       		.byte	0x1
 310 00ab 02       		.byte	0x2
 311 00ac B1020000 		.4byte	.LASF15
 312 00b0 04       		.uleb128 0x4
 313 00b1 6C010000 		.4byte	.LASF16
 314 00b5 05       		.byte	0x5
 315 00b6 3A       		.byte	0x3a
 316 00b7 BB000000 		.4byte	0xbb
 317 00bb 05       		.uleb128 0x5
 318 00bc 93000000 		.4byte	0x93
 319 00c0 03       		.uleb128 0x3
 320 00c1 04       		.byte	0x4
 321 00c2 07       		.byte	0x7
 322 00c3 39000000 		.4byte	.LASF17
 323 00c7 06       		.uleb128 0x6
 324 00c8 20       		.byte	0x20
 325 00c9 05       		.byte	0x5
 326 00ca 0601     		.2byte	0x106
 327 00cc 39010000 		.4byte	0x139
 328 00d0 07       		.uleb128 0x7
 329 00d1 15020000 		.4byte	.LASF18
 330 00d5 05       		.byte	0x5
 331 00d6 0701     		.2byte	0x107
 332 00d8 B0000000 		.4byte	0xb0
 333 00dc 00       		.byte	0
 334 00dd 07       		.uleb128 0x7
 335 00de 91010000 		.4byte	.LASF19
 336 00e2 05       		.byte	0x5
 337 00e3 0801     		.2byte	0x108
 338 00e5 B0000000 		.4byte	0xb0
 339 00e9 04       		.byte	0x4
 340 00ea 07       		.uleb128 0x7
 341 00eb C6020000 		.4byte	.LASF20
 342 00ef 05       		.byte	0x5
ARM GAS  /var/folders/6q/x_mk5n_j3p7_c40r_2k_78980000gn/T//ccDxIdbz.s 			page 7


 343 00f0 0901     		.2byte	0x109
 344 00f2 B0000000 		.4byte	0xb0
 345 00f6 08       		.byte	0x8
 346 00f7 07       		.uleb128 0x7
 347 00f8 33030000 		.4byte	.LASF21
 348 00fc 05       		.byte	0x5
 349 00fd 0A01     		.2byte	0x10a
 350 00ff B0000000 		.4byte	0xb0
 351 0103 0C       		.byte	0xc
 352 0104 07       		.uleb128 0x7
 353 0105 EA020000 		.4byte	.LASF22
 354 0109 05       		.byte	0x5
 355 010a 0B01     		.2byte	0x10b
 356 010c B0000000 		.4byte	0xb0
 357 0110 10       		.byte	0x10
 358 0111 07       		.uleb128 0x7
 359 0112 FD020000 		.4byte	.LASF23
 360 0116 05       		.byte	0x5
 361 0117 0C01     		.2byte	0x10c
 362 0119 B0000000 		.4byte	0xb0
 363 011d 14       		.byte	0x14
 364 011e 07       		.uleb128 0x7
 365 011f 4E000000 		.4byte	.LASF24
 366 0123 05       		.byte	0x5
 367 0124 0D01     		.2byte	0x10d
 368 0126 B0000000 		.4byte	0xb0
 369 012a 18       		.byte	0x18
 370 012b 07       		.uleb128 0x7
 371 012c 49000000 		.4byte	.LASF25
 372 0130 05       		.byte	0x5
 373 0131 0E01     		.2byte	0x10e
 374 0133 B0000000 		.4byte	0xb0
 375 0137 1C       		.byte	0x1c
 376 0138 00       		.byte	0
 377 0139 08       		.uleb128 0x8
 378 013a B7020000 		.4byte	.LASF26
 379 013e 05       		.byte	0x5
 380 013f 0F01     		.2byte	0x10f
 381 0141 C7000000 		.4byte	0xc7
 382 0145 03       		.uleb128 0x3
 383 0146 01       		.byte	0x1
 384 0147 08       		.byte	0x8
 385 0148 8C020000 		.4byte	.LASF27
 386 014c 05       		.uleb128 0x5
 387 014d 88000000 		.4byte	0x88
 388 0151 04       		.uleb128 0x4
 389 0152 DF020000 		.4byte	.LASF28
 390 0156 06       		.byte	0x6
 391 0157 CE       		.byte	0xce
 392 0158 93000000 		.4byte	0x93
 393 015c 09       		.uleb128 0x9
 394 015d 0C       		.byte	0xc
 395 015e 07       		.byte	0x7
 396 015f 38       		.byte	0x38
 397 0160 89010000 		.4byte	0x189
 398 0164 0A       		.uleb128 0xa
 399 0165 6F647200 		.ascii	"odr\000"
ARM GAS  /var/folders/6q/x_mk5n_j3p7_c40r_2k_78980000gn/T//ccDxIdbz.s 			page 8


 400 0169 07       		.byte	0x7
 401 016a 3A       		.byte	0x3a
 402 016b 93000000 		.4byte	0x93
 403 016f 00       		.byte	0
 404 0170 0A       		.uleb128 0xa
 405 0171 63726C00 		.ascii	"crl\000"
 406 0175 07       		.byte	0x7
 407 0176 3C       		.byte	0x3c
 408 0177 93000000 		.4byte	0x93
 409 017b 04       		.byte	0x4
 410 017c 0A       		.uleb128 0xa
 411 017d 63726800 		.ascii	"crh\000"
 412 0181 07       		.byte	0x7
 413 0182 3E       		.byte	0x3e
 414 0183 93000000 		.4byte	0x93
 415 0187 08       		.byte	0x8
 416 0188 00       		.byte	0
 417 0189 04       		.uleb128 0x4
 418 018a 53020000 		.4byte	.LASF29
 419 018e 07       		.byte	0x7
 420 018f 3F       		.byte	0x3f
 421 0190 5C010000 		.4byte	0x15c
 422 0194 09       		.uleb128 0x9
 423 0195 54       		.byte	0x54
 424 0196 07       		.byte	0x7
 425 0197 48       		.byte	0x48
 426 0198 F1010000 		.4byte	0x1f1
 427 019c 0B       		.uleb128 0xb
 428 019d 74010000 		.4byte	.LASF30
 429 01a1 07       		.byte	0x7
 430 01a2 4A       		.byte	0x4a
 431 01a3 89010000 		.4byte	0x189
 432 01a7 00       		.byte	0
 433 01a8 0B       		.uleb128 0xb
 434 01a9 AA020000 		.4byte	.LASF31
 435 01ad 07       		.byte	0x7
 436 01ae 4C       		.byte	0x4c
 437 01af 89010000 		.4byte	0x189
 438 01b3 0C       		.byte	0xc
 439 01b4 0B       		.uleb128 0xb
 440 01b5 F8010000 		.4byte	.LASF32
 441 01b9 07       		.byte	0x7
 442 01ba 4E       		.byte	0x4e
 443 01bb 89010000 		.4byte	0x189
 444 01bf 18       		.byte	0x18
 445 01c0 0B       		.uleb128 0xb
 446 01c1 BD010000 		.4byte	.LASF33
 447 01c5 07       		.byte	0x7
 448 01c6 50       		.byte	0x50
 449 01c7 89010000 		.4byte	0x189
 450 01cb 24       		.byte	0x24
 451 01cc 0B       		.uleb128 0xb
 452 01cd BF020000 		.4byte	.LASF34
 453 01d1 07       		.byte	0x7
 454 01d2 53       		.byte	0x53
 455 01d3 89010000 		.4byte	0x189
 456 01d7 30       		.byte	0x30
ARM GAS  /var/folders/6q/x_mk5n_j3p7_c40r_2k_78980000gn/T//ccDxIdbz.s 			page 9


 457 01d8 0B       		.uleb128 0xb
 458 01d9 42000000 		.4byte	.LASF35
 459 01dd 07       		.byte	0x7
 460 01de 56       		.byte	0x56
 461 01df 89010000 		.4byte	0x189
 462 01e3 3C       		.byte	0x3c
 463 01e4 0B       		.uleb128 0xb
 464 01e5 DD010000 		.4byte	.LASF36
 465 01e9 07       		.byte	0x7
 466 01ea 59       		.byte	0x59
 467 01eb 89010000 		.4byte	0x189
 468 01ef 48       		.byte	0x48
 469 01f0 00       		.byte	0
 470 01f1 04       		.uleb128 0x4
 471 01f2 A0020000 		.4byte	.LASF37
 472 01f6 07       		.byte	0x7
 473 01f7 5D       		.byte	0x5d
 474 01f8 94010000 		.4byte	0x194
 475 01fc 0C       		.uleb128 0xc
 476 01fd 20030000 		.4byte	.LASF57
 477 0201 01       		.byte	0x1
 478 0202 AE       		.byte	0xae
 479 0203 9E000000 		.4byte	0x9e
 480 0207 01       		.byte	0x1
 481 0208 2E020000 		.4byte	0x22e
 482 020c 0D       		.uleb128 0xd
 483 020d 73020000 		.4byte	.LASF38
 484 0211 01       		.byte	0x1
 485 0212 AE       		.byte	0xae
 486 0213 51010000 		.4byte	0x151
 487 0217 0E       		.uleb128 0xe
 488 0218 656E6400 		.ascii	"end\000"
 489 021c 01       		.byte	0x1
 490 021d AE       		.byte	0xae
 491 021e 51010000 		.4byte	0x151
 492 0222 0F       		.uleb128 0xf
 493 0223 6E6F7700 		.ascii	"now\000"
 494 0227 01       		.byte	0x1
 495 0228 AF       		.byte	0xaf
 496 0229 51010000 		.4byte	0x151
 497 022d 00       		.byte	0
 498 022e 10       		.uleb128 0x10
 499 022f 89010000 		.4byte	.LASF39
 500 0233 01       		.byte	0x1
 501 0234 44       		.byte	0x44
 502 0235 00000000 		.4byte	.LFB63
 503 0239 34000000 		.4byte	.LFE63-.LFB63
 504 023d 01       		.uleb128 0x1
 505 023e 9C       		.byte	0x9c
 506 023f 9E020000 		.4byte	0x29e
 507 0243 11       		.uleb128 0x11
 508 0244 06000000 		.4byte	.LVL0
 509 0248 56030000 		.4byte	0x356
 510 024c 11       		.uleb128 0x11
 511 024d 0A000000 		.4byte	.LVL1
 512 0251 61030000 		.4byte	0x361
 513 0255 11       		.uleb128 0x11
ARM GAS  /var/folders/6q/x_mk5n_j3p7_c40r_2k_78980000gn/T//ccDxIdbz.s 			page 10


 514 0256 10000000 		.4byte	.LVL2
 515 025a 6C030000 		.4byte	0x36c
 516 025e 11       		.uleb128 0x11
 517 025f 14000000 		.4byte	.LVL3
 518 0263 78030000 		.4byte	0x378
 519 0267 11       		.uleb128 0x11
 520 0268 18000000 		.4byte	.LVL4
 521 026c 84030000 		.4byte	0x384
 522 0270 11       		.uleb128 0x11
 523 0271 1C000000 		.4byte	.LVL5
 524 0275 8F030000 		.4byte	0x38f
 525 0279 11       		.uleb128 0x11
 526 027a 20000000 		.4byte	.LVL6
 527 027e 9A030000 		.4byte	0x39a
 528 0282 11       		.uleb128 0x11
 529 0283 24000000 		.4byte	.LVL7
 530 0287 A5030000 		.4byte	0x3a5
 531 028b 11       		.uleb128 0x11
 532 028c 28000000 		.4byte	.LVL8
 533 0290 B1030000 		.4byte	0x3b1
 534 0294 12       		.uleb128 0x12
 535 0295 30000000 		.4byte	.LVL9
 536 0299 BD030000 		.4byte	0x3bd
 537 029d 00       		.byte	0
 538 029e 13       		.uleb128 0x13
 539 029f FC010000 		.4byte	0x1fc
 540 02a3 00000000 		.4byte	.LFB64
 541 02a7 28000000 		.4byte	.LFE64-.LFB64
 542 02ab 01       		.uleb128 0x1
 543 02ac 9C       		.byte	0x9c
 544 02ad C9020000 		.4byte	0x2c9
 545 02b1 14       		.uleb128 0x14
 546 02b2 0C020000 		.4byte	0x20c
 547 02b6 00000000 		.4byte	.LLST0
 548 02ba 15       		.uleb128 0x15
 549 02bb 17020000 		.4byte	0x217
 550 02bf 01       		.uleb128 0x1
 551 02c0 51       		.byte	0x51
 552 02c1 16       		.uleb128 0x16
 553 02c2 22020000 		.4byte	0x222
 554 02c6 01       		.uleb128 0x1
 555 02c7 53       		.byte	0x53
 556 02c8 00       		.byte	0
 557 02c9 10       		.uleb128 0x10
 558 02ca C4010000 		.4byte	.LASF40
 559 02ce 01       		.byte	0x1
 560 02cf C1       		.byte	0xc1
 561 02d0 00000000 		.4byte	.LFB65
 562 02d4 28000000 		.4byte	.LFE65-.LFB65
 563 02d8 01       		.uleb128 0x1
 564 02d9 9C       		.byte	0x9c
 565 02da 39030000 		.4byte	0x339
 566 02de 17       		.uleb128 0x17
 567 02df 00000000 		.4byte	.LASF58
 568 02e3 01       		.byte	0x1
 569 02e4 C1       		.byte	0xc1
 570 02e5 51010000 		.4byte	0x151
ARM GAS  /var/folders/6q/x_mk5n_j3p7_c40r_2k_78980000gn/T//ccDxIdbz.s 			page 11


 571 02e9 53000000 		.4byte	.LLST1
 572 02ed 18       		.uleb128 0x18
 573 02ee 73020000 		.4byte	.LASF38
 574 02f2 01       		.byte	0x1
 575 02f3 C2       		.byte	0xc2
 576 02f4 51010000 		.4byte	0x151
 577 02f8 01       		.uleb128 0x1
 578 02f9 52       		.byte	0x52
 579 02fa 18       		.uleb128 0x18
 580 02fb 3A030000 		.4byte	.LASF41
 581 02ff 01       		.byte	0x1
 582 0300 C3       		.byte	0xc3
 583 0301 51010000 		.4byte	0x151
 584 0305 01       		.uleb128 0x1
 585 0306 50       		.byte	0x50
 586 0307 19       		.uleb128 0x19
 587 0308 FC010000 		.4byte	0x1fc
 588 030c 02000000 		.4byte	.LBB4
 589 0310 00000000 		.4byte	.Ldebug_ranges0+0
 590 0314 01       		.byte	0x1
 591 0315 C4       		.byte	0xc4
 592 0316 14       		.uleb128 0x14
 593 0317 17020000 		.4byte	0x217
 594 031b 74000000 		.4byte	.LLST2
 595 031f 14       		.uleb128 0x14
 596 0320 0C020000 		.4byte	0x20c
 597 0324 92000000 		.4byte	.LLST3
 598 0328 1A       		.uleb128 0x1a
 599 0329 00000000 		.4byte	.Ldebug_ranges0+0
 600 032d 1B       		.uleb128 0x1b
 601 032e 22020000 		.4byte	0x222
 602 0332 B0000000 		.4byte	.LLST4
 603 0336 00       		.byte	0
 604 0337 00       		.byte	0
 605 0338 00       		.byte	0
 606 0339 1C       		.uleb128 0x1c
 607 033a 0C030000 		.4byte	.LASF42
 608 033e 08       		.byte	0x8
 609 033f 0706     		.2byte	0x607
 610 0341 4C010000 		.4byte	0x14c
 611 0345 1C       		.uleb128 0x1c
 612 0346 1C000000 		.4byte	.LASF43
 613 034a 07       		.byte	0x7
 614 034b 3D01     		.2byte	0x13d
 615 034d 51030000 		.4byte	0x351
 616 0351 1D       		.uleb128 0x1d
 617 0352 F1010000 		.4byte	0x1f1
 618 0356 1E       		.uleb128 0x1e
 619 0357 66020000 		.4byte	.LASF44
 620 035b 66020000 		.4byte	.LASF44
 621 035f 06       		.byte	0x6
 622 0360 F7       		.byte	0xf7
 623 0361 1E       		.uleb128 0x1e
 624 0362 19030000 		.4byte	.LASF45
 625 0366 19030000 		.4byte	.LASF45
 626 036a 09       		.byte	0x9
 627 036b 73       		.byte	0x73
ARM GAS  /var/folders/6q/x_mk5n_j3p7_c40r_2k_78980000gn/T//ccDxIdbz.s 			page 12


 628 036c 1F       		.uleb128 0x1f
 629 036d 0E000000 		.4byte	.LASF46
 630 0371 0E000000 		.4byte	.LASF46
 631 0375 07       		.byte	0x7
 632 0376 4201     		.2byte	0x142
 633 0378 1F       		.uleb128 0x1f
 634 0379 04030000 		.4byte	.LASF47
 635 037d 04030000 		.4byte	.LASF47
 636 0381 0A       		.byte	0xa
 637 0382 1C01     		.2byte	0x11c
 638 0384 1E       		.uleb128 0x1e
 639 0385 E4010000 		.4byte	.LASF48
 640 0389 E4010000 		.4byte	.LASF48
 641 038d 0B       		.byte	0xb
 642 038e 90       		.byte	0x90
 643 038f 1E       		.uleb128 0x1e
 644 0390 0D020000 		.4byte	.LASF49
 645 0394 0D020000 		.4byte	.LASF49
 646 0398 0C       		.byte	0xc
 647 0399 6E       		.byte	0x6e
 648 039a 1E       		.uleb128 0x1e
 649 039b 06000000 		.4byte	.LASF50
 650 039f 06000000 		.4byte	.LASF50
 651 03a3 0D       		.byte	0xd
 652 03a4 7F       		.byte	0x7f
 653 03a5 1F       		.uleb128 0x1f
 654 03a6 65010000 		.4byte	.LASF51
 655 03aa 65010000 		.4byte	.LASF51
 656 03ae 0E       		.byte	0xe
 657 03af 3501     		.2byte	0x135
 658 03b1 1F       		.uleb128 0x1f
 659 03b2 56000000 		.4byte	.LASF52
 660 03b6 56000000 		.4byte	.LASF52
 661 03ba 0F       		.byte	0xf
 662 03bb 2E01     		.2byte	0x12e
 663 03bd 1E       		.uleb128 0x1e
 664 03be D3010000 		.4byte	.LASF53
 665 03c2 D3010000 		.4byte	.LASF53
 666 03c6 10       		.byte	0x10
 667 03c7 EA       		.byte	0xea
 668 03c8 00       		.byte	0
 669              		.section	.debug_abbrev,"",%progbits
 670              	.Ldebug_abbrev0:
 671 0000 01       		.uleb128 0x1
 672 0001 11       		.uleb128 0x11
 673 0002 01       		.byte	0x1
 674 0003 25       		.uleb128 0x25
 675 0004 0E       		.uleb128 0xe
 676 0005 13       		.uleb128 0x13
 677 0006 0B       		.uleb128 0xb
 678 0007 03       		.uleb128 0x3
 679 0008 0E       		.uleb128 0xe
 680 0009 1B       		.uleb128 0x1b
 681 000a 0E       		.uleb128 0xe
 682 000b 55       		.uleb128 0x55
 683 000c 17       		.uleb128 0x17
 684 000d 11       		.uleb128 0x11
ARM GAS  /var/folders/6q/x_mk5n_j3p7_c40r_2k_78980000gn/T//ccDxIdbz.s 			page 13


 685 000e 01       		.uleb128 0x1
 686 000f 10       		.uleb128 0x10
 687 0010 17       		.uleb128 0x17
 688 0011 00       		.byte	0
 689 0012 00       		.byte	0
 690 0013 02       		.uleb128 0x2
 691 0014 24       		.uleb128 0x24
 692 0015 00       		.byte	0
 693 0016 0B       		.uleb128 0xb
 694 0017 0B       		.uleb128 0xb
 695 0018 3E       		.uleb128 0x3e
 696 0019 0B       		.uleb128 0xb
 697 001a 03       		.uleb128 0x3
 698 001b 08       		.uleb128 0x8
 699 001c 00       		.byte	0
 700 001d 00       		.byte	0
 701 001e 03       		.uleb128 0x3
 702 001f 24       		.uleb128 0x24
 703 0020 00       		.byte	0
 704 0021 0B       		.uleb128 0xb
 705 0022 0B       		.uleb128 0xb
 706 0023 3E       		.uleb128 0x3e
 707 0024 0B       		.uleb128 0xb
 708 0025 03       		.uleb128 0x3
 709 0026 0E       		.uleb128 0xe
 710 0027 00       		.byte	0
 711 0028 00       		.byte	0
 712 0029 04       		.uleb128 0x4
 713 002a 16       		.uleb128 0x16
 714 002b 00       		.byte	0
 715 002c 03       		.uleb128 0x3
 716 002d 0E       		.uleb128 0xe
 717 002e 3A       		.uleb128 0x3a
 718 002f 0B       		.uleb128 0xb
 719 0030 3B       		.uleb128 0x3b
 720 0031 0B       		.uleb128 0xb
 721 0032 49       		.uleb128 0x49
 722 0033 13       		.uleb128 0x13
 723 0034 00       		.byte	0
 724 0035 00       		.byte	0
 725 0036 05       		.uleb128 0x5
 726 0037 35       		.uleb128 0x35
 727 0038 00       		.byte	0
 728 0039 49       		.uleb128 0x49
 729 003a 13       		.uleb128 0x13
 730 003b 00       		.byte	0
 731 003c 00       		.byte	0
 732 003d 06       		.uleb128 0x6
 733 003e 13       		.uleb128 0x13
 734 003f 01       		.byte	0x1
 735 0040 0B       		.uleb128 0xb
 736 0041 0B       		.uleb128 0xb
 737 0042 3A       		.uleb128 0x3a
 738 0043 0B       		.uleb128 0xb
 739 0044 3B       		.uleb128 0x3b
 740 0045 05       		.uleb128 0x5
 741 0046 01       		.uleb128 0x1
ARM GAS  /var/folders/6q/x_mk5n_j3p7_c40r_2k_78980000gn/T//ccDxIdbz.s 			page 14


 742 0047 13       		.uleb128 0x13
 743 0048 00       		.byte	0
 744 0049 00       		.byte	0
 745 004a 07       		.uleb128 0x7
 746 004b 0D       		.uleb128 0xd
 747 004c 00       		.byte	0
 748 004d 03       		.uleb128 0x3
 749 004e 0E       		.uleb128 0xe
 750 004f 3A       		.uleb128 0x3a
 751 0050 0B       		.uleb128 0xb
 752 0051 3B       		.uleb128 0x3b
 753 0052 05       		.uleb128 0x5
 754 0053 49       		.uleb128 0x49
 755 0054 13       		.uleb128 0x13
 756 0055 38       		.uleb128 0x38
 757 0056 0B       		.uleb128 0xb
 758 0057 00       		.byte	0
 759 0058 00       		.byte	0
 760 0059 08       		.uleb128 0x8
 761 005a 16       		.uleb128 0x16
 762 005b 00       		.byte	0
 763 005c 03       		.uleb128 0x3
 764 005d 0E       		.uleb128 0xe
 765 005e 3A       		.uleb128 0x3a
 766 005f 0B       		.uleb128 0xb
 767 0060 3B       		.uleb128 0x3b
 768 0061 05       		.uleb128 0x5
 769 0062 49       		.uleb128 0x49
 770 0063 13       		.uleb128 0x13
 771 0064 00       		.byte	0
 772 0065 00       		.byte	0
 773 0066 09       		.uleb128 0x9
 774 0067 13       		.uleb128 0x13
 775 0068 01       		.byte	0x1
 776 0069 0B       		.uleb128 0xb
 777 006a 0B       		.uleb128 0xb
 778 006b 3A       		.uleb128 0x3a
 779 006c 0B       		.uleb128 0xb
 780 006d 3B       		.uleb128 0x3b
 781 006e 0B       		.uleb128 0xb
 782 006f 01       		.uleb128 0x1
 783 0070 13       		.uleb128 0x13
 784 0071 00       		.byte	0
 785 0072 00       		.byte	0
 786 0073 0A       		.uleb128 0xa
 787 0074 0D       		.uleb128 0xd
 788 0075 00       		.byte	0
 789 0076 03       		.uleb128 0x3
 790 0077 08       		.uleb128 0x8
 791 0078 3A       		.uleb128 0x3a
 792 0079 0B       		.uleb128 0xb
 793 007a 3B       		.uleb128 0x3b
 794 007b 0B       		.uleb128 0xb
 795 007c 49       		.uleb128 0x49
 796 007d 13       		.uleb128 0x13
 797 007e 38       		.uleb128 0x38
 798 007f 0B       		.uleb128 0xb
ARM GAS  /var/folders/6q/x_mk5n_j3p7_c40r_2k_78980000gn/T//ccDxIdbz.s 			page 15


 799 0080 00       		.byte	0
 800 0081 00       		.byte	0
 801 0082 0B       		.uleb128 0xb
 802 0083 0D       		.uleb128 0xd
 803 0084 00       		.byte	0
 804 0085 03       		.uleb128 0x3
 805 0086 0E       		.uleb128 0xe
 806 0087 3A       		.uleb128 0x3a
 807 0088 0B       		.uleb128 0xb
 808 0089 3B       		.uleb128 0x3b
 809 008a 0B       		.uleb128 0xb
 810 008b 49       		.uleb128 0x49
 811 008c 13       		.uleb128 0x13
 812 008d 38       		.uleb128 0x38
 813 008e 0B       		.uleb128 0xb
 814 008f 00       		.byte	0
 815 0090 00       		.byte	0
 816 0091 0C       		.uleb128 0xc
 817 0092 2E       		.uleb128 0x2e
 818 0093 01       		.byte	0x1
 819 0094 3F       		.uleb128 0x3f
 820 0095 19       		.uleb128 0x19
 821 0096 03       		.uleb128 0x3
 822 0097 0E       		.uleb128 0xe
 823 0098 3A       		.uleb128 0x3a
 824 0099 0B       		.uleb128 0xb
 825 009a 3B       		.uleb128 0x3b
 826 009b 0B       		.uleb128 0xb
 827 009c 27       		.uleb128 0x27
 828 009d 19       		.uleb128 0x19
 829 009e 49       		.uleb128 0x49
 830 009f 13       		.uleb128 0x13
 831 00a0 20       		.uleb128 0x20
 832 00a1 0B       		.uleb128 0xb
 833 00a2 01       		.uleb128 0x1
 834 00a3 13       		.uleb128 0x13
 835 00a4 00       		.byte	0
 836 00a5 00       		.byte	0
 837 00a6 0D       		.uleb128 0xd
 838 00a7 05       		.uleb128 0x5
 839 00a8 00       		.byte	0
 840 00a9 03       		.uleb128 0x3
 841 00aa 0E       		.uleb128 0xe
 842 00ab 3A       		.uleb128 0x3a
 843 00ac 0B       		.uleb128 0xb
 844 00ad 3B       		.uleb128 0x3b
 845 00ae 0B       		.uleb128 0xb
 846 00af 49       		.uleb128 0x49
 847 00b0 13       		.uleb128 0x13
 848 00b1 00       		.byte	0
 849 00b2 00       		.byte	0
 850 00b3 0E       		.uleb128 0xe
 851 00b4 05       		.uleb128 0x5
 852 00b5 00       		.byte	0
 853 00b6 03       		.uleb128 0x3
 854 00b7 08       		.uleb128 0x8
 855 00b8 3A       		.uleb128 0x3a
ARM GAS  /var/folders/6q/x_mk5n_j3p7_c40r_2k_78980000gn/T//ccDxIdbz.s 			page 16


 856 00b9 0B       		.uleb128 0xb
 857 00ba 3B       		.uleb128 0x3b
 858 00bb 0B       		.uleb128 0xb
 859 00bc 49       		.uleb128 0x49
 860 00bd 13       		.uleb128 0x13
 861 00be 00       		.byte	0
 862 00bf 00       		.byte	0
 863 00c0 0F       		.uleb128 0xf
 864 00c1 34       		.uleb128 0x34
 865 00c2 00       		.byte	0
 866 00c3 03       		.uleb128 0x3
 867 00c4 08       		.uleb128 0x8
 868 00c5 3A       		.uleb128 0x3a
 869 00c6 0B       		.uleb128 0xb
 870 00c7 3B       		.uleb128 0x3b
 871 00c8 0B       		.uleb128 0xb
 872 00c9 49       		.uleb128 0x49
 873 00ca 13       		.uleb128 0x13
 874 00cb 00       		.byte	0
 875 00cc 00       		.byte	0
 876 00cd 10       		.uleb128 0x10
 877 00ce 2E       		.uleb128 0x2e
 878 00cf 01       		.byte	0x1
 879 00d0 3F       		.uleb128 0x3f
 880 00d1 19       		.uleb128 0x19
 881 00d2 03       		.uleb128 0x3
 882 00d3 0E       		.uleb128 0xe
 883 00d4 3A       		.uleb128 0x3a
 884 00d5 0B       		.uleb128 0xb
 885 00d6 3B       		.uleb128 0x3b
 886 00d7 0B       		.uleb128 0xb
 887 00d8 27       		.uleb128 0x27
 888 00d9 19       		.uleb128 0x19
 889 00da 11       		.uleb128 0x11
 890 00db 01       		.uleb128 0x1
 891 00dc 12       		.uleb128 0x12
 892 00dd 06       		.uleb128 0x6
 893 00de 40       		.uleb128 0x40
 894 00df 18       		.uleb128 0x18
 895 00e0 9742     		.uleb128 0x2117
 896 00e2 19       		.uleb128 0x19
 897 00e3 01       		.uleb128 0x1
 898 00e4 13       		.uleb128 0x13
 899 00e5 00       		.byte	0
 900 00e6 00       		.byte	0
 901 00e7 11       		.uleb128 0x11
 902 00e8 898201   		.uleb128 0x4109
 903 00eb 00       		.byte	0
 904 00ec 11       		.uleb128 0x11
 905 00ed 01       		.uleb128 0x1
 906 00ee 31       		.uleb128 0x31
 907 00ef 13       		.uleb128 0x13
 908 00f0 00       		.byte	0
 909 00f1 00       		.byte	0
 910 00f2 12       		.uleb128 0x12
 911 00f3 898201   		.uleb128 0x4109
 912 00f6 00       		.byte	0
ARM GAS  /var/folders/6q/x_mk5n_j3p7_c40r_2k_78980000gn/T//ccDxIdbz.s 			page 17


 913 00f7 11       		.uleb128 0x11
 914 00f8 01       		.uleb128 0x1
 915 00f9 9542     		.uleb128 0x2115
 916 00fb 19       		.uleb128 0x19
 917 00fc 31       		.uleb128 0x31
 918 00fd 13       		.uleb128 0x13
 919 00fe 00       		.byte	0
 920 00ff 00       		.byte	0
 921 0100 13       		.uleb128 0x13
 922 0101 2E       		.uleb128 0x2e
 923 0102 01       		.byte	0x1
 924 0103 31       		.uleb128 0x31
 925 0104 13       		.uleb128 0x13
 926 0105 11       		.uleb128 0x11
 927 0106 01       		.uleb128 0x1
 928 0107 12       		.uleb128 0x12
 929 0108 06       		.uleb128 0x6
 930 0109 40       		.uleb128 0x40
 931 010a 18       		.uleb128 0x18
 932 010b 9742     		.uleb128 0x2117
 933 010d 19       		.uleb128 0x19
 934 010e 01       		.uleb128 0x1
 935 010f 13       		.uleb128 0x13
 936 0110 00       		.byte	0
 937 0111 00       		.byte	0
 938 0112 14       		.uleb128 0x14
 939 0113 05       		.uleb128 0x5
 940 0114 00       		.byte	0
 941 0115 31       		.uleb128 0x31
 942 0116 13       		.uleb128 0x13
 943 0117 02       		.uleb128 0x2
 944 0118 17       		.uleb128 0x17
 945 0119 00       		.byte	0
 946 011a 00       		.byte	0
 947 011b 15       		.uleb128 0x15
 948 011c 05       		.uleb128 0x5
 949 011d 00       		.byte	0
 950 011e 31       		.uleb128 0x31
 951 011f 13       		.uleb128 0x13
 952 0120 02       		.uleb128 0x2
 953 0121 18       		.uleb128 0x18
 954 0122 00       		.byte	0
 955 0123 00       		.byte	0
 956 0124 16       		.uleb128 0x16
 957 0125 34       		.uleb128 0x34
 958 0126 00       		.byte	0
 959 0127 31       		.uleb128 0x31
 960 0128 13       		.uleb128 0x13
 961 0129 02       		.uleb128 0x2
 962 012a 18       		.uleb128 0x18
 963 012b 00       		.byte	0
 964 012c 00       		.byte	0
 965 012d 17       		.uleb128 0x17
 966 012e 05       		.uleb128 0x5
 967 012f 00       		.byte	0
 968 0130 03       		.uleb128 0x3
 969 0131 0E       		.uleb128 0xe
ARM GAS  /var/folders/6q/x_mk5n_j3p7_c40r_2k_78980000gn/T//ccDxIdbz.s 			page 18


 970 0132 3A       		.uleb128 0x3a
 971 0133 0B       		.uleb128 0xb
 972 0134 3B       		.uleb128 0x3b
 973 0135 0B       		.uleb128 0xb
 974 0136 49       		.uleb128 0x49
 975 0137 13       		.uleb128 0x13
 976 0138 02       		.uleb128 0x2
 977 0139 17       		.uleb128 0x17
 978 013a 00       		.byte	0
 979 013b 00       		.byte	0
 980 013c 18       		.uleb128 0x18
 981 013d 34       		.uleb128 0x34
 982 013e 00       		.byte	0
 983 013f 03       		.uleb128 0x3
 984 0140 0E       		.uleb128 0xe
 985 0141 3A       		.uleb128 0x3a
 986 0142 0B       		.uleb128 0xb
 987 0143 3B       		.uleb128 0x3b
 988 0144 0B       		.uleb128 0xb
 989 0145 49       		.uleb128 0x49
 990 0146 13       		.uleb128 0x13
 991 0147 02       		.uleb128 0x2
 992 0148 18       		.uleb128 0x18
 993 0149 00       		.byte	0
 994 014a 00       		.byte	0
 995 014b 19       		.uleb128 0x19
 996 014c 1D       		.uleb128 0x1d
 997 014d 01       		.byte	0x1
 998 014e 31       		.uleb128 0x31
 999 014f 13       		.uleb128 0x13
 1000 0150 52       		.uleb128 0x52
 1001 0151 01       		.uleb128 0x1
 1002 0152 55       		.uleb128 0x55
 1003 0153 17       		.uleb128 0x17
 1004 0154 58       		.uleb128 0x58
 1005 0155 0B       		.uleb128 0xb
 1006 0156 59       		.uleb128 0x59
 1007 0157 0B       		.uleb128 0xb
 1008 0158 00       		.byte	0
 1009 0159 00       		.byte	0
 1010 015a 1A       		.uleb128 0x1a
 1011 015b 0B       		.uleb128 0xb
 1012 015c 01       		.byte	0x1
 1013 015d 55       		.uleb128 0x55
 1014 015e 17       		.uleb128 0x17
 1015 015f 00       		.byte	0
 1016 0160 00       		.byte	0
 1017 0161 1B       		.uleb128 0x1b
 1018 0162 34       		.uleb128 0x34
 1019 0163 00       		.byte	0
 1020 0164 31       		.uleb128 0x31
 1021 0165 13       		.uleb128 0x13
 1022 0166 02       		.uleb128 0x2
 1023 0167 17       		.uleb128 0x17
 1024 0168 00       		.byte	0
 1025 0169 00       		.byte	0
 1026 016a 1C       		.uleb128 0x1c
ARM GAS  /var/folders/6q/x_mk5n_j3p7_c40r_2k_78980000gn/T//ccDxIdbz.s 			page 19


 1027 016b 34       		.uleb128 0x34
 1028 016c 00       		.byte	0
 1029 016d 03       		.uleb128 0x3
 1030 016e 0E       		.uleb128 0xe
 1031 016f 3A       		.uleb128 0x3a
 1032 0170 0B       		.uleb128 0xb
 1033 0171 3B       		.uleb128 0x3b
 1034 0172 05       		.uleb128 0x5
 1035 0173 49       		.uleb128 0x49
 1036 0174 13       		.uleb128 0x13
 1037 0175 3F       		.uleb128 0x3f
 1038 0176 19       		.uleb128 0x19
 1039 0177 3C       		.uleb128 0x3c
 1040 0178 19       		.uleb128 0x19
 1041 0179 00       		.byte	0
 1042 017a 00       		.byte	0
 1043 017b 1D       		.uleb128 0x1d
 1044 017c 26       		.uleb128 0x26
 1045 017d 00       		.byte	0
 1046 017e 49       		.uleb128 0x49
 1047 017f 13       		.uleb128 0x13
 1048 0180 00       		.byte	0
 1049 0181 00       		.byte	0
 1050 0182 1E       		.uleb128 0x1e
 1051 0183 2E       		.uleb128 0x2e
 1052 0184 00       		.byte	0
 1053 0185 3F       		.uleb128 0x3f
 1054 0186 19       		.uleb128 0x19
 1055 0187 3C       		.uleb128 0x3c
 1056 0188 19       		.uleb128 0x19
 1057 0189 6E       		.uleb128 0x6e
 1058 018a 0E       		.uleb128 0xe
 1059 018b 03       		.uleb128 0x3
 1060 018c 0E       		.uleb128 0xe
 1061 018d 3A       		.uleb128 0x3a
 1062 018e 0B       		.uleb128 0xb
 1063 018f 3B       		.uleb128 0x3b
 1064 0190 0B       		.uleb128 0xb
 1065 0191 00       		.byte	0
 1066 0192 00       		.byte	0
 1067 0193 1F       		.uleb128 0x1f
 1068 0194 2E       		.uleb128 0x2e
 1069 0195 00       		.byte	0
 1070 0196 3F       		.uleb128 0x3f
 1071 0197 19       		.uleb128 0x19
 1072 0198 3C       		.uleb128 0x3c
 1073 0199 19       		.uleb128 0x19
 1074 019a 6E       		.uleb128 0x6e
 1075 019b 0E       		.uleb128 0xe
 1076 019c 03       		.uleb128 0x3
 1077 019d 0E       		.uleb128 0xe
 1078 019e 3A       		.uleb128 0x3a
 1079 019f 0B       		.uleb128 0xb
 1080 01a0 3B       		.uleb128 0x3b
 1081 01a1 05       		.uleb128 0x5
 1082 01a2 00       		.byte	0
 1083 01a3 00       		.byte	0
ARM GAS  /var/folders/6q/x_mk5n_j3p7_c40r_2k_78980000gn/T//ccDxIdbz.s 			page 20


 1084 01a4 00       		.byte	0
 1085              		.section	.debug_loc,"",%progbits
 1086              	.Ldebug_loc0:
 1087              	.LLST0:
 1088 0000 00000000 		.4byte	.LVL10
 1089 0004 12000000 		.4byte	.LVL12
 1090 0008 0100     		.2byte	0x1
 1091 000a 50       		.byte	0x50
 1092 000b 12000000 		.4byte	.LVL12
 1093 000f 16000000 		.4byte	.LVL13
 1094 0013 0400     		.2byte	0x4
 1095 0015 F3       		.byte	0xf3
 1096 0016 01       		.uleb128 0x1
 1097 0017 50       		.byte	0x50
 1098 0018 9F       		.byte	0x9f
 1099 0019 16000000 		.4byte	.LVL13
 1100 001d 1C000000 		.4byte	.LVL14
 1101 0021 0100     		.2byte	0x1
 1102 0023 50       		.byte	0x50
 1103 0024 1C000000 		.4byte	.LVL14
 1104 0028 1E000000 		.4byte	.LVL15
 1105 002c 0400     		.2byte	0x4
 1106 002e F3       		.byte	0xf3
 1107 002f 01       		.uleb128 0x1
 1108 0030 50       		.byte	0x50
 1109 0031 9F       		.byte	0x9f
 1110 0032 1E000000 		.4byte	.LVL15
 1111 0036 20000000 		.4byte	.LVL16
 1112 003a 0100     		.2byte	0x1
 1113 003c 50       		.byte	0x50
 1114 003d 20000000 		.4byte	.LVL16
 1115 0041 28000000 		.4byte	.LFE64
 1116 0045 0400     		.2byte	0x4
 1117 0047 F3       		.byte	0xf3
 1118 0048 01       		.uleb128 0x1
 1119 0049 50       		.byte	0x50
 1120 004a 9F       		.byte	0x9f
 1121 004b 00000000 		.4byte	0
 1122 004f 00000000 		.4byte	0
 1123              	.LLST1:
 1124 0053 00000000 		.4byte	.LVL17
 1125 0057 08000000 		.4byte	.LVL19
 1126 005b 0100     		.2byte	0x1
 1127 005d 50       		.byte	0x50
 1128 005e 08000000 		.4byte	.LVL19
 1129 0062 28000000 		.4byte	.LFE65
 1130 0066 0400     		.2byte	0x4
 1131 0068 F3       		.byte	0xf3
 1132 0069 01       		.uleb128 0x1
 1133 006a 50       		.byte	0x50
 1134 006b 9F       		.byte	0x9f
 1135 006c 00000000 		.4byte	0
 1136 0070 00000000 		.4byte	0
 1137              	.LLST2:
 1138 0074 08000000 		.4byte	.LVL19
 1139 0078 12000000 		.4byte	.LVL21
 1140 007c 0100     		.2byte	0x1
ARM GAS  /var/folders/6q/x_mk5n_j3p7_c40r_2k_78980000gn/T//ccDxIdbz.s 			page 21


 1141 007e 50       		.byte	0x50
 1142 007f 1E000000 		.4byte	.LVL23
 1143 0083 28000000 		.4byte	.LFE65
 1144 0087 0100     		.2byte	0x1
 1145 0089 50       		.byte	0x50
 1146 008a 00000000 		.4byte	0
 1147 008e 00000000 		.4byte	0
 1148              	.LLST3:
 1149 0092 08000000 		.4byte	.LVL19
 1150 0096 12000000 		.4byte	.LVL21
 1151 009a 0100     		.2byte	0x1
 1152 009c 52       		.byte	0x52
 1153 009d 1E000000 		.4byte	.LVL23
 1154 00a1 28000000 		.4byte	.LFE65
 1155 00a5 0100     		.2byte	0x1
 1156 00a7 52       		.byte	0x52
 1157 00a8 00000000 		.4byte	0
 1158 00ac 00000000 		.4byte	0
 1159              	.LLST4:
 1160 00b0 0C000000 		.4byte	.LVL20
 1161 00b4 12000000 		.4byte	.LVL21
 1162 00b8 0100     		.2byte	0x1
 1163 00ba 53       		.byte	0x53
 1164 00bb 1E000000 		.4byte	.LVL23
 1165 00bf 28000000 		.4byte	.LFE65
 1166 00c3 0100     		.2byte	0x1
 1167 00c5 53       		.byte	0x53
 1168 00c6 00000000 		.4byte	0
 1169 00ca 00000000 		.4byte	0
 1170              		.section	.debug_aranges,"",%progbits
 1171 0000 2C000000 		.4byte	0x2c
 1172 0004 0200     		.2byte	0x2
 1173 0006 00000000 		.4byte	.Ldebug_info0
 1174 000a 04       		.byte	0x4
 1175 000b 00       		.byte	0
 1176 000c 0000     		.2byte	0
 1177 000e 0000     		.2byte	0
 1178 0010 00000000 		.4byte	.LFB63
 1179 0014 34000000 		.4byte	.LFE63-.LFB63
 1180 0018 00000000 		.4byte	.LFB64
 1181 001c 28000000 		.4byte	.LFE64-.LFB64
 1182 0020 00000000 		.4byte	.LFB65
 1183 0024 28000000 		.4byte	.LFE65-.LFB65
 1184 0028 00000000 		.4byte	0
 1185 002c 00000000 		.4byte	0
 1186              		.section	.debug_ranges,"",%progbits
 1187              	.Ldebug_ranges0:
 1188 0000 02000000 		.4byte	.LBB4
 1189 0004 04000000 		.4byte	.LBE4
 1190 0008 08000000 		.4byte	.LBB8
 1191 000c 18000000 		.4byte	.LBE8
 1192 0010 1E000000 		.4byte	.LBB9
 1193 0014 28000000 		.4byte	.LBE9
 1194 0018 00000000 		.4byte	0
 1195 001c 00000000 		.4byte	0
 1196 0020 00000000 		.4byte	.LFB63
 1197 0024 34000000 		.4byte	.LFE63
ARM GAS  /var/folders/6q/x_mk5n_j3p7_c40r_2k_78980000gn/T//ccDxIdbz.s 			page 22


 1198 0028 00000000 		.4byte	.LFB64
 1199 002c 28000000 		.4byte	.LFE64
 1200 0030 00000000 		.4byte	.LFB65
 1201 0034 28000000 		.4byte	.LFE65
 1202 0038 00000000 		.4byte	0
 1203 003c 00000000 		.4byte	0
 1204              		.section	.debug_line,"",%progbits
 1205              	.Ldebug_line0:
 1206 0000 08030000 		.section	.debug_str,"MS",%progbits,1
 1206      02009302 
 1206      00000201 
 1206      FB0E0D00 
 1206      01010101 
 1207              	.LASF58:
 1208 0000 7469636B 		.ascii	"ticks\000"
 1208      7300
 1209              	.LASF50:
 1210 0006 69326349 		.ascii	"i2cInit\000"
 1210      6E697400 
 1211              	.LASF46:
 1212 000e 5F70616C 		.ascii	"_pal_lld_init\000"
 1212      5F6C6C64 
 1212      5F696E69 
 1212      7400
 1213              	.LASF43:
 1214 001c 70616C5F 		.ascii	"pal_default_config\000"
 1214      64656661 
 1214      756C745F 
 1214      636F6E66 
 1214      696700
 1215              	.LASF5:
 1216 002f 73686F72 		.ascii	"short int\000"
 1216      7420696E 
 1216      7400
 1217              	.LASF17:
 1218 0039 73697A65 		.ascii	"sizetype\000"
 1218      74797065 
 1218      00
 1219              	.LASF35:
 1220 0042 50464461 		.ascii	"PFData\000"
 1220      746100
 1221              	.LASF25:
 1222 0049 50435352 		.ascii	"PCSR\000"
 1222      00
 1223              	.LASF24:
 1224 004e 464F4C44 		.ascii	"FOLDCNT\000"
 1224      434E5400 
 1225              	.LASF52:
 1226 0056 73706949 		.ascii	"spiInit\000"
 1226      6E697400 
 1227              	.LASF9:
 1228 005e 5F5F7569 		.ascii	"__uint32_t\000"
 1228      6E743332 
 1228      5F7400
 1229              	.LASF54:
 1230 0069 474E5520 		.ascii	"GNU C11 5.4.1 20160919 (release) [ARM/embedded-5-br"
 1230      43313120 
ARM GAS  /var/folders/6q/x_mk5n_j3p7_c40r_2k_78980000gn/T//ccDxIdbz.s 			page 23


 1230      352E342E 
 1230      31203230 
 1230      31363039 
 1231 009c 616E6368 		.ascii	"anch revision 240496] -mcpu=cortex-m3 -mno-thumb-in"
 1231      20726576 
 1231      6973696F 
 1231      6E203234 
 1231      30343936 
 1232 00cf 74657277 		.ascii	"terwork -mthumb -ggdb -O2 -fomit-frame-pointer -fal"
 1232      6F726B20 
 1232      2D6D7468 
 1232      756D6220 
 1232      2D676764 
 1233 0102 69676E2D 		.ascii	"ign-functions=16 -ffunction-sections -fdata-section"
 1233      66756E63 
 1233      74696F6E 
 1233      733D3136 
 1233      202D6666 
 1234 0135 73202D66 		.ascii	"s -fno-common\000"
 1234      6E6F2D63 
 1234      6F6D6D6F 
 1234      6E00
 1235              	.LASF56:
 1236 0143 2F557365 		.ascii	"/Users/Luca/src/vexilla/src/teamA\000"
 1236      72732F4C 
 1236      7563612F 
 1236      7372632F 
 1236      76657869 
 1237              	.LASF51:
 1238 0165 7364496E 		.ascii	"sdInit\000"
 1238      697400
 1239              	.LASF16:
 1240 016c 494F5245 		.ascii	"IOREG32\000"
 1240      47333200 
 1241              	.LASF30:
 1242 0174 50414461 		.ascii	"PAData\000"
 1242      746100
 1243              	.LASF1:
 1244 017b 6C6F6E67 		.ascii	"long long int\000"
 1244      206C6F6E 
 1244      6720696E 
 1244      7400
 1245              	.LASF39:
 1246 0189 68616C49 		.ascii	"halInit\000"
 1246      6E697400 
 1247              	.LASF19:
 1248 0191 43594343 		.ascii	"CYCCNT\000"
 1248      4E5400
 1249              	.LASF55:
 1250 0198 2E2E2F43 		.ascii	"../ChibiOS/os/hal/src/hal.c\000"
 1250      68696269 
 1250      4F532F6F 
 1250      732F6861 
 1250      6C2F7372 
 1251              	.LASF7:
 1252 01b4 6C6F6E67 		.ascii	"long int\000"
 1252      20696E74 
ARM GAS  /var/folders/6q/x_mk5n_j3p7_c40r_2k_78980000gn/T//ccDxIdbz.s 			page 24


 1252      00
 1253              	.LASF33:
 1254 01bd 50444461 		.ascii	"PDData\000"
 1254      746100
 1255              	.LASF40:
 1256 01c4 68616C50 		.ascii	"halPolledDelay\000"
 1256      6F6C6C65 
 1256      6444656C 
 1256      617900
 1257              	.LASF53:
 1258 01d3 626F6172 		.ascii	"boardInit\000"
 1258      64496E69 
 1258      7400
 1259              	.LASF36:
 1260 01dd 50474461 		.ascii	"PGData\000"
 1260      746100
 1261              	.LASF48:
 1262 01e4 65787449 		.ascii	"extInit\000"
 1262      6E697400 
 1263              	.LASF2:
 1264 01ec 6C6F6E67 		.ascii	"long double\000"
 1264      20646F75 
 1264      626C6500 
 1265              	.LASF32:
 1266 01f8 50434461 		.ascii	"PCData\000"
 1266      746100
 1267              	.LASF4:
 1268 01ff 756E7369 		.ascii	"unsigned char\000"
 1268      676E6564 
 1268      20636861 
 1268      7200
 1269              	.LASF49:
 1270 020d 67707449 		.ascii	"gptInit\000"
 1270      6E697400 
 1271              	.LASF18:
 1272 0215 4354524C 		.ascii	"CTRL\000"
 1272      00
 1273              	.LASF3:
 1274 021a 7369676E 		.ascii	"signed char\000"
 1274      65642063 
 1274      68617200 
 1275              	.LASF11:
 1276 0226 6C6F6E67 		.ascii	"long long unsigned int\000"
 1276      206C6F6E 
 1276      6720756E 
 1276      7369676E 
 1276      65642069 
 1277              	.LASF13:
 1278 023d 75696E74 		.ascii	"uint32_t\000"
 1278      33325F74 
 1278      00
 1279              	.LASF0:
 1280 0246 756E7369 		.ascii	"unsigned int\000"
 1280      676E6564 
 1280      20696E74 
 1280      00
 1281              	.LASF29:
ARM GAS  /var/folders/6q/x_mk5n_j3p7_c40r_2k_78980000gn/T//ccDxIdbz.s 			page 25


 1282 0253 73746D33 		.ascii	"stm32_gpio_setup_t\000"
 1282      325F6770 
 1282      696F5F73 
 1282      65747570 
 1282      5F7400
 1283              	.LASF44:
 1284 0266 68616C5F 		.ascii	"hal_lld_init\000"
 1284      6C6C645F 
 1284      696E6974 
 1284      00
 1285              	.LASF38:
 1286 0273 73746172 		.ascii	"start\000"
 1286      7400
 1287              	.LASF6:
 1288 0279 73686F72 		.ascii	"short unsigned int\000"
 1288      7420756E 
 1288      7369676E 
 1288      65642069 
 1288      6E7400
 1289              	.LASF27:
 1290 028c 63686172 		.ascii	"char\000"
 1290      00
 1291              	.LASF12:
 1292 0291 696E7433 		.ascii	"int32_t\000"
 1292      325F7400 
 1293              	.LASF14:
 1294 0299 626F6F6C 		.ascii	"bool_t\000"
 1294      5F7400
 1295              	.LASF37:
 1296 02a0 50414C43 		.ascii	"PALConfig\000"
 1296      6F6E6669 
 1296      6700
 1297              	.LASF31:
 1298 02aa 50424461 		.ascii	"PBData\000"
 1298      746100
 1299              	.LASF15:
 1300 02b1 5F426F6F 		.ascii	"_Bool\000"
 1300      6C00
 1301              	.LASF26:
 1302 02b7 434D785F 		.ascii	"CMx_DWT\000"
 1302      44575400 
 1303              	.LASF34:
 1304 02bf 50454461 		.ascii	"PEData\000"
 1304      746100
 1305              	.LASF20:
 1306 02c6 43504943 		.ascii	"CPICNT\000"
 1306      4E5400
 1307              	.LASF10:
 1308 02cd 6C6F6E67 		.ascii	"long unsigned int\000"
 1308      20756E73 
 1308      69676E65 
 1308      6420696E 
 1308      7400
 1309              	.LASF28:
 1310 02df 68616C72 		.ascii	"halrtcnt_t\000"
 1310      74636E74 
 1310      5F7400
ARM GAS  /var/folders/6q/x_mk5n_j3p7_c40r_2k_78980000gn/T//ccDxIdbz.s 			page 26


 1311              	.LASF22:
 1312 02ea 534C4545 		.ascii	"SLEEPCNT\000"
 1312      50434E54 
 1312      00
 1313              	.LASF8:
 1314 02f3 5F5F696E 		.ascii	"__int32_t\000"
 1314      7433325F 
 1314      7400
 1315              	.LASF23:
 1316 02fd 4C535543 		.ascii	"LSUCNT\000"
 1316      4E5400
 1317              	.LASF47:
 1318 0304 61646349 		.ascii	"adcInit\000"
 1318      6E697400 
 1319              	.LASF42:
 1320 030c 49544D5F 		.ascii	"ITM_RxBuffer\000"
 1320      52784275 
 1320      66666572 
 1320      00
 1321              	.LASF45:
 1322 0319 746D496E 		.ascii	"tmInit\000"
 1322      697400
 1323              	.LASF57:
 1324 0320 68616C49 		.ascii	"halIsCounterWithin\000"
 1324      73436F75 
 1324      6E746572 
 1324      57697468 
 1324      696E00
 1325              	.LASF21:
 1326 0333 45584343 		.ascii	"EXCCNT\000"
 1326      4E5400
 1327              	.LASF41:
 1328 033a 74696D65 		.ascii	"timeout\000"
 1328      6F757400 
 1329              		.ident	"GCC: (GNU Tools for ARM Embedded Processors) 5.4.1 20160919 (release) [ARM/embedded-5-bran
ARM GAS  /var/folders/6q/x_mk5n_j3p7_c40r_2k_78980000gn/T//ccDxIdbz.s 			page 27


DEFINED SYMBOLS
                            *ABS*:0000000000000000 hal.c
/var/folders/6q/x_mk5n_j3p7_c40r_2k_78980000gn/T//ccDxIdbz.s:20     .text.halInit:0000000000000000 $t
/var/folders/6q/x_mk5n_j3p7_c40r_2k_78980000gn/T//ccDxIdbz.s:26     .text.halInit:0000000000000000 halInit
/var/folders/6q/x_mk5n_j3p7_c40r_2k_78980000gn/T//ccDxIdbz.s:76     .text.halInit:0000000000000030 $d
/var/folders/6q/x_mk5n_j3p7_c40r_2k_78980000gn/T//ccDxIdbz.s:81     .text.halIsCounterWithin:0000000000000000 $t
/var/folders/6q/x_mk5n_j3p7_c40r_2k_78980000gn/T//ccDxIdbz.s:87     .text.halIsCounterWithin:0000000000000000 halIsCounterWithin
/var/folders/6q/x_mk5n_j3p7_c40r_2k_78980000gn/T//ccDxIdbz.s:131    .text.halIsCounterWithin:0000000000000024 $d
/var/folders/6q/x_mk5n_j3p7_c40r_2k_78980000gn/T//ccDxIdbz.s:136    .text.halPolledDelay:0000000000000000 $t
/var/folders/6q/x_mk5n_j3p7_c40r_2k_78980000gn/T//ccDxIdbz.s:142    .text.halPolledDelay:0000000000000000 halPolledDelay
/var/folders/6q/x_mk5n_j3p7_c40r_2k_78980000gn/T//ccDxIdbz.s:202    .text.halPolledDelay:0000000000000024 $d
                     .debug_frame:0000000000000010 $d

UNDEFINED SYMBOLS
hal_lld_init
tmInit
_pal_lld_init
adcInit
extInit
gptInit
i2cInit
sdInit
spiInit
boardInit
pal_default_config
