ARM GAS  /var/folders/6q/x_mk5n_j3p7_c40r_2k_78980000gn/T//ccuumXbR.s 			page 1


   1              		.syntax unified
   2              		.cpu cortex-m3
   3              		.fpu softvfp
   4              		.eabi_attribute 20, 1
   5              		.eabi_attribute 21, 1
   6              		.eabi_attribute 23, 3
   7              		.eabi_attribute 24, 1
   8              		.eabi_attribute 25, 1
   9              		.eabi_attribute 26, 1
  10              		.eabi_attribute 30, 2
  11              		.eabi_attribute 34, 1
  12              		.eabi_attribute 18, 4
  13              		.thumb
  14              		.syntax unified
  15              		.file	"hal_lld.c"
  16              		.text
  17              	.Ltext0:
  18              		.cfi_sections	.debug_frame
  19              		.section	.text.hal_lld_init,"ax",%progbits
  20              		.align	2
  21              		.p2align 4,,15
  22              		.global	hal_lld_init
  23              		.thumb
  24              		.thumb_func
  25              		.type	hal_lld_init, %function
  26              	hal_lld_init:
  27              	.LFB64:
  28              		.file 1 "../ChibiOS/os/hal/platforms/STM32F1xx/hal_lld.c"
  29              		.loc 1 99 0
  30              		.cfi_startproc
  31              		@ args = 0, pretend = 0, frame = 0
  32              		@ frame_needed = 0, uses_anonymous_args = 0
  33              		@ link register save eliminated.
  34              		.loc 1 102 0
  35 0000 154B     		ldr	r3, .L3
  36              		.loc 1 99 0
  37 0002 F0B4     		push	{r4, r5, r6, r7}
  38              		.cfi_def_cfa_offset 16
  39              		.cfi_offset 4, -16
  40              		.cfi_offset 5, -12
  41              		.cfi_offset 6, -8
  42              		.cfi_offset 7, -4
  43              		.loc 1 102 0
  44 0004 0021     		movs	r1, #0
  45              		.loc 1 106 0
  46 0006 154A     		ldr	r2, .L3+4
  47              		.loc 1 102 0
  48 0008 4FF0FF30 		mov	r0, #-1
  49              		.loc 1 106 0
  50 000c 144E     		ldr	r6, .L3+8
  51              		.loc 1 102 0
  52 000e 1C69     		ldr	r4, [r3, #16]
  53              		.loc 1 108 0
  54 0010 0725     		movs	r5, #7
  55              		.loc 1 102 0
  56 0012 1861     		str	r0, [r3, #16]
  57              		.loc 1 113 0
ARM GAS  /var/folders/6q/x_mk5n_j3p7_c40r_2k_78980000gn/T//ccuumXbR.s 			page 2


  58 0014 134C     		ldr	r4, .L3+12
  59              		.loc 1 102 0
  60 0016 1961     		str	r1, [r3, #16]
  61              		.loc 1 103 0
  62 0018 DF68     		ldr	r7, [r3, #12]
  63 001a D860     		str	r0, [r3, #12]
  64 001c D960     		str	r1, [r3, #12]
  65              		.loc 1 106 0
  66 001e 5660     		str	r6, [r2, #4]
  67              		.loc 1 107 0
  68 0020 9160     		str	r1, [r2, #8]
  69              		.loc 1 108 0
  70 0022 1560     		str	r5, [r2]
  71              		.loc 1 113 0
  72 0024 E268     		ldr	r2, [r4, #12]
  73              		.loc 1 114 0
  74 0026 1048     		ldr	r0, .L3+16
  75              		.loc 1 113 0
  76 0028 42F08072 		orr	r2, r2, #16777216
  77 002c E260     		str	r2, [r4, #12]
  78              		.loc 1 114 0
  79 002e 0268     		ldr	r2, [r0]
  80              	.LBB4:
  81              	.LBB5:
  82              		.loc 1 52 0
  83 0030 0E49     		ldr	r1, .L3+20
  84              	.LBE5:
  85              	.LBE4:
  86              		.loc 1 114 0
  87 0032 42F00102 		orr	r2, r2, #1
  88 0036 0260     		str	r2, [r0]
  89              		.loc 1 117 0
  90 0038 DA69     		ldr	r2, [r3, #28]
  91              		.loc 1 131 0
  92 003a F0BC     		pop	{r4, r5, r6, r7}
  93              		.cfi_restore 7
  94              		.cfi_restore 6
  95              		.cfi_restore 5
  96              		.cfi_restore 4
  97              		.cfi_def_cfa_offset 0
  98              		.loc 1 117 0
  99 003c 42F08052 		orr	r2, r2, #268435456
 100 0040 DA61     		str	r2, [r3, #28]
 101              		.loc 1 118 0
 102 0042 DA69     		ldr	r2, [r3, #28]
 103 0044 42F00062 		orr	r2, r2, #134217728
 104 0048 DA61     		str	r2, [r3, #28]
 105              	.LBB7:
 106              	.LBB6:
 107              		.loc 1 52 0
 108 004a 0B68     		ldr	r3, [r1]
 109 004c 43F48073 		orr	r3, r3, #256
 110 0050 0B60     		str	r3, [r1]
 111              	.LBE6:
 112              	.LBE7:
 113              		.loc 1 124 0
 114 0052 FFF7FEBF 		b	dmaInit
ARM GAS  /var/folders/6q/x_mk5n_j3p7_c40r_2k_78980000gn/T//ccuumXbR.s 			page 3


 115              	.LVL0:
 116              	.L4:
 117 0056 00BF     		.align	2
 118              	.L3:
 119 0058 00100240 		.word	1073876992
 120 005c 10E000E0 		.word	-536813552
 121 0060 3F190100 		.word	71999
 122 0064 F0ED00E0 		.word	-536810000
 123 0068 001000E0 		.word	-536866816
 124 006c 00700040 		.word	1073770496
 125              		.cfi_endproc
 126              	.LFE64:
 127              		.size	hal_lld_init, .-hal_lld_init
 128              		.section	.text.stm32_clock_init,"ax",%progbits
 129              		.align	2
 130              		.p2align 4,,15
 131              		.global	stm32_clock_init
 132              		.thumb
 133              		.thumb_func
 134              		.type	stm32_clock_init, %function
 135              	stm32_clock_init:
 136              	.LFB65:
 137              		.loc 1 147 0
 138              		.cfi_startproc
 139              		@ args = 0, pretend = 0, frame = 0
 140              		@ frame_needed = 0, uses_anonymous_args = 0
 141              		@ link register save eliminated.
 142              		.loc 1 152 0
 143 0000 1E4B     		ldr	r3, .L21
 144              		.loc 1 153 0
 145 0002 1946     		mov	r1, r3
 146              		.loc 1 152 0
 147 0004 1A68     		ldr	r2, [r3]
 148 0006 42F00102 		orr	r2, r2, #1
 149 000a 1A60     		str	r2, [r3]
 150              	.L6:
 151              		.loc 1 153 0 discriminator 1
 152 000c 0B68     		ldr	r3, [r1]
 153 000e 1B4A     		ldr	r2, .L21
 154 0010 9B07     		lsls	r3, r3, #30
 155 0012 FBD5     		bpl	.L6
 156              		.loc 1 157 0
 157 0014 1146     		mov	r1, r2
 158              		.loc 1 155 0
 159 0016 1368     		ldr	r3, [r2]
 160              		.loc 1 156 0
 161 0018 0020     		movs	r0, #0
 162              		.loc 1 155 0
 163 001a 03F0F903 		and	r3, r3, #249
 164 001e 1360     		str	r3, [r2]
 165              		.loc 1 156 0
 166 0020 5060     		str	r0, [r2, #4]
 167              	.L7:
 168              		.loc 1 157 0 discriminator 1
 169 0022 4B68     		ldr	r3, [r1, #4]
 170 0024 154A     		ldr	r2, .L21
 171 0026 13F00C0F 		tst	r3, #12
ARM GAS  /var/folders/6q/x_mk5n_j3p7_c40r_2k_78980000gn/T//ccuumXbR.s 			page 4


 172 002a FAD1     		bne	.L7
 173              		.loc 1 167 0
 174 002c 1146     		mov	r1, r2
 175              		.loc 1 166 0
 176 002e 1368     		ldr	r3, [r2]
 177 0030 43F48033 		orr	r3, r3, #65536
 178 0034 1360     		str	r3, [r2]
 179              	.L8:
 180              		.loc 1 167 0 discriminator 1
 181 0036 0B68     		ldr	r3, [r1]
 182 0038 104A     		ldr	r2, .L21
 183 003a 9803     		lsls	r0, r3, #14
 184 003c FBD5     		bpl	.L8
 185              		.loc 1 182 0
 186 003e 1146     		mov	r1, r2
 187              		.loc 1 180 0
 188 0040 5368     		ldr	r3, [r2, #4]
 189 0042 43F4E813 		orr	r3, r3, #1900544
 190 0046 5360     		str	r3, [r2, #4]
 191              		.loc 1 181 0
 192 0048 1368     		ldr	r3, [r2]
 193 004a 43F08073 		orr	r3, r3, #16777216
 194 004e 1360     		str	r3, [r2]
 195              	.L9:
 196              		.loc 1 182 0 discriminator 1
 197 0050 0B68     		ldr	r3, [r1]
 198 0052 0A4A     		ldr	r2, .L21
 199 0054 9B01     		lsls	r3, r3, #6
 200 0056 FBD5     		bpl	.L9
 201              		.loc 1 204 0
 202 0058 1146     		mov	r1, r2
 203              		.loc 1 147 0
 204 005a 10B4     		push	{r4}
 205              		.cfi_def_cfa_offset 4
 206              		.cfi_offset 4, -4
 207              		.loc 1 198 0
 208 005c 084B     		ldr	r3, .L21+4
 209              		.loc 1 188 0
 210 005e 094C     		ldr	r4, .L21+8
 211              		.loc 1 198 0
 212 0060 1220     		movs	r0, #18
 213              		.loc 1 188 0
 214 0062 5460     		str	r4, [r2, #4]
 215              		.loc 1 198 0
 216 0064 1860     		str	r0, [r3]
 217              		.loc 1 203 0
 218 0066 5368     		ldr	r3, [r2, #4]
 219 0068 43F00203 		orr	r3, r3, #2
 220 006c 5360     		str	r3, [r2, #4]
 221              	.L10:
 222              		.loc 1 204 0 discriminator 1
 223 006e 4B68     		ldr	r3, [r1, #4]
 224 0070 03F00C03 		and	r3, r3, #12
 225 0074 082B     		cmp	r3, #8
 226 0076 FAD1     		bne	.L10
 227              		.loc 1 212 0
 228 0078 10BC     		pop	{r4}
ARM GAS  /var/folders/6q/x_mk5n_j3p7_c40r_2k_78980000gn/T//ccuumXbR.s 			page 5


 229              		.cfi_restore 4
 230              		.cfi_def_cfa_offset 0
 231 007a 7047     		bx	lr
 232              	.L22:
 233              		.align	2
 234              	.L21:
 235 007c 00100240 		.word	1073876992
 236 0080 00200240 		.word	1073881088
 237 0084 00C41D00 		.word	1950720
 238              		.cfi_endproc
 239              	.LFE65:
 240              		.size	stm32_clock_init, .-stm32_clock_init
 241              		.text
 242              	.Letext0:
 243              		.file 2 "/Users/Luca/src/vexilla/src/gcc-arm-none-eabi-5_4-2016q3/arm-none-eabi/include/machine/_d
 244              		.file 3 "/Users/Luca/src/vexilla/src/gcc-arm-none-eabi-5_4-2016q3/arm-none-eabi/include/sys/_stdin
 245              		.file 4 "../ChibiOS/os/ports/common/ARMCMx/nvic.h"
 246              		.file 5 "../ChibiOS/os/ports/common/ARMCMx/CMSIS/include/core_cm3.h"
 247              		.file 6 "../ChibiOS/os/hal/platforms/STM32F1xx/stm32f10x.h"
 248              		.file 7 "../ChibiOS/os/hal/platforms/STM32F1xx/stm32_dma.h"