ARM GAS  /var/folders/6q/x_mk5n_j3p7_c40r_2k_78980000gn/T//ccuumXbR.s 			page 1


   1              		.syntax unified
   2              		.cpu cortex-m3
   3              		.fpu softvfp
   4              		.eabi_attribute 20, 1
   5              		.eabi_attribute 21, 1
   6              		.eabi_attribute 23, 3
   7              		.eabi_attribute 24, 1
   8              		.eabi_attribute 25, 1
   9              		.eabi_attribute 26, 1
  10              		.eabi_attribute 30, 2
  11              		.eabi_attribute 34, 1
  12              		.eabi_attribute 18, 4
  13              		.thumb
  14              		.syntax unified
  15              		.file	"hal_lld.c"
  16              		.text
  17              	.Ltext0:
  18              		.cfi_sections	.debug_frame
  19              		.section	.text.hal_lld_init,"ax",%progbits
  20              		.align	2
  21              		.p2align 4,,15
  22              		.global	hal_lld_init
  23              		.thumb
  24              		.thumb_func
  25              		.type	hal_lld_init, %function
  26              	hal_lld_init:
  27              	.LFB64:
  28              		.file 1 "../ChibiOS/os/hal/platforms/STM32F1xx/hal_lld.c"
  29              		.loc 1 99 0
  30              		.cfi_startproc
  31              		@ args = 0, pretend = 0, frame = 0
  32              		@ frame_needed = 0, uses_anonymous_args = 0
  33              		@ link register save eliminated.
  34              		.loc 1 102 0
  35 0000 154B     		ldr	r3, .L3
  36              		.loc 1 99 0
  37 0002 F0B4     		push	{r4, r5, r6, r7}
  38              		.cfi_def_cfa_offset 16
  39              		.cfi_offset 4, -16
  40              		.cfi_offset 5, -12
  41              		.cfi_offset 6, -8
  42              		.cfi_offset 7, -4
  43              		.loc 1 102 0
  44 0004 0021     		movs	r1, #0
  45              		.loc 1 106 0
  46 0006 154A     		ldr	r2, .L3+4
  47              		.loc 1 102 0
  48 0008 4FF0FF30 		mov	r0, #-1
  49              		.loc 1 106 0
  50 000c 144E     		ldr	r6, .L3+8
  51              		.loc 1 102 0
  52 000e 1C69     		ldr	r4, [r3, #16]
  53              		.loc 1 108 0
  54 0010 0725     		movs	r5, #7
  55              		.loc 1 102 0
  56 0012 1861     		str	r0, [r3, #16]
  57              		.loc 1 113 0
ARM GAS  /var/folders/6q/x_mk5n_j3p7_c40r_2k_78980000gn/T//ccuumXbR.s 			page 2


  58 0014 134C     		ldr	r4, .L3+12
  59              		.loc 1 102 0
  60 0016 1961     		str	r1, [r3, #16]
  61              		.loc 1 103 0
  62 0018 DF68     		ldr	r7, [r3, #12]
  63 001a D860     		str	r0, [r3, #12]
  64 001c D960     		str	r1, [r3, #12]
  65              		.loc 1 106 0
  66 001e 5660     		str	r6, [r2, #4]
  67              		.loc 1 107 0
  68 0020 9160     		str	r1, [r2, #8]
  69              		.loc 1 108 0
  70 0022 1560     		str	r5, [r2]
  71              		.loc 1 113 0
  72 0024 E268     		ldr	r2, [r4, #12]
  73              		.loc 1 114 0
  74 0026 1048     		ldr	r0, .L3+16
  75              		.loc 1 113 0
  76 0028 42F08072 		orr	r2, r2, #16777216
  77 002c E260     		str	r2, [r4, #12]
  78              		.loc 1 114 0
  79 002e 0268     		ldr	r2, [r0]
  80              	.LBB4:
  81              	.LBB5:
  82              		.loc 1 52 0
  83 0030 0E49     		ldr	r1, .L3+20
  84              	.LBE5:
  85              	.LBE4:
  86              		.loc 1 114 0
  87 0032 42F00102 		orr	r2, r2, #1
  88 0036 0260     		str	r2, [r0]
  89              		.loc 1 117 0
  90 0038 DA69     		ldr	r2, [r3, #28]
  91              		.loc 1 131 0
  92 003a F0BC     		pop	{r4, r5, r6, r7}
  93              		.cfi_restore 7
  94              		.cfi_restore 6
  95              		.cfi_restore 5
  96              		.cfi_restore 4
  97              		.cfi_def_cfa_offset 0
  98              		.loc 1 117 0
  99 003c 42F08052 		orr	r2, r2, #268435456
 100 0040 DA61     		str	r2, [r3, #28]
 101              		.loc 1 118 0
 102 0042 DA69     		ldr	r2, [r3, #28]
 103 0044 42F00062 		orr	r2, r2, #134217728
 104 0048 DA61     		str	r2, [r3, #28]
 105              	.LBB7:
 106              	.LBB6:
 107              		.loc 1 52 0
 108 004a 0B68     		ldr	r3, [r1]
 109 004c 43F48073 		orr	r3, r3, #256
 110 0050 0B60     		str	r3, [r1]
 111              	.LBE6:
 112              	.LBE7:
 113              		.loc 1 124 0
 114 0052 FFF7FEBF 		b	dmaInit
ARM GAS  /var/folders/6q/x_mk5n_j3p7_c40r_2k_78980000gn/T//ccuumXbR.s 			page 3


 115              	.LVL0:
 116              	.L4:
 117 0056 00BF     		.align	2
 118              	.L3:
 119 0058 00100240 		.word	1073876992
 120 005c 10E000E0 		.word	-536813552
 121 0060 3F190100 		.word	71999
 122 0064 F0ED00E0 		.word	-536810000
 123 0068 001000E0 		.word	-536866816
 124 006c 00700040 		.word	1073770496
 125              		.cfi_endproc
 126              	.LFE64:
 127              		.size	hal_lld_init, .-hal_lld_init
 128              		.section	.text.stm32_clock_init,"ax",%progbits
 129              		.align	2
 130              		.p2align 4,,15
 131              		.global	stm32_clock_init
 132              		.thumb
 133              		.thumb_func
 134              		.type	stm32_clock_init, %function
 135              	stm32_clock_init:
 136              	.LFB65:
 137              		.loc 1 147 0
 138              		.cfi_startproc
 139              		@ args = 0, pretend = 0, frame = 0
 140              		@ frame_needed = 0, uses_anonymous_args = 0
 141              		@ link register save eliminated.
 142              		.loc 1 152 0
 143 0000 1E4B     		ldr	r3, .L21
 144              		.loc 1 153 0
 145 0002 1946     		mov	r1, r3
 146              		.loc 1 152 0
 147 0004 1A68     		ldr	r2, [r3]
 148 0006 42F00102 		orr	r2, r2, #1
 149 000a 1A60     		str	r2, [r3]
 150              	.L6:
 151              		.loc 1 153 0 discriminator 1
 152 000c 0B68     		ldr	r3, [r1]
 153 000e 1B4A     		ldr	r2, .L21
 154 0010 9B07     		lsls	r3, r3, #30
 155 0012 FBD5     		bpl	.L6
 156              		.loc 1 157 0
 157 0014 1146     		mov	r1, r2
 158              		.loc 1 155 0
 159 0016 1368     		ldr	r3, [r2]
 160              		.loc 1 156 0
 161 0018 0020     		movs	r0, #0
 162              		.loc 1 155 0
 163 001a 03F0F903 		and	r3, r3, #249
 164 001e 1360     		str	r3, [r2]
 165              		.loc 1 156 0
 166 0020 5060     		str	r0, [r2, #4]
 167              	.L7:
 168              		.loc 1 157 0 discriminator 1
 169 0022 4B68     		ldr	r3, [r1, #4]
 170 0024 154A     		ldr	r2, .L21
 171 0026 13F00C0F 		tst	r3, #12
ARM GAS  /var/folders/6q/x_mk5n_j3p7_c40r_2k_78980000gn/T//ccuumXbR.s 			page 4


 172 002a FAD1     		bne	.L7
 173              		.loc 1 167 0
 174 002c 1146     		mov	r1, r2
 175              		.loc 1 166 0
 176 002e 1368     		ldr	r3, [r2]
 177 0030 43F48033 		orr	r3, r3, #65536
 178 0034 1360     		str	r3, [r2]
 179              	.L8:
 180              		.loc 1 167 0 discriminator 1
 181 0036 0B68     		ldr	r3, [r1]
 182 0038 104A     		ldr	r2, .L21
 183 003a 9803     		lsls	r0, r3, #14
 184 003c FBD5     		bpl	.L8
 185              		.loc 1 182 0
 186 003e 1146     		mov	r1, r2
 187              		.loc 1 180 0
 188 0040 5368     		ldr	r3, [r2, #4]
 189 0042 43F4E813 		orr	r3, r3, #1900544
 190 0046 5360     		str	r3, [r2, #4]
 191              		.loc 1 181 0
 192 0048 1368     		ldr	r3, [r2]
 193 004a 43F08073 		orr	r3, r3, #16777216
 194 004e 1360     		str	r3, [r2]
 195              	.L9:
 196              		.loc 1 182 0 discriminator 1
 197 0050 0B68     		ldr	r3, [r1]
 198 0052 0A4A     		ldr	r2, .L21
 199 0054 9B01     		lsls	r3, r3, #6
 200 0056 FBD5     		bpl	.L9
 201              		.loc 1 204 0
 202 0058 1146     		mov	r1, r2
 203              		.loc 1 147 0
 204 005a 10B4     		push	{r4}
 205              		.cfi_def_cfa_offset 4
 206              		.cfi_offset 4, -4
 207              		.loc 1 198 0
 208 005c 084B     		ldr	r3, .L21+4
 209              		.loc 1 188 0
 210 005e 094C     		ldr	r4, .L21+8
 211              		.loc 1 198 0
 212 0060 1220     		movs	r0, #18
 213              		.loc 1 188 0
 214 0062 5460     		str	r4, [r2, #4]
 215              		.loc 1 198 0
 216 0064 1860     		str	r0, [r3]
 217              		.loc 1 203 0
 218 0066 5368     		ldr	r3, [r2, #4]
 219 0068 43F00203 		orr	r3, r3, #2
 220 006c 5360     		str	r3, [r2, #4]
 221              	.L10:
 222              		.loc 1 204 0 discriminator 1
 223 006e 4B68     		ldr	r3, [r1, #4]
 224 0070 03F00C03 		and	r3, r3, #12
 225 0074 082B     		cmp	r3, #8
 226 0076 FAD1     		bne	.L10
 227              		.loc 1 212 0
 228 0078 10BC     		pop	{r4}
ARM GAS  /var/folders/6q/x_mk5n_j3p7_c40r_2k_78980000gn/T//ccuumXbR.s 			page 5


 229              		.cfi_restore 4
 230              		.cfi_def_cfa_offset 0
 231 007a 7047     		bx	lr
 232              	.L22:
 233              		.align	2
 234              	.L21:
 235 007c 00100240 		.word	1073876992
 236 0080 00200240 		.word	1073881088
 237 0084 00C41D00 		.word	1950720
 238              		.cfi_endproc
 239              	.LFE65:
 240              		.size	stm32_clock_init, .-stm32_clock_init
 241              		.text
 242              	.Letext0:
 243              		.file 2 "/Users/Luca/src/vexilla/src/gcc-arm-none-eabi-5_4-2016q3/arm-none-eabi/include/machine/_d
 244              		.file 3 "/Users/Luca/src/vexilla/src/gcc-arm-none-eabi-5_4-2016q3/arm-none-eabi/include/sys/_stdin
 245              		.file 4 "../ChibiOS/os/ports/common/ARMCMx/nvic.h"
 246              		.file 5 "../ChibiOS/os/ports/common/ARMCMx/CMSIS/include/core_cm3.h"
 247              		.file 6 "../ChibiOS/os/hal/platforms/STM32F1xx/stm32f10x.h"
 248              		.file 7 "../ChibiOS/os/hal/platforms/STM32F1xx/stm32_dma.h"
 249              		.section	.debug_info,"",%progbits
 250              	.Ldebug_info0:
 251 0000 99030000 		.4byte	0x399
 252 0004 0400     		.2byte	0x4
 253 0006 00000000 		.4byte	.Ldebug_abbrev0
 254 000a 04       		.byte	0x4
 255 000b 01       		.uleb128 0x1
 256 000c 6D000000 		.4byte	.LASF51
 257 0010 0C       		.byte	0xc
 258 0011 1B030000 		.4byte	.LASF52
 259 0015 55010000 		.4byte	.LASF53
 260 0019 18000000 		.4byte	.Ldebug_ranges0+0x18
 261 001d 00000000 		.4byte	0
 262 0021 00000000 		.4byte	.Ldebug_line0
 263 0025 02       		.uleb128 0x2
 264 0026 04       		.byte	0x4
 265 0027 05       		.byte	0x5
 266 0028 696E7400 		.ascii	"int\000"
 267 002c 03       		.uleb128 0x3
 268 002d 04       		.byte	0x4
 269 002e 07       		.byte	0x7
 270 002f 2D020000 		.4byte	.LASF0
 271 0033 03       		.uleb128 0x3
 272 0034 08       		.byte	0x8
 273 0035 05       		.byte	0x5
 274 0036 8D010000 		.4byte	.LASF1
 275 003a 03       		.uleb128 0x3
 276 003b 08       		.byte	0x8
 277 003c 04       		.byte	0x4
 278 003d D8010000 		.4byte	.LASF2
 279 0041 03       		.uleb128 0x3
 280 0042 01       		.byte	0x1
 281 0043 06       		.byte	0x6
 282 0044 01020000 		.4byte	.LASF3
 283 0048 03       		.uleb128 0x3
 284 0049 01       		.byte	0x1
 285 004a 08       		.byte	0x8
ARM GAS  /var/folders/6q/x_mk5n_j3p7_c40r_2k_78980000gn/T//ccuumXbR.s 			page 6


 286 004b EB010000 		.4byte	.LASF4
 287 004f 03       		.uleb128 0x3
 288 0050 02       		.byte	0x2
 289 0051 05       		.byte	0x5
 290 0052 0F000000 		.4byte	.LASF5
 291 0056 04       		.uleb128 0x4
 292 0057 53000000 		.4byte	.LASF7
 293 005b 02       		.byte	0x2
 294 005c 2B       		.byte	0x2b
 295 005d 61000000 		.4byte	0x61
 296 0061 03       		.uleb128 0x3
 297 0062 02       		.byte	0x2
 298 0063 07       		.byte	0x7
 299 0064 5D020000 		.4byte	.LASF6
 300 0068 04       		.uleb128 0x4
 301 0069 E1020000 		.4byte	.LASF8
 302 006d 02       		.byte	0x2
 303 006e 3F       		.byte	0x3f
 304 006f 73000000 		.4byte	0x73
 305 0073 03       		.uleb128 0x3
 306 0074 04       		.byte	0x4
 307 0075 05       		.byte	0x5
 308 0076 AE010000 		.4byte	.LASF9
 309 007a 04       		.uleb128 0x4
 310 007b 40000000 		.4byte	.LASF10
 311 007f 02       		.byte	0x2
 312 0080 41       		.byte	0x41
 313 0081 85000000 		.4byte	0x85
 314 0085 03       		.uleb128 0x3
 315 0086 04       		.byte	0x4
 316 0087 07       		.byte	0x7
 317 0088 9A020000 		.4byte	.LASF11
 318 008c 03       		.uleb128 0x3
 319 008d 08       		.byte	0x8
 320 008e 07       		.byte	0x7
 321 008f 0D020000 		.4byte	.LASF12
 322 0093 04       		.uleb128 0x4
 323 0094 3A020000 		.4byte	.LASF13
 324 0098 03       		.byte	0x3
 325 0099 24       		.byte	0x24
 326 009a 56000000 		.4byte	0x56
 327 009e 04       		.uleb128 0x4
 328 009f 7D020000 		.4byte	.LASF14
 329 00a3 03       		.byte	0x3
 330 00a4 2C       		.byte	0x2c
 331 00a5 68000000 		.4byte	0x68
 332 00a9 04       		.uleb128 0x4
 333 00aa 24020000 		.4byte	.LASF15
 334 00ae 03       		.byte	0x3
 335 00af 30       		.byte	0x30
 336 00b0 7A000000 		.4byte	0x7a
 337 00b4 03       		.uleb128 0x3
 338 00b5 01       		.byte	0x1
 339 00b6 02       		.byte	0x2
 340 00b7 85020000 		.4byte	.LASF16
 341 00bb 04       		.uleb128 0x4
 342 00bc 7D010000 		.4byte	.LASF17
ARM GAS  /var/folders/6q/x_mk5n_j3p7_c40r_2k_78980000gn/T//ccuumXbR.s 			page 7


 343 00c0 04       		.byte	0x4
 344 00c1 3A       		.byte	0x3a
 345 00c2 C6000000 		.4byte	0xc6
 346 00c6 05       		.uleb128 0x5
 347 00c7 A9000000 		.4byte	0xa9
 348 00cb 03       		.uleb128 0x3
 349 00cc 04       		.byte	0x4
 350 00cd 07       		.byte	0x7
 351 00ce 19000000 		.4byte	.LASF18
 352 00d2 06       		.uleb128 0x6
 353 00d3 10       		.byte	0x10
 354 00d4 04       		.byte	0x4
 355 00d5 F1       		.byte	0xf1
 356 00d6 0B010000 		.4byte	0x10b
 357 00da 07       		.uleb128 0x7
 358 00db A8010000 		.4byte	.LASF19
 359 00df 04       		.byte	0x4
 360 00e0 F2       		.byte	0xf2
 361 00e1 BB000000 		.4byte	0xbb
 362 00e5 00       		.byte	0
 363 00e6 07       		.uleb128 0x7
 364 00e7 4F010000 		.4byte	.LASF20
 365 00eb 04       		.byte	0x4
 366 00ec F3       		.byte	0xf3
 367 00ed BB000000 		.4byte	0xbb
 368 00f1 04       		.byte	0x4
 369 00f2 07       		.uleb128 0x7
 370 00f3 77010000 		.4byte	.LASF21
 371 00f7 04       		.byte	0x4
 372 00f8 F4       		.byte	0xf4
 373 00f9 BB000000 		.4byte	0xbb
 374 00fd 08       		.byte	0x8
 375 00fe 07       		.uleb128 0x7
 376 00ff 09000000 		.4byte	.LASF22
 377 0103 04       		.byte	0x4
 378 0104 F5       		.byte	0xf5
 379 0105 BB000000 		.4byte	0xbb
 380 0109 0C       		.byte	0xc
 381 010a 00       		.byte	0
 382 010b 04       		.uleb128 0x4
 383 010c 75020000 		.4byte	.LASF23
 384 0110 04       		.byte	0x4
 385 0111 F6       		.byte	0xf6
 386 0112 D2000000 		.4byte	0xd2
 387 0116 08       		.uleb128 0x8
 388 0117 20       		.byte	0x20
 389 0118 04       		.byte	0x4
 390 0119 0601     		.2byte	0x106
 391 011b 88010000 		.4byte	0x188
 392 011f 09       		.uleb128 0x9
 393 0120 5E000000 		.4byte	.LASF24
 394 0124 04       		.byte	0x4
 395 0125 0701     		.2byte	0x107
 396 0127 BB000000 		.4byte	0xbb
 397 012b 00       		.byte	0
 398 012c 09       		.uleb128 0x9
 399 012d 9B010000 		.4byte	.LASF25
ARM GAS  /var/folders/6q/x_mk5n_j3p7_c40r_2k_78980000gn/T//ccuumXbR.s 			page 8


 400 0131 04       		.byte	0x4
 401 0132 0801     		.2byte	0x108
 402 0134 BB000000 		.4byte	0xbb
 403 0138 04       		.byte	0x4
 404 0139 09       		.uleb128 0x9
 405 013a 93020000 		.4byte	.LASF26
 406 013e 04       		.byte	0x4
 407 013f 0901     		.2byte	0x109
 408 0141 BB000000 		.4byte	0xbb
 409 0145 08       		.byte	0x8
 410 0146 09       		.uleb128 0x9
 411 0147 E4010000 		.4byte	.LASF27
 412 014b 04       		.byte	0x4
 413 014c 0A01     		.2byte	0x10a
 414 014e BB000000 		.4byte	0xbb
 415 0152 0C       		.byte	0xc
 416 0153 09       		.uleb128 0x9
 417 0154 C7020000 		.4byte	.LASF28
 418 0158 04       		.byte	0x4
 419 0159 0B01     		.2byte	0x10b
 420 015b BB000000 		.4byte	0xbb
 421 015f 10       		.byte	0x10
 422 0160 09       		.uleb128 0x9
 423 0161 EB020000 		.4byte	.LASF29
 424 0165 04       		.byte	0x4
 425 0166 0C01     		.2byte	0x10c
 426 0168 BB000000 		.4byte	0xbb
 427 016c 14       		.byte	0x14
 428 016d 09       		.uleb128 0x9
 429 016e 2C000000 		.4byte	.LASF30
 430 0172 04       		.byte	0x4
 431 0173 0D01     		.2byte	0x10d
 432 0175 BB000000 		.4byte	0xbb
 433 0179 18       		.byte	0x18
 434 017a 09       		.uleb128 0x9
 435 017b 27000000 		.4byte	.LASF31
 436 017f 04       		.byte	0x4
 437 0180 0E01     		.2byte	0x10e
 438 0182 BB000000 		.4byte	0xbb
 439 0186 1C       		.byte	0x1c
 440 0187 00       		.byte	0
 441 0188 0A       		.uleb128 0xa
 442 0189 4B000000 		.4byte	.LASF32
 443 018d 04       		.byte	0x4
 444 018e 0F01     		.2byte	0x10f
 445 0190 16010000 		.4byte	0x116
 446 0194 03       		.uleb128 0x3
 447 0195 01       		.byte	0x1
 448 0196 08       		.byte	0x8
 449 0197 70020000 		.4byte	.LASF33
 450 019b 0B       		.uleb128 0xb
 451 019c C6000000 		.4byte	0xc6
 452 01a0 08       		.uleb128 0x8
 453 01a1 10       		.byte	0x10
 454 01a2 05       		.byte	0x5
 455 01a3 3F02     		.2byte	0x23f
 456 01a5 DE010000 		.4byte	0x1de
ARM GAS  /var/folders/6q/x_mk5n_j3p7_c40r_2k_78980000gn/T//ccuumXbR.s 			page 9


 457 01a9 09       		.uleb128 0x9
 458 01aa 5E000000 		.4byte	.LASF24
 459 01ae 05       		.byte	0x5
 460 01af 4102     		.2byte	0x241
 461 01b1 C6000000 		.4byte	0xc6
 462 01b5 00       		.byte	0
 463 01b6 09       		.uleb128 0x9
 464 01b7 F2020000 		.4byte	.LASF34
 465 01bb 05       		.byte	0x5
 466 01bc 4202     		.2byte	0x242
 467 01be C6000000 		.4byte	0xc6
 468 01c2 04       		.byte	0x4
 469 01c3 0C       		.uleb128 0xc
 470 01c4 56414C00 		.ascii	"VAL\000"
 471 01c8 05       		.byte	0x5
 472 01c9 4302     		.2byte	0x243
 473 01cb C6000000 		.4byte	0xc6
 474 01cf 08       		.byte	0x8
 475 01d0 09       		.uleb128 0x9
 476 01d1 A2010000 		.4byte	.LASF35
 477 01d5 05       		.byte	0x5
 478 01d6 4402     		.2byte	0x244
 479 01d8 9B010000 		.4byte	0x19b
 480 01dc 0C       		.byte	0xc
 481 01dd 00       		.byte	0
 482 01de 0A       		.uleb128 0xa
 483 01df 50020000 		.4byte	.LASF36
 484 01e3 05       		.byte	0x5
 485 01e4 4502     		.2byte	0x245
 486 01e6 A0010000 		.4byte	0x1a0
 487 01ea 05       		.uleb128 0x5
 488 01eb 9E000000 		.4byte	0x9e
 489 01ef 08       		.uleb128 0x8
 490 01f0 24       		.byte	0x24
 491 01f1 06       		.byte	0x6
 492 01f2 9403     		.2byte	0x394
 493 01f4 6B020000 		.4byte	0x26b
 494 01f8 0C       		.uleb128 0xc
 495 01f9 41435200 		.ascii	"ACR\000"
 496 01fd 06       		.byte	0x6
 497 01fe 9603     		.2byte	0x396
 498 0200 C6000000 		.4byte	0xc6
 499 0204 00       		.byte	0
 500 0205 09       		.uleb128 0x9
 501 0206 63000000 		.4byte	.LASF37
 502 020a 06       		.byte	0x6
 503 020b 9703     		.2byte	0x397
 504 020d C6000000 		.4byte	0xc6
 505 0211 04       		.byte	0x4
 506 0212 09       		.uleb128 0x9
 507 0213 85010000 		.4byte	.LASF38
 508 0217 06       		.byte	0x6
 509 0218 9803     		.2byte	0x398
 510 021a C6000000 		.4byte	0xc6
 511 021e 08       		.byte	0x8
 512 021f 0C       		.uleb128 0xc
 513 0220 535200   		.ascii	"SR\000"
ARM GAS  /var/folders/6q/x_mk5n_j3p7_c40r_2k_78980000gn/T//ccuumXbR.s 			page 10


 514 0223 06       		.byte	0x6
 515 0224 9903     		.2byte	0x399
 516 0226 C6000000 		.4byte	0xc6
 517 022a 0C       		.byte	0xc
 518 022b 0C       		.uleb128 0xc
 519 022c 435200   		.ascii	"CR\000"
 520 022f 06       		.byte	0x6
 521 0230 9A03     		.2byte	0x39a
 522 0232 C6000000 		.4byte	0xc6
 523 0236 10       		.byte	0x10
 524 0237 0C       		.uleb128 0xc
 525 0238 415200   		.ascii	"AR\000"
 526 023b 06       		.byte	0x6
 527 023c 9B03     		.2byte	0x39b
 528 023e C6000000 		.4byte	0xc6
 529 0242 14       		.byte	0x14
 530 0243 09       		.uleb128 0x9
 531 0244 F7020000 		.4byte	.LASF39
 532 0248 06       		.byte	0x6
 533 0249 9C03     		.2byte	0x39c
 534 024b C6000000 		.4byte	0xc6
 535 024f 18       		.byte	0x18
 536 0250 0C       		.uleb128 0xc
 537 0251 4F425200 		.ascii	"OBR\000"
 538 0255 06       		.byte	0x6
 539 0256 9D03     		.2byte	0x39d
 540 0258 C6000000 		.4byte	0xc6
 541 025c 1C       		.byte	0x1c
 542 025d 09       		.uleb128 0x9
 543 025e D3010000 		.4byte	.LASF40
 544 0262 06       		.byte	0x6
 545 0263 9E03     		.2byte	0x39e
 546 0265 C6000000 		.4byte	0xc6
 547 0269 20       		.byte	0x20
 548 026a 00       		.byte	0
 549 026b 0A       		.uleb128 0xa
 550 026c 00030000 		.4byte	.LASF41
 551 0270 06       		.byte	0x6
 552 0271 A703     		.2byte	0x3a7
 553 0273 EF010000 		.4byte	0x1ef
 554 0277 08       		.uleb128 0x8
 555 0278 08       		.byte	0x8
 556 0279 06       		.byte	0x6
 557 027a 3904     		.2byte	0x439
 558 027c 9A020000 		.4byte	0x29a
 559 0280 0C       		.uleb128 0xc
 560 0281 435200   		.ascii	"CR\000"
 561 0284 06       		.byte	0x6
 562 0285 3B04     		.2byte	0x43b
 563 0287 C6000000 		.4byte	0xc6
 564 028b 00       		.byte	0
 565 028c 0C       		.uleb128 0xc
 566 028d 43535200 		.ascii	"CSR\000"
 567 0291 06       		.byte	0x6
 568 0292 3C04     		.2byte	0x43c
 569 0294 C6000000 		.4byte	0xc6
 570 0298 04       		.byte	0x4
ARM GAS  /var/folders/6q/x_mk5n_j3p7_c40r_2k_78980000gn/T//ccuumXbR.s 			page 11


 571 0299 00       		.byte	0
 572 029a 0A       		.uleb128 0xa
 573 029b 34000000 		.4byte	.LASF42
 574 029f 06       		.byte	0x6
 575 02a0 3D04     		.2byte	0x43d
 576 02a2 77020000 		.4byte	0x277
 577 02a6 08       		.uleb128 0x8
 578 02a7 28       		.byte	0x28
 579 02a8 06       		.byte	0x6
 580 02a9 4304     		.2byte	0x443
 581 02ab 31030000 		.4byte	0x331
 582 02af 0C       		.uleb128 0xc
 583 02b0 435200   		.ascii	"CR\000"
 584 02b3 06       		.byte	0x6
 585 02b4 4504     		.2byte	0x445
 586 02b6 C6000000 		.4byte	0xc6
 587 02ba 00       		.byte	0
 588 02bb 09       		.uleb128 0x9
 589 02bc 68000000 		.4byte	.LASF43
 590 02c0 06       		.byte	0x6
 591 02c1 4604     		.2byte	0x446
 592 02c3 C6000000 		.4byte	0xc6
 593 02c7 04       		.byte	0x4
 594 02c8 0C       		.uleb128 0xc
 595 02c9 43495200 		.ascii	"CIR\000"
 596 02cd 06       		.byte	0x6
 597 02ce 4704     		.2byte	0x447
 598 02d0 C6000000 		.4byte	0xc6
 599 02d4 08       		.byte	0x8
 600 02d5 09       		.uleb128 0x9
 601 02d6 CA010000 		.4byte	.LASF44
 602 02da 06       		.byte	0x6
 603 02db 4804     		.2byte	0x448
 604 02dd C6000000 		.4byte	0xc6
 605 02e1 0C       		.byte	0xc
 606 02e2 09       		.uleb128 0x9
 607 02e3 00000000 		.4byte	.LASF45
 608 02e7 06       		.byte	0x6
 609 02e8 4904     		.2byte	0x449
 610 02ea C6000000 		.4byte	0xc6
 611 02ee 10       		.byte	0x10
 612 02ef 09       		.uleb128 0x9
 613 02f0 C3010000 		.4byte	.LASF46
 614 02f4 06       		.byte	0x6
 615 02f5 4A04     		.2byte	0x44a
 616 02f7 C6000000 		.4byte	0xc6
 617 02fb 14       		.byte	0x14
 618 02fc 09       		.uleb128 0x9
 619 02fd F9010000 		.4byte	.LASF47
 620 0301 06       		.byte	0x6
 621 0302 4B04     		.2byte	0x44b
 622 0304 C6000000 		.4byte	0xc6
 623 0308 18       		.byte	0x18
 624 0309 09       		.uleb128 0x9
 625 030a 47010000 		.4byte	.LASF48
 626 030e 06       		.byte	0x6
 627 030f 4C04     		.2byte	0x44c
ARM GAS  /var/folders/6q/x_mk5n_j3p7_c40r_2k_78980000gn/T//ccuumXbR.s 			page 12


 628 0311 C6000000 		.4byte	0xc6
 629 0315 1C       		.byte	0x1c
 630 0316 09       		.uleb128 0x9
 631 0317 22000000 		.4byte	.LASF49
 632 031b 06       		.byte	0x6
 633 031c 4D04     		.2byte	0x44d
 634 031e C6000000 		.4byte	0xc6
 635 0322 20       		.byte	0x20
 636 0323 0C       		.uleb128 0xc
 637 0324 43535200 		.ascii	"CSR\000"
 638 0328 06       		.byte	0x6
 639 0329 4E04     		.2byte	0x44e
 640 032b C6000000 		.4byte	0xc6
 641 032f 24       		.byte	0x24
 642 0330 00       		.byte	0
 643 0331 0A       		.uleb128 0xa
 644 0332 B7010000 		.4byte	.LASF50
 645 0336 06       		.byte	0x6
 646 0337 5904     		.2byte	0x459
 647 0339 A6020000 		.4byte	0x2a6
 648 033d 0D       		.uleb128 0xd
 649 033e AC020000 		.4byte	.LASF54
 650 0342 01       		.byte	0x1
 651 0343 31       		.byte	0x31
 652 0344 01       		.byte	0x1
 653 0345 0E       		.uleb128 0xe
 654 0346 43020000 		.4byte	.LASF55
 655 034a 01       		.byte	0x1
 656 034b 63       		.byte	0x63
 657 034c 00000000 		.4byte	.LFB64
 658 0350 70000000 		.4byte	.LFE64-.LFB64
 659 0354 01       		.uleb128 0x1
 660 0355 9C       		.byte	0x9c
 661 0356 73030000 		.4byte	0x373
 662 035a 0F       		.uleb128 0xf
 663 035b 3D030000 		.4byte	0x33d
 664 035f 30000000 		.4byte	.LBB4
 665 0363 00000000 		.4byte	.Ldebug_ranges0+0
 666 0367 01       		.byte	0x1
 667 0368 79       		.byte	0x79
 668 0369 10       		.uleb128 0x10
 669 036a 56000000 		.4byte	.LVL0
 670 036e 90030000 		.4byte	0x390
 671 0372 00       		.byte	0
 672 0373 11       		.uleb128 0x11
 673 0374 D0020000 		.4byte	.LASF56
 674 0378 01       		.byte	0x1
 675 0379 93       		.byte	0x93
 676 037a 00000000 		.4byte	.LFB65
 677 037e 88000000 		.4byte	.LFE65-.LFB65
 678 0382 01       		.uleb128 0x1
 679 0383 9C       		.byte	0x9c
 680 0384 12       		.uleb128 0x12
 681 0385 0E030000 		.4byte	.LASF57
 682 0389 05       		.byte	0x5
 683 038a 0706     		.2byte	0x607
 684 038c EA010000 		.4byte	0x1ea
ARM GAS  /var/folders/6q/x_mk5n_j3p7_c40r_2k_78980000gn/T//ccuumXbR.s 			page 13


 685 0390 13       		.uleb128 0x13
 686 0391 8B020000 		.4byte	.LASF58
 687 0395 8B020000 		.4byte	.LASF58
 688 0399 07       		.byte	0x7
 689 039a 8A01     		.2byte	0x18a
 690 039c 00       		.byte	0
 691              		.section	.debug_abbrev,"",%progbits
 692              	.Ldebug_abbrev0:
 693 0000 01       		.uleb128 0x1
 694 0001 11       		.uleb128 0x11
 695 0002 01       		.byte	0x1
 696 0003 25       		.uleb128 0x25
 697 0004 0E       		.uleb128 0xe
 698 0005 13       		.uleb128 0x13
 699 0006 0B       		.uleb128 0xb
 700 0007 03       		.uleb128 0x3
 701 0008 0E       		.uleb128 0xe
 702 0009 1B       		.uleb128 0x1b
 703 000a 0E       		.uleb128 0xe
 704 000b 55       		.uleb128 0x55
 705 000c 17       		.uleb128 0x17
 706 000d 11       		.uleb128 0x11
 707 000e 01       		.uleb128 0x1
 708 000f 10       		.uleb128 0x10
 709 0010 17       		.uleb128 0x17
 710 0011 00       		.byte	0
 711 0012 00       		.byte	0
 712 0013 02       		.uleb128 0x2
 713 0014 24       		.uleb128 0x24
 714 0015 00       		.byte	0
 715 0016 0B       		.uleb128 0xb
 716 0017 0B       		.uleb128 0xb
 717 0018 3E       		.uleb128 0x3e
 718 0019 0B       		.uleb128 0xb
 719 001a 03       		.uleb128 0x3
 720 001b 08       		.uleb128 0x8
 721 001c 00       		.byte	0
 722 001d 00       		.byte	0
 723 001e 03       		.uleb128 0x3
 724 001f 24       		.uleb128 0x24
 725 0020 00       		.byte	0
 726 0021 0B       		.uleb128 0xb
 727 0022 0B       		.uleb128 0xb
 728 0023 3E       		.uleb128 0x3e
 729 0024 0B       		.uleb128 0xb
 730 0025 03       		.uleb128 0x3
 731 0026 0E       		.uleb128 0xe
 732 0027 00       		.byte	0
 733 0028 00       		.byte	0
 734 0029 04       		.uleb128 0x4
 735 002a 16       		.uleb128 0x16
 736 002b 00       		.byte	0
 737 002c 03       		.uleb128 0x3
 738 002d 0E       		.uleb128 0xe
 739 002e 3A       		.uleb128 0x3a
 740 002f 0B       		.uleb128 0xb
 741 0030 3B       		.uleb128 0x3b
ARM GAS  /var/folders/6q/x_mk5n_j3p7_c40r_2k_78980000gn/T//ccuumXbR.s 			page 14


 742 0031 0B       		.uleb128 0xb
 743 0032 49       		.uleb128 0x49
 744 0033 13       		.uleb128 0x13
 745 0034 00       		.byte	0
 746 0035 00       		.byte	0
 747 0036 05       		.uleb128 0x5
 748 0037 35       		.uleb128 0x35
 749 0038 00       		.byte	0
 750 0039 49       		.uleb128 0x49
 751 003a 13       		.uleb128 0x13
 752 003b 00       		.byte	0
 753 003c 00       		.byte	0
 754 003d 06       		.uleb128 0x6
 755 003e 13       		.uleb128 0x13
 756 003f 01       		.byte	0x1
 757 0040 0B       		.uleb128 0xb
 758 0041 0B       		.uleb128 0xb
 759 0042 3A       		.uleb128 0x3a
 760 0043 0B       		.uleb128 0xb
 761 0044 3B       		.uleb128 0x3b
 762 0045 0B       		.uleb128 0xb
 763 0046 01       		.uleb128 0x1
 764 0047 13       		.uleb128 0x13
 765 0048 00       		.byte	0
 766 0049 00       		.byte	0
 767 004a 07       		.uleb128 0x7
 768 004b 0D       		.uleb128 0xd
 769 004c 00       		.byte	0
 770 004d 03       		.uleb128 0x3
 771 004e 0E       		.uleb128 0xe
 772 004f 3A       		.uleb128 0x3a
 773 0050 0B       		.uleb128 0xb
 774 0051 3B       		.uleb128 0x3b
 775 0052 0B       		.uleb128 0xb
 776 0053 49       		.uleb128 0x49
 777 0054 13       		.uleb128 0x13
 778 0055 38       		.uleb128 0x38
 779 0056 0B       		.uleb128 0xb
 780 0057 00       		.byte	0
 781 0058 00       		.byte	0
 782 0059 08       		.uleb128 0x8
 783 005a 13       		.uleb128 0x13
 784 005b 01       		.byte	0x1
 785 005c 0B       		.uleb128 0xb
 786 005d 0B       		.uleb128 0xb
 787 005e 3A       		.uleb128 0x3a
 788 005f 0B       		.uleb128 0xb
 789 0060 3B       		.uleb128 0x3b
 790 0061 05       		.uleb128 0x5
 791 0062 01       		.uleb128 0x1
 792 0063 13       		.uleb128 0x13
 793 0064 00       		.byte	0
 794 0065 00       		.byte	0
 795 0066 09       		.uleb128 0x9
 796 0067 0D       		.uleb128 0xd
 797 0068 00       		.byte	0
 798 0069 03       		.uleb128 0x3
ARM GAS  /var/folders/6q/x_mk5n_j3p7_c40r_2k_78980000gn/T//ccuumXbR.s 			page 15


 799 006a 0E       		.uleb128 0xe
 800 006b 3A       		.uleb128 0x3a
 801 006c 0B       		.uleb128 0xb
 802 006d 3B       		.uleb128 0x3b
 803 006e 05       		.uleb128 0x5
 804 006f 49       		.uleb128 0x49
 805 0070 13       		.uleb128 0x13
 806 0071 38       		.uleb128 0x38
 807 0072 0B       		.uleb128 0xb
 808 0073 00       		.byte	0
 809 0074 00       		.byte	0
 810 0075 0A       		.uleb128 0xa
 811 0076 16       		.uleb128 0x16
 812 0077 00       		.byte	0
 813 0078 03       		.uleb128 0x3
 814 0079 0E       		.uleb128 0xe
 815 007a 3A       		.uleb128 0x3a
 816 007b 0B       		.uleb128 0xb
 817 007c 3B       		.uleb128 0x3b
 818 007d 05       		.uleb128 0x5
 819 007e 49       		.uleb128 0x49
 820 007f 13       		.uleb128 0x13
 821 0080 00       		.byte	0
 822 0081 00       		.byte	0
 823 0082 0B       		.uleb128 0xb
 824 0083 26       		.uleb128 0x26
 825 0084 00       		.byte	0
 826 0085 49       		.uleb128 0x49
 827 0086 13       		.uleb128 0x13
 828 0087 00       		.byte	0
 829 0088 00       		.byte	0
 830 0089 0C       		.uleb128 0xc
 831 008a 0D       		.uleb128 0xd
 832 008b 00       		.byte	0
 833 008c 03       		.uleb128 0x3
 834 008d 08       		.uleb128 0x8
 835 008e 3A       		.uleb128 0x3a
 836 008f 0B       		.uleb128 0xb
 837 0090 3B       		.uleb128 0x3b
 838 0091 05       		.uleb128 0x5
 839 0092 49       		.uleb128 0x49
 840 0093 13       		.uleb128 0x13
 841 0094 38       		.uleb128 0x38
 842 0095 0B       		.uleb128 0xb
 843 0096 00       		.byte	0
 844 0097 00       		.byte	0
 845 0098 0D       		.uleb128 0xd
 846 0099 2E       		.uleb128 0x2e
 847 009a 00       		.byte	0
 848 009b 03       		.uleb128 0x3
 849 009c 0E       		.uleb128 0xe
 850 009d 3A       		.uleb128 0x3a
 851 009e 0B       		.uleb128 0xb
 852 009f 3B       		.uleb128 0x3b
 853 00a0 0B       		.uleb128 0xb
 854 00a1 27       		.uleb128 0x27
 855 00a2 19       		.uleb128 0x19
ARM GAS  /var/folders/6q/x_mk5n_j3p7_c40r_2k_78980000gn/T//ccuumXbR.s 			page 16


 856 00a3 20       		.uleb128 0x20
 857 00a4 0B       		.uleb128 0xb
 858 00a5 00       		.byte	0
 859 00a6 00       		.byte	0
 860 00a7 0E       		.uleb128 0xe
 861 00a8 2E       		.uleb128 0x2e
 862 00a9 01       		.byte	0x1
 863 00aa 3F       		.uleb128 0x3f
 864 00ab 19       		.uleb128 0x19
 865 00ac 03       		.uleb128 0x3
 866 00ad 0E       		.uleb128 0xe
 867 00ae 3A       		.uleb128 0x3a
 868 00af 0B       		.uleb128 0xb
 869 00b0 3B       		.uleb128 0x3b
 870 00b1 0B       		.uleb128 0xb
 871 00b2 27       		.uleb128 0x27
 872 00b3 19       		.uleb128 0x19
 873 00b4 11       		.uleb128 0x11
 874 00b5 01       		.uleb128 0x1
 875 00b6 12       		.uleb128 0x12
 876 00b7 06       		.uleb128 0x6
 877 00b8 40       		.uleb128 0x40
 878 00b9 18       		.uleb128 0x18
 879 00ba 9742     		.uleb128 0x2117
 880 00bc 19       		.uleb128 0x19
 881 00bd 01       		.uleb128 0x1
 882 00be 13       		.uleb128 0x13
 883 00bf 00       		.byte	0
 884 00c0 00       		.byte	0
 885 00c1 0F       		.uleb128 0xf
 886 00c2 1D       		.uleb128 0x1d
 887 00c3 00       		.byte	0
 888 00c4 31       		.uleb128 0x31
 889 00c5 13       		.uleb128 0x13
 890 00c6 52       		.uleb128 0x52
 891 00c7 01       		.uleb128 0x1
 892 00c8 55       		.uleb128 0x55
 893 00c9 17       		.uleb128 0x17
 894 00ca 58       		.uleb128 0x58
 895 00cb 0B       		.uleb128 0xb
 896 00cc 59       		.uleb128 0x59
 897 00cd 0B       		.uleb128 0xb
 898 00ce 00       		.byte	0
 899 00cf 00       		.byte	0
 900 00d0 10       		.uleb128 0x10
 901 00d1 898201   		.uleb128 0x4109
 902 00d4 00       		.byte	0
 903 00d5 11       		.uleb128 0x11
 904 00d6 01       		.uleb128 0x1
 905 00d7 9542     		.uleb128 0x2115
 906 00d9 19       		.uleb128 0x19
 907 00da 31       		.uleb128 0x31
 908 00db 13       		.uleb128 0x13
 909 00dc 00       		.byte	0
 910 00dd 00       		.byte	0
 911 00de 11       		.uleb128 0x11
 912 00df 2E       		.uleb128 0x2e
ARM GAS  /var/folders/6q/x_mk5n_j3p7_c40r_2k_78980000gn/T//ccuumXbR.s 			page 17


 913 00e0 00       		.byte	0
 914 00e1 3F       		.uleb128 0x3f
 915 00e2 19       		.uleb128 0x19
 916 00e3 03       		.uleb128 0x3
 917 00e4 0E       		.uleb128 0xe
 918 00e5 3A       		.uleb128 0x3a
 919 00e6 0B       		.uleb128 0xb
 920 00e7 3B       		.uleb128 0x3b
 921 00e8 0B       		.uleb128 0xb
 922 00e9 27       		.uleb128 0x27
 923 00ea 19       		.uleb128 0x19
 924 00eb 11       		.uleb128 0x11
 925 00ec 01       		.uleb128 0x1
 926 00ed 12       		.uleb128 0x12
 927 00ee 06       		.uleb128 0x6
 928 00ef 40       		.uleb128 0x40
 929 00f0 18       		.uleb128 0x18
 930 00f1 9742     		.uleb128 0x2117
 931 00f3 19       		.uleb128 0x19
 932 00f4 00       		.byte	0
 933 00f5 00       		.byte	0
 934 00f6 12       		.uleb128 0x12
 935 00f7 34       		.uleb128 0x34
 936 00f8 00       		.byte	0
 937 00f9 03       		.uleb128 0x3
 938 00fa 0E       		.uleb128 0xe
 939 00fb 3A       		.uleb128 0x3a
 940 00fc 0B       		.uleb128 0xb
 941 00fd 3B       		.uleb128 0x3b
 942 00fe 05       		.uleb128 0x5
 943 00ff 49       		.uleb128 0x49
 944 0100 13       		.uleb128 0x13
 945 0101 3F       		.uleb128 0x3f
 946 0102 19       		.uleb128 0x19
 947 0103 3C       		.uleb128 0x3c
 948 0104 19       		.uleb128 0x19
 949 0105 00       		.byte	0
 950 0106 00       		.byte	0
 951 0107 13       		.uleb128 0x13
 952 0108 2E       		.uleb128 0x2e
 953 0109 00       		.byte	0
 954 010a 3F       		.uleb128 0x3f
 955 010b 19       		.uleb128 0x19
 956 010c 3C       		.uleb128 0x3c
 957 010d 19       		.uleb128 0x19
 958 010e 6E       		.uleb128 0x6e
 959 010f 0E       		.uleb128 0xe
 960 0110 03       		.uleb128 0x3
 961 0111 0E       		.uleb128 0xe
 962 0112 3A       		.uleb128 0x3a
 963 0113 0B       		.uleb128 0xb
 964 0114 3B       		.uleb128 0x3b
 965 0115 05       		.uleb128 0x5
 966 0116 00       		.byte	0
 967 0117 00       		.byte	0
 968 0118 00       		.byte	0
 969              		.section	.debug_aranges,"",%progbits
ARM GAS  /var/folders/6q/x_mk5n_j3p7_c40r_2k_78980000gn/T//ccuumXbR.s 			page 18


 970 0000 24000000 		.4byte	0x24
 971 0004 0200     		.2byte	0x2
 972 0006 00000000 		.4byte	.Ldebug_info0
 973 000a 04       		.byte	0x4
 974 000b 00       		.byte	0
 975 000c 0000     		.2byte	0
 976 000e 0000     		.2byte	0
 977 0010 00000000 		.4byte	.LFB64
 978 0014 70000000 		.4byte	.LFE64-.LFB64
 979 0018 00000000 		.4byte	.LFB65
 980 001c 88000000 		.4byte	.LFE65-.LFB65
 981 0020 00000000 		.4byte	0
 982 0024 00000000 		.4byte	0
 983              		.section	.debug_ranges,"",%progbits
 984              	.Ldebug_ranges0:
 985 0000 30000000 		.4byte	.LBB4
 986 0004 32000000 		.4byte	.LBE4
 987 0008 4A000000 		.4byte	.LBB7
 988 000c 52000000 		.4byte	.LBE7
 989 0010 00000000 		.4byte	0
 990 0014 00000000 		.4byte	0
 991 0018 00000000 		.4byte	.LFB64
 992 001c 70000000 		.4byte	.LFE64
 993 0020 00000000 		.4byte	.LFB65
 994 0024 88000000 		.4byte	.LFE65
 995 0028 00000000 		.4byte	0
 996 002c 00000000 		.4byte	0
 997              		.section	.debug_line,"",%progbits
 998              	.Ldebug_line0:
 999 0000 2F020000 		.section	.debug_str,"MS",%progbits,1
 999      02009901 
 999      00000201 
 999      FB0E0D00 
 999      01010101 
 1000              	.LASF45:
 1001 0000 41504231 		.ascii	"APB1RSTR\000"
 1001      52535452 
 1001      00
 1002              	.LASF22:
 1003 0009 44454D43 		.ascii	"DEMCR\000"
 1003      5200
 1004              	.LASF5:
 1005 000f 73686F72 		.ascii	"short int\000"
 1005      7420696E 
 1005      7400
 1006              	.LASF18:
 1007 0019 73697A65 		.ascii	"sizetype\000"
 1007      74797065 
 1007      00
 1008              	.LASF49:
 1009 0022 42444352 		.ascii	"BDCR\000"
 1009      00
 1010              	.LASF31:
 1011 0027 50435352 		.ascii	"PCSR\000"
 1011      00
 1012              	.LASF30:
 1013 002c 464F4C44 		.ascii	"FOLDCNT\000"
ARM GAS  /var/folders/6q/x_mk5n_j3p7_c40r_2k_78980000gn/T//ccuumXbR.s 			page 19


 1013      434E5400 
 1014              	.LASF42:
 1015 0034 5057525F 		.ascii	"PWR_TypeDef\000"
 1015      54797065 
 1015      44656600 
 1016              	.LASF10:
 1017 0040 5F5F7569 		.ascii	"__uint32_t\000"
 1017      6E743332 
 1017      5F7400
 1018              	.LASF32:
 1019 004b 434D785F 		.ascii	"CMx_DWT\000"
 1019      44575400 
 1020              	.LASF7:
 1021 0053 5F5F7569 		.ascii	"__uint16_t\000"
 1021      6E743136 
 1021      5F7400
 1022              	.LASF24:
 1023 005e 4354524C 		.ascii	"CTRL\000"
 1023      00
 1024              	.LASF37:
 1025 0063 4B455952 		.ascii	"KEYR\000"
 1025      00
 1026              	.LASF43:
 1027 0068 43464752 		.ascii	"CFGR\000"
 1027      00
 1028              	.LASF51:
 1029 006d 474E5520 		.ascii	"GNU C11 5.4.1 20160919 (release) [ARM/embedded-5-br"
 1029      43313120 
 1029      352E342E 
 1029      31203230 
 1029      31363039 
 1030 00a0 616E6368 		.ascii	"anch revision 240496] -mcpu=cortex-m3 -mno-thumb-in"
 1030      20726576 
 1030      6973696F 
 1030      6E203234 
 1030      30343936 
 1031 00d3 74657277 		.ascii	"terwork -mthumb -ggdb -O2 -fomit-frame-pointer -fal"
 1031      6F726B20 
 1031      2D6D7468 
 1031      756D6220 
 1031      2D676764 
 1032 0106 69676E2D 		.ascii	"ign-functions=16 -ffunction-sections -fdata-section"
 1032      66756E63 
 1032      74696F6E 
 1032      733D3136 
 1032      202D6666 
 1033 0139 73202D66 		.ascii	"s -fno-common\000"
 1033      6E6F2D63 
 1033      6F6D6D6F 
 1033      6E00
 1034              	.LASF48:
 1035 0147 41504231 		.ascii	"APB1ENR\000"
 1035      454E5200 
 1036              	.LASF20:
 1037 014f 44435253 		.ascii	"DCRSR\000"
 1037      5200
 1038              	.LASF53:
ARM GAS  /var/folders/6q/x_mk5n_j3p7_c40r_2k_78980000gn/T//ccuumXbR.s 			page 20


 1039 0155 2F557365 		.ascii	"/Users/Luca/src/vexilla/src/teamA\000"
 1039      72732F4C 
 1039      7563612F 
 1039      7372632F 
 1039      76657869 
 1040              	.LASF21:
 1041 0177 44435244 		.ascii	"DCRDR\000"
 1041      5200
 1042              	.LASF17:
 1043 017d 494F5245 		.ascii	"IOREG32\000"
 1043      47333200 
 1044              	.LASF38:
 1045 0185 4F50544B 		.ascii	"OPTKEYR\000"
 1045      45595200 
 1046              	.LASF1:
 1047 018d 6C6F6E67 		.ascii	"long long int\000"
 1047      206C6F6E 
 1047      6720696E 
 1047      7400
 1048              	.LASF25:
 1049 019b 43594343 		.ascii	"CYCCNT\000"
 1049      4E5400
 1050              	.LASF35:
 1051 01a2 43414C49 		.ascii	"CALIB\000"
 1051      4200
 1052              	.LASF19:
 1053 01a8 44484353 		.ascii	"DHCSR\000"
 1053      5200
 1054              	.LASF9:
 1055 01ae 6C6F6E67 		.ascii	"long int\000"
 1055      20696E74 
 1055      00
 1056              	.LASF50:
 1057 01b7 5243435F 		.ascii	"RCC_TypeDef\000"
 1057      54797065 
 1057      44656600 
 1058              	.LASF46:
 1059 01c3 41484245 		.ascii	"AHBENR\000"
 1059      4E5200
 1060              	.LASF44:
 1061 01ca 41504232 		.ascii	"APB2RSTR\000"
 1061      52535452 
 1061      00
 1062              	.LASF40:
 1063 01d3 57525052 		.ascii	"WRPR\000"
 1063      00
 1064              	.LASF2:
 1065 01d8 6C6F6E67 		.ascii	"long double\000"
 1065      20646F75 
 1065      626C6500 
 1066              	.LASF27:
 1067 01e4 45584343 		.ascii	"EXCCNT\000"
 1067      4E5400
 1068              	.LASF4:
 1069 01eb 756E7369 		.ascii	"unsigned char\000"
 1069      676E6564 
 1069      20636861 
ARM GAS  /var/folders/6q/x_mk5n_j3p7_c40r_2k_78980000gn/T//ccuumXbR.s 			page 21


 1069      7200
 1070              	.LASF47:
 1071 01f9 41504232 		.ascii	"APB2ENR\000"
 1071      454E5200 
 1072              	.LASF3:
 1073 0201 7369676E 		.ascii	"signed char\000"
 1073      65642063 
 1073      68617200 
 1074              	.LASF12:
 1075 020d 6C6F6E67 		.ascii	"long long unsigned int\000"
 1075      206C6F6E 
 1075      6720756E 
 1075      7369676E 
 1075      65642069 
 1076              	.LASF15:
 1077 0224 75696E74 		.ascii	"uint32_t\000"
 1077      33325F74 
 1077      00
 1078              	.LASF0:
 1079 022d 756E7369 		.ascii	"unsigned int\000"
 1079      676E6564 
 1079      20696E74 
 1079      00
 1080              	.LASF13:
 1081 023a 75696E74 		.ascii	"uint16_t\000"
 1081      31365F74 
 1081      00
 1082              	.LASF55:
 1083 0243 68616C5F 		.ascii	"hal_lld_init\000"
 1083      6C6C645F 
 1083      696E6974 
 1083      00
 1084              	.LASF36:
 1085 0250 53797354 		.ascii	"SysTick_Type\000"
 1085      69636B5F 
 1085      54797065 
 1085      00
 1086              	.LASF6:
 1087 025d 73686F72 		.ascii	"short unsigned int\000"
 1087      7420756E 
 1087      7369676E 
 1087      65642069 
 1087      6E7400
 1088              	.LASF33:
 1089 0270 63686172 		.ascii	"char\000"
 1089      00
 1090              	.LASF23:
 1091 0275 434D785F 		.ascii	"CMx_SCS\000"
 1091      53435300 
 1092              	.LASF14:
 1093 027d 696E7433 		.ascii	"int32_t\000"
 1093      325F7400 
 1094              	.LASF16:
 1095 0285 5F426F6F 		.ascii	"_Bool\000"
 1095      6C00
 1096              	.LASF58:
 1097 028b 646D6149 		.ascii	"dmaInit\000"
ARM GAS  /var/folders/6q/x_mk5n_j3p7_c40r_2k_78980000gn/T//ccuumXbR.s 			page 22


 1097      6E697400 
 1098              	.LASF26:
 1099 0293 43504943 		.ascii	"CPICNT\000"
 1099      4E5400
 1100              	.LASF11:
 1101 029a 6C6F6E67 		.ascii	"long unsigned int\000"
 1101      20756E73 
 1101      69676E65 
 1101      6420696E 
 1101      7400
 1102              	.LASF54:
 1103 02ac 68616C5F 		.ascii	"hal_lld_backup_domain_init\000"
 1103      6C6C645F 
 1103      6261636B 
 1103      75705F64 
 1103      6F6D6169 
 1104              	.LASF28:
 1105 02c7 534C4545 		.ascii	"SLEEPCNT\000"
 1105      50434E54 
 1105      00
 1106              	.LASF56:
 1107 02d0 73746D33 		.ascii	"stm32_clock_init\000"
 1107      325F636C 
 1107      6F636B5F 
 1107      696E6974 
 1107      00
 1108              	.LASF8:
 1109 02e1 5F5F696E 		.ascii	"__int32_t\000"
 1109      7433325F 
 1109      7400
 1110              	.LASF29:
 1111 02eb 4C535543 		.ascii	"LSUCNT\000"
 1111      4E5400
 1112              	.LASF34:
 1113 02f2 4C4F4144 		.ascii	"LOAD\000"
 1113      00
 1114              	.LASF39:
 1115 02f7 52455345 		.ascii	"RESERVED\000"
 1115      52564544 
 1115      00
 1116              	.LASF41:
 1117 0300 464C4153 		.ascii	"FLASH_TypeDef\000"
 1117      485F5479 
 1117      70654465 
 1117      6600
 1118              	.LASF57:
 1119 030e 49544D5F 		.ascii	"ITM_RxBuffer\000"
 1119      52784275 
 1119      66666572 
 1119      00
 1120              	.LASF52:
 1121 031b 2E2E2F43 		.ascii	"../ChibiOS/os/hal/platforms/STM32F1xx/hal_lld.c\000"
 1121      68696269 
 1121      4F532F6F 
 1121      732F6861 
 1121      6C2F706C 
 1122              		.ident	"GCC: (GNU Tools for ARM Embedded Processors) 5.4.1 20160919 (release) [ARM/embedded-5-bran
ARM GAS  /var/folders/6q/x_mk5n_j3p7_c40r_2k_78980000gn/T//ccuumXbR.s 			page 23


ARM GAS  /var/folders/6q/x_mk5n_j3p7_c40r_2k_78980000gn/T//ccuumXbR.s 			page 24


DEFINED SYMBOLS
                            *ABS*:0000000000000000 hal_lld.c
/var/folders/6q/x_mk5n_j3p7_c40r_2k_78980000gn/T//ccuumXbR.s:20     .text.hal_lld_init:0000000000000000 $t
/var/folders/6q/x_mk5n_j3p7_c40r_2k_78980000gn/T//ccuumXbR.s:26     .text.hal_lld_init:0000000000000000 hal_lld_init
/var/folders/6q/x_mk5n_j3p7_c40r_2k_78980000gn/T//ccuumXbR.s:119    .text.hal_lld_init:0000000000000058 $d
/var/folders/6q/x_mk5n_j3p7_c40r_2k_78980000gn/T//ccuumXbR.s:129    .text.stm32_clock_init:0000000000000000 $t
/var/folders/6q/x_mk5n_j3p7_c40r_2k_78980000gn/T//ccuumXbR.s:135    .text.stm32_clock_init:0000000000000000 stm32_clock_init
/var/folders/6q/x_mk5n_j3p7_c40r_2k_78980000gn/T//ccuumXbR.s:235    .text.stm32_clock_init:000000000000007c $d
                     .debug_frame:0000000000000010 $d

UNDEFINED SYMBOLS
dmaInit
