ARM GAS  /var/folders/6q/x_mk5n_j3p7_c40r_2k_78980000gn/T//ccYTRlZX.s 			page 1


   1              		.syntax unified
   2              		.cpu cortex-m3
   3              		.fpu softvfp
   4              		.eabi_attribute 20, 1
   5              		.eabi_attribute 21, 1
   6              		.eabi_attribute 23, 3
   7              		.eabi_attribute 24, 1
   8              		.eabi_attribute 25, 1
   9              		.eabi_attribute 26, 1
  10              		.eabi_attribute 30, 2
  11              		.eabi_attribute 34, 1
  12              		.eabi_attribute 18, 4
  13              		.thumb
  14              		.syntax unified
  15              		.file	"i2c.c"
  16              		.text
  17              	.Ltext0:
  18              		.cfi_sections	.debug_frame
  19              		.section	.text.i2cInit,"ax",%progbits
  20              		.align	2
  21              		.p2align 4,,15
  22              		.global	i2cInit
  23              		.thumb
  24              		.thumb_func
  25              		.type	i2cInit, %function
  26              	i2cInit:
  27              	.LFB63:
  28              		.file 1 "../ChibiOS/os/hal/src/i2c.c"
  29              		.loc 1 71 0
  30              		.cfi_startproc
  31              		@ args = 0, pretend = 0, frame = 0
  32              		@ frame_needed = 0, uses_anonymous_args = 0
  33              		@ link register save eliminated.
  34              		.loc 1 72 0
  35 0000 FFF7FEBF 		b	i2c_lld_init
  36              	.LVL0:
  37              		.cfi_endproc
  38              	.LFE63:
  39              		.size	i2cInit, .-i2cInit
  40              		.section	.text.i2cObjectInit,"ax",%progbits
  41              		.align	2
  42              		.p2align 4,,15
  43              		.global	i2cObjectInit
  44              		.thumb
  45              		.thumb_func
  46              		.type	i2cObjectInit, %function
  47              	i2cObjectInit:
  48              	.LFB64:
  49              		.loc 1 82 0
  50              		.cfi_startproc
  51              		@ args = 0, pretend = 0, frame = 0
  52              		@ frame_needed = 0, uses_anonymous_args = 0
  53              		@ link register save eliminated.
  54              	.LVL1:
  55              		.loc 1 84 0
  56 0000 0122     		movs	r2, #1
  57              		.loc 1 85 0
ARM GAS  /var/folders/6q/x_mk5n_j3p7_c40r_2k_78980000gn/T//ccYTRlZX.s 			page 2


  58 0002 0023     		movs	r3, #0
  59              		.loc 1 84 0
  60 0004 0270     		strb	r2, [r0]
  61              		.loc 1 85 0
  62 0006 4360     		str	r3, [r0, #4]
  63              		.loc 1 89 0
  64 0008 0C30     		adds	r0, r0, #12
  65              	.LVL2:
  66 000a FFF7FEBF 		b	chMtxInit
  67              	.LVL3:
  68              		.cfi_endproc
  69              	.LFE64:
  70              		.size	i2cObjectInit, .-i2cObjectInit
  71 000e 00BF     		.section	.text.i2cStart,"ax",%progbits
  72              		.align	2
  73              		.p2align 4,,15
  74              		.global	i2cStart
  75              		.thumb
  76              		.thumb_func
  77              		.type	i2cStart, %function
  78              	i2cStart:
  79              	.LFB65:
  80              		.loc 1 108 0
  81              		.cfi_startproc
  82              		@ args = 0, pretend = 0, frame = 0
  83              		@ frame_needed = 0, uses_anonymous_args = 0
  84              	.LVL4:
  85 0000 10B5     		push	{r4, lr}
  86              		.cfi_def_cfa_offset 8
  87              		.cfi_offset 4, -8
  88              		.cfi_offset 14, -4
  89              	.LBB2:
  90              		.loc 1 116 0
  91 0002 2023     		movs	r3, #32
  92              	.LBE2:
  93              		.loc 1 108 0
  94 0004 0446     		mov	r4, r0
  95              	.LBB3:
  96              		.loc 1 116 0
  97              		.syntax unified
  98              	@ 116 "../ChibiOS/os/hal/src/i2c.c" 1
  99 0006 83F31188 		msr     BASEPRI, r3
 100              	@ 0 "" 2
 101              		.thumb
 102              		.syntax unified
 103              	.LBE3:
 104              		.loc 1 117 0
 105 000a 4160     		str	r1, [r0, #4]
 106              		.loc 1 118 0
 107 000c FFF7FEFF 		bl	i2c_lld_start
 108              	.LVL5:
 109              		.loc 1 119 0
 110 0010 0223     		movs	r3, #2
 111 0012 2370     		strb	r3, [r4]
 112              	.LBB4:
 113              		.loc 1 120 0
 114 0014 0023     		movs	r3, #0
ARM GAS  /var/folders/6q/x_mk5n_j3p7_c40r_2k_78980000gn/T//ccYTRlZX.s 			page 3


 115              		.syntax unified
 116              	@ 120 "../ChibiOS/os/hal/src/i2c.c" 1
 117 0016 83F31188 		msr     BASEPRI, r3
 118              	@ 0 "" 2
 119              		.thumb
 120              		.syntax unified
 121 001a 10BD     		pop	{r4, pc}
 122              	.LBE4:
 123              		.cfi_endproc
 124              	.LFE65:
 125              		.size	i2cStart, .-i2cStart
 126              		.section	.text.i2cStop,"ax",%progbits
 127              		.align	2
 128              		.p2align 4,,15
 129              		.global	i2cStop
 130              		.thumb
 131              		.thumb_func
 132              		.type	i2cStop, %function
 133              	i2cStop:
 134              	.LFB66:
 135              		.loc 1 130 0
 136              		.cfi_startproc
 137              		@ args = 0, pretend = 0, frame = 0
 138              		@ frame_needed = 0, uses_anonymous_args = 0
 139              	.LVL6:
 140 0000 10B5     		push	{r4, lr}
 141              		.cfi_def_cfa_offset 8
 142              		.cfi_offset 4, -8
 143              		.cfi_offset 14, -4
 144              	.LBB5:
 145              		.loc 1 138 0
 146 0002 2023     		movs	r3, #32
 147              	.LBE5:
 148              		.loc 1 130 0
 149 0004 0446     		mov	r4, r0
 150              	.LBB6:
 151              		.loc 1 138 0
 152              		.syntax unified
 153              	@ 138 "../ChibiOS/os/hal/src/i2c.c" 1
 154 0006 83F31188 		msr     BASEPRI, r3
 155              	@ 0 "" 2
 156              		.thumb
 157              		.syntax unified
 158              	.LBE6:
 159              		.loc 1 139 0
 160 000a FFF7FEFF 		bl	i2c_lld_stop
 161              	.LVL7:
 162              		.loc 1 140 0
 163 000e 0123     		movs	r3, #1
 164 0010 2370     		strb	r3, [r4]
 165              	.LBB7:
 166              		.loc 1 141 0
 167 0012 0023     		movs	r3, #0
 168              		.syntax unified
 169              	@ 141 "../ChibiOS/os/hal/src/i2c.c" 1
 170 0014 83F31188 		msr     BASEPRI, r3
 171              	@ 0 "" 2
ARM GAS  /var/folders/6q/x_mk5n_j3p7_c40r_2k_78980000gn/T//ccYTRlZX.s 			page 4


 172              		.thumb
 173              		.syntax unified
 174 0018 10BD     		pop	{r4, pc}
 175              	.LBE7:
 176              		.cfi_endproc
 177              	.LFE66:
 178              		.size	i2cStop, .-i2cStop
 179 001a 00BF     		.section	.text.i2cGetErrors,"ax",%progbits
 180              		.align	2
 181              		.p2align 4,,15
 182              		.global	i2cGetErrors
 183              		.thumb
 184              		.thumb_func
 185              		.type	i2cGetErrors, %function
 186              	i2cGetErrors:
 187              	.LFB67:
 188              		.loc 1 152 0
 189              		.cfi_startproc
 190              		@ args = 0, pretend = 0, frame = 0
 191              		@ frame_needed = 0, uses_anonymous_args = 0
 192              		@ link register save eliminated.
 193              	.LVL8:
 194              		.loc 1 157 0
 195 0000 8068     		ldr	r0, [r0, #8]
 196              	.LVL9:
 197 0002 7047     		bx	lr
 198              		.cfi_endproc
 199              	.LFE67:
 200              		.size	i2cGetErrors, .-i2cGetErrors
 201              		.section	.text.i2cMasterTransmitTimeout,"ax",%progbits
 202              		.align	2
 203              		.p2align 4,,15
 204              		.global	i2cMasterTransmitTimeout
 205              		.thumb
 206              		.thumb_func
 207              		.type	i2cMasterTransmitTimeout, %function
 208              	i2cMasterTransmitTimeout:
 209              	.LFB68:
 210              		.loc 1 191 0
 211              		.cfi_startproc
 212              		@ args = 12, pretend = 0, frame = 0
 213              		@ frame_needed = 0, uses_anonymous_args = 0
 214              	.LVL10:
 215 0000 2DE9F041 		push	{r4, r5, r6, r7, r8, lr}
 216              		.cfi_def_cfa_offset 24
 217              		.cfi_offset 4, -24
 218              		.cfi_offset 5, -20
 219              		.cfi_offset 6, -16
 220              		.cfi_offset 7, -12
 221              		.cfi_offset 8, -8
 222              		.cfi_offset 14, -4
 223 0004 84B0     		sub	sp, sp, #16
 224              		.cfi_def_cfa_offset 40
 225              		.loc 1 191 0
 226 0006 9846     		mov	r8, r3
 227 0008 0446     		mov	r4, r0
 228 000a 0B9E     		ldr	r6, [sp, #44]
ARM GAS  /var/folders/6q/x_mk5n_j3p7_c40r_2k_78980000gn/T//ccYTRlZX.s 			page 5


 229 000c 0C9F     		ldr	r7, [sp, #48]
 230              	.LBB8:
 231              		.loc 1 203 0
 232 000e 2023     		movs	r3, #32
 233              	.LVL11:
 234              		.syntax unified
 235              	@ 203 "../ChibiOS/os/hal/src/i2c.c" 1
 236 0010 83F31188 		msr     BASEPRI, r3
 237              	@ 0 "" 2
 238              		.thumb
 239              		.syntax unified
 240              	.LBE8:
 241              		.loc 1 206 0
 242 0014 0A9B     		ldr	r3, [sp, #40]
 243              		.loc 1 205 0
 244 0016 4FF0030E 		mov	lr, #3
 245              		.loc 1 204 0
 246 001a 0025     		movs	r5, #0
 247              		.loc 1 206 0
 248 001c 0093     		str	r3, [sp]
 249 001e 0297     		str	r7, [sp, #8]
 250 0020 0196     		str	r6, [sp, #4]
 251 0022 4346     		mov	r3, r8
 252              		.loc 1 204 0
 253 0024 8560     		str	r5, [r0, #8]
 254              		.loc 1 205 0
 255 0026 80F800E0 		strb	lr, [r0]
 256              		.loc 1 206 0
 257 002a FFF7FEFF 		bl	i2c_lld_master_transmit_timeout
 258              	.LVL12:
 259              		.loc 1 208 0
 260 002e 431C     		adds	r3, r0, #1
 261              		.loc 1 209 0
 262 0030 0CBF     		ite	eq
 263 0032 0523     		moveq	r3, #5
 264              		.loc 1 211 0
 265 0034 0223     		movne	r3, #2
 266 0036 2370     		strb	r3, [r4]
 267              	.LBB9:
 268              		.loc 1 212 0
 269 0038 0023     		movs	r3, #0
 270              		.syntax unified
 271              	@ 212 "../ChibiOS/os/hal/src/i2c.c" 1
 272 003a 83F31188 		msr     BASEPRI, r3
 273              	@ 0 "" 2
 274              		.thumb
 275              		.syntax unified
 276              	.LBE9:
 277              		.loc 1 214 0
 278 003e 04B0     		add	sp, sp, #16
 279              		.cfi_def_cfa_offset 24
 280              		@ sp needed
 281 0040 BDE8F081 		pop	{r4, r5, r6, r7, r8, pc}
 282              		.cfi_endproc
 283              	.LFE68:
 284              		.size	i2cMasterTransmitTimeout, .-i2cMasterTransmitTimeout
 285              		.section	.text.i2cMasterReceiveTimeout,"ax",%progbits
ARM GAS  /var/folders/6q/x_mk5n_j3p7_c40r_2k_78980000gn/T//ccYTRlZX.s 			page 6


 286              		.align	2
 287              		.p2align 4,,15
 288              		.global	i2cMasterReceiveTimeout
 289              		.thumb
 290              		.thumb_func
 291              		.type	i2cMasterReceiveTimeout, %function
 292              	i2cMasterReceiveTimeout:
 293              	.LFB69:
 294              		.loc 1 240 0
 295              		.cfi_startproc
 296              		@ args = 4, pretend = 0, frame = 0
 297              		@ frame_needed = 0, uses_anonymous_args = 0
 298              	.LVL13:
 299 0000 F0B5     		push	{r4, r5, r6, r7, lr}
 300              		.cfi_def_cfa_offset 20
 301              		.cfi_offset 4, -20
 302              		.cfi_offset 5, -16
 303              		.cfi_offset 6, -12
 304              		.cfi_offset 7, -8
 305              		.cfi_offset 14, -4
 306 0002 83B0     		sub	sp, sp, #12
 307              		.cfi_def_cfa_offset 32
 308              		.loc 1 240 0
 309 0004 9E46     		mov	lr, r3
 310 0006 0446     		mov	r4, r0
 311 0008 089F     		ldr	r7, [sp, #32]
 312              	.LBB10:
 313              		.loc 1 252 0
 314 000a 2023     		movs	r3, #32
 315              	.LVL14:
 316              		.syntax unified
 317              	@ 252 "../ChibiOS/os/hal/src/i2c.c" 1
 318 000c 83F31188 		msr     BASEPRI, r3
 319              	@ 0 "" 2
 320              		.thumb
 321              		.syntax unified
 322              	.LBE10:
 323              		.loc 1 253 0
 324 0010 0026     		movs	r6, #0
 325              		.loc 1 254 0
 326 0012 0425     		movs	r5, #4
 327              		.loc 1 255 0
 328 0014 0097     		str	r7, [sp]
 329 0016 7346     		mov	r3, lr
 330              		.loc 1 253 0
 331 0018 8660     		str	r6, [r0, #8]
 332              		.loc 1 254 0
 333 001a 0570     		strb	r5, [r0]
 334              		.loc 1 255 0
 335 001c FFF7FEFF 		bl	i2c_lld_master_receive_timeout
 336              	.LVL15:
 337              		.loc 1 256 0
 338 0020 431C     		adds	r3, r0, #1
 339              		.loc 1 257 0
 340 0022 0CBF     		ite	eq
 341 0024 0523     		moveq	r3, #5
 342              		.loc 1 259 0
ARM GAS  /var/folders/6q/x_mk5n_j3p7_c40r_2k_78980000gn/T//ccYTRlZX.s 			page 7


 343 0026 0223     		movne	r3, #2
 344 0028 2370     		strb	r3, [r4]
 345              	.LBB11:
 346              		.loc 1 260 0
 347 002a 0023     		movs	r3, #0
 348              		.syntax unified
 349              	@ 260 "../ChibiOS/os/hal/src/i2c.c" 1
 350 002c 83F31188 		msr     BASEPRI, r3
 351              	@ 0 "" 2
 352              		.thumb
 353              		.syntax unified
 354              	.LBE11:
 355              		.loc 1 262 0
 356 0030 03B0     		add	sp, sp, #12
 357              		.cfi_def_cfa_offset 20
 358              		@ sp needed
 359 0032 F0BD     		pop	{r4, r5, r6, r7, pc}
 360              		.cfi_endproc
 361              	.LFE69:
 362              		.size	i2cMasterReceiveTimeout, .-i2cMasterReceiveTimeout
 363              		.section	.text.i2cAcquireBus,"ax",%progbits
 364              		.align	2
 365              		.p2align 4,,15
 366              		.global	i2cAcquireBus
 367              		.thumb
 368              		.thumb_func
 369              		.type	i2cAcquireBus, %function
 370              	i2cAcquireBus:
 371              	.LFB70:
 372              		.loc 1 276 0
 373              		.cfi_startproc
 374              		@ args = 0, pretend = 0, frame = 0
 375              		@ frame_needed = 0, uses_anonymous_args = 0
 376              		@ link register save eliminated.
 377              	.LVL16:
 378              		.loc 1 281 0
 379 0000 0C30     		adds	r0, r0, #12
 380              	.LVL17:
 381 0002 FFF7FEBF 		b	chMtxLock
 382              	.LVL18:
 383              		.cfi_endproc
 384              	.LFE70:
 385              		.size	i2cAcquireBus, .-i2cAcquireBus
 386 0006 00BF     		.section	.text.i2cReleaseBus,"ax",%progbits
 387              		.align	2
 388              		.p2align 4,,15
 389              		.global	i2cReleaseBus
 390              		.thumb
 391              		.thumb_func
 392              		.type	i2cReleaseBus, %function
 393              	i2cReleaseBus:
 394              	.LFB71:
 395              		.loc 1 296 0
 396              		.cfi_startproc
 397              		@ args = 0, pretend = 0, frame = 0
 398              		@ frame_needed = 0, uses_anonymous_args = 0
 399              		@ link register save eliminated.
ARM GAS  /var/folders/6q/x_mk5n_j3p7_c40r_2k_78980000gn/T//ccYTRlZX.s 			page 8


 400              	.LVL19:
 401              		.loc 1 301 0
 402 0000 FFF7FEBF 		b	chMtxUnlock
 403              	.LVL20:
 404              		.cfi_endproc
 405              	.LFE71:
 406              		.size	i2cReleaseBus, .-i2cReleaseBus
 407              		.text
 408              	.Letext0:
 409              		.file 2 "/Users/Luca/src/vexilla/src/gcc-arm-none-eabi-5_4-2016q3/lib/gcc/arm-none-eabi/5.4.1/incl
 410              		.file 3 "/Users/Luca/src/vexilla/src/gcc-arm-none-eabi-5_4-2016q3/arm-none-eabi/include/machine/_d
 411              		.file 4 "/Users/Luca/src/vexilla/src/gcc-arm-none-eabi-5_4-2016q3/arm-none-eabi/include/sys/_stdin
 412              		.file 5 "../ChibiOS/os/ports/GCC/ARMCMx/chtypes.h"
 413              		.file 6 "../ChibiOS/os/kernel/include/chlists.h"
 414              		.file 7 "../ChibiOS/os/kernel/include/chthreads.h"
 415              		.file 8 "../ChibiOS/os/ports/GCC/ARMCMx/chcore_v7m.h"
 416              		.file 9 "../ChibiOS/os/kernel/include/chmtx.h"
 417              		.file 10 "../ChibiOS/os/hal/platforms/STM32F1xx/stm32f10x.h"
 418              		.file 11 "../ChibiOS/os/hal/platforms/STM32F1xx/stm32_dma.h"
 419              		.file 12 "../ChibiOS/os/hal/include/i2c.h"
 420              		.file 13 "../ChibiOS/os/hal/platforms/STM32/I2Cv1/i2c_lld.h"
 421              		.file 14 "../ChibiOS/os/ports/common/ARMCMx/CMSIS/include/core_cm3.h"