ARM GAS  /var/folders/6q/x_mk5n_j3p7_c40r_2k_78980000gn/T//ccYTRlZX.s 			page 1


   1              		.syntax unified
   2              		.cpu cortex-m3
   3              		.fpu softvfp
   4              		.eabi_attribute 20, 1
   5              		.eabi_attribute 21, 1
   6              		.eabi_attribute 23, 3
   7              		.eabi_attribute 24, 1
   8              		.eabi_attribute 25, 1
   9              		.eabi_attribute 26, 1
  10              		.eabi_attribute 30, 2
  11              		.eabi_attribute 34, 1
  12              		.eabi_attribute 18, 4
  13              		.thumb
  14              		.syntax unified
  15              		.file	"i2c.c"
  16              		.text
  17              	.Ltext0:
  18              		.cfi_sections	.debug_frame
  19              		.section	.text.i2cInit,"ax",%progbits
  20              		.align	2
  21              		.p2align 4,,15
  22              		.global	i2cInit
  23              		.thumb
  24              		.thumb_func
  25              		.type	i2cInit, %function
  26              	i2cInit:
  27              	.LFB63:
  28              		.file 1 "../ChibiOS/os/hal/src/i2c.c"
  29              		.loc 1 71 0
  30              		.cfi_startproc
  31              		@ args = 0, pretend = 0, frame = 0
  32              		@ frame_needed = 0, uses_anonymous_args = 0
  33              		@ link register save eliminated.
  34              		.loc 1 72 0
  35 0000 FFF7FEBF 		b	i2c_lld_init
  36              	.LVL0:
  37              		.cfi_endproc
  38              	.LFE63:
  39              		.size	i2cInit, .-i2cInit
  40              		.section	.text.i2cObjectInit,"ax",%progbits
  41              		.align	2
  42              		.p2align 4,,15
  43              		.global	i2cObjectInit
  44              		.thumb
  45              		.thumb_func
  46              		.type	i2cObjectInit, %function
  47              	i2cObjectInit:
  48              	.LFB64:
  49              		.loc 1 82 0
  50              		.cfi_startproc
  51              		@ args = 0, pretend = 0, frame = 0
  52              		@ frame_needed = 0, uses_anonymous_args = 0
  53              		@ link register save eliminated.
  54              	.LVL1:
  55              		.loc 1 84 0
  56 0000 0122     		movs	r2, #1
  57              		.loc 1 85 0
ARM GAS  /var/folders/6q/x_mk5n_j3p7_c40r_2k_78980000gn/T//ccYTRlZX.s 			page 2


  58 0002 0023     		movs	r3, #0
  59              		.loc 1 84 0
  60 0004 0270     		strb	r2, [r0]
  61              		.loc 1 85 0
  62 0006 4360     		str	r3, [r0, #4]
  63              		.loc 1 89 0
  64 0008 0C30     		adds	r0, r0, #12
  65              	.LVL2:
  66 000a FFF7FEBF 		b	chMtxInit
  67              	.LVL3:
  68              		.cfi_endproc
  69              	.LFE64:
  70              		.size	i2cObjectInit, .-i2cObjectInit
  71 000e 00BF     		.section	.text.i2cStart,"ax",%progbits
  72              		.align	2
  73              		.p2align 4,,15
  74              		.global	i2cStart
  75              		.thumb
  76              		.thumb_func
  77              		.type	i2cStart, %function
  78              	i2cStart:
  79              	.LFB65:
  80              		.loc 1 108 0
  81              		.cfi_startproc
  82              		@ args = 0, pretend = 0, frame = 0
  83              		@ frame_needed = 0, uses_anonymous_args = 0
  84              	.LVL4:
  85 0000 10B5     		push	{r4, lr}
  86              		.cfi_def_cfa_offset 8
  87              		.cfi_offset 4, -8
  88              		.cfi_offset 14, -4
  89              	.LBB2:
  90              		.loc 1 116 0
  91 0002 2023     		movs	r3, #32
  92              	.LBE2:
  93              		.loc 1 108 0
  94 0004 0446     		mov	r4, r0
  95              	.LBB3:
  96              		.loc 1 116 0
  97              		.syntax unified
  98              	@ 116 "../ChibiOS/os/hal/src/i2c.c" 1
  99 0006 83F31188 		msr     BASEPRI, r3
 100              	@ 0 "" 2
 101              		.thumb
 102              		.syntax unified
 103              	.LBE3:
 104              		.loc 1 117 0
 105 000a 4160     		str	r1, [r0, #4]
 106              		.loc 1 118 0
 107 000c FFF7FEFF 		bl	i2c_lld_start
 108              	.LVL5:
 109              		.loc 1 119 0
 110 0010 0223     		movs	r3, #2
 111 0012 2370     		strb	r3, [r4]
 112              	.LBB4:
 113              		.loc 1 120 0
 114 0014 0023     		movs	r3, #0
ARM GAS  /var/folders/6q/x_mk5n_j3p7_c40r_2k_78980000gn/T//ccYTRlZX.s 			page 3


 115              		.syntax unified
 116              	@ 120 "../ChibiOS/os/hal/src/i2c.c" 1
 117 0016 83F31188 		msr     BASEPRI, r3
 118              	@ 0 "" 2
 119              		.thumb
 120              		.syntax unified
 121 001a 10BD     		pop	{r4, pc}
 122              	.LBE4:
 123              		.cfi_endproc
 124              	.LFE65:
 125              		.size	i2cStart, .-i2cStart
 126              		.section	.text.i2cStop,"ax",%progbits
 127              		.align	2
 128              		.p2align 4,,15
 129              		.global	i2cStop
 130              		.thumb
 131              		.thumb_func
 132              		.type	i2cStop, %function
 133              	i2cStop:
 134              	.LFB66:
 135              		.loc 1 130 0
 136              		.cfi_startproc
 137              		@ args = 0, pretend = 0, frame = 0
 138              		@ frame_needed = 0, uses_anonymous_args = 0
 139              	.LVL6:
 140 0000 10B5     		push	{r4, lr}
 141              		.cfi_def_cfa_offset 8
 142              		.cfi_offset 4, -8
 143              		.cfi_offset 14, -4
 144              	.LBB5:
 145              		.loc 1 138 0
 146 0002 2023     		movs	r3, #32
 147              	.LBE5:
 148              		.loc 1 130 0
 149 0004 0446     		mov	r4, r0
 150              	.LBB6:
 151              		.loc 1 138 0
 152              		.syntax unified
 153              	@ 138 "../ChibiOS/os/hal/src/i2c.c" 1
 154 0006 83F31188 		msr     BASEPRI, r3
 155              	@ 0 "" 2
 156              		.thumb
 157              		.syntax unified
 158              	.LBE6:
 159              		.loc 1 139 0
 160 000a FFF7FEFF 		bl	i2c_lld_stop
 161              	.LVL7:
 162              		.loc 1 140 0
 163 000e 0123     		movs	r3, #1
 164 0010 2370     		strb	r3, [r4]
 165              	.LBB7:
 166              		.loc 1 141 0
 167 0012 0023     		movs	r3, #0
 168              		.syntax unified
 169              	@ 141 "../ChibiOS/os/hal/src/i2c.c" 1
 170 0014 83F31188 		msr     BASEPRI, r3
 171              	@ 0 "" 2
ARM GAS  /var/folders/6q/x_mk5n_j3p7_c40r_2k_78980000gn/T//ccYTRlZX.s 			page 4


 172              		.thumb
 173              		.syntax unified
 174 0018 10BD     		pop	{r4, pc}
 175              	.LBE7:
 176              		.cfi_endproc
 177              	.LFE66:
 178              		.size	i2cStop, .-i2cStop
 179 001a 00BF     		.section	.text.i2cGetErrors,"ax",%progbits
 180              		.align	2
 181              		.p2align 4,,15
 182              		.global	i2cGetErrors
 183              		.thumb
 184              		.thumb_func
 185              		.type	i2cGetErrors, %function
 186              	i2cGetErrors:
 187              	.LFB67:
 188              		.loc 1 152 0
 189              		.cfi_startproc
 190              		@ args = 0, pretend = 0, frame = 0
 191              		@ frame_needed = 0, uses_anonymous_args = 0
 192              		@ link register save eliminated.
 193              	.LVL8:
 194              		.loc 1 157 0
 195 0000 8068     		ldr	r0, [r0, #8]
 196              	.LVL9:
 197 0002 7047     		bx	lr
 198              		.cfi_endproc
 199              	.LFE67:
 200              		.size	i2cGetErrors, .-i2cGetErrors
 201              		.section	.text.i2cMasterTransmitTimeout,"ax",%progbits
 202              		.align	2
 203              		.p2align 4,,15
 204              		.global	i2cMasterTransmitTimeout
 205              		.thumb
 206              		.thumb_func
 207              		.type	i2cMasterTransmitTimeout, %function
 208              	i2cMasterTransmitTimeout:
 209              	.LFB68:
 210              		.loc 1 191 0
 211              		.cfi_startproc
 212              		@ args = 12, pretend = 0, frame = 0
 213              		@ frame_needed = 0, uses_anonymous_args = 0
 214              	.LVL10:
 215 0000 2DE9F041 		push	{r4, r5, r6, r7, r8, lr}
 216              		.cfi_def_cfa_offset 24
 217              		.cfi_offset 4, -24
 218              		.cfi_offset 5, -20
 219              		.cfi_offset 6, -16
 220              		.cfi_offset 7, -12
 221              		.cfi_offset 8, -8
 222              		.cfi_offset 14, -4
 223 0004 84B0     		sub	sp, sp, #16
 224              		.cfi_def_cfa_offset 40
 225              		.loc 1 191 0
 226 0006 9846     		mov	r8, r3
 227 0008 0446     		mov	r4, r0
 228 000a 0B9E     		ldr	r6, [sp, #44]
ARM GAS  /var/folders/6q/x_mk5n_j3p7_c40r_2k_78980000gn/T//ccYTRlZX.s 			page 5


 229 000c 0C9F     		ldr	r7, [sp, #48]
 230              	.LBB8:
 231              		.loc 1 203 0
 232 000e 2023     		movs	r3, #32
 233              	.LVL11:
 234              		.syntax unified
 235              	@ 203 "../ChibiOS/os/hal/src/i2c.c" 1
 236 0010 83F31188 		msr     BASEPRI, r3
 237              	@ 0 "" 2
 238              		.thumb
 239              		.syntax unified
 240              	.LBE8:
 241              		.loc 1 206 0
 242 0014 0A9B     		ldr	r3, [sp, #40]
 243              		.loc 1 205 0
 244 0016 4FF0030E 		mov	lr, #3
 245              		.loc 1 204 0
 246 001a 0025     		movs	r5, #0
 247              		.loc 1 206 0
 248 001c 0093     		str	r3, [sp]
 249 001e 0297     		str	r7, [sp, #8]
 250 0020 0196     		str	r6, [sp, #4]
 251 0022 4346     		mov	r3, r8
 252              		.loc 1 204 0
 253 0024 8560     		str	r5, [r0, #8]
 254              		.loc 1 205 0
 255 0026 80F800E0 		strb	lr, [r0]
 256              		.loc 1 206 0
 257 002a FFF7FEFF 		bl	i2c_lld_master_transmit_timeout
 258              	.LVL12:
 259              		.loc 1 208 0
 260 002e 431C     		adds	r3, r0, #1
 261              		.loc 1 209 0
 262 0030 0CBF     		ite	eq
 263 0032 0523     		moveq	r3, #5
 264              		.loc 1 211 0
 265 0034 0223     		movne	r3, #2
 266 0036 2370     		strb	r3, [r4]
 267              	.LBB9:
 268              		.loc 1 212 0
 269 0038 0023     		movs	r3, #0
 270              		.syntax unified
 271              	@ 212 "../ChibiOS/os/hal/src/i2c.c" 1
 272 003a 83F31188 		msr     BASEPRI, r3
 273              	@ 0 "" 2
 274              		.thumb
 275              		.syntax unified
 276              	.LBE9:
 277              		.loc 1 214 0
 278 003e 04B0     		add	sp, sp, #16
 279              		.cfi_def_cfa_offset 24
 280              		@ sp needed
 281 0040 BDE8F081 		pop	{r4, r5, r6, r7, r8, pc}
 282              		.cfi_endproc
 283              	.LFE68:
 284              		.size	i2cMasterTransmitTimeout, .-i2cMasterTransmitTimeout
 285              		.section	.text.i2cMasterReceiveTimeout,"ax",%progbits
ARM GAS  /var/folders/6q/x_mk5n_j3p7_c40r_2k_78980000gn/T//ccYTRlZX.s 			page 6


 286              		.align	2
 287              		.p2align 4,,15
 288              		.global	i2cMasterReceiveTimeout
 289              		.thumb
 290              		.thumb_func
 291              		.type	i2cMasterReceiveTimeout, %function
 292              	i2cMasterReceiveTimeout:
 293              	.LFB69:
 294              		.loc 1 240 0
 295              		.cfi_startproc
 296              		@ args = 4, pretend = 0, frame = 0
 297              		@ frame_needed = 0, uses_anonymous_args = 0
 298              	.LVL13:
 299 0000 F0B5     		push	{r4, r5, r6, r7, lr}
 300              		.cfi_def_cfa_offset 20
 301              		.cfi_offset 4, -20
 302              		.cfi_offset 5, -16
 303              		.cfi_offset 6, -12
 304              		.cfi_offset 7, -8
 305              		.cfi_offset 14, -4
 306 0002 83B0     		sub	sp, sp, #12
 307              		.cfi_def_cfa_offset 32
 308              		.loc 1 240 0
 309 0004 9E46     		mov	lr, r3
 310 0006 0446     		mov	r4, r0
 311 0008 089F     		ldr	r7, [sp, #32]
 312              	.LBB10:
 313              		.loc 1 252 0
 314 000a 2023     		movs	r3, #32
 315              	.LVL14:
 316              		.syntax unified
 317              	@ 252 "../ChibiOS/os/hal/src/i2c.c" 1
 318 000c 83F31188 		msr     BASEPRI, r3
 319              	@ 0 "" 2
 320              		.thumb
 321              		.syntax unified
 322              	.LBE10:
 323              		.loc 1 253 0
 324 0010 0026     		movs	r6, #0
 325              		.loc 1 254 0
 326 0012 0425     		movs	r5, #4
 327              		.loc 1 255 0
 328 0014 0097     		str	r7, [sp]
 329 0016 7346     		mov	r3, lr
 330              		.loc 1 253 0
 331 0018 8660     		str	r6, [r0, #8]
 332              		.loc 1 254 0
 333 001a 0570     		strb	r5, [r0]
 334              		.loc 1 255 0
 335 001c FFF7FEFF 		bl	i2c_lld_master_receive_timeout
 336              	.LVL15:
 337              		.loc 1 256 0
 338 0020 431C     		adds	r3, r0, #1
 339              		.loc 1 257 0
 340 0022 0CBF     		ite	eq
 341 0024 0523     		moveq	r3, #5
 342              		.loc 1 259 0
ARM GAS  /var/folders/6q/x_mk5n_j3p7_c40r_2k_78980000gn/T//ccYTRlZX.s 			page 7


 343 0026 0223     		movne	r3, #2
 344 0028 2370     		strb	r3, [r4]
 345              	.LBB11:
 346              		.loc 1 260 0
 347 002a 0023     		movs	r3, #0
 348              		.syntax unified
 349              	@ 260 "../ChibiOS/os/hal/src/i2c.c" 1
 350 002c 83F31188 		msr     BASEPRI, r3
 351              	@ 0 "" 2
 352              		.thumb
 353              		.syntax unified
 354              	.LBE11:
 355              		.loc 1 262 0
 356 0030 03B0     		add	sp, sp, #12
 357              		.cfi_def_cfa_offset 20
 358              		@ sp needed
 359 0032 F0BD     		pop	{r4, r5, r6, r7, pc}
 360              		.cfi_endproc
 361              	.LFE69:
 362              		.size	i2cMasterReceiveTimeout, .-i2cMasterReceiveTimeout
 363              		.section	.text.i2cAcquireBus,"ax",%progbits
 364              		.align	2
 365              		.p2align 4,,15
 366              		.global	i2cAcquireBus
 367              		.thumb
 368              		.thumb_func
 369              		.type	i2cAcquireBus, %function
 370              	i2cAcquireBus:
 371              	.LFB70:
 372              		.loc 1 276 0
 373              		.cfi_startproc
 374              		@ args = 0, pretend = 0, frame = 0
 375              		@ frame_needed = 0, uses_anonymous_args = 0
 376              		@ link register save eliminated.
 377              	.LVL16:
 378              		.loc 1 281 0
 379 0000 0C30     		adds	r0, r0, #12
 380              	.LVL17:
 381 0002 FFF7FEBF 		b	chMtxLock
 382              	.LVL18:
 383              		.cfi_endproc
 384              	.LFE70:
 385              		.size	i2cAcquireBus, .-i2cAcquireBus
 386 0006 00BF     		.section	.text.i2cReleaseBus,"ax",%progbits
 387              		.align	2
 388              		.p2align 4,,15
 389              		.global	i2cReleaseBus
 390              		.thumb
 391              		.thumb_func
 392              		.type	i2cReleaseBus, %function
 393              	i2cReleaseBus:
 394              	.LFB71:
 395              		.loc 1 296 0
 396              		.cfi_startproc
 397              		@ args = 0, pretend = 0, frame = 0
 398              		@ frame_needed = 0, uses_anonymous_args = 0
 399              		@ link register save eliminated.
ARM GAS  /var/folders/6q/x_mk5n_j3p7_c40r_2k_78980000gn/T//ccYTRlZX.s 			page 8


 400              	.LVL19:
 401              		.loc 1 301 0
 402 0000 FFF7FEBF 		b	chMtxUnlock
 403              	.LVL20:
 404              		.cfi_endproc
 405              	.LFE71:
 406              		.size	i2cReleaseBus, .-i2cReleaseBus
 407              		.text
 408              	.Letext0:
 409              		.file 2 "/Users/Luca/src/vexilla/src/gcc-arm-none-eabi-5_4-2016q3/lib/gcc/arm-none-eabi/5.4.1/incl
 410              		.file 3 "/Users/Luca/src/vexilla/src/gcc-arm-none-eabi-5_4-2016q3/arm-none-eabi/include/machine/_d
 411              		.file 4 "/Users/Luca/src/vexilla/src/gcc-arm-none-eabi-5_4-2016q3/arm-none-eabi/include/sys/_stdin
 412              		.file 5 "../ChibiOS/os/ports/GCC/ARMCMx/chtypes.h"
 413              		.file 6 "../ChibiOS/os/kernel/include/chlists.h"
 414              		.file 7 "../ChibiOS/os/kernel/include/chthreads.h"
 415              		.file 8 "../ChibiOS/os/ports/GCC/ARMCMx/chcore_v7m.h"
 416              		.file 9 "../ChibiOS/os/kernel/include/chmtx.h"
 417              		.file 10 "../ChibiOS/os/hal/platforms/STM32F1xx/stm32f10x.h"
 418              		.file 11 "../ChibiOS/os/hal/platforms/STM32F1xx/stm32_dma.h"
 419              		.file 12 "../ChibiOS/os/hal/include/i2c.h"
 420              		.file 13 "../ChibiOS/os/hal/platforms/STM32/I2Cv1/i2c_lld.h"
 421              		.file 14 "../ChibiOS/os/ports/common/ARMCMx/CMSIS/include/core_cm3.h"
 422              		.section	.debug_info,"",%progbits
 423              	.Ldebug_info0:
 424 0000 1F0B0000 		.4byte	0xb1f
 425 0004 0400     		.2byte	0x4
 426 0006 00000000 		.4byte	.Ldebug_abbrev0
 427 000a 04       		.byte	0x4
 428 000b 01       		.uleb128 0x1
 429 000c 56020000 		.4byte	.LASF141
 430 0010 0C       		.byte	0xc
 431 0011 F0000000 		.4byte	.LASF142
 432 0015 0F060000 		.4byte	.LASF143
 433 0019 30000000 		.4byte	.Ldebug_ranges0+0x30
 434 001d 00000000 		.4byte	0
 435 0021 00000000 		.4byte	.Ldebug_line0
 436 0025 02       		.uleb128 0x2
 437 0026 04       		.byte	0x4
 438 0027 05       		.byte	0x5
 439 0028 696E7400 		.ascii	"int\000"
 440 002c 03       		.uleb128 0x3
 441 002d 2F000000 		.4byte	.LASF4
 442 0031 02       		.byte	0x2
 443 0032 D8       		.byte	0xd8
 444 0033 37000000 		.4byte	0x37
 445 0037 04       		.uleb128 0x4
 446 0038 04       		.byte	0x4
 447 0039 07       		.byte	0x7
 448 003a 10020000 		.4byte	.LASF0
 449 003e 04       		.uleb128 0x4
 450 003f 08       		.byte	0x8
 451 0040 05       		.byte	0x5
 452 0041 9A010000 		.4byte	.LASF1
 453 0045 04       		.uleb128 0x4
 454 0046 08       		.byte	0x8
 455 0047 04       		.byte	0x4
 456 0048 BE030000 		.4byte	.LASF2
ARM GAS  /var/folders/6q/x_mk5n_j3p7_c40r_2k_78980000gn/T//ccYTRlZX.s 			page 9


 457 004c 04       		.uleb128 0x4
 458 004d 01       		.byte	0x1
 459 004e 06       		.byte	0x6
 460 004f 18010000 		.4byte	.LASF3
 461 0053 03       		.uleb128 0x3
 462 0054 3D000000 		.4byte	.LASF5
 463 0058 03       		.byte	0x3
 464 0059 1D       		.byte	0x1d
 465 005a 5E000000 		.4byte	0x5e
 466 005e 04       		.uleb128 0x4
 467 005f 01       		.byte	0x1
 468 0060 08       		.byte	0x8
 469 0061 CF040000 		.4byte	.LASF6
 470 0065 04       		.uleb128 0x4
 471 0066 02       		.byte	0x2
 472 0067 05       		.byte	0x5
 473 0068 90030000 		.4byte	.LASF7
 474 006c 03       		.uleb128 0x3
 475 006d BB050000 		.4byte	.LASF8
 476 0071 03       		.byte	0x3
 477 0072 2B       		.byte	0x2b
 478 0073 77000000 		.4byte	0x77
 479 0077 04       		.uleb128 0x4
 480 0078 02       		.byte	0x2
 481 0079 07       		.byte	0x7
 482 007a 44030000 		.4byte	.LASF9
 483 007e 03       		.uleb128 0x3
 484 007f E2050000 		.4byte	.LASF10
 485 0083 03       		.byte	0x3
 486 0084 3F       		.byte	0x3f
 487 0085 89000000 		.4byte	0x89
 488 0089 04       		.uleb128 0x4
 489 008a 04       		.byte	0x4
 490 008b 05       		.byte	0x5
 491 008c 7A010000 		.4byte	.LASF11
 492 0090 03       		.uleb128 0x3
 493 0091 E3010000 		.4byte	.LASF12
 494 0095 03       		.byte	0x3
 495 0096 41       		.byte	0x41
 496 0097 9B000000 		.4byte	0x9b
 497 009b 04       		.uleb128 0x4
 498 009c 04       		.byte	0x4
 499 009d 07       		.byte	0x7
 500 009e 9D050000 		.4byte	.LASF13
 501 00a2 04       		.uleb128 0x4
 502 00a3 08       		.byte	0x8
 503 00a4 07       		.byte	0x7
 504 00a5 7B000000 		.4byte	.LASF14
 505 00a9 03       		.uleb128 0x3
 506 00aa 4A060000 		.4byte	.LASF15
 507 00ae 04       		.byte	0x4
 508 00af 18       		.byte	0x18
 509 00b0 53000000 		.4byte	0x53
 510 00b4 03       		.uleb128 0x3
 511 00b5 6F030000 		.4byte	.LASF16
 512 00b9 04       		.byte	0x4
 513 00ba 24       		.byte	0x24
ARM GAS  /var/folders/6q/x_mk5n_j3p7_c40r_2k_78980000gn/T//ccYTRlZX.s 			page 10


 514 00bb 6C000000 		.4byte	0x6c
 515 00bf 03       		.uleb128 0x3
 516 00c0 C7040000 		.4byte	.LASF17
 517 00c4 04       		.byte	0x4
 518 00c5 2C       		.byte	0x2c
 519 00c6 7E000000 		.4byte	0x7e
 520 00ca 03       		.uleb128 0x3
 521 00cb 86050000 		.4byte	.LASF18
 522 00cf 04       		.byte	0x4
 523 00d0 30       		.byte	0x30
 524 00d1 90000000 		.4byte	0x90
 525 00d5 04       		.uleb128 0x4
 526 00d6 01       		.byte	0x1
 527 00d7 02       		.byte	0x2
 528 00d8 C1040000 		.4byte	.LASF19
 529 00dc 03       		.uleb128 0x3
 530 00dd 67030000 		.4byte	.LASF20
 531 00e1 05       		.byte	0x5
 532 00e2 2C       		.byte	0x2c
 533 00e3 A9000000 		.4byte	0xa9
 534 00e7 03       		.uleb128 0x3
 535 00e8 83010000 		.4byte	.LASF21
 536 00ec 05       		.byte	0x5
 537 00ed 2D       		.byte	0x2d
 538 00ee A9000000 		.4byte	0xa9
 539 00f2 03       		.uleb128 0x3
 540 00f3 3B040000 		.4byte	.LASF22
 541 00f7 05       		.byte	0x5
 542 00f8 2E       		.byte	0x2e
 543 00f9 A9000000 		.4byte	0xa9
 544 00fd 03       		.uleb128 0x3
 545 00fe 60010000 		.4byte	.LASF23
 546 0102 05       		.byte	0x5
 547 0103 2F       		.byte	0x2f
 548 0104 A9000000 		.4byte	0xa9
 549 0108 03       		.uleb128 0x3
 550 0109 9A040000 		.4byte	.LASF24
 551 010d 05       		.byte	0x5
 552 010e 30       		.byte	0x30
 553 010f CA000000 		.4byte	0xca
 554 0113 03       		.uleb128 0x3
 555 0114 61030000 		.4byte	.LASF25
 556 0118 05       		.byte	0x5
 557 0119 31       		.byte	0x31
 558 011a BF000000 		.4byte	0xbf
 559 011e 03       		.uleb128 0x3
 560 011f 84030000 		.4byte	.LASF26
 561 0123 05       		.byte	0x5
 562 0124 33       		.byte	0x33
 563 0125 CA000000 		.4byte	0xca
 564 0129 03       		.uleb128 0x3
 565 012a CD050000 		.4byte	.LASF27
 566 012e 05       		.byte	0x5
 567 012f 35       		.byte	0x35
 568 0130 CA000000 		.4byte	0xca
 569 0134 03       		.uleb128 0x3
 570 0135 09020000 		.4byte	.LASF28
ARM GAS  /var/folders/6q/x_mk5n_j3p7_c40r_2k_78980000gn/T//ccYTRlZX.s 			page 11


 571 0139 06       		.byte	0x6
 572 013a 2A       		.byte	0x2a
 573 013b 3F010000 		.4byte	0x13f
 574 013f 05       		.uleb128 0x5
 575 0140 09020000 		.4byte	.LASF28
 576 0144 48       		.byte	0x48
 577 0145 07       		.byte	0x7
 578 0146 5E       		.byte	0x5e
 579 0147 3C020000 		.4byte	0x23c
 580 014b 06       		.uleb128 0x6
 581 014c 2B050000 		.4byte	.LASF29
 582 0150 07       		.byte	0x7
 583 0151 5F       		.byte	0x5f
 584 0152 5D020000 		.4byte	0x25d
 585 0156 00       		.byte	0
 586 0157 06       		.uleb128 0x6
 587 0158 75040000 		.4byte	.LASF30
 588 015c 07       		.byte	0x7
 589 015d 61       		.byte	0x61
 590 015e 5D020000 		.4byte	0x25d
 591 0162 04       		.byte	0x4
 592 0163 06       		.uleb128 0x6
 593 0164 D0000000 		.4byte	.LASF31
 594 0168 07       		.byte	0x7
 595 0169 63       		.byte	0x63
 596 016a 08010000 		.4byte	0x108
 597 016e 08       		.byte	0x8
 598 016f 06       		.uleb128 0x6
 599 0170 BE060000 		.4byte	.LASF32
 600 0174 07       		.byte	0x7
 601 0175 64       		.byte	0x64
 602 0176 17030000 		.4byte	0x317
 603 017a 0C       		.byte	0xc
 604 017b 06       		.uleb128 0x6
 605 017c B9010000 		.4byte	.LASF33
 606 0180 07       		.byte	0x7
 607 0181 66       		.byte	0x66
 608 0182 5D020000 		.4byte	0x25d
 609 0186 10       		.byte	0x10
 610 0187 06       		.uleb128 0x6
 611 0188 EC030000 		.4byte	.LASF34
 612 018c 07       		.byte	0x7
 613 018d 67       		.byte	0x67
 614 018e 5D020000 		.4byte	0x25d
 615 0192 14       		.byte	0x14
 616 0193 06       		.uleb128 0x6
 617 0194 7B060000 		.4byte	.LASF35
 618 0198 07       		.byte	0x7
 619 0199 6E       		.byte	0x6e
 620 019a C0030000 		.4byte	0x3c0
 621 019e 18       		.byte	0x18
 622 019f 06       		.uleb128 0x6
 623 01a0 05050000 		.4byte	.LASF36
 624 01a4 07       		.byte	0x7
 625 01a5 79       		.byte	0x79
 626 01a6 E7000000 		.4byte	0xe7
 627 01aa 1C       		.byte	0x1c
ARM GAS  /var/folders/6q/x_mk5n_j3p7_c40r_2k_78980000gn/T//ccYTRlZX.s 			page 12


 628 01ab 06       		.uleb128 0x6
 629 01ac 32050000 		.4byte	.LASF37
 630 01b0 07       		.byte	0x7
 631 01b1 7D       		.byte	0x7d
 632 01b2 DC000000 		.4byte	0xdc
 633 01b6 1D       		.byte	0x1d
 634 01b7 06       		.uleb128 0x6
 635 01b8 93010000 		.4byte	.LASF38
 636 01bc 07       		.byte	0x7
 637 01bd 82       		.byte	0x82
 638 01be F2000000 		.4byte	0xf2
 639 01c2 1E       		.byte	0x1e
 640 01c3 06       		.uleb128 0x6
 641 01c4 0D050000 		.4byte	.LASF39
 642 01c8 07       		.byte	0x7
 643 01c9 88       		.byte	0x88
 644 01ca FD000000 		.4byte	0xfd
 645 01ce 1F       		.byte	0x1f
 646 01cf 06       		.uleb128 0x6
 647 01d0 B2010000 		.4byte	.LASF40
 648 01d4 07       		.byte	0x7
 649 01d5 8F       		.byte	0x8f
 650 01d6 44030000 		.4byte	0x344
 651 01da 20       		.byte	0x20
 652 01db 07       		.uleb128 0x7
 653 01dc 705F7500 		.ascii	"p_u\000"
 654 01e0 07       		.byte	0x7
 655 01e1 B4       		.byte	0xb4
 656 01e2 8B030000 		.4byte	0x38b
 657 01e6 24       		.byte	0x24
 658 01e7 06       		.uleb128 0x6
 659 01e8 C4060000 		.4byte	.LASF41
 660 01ec 07       		.byte	0x7
 661 01ed B9       		.byte	0xb9
 662 01ee 83020000 		.4byte	0x283
 663 01f2 28       		.byte	0x28
 664 01f3 06       		.uleb128 0x6
 665 01f4 28020000 		.4byte	.LASF42
 666 01f8 07       		.byte	0x7
 667 01f9 BF       		.byte	0xbf
 668 01fa 63020000 		.4byte	0x263
 669 01fe 2C       		.byte	0x2c
 670 01ff 06       		.uleb128 0x6
 671 0200 8A060000 		.4byte	.LASF43
 672 0204 07       		.byte	0x7
 673 0205 C3       		.byte	0xc3
 674 0206 13010000 		.4byte	0x113
 675 020a 34       		.byte	0x34
 676 020b 06       		.uleb128 0x6
 677 020c 5F050000 		.4byte	.LASF44
 678 0210 07       		.byte	0x7
 679 0211 C9       		.byte	0xc9
 680 0212 1E010000 		.4byte	0x11e
 681 0216 38       		.byte	0x38
 682 0217 06       		.uleb128 0x6
 683 0218 F0040000 		.4byte	.LASF45
 684 021c 07       		.byte	0x7
ARM GAS  /var/folders/6q/x_mk5n_j3p7_c40r_2k_78980000gn/T//ccYTRlZX.s 			page 13


 685 021d D0       		.byte	0xd0
 686 021e D2030000 		.4byte	0x3d2
 687 0222 3C       		.byte	0x3c
 688 0223 06       		.uleb128 0x6
 689 0224 D7050000 		.4byte	.LASF46
 690 0228 07       		.byte	0x7
 691 0229 D4       		.byte	0xd4
 692 022a 08010000 		.4byte	0x108
 693 022e 40       		.byte	0x40
 694 022f 06       		.uleb128 0x6
 695 0230 30010000 		.4byte	.LASF47
 696 0234 07       		.byte	0x7
 697 0235 DA       		.byte	0xda
 698 0236 99020000 		.4byte	0x299
 699 023a 44       		.byte	0x44
 700 023b 00       		.byte	0
 701 023c 08       		.uleb128 0x8
 702 023d 08       		.byte	0x8
 703 023e 06       		.byte	0x6
 704 023f 61       		.byte	0x61
 705 0240 5D020000 		.4byte	0x25d
 706 0244 06       		.uleb128 0x6
 707 0245 2B050000 		.4byte	.LASF29
 708 0249 06       		.byte	0x6
 709 024a 62       		.byte	0x62
 710 024b 5D020000 		.4byte	0x25d
 711 024f 00       		.byte	0
 712 0250 06       		.uleb128 0x6
 713 0251 75040000 		.4byte	.LASF30
 714 0255 06       		.byte	0x6
 715 0256 64       		.byte	0x64
 716 0257 5D020000 		.4byte	0x25d
 717 025b 04       		.byte	0x4
 718 025c 00       		.byte	0
 719 025d 09       		.uleb128 0x9
 720 025e 04       		.byte	0x4
 721 025f 34010000 		.4byte	0x134
 722 0263 03       		.uleb128 0x3
 723 0264 04040000 		.4byte	.LASF48
 724 0268 06       		.byte	0x6
 725 0269 66       		.byte	0x66
 726 026a 3C020000 		.4byte	0x23c
 727 026e 08       		.uleb128 0x8
 728 026f 04       		.byte	0x4
 729 0270 06       		.byte	0x6
 730 0271 6B       		.byte	0x6b
 731 0272 83020000 		.4byte	0x283
 732 0276 06       		.uleb128 0x6
 733 0277 2B050000 		.4byte	.LASF29
 734 027b 06       		.byte	0x6
 735 027c 6D       		.byte	0x6d
 736 027d 5D020000 		.4byte	0x25d
 737 0281 00       		.byte	0
 738 0282 00       		.byte	0
 739 0283 03       		.uleb128 0x3
 740 0284 78030000 		.4byte	.LASF49
 741 0288 06       		.byte	0x6
ARM GAS  /var/folders/6q/x_mk5n_j3p7_c40r_2k_78980000gn/T//ccYTRlZX.s 			page 14


 742 0289 70       		.byte	0x70
 743 028a 6E020000 		.4byte	0x26e
 744 028e 03       		.uleb128 0x3
 745 028f EE010000 		.4byte	.LASF50
 746 0293 08       		.byte	0x8
 747 0294 E5       		.byte	0xe5
 748 0295 99020000 		.4byte	0x299
 749 0299 0A       		.uleb128 0xa
 750 029a 04       		.byte	0x4
 751 029b 0B       		.uleb128 0xb
 752 029c FE050000 		.4byte	.LASF51
 753 02a0 24       		.byte	0x24
 754 02a1 08       		.byte	0x8
 755 02a2 0C01     		.2byte	0x10c
 756 02a4 17030000 		.4byte	0x317
 757 02a8 0C       		.uleb128 0xc
 758 02a9 723400   		.ascii	"r4\000"
 759 02ac 08       		.byte	0x8
 760 02ad 1F01     		.2byte	0x11f
 761 02af 8E020000 		.4byte	0x28e
 762 02b3 00       		.byte	0
 763 02b4 0C       		.uleb128 0xc
 764 02b5 723500   		.ascii	"r5\000"
 765 02b8 08       		.byte	0x8
 766 02b9 2001     		.2byte	0x120
 767 02bb 8E020000 		.4byte	0x28e
 768 02bf 04       		.byte	0x4
 769 02c0 0C       		.uleb128 0xc
 770 02c1 723600   		.ascii	"r6\000"
 771 02c4 08       		.byte	0x8
 772 02c5 2101     		.2byte	0x121
 773 02c7 8E020000 		.4byte	0x28e
 774 02cb 08       		.byte	0x8
 775 02cc 0C       		.uleb128 0xc
 776 02cd 723700   		.ascii	"r7\000"
 777 02d0 08       		.byte	0x8
 778 02d1 2201     		.2byte	0x122
 779 02d3 8E020000 		.4byte	0x28e
 780 02d7 0C       		.byte	0xc
 781 02d8 0C       		.uleb128 0xc
 782 02d9 723800   		.ascii	"r8\000"
 783 02dc 08       		.byte	0x8
 784 02dd 2301     		.2byte	0x123
 785 02df 8E020000 		.4byte	0x28e
 786 02e3 10       		.byte	0x10
 787 02e4 0C       		.uleb128 0xc
 788 02e5 723900   		.ascii	"r9\000"
 789 02e8 08       		.byte	0x8
 790 02e9 2401     		.2byte	0x124
 791 02eb 8E020000 		.4byte	0x28e
 792 02ef 14       		.byte	0x14
 793 02f0 0C       		.uleb128 0xc
 794 02f1 72313000 		.ascii	"r10\000"
 795 02f5 08       		.byte	0x8
 796 02f6 2501     		.2byte	0x125
 797 02f8 8E020000 		.4byte	0x28e
 798 02fc 18       		.byte	0x18
ARM GAS  /var/folders/6q/x_mk5n_j3p7_c40r_2k_78980000gn/T//ccYTRlZX.s 			page 15


 799 02fd 0C       		.uleb128 0xc
 800 02fe 72313100 		.ascii	"r11\000"
 801 0302 08       		.byte	0x8
 802 0303 2601     		.2byte	0x126
 803 0305 8E020000 		.4byte	0x28e
 804 0309 1C       		.byte	0x1c
 805 030a 0C       		.uleb128 0xc
 806 030b 6C7200   		.ascii	"lr\000"
 807 030e 08       		.byte	0x8
 808 030f 2701     		.2byte	0x127
 809 0311 8E020000 		.4byte	0x28e
 810 0315 20       		.byte	0x20
 811 0316 00       		.byte	0
 812 0317 0B       		.uleb128 0xb
 813 0318 F6050000 		.4byte	.LASF52
 814 031c 04       		.byte	0x4
 815 031d 08       		.byte	0x8
 816 031e 3101     		.2byte	0x131
 817 0320 32030000 		.4byte	0x332
 818 0324 0C       		.uleb128 0xc
 819 0325 72313300 		.ascii	"r13\000"
 820 0329 08       		.byte	0x8
 821 032a 3201     		.2byte	0x132
 822 032c 32030000 		.4byte	0x332
 823 0330 00       		.byte	0
 824 0331 00       		.byte	0
 825 0332 09       		.uleb128 0x9
 826 0333 04       		.byte	0x4
 827 0334 9B020000 		.4byte	0x29b
 828 0338 0D       		.uleb128 0xd
 829 0339 CA000000 		.4byte	0xca
 830 033d 04       		.uleb128 0x4
 831 033e 04       		.byte	0x4
 832 033f 07       		.byte	0x7
 833 0340 B5030000 		.4byte	.LASF53
 834 0344 0D       		.uleb128 0xd
 835 0345 29010000 		.4byte	0x129
 836 0349 05       		.uleb128 0x5
 837 034a CA030000 		.4byte	.LASF54
 838 034e 10       		.byte	0x10
 839 034f 09       		.byte	0x9
 840 0350 2C       		.byte	0x2c
 841 0351 7A030000 		.4byte	0x37a
 842 0355 06       		.uleb128 0x6
 843 0356 38010000 		.4byte	.LASF55
 844 035a 09       		.byte	0x9
 845 035b 2D       		.byte	0x2d
 846 035c 63020000 		.4byte	0x263
 847 0360 00       		.byte	0
 848 0361 06       		.uleb128 0x6
 849 0362 B6060000 		.4byte	.LASF56
 850 0366 09       		.byte	0x9
 851 0367 2F       		.byte	0x2f
 852 0368 5D020000 		.4byte	0x25d
 853 036c 08       		.byte	0x8
 854 036d 06       		.uleb128 0x6
 855 036e C6050000 		.4byte	.LASF57
ARM GAS  /var/folders/6q/x_mk5n_j3p7_c40r_2k_78980000gn/T//ccYTRlZX.s 			page 16


 856 0372 09       		.byte	0x9
 857 0373 31       		.byte	0x31
 858 0374 7A030000 		.4byte	0x37a
 859 0378 0C       		.byte	0xc
 860 0379 00       		.byte	0
 861 037a 09       		.uleb128 0x9
 862 037b 04       		.byte	0x4
 863 037c 49030000 		.4byte	0x349
 864 0380 03       		.uleb128 0x3
 865 0381 CA030000 		.4byte	.LASF54
 866 0385 09       		.byte	0x9
 867 0386 33       		.byte	0x33
 868 0387 49030000 		.4byte	0x349
 869 038b 0E       		.uleb128 0xe
 870 038c 04       		.byte	0x4
 871 038d 07       		.byte	0x7
 872 038e 96       		.byte	0x96
 873 038f C0030000 		.4byte	0x3c0
 874 0393 0F       		.uleb128 0xf
 875 0394 36000000 		.4byte	.LASF58
 876 0398 07       		.byte	0x7
 877 0399 9D       		.byte	0x9d
 878 039a 13010000 		.4byte	0x113
 879 039e 0F       		.uleb128 0xf
 880 039f A0000000 		.4byte	.LASF59
 881 03a3 07       		.byte	0x7
 882 03a4 A4       		.byte	0xa4
 883 03a5 13010000 		.4byte	0x113
 884 03a9 0F       		.uleb128 0xf
 885 03aa 74060000 		.4byte	.LASF60
 886 03ae 07       		.byte	0x7
 887 03af AB       		.byte	0xab
 888 03b0 99020000 		.4byte	0x299
 889 03b4 0F       		.uleb128 0xf
 890 03b5 24050000 		.4byte	.LASF61
 891 03b9 07       		.byte	0x7
 892 03ba B2       		.byte	0xb2
 893 03bb 1E010000 		.4byte	0x11e
 894 03bf 00       		.byte	0
 895 03c0 09       		.uleb128 0x9
 896 03c1 04       		.byte	0x4
 897 03c2 CD030000 		.4byte	0x3cd
 898 03c6 04       		.uleb128 0x4
 899 03c7 01       		.byte	0x1
 900 03c8 08       		.byte	0x8
 901 03c9 AF050000 		.4byte	.LASF62
 902 03cd 10       		.uleb128 0x10
 903 03ce C6030000 		.4byte	0x3c6
 904 03d2 09       		.uleb128 0x9
 905 03d3 04       		.byte	0x4
 906 03d4 80030000 		.4byte	0x380
 907 03d8 09       		.uleb128 0x9
 908 03d9 04       		.byte	0x4
 909 03da A9000000 		.4byte	0xa9
 910 03de 09       		.uleb128 0x9
 911 03df 04       		.byte	0x4
 912 03e0 E4030000 		.4byte	0x3e4
ARM GAS  /var/folders/6q/x_mk5n_j3p7_c40r_2k_78980000gn/T//ccYTRlZX.s 			page 17


 913 03e4 10       		.uleb128 0x10
 914 03e5 A9000000 		.4byte	0xa9
 915 03e9 0D       		.uleb128 0xd
 916 03ea B4000000 		.4byte	0xb4
 917 03ee 0D       		.uleb128 0xd
 918 03ef BF000000 		.4byte	0xbf
 919 03f3 11       		.uleb128 0x11
 920 03f4 10       		.byte	0x10
 921 03f5 0A       		.byte	0xa
 922 03f6 2D03     		.2byte	0x32d
 923 03f8 31040000 		.4byte	0x431
 924 03fc 0C       		.uleb128 0xc
 925 03fd 43435200 		.ascii	"CCR\000"
 926 0401 0A       		.byte	0xa
 927 0402 2F03     		.2byte	0x32f
 928 0404 38030000 		.4byte	0x338
 929 0408 00       		.byte	0
 930 0409 12       		.uleb128 0x12
 931 040a 3F060000 		.4byte	.LASF63
 932 040e 0A       		.byte	0xa
 933 040f 3003     		.2byte	0x330
 934 0411 38030000 		.4byte	0x338
 935 0415 04       		.byte	0x4
 936 0416 12       		.uleb128 0x12
 937 0417 23020000 		.4byte	.LASF64
 938 041b 0A       		.byte	0xa
 939 041c 3103     		.2byte	0x331
 940 041e 38030000 		.4byte	0x338
 941 0422 08       		.byte	0x8
 942 0423 12       		.uleb128 0x12
 943 0424 45060000 		.4byte	.LASF65
 944 0428 0A       		.byte	0xa
 945 0429 3203     		.2byte	0x332
 946 042b 38030000 		.4byte	0x338
 947 042f 0C       		.byte	0xc
 948 0430 00       		.byte	0
 949 0431 13       		.uleb128 0x13
 950 0432 3B020000 		.4byte	.LASF66
 951 0436 0A       		.byte	0xa
 952 0437 3303     		.2byte	0x333
 953 0439 F3030000 		.4byte	0x3f3
 954 043d 11       		.uleb128 0x11
 955 043e 24       		.byte	0x24
 956 043f 0A       		.byte	0xa
 957 0440 1304     		.2byte	0x413
 958 0442 30050000 		.4byte	0x530
 959 0446 0C       		.uleb128 0xc
 960 0447 43523100 		.ascii	"CR1\000"
 961 044b 0A       		.byte	0xa
 962 044c 1504     		.2byte	0x415
 963 044e E9030000 		.4byte	0x3e9
 964 0452 00       		.byte	0
 965 0453 12       		.uleb128 0x12
 966 0454 43040000 		.4byte	.LASF67
 967 0458 0A       		.byte	0xa
 968 0459 1604     		.2byte	0x416
 969 045b B4000000 		.4byte	0xb4
ARM GAS  /var/folders/6q/x_mk5n_j3p7_c40r_2k_78980000gn/T//ccYTRlZX.s 			page 18


 970 045f 02       		.byte	0x2
 971 0460 0C       		.uleb128 0xc
 972 0461 43523200 		.ascii	"CR2\000"
 973 0465 0A       		.byte	0xa
 974 0466 1704     		.2byte	0x417
 975 0468 E9030000 		.4byte	0x3e9
 976 046c 04       		.byte	0x4
 977 046d 12       		.uleb128 0x12
 978 046e 4D040000 		.4byte	.LASF68
 979 0472 0A       		.byte	0xa
 980 0473 1804     		.2byte	0x418
 981 0475 B4000000 		.4byte	0xb4
 982 0479 06       		.byte	0x6
 983 047a 12       		.uleb128 0x12
 984 047b 52060000 		.4byte	.LASF69
 985 047f 0A       		.byte	0xa
 986 0480 1904     		.2byte	0x419
 987 0482 E9030000 		.4byte	0x3e9
 988 0486 08       		.byte	0x8
 989 0487 12       		.uleb128 0x12
 990 0488 57040000 		.4byte	.LASF70
 991 048c 0A       		.byte	0xa
 992 048d 1A04     		.2byte	0x41a
 993 048f B4000000 		.4byte	0xb4
 994 0493 0A       		.byte	0xa
 995 0494 12       		.uleb128 0x12
 996 0495 57060000 		.4byte	.LASF71
 997 0499 0A       		.byte	0xa
 998 049a 1B04     		.2byte	0x41b
 999 049c E9030000 		.4byte	0x3e9
 1000 04a0 0C       		.byte	0xc
 1001 04a1 12       		.uleb128 0x12
 1002 04a2 61040000 		.4byte	.LASF72
 1003 04a6 0A       		.byte	0xa
 1004 04a7 1C04     		.2byte	0x41c
 1005 04a9 B4000000 		.4byte	0xb4
 1006 04ad 0E       		.byte	0xe
 1007 04ae 0C       		.uleb128 0xc
 1008 04af 445200   		.ascii	"DR\000"
 1009 04b2 0A       		.byte	0xa
 1010 04b3 1D04     		.2byte	0x41d
 1011 04b5 E9030000 		.4byte	0x3e9
 1012 04b9 10       		.byte	0x10
 1013 04ba 12       		.uleb128 0x12
 1014 04bb 6B040000 		.4byte	.LASF73
 1015 04bf 0A       		.byte	0xa
 1016 04c0 1E04     		.2byte	0x41e
 1017 04c2 B4000000 		.4byte	0xb4
 1018 04c6 12       		.byte	0x12
 1019 04c7 0C       		.uleb128 0xc
 1020 04c8 53523100 		.ascii	"SR1\000"
 1021 04cc 0A       		.byte	0xa
 1022 04cd 1F04     		.2byte	0x41f
 1023 04cf E9030000 		.4byte	0x3e9
 1024 04d3 14       		.byte	0x14
 1025 04d4 12       		.uleb128 0x12
 1026 04d5 7C050000 		.4byte	.LASF74
ARM GAS  /var/folders/6q/x_mk5n_j3p7_c40r_2k_78980000gn/T//ccYTRlZX.s 			page 19


 1027 04d9 0A       		.byte	0xa
 1028 04da 2004     		.2byte	0x420
 1029 04dc B4000000 		.4byte	0xb4
 1030 04e0 16       		.byte	0x16
 1031 04e1 0C       		.uleb128 0xc
 1032 04e2 53523200 		.ascii	"SR2\000"
 1033 04e6 0A       		.byte	0xa
 1034 04e7 2104     		.2byte	0x421
 1035 04e9 E9030000 		.4byte	0x3e9
 1036 04ed 18       		.byte	0x18
 1037 04ee 12       		.uleb128 0x12
 1038 04ef 7C040000 		.4byte	.LASF75
 1039 04f3 0A       		.byte	0xa
 1040 04f4 2204     		.2byte	0x422
 1041 04f6 B4000000 		.4byte	0xb4
 1042 04fa 1A       		.byte	0x1a
 1043 04fb 0C       		.uleb128 0xc
 1044 04fc 43435200 		.ascii	"CCR\000"
 1045 0500 0A       		.byte	0xa
 1046 0501 2304     		.2byte	0x423
 1047 0503 E9030000 		.4byte	0x3e9
 1048 0507 1C       		.byte	0x1c
 1049 0508 12       		.uleb128 0x12
 1050 0509 86040000 		.4byte	.LASF76
 1051 050d 0A       		.byte	0xa
 1052 050e 2404     		.2byte	0x424
 1053 0510 B4000000 		.4byte	0xb4
 1054 0514 1E       		.byte	0x1e
 1055 0515 12       		.uleb128 0x12
 1056 0516 6F000000 		.4byte	.LASF77
 1057 051a 0A       		.byte	0xa
 1058 051b 2504     		.2byte	0x425
 1059 051d E9030000 		.4byte	0x3e9
 1060 0521 20       		.byte	0x20
 1061 0522 12       		.uleb128 0x12
 1062 0523 90040000 		.4byte	.LASF78
 1063 0527 0A       		.byte	0xa
 1064 0528 2604     		.2byte	0x426
 1065 052a B4000000 		.4byte	0xb4
 1066 052e 22       		.byte	0x22
 1067 052f 00       		.byte	0
 1068 0530 13       		.uleb128 0x13
 1069 0531 90060000 		.4byte	.LASF79
 1070 0535 0A       		.byte	0xa
 1071 0536 2704     		.2byte	0x427
 1072 0538 3D040000 		.4byte	0x43d
 1073 053c 08       		.uleb128 0x8
 1074 053d 0C       		.byte	0xc
 1075 053e 0B       		.byte	0xb
 1076 053f C1       		.byte	0xc1
 1077 0540 81050000 		.4byte	0x581
 1078 0544 06       		.uleb128 0x6
 1079 0545 4C050000 		.4byte	.LASF80
 1080 0549 0B       		.byte	0xb
 1081 054a C2       		.byte	0xc2
 1082 054b 81050000 		.4byte	0x581
 1083 054f 00       		.byte	0
ARM GAS  /var/folders/6q/x_mk5n_j3p7_c40r_2k_78980000gn/T//ccYTRlZX.s 			page 20


 1084 0550 06       		.uleb128 0x6
 1085 0551 6A050000 		.4byte	.LASF81
 1086 0555 0B       		.byte	0xb
 1087 0556 C3       		.byte	0xc3
 1088 0557 87050000 		.4byte	0x587
 1089 055b 04       		.byte	0x4
 1090 055c 06       		.uleb128 0x6
 1091 055d 4F020000 		.4byte	.LASF82
 1092 0561 0B       		.byte	0xb
 1093 0562 C4       		.byte	0xc4
 1094 0563 A9000000 		.4byte	0xa9
 1095 0567 08       		.byte	0x8
 1096 0568 06       		.uleb128 0x6
 1097 0569 F7010000 		.4byte	.LASF83
 1098 056d 0B       		.byte	0xb
 1099 056e C6       		.byte	0xc6
 1100 056f A9000000 		.4byte	0xa9
 1101 0573 09       		.byte	0x9
 1102 0574 06       		.uleb128 0x6
 1103 0575 A9000000 		.4byte	.LASF84
 1104 0579 0B       		.byte	0xb
 1105 057a C7       		.byte	0xc7
 1106 057b A9000000 		.4byte	0xa9
 1107 057f 0A       		.byte	0xa
 1108 0580 00       		.byte	0
 1109 0581 09       		.uleb128 0x9
 1110 0582 04       		.byte	0x4
 1111 0583 31040000 		.4byte	0x431
 1112 0587 09       		.uleb128 0x9
 1113 0588 04       		.byte	0x4
 1114 0589 38030000 		.4byte	0x338
 1115 058d 03       		.uleb128 0x3
 1116 058e DD040000 		.4byte	.LASF85
 1117 0592 0B       		.byte	0xb
 1118 0593 C8       		.byte	0xc8
 1119 0594 3C050000 		.4byte	0x53c
 1120 0598 09       		.uleb128 0x9
 1121 0599 04       		.byte	0x4
 1122 059a 9E050000 		.4byte	0x59e
 1123 059e 10       		.uleb128 0x10
 1124 059f 8D050000 		.4byte	0x58d
 1125 05a3 14       		.uleb128 0x14
 1126 05a4 01       		.byte	0x1
 1127 05a5 5E000000 		.4byte	0x5e
 1128 05a9 0C       		.byte	0xc
 1129 05aa 5A       		.byte	0x5a
 1130 05ab D4050000 		.4byte	0x5d4
 1131 05af 15       		.uleb128 0x15
 1132 05b0 FA040000 		.4byte	.LASF86
 1133 05b4 00       		.byte	0
 1134 05b5 15       		.uleb128 0x15
 1135 05b6 47000000 		.4byte	.LASF87
 1136 05ba 01       		.byte	0x1
 1137 05bb 15       		.uleb128 0x15
 1138 05bc EC050000 		.4byte	.LASF88
 1139 05c0 02       		.byte	0x2
 1140 05c1 15       		.uleb128 0x15
ARM GAS  /var/folders/6q/x_mk5n_j3p7_c40r_2k_78980000gn/T//ccYTRlZX.s 			page 21


 1141 05c2 A2040000 		.4byte	.LASF89
 1142 05c6 03       		.byte	0x3
 1143 05c7 15       		.uleb128 0x15
 1144 05c8 8F050000 		.4byte	.LASF90
 1145 05cc 04       		.byte	0x4
 1146 05cd 15       		.uleb128 0x15
 1147 05ce 54050000 		.4byte	.LASF91
 1148 05d2 05       		.byte	0x5
 1149 05d3 00       		.byte	0
 1150 05d4 03       		.uleb128 0x3
 1151 05d5 24000000 		.4byte	.LASF92
 1152 05d9 0C       		.byte	0xc
 1153 05da 61       		.byte	0x61
 1154 05db A3050000 		.4byte	0x5a3
 1155 05df 13       		.uleb128 0x13
 1156 05e0 6A010000 		.4byte	.LASF93
 1157 05e4 0D       		.byte	0xd
 1158 05e5 3501     		.2byte	0x135
 1159 05e7 B4000000 		.4byte	0xb4
 1160 05eb 13       		.uleb128 0x13
 1161 05ec B0040000 		.4byte	.LASF94
 1162 05f0 0D       		.byte	0xd
 1163 05f1 3A01     		.2byte	0x13a
 1164 05f3 CA000000 		.4byte	0xca
 1165 05f7 16       		.uleb128 0x16
 1166 05f8 01       		.byte	0x1
 1167 05f9 5E000000 		.4byte	0x5e
 1168 05fd 0D       		.byte	0xd
 1169 05fe 3F01     		.2byte	0x13f
 1170 0600 17060000 		.4byte	0x617
 1171 0604 15       		.uleb128 0x15
 1172 0605 1B040000 		.4byte	.LASF95
 1173 0609 01       		.byte	0x1
 1174 060a 15       		.uleb128 0x15
 1175 060b 30030000 		.4byte	.LASF96
 1176 060f 02       		.byte	0x2
 1177 0610 15       		.uleb128 0x15
 1178 0611 D1010000 		.4byte	.LASF97
 1179 0615 03       		.byte	0x3
 1180 0616 00       		.byte	0
 1181 0617 13       		.uleb128 0x13
 1182 0618 9C060000 		.4byte	.LASF98
 1183 061c 0D       		.byte	0xd
 1184 061d 4301     		.2byte	0x143
 1185 061f F7050000 		.4byte	0x5f7
 1186 0623 16       		.uleb128 0x16
 1187 0624 01       		.byte	0x1
 1188 0625 5E000000 		.4byte	0x5e
 1189 0629 0D       		.byte	0xd
 1190 062a 4801     		.2byte	0x148
 1191 062c 43060000 		.4byte	0x643
 1192 0630 15       		.uleb128 0x15
 1193 0631 00000000 		.4byte	.LASF99
 1194 0635 01       		.byte	0x1
 1195 0636 15       		.uleb128 0x15
 1196 0637 3A050000 		.4byte	.LASF100
 1197 063b 02       		.byte	0x2
ARM GAS  /var/folders/6q/x_mk5n_j3p7_c40r_2k_78980000gn/T//ccYTRlZX.s 			page 22


 1198 063c 15       		.uleb128 0x15
 1199 063d 26040000 		.4byte	.LASF101
 1200 0641 03       		.byte	0x3
 1201 0642 00       		.byte	0
 1202 0643 13       		.uleb128 0x13
 1203 0644 15000000 		.4byte	.LASF102
 1204 0648 0D       		.byte	0xd
 1205 0649 4C01     		.2byte	0x14c
 1206 064b 23060000 		.4byte	0x623
 1207 064f 11       		.uleb128 0x11
 1208 0650 0C       		.byte	0xc
 1209 0651 0D       		.byte	0xd
 1210 0652 5101     		.2byte	0x151
 1211 0654 80060000 		.4byte	0x680
 1212 0658 12       		.uleb128 0x12
 1213 0659 01020000 		.4byte	.LASF103
 1214 065d 0D       		.byte	0xd
 1215 065e 5201     		.2byte	0x152
 1216 0660 17060000 		.4byte	0x617
 1217 0664 00       		.byte	0
 1218 0665 12       		.uleb128 0x12
 1219 0666 24010000 		.4byte	.LASF104
 1220 066a 0D       		.byte	0xd
 1221 066b 5301     		.2byte	0x153
 1222 066d CA000000 		.4byte	0xca
 1223 0671 04       		.byte	0x4
 1224 0672 12       		.uleb128 0x12
 1225 0673 D7030000 		.4byte	.LASF105
 1226 0677 0D       		.byte	0xd
 1227 0678 5601     		.2byte	0x156
 1228 067a 43060000 		.4byte	0x643
 1229 067e 08       		.byte	0x8
 1230 067f 00       		.byte	0
 1231 0680 13       		.uleb128 0x13
 1232 0681 A8010000 		.4byte	.LASF106
 1233 0685 0D       		.byte	0xd
 1234 0686 5801     		.2byte	0x158
 1235 0688 4F060000 		.4byte	0x64f
 1236 068c 13       		.uleb128 0x13
 1237 068d 57030000 		.4byte	.LASF107
 1238 0691 0D       		.byte	0xd
 1239 0692 5D01     		.2byte	0x15d
 1240 0694 98060000 		.4byte	0x698
 1241 0698 0B       		.uleb128 0xb
 1242 0699 57030000 		.4byte	.LASF107
 1243 069d 38       		.byte	0x38
 1244 069e 0D       		.byte	0xd
 1245 069f 6201     		.2byte	0x162
 1246 06a1 35070000 		.4byte	0x735
 1247 06a5 12       		.uleb128 0x12
 1248 06a6 74010000 		.4byte	.LASF108
 1249 06aa 0D       		.byte	0xd
 1250 06ab 6601     		.2byte	0x166
 1251 06ad D4050000 		.4byte	0x5d4
 1252 06b1 00       		.byte	0
 1253 06b2 12       		.uleb128 0x12
 1254 06b3 B4050000 		.4byte	.LASF109
ARM GAS  /var/folders/6q/x_mk5n_j3p7_c40r_2k_78980000gn/T//ccYTRlZX.s 			page 23


 1255 06b7 0D       		.byte	0xd
 1256 06b8 6A01     		.2byte	0x16a
 1257 06ba 35070000 		.4byte	0x735
 1258 06be 04       		.byte	0x4
 1259 06bf 12       		.uleb128 0x12
 1260 06c0 D0030000 		.4byte	.LASF110
 1261 06c4 0D       		.byte	0xd
 1262 06c5 6E01     		.2byte	0x16e
 1263 06c7 EB050000 		.4byte	0x5eb
 1264 06cb 08       		.byte	0x8
 1265 06cc 12       		.uleb128 0x12
 1266 06cd BB040000 		.4byte	.LASF111
 1267 06d1 0D       		.byte	0xd
 1268 06d2 7401     		.2byte	0x174
 1269 06d4 80030000 		.4byte	0x380
 1270 06d8 0C       		.byte	0xc
 1271 06d9 12       		.uleb128 0x12
 1272 06da 8C010000 		.4byte	.LASF112
 1273 06de 0D       		.byte	0xd
 1274 06df 8001     		.2byte	0x180
 1275 06e1 5D020000 		.4byte	0x25d
 1276 06e5 1C       		.byte	0x1c
 1277 06e6 12       		.uleb128 0x12
 1278 06e7 92000000 		.4byte	.LASF113
 1279 06eb 0D       		.byte	0xd
 1280 06ec 8401     		.2byte	0x184
 1281 06ee DF050000 		.4byte	0x5df
 1282 06f2 20       		.byte	0x20
 1283 06f3 12       		.uleb128 0x12
 1284 06f4 C1010000 		.4byte	.LASF114
 1285 06f8 0D       		.byte	0xd
 1286 06f9 8801     		.2byte	0x188
 1287 06fb CA000000 		.4byte	0xca
 1288 06ff 24       		.byte	0x24
 1289 0700 12       		.uleb128 0x12
 1290 0701 11040000 		.4byte	.LASF115
 1291 0705 0D       		.byte	0xd
 1292 0706 8C01     		.2byte	0x18c
 1293 0708 CA000000 		.4byte	0xca
 1294 070c 28       		.byte	0x28
 1295 070d 12       		.uleb128 0x12
 1296 070e 0F000000 		.4byte	.LASF116
 1297 0712 0D       		.byte	0xd
 1298 0713 9001     		.2byte	0x190
 1299 0715 98050000 		.4byte	0x598
 1300 0719 2C       		.byte	0x2c
 1301 071a 12       		.uleb128 0x12
 1302 071b CB010000 		.4byte	.LASF117
 1303 071f 0D       		.byte	0xd
 1304 0720 9401     		.2byte	0x194
 1305 0722 98050000 		.4byte	0x598
 1306 0726 30       		.byte	0x30
 1307 0727 0C       		.uleb128 0xc
 1308 0728 69326300 		.ascii	"i2c\000"
 1309 072c 0D       		.byte	0xd
 1310 072d 9801     		.2byte	0x198
 1311 072f 40070000 		.4byte	0x740
ARM GAS  /var/folders/6q/x_mk5n_j3p7_c40r_2k_78980000gn/T//ccYTRlZX.s 			page 24


 1312 0733 34       		.byte	0x34
 1313 0734 00       		.byte	0
 1314 0735 09       		.uleb128 0x9
 1315 0736 04       		.byte	0x4
 1316 0737 3B070000 		.4byte	0x73b
 1317 073b 10       		.uleb128 0x10
 1318 073c 80060000 		.4byte	0x680
 1319 0740 09       		.uleb128 0x9
 1320 0741 04       		.byte	0x4
 1321 0742 30050000 		.4byte	0x530
 1322 0746 17       		.uleb128 0x17
 1323 0747 82060000 		.4byte	.LASF118
 1324 074b 01       		.byte	0x1
 1325 074c 47       		.byte	0x47
 1326 074d 00000000 		.4byte	.LFB63
 1327 0751 04000000 		.4byte	.LFE63-.LFB63
 1328 0755 01       		.uleb128 0x1
 1329 0756 9C       		.byte	0x9c
 1330 0757 65070000 		.4byte	0x765
 1331 075b 18       		.uleb128 0x18
 1332 075c 04000000 		.4byte	.LVL0
 1333 0760 C50A0000 		.4byte	0xac5
 1334 0764 00       		.byte	0
 1335 0765 17       		.uleb128 0x17
 1336 0766 A8060000 		.4byte	.LASF119
 1337 076a 01       		.byte	0x1
 1338 076b 52       		.byte	0x52
 1339 076c 00000000 		.4byte	.LFB64
 1340 0770 0E000000 		.4byte	.LFE64-.LFB64
 1341 0774 01       		.uleb128 0x1
 1342 0775 9C       		.byte	0x9c
 1343 0776 9D070000 		.4byte	0x79d
 1344 077a 19       		.uleb128 0x19
 1345 077b CB000000 		.4byte	.LASF121
 1346 077f 01       		.byte	0x1
 1347 0780 52       		.byte	0x52
 1348 0781 9D070000 		.4byte	0x79d
 1349 0785 00000000 		.4byte	.LLST0
 1350 0789 1A       		.uleb128 0x1a
 1351 078a 0E000000 		.4byte	.LVL3
 1352 078e D10A0000 		.4byte	0xad1
 1353 0792 1B       		.uleb128 0x1b
 1354 0793 01       		.uleb128 0x1
 1355 0794 50       		.byte	0x50
 1356 0795 05       		.uleb128 0x5
 1357 0796 F3       		.byte	0xf3
 1358 0797 01       		.uleb128 0x1
 1359 0798 50       		.byte	0x50
 1360 0799 23       		.byte	0x23
 1361 079a 0C       		.uleb128 0xc
 1362 079b 00       		.byte	0
 1363 079c 00       		.byte	0
 1364 079d 09       		.uleb128 0x9
 1365 079e 04       		.byte	0x4
 1366 079f 8C060000 		.4byte	0x68c
 1367 07a3 17       		.uleb128 0x17
 1368 07a4 97000000 		.4byte	.LASF120
ARM GAS  /var/folders/6q/x_mk5n_j3p7_c40r_2k_78980000gn/T//ccYTRlZX.s 			page 25


 1369 07a8 01       		.byte	0x1
 1370 07a9 6C       		.byte	0x6c
 1371 07aa 00000000 		.4byte	.LFB65
 1372 07ae 1C000000 		.4byte	.LFE65-.LFB65
 1373 07b2 01       		.uleb128 0x1
 1374 07b3 9C       		.byte	0x9c
 1375 07b4 19080000 		.4byte	0x819
 1376 07b8 19       		.uleb128 0x19
 1377 07b9 CB000000 		.4byte	.LASF121
 1378 07bd 01       		.byte	0x1
 1379 07be 6C       		.byte	0x6c
 1380 07bf 9D070000 		.4byte	0x79d
 1381 07c3 2E000000 		.4byte	.LLST1
 1382 07c7 19       		.uleb128 0x19
 1383 07c8 B4050000 		.4byte	.LASF109
 1384 07cc 01       		.byte	0x1
 1385 07cd 6C       		.byte	0x6c
 1386 07ce 35070000 		.4byte	0x735
 1387 07d2 4C000000 		.4byte	.LLST2
 1388 07d6 1C       		.uleb128 0x1c
 1389 07d7 00000000 		.4byte	.Ldebug_ranges0+0
 1390 07db ED070000 		.4byte	0x7ed
 1391 07df 1D       		.uleb128 0x1d
 1392 07e0 746D7000 		.ascii	"tmp\000"
 1393 07e4 01       		.byte	0x1
 1394 07e5 74       		.byte	0x74
 1395 07e6 CA000000 		.4byte	0xca
 1396 07ea 01       		.uleb128 0x1
 1397 07eb 53       		.byte	0x53
 1398 07ec 00       		.byte	0
 1399 07ed 1E       		.uleb128 0x1e
 1400 07ee 14000000 		.4byte	.LBB4
 1401 07f2 08000000 		.4byte	.LBE4-.LBB4
 1402 07f6 08080000 		.4byte	0x808
 1403 07fa 1D       		.uleb128 0x1d
 1404 07fb 746D7000 		.ascii	"tmp\000"
 1405 07ff 01       		.byte	0x1
 1406 0800 78       		.byte	0x78
 1407 0801 CA000000 		.4byte	0xca
 1408 0805 01       		.uleb128 0x1
 1409 0806 53       		.byte	0x53
 1410 0807 00       		.byte	0
 1411 0808 1F       		.uleb128 0x1f
 1412 0809 10000000 		.4byte	.LVL5
 1413 080d DC0A0000 		.4byte	0xadc
 1414 0811 1B       		.uleb128 0x1b
 1415 0812 01       		.uleb128 0x1
 1416 0813 50       		.byte	0x50
 1417 0814 02       		.uleb128 0x2
 1418 0815 74       		.byte	0x74
 1419 0816 00       		.sleb128 0
 1420 0817 00       		.byte	0
 1421 0818 00       		.byte	0
 1422 0819 17       		.uleb128 0x17
 1423 081a FC030000 		.4byte	.LASF122
 1424 081e 01       		.byte	0x1
 1425 081f 82       		.byte	0x82
ARM GAS  /var/folders/6q/x_mk5n_j3p7_c40r_2k_78980000gn/T//ccYTRlZX.s 			page 26


 1426 0820 00000000 		.4byte	.LFB66
 1427 0824 1A000000 		.4byte	.LFE66-.LFB66
 1428 0828 01       		.uleb128 0x1
 1429 0829 9C       		.byte	0x9c
 1430 082a 80080000 		.4byte	0x880
 1431 082e 19       		.uleb128 0x19
 1432 082f CB000000 		.4byte	.LASF121
 1433 0833 01       		.byte	0x1
 1434 0834 82       		.byte	0x82
 1435 0835 9D070000 		.4byte	0x79d
 1436 0839 6D000000 		.4byte	.LLST3
 1437 083d 1C       		.uleb128 0x1c
 1438 083e 18000000 		.4byte	.Ldebug_ranges0+0x18
 1439 0842 54080000 		.4byte	0x854
 1440 0846 1D       		.uleb128 0x1d
 1441 0847 746D7000 		.ascii	"tmp\000"
 1442 084b 01       		.byte	0x1
 1443 084c 8A       		.byte	0x8a
 1444 084d CA000000 		.4byte	0xca
 1445 0851 01       		.uleb128 0x1
 1446 0852 53       		.byte	0x53
 1447 0853 00       		.byte	0
 1448 0854 1E       		.uleb128 0x1e
 1449 0855 12000000 		.4byte	.LBB7
 1450 0859 08000000 		.4byte	.LBE7-.LBB7
 1451 085d 6F080000 		.4byte	0x86f
 1452 0861 1D       		.uleb128 0x1d
 1453 0862 746D7000 		.ascii	"tmp\000"
 1454 0866 01       		.byte	0x1
 1455 0867 8D       		.byte	0x8d
 1456 0868 CA000000 		.4byte	0xca
 1457 086c 01       		.uleb128 0x1
 1458 086d 53       		.byte	0x53
 1459 086e 00       		.byte	0
 1460 086f 1F       		.uleb128 0x1f
 1461 0870 0E000000 		.4byte	.LVL7
 1462 0874 E80A0000 		.4byte	0xae8
 1463 0878 1B       		.uleb128 0x1b
 1464 0879 01       		.uleb128 0x1
 1465 087a 50       		.byte	0x50
 1466 087b 02       		.uleb128 0x2
 1467 087c 74       		.byte	0x74
 1468 087d 00       		.sleb128 0
 1469 087e 00       		.byte	0
 1470 087f 00       		.byte	0
 1471 0880 20       		.uleb128 0x20
 1472 0881 17050000 		.4byte	.LASF123
 1473 0885 01       		.byte	0x1
 1474 0886 98       		.byte	0x98
 1475 0887 EB050000 		.4byte	0x5eb
 1476 088b 00000000 		.4byte	.LFB67
 1477 088f 04000000 		.4byte	.LFE67-.LFB67
 1478 0893 01       		.uleb128 0x1
 1479 0894 9C       		.byte	0x9c
 1480 0895 A9080000 		.4byte	0x8a9
 1481 0899 19       		.uleb128 0x19
 1482 089a CB000000 		.4byte	.LASF121
ARM GAS  /var/folders/6q/x_mk5n_j3p7_c40r_2k_78980000gn/T//ccYTRlZX.s 			page 27


 1483 089e 01       		.byte	0x1
 1484 089f 98       		.byte	0x98
 1485 08a0 9D070000 		.4byte	0x79d
 1486 08a4 8B000000 		.4byte	.LLST4
 1487 08a8 00       		.byte	0
 1488 08a9 20       		.uleb128 0x20
 1489 08aa D7000000 		.4byte	.LASF124
 1490 08ae 01       		.byte	0x1
 1491 08af B9       		.byte	0xb9
 1492 08b0 13010000 		.4byte	0x113
 1493 08b4 00000000 		.4byte	.LFB68
 1494 08b8 44000000 		.4byte	.LFE68-.LFB68
 1495 08bc 01       		.uleb128 0x1
 1496 08bd 9C       		.byte	0x9c
 1497 08be 89090000 		.4byte	0x989
 1498 08c2 19       		.uleb128 0x19
 1499 08c3 CB000000 		.4byte	.LASF121
 1500 08c7 01       		.byte	0x1
 1501 08c8 B9       		.byte	0xb9
 1502 08c9 9D070000 		.4byte	0x79d
 1503 08cd AC000000 		.4byte	.LLST5
 1504 08d1 19       		.uleb128 0x19
 1505 08d2 92000000 		.4byte	.LASF113
 1506 08d6 01       		.byte	0x1
 1507 08d7 BA       		.byte	0xba
 1508 08d8 DF050000 		.4byte	0x5df
 1509 08dc CA000000 		.4byte	.LLST6
 1510 08e0 19       		.uleb128 0x19
 1511 08e1 1D020000 		.4byte	.LASF125
 1512 08e5 01       		.byte	0x1
 1513 08e6 BB       		.byte	0xbb
 1514 08e7 DE030000 		.4byte	0x3de
 1515 08eb EB000000 		.4byte	.LLST7
 1516 08ef 19       		.uleb128 0x19
 1517 08f0 CE060000 		.4byte	.LASF126
 1518 08f4 01       		.byte	0x1
 1519 08f5 BC       		.byte	0xbc
 1520 08f6 2C000000 		.4byte	0x2c
 1521 08fa 0C010000 		.4byte	.LLST8
 1522 08fe 21       		.uleb128 0x21
 1523 08ff 75000000 		.4byte	.LASF127
 1524 0903 01       		.byte	0x1
 1525 0904 BD       		.byte	0xbd
 1526 0905 D8030000 		.4byte	0x3d8
 1527 0909 02       		.uleb128 0x2
 1528 090a 91       		.byte	0x91
 1529 090b 00       		.sleb128 0
 1530 090c 21       		.uleb128 0x21
 1531 090d F4030000 		.4byte	.LASF128
 1532 0911 01       		.byte	0x1
 1533 0912 BE       		.byte	0xbe
 1534 0913 2C000000 		.4byte	0x2c
 1535 0917 02       		.uleb128 0x2
 1536 0918 91       		.byte	0x91
 1537 0919 04       		.sleb128 4
 1538 091a 21       		.uleb128 0x21
 1539 091b 33020000 		.4byte	.LASF129
ARM GAS  /var/folders/6q/x_mk5n_j3p7_c40r_2k_78980000gn/T//ccYTRlZX.s 			page 28


 1540 091f 01       		.byte	0x1
 1541 0920 BF       		.byte	0xbf
 1542 0921 29010000 		.4byte	0x129
 1543 0925 02       		.uleb128 0x2
 1544 0926 91       		.byte	0x91
 1545 0927 08       		.sleb128 8
 1546 0928 22       		.uleb128 0x22
 1547 0929 36000000 		.4byte	.LASF58
 1548 092d 01       		.byte	0x1
 1549 092e C0       		.byte	0xc0
 1550 092f 13010000 		.4byte	0x113
 1551 0933 01       		.uleb128 0x1
 1552 0934 50       		.byte	0x50
 1553 0935 1E       		.uleb128 0x1e
 1554 0936 0E000000 		.4byte	.LBB8
 1555 093a 06000000 		.4byte	.LBE8-.LBB8
 1556 093e 50090000 		.4byte	0x950
 1557 0942 1D       		.uleb128 0x1d
 1558 0943 746D7000 		.ascii	"tmp\000"
 1559 0947 01       		.byte	0x1
 1560 0948 CB       		.byte	0xcb
 1561 0949 CA000000 		.4byte	0xca
 1562 094d 01       		.uleb128 0x1
 1563 094e 53       		.byte	0x53
 1564 094f 00       		.byte	0
 1565 0950 1E       		.uleb128 0x1e
 1566 0951 38000000 		.4byte	.LBB9
 1567 0955 06000000 		.4byte	.LBE9-.LBB9
 1568 0959 6B090000 		.4byte	0x96b
 1569 095d 1D       		.uleb128 0x1d
 1570 095e 746D7000 		.ascii	"tmp\000"
 1571 0962 01       		.byte	0x1
 1572 0963 D4       		.byte	0xd4
 1573 0964 CA000000 		.4byte	0xca
 1574 0968 01       		.uleb128 0x1
 1575 0969 53       		.byte	0x53
 1576 096a 00       		.byte	0
 1577 096b 1F       		.uleb128 0x1f
 1578 096c 2E000000 		.4byte	.LVL12
 1579 0970 F40A0000 		.4byte	0xaf4
 1580 0974 1B       		.uleb128 0x1b
 1581 0975 01       		.uleb128 0x1
 1582 0976 50       		.byte	0x50
 1583 0977 02       		.uleb128 0x2
 1584 0978 74       		.byte	0x74
 1585 0979 00       		.sleb128 0
 1586 097a 1B       		.uleb128 0x1b
 1587 097b 01       		.uleb128 0x1
 1588 097c 52       		.byte	0x52
 1589 097d 03       		.uleb128 0x3
 1590 097e F3       		.byte	0xf3
 1591 097f 01       		.uleb128 0x1
 1592 0980 52       		.byte	0x52
 1593 0981 1B       		.uleb128 0x1b
 1594 0982 01       		.uleb128 0x1
 1595 0983 53       		.byte	0x53
 1596 0984 02       		.uleb128 0x2
ARM GAS  /var/folders/6q/x_mk5n_j3p7_c40r_2k_78980000gn/T//ccYTRlZX.s 			page 29


 1597 0985 78       		.byte	0x78
 1598 0986 00       		.sleb128 0
 1599 0987 00       		.byte	0
 1600 0988 00       		.byte	0
 1601 0989 20       		.uleb128 0x20
 1602 098a 5C060000 		.4byte	.LASF130
 1603 098e 01       		.byte	0x1
 1604 098f EC       		.byte	0xec
 1605 0990 13010000 		.4byte	0x113
 1606 0994 00000000 		.4byte	.LFB69
 1607 0998 34000000 		.4byte	.LFE69-.LFB69
 1608 099c 01       		.uleb128 0x1
 1609 099d 9C       		.byte	0x9c
 1610 099e 4F0A0000 		.4byte	0xa4f
 1611 09a2 19       		.uleb128 0x19
 1612 09a3 CB000000 		.4byte	.LASF121
 1613 09a7 01       		.byte	0x1
 1614 09a8 EC       		.byte	0xec
 1615 09a9 9D070000 		.4byte	0x79d
 1616 09ad 2A010000 		.4byte	.LLST9
 1617 09b1 19       		.uleb128 0x19
 1618 09b2 92000000 		.4byte	.LASF113
 1619 09b6 01       		.byte	0x1
 1620 09b7 ED       		.byte	0xed
 1621 09b8 DF050000 		.4byte	0x5df
 1622 09bc 48010000 		.4byte	.LLST10
 1623 09c0 19       		.uleb128 0x19
 1624 09c1 75000000 		.4byte	.LASF127
 1625 09c5 01       		.byte	0x1
 1626 09c6 EE       		.byte	0xee
 1627 09c7 D8030000 		.4byte	0x3d8
 1628 09cb 69010000 		.4byte	.LLST11
 1629 09cf 19       		.uleb128 0x19
 1630 09d0 F4030000 		.4byte	.LASF128
 1631 09d4 01       		.byte	0x1
 1632 09d5 EF       		.byte	0xef
 1633 09d6 2C000000 		.4byte	0x2c
 1634 09da 8A010000 		.4byte	.LLST12
 1635 09de 21       		.uleb128 0x21
 1636 09df 33020000 		.4byte	.LASF129
 1637 09e3 01       		.byte	0x1
 1638 09e4 F0       		.byte	0xf0
 1639 09e5 29010000 		.4byte	0x129
 1640 09e9 02       		.uleb128 0x2
 1641 09ea 91       		.byte	0x91
 1642 09eb 00       		.sleb128 0
 1643 09ec 22       		.uleb128 0x22
 1644 09ed 36000000 		.4byte	.LASF58
 1645 09f1 01       		.byte	0x1
 1646 09f2 F2       		.byte	0xf2
 1647 09f3 13010000 		.4byte	0x113
 1648 09f7 01       		.uleb128 0x1
 1649 09f8 50       		.byte	0x50
 1650 09f9 1E       		.uleb128 0x1e
 1651 09fa 0A000000 		.4byte	.LBB10
 1652 09fe 06000000 		.4byte	.LBE10-.LBB10
 1653 0a02 140A0000 		.4byte	0xa14
ARM GAS  /var/folders/6q/x_mk5n_j3p7_c40r_2k_78980000gn/T//ccYTRlZX.s 			page 30


 1654 0a06 1D       		.uleb128 0x1d
 1655 0a07 746D7000 		.ascii	"tmp\000"
 1656 0a0b 01       		.byte	0x1
 1657 0a0c FC       		.byte	0xfc
 1658 0a0d CA000000 		.4byte	0xca
 1659 0a11 01       		.uleb128 0x1
 1660 0a12 53       		.byte	0x53
 1661 0a13 00       		.byte	0
 1662 0a14 1E       		.uleb128 0x1e
 1663 0a15 2A000000 		.4byte	.LBB11
 1664 0a19 06000000 		.4byte	.LBE11-.LBB11
 1665 0a1d 300A0000 		.4byte	0xa30
 1666 0a21 23       		.uleb128 0x23
 1667 0a22 746D7000 		.ascii	"tmp\000"
 1668 0a26 01       		.byte	0x1
 1669 0a27 0401     		.2byte	0x104
 1670 0a29 CA000000 		.4byte	0xca
 1671 0a2d 01       		.uleb128 0x1
 1672 0a2e 53       		.byte	0x53
 1673 0a2f 00       		.byte	0
 1674 0a30 1F       		.uleb128 0x1f
 1675 0a31 20000000 		.4byte	.LVL15
 1676 0a35 000B0000 		.4byte	0xb00
 1677 0a39 1B       		.uleb128 0x1b
 1678 0a3a 01       		.uleb128 0x1
 1679 0a3b 50       		.byte	0x50
 1680 0a3c 02       		.uleb128 0x2
 1681 0a3d 74       		.byte	0x74
 1682 0a3e 00       		.sleb128 0
 1683 0a3f 1B       		.uleb128 0x1b
 1684 0a40 01       		.uleb128 0x1
 1685 0a41 52       		.byte	0x52
 1686 0a42 03       		.uleb128 0x3
 1687 0a43 F3       		.byte	0xf3
 1688 0a44 01       		.uleb128 0x1
 1689 0a45 52       		.byte	0x52
 1690 0a46 1B       		.uleb128 0x1b
 1691 0a47 01       		.uleb128 0x1
 1692 0a48 53       		.byte	0x53
 1693 0a49 03       		.uleb128 0x3
 1694 0a4a F3       		.byte	0xf3
 1695 0a4b 01       		.uleb128 0x1
 1696 0a4c 53       		.byte	0x53
 1697 0a4d 00       		.byte	0
 1698 0a4e 00       		.byte	0
 1699 0a4f 24       		.uleb128 0x24
 1700 0a50 31060000 		.4byte	.LASF131
 1701 0a54 01       		.byte	0x1
 1702 0a55 1401     		.2byte	0x114
 1703 0a57 00000000 		.4byte	.LFB70
 1704 0a5b 06000000 		.4byte	.LFE70-.LFB70
 1705 0a5f 01       		.uleb128 0x1
 1706 0a60 9C       		.byte	0x9c
 1707 0a61 890A0000 		.4byte	0xa89
 1708 0a65 25       		.uleb128 0x25
 1709 0a66 CB000000 		.4byte	.LASF121
 1710 0a6a 01       		.byte	0x1
ARM GAS  /var/folders/6q/x_mk5n_j3p7_c40r_2k_78980000gn/T//ccYTRlZX.s 			page 31


 1711 0a6b 1401     		.2byte	0x114
 1712 0a6d 9D070000 		.4byte	0x79d
 1713 0a71 B6010000 		.4byte	.LLST13
 1714 0a75 1A       		.uleb128 0x1a
 1715 0a76 06000000 		.4byte	.LVL18
 1716 0a7a 0C0B0000 		.4byte	0xb0c
 1717 0a7e 1B       		.uleb128 0x1b
 1718 0a7f 01       		.uleb128 0x1
 1719 0a80 50       		.byte	0x50
 1720 0a81 05       		.uleb128 0x5
 1721 0a82 F3       		.byte	0xf3
 1722 0a83 01       		.uleb128 0x1
 1723 0a84 50       		.byte	0x50
 1724 0a85 23       		.byte	0x23
 1725 0a86 0C       		.uleb128 0xc
 1726 0a87 00       		.byte	0
 1727 0a88 00       		.byte	0
 1728 0a89 24       		.uleb128 0x24
 1729 0a8a B0000000 		.4byte	.LASF132
 1730 0a8e 01       		.byte	0x1
 1731 0a8f 2801     		.2byte	0x128
 1732 0a91 00000000 		.4byte	.LFB71
 1733 0a95 04000000 		.4byte	.LFE71-.LFB71
 1734 0a99 01       		.uleb128 0x1
 1735 0a9a 9C       		.byte	0x9c
 1736 0a9b B90A0000 		.4byte	0xab9
 1737 0a9f 25       		.uleb128 0x25
 1738 0aa0 CB000000 		.4byte	.LASF121
 1739 0aa4 01       		.byte	0x1
 1740 0aa5 2801     		.2byte	0x128
 1741 0aa7 9D070000 		.4byte	0x79d
 1742 0aab E4010000 		.4byte	.LLST14
 1743 0aaf 18       		.uleb128 0x18
 1744 0ab0 04000000 		.4byte	.LVL20
 1745 0ab4 170B0000 		.4byte	0xb17
 1746 0ab8 00       		.byte	0
 1747 0ab9 26       		.uleb128 0x26
 1748 0aba BE000000 		.4byte	.LASF144
 1749 0abe 0E       		.byte	0xe
 1750 0abf 0706     		.2byte	0x607
 1751 0ac1 EE030000 		.4byte	0x3ee
 1752 0ac5 27       		.uleb128 0x27
 1753 0ac6 6F050000 		.4byte	.LASF133
 1754 0aca 6F050000 		.4byte	.LASF133
 1755 0ace 0D       		.byte	0xd
 1756 0acf BD01     		.2byte	0x1bd
 1757 0ad1 28       		.uleb128 0x28
 1758 0ad2 05060000 		.4byte	.LASF134
 1759 0ad6 05060000 		.4byte	.LASF134
 1760 0ada 09       		.byte	0x9
 1761 0adb 38       		.byte	0x38
 1762 0adc 27       		.uleb128 0x27
 1763 0add A7030000 		.4byte	.LASF135
 1764 0ae1 A7030000 		.4byte	.LASF135
 1765 0ae5 0D       		.byte	0xd
 1766 0ae6 BE01     		.2byte	0x1be
 1767 0ae8 27       		.uleb128 0x27
ARM GAS  /var/folders/6q/x_mk5n_j3p7_c40r_2k_78980000gn/T//ccYTRlZX.s 			page 32


 1768 0ae9 9A030000 		.4byte	.LASF136
 1769 0aed 9A030000 		.4byte	.LASF136
 1770 0af1 0D       		.byte	0xd
 1771 0af2 BF01     		.2byte	0x1bf
 1772 0af4 27       		.uleb128 0x27
 1773 0af5 40010000 		.4byte	.LASF137
 1774 0af9 40010000 		.4byte	.LASF137
 1775 0afd 0D       		.byte	0xd
 1776 0afe C001     		.2byte	0x1c0
 1777 0b00 27       		.uleb128 0x27
 1778 0b01 50000000 		.4byte	.LASF138
 1779 0b05 50000000 		.4byte	.LASF138
 1780 0b09 0D       		.byte	0xd
 1781 0b0a C401     		.2byte	0x1c4
 1782 0b0c 28       		.uleb128 0x28
 1783 0b0d E2030000 		.4byte	.LASF139
 1784 0b11 E2030000 		.4byte	.LASF139
 1785 0b15 09       		.byte	0x9
 1786 0b16 39       		.byte	0x39
 1787 0b17 28       		.uleb128 0x28
 1788 0b18 0C010000 		.4byte	.LASF140
 1789 0b1c 0C010000 		.4byte	.LASF140
 1790 0b20 09       		.byte	0x9
 1791 0b21 3D       		.byte	0x3d
 1792 0b22 00       		.byte	0
 1793              		.section	.debug_abbrev,"",%progbits
 1794              	.Ldebug_abbrev0:
 1795 0000 01       		.uleb128 0x1
 1796 0001 11       		.uleb128 0x11
 1797 0002 01       		.byte	0x1
 1798 0003 25       		.uleb128 0x25
 1799 0004 0E       		.uleb128 0xe
 1800 0005 13       		.uleb128 0x13
 1801 0006 0B       		.uleb128 0xb
 1802 0007 03       		.uleb128 0x3
 1803 0008 0E       		.uleb128 0xe
 1804 0009 1B       		.uleb128 0x1b
 1805 000a 0E       		.uleb128 0xe
 1806 000b 55       		.uleb128 0x55
 1807 000c 17       		.uleb128 0x17
 1808 000d 11       		.uleb128 0x11
 1809 000e 01       		.uleb128 0x1
 1810 000f 10       		.uleb128 0x10
 1811 0010 17       		.uleb128 0x17
 1812 0011 00       		.byte	0
 1813 0012 00       		.byte	0
 1814 0013 02       		.uleb128 0x2
 1815 0014 24       		.uleb128 0x24
 1816 0015 00       		.byte	0
 1817 0016 0B       		.uleb128 0xb
 1818 0017 0B       		.uleb128 0xb
 1819 0018 3E       		.uleb128 0x3e
 1820 0019 0B       		.uleb128 0xb
 1821 001a 03       		.uleb128 0x3
 1822 001b 08       		.uleb128 0x8
 1823 001c 00       		.byte	0
 1824 001d 00       		.byte	0
ARM GAS  /var/folders/6q/x_mk5n_j3p7_c40r_2k_78980000gn/T//ccYTRlZX.s 			page 33


 1825 001e 03       		.uleb128 0x3
 1826 001f 16       		.uleb128 0x16
 1827 0020 00       		.byte	0
 1828 0021 03       		.uleb128 0x3
 1829 0022 0E       		.uleb128 0xe
 1830 0023 3A       		.uleb128 0x3a
 1831 0024 0B       		.uleb128 0xb
 1832 0025 3B       		.uleb128 0x3b
 1833 0026 0B       		.uleb128 0xb
 1834 0027 49       		.uleb128 0x49
 1835 0028 13       		.uleb128 0x13
 1836 0029 00       		.byte	0
 1837 002a 00       		.byte	0
 1838 002b 04       		.uleb128 0x4
 1839 002c 24       		.uleb128 0x24
 1840 002d 00       		.byte	0
 1841 002e 0B       		.uleb128 0xb
 1842 002f 0B       		.uleb128 0xb
 1843 0030 3E       		.uleb128 0x3e
 1844 0031 0B       		.uleb128 0xb
 1845 0032 03       		.uleb128 0x3
 1846 0033 0E       		.uleb128 0xe
 1847 0034 00       		.byte	0
 1848 0035 00       		.byte	0
 1849 0036 05       		.uleb128 0x5
 1850 0037 13       		.uleb128 0x13
 1851 0038 01       		.byte	0x1
 1852 0039 03       		.uleb128 0x3
 1853 003a 0E       		.uleb128 0xe
 1854 003b 0B       		.uleb128 0xb
 1855 003c 0B       		.uleb128 0xb
 1856 003d 3A       		.uleb128 0x3a
 1857 003e 0B       		.uleb128 0xb
 1858 003f 3B       		.uleb128 0x3b
 1859 0040 0B       		.uleb128 0xb
 1860 0041 01       		.uleb128 0x1
 1861 0042 13       		.uleb128 0x13
 1862 0043 00       		.byte	0
 1863 0044 00       		.byte	0
 1864 0045 06       		.uleb128 0x6
 1865 0046 0D       		.uleb128 0xd
 1866 0047 00       		.byte	0
 1867 0048 03       		.uleb128 0x3
 1868 0049 0E       		.uleb128 0xe
 1869 004a 3A       		.uleb128 0x3a
 1870 004b 0B       		.uleb128 0xb
 1871 004c 3B       		.uleb128 0x3b
 1872 004d 0B       		.uleb128 0xb
 1873 004e 49       		.uleb128 0x49
 1874 004f 13       		.uleb128 0x13
 1875 0050 38       		.uleb128 0x38
 1876 0051 0B       		.uleb128 0xb
 1877 0052 00       		.byte	0
 1878 0053 00       		.byte	0
 1879 0054 07       		.uleb128 0x7
 1880 0055 0D       		.uleb128 0xd
 1881 0056 00       		.byte	0
ARM GAS  /var/folders/6q/x_mk5n_j3p7_c40r_2k_78980000gn/T//ccYTRlZX.s 			page 34


 1882 0057 03       		.uleb128 0x3
 1883 0058 08       		.uleb128 0x8
 1884 0059 3A       		.uleb128 0x3a
 1885 005a 0B       		.uleb128 0xb
 1886 005b 3B       		.uleb128 0x3b
 1887 005c 0B       		.uleb128 0xb
 1888 005d 49       		.uleb128 0x49
 1889 005e 13       		.uleb128 0x13
 1890 005f 38       		.uleb128 0x38
 1891 0060 0B       		.uleb128 0xb
 1892 0061 00       		.byte	0
 1893 0062 00       		.byte	0
 1894 0063 08       		.uleb128 0x8
 1895 0064 13       		.uleb128 0x13
 1896 0065 01       		.byte	0x1
 1897 0066 0B       		.uleb128 0xb
 1898 0067 0B       		.uleb128 0xb
 1899 0068 3A       		.uleb128 0x3a
 1900 0069 0B       		.uleb128 0xb
 1901 006a 3B       		.uleb128 0x3b
 1902 006b 0B       		.uleb128 0xb
 1903 006c 01       		.uleb128 0x1
 1904 006d 13       		.uleb128 0x13
 1905 006e 00       		.byte	0
 1906 006f 00       		.byte	0
 1907 0070 09       		.uleb128 0x9
 1908 0071 0F       		.uleb128 0xf
 1909 0072 00       		.byte	0
 1910 0073 0B       		.uleb128 0xb
 1911 0074 0B       		.uleb128 0xb
 1912 0075 49       		.uleb128 0x49
 1913 0076 13       		.uleb128 0x13
 1914 0077 00       		.byte	0
 1915 0078 00       		.byte	0
 1916 0079 0A       		.uleb128 0xa
 1917 007a 0F       		.uleb128 0xf
 1918 007b 00       		.byte	0
 1919 007c 0B       		.uleb128 0xb
 1920 007d 0B       		.uleb128 0xb
 1921 007e 00       		.byte	0
 1922 007f 00       		.byte	0
 1923 0080 0B       		.uleb128 0xb
 1924 0081 13       		.uleb128 0x13
 1925 0082 01       		.byte	0x1
 1926 0083 03       		.uleb128 0x3
 1927 0084 0E       		.uleb128 0xe
 1928 0085 0B       		.uleb128 0xb
 1929 0086 0B       		.uleb128 0xb
 1930 0087 3A       		.uleb128 0x3a
 1931 0088 0B       		.uleb128 0xb
 1932 0089 3B       		.uleb128 0x3b
 1933 008a 05       		.uleb128 0x5
 1934 008b 01       		.uleb128 0x1
 1935 008c 13       		.uleb128 0x13
 1936 008d 00       		.byte	0
 1937 008e 00       		.byte	0
 1938 008f 0C       		.uleb128 0xc
ARM GAS  /var/folders/6q/x_mk5n_j3p7_c40r_2k_78980000gn/T//ccYTRlZX.s 			page 35


 1939 0090 0D       		.uleb128 0xd
 1940 0091 00       		.byte	0
 1941 0092 03       		.uleb128 0x3
 1942 0093 08       		.uleb128 0x8
 1943 0094 3A       		.uleb128 0x3a
 1944 0095 0B       		.uleb128 0xb
 1945 0096 3B       		.uleb128 0x3b
 1946 0097 05       		.uleb128 0x5
 1947 0098 49       		.uleb128 0x49
 1948 0099 13       		.uleb128 0x13
 1949 009a 38       		.uleb128 0x38
 1950 009b 0B       		.uleb128 0xb
 1951 009c 00       		.byte	0
 1952 009d 00       		.byte	0
 1953 009e 0D       		.uleb128 0xd
 1954 009f 35       		.uleb128 0x35
 1955 00a0 00       		.byte	0
 1956 00a1 49       		.uleb128 0x49
 1957 00a2 13       		.uleb128 0x13
 1958 00a3 00       		.byte	0
 1959 00a4 00       		.byte	0
 1960 00a5 0E       		.uleb128 0xe
 1961 00a6 17       		.uleb128 0x17
 1962 00a7 01       		.byte	0x1
 1963 00a8 0B       		.uleb128 0xb
 1964 00a9 0B       		.uleb128 0xb
 1965 00aa 3A       		.uleb128 0x3a
 1966 00ab 0B       		.uleb128 0xb
 1967 00ac 3B       		.uleb128 0x3b
 1968 00ad 0B       		.uleb128 0xb
 1969 00ae 01       		.uleb128 0x1
 1970 00af 13       		.uleb128 0x13
 1971 00b0 00       		.byte	0
 1972 00b1 00       		.byte	0
 1973 00b2 0F       		.uleb128 0xf
 1974 00b3 0D       		.uleb128 0xd
 1975 00b4 00       		.byte	0
 1976 00b5 03       		.uleb128 0x3
 1977 00b6 0E       		.uleb128 0xe
 1978 00b7 3A       		.uleb128 0x3a
 1979 00b8 0B       		.uleb128 0xb
 1980 00b9 3B       		.uleb128 0x3b
 1981 00ba 0B       		.uleb128 0xb
 1982 00bb 49       		.uleb128 0x49
 1983 00bc 13       		.uleb128 0x13
 1984 00bd 00       		.byte	0
 1985 00be 00       		.byte	0
 1986 00bf 10       		.uleb128 0x10
 1987 00c0 26       		.uleb128 0x26
 1988 00c1 00       		.byte	0
 1989 00c2 49       		.uleb128 0x49
 1990 00c3 13       		.uleb128 0x13
 1991 00c4 00       		.byte	0
 1992 00c5 00       		.byte	0
 1993 00c6 11       		.uleb128 0x11
 1994 00c7 13       		.uleb128 0x13
 1995 00c8 01       		.byte	0x1
ARM GAS  /var/folders/6q/x_mk5n_j3p7_c40r_2k_78980000gn/T//ccYTRlZX.s 			page 36


 1996 00c9 0B       		.uleb128 0xb
 1997 00ca 0B       		.uleb128 0xb
 1998 00cb 3A       		.uleb128 0x3a
 1999 00cc 0B       		.uleb128 0xb
 2000 00cd 3B       		.uleb128 0x3b
 2001 00ce 05       		.uleb128 0x5
 2002 00cf 01       		.uleb128 0x1
 2003 00d0 13       		.uleb128 0x13
 2004 00d1 00       		.byte	0
 2005 00d2 00       		.byte	0
 2006 00d3 12       		.uleb128 0x12
 2007 00d4 0D       		.uleb128 0xd
 2008 00d5 00       		.byte	0
 2009 00d6 03       		.uleb128 0x3
 2010 00d7 0E       		.uleb128 0xe
 2011 00d8 3A       		.uleb128 0x3a
 2012 00d9 0B       		.uleb128 0xb
 2013 00da 3B       		.uleb128 0x3b
 2014 00db 05       		.uleb128 0x5
 2015 00dc 49       		.uleb128 0x49
 2016 00dd 13       		.uleb128 0x13
 2017 00de 38       		.uleb128 0x38
 2018 00df 0B       		.uleb128 0xb
 2019 00e0 00       		.byte	0
 2020 00e1 00       		.byte	0
 2021 00e2 13       		.uleb128 0x13
 2022 00e3 16       		.uleb128 0x16
 2023 00e4 00       		.byte	0
 2024 00e5 03       		.uleb128 0x3
 2025 00e6 0E       		.uleb128 0xe
 2026 00e7 3A       		.uleb128 0x3a
 2027 00e8 0B       		.uleb128 0xb
 2028 00e9 3B       		.uleb128 0x3b
 2029 00ea 05       		.uleb128 0x5
 2030 00eb 49       		.uleb128 0x49
 2031 00ec 13       		.uleb128 0x13
 2032 00ed 00       		.byte	0
 2033 00ee 00       		.byte	0
 2034 00ef 14       		.uleb128 0x14
 2035 00f0 04       		.uleb128 0x4
 2036 00f1 01       		.byte	0x1
 2037 00f2 0B       		.uleb128 0xb
 2038 00f3 0B       		.uleb128 0xb
 2039 00f4 49       		.uleb128 0x49
 2040 00f5 13       		.uleb128 0x13
 2041 00f6 3A       		.uleb128 0x3a
 2042 00f7 0B       		.uleb128 0xb
 2043 00f8 3B       		.uleb128 0x3b
 2044 00f9 0B       		.uleb128 0xb
 2045 00fa 01       		.uleb128 0x1
 2046 00fb 13       		.uleb128 0x13
 2047 00fc 00       		.byte	0
 2048 00fd 00       		.byte	0
 2049 00fe 15       		.uleb128 0x15
 2050 00ff 28       		.uleb128 0x28
 2051 0100 00       		.byte	0
 2052 0101 03       		.uleb128 0x3
ARM GAS  /var/folders/6q/x_mk5n_j3p7_c40r_2k_78980000gn/T//ccYTRlZX.s 			page 37


 2053 0102 0E       		.uleb128 0xe
 2054 0103 1C       		.uleb128 0x1c
 2055 0104 0B       		.uleb128 0xb
 2056 0105 00       		.byte	0
 2057 0106 00       		.byte	0
 2058 0107 16       		.uleb128 0x16
 2059 0108 04       		.uleb128 0x4
 2060 0109 01       		.byte	0x1
 2061 010a 0B       		.uleb128 0xb
 2062 010b 0B       		.uleb128 0xb
 2063 010c 49       		.uleb128 0x49
 2064 010d 13       		.uleb128 0x13
 2065 010e 3A       		.uleb128 0x3a
 2066 010f 0B       		.uleb128 0xb
 2067 0110 3B       		.uleb128 0x3b
 2068 0111 05       		.uleb128 0x5
 2069 0112 01       		.uleb128 0x1
 2070 0113 13       		.uleb128 0x13
 2071 0114 00       		.byte	0
 2072 0115 00       		.byte	0
 2073 0116 17       		.uleb128 0x17
 2074 0117 2E       		.uleb128 0x2e
 2075 0118 01       		.byte	0x1
 2076 0119 3F       		.uleb128 0x3f
 2077 011a 19       		.uleb128 0x19
 2078 011b 03       		.uleb128 0x3
 2079 011c 0E       		.uleb128 0xe
 2080 011d 3A       		.uleb128 0x3a
 2081 011e 0B       		.uleb128 0xb
 2082 011f 3B       		.uleb128 0x3b
 2083 0120 0B       		.uleb128 0xb
 2084 0121 27       		.uleb128 0x27
 2085 0122 19       		.uleb128 0x19
 2086 0123 11       		.uleb128 0x11
 2087 0124 01       		.uleb128 0x1
 2088 0125 12       		.uleb128 0x12
 2089 0126 06       		.uleb128 0x6
 2090 0127 40       		.uleb128 0x40
 2091 0128 18       		.uleb128 0x18
 2092 0129 9742     		.uleb128 0x2117
 2093 012b 19       		.uleb128 0x19
 2094 012c 01       		.uleb128 0x1
 2095 012d 13       		.uleb128 0x13
 2096 012e 00       		.byte	0
 2097 012f 00       		.byte	0
 2098 0130 18       		.uleb128 0x18
 2099 0131 898201   		.uleb128 0x4109
 2100 0134 00       		.byte	0
 2101 0135 11       		.uleb128 0x11
 2102 0136 01       		.uleb128 0x1
 2103 0137 9542     		.uleb128 0x2115
 2104 0139 19       		.uleb128 0x19
 2105 013a 31       		.uleb128 0x31
 2106 013b 13       		.uleb128 0x13
 2107 013c 00       		.byte	0
 2108 013d 00       		.byte	0
 2109 013e 19       		.uleb128 0x19
ARM GAS  /var/folders/6q/x_mk5n_j3p7_c40r_2k_78980000gn/T//ccYTRlZX.s 			page 38


 2110 013f 05       		.uleb128 0x5
 2111 0140 00       		.byte	0
 2112 0141 03       		.uleb128 0x3
 2113 0142 0E       		.uleb128 0xe
 2114 0143 3A       		.uleb128 0x3a
 2115 0144 0B       		.uleb128 0xb
 2116 0145 3B       		.uleb128 0x3b
 2117 0146 0B       		.uleb128 0xb
 2118 0147 49       		.uleb128 0x49
 2119 0148 13       		.uleb128 0x13
 2120 0149 02       		.uleb128 0x2
 2121 014a 17       		.uleb128 0x17
 2122 014b 00       		.byte	0
 2123 014c 00       		.byte	0
 2124 014d 1A       		.uleb128 0x1a
 2125 014e 898201   		.uleb128 0x4109
 2126 0151 01       		.byte	0x1
 2127 0152 11       		.uleb128 0x11
 2128 0153 01       		.uleb128 0x1
 2129 0154 9542     		.uleb128 0x2115
 2130 0156 19       		.uleb128 0x19
 2131 0157 31       		.uleb128 0x31
 2132 0158 13       		.uleb128 0x13
 2133 0159 00       		.byte	0
 2134 015a 00       		.byte	0
 2135 015b 1B       		.uleb128 0x1b
 2136 015c 8A8201   		.uleb128 0x410a
 2137 015f 00       		.byte	0
 2138 0160 02       		.uleb128 0x2
 2139 0161 18       		.uleb128 0x18
 2140 0162 9142     		.uleb128 0x2111
 2141 0164 18       		.uleb128 0x18
 2142 0165 00       		.byte	0
 2143 0166 00       		.byte	0
 2144 0167 1C       		.uleb128 0x1c
 2145 0168 0B       		.uleb128 0xb
 2146 0169 01       		.byte	0x1
 2147 016a 55       		.uleb128 0x55
 2148 016b 17       		.uleb128 0x17
 2149 016c 01       		.uleb128 0x1
 2150 016d 13       		.uleb128 0x13
 2151 016e 00       		.byte	0
 2152 016f 00       		.byte	0
 2153 0170 1D       		.uleb128 0x1d
 2154 0171 34       		.uleb128 0x34
 2155 0172 00       		.byte	0
 2156 0173 03       		.uleb128 0x3
 2157 0174 08       		.uleb128 0x8
 2158 0175 3A       		.uleb128 0x3a
 2159 0176 0B       		.uleb128 0xb
 2160 0177 3B       		.uleb128 0x3b
 2161 0178 0B       		.uleb128 0xb
 2162 0179 49       		.uleb128 0x49
 2163 017a 13       		.uleb128 0x13
 2164 017b 02       		.uleb128 0x2
 2165 017c 18       		.uleb128 0x18
 2166 017d 00       		.byte	0
ARM GAS  /var/folders/6q/x_mk5n_j3p7_c40r_2k_78980000gn/T//ccYTRlZX.s 			page 39


 2167 017e 00       		.byte	0
 2168 017f 1E       		.uleb128 0x1e
 2169 0180 0B       		.uleb128 0xb
 2170 0181 01       		.byte	0x1
 2171 0182 11       		.uleb128 0x11
 2172 0183 01       		.uleb128 0x1
 2173 0184 12       		.uleb128 0x12
 2174 0185 06       		.uleb128 0x6
 2175 0186 01       		.uleb128 0x1
 2176 0187 13       		.uleb128 0x13
 2177 0188 00       		.byte	0
 2178 0189 00       		.byte	0
 2179 018a 1F       		.uleb128 0x1f
 2180 018b 898201   		.uleb128 0x4109
 2181 018e 01       		.byte	0x1
 2182 018f 11       		.uleb128 0x11
 2183 0190 01       		.uleb128 0x1
 2184 0191 31       		.uleb128 0x31
 2185 0192 13       		.uleb128 0x13
 2186 0193 00       		.byte	0
 2187 0194 00       		.byte	0
 2188 0195 20       		.uleb128 0x20
 2189 0196 2E       		.uleb128 0x2e
 2190 0197 01       		.byte	0x1
 2191 0198 3F       		.uleb128 0x3f
 2192 0199 19       		.uleb128 0x19
 2193 019a 03       		.uleb128 0x3
 2194 019b 0E       		.uleb128 0xe
 2195 019c 3A       		.uleb128 0x3a
 2196 019d 0B       		.uleb128 0xb
 2197 019e 3B       		.uleb128 0x3b
 2198 019f 0B       		.uleb128 0xb
 2199 01a0 27       		.uleb128 0x27
 2200 01a1 19       		.uleb128 0x19
 2201 01a2 49       		.uleb128 0x49
 2202 01a3 13       		.uleb128 0x13
 2203 01a4 11       		.uleb128 0x11
 2204 01a5 01       		.uleb128 0x1
 2205 01a6 12       		.uleb128 0x12
 2206 01a7 06       		.uleb128 0x6
 2207 01a8 40       		.uleb128 0x40
 2208 01a9 18       		.uleb128 0x18
 2209 01aa 9742     		.uleb128 0x2117
 2210 01ac 19       		.uleb128 0x19
 2211 01ad 01       		.uleb128 0x1
 2212 01ae 13       		.uleb128 0x13
 2213 01af 00       		.byte	0
 2214 01b0 00       		.byte	0
 2215 01b1 21       		.uleb128 0x21
 2216 01b2 05       		.uleb128 0x5
 2217 01b3 00       		.byte	0
 2218 01b4 03       		.uleb128 0x3
 2219 01b5 0E       		.uleb128 0xe
 2220 01b6 3A       		.uleb128 0x3a
 2221 01b7 0B       		.uleb128 0xb
 2222 01b8 3B       		.uleb128 0x3b
 2223 01b9 0B       		.uleb128 0xb
ARM GAS  /var/folders/6q/x_mk5n_j3p7_c40r_2k_78980000gn/T//ccYTRlZX.s 			page 40


 2224 01ba 49       		.uleb128 0x49
 2225 01bb 13       		.uleb128 0x13
 2226 01bc 02       		.uleb128 0x2
 2227 01bd 18       		.uleb128 0x18
 2228 01be 00       		.byte	0
 2229 01bf 00       		.byte	0
 2230 01c0 22       		.uleb128 0x22
 2231 01c1 34       		.uleb128 0x34
 2232 01c2 00       		.byte	0
 2233 01c3 03       		.uleb128 0x3
 2234 01c4 0E       		.uleb128 0xe
 2235 01c5 3A       		.uleb128 0x3a
 2236 01c6 0B       		.uleb128 0xb
 2237 01c7 3B       		.uleb128 0x3b
 2238 01c8 0B       		.uleb128 0xb
 2239 01c9 49       		.uleb128 0x49
 2240 01ca 13       		.uleb128 0x13
 2241 01cb 02       		.uleb128 0x2
 2242 01cc 18       		.uleb128 0x18
 2243 01cd 00       		.byte	0
 2244 01ce 00       		.byte	0
 2245 01cf 23       		.uleb128 0x23
 2246 01d0 34       		.uleb128 0x34
 2247 01d1 00       		.byte	0
 2248 01d2 03       		.uleb128 0x3
 2249 01d3 08       		.uleb128 0x8
 2250 01d4 3A       		.uleb128 0x3a
 2251 01d5 0B       		.uleb128 0xb
 2252 01d6 3B       		.uleb128 0x3b
 2253 01d7 05       		.uleb128 0x5
 2254 01d8 49       		.uleb128 0x49
 2255 01d9 13       		.uleb128 0x13
 2256 01da 02       		.uleb128 0x2
 2257 01db 18       		.uleb128 0x18
 2258 01dc 00       		.byte	0
 2259 01dd 00       		.byte	0
 2260 01de 24       		.uleb128 0x24
 2261 01df 2E       		.uleb128 0x2e
 2262 01e0 01       		.byte	0x1
 2263 01e1 3F       		.uleb128 0x3f
 2264 01e2 19       		.uleb128 0x19
 2265 01e3 03       		.uleb128 0x3
 2266 01e4 0E       		.uleb128 0xe
 2267 01e5 3A       		.uleb128 0x3a
 2268 01e6 0B       		.uleb128 0xb
 2269 01e7 3B       		.uleb128 0x3b
 2270 01e8 05       		.uleb128 0x5
 2271 01e9 27       		.uleb128 0x27
 2272 01ea 19       		.uleb128 0x19
 2273 01eb 11       		.uleb128 0x11
 2274 01ec 01       		.uleb128 0x1
 2275 01ed 12       		.uleb128 0x12
 2276 01ee 06       		.uleb128 0x6
 2277 01ef 40       		.uleb128 0x40
 2278 01f0 18       		.uleb128 0x18
 2279 01f1 9742     		.uleb128 0x2117
 2280 01f3 19       		.uleb128 0x19
ARM GAS  /var/folders/6q/x_mk5n_j3p7_c40r_2k_78980000gn/T//ccYTRlZX.s 			page 41


 2281 01f4 01       		.uleb128 0x1
 2282 01f5 13       		.uleb128 0x13
 2283 01f6 00       		.byte	0
 2284 01f7 00       		.byte	0
 2285 01f8 25       		.uleb128 0x25
 2286 01f9 05       		.uleb128 0x5
 2287 01fa 00       		.byte	0
 2288 01fb 03       		.uleb128 0x3
 2289 01fc 0E       		.uleb128 0xe
 2290 01fd 3A       		.uleb128 0x3a
 2291 01fe 0B       		.uleb128 0xb
 2292 01ff 3B       		.uleb128 0x3b
 2293 0200 05       		.uleb128 0x5
 2294 0201 49       		.uleb128 0x49
 2295 0202 13       		.uleb128 0x13
 2296 0203 02       		.uleb128 0x2
 2297 0204 17       		.uleb128 0x17
 2298 0205 00       		.byte	0
 2299 0206 00       		.byte	0
 2300 0207 26       		.uleb128 0x26
 2301 0208 34       		.uleb128 0x34
 2302 0209 00       		.byte	0
 2303 020a 03       		.uleb128 0x3
 2304 020b 0E       		.uleb128 0xe
 2305 020c 3A       		.uleb128 0x3a
 2306 020d 0B       		.uleb128 0xb
 2307 020e 3B       		.uleb128 0x3b
 2308 020f 05       		.uleb128 0x5
 2309 0210 49       		.uleb128 0x49
 2310 0211 13       		.uleb128 0x13
 2311 0212 3F       		.uleb128 0x3f
 2312 0213 19       		.uleb128 0x19
 2313 0214 3C       		.uleb128 0x3c
 2314 0215 19       		.uleb128 0x19
 2315 0216 00       		.byte	0
 2316 0217 00       		.byte	0
 2317 0218 27       		.uleb128 0x27
 2318 0219 2E       		.uleb128 0x2e
 2319 021a 00       		.byte	0
 2320 021b 3F       		.uleb128 0x3f
 2321 021c 19       		.uleb128 0x19
 2322 021d 3C       		.uleb128 0x3c
 2323 021e 19       		.uleb128 0x19
 2324 021f 6E       		.uleb128 0x6e
 2325 0220 0E       		.uleb128 0xe
 2326 0221 03       		.uleb128 0x3
 2327 0222 0E       		.uleb128 0xe
 2328 0223 3A       		.uleb128 0x3a
 2329 0224 0B       		.uleb128 0xb
 2330 0225 3B       		.uleb128 0x3b
 2331 0226 05       		.uleb128 0x5
 2332 0227 00       		.byte	0
 2333 0228 00       		.byte	0
 2334 0229 28       		.uleb128 0x28
 2335 022a 2E       		.uleb128 0x2e
 2336 022b 00       		.byte	0
 2337 022c 3F       		.uleb128 0x3f
ARM GAS  /var/folders/6q/x_mk5n_j3p7_c40r_2k_78980000gn/T//ccYTRlZX.s 			page 42


 2338 022d 19       		.uleb128 0x19
 2339 022e 3C       		.uleb128 0x3c
 2340 022f 19       		.uleb128 0x19
 2341 0230 6E       		.uleb128 0x6e
 2342 0231 0E       		.uleb128 0xe
 2343 0232 03       		.uleb128 0x3
 2344 0233 0E       		.uleb128 0xe
 2345 0234 3A       		.uleb128 0x3a
 2346 0235 0B       		.uleb128 0xb
 2347 0236 3B       		.uleb128 0x3b
 2348 0237 0B       		.uleb128 0xb
 2349 0238 00       		.byte	0
 2350 0239 00       		.byte	0
 2351 023a 00       		.byte	0
 2352              		.section	.debug_loc,"",%progbits
 2353              	.Ldebug_loc0:
 2354              	.LLST0:
 2355 0000 00000000 		.4byte	.LVL1
 2356 0004 0A000000 		.4byte	.LVL2
 2357 0008 0100     		.2byte	0x1
 2358 000a 50       		.byte	0x50
 2359 000b 0A000000 		.4byte	.LVL2
 2360 000f 0D000000 		.4byte	.LVL3-1
 2361 0013 0300     		.2byte	0x3
 2362 0015 70       		.byte	0x70
 2363 0016 74       		.sleb128 -12
 2364 0017 9F       		.byte	0x9f
 2365 0018 0D000000 		.4byte	.LVL3-1
 2366 001c 0E000000 		.4byte	.LFE64
 2367 0020 0400     		.2byte	0x4
 2368 0022 F3       		.byte	0xf3
 2369 0023 01       		.uleb128 0x1
 2370 0024 50       		.byte	0x50
 2371 0025 9F       		.byte	0x9f
 2372 0026 00000000 		.4byte	0
 2373 002a 00000000 		.4byte	0
 2374              	.LLST1:
 2375 002e 00000000 		.4byte	.LVL4
 2376 0032 0F000000 		.4byte	.LVL5-1
 2377 0036 0100     		.2byte	0x1
 2378 0038 50       		.byte	0x50
 2379 0039 0F000000 		.4byte	.LVL5-1
 2380 003d 1C000000 		.4byte	.LFE65
 2381 0041 0100     		.2byte	0x1
 2382 0043 54       		.byte	0x54
 2383 0044 00000000 		.4byte	0
 2384 0048 00000000 		.4byte	0
 2385              	.LLST2:
 2386 004c 00000000 		.4byte	.LVL4
 2387 0050 0F000000 		.4byte	.LVL5-1
 2388 0054 0100     		.2byte	0x1
 2389 0056 51       		.byte	0x51
 2390 0057 0F000000 		.4byte	.LVL5-1
 2391 005b 1C000000 		.4byte	.LFE65
 2392 005f 0400     		.2byte	0x4
 2393 0061 F3       		.byte	0xf3
 2394 0062 01       		.uleb128 0x1
ARM GAS  /var/folders/6q/x_mk5n_j3p7_c40r_2k_78980000gn/T//ccYTRlZX.s 			page 43


 2395 0063 51       		.byte	0x51
 2396 0064 9F       		.byte	0x9f
 2397 0065 00000000 		.4byte	0
 2398 0069 00000000 		.4byte	0
 2399              	.LLST3:
 2400 006d 00000000 		.4byte	.LVL6
 2401 0071 0D000000 		.4byte	.LVL7-1
 2402 0075 0100     		.2byte	0x1
 2403 0077 50       		.byte	0x50
 2404 0078 0D000000 		.4byte	.LVL7-1
 2405 007c 1A000000 		.4byte	.LFE66
 2406 0080 0100     		.2byte	0x1
 2407 0082 54       		.byte	0x54
 2408 0083 00000000 		.4byte	0
 2409 0087 00000000 		.4byte	0
 2410              	.LLST4:
 2411 008b 00000000 		.4byte	.LVL8
 2412 008f 02000000 		.4byte	.LVL9
 2413 0093 0100     		.2byte	0x1
 2414 0095 50       		.byte	0x50
 2415 0096 02000000 		.4byte	.LVL9
 2416 009a 04000000 		.4byte	.LFE67
 2417 009e 0400     		.2byte	0x4
 2418 00a0 F3       		.byte	0xf3
 2419 00a1 01       		.uleb128 0x1
 2420 00a2 50       		.byte	0x50
 2421 00a3 9F       		.byte	0x9f
 2422 00a4 00000000 		.4byte	0
 2423 00a8 00000000 		.4byte	0
 2424              	.LLST5:
 2425 00ac 00000000 		.4byte	.LVL10
 2426 00b0 2D000000 		.4byte	.LVL12-1
 2427 00b4 0100     		.2byte	0x1
 2428 00b6 50       		.byte	0x50
 2429 00b7 2D000000 		.4byte	.LVL12-1
 2430 00bb 44000000 		.4byte	.LFE68
 2431 00bf 0100     		.2byte	0x1
 2432 00c1 54       		.byte	0x54
 2433 00c2 00000000 		.4byte	0
 2434 00c6 00000000 		.4byte	0
 2435              	.LLST6:
 2436 00ca 00000000 		.4byte	.LVL10
 2437 00ce 2D000000 		.4byte	.LVL12-1
 2438 00d2 0100     		.2byte	0x1
 2439 00d4 51       		.byte	0x51
 2440 00d5 2D000000 		.4byte	.LVL12-1
 2441 00d9 44000000 		.4byte	.LFE68
 2442 00dd 0400     		.2byte	0x4
 2443 00df F3       		.byte	0xf3
 2444 00e0 01       		.uleb128 0x1
 2445 00e1 51       		.byte	0x51
 2446 00e2 9F       		.byte	0x9f
 2447 00e3 00000000 		.4byte	0
 2448 00e7 00000000 		.4byte	0
 2449              	.LLST7:
 2450 00eb 00000000 		.4byte	.LVL10
 2451 00ef 2D000000 		.4byte	.LVL12-1
ARM GAS  /var/folders/6q/x_mk5n_j3p7_c40r_2k_78980000gn/T//ccYTRlZX.s 			page 44


 2452 00f3 0100     		.2byte	0x1
 2453 00f5 52       		.byte	0x52
 2454 00f6 2D000000 		.4byte	.LVL12-1
 2455 00fa 44000000 		.4byte	.LFE68
 2456 00fe 0400     		.2byte	0x4
 2457 0100 F3       		.byte	0xf3
 2458 0101 01       		.uleb128 0x1
 2459 0102 52       		.byte	0x52
 2460 0103 9F       		.byte	0x9f
 2461 0104 00000000 		.4byte	0
 2462 0108 00000000 		.4byte	0
 2463              	.LLST8:
 2464 010c 00000000 		.4byte	.LVL10
 2465 0110 10000000 		.4byte	.LVL11
 2466 0114 0100     		.2byte	0x1
 2467 0116 53       		.byte	0x53
 2468 0117 10000000 		.4byte	.LVL11
 2469 011b 44000000 		.4byte	.LFE68
 2470 011f 0100     		.2byte	0x1
 2471 0121 58       		.byte	0x58
 2472 0122 00000000 		.4byte	0
 2473 0126 00000000 		.4byte	0
 2474              	.LLST9:
 2475 012a 00000000 		.4byte	.LVL13
 2476 012e 1F000000 		.4byte	.LVL15-1
 2477 0132 0100     		.2byte	0x1
 2478 0134 50       		.byte	0x50
 2479 0135 1F000000 		.4byte	.LVL15-1
 2480 0139 34000000 		.4byte	.LFE69
 2481 013d 0100     		.2byte	0x1
 2482 013f 54       		.byte	0x54
 2483 0140 00000000 		.4byte	0
 2484 0144 00000000 		.4byte	0
 2485              	.LLST10:
 2486 0148 00000000 		.4byte	.LVL13
 2487 014c 1F000000 		.4byte	.LVL15-1
 2488 0150 0100     		.2byte	0x1
 2489 0152 51       		.byte	0x51
 2490 0153 1F000000 		.4byte	.LVL15-1
 2491 0157 34000000 		.4byte	.LFE69
 2492 015b 0400     		.2byte	0x4
 2493 015d F3       		.byte	0xf3
 2494 015e 01       		.uleb128 0x1
 2495 015f 51       		.byte	0x51
 2496 0160 9F       		.byte	0x9f
 2497 0161 00000000 		.4byte	0
 2498 0165 00000000 		.4byte	0
 2499              	.LLST11:
 2500 0169 00000000 		.4byte	.LVL13
 2501 016d 1F000000 		.4byte	.LVL15-1
 2502 0171 0100     		.2byte	0x1
 2503 0173 52       		.byte	0x52
 2504 0174 1F000000 		.4byte	.LVL15-1
 2505 0178 34000000 		.4byte	.LFE69
 2506 017c 0400     		.2byte	0x4
 2507 017e F3       		.byte	0xf3
 2508 017f 01       		.uleb128 0x1
ARM GAS  /var/folders/6q/x_mk5n_j3p7_c40r_2k_78980000gn/T//ccYTRlZX.s 			page 45


 2509 0180 52       		.byte	0x52
 2510 0181 9F       		.byte	0x9f
 2511 0182 00000000 		.4byte	0
 2512 0186 00000000 		.4byte	0
 2513              	.LLST12:
 2514 018a 00000000 		.4byte	.LVL13
 2515 018e 0C000000 		.4byte	.LVL14
 2516 0192 0100     		.2byte	0x1
 2517 0194 53       		.byte	0x53
 2518 0195 0C000000 		.4byte	.LVL14
 2519 0199 1F000000 		.4byte	.LVL15-1
 2520 019d 0100     		.2byte	0x1
 2521 019f 5E       		.byte	0x5e
 2522 01a0 1F000000 		.4byte	.LVL15-1
 2523 01a4 34000000 		.4byte	.LFE69
 2524 01a8 0400     		.2byte	0x4
 2525 01aa F3       		.byte	0xf3
 2526 01ab 01       		.uleb128 0x1
 2527 01ac 53       		.byte	0x53
 2528 01ad 9F       		.byte	0x9f
 2529 01ae 00000000 		.4byte	0
 2530 01b2 00000000 		.4byte	0
 2531              	.LLST13:
 2532 01b6 00000000 		.4byte	.LVL16
 2533 01ba 02000000 		.4byte	.LVL17
 2534 01be 0100     		.2byte	0x1
 2535 01c0 50       		.byte	0x50
 2536 01c1 02000000 		.4byte	.LVL17
 2537 01c5 05000000 		.4byte	.LVL18-1
 2538 01c9 0300     		.2byte	0x3
 2539 01cb 70       		.byte	0x70
 2540 01cc 74       		.sleb128 -12
 2541 01cd 9F       		.byte	0x9f
 2542 01ce 05000000 		.4byte	.LVL18-1
 2543 01d2 06000000 		.4byte	.LFE70
 2544 01d6 0400     		.2byte	0x4
 2545 01d8 F3       		.byte	0xf3
 2546 01d9 01       		.uleb128 0x1
 2547 01da 50       		.byte	0x50
 2548 01db 9F       		.byte	0x9f
 2549 01dc 00000000 		.4byte	0
 2550 01e0 00000000 		.4byte	0
 2551              	.LLST14:
 2552 01e4 00000000 		.4byte	.LVL19
 2553 01e8 03000000 		.4byte	.LVL20-1
 2554 01ec 0100     		.2byte	0x1
 2555 01ee 50       		.byte	0x50
 2556 01ef 03000000 		.4byte	.LVL20-1
 2557 01f3 04000000 		.4byte	.LFE71
 2558 01f7 0400     		.2byte	0x4
 2559 01f9 F3       		.byte	0xf3
 2560 01fa 01       		.uleb128 0x1
 2561 01fb 50       		.byte	0x50
 2562 01fc 9F       		.byte	0x9f
 2563 01fd 00000000 		.4byte	0
 2564 0201 00000000 		.4byte	0
 2565              		.section	.debug_aranges,"",%progbits
ARM GAS  /var/folders/6q/x_mk5n_j3p7_c40r_2k_78980000gn/T//ccYTRlZX.s 			page 46


 2566 0000 5C000000 		.4byte	0x5c
 2567 0004 0200     		.2byte	0x2
 2568 0006 00000000 		.4byte	.Ldebug_info0
 2569 000a 04       		.byte	0x4
 2570 000b 00       		.byte	0
 2571 000c 0000     		.2byte	0
 2572 000e 0000     		.2byte	0
 2573 0010 00000000 		.4byte	.LFB63
 2574 0014 04000000 		.4byte	.LFE63-.LFB63
 2575 0018 00000000 		.4byte	.LFB64
 2576 001c 0E000000 		.4byte	.LFE64-.LFB64
 2577 0020 00000000 		.4byte	.LFB65
 2578 0024 1C000000 		.4byte	.LFE65-.LFB65
 2579 0028 00000000 		.4byte	.LFB66
 2580 002c 1A000000 		.4byte	.LFE66-.LFB66
 2581 0030 00000000 		.4byte	.LFB67
 2582 0034 04000000 		.4byte	.LFE67-.LFB67
 2583 0038 00000000 		.4byte	.LFB68
 2584 003c 44000000 		.4byte	.LFE68-.LFB68
 2585 0040 00000000 		.4byte	.LFB69
 2586 0044 34000000 		.4byte	.LFE69-.LFB69
 2587 0048 00000000 		.4byte	.LFB70
 2588 004c 06000000 		.4byte	.LFE70-.LFB70
 2589 0050 00000000 		.4byte	.LFB71
 2590 0054 04000000 		.4byte	.LFE71-.LFB71
 2591 0058 00000000 		.4byte	0
 2592 005c 00000000 		.4byte	0
 2593              		.section	.debug_ranges,"",%progbits
 2594              	.Ldebug_ranges0:
 2595 0000 02000000 		.4byte	.LBB2
 2596 0004 04000000 		.4byte	.LBE2
 2597 0008 06000000 		.4byte	.LBB3
 2598 000c 0A000000 		.4byte	.LBE3
 2599 0010 00000000 		.4byte	0
 2600 0014 00000000 		.4byte	0
 2601 0018 02000000 		.4byte	.LBB5
 2602 001c 04000000 		.4byte	.LBE5
 2603 0020 06000000 		.4byte	.LBB6
 2604 0024 0A000000 		.4byte	.LBE6
 2605 0028 00000000 		.4byte	0
 2606 002c 00000000 		.4byte	0
 2607 0030 00000000 		.4byte	.LFB63
 2608 0034 04000000 		.4byte	.LFE63
 2609 0038 00000000 		.4byte	.LFB64
 2610 003c 0E000000 		.4byte	.LFE64
 2611 0040 00000000 		.4byte	.LFB65
 2612 0044 1C000000 		.4byte	.LFE65
 2613 0048 00000000 		.4byte	.LFB66
 2614 004c 1A000000 		.4byte	.LFE66
 2615 0050 00000000 		.4byte	.LFB67
 2616 0054 04000000 		.4byte	.LFE67
 2617 0058 00000000 		.4byte	.LFB68
 2618 005c 44000000 		.4byte	.LFE68
 2619 0060 00000000 		.4byte	.LFB69
 2620 0064 34000000 		.4byte	.LFE69
 2621 0068 00000000 		.4byte	.LFB70
 2622 006c 06000000 		.4byte	.LFE70
ARM GAS  /var/folders/6q/x_mk5n_j3p7_c40r_2k_78980000gn/T//ccYTRlZX.s 			page 47


 2623 0070 00000000 		.4byte	.LFB71
 2624 0074 04000000 		.4byte	.LFE71
 2625 0078 00000000 		.4byte	0
 2626 007c 00000000 		.4byte	0
 2627              		.section	.debug_line,"",%progbits
 2628              	.Ldebug_line0:
 2629 0000 8F030000 		.section	.debug_str,"MS",%progbits,1
 2629      0200C002 
 2629      00000201 
 2629      FB0E0D00 
 2629      01010101 
 2630              	.LASF99:
 2631 0000 5354445F 		.ascii	"STD_DUTY_CYCLE\000"
 2631      44555459 
 2631      5F435943 
 2631      4C4500
 2632              	.LASF116:
 2633 000f 646D6172 		.ascii	"dmarx\000"
 2633      7800
 2634              	.LASF102:
 2635 0015 69326364 		.ascii	"i2cdutycycle_t\000"
 2635      75747963 
 2635      79636C65 
 2635      5F7400
 2636              	.LASF92:
 2637 0024 69326373 		.ascii	"i2cstate_t\000"
 2637      74617465 
 2637      5F7400
 2638              	.LASF4:
 2639 002f 73697A65 		.ascii	"size_t\000"
 2639      5F7400
 2640              	.LASF58:
 2641 0036 7264796D 		.ascii	"rdymsg\000"
 2641      736700
 2642              	.LASF5:
 2643 003d 5F5F7569 		.ascii	"__uint8_t\000"
 2643      6E74385F 
 2643      7400
 2644              	.LASF87:
 2645 0047 4932435F 		.ascii	"I2C_STOP\000"
 2645      53544F50 
 2645      00
 2646              	.LASF138:
 2647 0050 6932635F 		.ascii	"i2c_lld_master_receive_timeout\000"
 2647      6C6C645F 
 2647      6D617374 
 2647      65725F72 
 2647      65636569 
 2648              	.LASF77:
 2649 006f 54524953 		.ascii	"TRISE\000"
 2649      4500
 2650              	.LASF127:
 2651 0075 72786275 		.ascii	"rxbuf\000"
 2651      6600
 2652              	.LASF14:
 2653 007b 6C6F6E67 		.ascii	"long long unsigned int\000"
 2653      206C6F6E 
ARM GAS  /var/folders/6q/x_mk5n_j3p7_c40r_2k_78980000gn/T//ccYTRlZX.s 			page 48


 2653      6720756E 
 2653      7369676E 
 2653      65642069 
 2654              	.LASF113:
 2655 0092 61646472 		.ascii	"addr\000"
 2655      00
 2656              	.LASF120:
 2657 0097 69326353 		.ascii	"i2cStart\000"
 2657      74617274 
 2657      00
 2658              	.LASF59:
 2659 00a0 65786974 		.ascii	"exitcode\000"
 2659      636F6465 
 2659      00
 2660              	.LASF84:
 2661 00a9 76656374 		.ascii	"vector\000"
 2661      6F7200
 2662              	.LASF132:
 2663 00b0 69326352 		.ascii	"i2cReleaseBus\000"
 2663      656C6561 
 2663      73654275 
 2663      7300
 2664              	.LASF144:
 2665 00be 49544D5F 		.ascii	"ITM_RxBuffer\000"
 2665      52784275 
 2665      66666572 
 2665      00
 2666              	.LASF121:
 2667 00cb 69326370 		.ascii	"i2cp\000"
 2667      00
 2668              	.LASF31:
 2669 00d0 705F7072 		.ascii	"p_prio\000"
 2669      696F00
 2670              	.LASF124:
 2671 00d7 6932634D 		.ascii	"i2cMasterTransmitTimeout\000"
 2671      61737465 
 2671      72547261 
 2671      6E736D69 
 2671      7454696D 
 2672              	.LASF142:
 2673 00f0 2E2E2F43 		.ascii	"../ChibiOS/os/hal/src/i2c.c\000"
 2673      68696269 
 2673      4F532F6F 
 2673      732F6861 
 2673      6C2F7372 
 2674              	.LASF140:
 2675 010c 63684D74 		.ascii	"chMtxUnlock\000"
 2675      78556E6C 
 2675      6F636B00 
 2676              	.LASF3:
 2677 0118 7369676E 		.ascii	"signed char\000"
 2677      65642063 
 2677      68617200 
 2678              	.LASF104:
 2679 0124 636C6F63 		.ascii	"clock_speed\000"
 2679      6B5F7370 
 2679      65656400 
ARM GAS  /var/folders/6q/x_mk5n_j3p7_c40r_2k_78980000gn/T//ccYTRlZX.s 			page 49


 2680              	.LASF47:
 2681 0130 705F6D70 		.ascii	"p_mpool\000"
 2681      6F6F6C00 
 2682              	.LASF55:
 2683 0138 6D5F7175 		.ascii	"m_queue\000"
 2683      65756500 
 2684              	.LASF137:
 2685 0140 6932635F 		.ascii	"i2c_lld_master_transmit_timeout\000"
 2685      6C6C645F 
 2685      6D617374 
 2685      65725F74 
 2685      72616E73 
 2686              	.LASF23:
 2687 0160 74736C69 		.ascii	"tslices_t\000"
 2687      6365735F 
 2687      7400
 2688              	.LASF93:
 2689 016a 69326361 		.ascii	"i2caddr_t\000"
 2689      6464725F 
 2689      7400
 2690              	.LASF108:
 2691 0174 73746174 		.ascii	"state\000"
 2691      6500
 2692              	.LASF11:
 2693 017a 6C6F6E67 		.ascii	"long int\000"
 2693      20696E74 
 2693      00
 2694              	.LASF21:
 2695 0183 74737461 		.ascii	"tstate_t\000"
 2695      74655F74 
 2695      00
 2696              	.LASF112:
 2697 018c 74687265 		.ascii	"thread\000"
 2697      616400
 2698              	.LASF38:
 2699 0193 705F7265 		.ascii	"p_refs\000"
 2699      667300
 2700              	.LASF1:
 2701 019a 6C6F6E67 		.ascii	"long long int\000"
 2701      206C6F6E 
 2701      6720696E 
 2701      7400
 2702              	.LASF106:
 2703 01a8 49324343 		.ascii	"I2CConfig\000"
 2703      6F6E6669 
 2703      6700
 2704              	.LASF40:
 2705 01b2 705F7469 		.ascii	"p_time\000"
 2705      6D6500
 2706              	.LASF33:
 2707 01b9 705F6E65 		.ascii	"p_newer\000"
 2707      77657200 
 2708              	.LASF114:
 2709 01c1 7278646D 		.ascii	"rxdmamode\000"
 2709      616D6F64 
 2709      6500
 2710              	.LASF117:
ARM GAS  /var/folders/6q/x_mk5n_j3p7_c40r_2k_78980000gn/T//ccYTRlZX.s 			page 50


 2711 01cb 646D6174 		.ascii	"dmatx\000"
 2711      7800
 2712              	.LASF97:
 2713 01d1 4F504D4F 		.ascii	"OPMODE_SMBUS_HOST\000"
 2713      44455F53 
 2713      4D425553 
 2713      5F484F53 
 2713      5400
 2714              	.LASF12:
 2715 01e3 5F5F7569 		.ascii	"__uint32_t\000"
 2715      6E743332 
 2715      5F7400
 2716              	.LASF50:
 2717 01ee 72656761 		.ascii	"regarm_t\000"
 2717      726D5F74 
 2717      00
 2718              	.LASF83:
 2719 01f7 73656C66 		.ascii	"selfindex\000"
 2719      696E6465 
 2719      7800
 2720              	.LASF103:
 2721 0201 6F705F6D 		.ascii	"op_mode\000"
 2721      6F646500 
 2722              	.LASF28:
 2723 0209 54687265 		.ascii	"Thread\000"
 2723      616400
 2724              	.LASF0:
 2725 0210 756E7369 		.ascii	"unsigned int\000"
 2725      676E6564 
 2725      20696E74 
 2725      00
 2726              	.LASF125:
 2727 021d 74786275 		.ascii	"txbuf\000"
 2727      6600
 2728              	.LASF64:
 2729 0223 43504152 		.ascii	"CPAR\000"
 2729      00
 2730              	.LASF42:
 2731 0228 705F6D73 		.ascii	"p_msgqueue\000"
 2731      67717565 
 2731      756500
 2732              	.LASF129:
 2733 0233 74696D65 		.ascii	"timeout\000"
 2733      6F757400 
 2734              	.LASF66:
 2735 023b 444D415F 		.ascii	"DMA_Channel_TypeDef\000"
 2735      4368616E 
 2735      6E656C5F 
 2735      54797065 
 2735      44656600 
 2736              	.LASF82:
 2737 024f 69736869 		.ascii	"ishift\000"
 2737      667400
 2738              	.LASF141:
 2739 0256 474E5520 		.ascii	"GNU C11 5.4.1 20160919 (release) [ARM/embedded-5-br"
 2739      43313120 
 2739      352E342E 
ARM GAS  /var/folders/6q/x_mk5n_j3p7_c40r_2k_78980000gn/T//ccYTRlZX.s 			page 51


 2739      31203230 
 2739      31363039 
 2740 0289 616E6368 		.ascii	"anch revision 240496] -mcpu=cortex-m3 -mno-thumb-in"
 2740      20726576 
 2740      6973696F 
 2740      6E203234 
 2740      30343936 
 2741 02bc 74657277 		.ascii	"terwork -mthumb -ggdb -O2 -fomit-frame-pointer -fal"
 2741      6F726B20 
 2741      2D6D7468 
 2741      756D6220 
 2741      2D676764 
 2742 02ef 69676E2D 		.ascii	"ign-functions=16 -ffunction-sections -fdata-section"
 2742      66756E63 
 2742      74696F6E 
 2742      733D3136 
 2742      202D6666 
 2743 0322 73202D66 		.ascii	"s -fno-common\000"
 2743      6E6F2D63 
 2743      6F6D6D6F 
 2743      6E00
 2744              	.LASF96:
 2745 0330 4F504D4F 		.ascii	"OPMODE_SMBUS_DEVICE\000"
 2745      44455F53 
 2745      4D425553 
 2745      5F444556 
 2745      49434500 
 2746              	.LASF9:
 2747 0344 73686F72 		.ascii	"short unsigned int\000"
 2747      7420756E 
 2747      7369676E 
 2747      65642069 
 2747      6E7400
 2748              	.LASF107:
 2749 0357 49324344 		.ascii	"I2CDriver\000"
 2749      72697665 
 2749      7200
 2750              	.LASF25:
 2751 0361 6D73675F 		.ascii	"msg_t\000"
 2751      7400
 2752              	.LASF20:
 2753 0367 746D6F64 		.ascii	"tmode_t\000"
 2753      655F7400 
 2754              	.LASF16:
 2755 036f 75696E74 		.ascii	"uint16_t\000"
 2755      31365F74 
 2755      00
 2756              	.LASF49:
 2757 0378 54687265 		.ascii	"ThreadsList\000"
 2757      6164734C 
 2757      69737400 
 2758              	.LASF26:
 2759 0384 6576656E 		.ascii	"eventmask_t\000"
 2759      746D6173 
 2759      6B5F7400 
 2760              	.LASF7:
 2761 0390 73686F72 		.ascii	"short int\000"
ARM GAS  /var/folders/6q/x_mk5n_j3p7_c40r_2k_78980000gn/T//ccYTRlZX.s 			page 52


 2761      7420696E 
 2761      7400
 2762              	.LASF136:
 2763 039a 6932635F 		.ascii	"i2c_lld_stop\000"
 2763      6C6C645F 
 2763      73746F70 
 2763      00
 2764              	.LASF135:
 2765 03a7 6932635F 		.ascii	"i2c_lld_start\000"
 2765      6C6C645F 
 2765      73746172 
 2765      7400
 2766              	.LASF53:
 2767 03b5 73697A65 		.ascii	"sizetype\000"
 2767      74797065 
 2767      00
 2768              	.LASF2:
 2769 03be 6C6F6E67 		.ascii	"long double\000"
 2769      20646F75 
 2769      626C6500 
 2770              	.LASF54:
 2771 03ca 4D757465 		.ascii	"Mutex\000"
 2771      7800
 2772              	.LASF110:
 2773 03d0 6572726F 		.ascii	"errors\000"
 2773      727300
 2774              	.LASF105:
 2775 03d7 64757479 		.ascii	"duty_cycle\000"
 2775      5F637963 
 2775      6C6500
 2776              	.LASF139:
 2777 03e2 63684D74 		.ascii	"chMtxLock\000"
 2777      784C6F63 
 2777      6B00
 2778              	.LASF34:
 2779 03ec 705F6F6C 		.ascii	"p_older\000"
 2779      64657200 
 2780              	.LASF128:
 2781 03f4 72786279 		.ascii	"rxbytes\000"
 2781      74657300 
 2782              	.LASF122:
 2783 03fc 69326353 		.ascii	"i2cStop\000"
 2783      746F7000 
 2784              	.LASF48:
 2785 0404 54687265 		.ascii	"ThreadsQueue\000"
 2785      61647351 
 2785      75657565 
 2785      00
 2786              	.LASF115:
 2787 0411 7478646D 		.ascii	"txdmamode\000"
 2787      616D6F64 
 2787      6500
 2788              	.LASF95:
 2789 041b 4F504D4F 		.ascii	"OPMODE_I2C\000"
 2789      44455F49 
 2789      324300
 2790              	.LASF101:
ARM GAS  /var/folders/6q/x_mk5n_j3p7_c40r_2k_78980000gn/T//ccYTRlZX.s 			page 53


 2791 0426 46415354 		.ascii	"FAST_DUTY_CYCLE_16_9\000"
 2791      5F445554 
 2791      595F4359 
 2791      434C455F 
 2791      31365F39 
 2792              	.LASF22:
 2793 043b 74726566 		.ascii	"trefs_t\000"
 2793      735F7400 
 2794              	.LASF67:
 2795 0443 52455345 		.ascii	"RESERVED0\000"
 2795      52564544 
 2795      3000
 2796              	.LASF68:
 2797 044d 52455345 		.ascii	"RESERVED1\000"
 2797      52564544 
 2797      3100
 2798              	.LASF70:
 2799 0457 52455345 		.ascii	"RESERVED2\000"
 2799      52564544 
 2799      3200
 2800              	.LASF72:
 2801 0461 52455345 		.ascii	"RESERVED3\000"
 2801      52564544 
 2801      3300
 2802              	.LASF73:
 2803 046b 52455345 		.ascii	"RESERVED4\000"
 2803      52564544 
 2803      3400
 2804              	.LASF30:
 2805 0475 705F7072 		.ascii	"p_prev\000"
 2805      657600
 2806              	.LASF75:
 2807 047c 52455345 		.ascii	"RESERVED6\000"
 2807      52564544 
 2807      3600
 2808              	.LASF76:
 2809 0486 52455345 		.ascii	"RESERVED7\000"
 2809      52564544 
 2809      3700
 2810              	.LASF78:
 2811 0490 52455345 		.ascii	"RESERVED8\000"
 2811      52564544 
 2811      3800
 2812              	.LASF24:
 2813 049a 74707269 		.ascii	"tprio_t\000"
 2813      6F5F7400 
 2814              	.LASF89:
 2815 04a2 4932435F 		.ascii	"I2C_ACTIVE_TX\000"
 2815      41435449 
 2815      56455F54 
 2815      5800
 2816              	.LASF94:
 2817 04b0 69326366 		.ascii	"i2cflags_t\000"
 2817      6C616773 
 2817      5F7400
 2818              	.LASF111:
 2819 04bb 6D757465 		.ascii	"mutex\000"
ARM GAS  /var/folders/6q/x_mk5n_j3p7_c40r_2k_78980000gn/T//ccYTRlZX.s 			page 54


 2819      7800
 2820              	.LASF19:
 2821 04c1 5F426F6F 		.ascii	"_Bool\000"
 2821      6C00
 2822              	.LASF17:
 2823 04c7 696E7433 		.ascii	"int32_t\000"
 2823      325F7400 
 2824              	.LASF6:
 2825 04cf 756E7369 		.ascii	"unsigned char\000"
 2825      676E6564 
 2825      20636861 
 2825      7200
 2826              	.LASF85:
 2827 04dd 73746D33 		.ascii	"stm32_dma_stream_t\000"
 2827      325F646D 
 2827      615F7374 
 2827      7265616D 
 2827      5F7400
 2828              	.LASF45:
 2829 04f0 705F6D74 		.ascii	"p_mtxlist\000"
 2829      786C6973 
 2829      7400
 2830              	.LASF86:
 2831 04fa 4932435F 		.ascii	"I2C_UNINIT\000"
 2831      554E494E 
 2831      495400
 2832              	.LASF36:
 2833 0505 705F7374 		.ascii	"p_state\000"
 2833      61746500 
 2834              	.LASF39:
 2835 050d 705F7072 		.ascii	"p_preempt\000"
 2835      65656D70 
 2835      7400
 2836              	.LASF123:
 2837 0517 69326347 		.ascii	"i2cGetErrors\000"
 2837      65744572 
 2837      726F7273 
 2837      00
 2838              	.LASF61:
 2839 0524 65776D61 		.ascii	"ewmask\000"
 2839      736B00
 2840              	.LASF29:
 2841 052b 705F6E65 		.ascii	"p_next\000"
 2841      787400
 2842              	.LASF37:
 2843 0532 705F666C 		.ascii	"p_flags\000"
 2843      61677300 
 2844              	.LASF100:
 2845 053a 46415354 		.ascii	"FAST_DUTY_CYCLE_2\000"
 2845      5F445554 
 2845      595F4359 
 2845      434C455F 
 2845      3200
 2846              	.LASF80:
 2847 054c 6368616E 		.ascii	"channel\000"
 2847      6E656C00 
 2848              	.LASF91:
ARM GAS  /var/folders/6q/x_mk5n_j3p7_c40r_2k_78980000gn/T//ccYTRlZX.s 			page 55


 2849 0554 4932435F 		.ascii	"I2C_LOCKED\000"
 2849      4C4F434B 
 2849      454400
 2850              	.LASF44:
 2851 055f 705F6570 		.ascii	"p_epending\000"
 2851      656E6469 
 2851      6E6700
 2852              	.LASF81:
 2853 056a 69666372 		.ascii	"ifcr\000"
 2853      00
 2854              	.LASF133:
 2855 056f 6932635F 		.ascii	"i2c_lld_init\000"
 2855      6C6C645F 
 2855      696E6974 
 2855      00
 2856              	.LASF74:
 2857 057c 52455345 		.ascii	"RESERVED5\000"
 2857      52564544 
 2857      3500
 2858              	.LASF18:
 2859 0586 75696E74 		.ascii	"uint32_t\000"
 2859      33325F74 
 2859      00
 2860              	.LASF90:
 2861 058f 4932435F 		.ascii	"I2C_ACTIVE_RX\000"
 2861      41435449 
 2861      56455F52 
 2861      5800
 2862              	.LASF13:
 2863 059d 6C6F6E67 		.ascii	"long unsigned int\000"
 2863      20756E73 
 2863      69676E65 
 2863      6420696E 
 2863      7400
 2864              	.LASF62:
 2865 05af 63686172 		.ascii	"char\000"
 2865      00
 2866              	.LASF109:
 2867 05b4 636F6E66 		.ascii	"config\000"
 2867      696700
 2868              	.LASF8:
 2869 05bb 5F5F7569 		.ascii	"__uint16_t\000"
 2869      6E743136 
 2869      5F7400
 2870              	.LASF57:
 2871 05c6 6D5F6E65 		.ascii	"m_next\000"
 2871      787400
 2872              	.LASF27:
 2873 05cd 73797374 		.ascii	"systime_t\000"
 2873      696D655F 
 2873      7400
 2874              	.LASF46:
 2875 05d7 705F7265 		.ascii	"p_realprio\000"
 2875      616C7072 
 2875      696F00
 2876              	.LASF10:
 2877 05e2 5F5F696E 		.ascii	"__int32_t\000"
ARM GAS  /var/folders/6q/x_mk5n_j3p7_c40r_2k_78980000gn/T//ccYTRlZX.s 			page 56


 2877      7433325F 
 2877      7400
 2878              	.LASF88:
 2879 05ec 4932435F 		.ascii	"I2C_READY\000"
 2879      52454144 
 2879      5900
 2880              	.LASF52:
 2881 05f6 636F6E74 		.ascii	"context\000"
 2881      65787400 
 2882              	.LASF51:
 2883 05fe 696E7463 		.ascii	"intctx\000"
 2883      747800
 2884              	.LASF134:
 2885 0605 63684D74 		.ascii	"chMtxInit\000"
 2885      78496E69 
 2885      7400
 2886              	.LASF143:
 2887 060f 2F557365 		.ascii	"/Users/Luca/src/vexilla/src/teamA\000"
 2887      72732F4C 
 2887      7563612F 
 2887      7372632F 
 2887      76657869 
 2888              	.LASF131:
 2889 0631 69326341 		.ascii	"i2cAcquireBus\000"
 2889      63717569 
 2889      72654275 
 2889      7300
 2890              	.LASF63:
 2891 063f 434E4454 		.ascii	"CNDTR\000"
 2891      5200
 2892              	.LASF65:
 2893 0645 434D4152 		.ascii	"CMAR\000"
 2893      00
 2894              	.LASF15:
 2895 064a 75696E74 		.ascii	"uint8_t\000"
 2895      385F7400 
 2896              	.LASF69:
 2897 0652 4F415231 		.ascii	"OAR1\000"
 2897      00
 2898              	.LASF71:
 2899 0657 4F415232 		.ascii	"OAR2\000"
 2899      00
 2900              	.LASF130:
 2901 065c 6932634D 		.ascii	"i2cMasterReceiveTimeout\000"
 2901      61737465 
 2901      72526563 
 2901      65697665 
 2901      54696D65 
 2902              	.LASF60:
 2903 0674 77746F62 		.ascii	"wtobjp\000"
 2903      6A7000
 2904              	.LASF35:
 2905 067b 705F6E61 		.ascii	"p_name\000"
 2905      6D6500
 2906              	.LASF118:
 2907 0682 69326349 		.ascii	"i2cInit\000"
 2907      6E697400 
ARM GAS  /var/folders/6q/x_mk5n_j3p7_c40r_2k_78980000gn/T//ccYTRlZX.s 			page 57


 2908              	.LASF43:
 2909 068a 705F6D73 		.ascii	"p_msg\000"
 2909      6700
 2910              	.LASF79:
 2911 0690 4932435F 		.ascii	"I2C_TypeDef\000"
 2911      54797065 
 2911      44656600 
 2912              	.LASF98:
 2913 069c 6932636F 		.ascii	"i2copmode_t\000"
 2913      706D6F64 
 2913      655F7400 
 2914              	.LASF119:
 2915 06a8 6932634F 		.ascii	"i2cObjectInit\000"
 2915      626A6563 
 2915      74496E69 
 2915      7400
 2916              	.LASF56:
 2917 06b6 6D5F6F77 		.ascii	"m_owner\000"
 2917      6E657200 
 2918              	.LASF32:
 2919 06be 705F6374 		.ascii	"p_ctx\000"
 2919      7800
 2920              	.LASF41:
 2921 06c4 705F7761 		.ascii	"p_waiting\000"
 2921      6974696E 
 2921      6700
 2922              	.LASF126:
 2923 06ce 74786279 		.ascii	"txbytes\000"
 2923      74657300 
 2924              		.ident	"GCC: (GNU Tools for ARM Embedded Processors) 5.4.1 20160919 (release) [ARM/embedded-5-bran
ARM GAS  /var/folders/6q/x_mk5n_j3p7_c40r_2k_78980000gn/T//ccYTRlZX.s 			page 58


DEFINED SYMBOLS
                            *ABS*:0000000000000000 i2c.c
/var/folders/6q/x_mk5n_j3p7_c40r_2k_78980000gn/T//ccYTRlZX.s:20     .text.i2cInit:0000000000000000 $t
/var/folders/6q/x_mk5n_j3p7_c40r_2k_78980000gn/T//ccYTRlZX.s:26     .text.i2cInit:0000000000000000 i2cInit
/var/folders/6q/x_mk5n_j3p7_c40r_2k_78980000gn/T//ccYTRlZX.s:41     .text.i2cObjectInit:0000000000000000 $t
/var/folders/6q/x_mk5n_j3p7_c40r_2k_78980000gn/T//ccYTRlZX.s:47     .text.i2cObjectInit:0000000000000000 i2cObjectInit
/var/folders/6q/x_mk5n_j3p7_c40r_2k_78980000gn/T//ccYTRlZX.s:72     .text.i2cStart:0000000000000000 $t
/var/folders/6q/x_mk5n_j3p7_c40r_2k_78980000gn/T//ccYTRlZX.s:78     .text.i2cStart:0000000000000000 i2cStart
/var/folders/6q/x_mk5n_j3p7_c40r_2k_78980000gn/T//ccYTRlZX.s:127    .text.i2cStop:0000000000000000 $t
/var/folders/6q/x_mk5n_j3p7_c40r_2k_78980000gn/T//ccYTRlZX.s:133    .text.i2cStop:0000000000000000 i2cStop
/var/folders/6q/x_mk5n_j3p7_c40r_2k_78980000gn/T//ccYTRlZX.s:180    .text.i2cGetErrors:0000000000000000 $t
/var/folders/6q/x_mk5n_j3p7_c40r_2k_78980000gn/T//ccYTRlZX.s:186    .text.i2cGetErrors:0000000000000000 i2cGetErrors
/var/folders/6q/x_mk5n_j3p7_c40r_2k_78980000gn/T//ccYTRlZX.s:202    .text.i2cMasterTransmitTimeout:0000000000000000 $t
/var/folders/6q/x_mk5n_j3p7_c40r_2k_78980000gn/T//ccYTRlZX.s:208    .text.i2cMasterTransmitTimeout:0000000000000000 i2cMasterTransmitTimeout
/var/folders/6q/x_mk5n_j3p7_c40r_2k_78980000gn/T//ccYTRlZX.s:286    .text.i2cMasterReceiveTimeout:0000000000000000 $t
/var/folders/6q/x_mk5n_j3p7_c40r_2k_78980000gn/T//ccYTRlZX.s:292    .text.i2cMasterReceiveTimeout:0000000000000000 i2cMasterReceiveTimeout
/var/folders/6q/x_mk5n_j3p7_c40r_2k_78980000gn/T//ccYTRlZX.s:364    .text.i2cAcquireBus:0000000000000000 $t
/var/folders/6q/x_mk5n_j3p7_c40r_2k_78980000gn/T//ccYTRlZX.s:370    .text.i2cAcquireBus:0000000000000000 i2cAcquireBus
/var/folders/6q/x_mk5n_j3p7_c40r_2k_78980000gn/T//ccYTRlZX.s:387    .text.i2cReleaseBus:0000000000000000 $t
/var/folders/6q/x_mk5n_j3p7_c40r_2k_78980000gn/T//ccYTRlZX.s:393    .text.i2cReleaseBus:0000000000000000 i2cReleaseBus
                     .debug_frame:0000000000000010 $d

UNDEFINED SYMBOLS
i2c_lld_init
chMtxInit
i2c_lld_start
i2c_lld_stop
i2c_lld_master_transmit_timeout
i2c_lld_master_receive_timeout
chMtxLock
chMtxUnlock
