ARM GAS  /var/folders/6q/x_mk5n_j3p7_c40r_2k_78980000gn/T//ccUpRebl.s 			page 1


   1              		.syntax unified
   2              		.cpu cortex-m3
   3              		.fpu softvfp
   4              		.eabi_attribute 20, 1
   5              		.eabi_attribute 21, 1
   6              		.eabi_attribute 23, 3
   7              		.eabi_attribute 24, 1
   8              		.eabi_attribute 25, 1
   9              		.eabi_attribute 26, 1
  10              		.eabi_attribute 30, 2
  11              		.eabi_attribute 34, 1
  12              		.eabi_attribute 18, 4
  13              		.thumb
  14              		.syntax unified
  15              		.file	"main.c"
  16              		.text
  17              	.Ltext0:
  18              		.cfi_sections	.debug_frame
  19              		.section	.text.cmd_apollo,"ax",%progbits
  20              		.align	2
  21              		.p2align 4,,15
  22              		.thumb
  23              		.thumb_func
  24              		.type	cmd_apollo, %function
  25              	cmd_apollo:
  26              	.LFB64:
  27              		.file 1 "main.c"
  28              		.loc 1 62 0
  29              		.cfi_startproc
  30              		@ args = 0, pretend = 0, frame = 0
  31              		@ frame_needed = 0, uses_anonymous_args = 0
  32              	.LVL0:
  33 0000 10B5     		push	{r4, lr}
  34              		.cfi_def_cfa_offset 8
  35              		.cfi_offset 4, -8
  36              		.cfi_offset 14, -4
  37              		.loc 1 62 0
  38 0002 0446     		mov	r4, r0
  39              		.loc 1 66 0
  40 0004 FFF7FEFF 		bl	apolloInit
  41              	.LVL1:
  42              		.loc 1 69 0
  43 0008 6369     		ldr	r3, [r4, #20]
  44 000a 23B9     		cbnz	r3, .L3
  45              	.L2:
  46              		.loc 1 71 0
  47 000c FFF7FEFF 		bl	apolloUpdate
  48              	.LVL2:
  49              		.loc 1 69 0
  50 0010 6369     		ldr	r3, [r4, #20]
  51 0012 002B     		cmp	r3, #0
  52 0014 FAD0     		beq	.L2
  53              	.L3:
  54              		.loc 1 75 0
  55 0016 BDE81040 		pop	{r4, lr}
  56              		.cfi_restore 14
  57              		.cfi_restore 4
ARM GAS  /var/folders/6q/x_mk5n_j3p7_c40r_2k_78980000gn/T//ccUpRebl.s 			page 2


  58              		.cfi_def_cfa_offset 0
  59              	.LVL3:
  60              		.loc 1 74 0
  61 001a FFF7FEBF 		b	apolloDeinit
  62              	.LVL4:
  63              		.cfi_endproc
  64              	.LFE64:
  65              		.size	cmd_apollo, .-cmd_apollo
  66 001e 00BF     		.section	.text.startup.main,"ax",%progbits
  67              		.align	2
  68              		.p2align 4,,15
  69              		.global	main
  70              		.thumb
  71              		.thumb_func
  72              		.type	main, %function
  73              	main:
  74              	.LFB65:
  75              		.loc 1 104 0
  76              		.cfi_startproc
  77              		@ args = 0, pretend = 0, frame = 0
  78              		@ frame_needed = 0, uses_anonymous_args = 0
  79              	.LVL5:
  80 0000 10B5     		push	{r4, lr}
  81              		.cfi_def_cfa_offset 8
  82              		.cfi_offset 4, -8
  83              		.cfi_offset 14, -4
  84              		.loc 1 113 0
  85 0002 FFF7FEFF 		bl	halInit
  86              	.LVL6:
  87              		.loc 1 123 0
  88 0006 3324     		movs	r4, #51
  89              		.loc 1 114 0
  90 0008 FFF7FEFF 		bl	chSysInit
  91              	.LVL7:
  92              		.loc 1 117 0
  93 000c FFF7FEFF 		bl	vexConsoleInit
  94              	.LVL8:
  95              		.loc 1 120 0
  96 0010 FFF7FEFF 		bl	vexCortexInit
  97              	.LVL9:
  98              		.loc 1 123 0
  99 0014 05E0     		b	.L11
 100              	.LVL10:
 101              	.L13:
 102 0016 013C     		subs	r4, r4, #1
 103              	.LVL11:
 104              		.loc 1 126 0
 105 0018 6420     		movs	r0, #100
 106 001a A4B2     		uxth	r4, r4
 107 001c FFF7FEFF 		bl	chThdSleep
 108              	.LVL12:
 109              		.loc 1 128 0
 110 0020 1CB1     		cbz	r4, .L14
 111              	.L11:
 112              	.LVL13:
 113              		.loc 1 123 0
 114 0022 FFF7FEFF 		bl	vexSpiGetOnlineStatus
ARM GAS  /var/folders/6q/x_mk5n_j3p7_c40r_2k_78980000gn/T//ccUpRebl.s 			page 3


 115              	.LVL14:
 116 0026 0028     		cmp	r0, #0
 117 0028 F5D0     		beq	.L13
 118              	.LVL15:
 119              	.L14:
 120              		.loc 1 105 0
 121 002a 0024     		movs	r4, #0
 122              		.loc 1 133 0
 123 002c FFF7FEFF 		bl	shellInit
 124              	.LVL16:
 125              		.loc 1 138 0
 126 0030 3CB1     		cbz	r4, .L19
 127              	.L15:
 128              		.loc 1 141 0
 129 0032 237F     		ldrb	r3, [r4, #28]	@ zero_extendqisi2
 130 0034 0E2B     		cmp	r3, #14
 131 0036 0CD0     		beq	.L20
 132              	.LVL17:
 133              	.L16:
 134              		.loc 1 146 0
 135 0038 3220     		movs	r0, #50
 136 003a FFF7FEFF 		bl	chThdSleep
 137              	.LVL18:
 138              		.loc 1 138 0
 139 003e 002C     		cmp	r4, #0
 140 0040 F7D1     		bne	.L15
 141              	.L19:
 142              	.LVL19:
 143              		.loc 1 139 0
 144 0042 4022     		movs	r2, #64
 145 0044 4FF42C71 		mov	r1, #688
 146 0048 0448     		ldr	r0, .L21
 147 004a FFF7FEFF 		bl	shellCreate
 148              	.LVL20:
 149 004e 0446     		mov	r4, r0
 150              	.LVL21:
 151 0050 F2E7     		b	.L16
 152              	.LVL22:
 153              	.L20:
 154              		.loc 1 143 0
 155 0052 2046     		mov	r0, r4
 156 0054 FFF7FEFF 		bl	chThdRelease
 157              	.LVL23:
 158              		.loc 1 144 0
 159 0058 0024     		movs	r4, #0
 160 005a EDE7     		b	.L16
 161              	.L22:
 162              		.align	2
 163              	.L21:
 164 005c 00000000 		.word	.LANCHOR0
 165              		.cfi_endproc
 166              	.LFE65:
 167              		.size	main, .-main
 168              		.section	.rodata.commands,"a",%progbits
 169              		.align	2
 170              		.type	commands, %object
 171              		.size	commands, 80
ARM GAS  /var/folders/6q/x_mk5n_j3p7_c40r_2k_78980000gn/T//ccUpRebl.s 			page 4


 172              	commands:
 173 0000 00000000 		.word	.LC0
 174 0004 00000000 		.word	vexAdcDebug
 175 0008 04000000 		.word	.LC1
 176 000c 00000000 		.word	vexSpiDebug
 177 0010 08000000 		.word	.LC2
 178 0014 00000000 		.word	vexMotorDebug
 179 0018 10000000 		.word	.LC3
 180 001c 00000000 		.word	vexLcdDebug
 181 0020 14000000 		.word	.LC4
 182 0024 00000000 		.word	vexEncoderDebug
 183 0028 18000000 		.word	.LC5
 184 002c 00000000 		.word	vexSonarDebug
 185 0030 1C000000 		.word	.LC6
 186 0034 00000000 		.word	vexIMEDebug
 187 0038 20000000 		.word	.LC7
 188 003c 00000000 		.word	vexTestDebug
 189 0040 28000000 		.word	.LC8
 190 0044 00000000 		.word	cmd_apollo
 191 0048 00000000 		.word	0
 192 004c 00000000 		.word	0
 193              		.section	.rodata.shell_cfg1,"a",%progbits
 194              		.align	2
 195              		.set	.LANCHOR0,. + 0
 196              		.type	shell_cfg1, %object
 197              		.size	shell_cfg1, 8
 198              	shell_cfg1:
 199 0000 00000000 		.word	SD1
 200 0004 00000000 		.word	commands
 201              		.section	.rodata.str1.4,"aMS",%progbits,1
 202              		.align	2
 203              	.LC0:
 204 0000 61646300 		.ascii	"adc\000"
 205              	.LC1:
 206 0004 73706900 		.ascii	"spi\000"
 207              	.LC2:
 208 0008 6D6F746F 		.ascii	"motor\000"
 208      7200
 209 000e 0000     		.space	2
 210              	.LC3:
 211 0010 6C636400 		.ascii	"lcd\000"
 212              	.LC4:
 213 0014 656E6300 		.ascii	"enc\000"
 214              	.LC5:
 215 0018 736F6E00 		.ascii	"son\000"
 216              	.LC6:
 217 001c 696D6500 		.ascii	"ime\000"
 218              	.LC7:
 219 0020 74657374 		.ascii	"test\000"
 219      00
 220 0025 000000   		.space	3
 221              	.LC8:
 222 0028 61706F6C 		.ascii	"apollo\000"
 222      6C6F00
 223              		.text
 224              	.Letext0:
 225              		.file 2 "/Users/Luca/src/vexilla/src/gcc-arm-none-eabi-5_4-2016q3/lib/gcc/arm-none-eabi/5.4.1/incl
ARM GAS  /var/folders/6q/x_mk5n_j3p7_c40r_2k_78980000gn/T//ccUpRebl.s 			page 5


 226              		.file 3 "/Users/Luca/src/vexilla/src/gcc-arm-none-eabi-5_4-2016q3/arm-none-eabi/include/machine/_d
 227              		.file 4 "/Users/Luca/src/vexilla/src/gcc-arm-none-eabi-5_4-2016q3/arm-none-eabi/include/sys/_stdin
 228              		.file 5 "../ChibiOS/os/ports/GCC/ARMCMx/chtypes.h"
 229              		.file 6 "../ChibiOS/os/kernel/include/chlists.h"
 230              		.file 7 "../ChibiOS/os/kernel/include/chthreads.h"
 231              		.file 8 "../ChibiOS/os/ports/GCC/ARMCMx/chcore_v7m.h"
 232              		.file 9 "../ChibiOS/os/kernel/include/chmtx.h"
 233              		.file 10 "../ChibiOS/os/kernel/include/chevents.h"
 234              		.file 11 "../ChibiOS/os/kernel/include/chqueues.h"
 235              		.file 12 "../ChibiOS/os/kernel/include/chstreams.h"
 236              		.file 13 "../ChibiOS/os/hal/platforms/STM32F1xx/stm32f10x.h"
 237              		.file 14 "../ChibiOS/os/hal/include/serial.h"
 238              		.file 15 "../convex-vexilla/cortex/fw/vexcompat.h"
 239              		.file 16 "../convex-vexilla/cortex/fw/vexdigital.h"
 240              		.file 17 "../convex-vexilla/cortex/fw/vexime.h"
 241              		.file 18 "../convex-vexilla/cortex/fw/vexshell.h"
 242              		.file 19 "../convex-vexilla/cortex/opt/apollo.h"
 243              		.file 20 "../ChibiOS/os/hal/include/hal.h"
 244              		.file 21 "../ChibiOS/os/kernel/include/chsys.h"
 245              		.file 22 "../convex-vexilla/cortex/fw/vex.h"
 246              		.file 23 "../convex-vexilla/cortex/fw/vexspi.h"
 247              		.file 24 "../ChibiOS/os/kernel/include/chdynamic.h"
 248              		.file 25 "../ChibiOS/os/ports/common/ARMCMx/CMSIS/include/core_cm3.h"
 249              		.file 26 "../ChibiOS/os/hal/platforms/STM32/USARTv1/serial_lld.h"