ARM GAS  /var/folders/6q/x_mk5n_j3p7_c40r_2k_78980000gn/T//ccUpRebl.s 			page 1


   1              		.syntax unified
   2              		.cpu cortex-m3
   3              		.fpu softvfp
   4              		.eabi_attribute 20, 1
   5              		.eabi_attribute 21, 1
   6              		.eabi_attribute 23, 3
   7              		.eabi_attribute 24, 1
   8              		.eabi_attribute 25, 1
   9              		.eabi_attribute 26, 1
  10              		.eabi_attribute 30, 2
  11              		.eabi_attribute 34, 1
  12              		.eabi_attribute 18, 4
  13              		.thumb
  14              		.syntax unified
  15              		.file	"main.c"
  16              		.text
  17              	.Ltext0:
  18              		.cfi_sections	.debug_frame
  19              		.section	.text.cmd_apollo,"ax",%progbits
  20              		.align	2
  21              		.p2align 4,,15
  22              		.thumb
  23              		.thumb_func
  24              		.type	cmd_apollo, %function
  25              	cmd_apollo:
  26              	.LFB64:
  27              		.file 1 "main.c"
  28              		.loc 1 62 0
  29              		.cfi_startproc
  30              		@ args = 0, pretend = 0, frame = 0
  31              		@ frame_needed = 0, uses_anonymous_args = 0
  32              	.LVL0:
  33 0000 10B5     		push	{r4, lr}
  34              		.cfi_def_cfa_offset 8
  35              		.cfi_offset 4, -8
  36              		.cfi_offset 14, -4
  37              		.loc 1 62 0
  38 0002 0446     		mov	r4, r0
  39              		.loc 1 66 0
  40 0004 FFF7FEFF 		bl	apolloInit
  41              	.LVL1:
  42              		.loc 1 69 0
  43 0008 6369     		ldr	r3, [r4, #20]
  44 000a 23B9     		cbnz	r3, .L3
  45              	.L2:
  46              		.loc 1 71 0
  47 000c FFF7FEFF 		bl	apolloUpdate
  48              	.LVL2:
  49              		.loc 1 69 0
  50 0010 6369     		ldr	r3, [r4, #20]
  51 0012 002B     		cmp	r3, #0
  52 0014 FAD0     		beq	.L2
  53              	.L3:
  54              		.loc 1 75 0
  55 0016 BDE81040 		pop	{r4, lr}
  56              		.cfi_restore 14
  57              		.cfi_restore 4
ARM GAS  /var/folders/6q/x_mk5n_j3p7_c40r_2k_78980000gn/T//ccUpRebl.s 			page 2


  58              		.cfi_def_cfa_offset 0
  59              	.LVL3:
  60              		.loc 1 74 0
  61 001a FFF7FEBF 		b	apolloDeinit
  62              	.LVL4:
  63              		.cfi_endproc
  64              	.LFE64:
  65              		.size	cmd_apollo, .-cmd_apollo
  66 001e 00BF     		.section	.text.startup.main,"ax",%progbits
  67              		.align	2
  68              		.p2align 4,,15
  69              		.global	main
  70              		.thumb
  71              		.thumb_func
  72              		.type	main, %function
  73              	main:
  74              	.LFB65:
  75              		.loc 1 104 0
  76              		.cfi_startproc
  77              		@ args = 0, pretend = 0, frame = 0
  78              		@ frame_needed = 0, uses_anonymous_args = 0
  79              	.LVL5:
  80 0000 10B5     		push	{r4, lr}
  81              		.cfi_def_cfa_offset 8
  82              		.cfi_offset 4, -8
  83              		.cfi_offset 14, -4
  84              		.loc 1 113 0
  85 0002 FFF7FEFF 		bl	halInit
  86              	.LVL6:
  87              		.loc 1 123 0
  88 0006 3324     		movs	r4, #51
  89              		.loc 1 114 0
  90 0008 FFF7FEFF 		bl	chSysInit
  91              	.LVL7:
  92              		.loc 1 117 0
  93 000c FFF7FEFF 		bl	vexConsoleInit
  94              	.LVL8:
  95              		.loc 1 120 0
  96 0010 FFF7FEFF 		bl	vexCortexInit
  97              	.LVL9:
  98              		.loc 1 123 0
  99 0014 05E0     		b	.L11
 100              	.LVL10:
 101              	.L13:
 102 0016 013C     		subs	r4, r4, #1
 103              	.LVL11:
 104              		.loc 1 126 0
 105 0018 6420     		movs	r0, #100
 106 001a A4B2     		uxth	r4, r4
 107 001c FFF7FEFF 		bl	chThdSleep
 108              	.LVL12:
 109              		.loc 1 128 0
 110 0020 1CB1     		cbz	r4, .L14
 111              	.L11:
 112              	.LVL13:
 113              		.loc 1 123 0
 114 0022 FFF7FEFF 		bl	vexSpiGetOnlineStatus
ARM GAS  /var/folders/6q/x_mk5n_j3p7_c40r_2k_78980000gn/T//ccUpRebl.s 			page 3


 115              	.LVL14:
 116 0026 0028     		cmp	r0, #0
 117 0028 F5D0     		beq	.L13
 118              	.LVL15:
 119              	.L14:
 120              		.loc 1 105 0
 121 002a 0024     		movs	r4, #0
 122              		.loc 1 133 0
 123 002c FFF7FEFF 		bl	shellInit
 124              	.LVL16:
 125              		.loc 1 138 0
 126 0030 3CB1     		cbz	r4, .L19
 127              	.L15:
 128              		.loc 1 141 0
 129 0032 237F     		ldrb	r3, [r4, #28]	@ zero_extendqisi2
 130 0034 0E2B     		cmp	r3, #14
 131 0036 0CD0     		beq	.L20
 132              	.LVL17:
 133              	.L16:
 134              		.loc 1 146 0
 135 0038 3220     		movs	r0, #50
 136 003a FFF7FEFF 		bl	chThdSleep
 137              	.LVL18:
 138              		.loc 1 138 0
 139 003e 002C     		cmp	r4, #0
 140 0040 F7D1     		bne	.L15
 141              	.L19:
 142              	.LVL19:
 143              		.loc 1 139 0
 144 0042 4022     		movs	r2, #64
 145 0044 4FF42C71 		mov	r1, #688
 146 0048 0448     		ldr	r0, .L21
 147 004a FFF7FEFF 		bl	shellCreate
 148              	.LVL20:
 149 004e 0446     		mov	r4, r0
 150              	.LVL21:
 151 0050 F2E7     		b	.L16
 152              	.LVL22:
 153              	.L20:
 154              		.loc 1 143 0
 155 0052 2046     		mov	r0, r4
 156 0054 FFF7FEFF 		bl	chThdRelease
 157              	.LVL23:
 158              		.loc 1 144 0
 159 0058 0024     		movs	r4, #0
 160 005a EDE7     		b	.L16
 161              	.L22:
 162              		.align	2
 163              	.L21:
 164 005c 00000000 		.word	.LANCHOR0
 165              		.cfi_endproc
 166              	.LFE65:
 167              		.size	main, .-main
 168              		.section	.rodata.commands,"a",%progbits
 169              		.align	2
 170              		.type	commands, %object
 171              		.size	commands, 80
ARM GAS  /var/folders/6q/x_mk5n_j3p7_c40r_2k_78980000gn/T//ccUpRebl.s 			page 4


 172              	commands:
 173 0000 00000000 		.word	.LC0
 174 0004 00000000 		.word	vexAdcDebug
 175 0008 04000000 		.word	.LC1
 176 000c 00000000 		.word	vexSpiDebug
 177 0010 08000000 		.word	.LC2
 178 0014 00000000 		.word	vexMotorDebug
 179 0018 10000000 		.word	.LC3
 180 001c 00000000 		.word	vexLcdDebug
 181 0020 14000000 		.word	.LC4
 182 0024 00000000 		.word	vexEncoderDebug
 183 0028 18000000 		.word	.LC5
 184 002c 00000000 		.word	vexSonarDebug
 185 0030 1C000000 		.word	.LC6
 186 0034 00000000 		.word	vexIMEDebug
 187 0038 20000000 		.word	.LC7
 188 003c 00000000 		.word	vexTestDebug
 189 0040 28000000 		.word	.LC8
 190 0044 00000000 		.word	cmd_apollo
 191 0048 00000000 		.word	0
 192 004c 00000000 		.word	0
 193              		.section	.rodata.shell_cfg1,"a",%progbits
 194              		.align	2
 195              		.set	.LANCHOR0,. + 0
 196              		.type	shell_cfg1, %object
 197              		.size	shell_cfg1, 8
 198              	shell_cfg1:
 199 0000 00000000 		.word	SD1
 200 0004 00000000 		.word	commands
 201              		.section	.rodata.str1.4,"aMS",%progbits,1
 202              		.align	2
 203              	.LC0:
 204 0000 61646300 		.ascii	"adc\000"
 205              	.LC1:
 206 0004 73706900 		.ascii	"spi\000"
 207              	.LC2:
 208 0008 6D6F746F 		.ascii	"motor\000"
 208      7200
 209 000e 0000     		.space	2
 210              	.LC3:
 211 0010 6C636400 		.ascii	"lcd\000"
 212              	.LC4:
 213 0014 656E6300 		.ascii	"enc\000"
 214              	.LC5:
 215 0018 736F6E00 		.ascii	"son\000"
 216              	.LC6:
 217 001c 696D6500 		.ascii	"ime\000"
 218              	.LC7:
 219 0020 74657374 		.ascii	"test\000"
 219      00
 220 0025 000000   		.space	3
 221              	.LC8:
 222 0028 61706F6C 		.ascii	"apollo\000"
 222      6C6F00
 223              		.text
 224              	.Letext0:
 225              		.file 2 "/Users/Luca/src/vexilla/src/gcc-arm-none-eabi-5_4-2016q3/lib/gcc/arm-none-eabi/5.4.1/incl
ARM GAS  /var/folders/6q/x_mk5n_j3p7_c40r_2k_78980000gn/T//ccUpRebl.s 			page 5


 226              		.file 3 "/Users/Luca/src/vexilla/src/gcc-arm-none-eabi-5_4-2016q3/arm-none-eabi/include/machine/_d
 227              		.file 4 "/Users/Luca/src/vexilla/src/gcc-arm-none-eabi-5_4-2016q3/arm-none-eabi/include/sys/_stdin
 228              		.file 5 "../ChibiOS/os/ports/GCC/ARMCMx/chtypes.h"
 229              		.file 6 "../ChibiOS/os/kernel/include/chlists.h"
 230              		.file 7 "../ChibiOS/os/kernel/include/chthreads.h"
 231              		.file 8 "../ChibiOS/os/ports/GCC/ARMCMx/chcore_v7m.h"
 232              		.file 9 "../ChibiOS/os/kernel/include/chmtx.h"
 233              		.file 10 "../ChibiOS/os/kernel/include/chevents.h"
 234              		.file 11 "../ChibiOS/os/kernel/include/chqueues.h"
 235              		.file 12 "../ChibiOS/os/kernel/include/chstreams.h"
 236              		.file 13 "../ChibiOS/os/hal/platforms/STM32F1xx/stm32f10x.h"
 237              		.file 14 "../ChibiOS/os/hal/include/serial.h"
 238              		.file 15 "../convex-vexilla/cortex/fw/vexcompat.h"
 239              		.file 16 "../convex-vexilla/cortex/fw/vexdigital.h"
 240              		.file 17 "../convex-vexilla/cortex/fw/vexime.h"
 241              		.file 18 "../convex-vexilla/cortex/fw/vexshell.h"
 242              		.file 19 "../convex-vexilla/cortex/opt/apollo.h"
 243              		.file 20 "../ChibiOS/os/hal/include/hal.h"
 244              		.file 21 "../ChibiOS/os/kernel/include/chsys.h"
 245              		.file 22 "../convex-vexilla/cortex/fw/vex.h"
 246              		.file 23 "../convex-vexilla/cortex/fw/vexspi.h"
 247              		.file 24 "../ChibiOS/os/kernel/include/chdynamic.h"
 248              		.file 25 "../ChibiOS/os/ports/common/ARMCMx/CMSIS/include/core_cm3.h"
 249              		.file 26 "../ChibiOS/os/hal/platforms/STM32/USARTv1/serial_lld.h"
 250              		.section	.debug_info,"",%progbits
 251              	.Ldebug_info0:
 252 0000 E20B0000 		.4byte	0xbe2
 253 0004 0400     		.2byte	0x4
 254 0006 00000000 		.4byte	.Ldebug_abbrev0
 255 000a 04       		.byte	0x4
 256 000b 01       		.uleb128 0x1
 257 000c 1D020000 		.4byte	.LASF166
 258 0010 0C       		.byte	0xc
 259 0011 54040000 		.4byte	.LASF167
 260 0015 96070000 		.4byte	.LASF168
 261 0019 00000000 		.4byte	.Ldebug_ranges0+0
 262 001d 00000000 		.4byte	0
 263 0021 00000000 		.4byte	.Ldebug_line0
 264 0025 02       		.uleb128 0x2
 265 0026 04       		.byte	0x4
 266 0027 05       		.byte	0x5
 267 0028 696E7400 		.ascii	"int\000"
 268 002c 03       		.uleb128 0x3
 269 002d 00000000 		.4byte	.LASF4
 270 0031 02       		.byte	0x2
 271 0032 D8       		.byte	0xd8
 272 0033 37000000 		.4byte	0x37
 273 0037 04       		.uleb128 0x4
 274 0038 04       		.byte	0x4
 275 0039 07       		.byte	0x7
 276 003a C5010000 		.4byte	.LASF0
 277 003e 04       		.uleb128 0x4
 278 003f 08       		.byte	0x8
 279 0040 05       		.byte	0x5
 280 0041 77000000 		.4byte	.LASF1
 281 0045 04       		.uleb128 0x4
 282 0046 08       		.byte	0x8
ARM GAS  /var/folders/6q/x_mk5n_j3p7_c40r_2k_78980000gn/T//ccUpRebl.s 			page 6


 283 0047 04       		.byte	0x4
 284 0048 E6050000 		.4byte	.LASF2
 285 004c 04       		.uleb128 0x4
 286 004d 01       		.byte	0x1
 287 004e 06       		.byte	0x6
 288 004f 85000000 		.4byte	.LASF3
 289 0053 03       		.uleb128 0x3
 290 0054 1A000000 		.4byte	.LASF5
 291 0058 03       		.byte	0x3
 292 0059 1D       		.byte	0x1d
 293 005a 5E000000 		.4byte	0x5e
 294 005e 04       		.uleb128 0x4
 295 005f 01       		.byte	0x1
 296 0060 08       		.byte	0x8
 297 0061 E7040000 		.4byte	.LASF6
 298 0065 04       		.uleb128 0x4
 299 0066 02       		.byte	0x2
 300 0067 05       		.byte	0x5
 301 0068 28050000 		.4byte	.LASF7
 302 006c 03       		.uleb128 0x3
 303 006d 67060000 		.4byte	.LASF8
 304 0071 03       		.byte	0x3
 305 0072 2B       		.byte	0x2b
 306 0073 77000000 		.4byte	0x77
 307 0077 04       		.uleb128 0x4
 308 0078 02       		.byte	0x2
 309 0079 07       		.byte	0x7
 310 007a 11030000 		.4byte	.LASF9
 311 007e 03       		.uleb128 0x3
 312 007f B2060000 		.4byte	.LASF10
 313 0083 03       		.byte	0x3
 314 0084 3F       		.byte	0x3f
 315 0085 89000000 		.4byte	0x89
 316 0089 04       		.uleb128 0x4
 317 008a 04       		.byte	0x4
 318 008b 05       		.byte	0x5
 319 008c EE000000 		.4byte	.LASF11
 320 0090 03       		.uleb128 0x3
 321 0091 6E010000 		.4byte	.LASF12
 322 0095 03       		.byte	0x3
 323 0096 41       		.byte	0x41
 324 0097 9B000000 		.4byte	0x9b
 325 009b 04       		.uleb128 0x4
 326 009c 04       		.byte	0x4
 327 009d 07       		.byte	0x7
 328 009e A3000000 		.4byte	.LASF13
 329 00a2 04       		.uleb128 0x4
 330 00a3 08       		.byte	0x8
 331 00a4 07       		.byte	0x7
 332 00a5 37010000 		.4byte	.LASF14
 333 00a9 04       		.uleb128 0x4
 334 00aa 04       		.byte	0x4
 335 00ab 07       		.byte	0x7
 336 00ac 1E040000 		.4byte	.LASF15
 337 00b0 05       		.uleb128 0x5
 338 00b1 04       		.byte	0x4
 339 00b2 06       		.uleb128 0x6
ARM GAS  /var/folders/6q/x_mk5n_j3p7_c40r_2k_78980000gn/T//ccUpRebl.s 			page 7


 340 00b3 04       		.byte	0x4
 341 00b4 B8000000 		.4byte	0xb8
 342 00b8 04       		.uleb128 0x4
 343 00b9 01       		.byte	0x1
 344 00ba 08       		.byte	0x8
 345 00bb F2050000 		.4byte	.LASF16
 346 00bf 06       		.uleb128 0x6
 347 00c0 04       		.byte	0x4
 348 00c1 C5000000 		.4byte	0xc5
 349 00c5 07       		.uleb128 0x7
 350 00c6 B8000000 		.4byte	0xb8
 351 00ca 03       		.uleb128 0x3
 352 00cb 17070000 		.4byte	.LASF17
 353 00cf 04       		.byte	0x4
 354 00d0 18       		.byte	0x18
 355 00d1 53000000 		.4byte	0x53
 356 00d5 03       		.uleb128 0x3
 357 00d6 27010000 		.4byte	.LASF18
 358 00da 04       		.byte	0x4
 359 00db 24       		.byte	0x24
 360 00dc 6C000000 		.4byte	0x6c
 361 00e0 03       		.uleb128 0x3
 362 00e1 DF040000 		.4byte	.LASF19
 363 00e5 04       		.byte	0x4
 364 00e6 2C       		.byte	0x2c
 365 00e7 7E000000 		.4byte	0x7e
 366 00eb 03       		.uleb128 0x3
 367 00ec B7050000 		.4byte	.LASF20
 368 00f0 04       		.byte	0x4
 369 00f1 30       		.byte	0x30
 370 00f2 90000000 		.4byte	0x90
 371 00f6 03       		.uleb128 0x3
 372 00f7 BD000000 		.4byte	.LASF21
 373 00fb 05       		.byte	0x5
 374 00fc 2B       		.byte	0x2b
 375 00fd 01010000 		.4byte	0x101
 376 0101 04       		.uleb128 0x4
 377 0102 01       		.byte	0x1
 378 0103 02       		.byte	0x2
 379 0104 D9040000 		.4byte	.LASF22
 380 0108 03       		.uleb128 0x3
 381 0109 7B070000 		.4byte	.LASF23
 382 010d 05       		.byte	0x5
 383 010e 2C       		.byte	0x2c
 384 010f CA000000 		.4byte	0xca
 385 0113 03       		.uleb128 0x3
 386 0114 04010000 		.4byte	.LASF24
 387 0118 05       		.byte	0x5
 388 0119 2D       		.byte	0x2d
 389 011a CA000000 		.4byte	0xca
 390 011e 03       		.uleb128 0x3
 391 011f 7D040000 		.4byte	.LASF25
 392 0123 05       		.byte	0x5
 393 0124 2E       		.byte	0x2e
 394 0125 CA000000 		.4byte	0xca
 395 0129 03       		.uleb128 0x3
 396 012a DE000000 		.4byte	.LASF26
ARM GAS  /var/folders/6q/x_mk5n_j3p7_c40r_2k_78980000gn/T//ccUpRebl.s 			page 8


 397 012e 05       		.byte	0x5
 398 012f 2F       		.byte	0x2f
 399 0130 CA000000 		.4byte	0xca
 400 0134 03       		.uleb128 0x3
 401 0135 C9040000 		.4byte	.LASF27
 402 0139 05       		.byte	0x5
 403 013a 30       		.byte	0x30
 404 013b EB000000 		.4byte	0xeb
 405 013f 03       		.uleb128 0x3
 406 0140 32030000 		.4byte	.LASF28
 407 0144 05       		.byte	0x5
 408 0145 31       		.byte	0x31
 409 0146 E0000000 		.4byte	0xe0
 410 014a 03       		.uleb128 0x3
 411 014b DB030000 		.4byte	.LASF29
 412 014f 05       		.byte	0x5
 413 0150 33       		.byte	0x33
 414 0151 EB000000 		.4byte	0xeb
 415 0155 03       		.uleb128 0x3
 416 0156 E9060000 		.4byte	.LASF30
 417 015a 05       		.byte	0x5
 418 015b 34       		.byte	0x34
 419 015c EB000000 		.4byte	0xeb
 420 0160 03       		.uleb128 0x3
 421 0161 9D060000 		.4byte	.LASF31
 422 0165 05       		.byte	0x5
 423 0166 35       		.byte	0x35
 424 0167 EB000000 		.4byte	0xeb
 425 016b 03       		.uleb128 0x3
 426 016c 87050000 		.4byte	.LASF32
 427 0170 06       		.byte	0x6
 428 0171 2A       		.byte	0x2a
 429 0172 76010000 		.4byte	0x176
 430 0176 08       		.uleb128 0x8
 431 0177 87050000 		.4byte	.LASF32
 432 017b 48       		.byte	0x48
 433 017c 07       		.byte	0x7
 434 017d 5E       		.byte	0x5e
 435 017e 73020000 		.4byte	0x273
 436 0182 09       		.uleb128 0x9
 437 0183 4B050000 		.4byte	.LASF33
 438 0187 07       		.byte	0x7
 439 0188 5F       		.byte	0x5f
 440 0189 94020000 		.4byte	0x294
 441 018d 00       		.byte	0
 442 018e 09       		.uleb128 0x9
 443 018f 17040000 		.4byte	.LASF34
 444 0193 07       		.byte	0x7
 445 0194 61       		.byte	0x61
 446 0195 94020000 		.4byte	0x294
 447 0199 04       		.byte	0x4
 448 019a 09       		.uleb128 0x9
 449 019b 60000000 		.4byte	.LASF35
 450 019f 07       		.byte	0x7
 451 01a0 63       		.byte	0x63
 452 01a1 34010000 		.4byte	0x134
 453 01a5 08       		.byte	0x8
ARM GAS  /var/folders/6q/x_mk5n_j3p7_c40r_2k_78980000gn/T//ccUpRebl.s 			page 9


 454 01a6 09       		.uleb128 0x9
 455 01a7 C0070000 		.4byte	.LASF36
 456 01ab 07       		.byte	0x7
 457 01ac 64       		.byte	0x64
 458 01ad 4C030000 		.4byte	0x34c
 459 01b1 0C       		.byte	0xc
 460 01b2 09       		.uleb128 0x9
 461 01b3 4E010000 		.4byte	.LASF37
 462 01b7 07       		.byte	0x7
 463 01b8 66       		.byte	0x66
 464 01b9 94020000 		.4byte	0x294
 465 01bd 10       		.byte	0x10
 466 01be 09       		.uleb128 0x9
 467 01bf 41040000 		.4byte	.LASF38
 468 01c3 07       		.byte	0x7
 469 01c4 67       		.byte	0x67
 470 01c5 94020000 		.4byte	0x294
 471 01c9 14       		.byte	0x14
 472 01ca 09       		.uleb128 0x9
 473 01cb 00070000 		.4byte	.LASF39
 474 01cf 07       		.byte	0x7
 475 01d0 6E       		.byte	0x6e
 476 01d1 BF000000 		.4byte	0xbf
 477 01d5 18       		.byte	0x18
 478 01d6 09       		.uleb128 0x9
 479 01d7 32050000 		.4byte	.LASF40
 480 01db 07       		.byte	0x7
 481 01dc 79       		.byte	0x79
 482 01dd 13010000 		.4byte	0x113
 483 01e1 1C       		.byte	0x1c
 484 01e2 09       		.uleb128 0x9
 485 01e3 6A050000 		.4byte	.LASF41
 486 01e7 07       		.byte	0x7
 487 01e8 7D       		.byte	0x7d
 488 01e9 08010000 		.4byte	0x108
 489 01ed 1D       		.byte	0x1d
 490 01ee 09       		.uleb128 0x9
 491 01ef 07070000 		.4byte	.LASF42
 492 01f3 07       		.byte	0x7
 493 01f4 82       		.byte	0x82
 494 01f5 1E010000 		.4byte	0x11e
 495 01f9 1E       		.byte	0x1e
 496 01fa 09       		.uleb128 0x9
 497 01fb 3A050000 		.4byte	.LASF43
 498 01ff 07       		.byte	0x7
 499 0200 88       		.byte	0x88
 500 0201 29010000 		.4byte	0x129
 501 0205 1F       		.byte	0x1f
 502 0206 09       		.uleb128 0x9
 503 0207 C8060000 		.4byte	.LASF44
 504 020b 07       		.byte	0x7
 505 020c 8F       		.byte	0x8f
 506 020d 6D030000 		.4byte	0x36d
 507 0211 20       		.byte	0x20
 508 0212 0A       		.uleb128 0xa
 509 0213 705F7500 		.ascii	"p_u\000"
 510 0217 07       		.byte	0x7
ARM GAS  /var/folders/6q/x_mk5n_j3p7_c40r_2k_78980000gn/T//ccUpRebl.s 			page 10


 511 0218 B4       		.byte	0xb4
 512 0219 26040000 		.4byte	0x426
 513 021d 24       		.byte	0x24
 514 021e 09       		.uleb128 0x9
 515 021f C6070000 		.4byte	.LASF45
 516 0223 07       		.byte	0x7
 517 0224 B9       		.byte	0xb9
 518 0225 BA020000 		.4byte	0x2ba
 519 0229 28       		.byte	0x28
 520 022a 09       		.uleb128 0x9
 521 022b FD010000 		.4byte	.LASF46
 522 022f 07       		.byte	0x7
 523 0230 BF       		.byte	0xbf
 524 0231 9A020000 		.4byte	0x29a
 525 0235 2C       		.byte	0x2c
 526 0236 09       		.uleb128 0x9
 527 0237 83070000 		.4byte	.LASF47
 528 023b 07       		.byte	0x7
 529 023c C3       		.byte	0xc3
 530 023d 3F010000 		.4byte	0x13f
 531 0241 34       		.byte	0x34
 532 0242 09       		.uleb128 0x9
 533 0243 98050000 		.4byte	.LASF48
 534 0247 07       		.byte	0x7
 535 0248 C9       		.byte	0xc9
 536 0249 4A010000 		.4byte	0x14a
 537 024d 38       		.byte	0x38
 538 024e 09       		.uleb128 0x9
 539 024f D1030000 		.4byte	.LASF49
 540 0253 07       		.byte	0x7
 541 0254 D0       		.byte	0xd0
 542 0255 5B040000 		.4byte	0x45b
 543 0259 3C       		.byte	0x3c
 544 025a 09       		.uleb128 0x9
 545 025b A7060000 		.4byte	.LASF50
 546 025f 07       		.byte	0x7
 547 0260 D4       		.byte	0xd4
 548 0261 34010000 		.4byte	0x134
 549 0265 40       		.byte	0x40
 550 0266 09       		.uleb128 0x9
 551 0267 B5000000 		.4byte	.LASF51
 552 026b 07       		.byte	0x7
 553 026c DA       		.byte	0xda
 554 026d B0000000 		.4byte	0xb0
 555 0271 44       		.byte	0x44
 556 0272 00       		.byte	0
 557 0273 0B       		.uleb128 0xb
 558 0274 08       		.byte	0x8
 559 0275 06       		.byte	0x6
 560 0276 61       		.byte	0x61
 561 0277 94020000 		.4byte	0x294
 562 027b 09       		.uleb128 0x9
 563 027c 4B050000 		.4byte	.LASF33
 564 0280 06       		.byte	0x6
 565 0281 62       		.byte	0x62
 566 0282 94020000 		.4byte	0x294
 567 0286 00       		.byte	0
ARM GAS  /var/folders/6q/x_mk5n_j3p7_c40r_2k_78980000gn/T//ccUpRebl.s 			page 11


 568 0287 09       		.uleb128 0x9
 569 0288 17040000 		.4byte	.LASF34
 570 028c 06       		.byte	0x6
 571 028d 64       		.byte	0x64
 572 028e 94020000 		.4byte	0x294
 573 0292 04       		.byte	0x4
 574 0293 00       		.byte	0
 575 0294 06       		.uleb128 0x6
 576 0295 04       		.byte	0x4
 577 0296 6B010000 		.4byte	0x16b
 578 029a 03       		.uleb128 0x3
 579 029b 36000000 		.4byte	.LASF52
 580 029f 06       		.byte	0x6
 581 02a0 66       		.byte	0x66
 582 02a1 73020000 		.4byte	0x273
 583 02a5 0B       		.uleb128 0xb
 584 02a6 04       		.byte	0x4
 585 02a7 06       		.byte	0x6
 586 02a8 6B       		.byte	0x6b
 587 02a9 BA020000 		.4byte	0x2ba
 588 02ad 09       		.uleb128 0x9
 589 02ae 4B050000 		.4byte	.LASF33
 590 02b2 06       		.byte	0x6
 591 02b3 6D       		.byte	0x6d
 592 02b4 94020000 		.4byte	0x294
 593 02b8 00       		.byte	0
 594 02b9 00       		.byte	0
 595 02ba 03       		.uleb128 0x3
 596 02bb C5030000 		.4byte	.LASF53
 597 02bf 06       		.byte	0x6
 598 02c0 70       		.byte	0x70
 599 02c1 A5020000 		.4byte	0x2a5
 600 02c5 03       		.uleb128 0x3
 601 02c6 79010000 		.4byte	.LASF54
 602 02ca 08       		.byte	0x8
 603 02cb E5       		.byte	0xe5
 604 02cc B0000000 		.4byte	0xb0
 605 02d0 0C       		.uleb128 0xc
 606 02d1 D9060000 		.4byte	.LASF55
 607 02d5 24       		.byte	0x24
 608 02d6 08       		.byte	0x8
 609 02d7 0C01     		.2byte	0x10c
 610 02d9 4C030000 		.4byte	0x34c
 611 02dd 0D       		.uleb128 0xd
 612 02de 723400   		.ascii	"r4\000"
 613 02e1 08       		.byte	0x8
 614 02e2 1F01     		.2byte	0x11f
 615 02e4 C5020000 		.4byte	0x2c5
 616 02e8 00       		.byte	0
 617 02e9 0D       		.uleb128 0xd
 618 02ea 723500   		.ascii	"r5\000"
 619 02ed 08       		.byte	0x8
 620 02ee 2001     		.2byte	0x120
 621 02f0 C5020000 		.4byte	0x2c5
 622 02f4 04       		.byte	0x4
 623 02f5 0D       		.uleb128 0xd
 624 02f6 723600   		.ascii	"r6\000"
ARM GAS  /var/folders/6q/x_mk5n_j3p7_c40r_2k_78980000gn/T//ccUpRebl.s 			page 12


 625 02f9 08       		.byte	0x8
 626 02fa 2101     		.2byte	0x121
 627 02fc C5020000 		.4byte	0x2c5
 628 0300 08       		.byte	0x8
 629 0301 0D       		.uleb128 0xd
 630 0302 723700   		.ascii	"r7\000"
 631 0305 08       		.byte	0x8
 632 0306 2201     		.2byte	0x122
 633 0308 C5020000 		.4byte	0x2c5
 634 030c 0C       		.byte	0xc
 635 030d 0D       		.uleb128 0xd
 636 030e 723800   		.ascii	"r8\000"
 637 0311 08       		.byte	0x8
 638 0312 2301     		.2byte	0x123
 639 0314 C5020000 		.4byte	0x2c5
 640 0318 10       		.byte	0x10
 641 0319 0D       		.uleb128 0xd
 642 031a 723900   		.ascii	"r9\000"
 643 031d 08       		.byte	0x8
 644 031e 2401     		.2byte	0x124
 645 0320 C5020000 		.4byte	0x2c5
 646 0324 14       		.byte	0x14
 647 0325 0D       		.uleb128 0xd
 648 0326 72313000 		.ascii	"r10\000"
 649 032a 08       		.byte	0x8
 650 032b 2501     		.2byte	0x125
 651 032d C5020000 		.4byte	0x2c5
 652 0331 18       		.byte	0x18
 653 0332 0D       		.uleb128 0xd
 654 0333 72313100 		.ascii	"r11\000"
 655 0337 08       		.byte	0x8
 656 0338 2601     		.2byte	0x126
 657 033a C5020000 		.4byte	0x2c5
 658 033e 1C       		.byte	0x1c
 659 033f 0D       		.uleb128 0xd
 660 0340 6C7200   		.ascii	"lr\000"
 661 0343 08       		.byte	0x8
 662 0344 2701     		.2byte	0x127
 663 0346 C5020000 		.4byte	0x2c5
 664 034a 20       		.byte	0x20
 665 034b 00       		.byte	0
 666 034c 0C       		.uleb128 0xc
 667 034d 09030000 		.4byte	.LASF56
 668 0351 04       		.byte	0x4
 669 0352 08       		.byte	0x8
 670 0353 3101     		.2byte	0x131
 671 0355 67030000 		.4byte	0x367
 672 0359 0D       		.uleb128 0xd
 673 035a 72313300 		.ascii	"r13\000"
 674 035e 08       		.byte	0x8
 675 035f 3201     		.2byte	0x132
 676 0361 67030000 		.4byte	0x367
 677 0365 00       		.byte	0
 678 0366 00       		.byte	0
 679 0367 06       		.uleb128 0x6
 680 0368 04       		.byte	0x4
 681 0369 D0020000 		.4byte	0x2d0
ARM GAS  /var/folders/6q/x_mk5n_j3p7_c40r_2k_78980000gn/T//ccUpRebl.s 			page 13


 682 036d 0E       		.uleb128 0xe
 683 036e 60010000 		.4byte	0x160
 684 0372 08       		.uleb128 0x8
 685 0373 F2030000 		.4byte	.LASF57
 686 0377 10       		.byte	0x10
 687 0378 09       		.byte	0x9
 688 0379 2C       		.byte	0x2c
 689 037a A3030000 		.4byte	0x3a3
 690 037e 09       		.uleb128 0x9
 691 037f C4000000 		.4byte	.LASF58
 692 0383 09       		.byte	0x9
 693 0384 2D       		.byte	0x2d
 694 0385 9A020000 		.4byte	0x29a
 695 0389 00       		.byte	0
 696 038a 09       		.uleb128 0x9
 697 038b B8070000 		.4byte	.LASF59
 698 038f 09       		.byte	0x9
 699 0390 2F       		.byte	0x2f
 700 0391 94020000 		.4byte	0x294
 701 0395 08       		.byte	0x8
 702 0396 09       		.uleb128 0x9
 703 0397 96060000 		.4byte	.LASF60
 704 039b 09       		.byte	0x9
 705 039c 31       		.byte	0x31
 706 039d A3030000 		.4byte	0x3a3
 707 03a1 0C       		.byte	0xc
 708 03a2 00       		.byte	0
 709 03a3 06       		.uleb128 0x6
 710 03a4 04       		.byte	0x4
 711 03a5 72030000 		.4byte	0x372
 712 03a9 03       		.uleb128 0x3
 713 03aa F2030000 		.4byte	.LASF57
 714 03ae 09       		.byte	0x9
 715 03af 33       		.byte	0x33
 716 03b0 72030000 		.4byte	0x372
 717 03b4 03       		.uleb128 0x3
 718 03b5 45070000 		.4byte	.LASF61
 719 03b9 0A       		.byte	0xa
 720 03ba 2C       		.byte	0x2c
 721 03bb BF030000 		.4byte	0x3bf
 722 03bf 08       		.uleb128 0x8
 723 03c0 45070000 		.4byte	.LASF61
 724 03c4 10       		.byte	0x10
 725 03c5 0A       		.byte	0xa
 726 03c6 31       		.byte	0x31
 727 03c7 FC030000 		.4byte	0x3fc
 728 03cb 09       		.uleb128 0x9
 729 03cc 3F030000 		.4byte	.LASF62
 730 03d0 0A       		.byte	0xa
 731 03d1 32       		.byte	0x32
 732 03d2 FC030000 		.4byte	0x3fc
 733 03d6 00       		.byte	0
 734 03d7 09       		.uleb128 0x9
 735 03d8 03050000 		.4byte	.LASF63
 736 03dc 0A       		.byte	0xa
 737 03dd 35       		.byte	0x35
 738 03de 94020000 		.4byte	0x294
ARM GAS  /var/folders/6q/x_mk5n_j3p7_c40r_2k_78980000gn/T//ccUpRebl.s 			page 14


 739 03e2 04       		.byte	0x4
 740 03e3 09       		.uleb128 0x9
 741 03e4 5B040000 		.4byte	.LASF64
 742 03e8 0A       		.byte	0xa
 743 03e9 37       		.byte	0x37
 744 03ea 4A010000 		.4byte	0x14a
 745 03ee 08       		.byte	0x8
 746 03ef 09       		.uleb128 0x9
 747 03f0 0F050000 		.4byte	.LASF65
 748 03f4 0A       		.byte	0xa
 749 03f5 3A       		.byte	0x3a
 750 03f6 55010000 		.4byte	0x155
 751 03fa 0C       		.byte	0xc
 752 03fb 00       		.byte	0
 753 03fc 06       		.uleb128 0x6
 754 03fd 04       		.byte	0x4
 755 03fe B4030000 		.4byte	0x3b4
 756 0402 08       		.uleb128 0x8
 757 0403 9E010000 		.4byte	.LASF66
 758 0407 04       		.byte	0x4
 759 0408 0A       		.byte	0xa
 760 0409 41       		.byte	0x41
 761 040a 1B040000 		.4byte	0x41b
 762 040e 09       		.uleb128 0x9
 763 040f 73070000 		.4byte	.LASF67
 764 0413 0A       		.byte	0xa
 765 0414 42       		.byte	0x42
 766 0415 FC030000 		.4byte	0x3fc
 767 0419 00       		.byte	0
 768 041a 00       		.byte	0
 769 041b 03       		.uleb128 0x3
 770 041c 9E010000 		.4byte	.LASF66
 771 0420 0A       		.byte	0xa
 772 0421 45       		.byte	0x45
 773 0422 02040000 		.4byte	0x402
 774 0426 0F       		.uleb128 0xf
 775 0427 04       		.byte	0x4
 776 0428 07       		.byte	0x7
 777 0429 96       		.byte	0x96
 778 042a 5B040000 		.4byte	0x45b
 779 042e 10       		.uleb128 0x10
 780 042f 07000000 		.4byte	.LASF68
 781 0433 07       		.byte	0x7
 782 0434 9D       		.byte	0x9d
 783 0435 3F010000 		.4byte	0x13f
 784 0439 10       		.uleb128 0x10
 785 043a 65010000 		.4byte	.LASF69
 786 043e 07       		.byte	0x7
 787 043f A4       		.byte	0xa4
 788 0440 3F010000 		.4byte	0x13f
 789 0444 10       		.uleb128 0x10
 790 0445 D7000000 		.4byte	.LASF70
 791 0449 07       		.byte	0x7
 792 044a AB       		.byte	0xab
 793 044b B0000000 		.4byte	0xb0
 794 044f 10       		.uleb128 0x10
 795 0450 44050000 		.4byte	.LASF71
ARM GAS  /var/folders/6q/x_mk5n_j3p7_c40r_2k_78980000gn/T//ccUpRebl.s 			page 15


 796 0454 07       		.byte	0x7
 797 0455 B2       		.byte	0xb2
 798 0456 4A010000 		.4byte	0x14a
 799 045a 00       		.byte	0
 800 045b 06       		.uleb128 0x6
 801 045c 04       		.byte	0x4
 802 045d A9030000 		.4byte	0x3a9
 803 0461 06       		.uleb128 0x6
 804 0462 04       		.byte	0x4
 805 0463 67040000 		.4byte	0x467
 806 0467 11       		.uleb128 0x11
 807 0468 3F010000 		.4byte	0x13f
 808 046c 76040000 		.4byte	0x476
 809 0470 12       		.uleb128 0x12
 810 0471 B0000000 		.4byte	0xb0
 811 0475 00       		.byte	0
 812 0476 03       		.uleb128 0x3
 813 0477 F8030000 		.4byte	.LASF72
 814 047b 0B       		.byte	0xb
 815 047c 37       		.byte	0x37
 816 047d 81040000 		.4byte	0x481
 817 0481 08       		.uleb128 0x8
 818 0482 F8030000 		.4byte	.LASF72
 819 0486 24       		.byte	0x24
 820 0487 0B       		.byte	0xb
 821 0488 45       		.byte	0x45
 822 0489 EE040000 		.4byte	0x4ee
 823 048d 09       		.uleb128 0x9
 824 048e 6D000000 		.4byte	.LASF73
 825 0492 0B       		.byte	0xb
 826 0493 46       		.byte	0x46
 827 0494 9A020000 		.4byte	0x29a
 828 0498 00       		.byte	0
 829 0499 09       		.uleb128 0x9
 830 049a 27040000 		.4byte	.LASF74
 831 049e 0B       		.byte	0xb
 832 049f 47       		.byte	0x47
 833 04a0 2C000000 		.4byte	0x2c
 834 04a4 08       		.byte	0x8
 835 04a5 09       		.uleb128 0x9
 836 04a6 1E010000 		.4byte	.LASF75
 837 04aa 0B       		.byte	0xb
 838 04ab 48       		.byte	0x48
 839 04ac 10050000 		.4byte	0x510
 840 04b0 0C       		.byte	0xc
 841 04b1 09       		.uleb128 0x9
 842 04b2 FA060000 		.4byte	.LASF76
 843 04b6 0B       		.byte	0xb
 844 04b7 49       		.byte	0x49
 845 04b8 10050000 		.4byte	0x510
 846 04bc 10       		.byte	0x10
 847 04bd 09       		.uleb128 0x9
 848 04be 72050000 		.4byte	.LASF77
 849 04c2 0B       		.byte	0xb
 850 04c3 4B       		.byte	0x4b
 851 04c4 10050000 		.4byte	0x510
 852 04c8 14       		.byte	0x14
ARM GAS  /var/folders/6q/x_mk5n_j3p7_c40r_2k_78980000gn/T//ccUpRebl.s 			page 16


 853 04c9 09       		.uleb128 0x9
 854 04ca D1040000 		.4byte	.LASF78
 855 04ce 0B       		.byte	0xb
 856 04cf 4C       		.byte	0x4c
 857 04d0 10050000 		.4byte	0x510
 858 04d4 18       		.byte	0x18
 859 04d5 09       		.uleb128 0x9
 860 04d6 0E070000 		.4byte	.LASF79
 861 04da 0B       		.byte	0xb
 862 04db 4D       		.byte	0x4d
 863 04dc EE040000 		.4byte	0x4ee
 864 04e0 1C       		.byte	0x1c
 865 04e1 09       		.uleb128 0x9
 866 04e2 30010000 		.4byte	.LASF80
 867 04e6 0B       		.byte	0xb
 868 04e7 4E       		.byte	0x4e
 869 04e8 B0000000 		.4byte	0xb0
 870 04ec 20       		.byte	0x20
 871 04ed 00       		.byte	0
 872 04ee 03       		.uleb128 0x3
 873 04ef A3040000 		.4byte	.LASF81
 874 04f3 0B       		.byte	0xb
 875 04f4 3A       		.byte	0x3a
 876 04f5 F9040000 		.4byte	0x4f9
 877 04f9 06       		.uleb128 0x6
 878 04fa 04       		.byte	0x4
 879 04fb FF040000 		.4byte	0x4ff
 880 04ff 13       		.uleb128 0x13
 881 0500 0A050000 		.4byte	0x50a
 882 0504 12       		.uleb128 0x12
 883 0505 0A050000 		.4byte	0x50a
 884 0509 00       		.byte	0
 885 050a 06       		.uleb128 0x6
 886 050b 04       		.byte	0x4
 887 050c 76040000 		.4byte	0x476
 888 0510 06       		.uleb128 0x6
 889 0511 04       		.byte	0x4
 890 0512 CA000000 		.4byte	0xca
 891 0516 03       		.uleb128 0x3
 892 0517 E7030000 		.4byte	.LASF82
 893 051b 0B       		.byte	0xb
 894 051c 82       		.byte	0x82
 895 051d 76040000 		.4byte	0x476
 896 0521 03       		.uleb128 0x3
 897 0522 0E000000 		.4byte	.LASF83
 898 0526 0B       		.byte	0xb
 899 0527 F5       		.byte	0xf5
 900 0528 76040000 		.4byte	0x476
 901 052c 08       		.uleb128 0x8
 902 052d 52050000 		.4byte	.LASF84
 903 0531 10       		.byte	0x10
 904 0532 0C       		.byte	0xc
 905 0533 48       		.byte	0x48
 906 0534 69050000 		.4byte	0x569
 907 0538 09       		.uleb128 0x9
 908 0539 0C040000 		.4byte	.LASF85
 909 053d 0C       		.byte	0xc
ARM GAS  /var/folders/6q/x_mk5n_j3p7_c40r_2k_78980000gn/T//ccUpRebl.s 			page 17


 910 053e 49       		.byte	0x49
 911 053f 8D050000 		.4byte	0x58d
 912 0543 00       		.byte	0
 913 0544 09       		.uleb128 0x9
 914 0545 53070000 		.4byte	.LASF86
 915 0549 0C       		.byte	0xc
 916 054a 49       		.byte	0x49
 917 054b AC050000 		.4byte	0x5ac
 918 054f 04       		.byte	0x4
 919 0550 0A       		.uleb128 0xa
 920 0551 70757400 		.ascii	"put\000"
 921 0555 0C       		.byte	0xc
 922 0556 49       		.byte	0x49
 923 0557 C6050000 		.4byte	0x5c6
 924 055b 08       		.byte	0x8
 925 055c 0A       		.uleb128 0xa
 926 055d 67657400 		.ascii	"get\000"
 927 0561 0C       		.byte	0xc
 928 0562 49       		.byte	0x49
 929 0563 61040000 		.4byte	0x461
 930 0567 0C       		.byte	0xc
 931 0568 00       		.byte	0
 932 0569 11       		.uleb128 0x11
 933 056a 2C000000 		.4byte	0x2c
 934 056e 82050000 		.4byte	0x582
 935 0572 12       		.uleb128 0x12
 936 0573 B0000000 		.4byte	0xb0
 937 0577 12       		.uleb128 0x12
 938 0578 82050000 		.4byte	0x582
 939 057c 12       		.uleb128 0x12
 940 057d 2C000000 		.4byte	0x2c
 941 0581 00       		.byte	0
 942 0582 06       		.uleb128 0x6
 943 0583 04       		.byte	0x4
 944 0584 88050000 		.4byte	0x588
 945 0588 07       		.uleb128 0x7
 946 0589 CA000000 		.4byte	0xca
 947 058d 06       		.uleb128 0x6
 948 058e 04       		.byte	0x4
 949 058f 69050000 		.4byte	0x569
 950 0593 11       		.uleb128 0x11
 951 0594 2C000000 		.4byte	0x2c
 952 0598 AC050000 		.4byte	0x5ac
 953 059c 12       		.uleb128 0x12
 954 059d B0000000 		.4byte	0xb0
 955 05a1 12       		.uleb128 0x12
 956 05a2 10050000 		.4byte	0x510
 957 05a6 12       		.uleb128 0x12
 958 05a7 2C000000 		.4byte	0x2c
 959 05ab 00       		.byte	0
 960 05ac 06       		.uleb128 0x6
 961 05ad 04       		.byte	0x4
 962 05ae 93050000 		.4byte	0x593
 963 05b2 11       		.uleb128 0x11
 964 05b3 3F010000 		.4byte	0x13f
 965 05b7 C6050000 		.4byte	0x5c6
 966 05bb 12       		.uleb128 0x12
ARM GAS  /var/folders/6q/x_mk5n_j3p7_c40r_2k_78980000gn/T//ccUpRebl.s 			page 18


 967 05bc B0000000 		.4byte	0xb0
 968 05c0 12       		.uleb128 0x12
 969 05c1 CA000000 		.4byte	0xca
 970 05c5 00       		.byte	0
 971 05c6 06       		.uleb128 0x6
 972 05c7 04       		.byte	0x4
 973 05c8 B2050000 		.4byte	0x5b2
 974 05cc 0B       		.uleb128 0xb
 975 05cd 04       		.byte	0x4
 976 05ce 0C       		.byte	0xc
 977 05cf 51       		.byte	0x51
 978 05d0 E1050000 		.4byte	0x5e1
 979 05d4 0A       		.uleb128 0xa
 980 05d5 766D7400 		.ascii	"vmt\000"
 981 05d9 0C       		.byte	0xc
 982 05da 53       		.byte	0x53
 983 05db E1050000 		.4byte	0x5e1
 984 05df 00       		.byte	0
 985 05e0 00       		.byte	0
 986 05e1 06       		.uleb128 0x6
 987 05e2 04       		.byte	0x4
 988 05e3 E7050000 		.4byte	0x5e7
 989 05e7 07       		.uleb128 0x7
 990 05e8 2C050000 		.4byte	0x52c
 991 05ec 03       		.uleb128 0x3
 992 05ed AA010000 		.4byte	.LASF87
 993 05f1 0C       		.byte	0xc
 994 05f2 55       		.byte	0x55
 995 05f3 CC050000 		.4byte	0x5cc
 996 05f7 0E       		.uleb128 0xe
 997 05f8 D5000000 		.4byte	0xd5
 998 05fc 0E       		.uleb128 0xe
 999 05fd E0000000 		.4byte	0xe0
 1000 0601 14       		.uleb128 0x14
 1001 0602 1C       		.byte	0x1c
 1002 0603 0D       		.byte	0xd
 1003 0604 E104     		.2byte	0x4e1
 1004 0606 BF060000 		.4byte	0x6bf
 1005 060a 0D       		.uleb128 0xd
 1006 060b 535200   		.ascii	"SR\000"
 1007 060e 0D       		.byte	0xd
 1008 060f E304     		.2byte	0x4e3
 1009 0611 F7050000 		.4byte	0x5f7
 1010 0615 00       		.byte	0
 1011 0616 15       		.uleb128 0x15
 1012 0617 85040000 		.4byte	.LASF88
 1013 061b 0D       		.byte	0xd
 1014 061c E404     		.2byte	0x4e4
 1015 061e D5000000 		.4byte	0xd5
 1016 0622 02       		.byte	0x2
 1017 0623 0D       		.uleb128 0xd
 1018 0624 445200   		.ascii	"DR\000"
 1019 0627 0D       		.byte	0xd
 1020 0628 E504     		.2byte	0x4e5
 1021 062a F7050000 		.4byte	0x5f7
 1022 062e 04       		.byte	0x4
 1023 062f 15       		.uleb128 0x15
ARM GAS  /var/folders/6q/x_mk5n_j3p7_c40r_2k_78980000gn/T//ccUpRebl.s 			page 19


 1024 0630 8F040000 		.4byte	.LASF89
 1025 0634 0D       		.byte	0xd
 1026 0635 E604     		.2byte	0x4e6
 1027 0637 D5000000 		.4byte	0xd5
 1028 063b 06       		.byte	0x6
 1029 063c 0D       		.uleb128 0xd
 1030 063d 42525200 		.ascii	"BRR\000"
 1031 0641 0D       		.byte	0xd
 1032 0642 E704     		.2byte	0x4e7
 1033 0644 F7050000 		.4byte	0x5f7
 1034 0648 08       		.byte	0x8
 1035 0649 15       		.uleb128 0x15
 1036 064a 99040000 		.4byte	.LASF90
 1037 064e 0D       		.byte	0xd
 1038 064f E804     		.2byte	0x4e8
 1039 0651 D5000000 		.4byte	0xd5
 1040 0655 0A       		.byte	0xa
 1041 0656 0D       		.uleb128 0xd
 1042 0657 43523100 		.ascii	"CR1\000"
 1043 065b 0D       		.byte	0xd
 1044 065c E904     		.2byte	0x4e9
 1045 065e F7050000 		.4byte	0x5f7
 1046 0662 0C       		.byte	0xc
 1047 0663 15       		.uleb128 0x15
 1048 0664 8E050000 		.4byte	.LASF91
 1049 0668 0D       		.byte	0xd
 1050 0669 EA04     		.2byte	0x4ea
 1051 066b D5000000 		.4byte	0xd5
 1052 066f 0E       		.byte	0xe
 1053 0670 0D       		.uleb128 0xd
 1054 0671 43523200 		.ascii	"CR2\000"
 1055 0675 0D       		.byte	0xd
 1056 0676 EB04     		.2byte	0x4eb
 1057 0678 F7050000 		.4byte	0x5f7
 1058 067c 10       		.byte	0x10
 1059 067d 15       		.uleb128 0x15
 1060 067e AD040000 		.4byte	.LASF92
 1061 0682 0D       		.byte	0xd
 1062 0683 EC04     		.2byte	0x4ec
 1063 0685 D5000000 		.4byte	0xd5
 1064 0689 12       		.byte	0x12
 1065 068a 0D       		.uleb128 0xd
 1066 068b 43523300 		.ascii	"CR3\000"
 1067 068f 0D       		.byte	0xd
 1068 0690 ED04     		.2byte	0x4ed
 1069 0692 F7050000 		.4byte	0x5f7
 1070 0696 14       		.byte	0x14
 1071 0697 15       		.uleb128 0x15
 1072 0698 AD050000 		.4byte	.LASF93
 1073 069c 0D       		.byte	0xd
 1074 069d EE04     		.2byte	0x4ee
 1075 069f D5000000 		.4byte	0xd5
 1076 06a3 16       		.byte	0x16
 1077 06a4 15       		.uleb128 0x15
 1078 06a5 9E000000 		.4byte	.LASF94
 1079 06a9 0D       		.byte	0xd
 1080 06aa EF04     		.2byte	0x4ef
ARM GAS  /var/folders/6q/x_mk5n_j3p7_c40r_2k_78980000gn/T//ccUpRebl.s 			page 20


 1081 06ac F7050000 		.4byte	0x5f7
 1082 06b0 18       		.byte	0x18
 1083 06b1 15       		.uleb128 0x15
 1084 06b2 BF040000 		.4byte	.LASF95
 1085 06b6 0D       		.byte	0xd
 1086 06b7 F004     		.2byte	0x4f0
 1087 06b9 D5000000 		.4byte	0xd5
 1088 06bd 1A       		.byte	0x1a
 1089 06be 00       		.byte	0
 1090 06bf 16       		.uleb128 0x16
 1091 06c0 F5040000 		.4byte	.LASF96
 1092 06c4 0D       		.byte	0xd
 1093 06c5 F104     		.2byte	0x4f1
 1094 06c7 01060000 		.4byte	0x601
 1095 06cb 11       		.uleb128 0x11
 1096 06cc 3F010000 		.4byte	0x13f
 1097 06d0 E4060000 		.4byte	0x6e4
 1098 06d4 12       		.uleb128 0x12
 1099 06d5 B0000000 		.4byte	0xb0
 1100 06d9 12       		.uleb128 0x12
 1101 06da CA000000 		.4byte	0xca
 1102 06de 12       		.uleb128 0x12
 1103 06df 60010000 		.4byte	0x160
 1104 06e3 00       		.byte	0
 1105 06e4 06       		.uleb128 0x6
 1106 06e5 04       		.byte	0x4
 1107 06e6 CB060000 		.4byte	0x6cb
 1108 06ea 11       		.uleb128 0x11
 1109 06eb 3F010000 		.4byte	0x13f
 1110 06ef FE060000 		.4byte	0x6fe
 1111 06f3 12       		.uleb128 0x12
 1112 06f4 B0000000 		.4byte	0xb0
 1113 06f8 12       		.uleb128 0x12
 1114 06f9 60010000 		.4byte	0x160
 1115 06fd 00       		.byte	0
 1116 06fe 06       		.uleb128 0x6
 1117 06ff 04       		.byte	0x4
 1118 0700 EA060000 		.4byte	0x6ea
 1119 0704 11       		.uleb128 0x11
 1120 0705 2C000000 		.4byte	0x2c
 1121 0709 22070000 		.4byte	0x722
 1122 070d 12       		.uleb128 0x12
 1123 070e B0000000 		.4byte	0xb0
 1124 0712 12       		.uleb128 0x12
 1125 0713 82050000 		.4byte	0x582
 1126 0717 12       		.uleb128 0x12
 1127 0718 2C000000 		.4byte	0x2c
 1128 071c 12       		.uleb128 0x12
 1129 071d 60010000 		.4byte	0x160
 1130 0721 00       		.byte	0
 1131 0722 06       		.uleb128 0x6
 1132 0723 04       		.byte	0x4
 1133 0724 04070000 		.4byte	0x704
 1134 0728 11       		.uleb128 0x11
 1135 0729 2C000000 		.4byte	0x2c
 1136 072d 46070000 		.4byte	0x746
 1137 0731 12       		.uleb128 0x12
ARM GAS  /var/folders/6q/x_mk5n_j3p7_c40r_2k_78980000gn/T//ccUpRebl.s 			page 21


 1138 0732 B0000000 		.4byte	0xb0
 1139 0736 12       		.uleb128 0x12
 1140 0737 10050000 		.4byte	0x510
 1141 073b 12       		.uleb128 0x12
 1142 073c 2C000000 		.4byte	0x2c
 1143 0740 12       		.uleb128 0x12
 1144 0741 60010000 		.4byte	0x160
 1145 0745 00       		.byte	0
 1146 0746 06       		.uleb128 0x6
 1147 0747 04       		.byte	0x4
 1148 0748 28070000 		.4byte	0x728
 1149 074c 17       		.uleb128 0x17
 1150 074d 01       		.byte	0x1
 1151 074e 5E000000 		.4byte	0x5e
 1152 0752 0E       		.byte	0xe
 1153 0753 64       		.byte	0x64
 1154 0754 6B070000 		.4byte	0x76b
 1155 0758 18       		.uleb128 0x18
 1156 0759 A3050000 		.4byte	.LASF97
 1157 075d 00       		.byte	0
 1158 075e 18       		.uleb128 0x18
 1159 075f B7040000 		.4byte	.LASF98
 1160 0763 01       		.byte	0x1
 1161 0764 18       		.uleb128 0x18
 1162 0765 E0060000 		.4byte	.LASF99
 1163 0769 02       		.byte	0x2
 1164 076a 00       		.byte	0
 1165 076b 03       		.uleb128 0x3
 1166 076c C0050000 		.4byte	.LASF100
 1167 0770 0E       		.byte	0xe
 1168 0771 68       		.byte	0x68
 1169 0772 4C070000 		.4byte	0x74c
 1170 0776 03       		.uleb128 0x3
 1171 0777 CA050000 		.4byte	.LASF101
 1172 077b 0E       		.byte	0xe
 1173 077c 6D       		.byte	0x6d
 1174 077d 81070000 		.4byte	0x781
 1175 0781 08       		.uleb128 0x8
 1176 0782 CA050000 		.4byte	.LASF101
 1177 0786 D8       		.byte	0xd8
 1178 0787 0E       		.byte	0xe
 1179 0788 87       		.byte	0x87
 1180 0789 EC070000 		.4byte	0x7ec
 1181 078d 0A       		.uleb128 0xa
 1182 078e 766D7400 		.ascii	"vmt\000"
 1183 0792 0E       		.byte	0xe
 1184 0793 89       		.byte	0x89
 1185 0794 59080000 		.4byte	0x859
 1186 0798 00       		.byte	0
 1187 0799 09       		.uleb128 0x9
 1188 079a 03030000 		.4byte	.LASF102
 1189 079e 0E       		.byte	0xe
 1190 079f 8A       		.byte	0x8a
 1191 07a0 1B040000 		.4byte	0x41b
 1192 07a4 04       		.byte	0x4
 1193 07a5 09       		.uleb128 0x9
 1194 07a6 E8000000 		.4byte	.LASF103
ARM GAS  /var/folders/6q/x_mk5n_j3p7_c40r_2k_78980000gn/T//ccUpRebl.s 			page 22


 1195 07aa 0E       		.byte	0xe
 1196 07ab 8A       		.byte	0x8a
 1197 07ac 6B070000 		.4byte	0x76b
 1198 07b0 08       		.byte	0x8
 1199 07b1 09       		.uleb128 0x9
 1200 07b2 F6010000 		.4byte	.LASF104
 1201 07b6 0E       		.byte	0xe
 1202 07b7 8A       		.byte	0x8a
 1203 07b8 16050000 		.4byte	0x516
 1204 07bc 0C       		.byte	0xc
 1205 07bd 09       		.uleb128 0x9
 1206 07be 38030000 		.4byte	.LASF105
 1207 07c2 0E       		.byte	0xe
 1208 07c3 8A       		.byte	0x8a
 1209 07c4 21050000 		.4byte	0x521
 1210 07c8 30       		.byte	0x30
 1211 07c9 0A       		.uleb128 0xa
 1212 07ca 696200   		.ascii	"ib\000"
 1213 07cd 0E       		.byte	0xe
 1214 07ce 8A       		.byte	0x8a
 1215 07cf 64080000 		.4byte	0x864
 1216 07d3 54       		.byte	0x54
 1217 07d4 0A       		.uleb128 0xa
 1218 07d5 6F6200   		.ascii	"ob\000"
 1219 07d8 0E       		.byte	0xe
 1220 07d9 8A       		.byte	0x8a
 1221 07da 64080000 		.4byte	0x864
 1222 07de 94       		.byte	0x94
 1223 07df 09       		.uleb128 0x9
 1224 07e0 BF010000 		.4byte	.LASF106
 1225 07e4 0E       		.byte	0xe
 1226 07e5 8A       		.byte	0x8a
 1227 07e6 74080000 		.4byte	0x874
 1228 07ea D4       		.byte	0xd4
 1229 07eb 00       		.byte	0
 1230 07ec 08       		.uleb128 0x8
 1231 07ed DA010000 		.4byte	.LASF107
 1232 07f1 20       		.byte	0x20
 1233 07f2 0E       		.byte	0xe
 1234 07f3 7C       		.byte	0x7c
 1235 07f4 59080000 		.4byte	0x859
 1236 07f8 09       		.uleb128 0x9
 1237 07f9 0C040000 		.4byte	.LASF85
 1238 07fd 0E       		.byte	0xe
 1239 07fe 7D       		.byte	0x7d
 1240 07ff 8D050000 		.4byte	0x58d
 1241 0803 00       		.byte	0
 1242 0804 09       		.uleb128 0x9
 1243 0805 53070000 		.4byte	.LASF86
 1244 0809 0E       		.byte	0xe
 1245 080a 7D       		.byte	0x7d
 1246 080b AC050000 		.4byte	0x5ac
 1247 080f 04       		.byte	0x4
 1248 0810 0A       		.uleb128 0xa
 1249 0811 70757400 		.ascii	"put\000"
 1250 0815 0E       		.byte	0xe
 1251 0816 7D       		.byte	0x7d
ARM GAS  /var/folders/6q/x_mk5n_j3p7_c40r_2k_78980000gn/T//ccUpRebl.s 			page 23


 1252 0817 C6050000 		.4byte	0x5c6
 1253 081b 08       		.byte	0x8
 1254 081c 0A       		.uleb128 0xa
 1255 081d 67657400 		.ascii	"get\000"
 1256 0821 0E       		.byte	0xe
 1257 0822 7D       		.byte	0x7d
 1258 0823 61040000 		.4byte	0x461
 1259 0827 0C       		.byte	0xc
 1260 0828 09       		.uleb128 0x9
 1261 0829 12040000 		.4byte	.LASF108
 1262 082d 0E       		.byte	0xe
 1263 082e 7D       		.byte	0x7d
 1264 082f E4060000 		.4byte	0x6e4
 1265 0833 10       		.byte	0x10
 1266 0834 09       		.uleb128 0x9
 1267 0835 18020000 		.4byte	.LASF109
 1268 0839 0E       		.byte	0xe
 1269 083a 7D       		.byte	0x7d
 1270 083b FE060000 		.4byte	0x6fe
 1271 083f 14       		.byte	0x14
 1272 0840 09       		.uleb128 0x9
 1273 0841 05040000 		.4byte	.LASF110
 1274 0845 0E       		.byte	0xe
 1275 0846 7D       		.byte	0x7d
 1276 0847 22070000 		.4byte	0x722
 1277 084b 18       		.byte	0x18
 1278 084c 09       		.uleb128 0x9
 1279 084d 67000000 		.4byte	.LASF111
 1280 0851 0E       		.byte	0xe
 1281 0852 7D       		.byte	0x7d
 1282 0853 46070000 		.4byte	0x746
 1283 0857 1C       		.byte	0x1c
 1284 0858 00       		.byte	0
 1285 0859 06       		.uleb128 0x6
 1286 085a 04       		.byte	0x4
 1287 085b 5F080000 		.4byte	0x85f
 1288 085f 07       		.uleb128 0x7
 1289 0860 EC070000 		.4byte	0x7ec
 1290 0864 19       		.uleb128 0x19
 1291 0865 CA000000 		.4byte	0xca
 1292 0869 74080000 		.4byte	0x874
 1293 086d 1A       		.uleb128 0x1a
 1294 086e A9000000 		.4byte	0xa9
 1295 0872 3F       		.byte	0x3f
 1296 0873 00       		.byte	0
 1297 0874 06       		.uleb128 0x6
 1298 0875 04       		.byte	0x4
 1299 0876 BF060000 		.4byte	0x6bf
 1300 087a 03       		.uleb128 0x3
 1301 087b CF060000 		.4byte	.LASF112
 1302 087f 0F       		.byte	0xf
 1303 0880 39       		.byte	0x39
 1304 0881 EC050000 		.4byte	0x5ec
 1305 0885 17       		.uleb128 0x17
 1306 0886 01       		.byte	0x1
 1307 0887 4C000000 		.4byte	0x4c
 1308 088b 10       		.byte	0x10
ARM GAS  /var/folders/6q/x_mk5n_j3p7_c40r_2k_78980000gn/T//ccUpRebl.s 			page 24


 1309 088c 8D       		.byte	0x8d
 1310 088d E6080000 		.4byte	0x8e6
 1311 0891 1B       		.uleb128 0x1b
 1312 0892 0D010000 		.4byte	.LASF113
 1313 0896 7F       		.sleb128 -1
 1314 0897 18       		.uleb128 0x18
 1315 0898 47030000 		.4byte	.LASF114
 1316 089c 00       		.byte	0
 1317 089d 18       		.uleb128 0x18
 1318 089e 55030000 		.4byte	.LASF115
 1319 08a2 01       		.byte	0x1
 1320 08a3 18       		.uleb128 0x18
 1321 08a4 63030000 		.4byte	.LASF116
 1322 08a8 02       		.byte	0x2
 1323 08a9 18       		.uleb128 0x18
 1324 08aa 71030000 		.4byte	.LASF117
 1325 08ae 03       		.byte	0x3
 1326 08af 18       		.uleb128 0x18
 1327 08b0 7F030000 		.4byte	.LASF118
 1328 08b4 04       		.byte	0x4
 1329 08b5 18       		.uleb128 0x18
 1330 08b6 8D030000 		.4byte	.LASF119
 1331 08ba 05       		.byte	0x5
 1332 08bb 18       		.uleb128 0x18
 1333 08bc 9B030000 		.4byte	.LASF120
 1334 08c0 06       		.byte	0x6
 1335 08c1 18       		.uleb128 0x18
 1336 08c2 A9030000 		.4byte	.LASF121
 1337 08c6 07       		.byte	0x7
 1338 08c7 18       		.uleb128 0x18
 1339 08c8 B7030000 		.4byte	.LASF122
 1340 08cc 08       		.byte	0x8
 1341 08cd 18       		.uleb128 0x18
 1342 08ce 56010000 		.4byte	.LASF123
 1343 08d2 09       		.byte	0x9
 1344 08d3 18       		.uleb128 0x18
 1345 08d4 7C060000 		.4byte	.LASF124
 1346 08d8 0A       		.byte	0xa
 1347 08d9 18       		.uleb128 0x18
 1348 08da D7050000 		.4byte	.LASF125
 1349 08de 0B       		.byte	0xb
 1350 08df 18       		.uleb128 0x18
 1351 08e0 43000000 		.4byte	.LASF126
 1352 08e4 0C       		.byte	0xc
 1353 08e5 00       		.byte	0
 1354 08e6 17       		.uleb128 0x17
 1355 08e7 01       		.byte	0x1
 1356 08e8 5E000000 		.4byte	0x5e
 1357 08ec 10       		.byte	0x10
 1358 08ed A2       		.byte	0xa2
 1359 08ee FF080000 		.4byte	0x8ff
 1360 08f2 18       		.uleb128 0x18
 1361 08f3 D0070000 		.4byte	.LASF127
 1362 08f7 00       		.byte	0
 1363 08f8 18       		.uleb128 0x18
 1364 08f9 24000000 		.4byte	.LASF128
 1365 08fd 01       		.byte	0x1
ARM GAS  /var/folders/6q/x_mk5n_j3p7_c40r_2k_78980000gn/T//ccUpRebl.s 			page 25


 1366 08fe 00       		.byte	0
 1367 08ff 17       		.uleb128 0x17
 1368 0900 01       		.byte	0x1
 1369 0901 5E000000 		.4byte	0x5e
 1370 0905 11       		.byte	0x11
 1371 0906 46       		.byte	0x46
 1372 0907 48090000 		.4byte	0x948
 1373 090b 18       		.uleb128 0x18
 1374 090c F7050000 		.4byte	.LASF129
 1375 0910 00       		.byte	0
 1376 0911 18       		.uleb128 0x18
 1377 0912 05060000 		.4byte	.LASF130
 1378 0916 01       		.byte	0x1
 1379 0917 18       		.uleb128 0x18
 1380 0918 13060000 		.4byte	.LASF131
 1381 091c 02       		.byte	0x2
 1382 091d 18       		.uleb128 0x18
 1383 091e 21060000 		.4byte	.LASF132
 1384 0922 03       		.byte	0x3
 1385 0923 18       		.uleb128 0x18
 1386 0924 2F060000 		.4byte	.LASF133
 1387 0928 04       		.byte	0x4
 1388 0929 18       		.uleb128 0x18
 1389 092a 3D060000 		.4byte	.LASF134
 1390 092e 05       		.byte	0x5
 1391 092f 18       		.uleb128 0x18
 1392 0930 4B060000 		.4byte	.LASF135
 1393 0934 06       		.byte	0x6
 1394 0935 18       		.uleb128 0x18
 1395 0936 59060000 		.4byte	.LASF136
 1396 093a 07       		.byte	0x7
 1397 093b 18       		.uleb128 0x18
 1398 093c 8C010000 		.4byte	.LASF137
 1399 0940 08       		.byte	0x8
 1400 0941 18       		.uleb128 0x18
 1401 0942 18050000 		.4byte	.LASF138
 1402 0946 63       		.byte	0x63
 1403 0947 00       		.byte	0
 1404 0948 06       		.uleb128 0x6
 1405 0949 04       		.byte	0x4
 1406 094a 7A080000 		.4byte	0x87a
 1407 094e 03       		.uleb128 0x3
 1408 094f 31040000 		.4byte	.LASF139
 1409 0953 12       		.byte	0x12
 1410 0954 5E       		.byte	0x5e
 1411 0955 59090000 		.4byte	0x959
 1412 0959 06       		.uleb128 0x6
 1413 095a 04       		.byte	0x4
 1414 095b 5F090000 		.4byte	0x95f
 1415 095f 13       		.uleb128 0x13
 1416 0960 74090000 		.4byte	0x974
 1417 0964 12       		.uleb128 0x12
 1418 0965 48090000 		.4byte	0x948
 1419 0969 12       		.uleb128 0x12
 1420 096a 25000000 		.4byte	0x25
 1421 096e 12       		.uleb128 0x12
 1422 096f 74090000 		.4byte	0x974
ARM GAS  /var/folders/6q/x_mk5n_j3p7_c40r_2k_78980000gn/T//ccUpRebl.s 			page 26


 1423 0973 00       		.byte	0
 1424 0974 06       		.uleb128 0x6
 1425 0975 04       		.byte	0x4
 1426 0976 B2000000 		.4byte	0xb2
 1427 097a 0B       		.uleb128 0xb
 1428 097b 08       		.byte	0x8
 1429 097c 12       		.byte	0x12
 1430 097d 63       		.byte	0x63
 1431 097e 9B090000 		.4byte	0x99b
 1432 0982 09       		.uleb128 0x9
 1433 0983 96010000 		.4byte	.LASF140
 1434 0987 12       		.byte	0x12
 1435 0988 64       		.byte	0x64
 1436 0989 BF000000 		.4byte	0xbf
 1437 098d 00       		.byte	0
 1438 098e 09       		.uleb128 0x9
 1439 098f 2E070000 		.4byte	.LASF141
 1440 0993 12       		.byte	0x12
 1441 0994 65       		.byte	0x65
 1442 0995 4E090000 		.4byte	0x94e
 1443 0999 04       		.byte	0x4
 1444 099a 00       		.byte	0
 1445 099b 03       		.uleb128 0x3
 1446 099c F7000000 		.4byte	.LASF142
 1447 09a0 12       		.byte	0x12
 1448 09a1 66       		.byte	0x66
 1449 09a2 7A090000 		.4byte	0x97a
 1450 09a6 0B       		.uleb128 0xb
 1451 09a7 08       		.byte	0x8
 1452 09a8 12       		.byte	0x12
 1453 09a9 6B       		.byte	0x6b
 1454 09aa C7090000 		.4byte	0x9c7
 1455 09ae 09       		.uleb128 0x9
 1456 09af CC000000 		.4byte	.LASF143
 1457 09b3 12       		.byte	0x12
 1458 09b4 6C       		.byte	0x6c
 1459 09b5 48090000 		.4byte	0x948
 1460 09b9 00       		.byte	0
 1461 09ba 09       		.uleb128 0x9
 1462 09bb EA010000 		.4byte	.LASF144
 1463 09bf 12       		.byte	0x12
 1464 09c0 6E       		.byte	0x6e
 1465 09c1 C7090000 		.4byte	0x9c7
 1466 09c5 04       		.byte	0x4
 1467 09c6 00       		.byte	0
 1468 09c7 06       		.uleb128 0x6
 1469 09c8 04       		.byte	0x4
 1470 09c9 CD090000 		.4byte	0x9cd
 1471 09cd 07       		.uleb128 0x7
 1472 09ce 9B090000 		.4byte	0x99b
 1473 09d2 03       		.uleb128 0x3
 1474 09d3 BC060000 		.4byte	.LASF145
 1475 09d7 12       		.byte	0x12
 1476 09d8 70       		.byte	0x70
 1477 09d9 A6090000 		.4byte	0x9a6
 1478 09dd 04       		.uleb128 0x4
 1479 09de 04       		.byte	0x4
ARM GAS  /var/folders/6q/x_mk5n_j3p7_c40r_2k_78980000gn/T//ccUpRebl.s 			page 27


 1480 09df 04       		.byte	0x4
 1481 09e0 77040000 		.4byte	.LASF146
 1482 09e4 1C       		.uleb128 0x1c
 1483 09e5 8B060000 		.4byte	.LASF169
 1484 09e9 01       		.byte	0x1
 1485 09ea 3D       		.byte	0x3d
 1486 09eb 00000000 		.4byte	.LFB64
 1487 09ef 1E000000 		.4byte	.LFE64-.LFB64
 1488 09f3 01       		.uleb128 0x1
 1489 09f4 9C       		.byte	0x9c
 1490 09f5 420A0000 		.4byte	0xa42
 1491 09f9 1D       		.uleb128 0x1d
 1492 09fa 63687000 		.ascii	"chp\000"
 1493 09fe 01       		.byte	0x1
 1494 09ff 3D       		.byte	0x3d
 1495 0a00 48090000 		.4byte	0x948
 1496 0a04 00000000 		.4byte	.LLST0
 1497 0a08 1E       		.uleb128 0x1e
 1498 0a09 6E070000 		.4byte	.LASF147
 1499 0a0d 01       		.byte	0x1
 1500 0a0e 3D       		.byte	0x3d
 1501 0a0f 25000000 		.4byte	0x25
 1502 0a13 2C000000 		.4byte	.LLST1
 1503 0a17 1E       		.uleb128 0x1e
 1504 0a18 F5060000 		.4byte	.LASF148
 1505 0a1c 01       		.byte	0x1
 1506 0a1d 3D       		.byte	0x3d
 1507 0a1e 74090000 		.4byte	0x974
 1508 0a22 4D000000 		.4byte	.LLST2
 1509 0a26 1F       		.uleb128 0x1f
 1510 0a27 08000000 		.4byte	.LVL1
 1511 0a2b 600B0000 		.4byte	0xb60
 1512 0a2f 1F       		.uleb128 0x1f
 1513 0a30 10000000 		.4byte	.LVL2
 1514 0a34 6B0B0000 		.4byte	0xb6b
 1515 0a38 20       		.uleb128 0x20
 1516 0a39 1E000000 		.4byte	.LVL4
 1517 0a3d 760B0000 		.4byte	0xb76
 1518 0a41 00       		.byte	0
 1519 0a42 21       		.uleb128 0x21
 1520 0a43 3C040000 		.4byte	.LASF170
 1521 0a47 01       		.byte	0x1
 1522 0a48 67       		.byte	0x67
 1523 0a49 25000000 		.4byte	0x25
 1524 0a4d 00000000 		.4byte	.LFB65
 1525 0a51 60000000 		.4byte	.LFE65-.LFB65
 1526 0a55 01       		.uleb128 0x1
 1527 0a56 9C       		.byte	0x9c
 1528 0a57 0C0B0000 		.4byte	0xb0c
 1529 0a5b 22       		.uleb128 0x22
 1530 0a5c D2010000 		.4byte	.LASF149
 1531 0a60 01       		.byte	0x1
 1532 0a61 69       		.byte	0x69
 1533 0a62 94020000 		.4byte	0x294
 1534 0a66 6E000000 		.4byte	.LLST3
 1535 0a6a 22       		.uleb128 0x22
 1536 0a6b 10020000 		.4byte	.LASF150
ARM GAS  /var/folders/6q/x_mk5n_j3p7_c40r_2k_78980000gn/T//ccUpRebl.s 			page 28


 1537 0a6f 01       		.byte	0x1
 1538 0a70 6A       		.byte	0x6a
 1539 0a71 65000000 		.4byte	0x65
 1540 0a75 BB000000 		.4byte	.LLST4
 1541 0a79 1F       		.uleb128 0x1f
 1542 0a7a 06000000 		.4byte	.LVL6
 1543 0a7e 810B0000 		.4byte	0xb81
 1544 0a82 1F       		.uleb128 0x1f
 1545 0a83 0C000000 		.4byte	.LVL7
 1546 0a87 8C0B0000 		.4byte	0xb8c
 1547 0a8b 1F       		.uleb128 0x1f
 1548 0a8c 10000000 		.4byte	.LVL8
 1549 0a90 970B0000 		.4byte	0xb97
 1550 0a94 1F       		.uleb128 0x1f
 1551 0a95 14000000 		.4byte	.LVL9
 1552 0a99 A20B0000 		.4byte	0xba2
 1553 0a9d 23       		.uleb128 0x23
 1554 0a9e 20000000 		.4byte	.LVL12
 1555 0aa2 AD0B0000 		.4byte	0xbad
 1556 0aa6 B10A0000 		.4byte	0xab1
 1557 0aaa 24       		.uleb128 0x24
 1558 0aab 01       		.uleb128 0x1
 1559 0aac 50       		.byte	0x50
 1560 0aad 02       		.uleb128 0x2
 1561 0aae 08       		.byte	0x8
 1562 0aaf 64       		.byte	0x64
 1563 0ab0 00       		.byte	0
 1564 0ab1 1F       		.uleb128 0x1f
 1565 0ab2 26000000 		.4byte	.LVL14
 1566 0ab6 B90B0000 		.4byte	0xbb9
 1567 0aba 1F       		.uleb128 0x1f
 1568 0abb 30000000 		.4byte	.LVL16
 1569 0abf C40B0000 		.4byte	0xbc4
 1570 0ac3 23       		.uleb128 0x23
 1571 0ac4 3E000000 		.4byte	.LVL18
 1572 0ac8 AD0B0000 		.4byte	0xbad
 1573 0acc D70A0000 		.4byte	0xad7
 1574 0ad0 24       		.uleb128 0x24
 1575 0ad1 01       		.uleb128 0x1
 1576 0ad2 50       		.byte	0x50
 1577 0ad3 02       		.uleb128 0x2
 1578 0ad4 08       		.byte	0x8
 1579 0ad5 32       		.byte	0x32
 1580 0ad6 00       		.byte	0
 1581 0ad7 23       		.uleb128 0x23
 1582 0ad8 4E000000 		.4byte	.LVL20
 1583 0adc CF0B0000 		.4byte	0xbcf
 1584 0ae0 FB0A0000 		.4byte	0xafb
 1585 0ae4 24       		.uleb128 0x24
 1586 0ae5 01       		.uleb128 0x1
 1587 0ae6 50       		.byte	0x50
 1588 0ae7 05       		.uleb128 0x5
 1589 0ae8 03       		.byte	0x3
 1590 0ae9 00000000 		.4byte	.LANCHOR0
 1591 0aed 24       		.uleb128 0x24
 1592 0aee 01       		.uleb128 0x1
 1593 0aef 51       		.byte	0x51
ARM GAS  /var/folders/6q/x_mk5n_j3p7_c40r_2k_78980000gn/T//ccUpRebl.s 			page 29


 1594 0af0 03       		.uleb128 0x3
 1595 0af1 0A       		.byte	0xa
 1596 0af2 B002     		.2byte	0x2b0
 1597 0af4 24       		.uleb128 0x24
 1598 0af5 01       		.uleb128 0x1
 1599 0af6 52       		.byte	0x52
 1600 0af7 02       		.uleb128 0x2
 1601 0af8 08       		.byte	0x8
 1602 0af9 40       		.byte	0x40
 1603 0afa 00       		.byte	0
 1604 0afb 25       		.uleb128 0x25
 1605 0afc 58000000 		.4byte	.LVL23
 1606 0b00 DA0B0000 		.4byte	0xbda
 1607 0b04 24       		.uleb128 0x24
 1608 0b05 01       		.uleb128 0x1
 1609 0b06 50       		.byte	0x50
 1610 0b07 02       		.uleb128 0x2
 1611 0b08 74       		.byte	0x74
 1612 0b09 00       		.sleb128 0
 1613 0b0a 00       		.byte	0
 1614 0b0b 00       		.byte	0
 1615 0b0c 19       		.uleb128 0x19
 1616 0b0d CD090000 		.4byte	0x9cd
 1617 0b11 1C0B0000 		.4byte	0xb1c
 1618 0b15 1A       		.uleb128 0x1a
 1619 0b16 A9000000 		.4byte	0xa9
 1620 0b1a 09       		.byte	0x9
 1621 0b1b 00       		.byte	0
 1622 0b1c 26       		.uleb128 0x26
 1623 0b1d 6E040000 		.4byte	.LASF151
 1624 0b21 01       		.byte	0x1
 1625 0b22 50       		.byte	0x50
 1626 0b23 2D0B0000 		.4byte	0xb2d
 1627 0b27 05       		.uleb128 0x5
 1628 0b28 03       		.byte	0x3
 1629 0b29 00000000 		.4byte	commands
 1630 0b2d 07       		.uleb128 0x7
 1631 0b2e 0C0B0000 		.4byte	0xb0c
 1632 0b32 26       		.uleb128 0x26
 1633 0b33 3A070000 		.4byte	.LASF152
 1634 0b37 01       		.byte	0x1
 1635 0b38 5E       		.byte	0x5e
 1636 0b39 430B0000 		.4byte	0xb43
 1637 0b3d 05       		.uleb128 0x5
 1638 0b3e 03       		.byte	0x3
 1639 0b3f 00000000 		.4byte	shell_cfg1
 1640 0b43 07       		.uleb128 0x7
 1641 0b44 D2090000 		.4byte	0x9d2
 1642 0b48 27       		.uleb128 0x27
 1643 0b49 53000000 		.4byte	.LASF153
 1644 0b4d 19       		.byte	0x19
 1645 0b4e 0706     		.2byte	0x607
 1646 0b50 FC050000 		.4byte	0x5fc
 1647 0b54 28       		.uleb128 0x28
 1648 0b55 53443100 		.ascii	"SD1\000"
 1649 0b59 1A       		.byte	0x1a
 1650 0b5a 0F01     		.2byte	0x10f
ARM GAS  /var/folders/6q/x_mk5n_j3p7_c40r_2k_78980000gn/T//ccUpRebl.s 			page 30


 1651 0b5c 76070000 		.4byte	0x776
 1652 0b60 29       		.uleb128 0x29
 1653 0b61 49040000 		.4byte	.LASF154
 1654 0b65 49040000 		.4byte	.LASF154
 1655 0b69 13       		.byte	0x13
 1656 0b6a 70       		.byte	0x70
 1657 0b6b 29       		.uleb128 0x29
 1658 0b6c 89070000 		.4byte	.LASF155
 1659 0b70 89070000 		.4byte	.LASF155
 1660 0b74 13       		.byte	0x13
 1661 0b75 79       		.byte	0x79
 1662 0b76 29       		.uleb128 0x29
 1663 0b77 91000000 		.4byte	.LASF156
 1664 0b7b 91000000 		.4byte	.LASF156
 1665 0b7f 13       		.byte	0x13
 1666 0b80 71       		.byte	0x71
 1667 0b81 29       		.uleb128 0x29
 1668 0b82 08020000 		.4byte	.LASF157
 1669 0b86 08020000 		.4byte	.LASF157
 1670 0b8a 14       		.byte	0x14
 1671 0b8b D0       		.byte	0xd0
 1672 0b8c 29       		.uleb128 0x29
 1673 0b8d 82010000 		.4byte	.LASF158
 1674 0b91 82010000 		.4byte	.LASF158
 1675 0b95 15       		.byte	0x15
 1676 0b96 F6       		.byte	0xf6
 1677 0b97 29       		.uleb128 0x29
 1678 0b98 1F070000 		.4byte	.LASF159
 1679 0b9c 1F070000 		.4byte	.LASF159
 1680 0ba0 16       		.byte	0x16
 1681 0ba1 9D       		.byte	0x9d
 1682 0ba2 29       		.uleb128 0x29
 1683 0ba3 24030000 		.4byte	.LASF160
 1684 0ba7 24030000 		.4byte	.LASF160
 1685 0bab 16       		.byte	0x16
 1686 0bac 9C       		.byte	0x9c
 1687 0bad 2A       		.uleb128 0x2a
 1688 0bae 63040000 		.4byte	.LASF161
 1689 0bb2 63040000 		.4byte	.LASF161
 1690 0bb6 07       		.byte	0x7
 1691 0bb7 7501     		.2byte	0x175
 1692 0bb9 29       		.uleb128 0x29
 1693 0bba 58070000 		.4byte	.LASF162
 1694 0bbe 58070000 		.4byte	.LASF162
 1695 0bc2 17       		.byte	0x17
 1696 0bc3 AB       		.byte	0xab
 1697 0bc4 29       		.uleb128 0x29
 1698 0bc5 72060000 		.4byte	.LASF163
 1699 0bc9 72060000 		.4byte	.LASF163
 1700 0bcd 12       		.byte	0x12
 1701 0bce 7A       		.byte	0x7a
 1702 0bcf 29       		.uleb128 0x29
 1703 0bd0 F7020000 		.4byte	.LASF164
 1704 0bd4 F7020000 		.4byte	.LASF164
 1705 0bd8 12       		.byte	0x12
 1706 0bd9 7B       		.byte	0x7b
 1707 0bda 29       		.uleb128 0x29
ARM GAS  /var/folders/6q/x_mk5n_j3p7_c40r_2k_78980000gn/T//ccUpRebl.s 			page 31


 1708 0bdb 7A050000 		.4byte	.LASF165
 1709 0bdf 7A050000 		.4byte	.LASF165
 1710 0be3 18       		.byte	0x18
 1711 0be4 3A       		.byte	0x3a
 1712 0be5 00       		.byte	0
 1713              		.section	.debug_abbrev,"",%progbits
 1714              	.Ldebug_abbrev0:
 1715 0000 01       		.uleb128 0x1
 1716 0001 11       		.uleb128 0x11
 1717 0002 01       		.byte	0x1
 1718 0003 25       		.uleb128 0x25
 1719 0004 0E       		.uleb128 0xe
 1720 0005 13       		.uleb128 0x13
 1721 0006 0B       		.uleb128 0xb
 1722 0007 03       		.uleb128 0x3
 1723 0008 0E       		.uleb128 0xe
 1724 0009 1B       		.uleb128 0x1b
 1725 000a 0E       		.uleb128 0xe
 1726 000b 55       		.uleb128 0x55
 1727 000c 17       		.uleb128 0x17
 1728 000d 11       		.uleb128 0x11
 1729 000e 01       		.uleb128 0x1
 1730 000f 10       		.uleb128 0x10
 1731 0010 17       		.uleb128 0x17
 1732 0011 00       		.byte	0
 1733 0012 00       		.byte	0
 1734 0013 02       		.uleb128 0x2
 1735 0014 24       		.uleb128 0x24
 1736 0015 00       		.byte	0
 1737 0016 0B       		.uleb128 0xb
 1738 0017 0B       		.uleb128 0xb
 1739 0018 3E       		.uleb128 0x3e
 1740 0019 0B       		.uleb128 0xb
 1741 001a 03       		.uleb128 0x3
 1742 001b 08       		.uleb128 0x8
 1743 001c 00       		.byte	0
 1744 001d 00       		.byte	0
 1745 001e 03       		.uleb128 0x3
 1746 001f 16       		.uleb128 0x16
 1747 0020 00       		.byte	0
 1748 0021 03       		.uleb128 0x3
 1749 0022 0E       		.uleb128 0xe
 1750 0023 3A       		.uleb128 0x3a
 1751 0024 0B       		.uleb128 0xb
 1752 0025 3B       		.uleb128 0x3b
 1753 0026 0B       		.uleb128 0xb
 1754 0027 49       		.uleb128 0x49
 1755 0028 13       		.uleb128 0x13
 1756 0029 00       		.byte	0
 1757 002a 00       		.byte	0
 1758 002b 04       		.uleb128 0x4
 1759 002c 24       		.uleb128 0x24
 1760 002d 00       		.byte	0
 1761 002e 0B       		.uleb128 0xb
 1762 002f 0B       		.uleb128 0xb
 1763 0030 3E       		.uleb128 0x3e
 1764 0031 0B       		.uleb128 0xb
ARM GAS  /var/folders/6q/x_mk5n_j3p7_c40r_2k_78980000gn/T//ccUpRebl.s 			page 32


 1765 0032 03       		.uleb128 0x3
 1766 0033 0E       		.uleb128 0xe
 1767 0034 00       		.byte	0
 1768 0035 00       		.byte	0
 1769 0036 05       		.uleb128 0x5
 1770 0037 0F       		.uleb128 0xf
 1771 0038 00       		.byte	0
 1772 0039 0B       		.uleb128 0xb
 1773 003a 0B       		.uleb128 0xb
 1774 003b 00       		.byte	0
 1775 003c 00       		.byte	0
 1776 003d 06       		.uleb128 0x6
 1777 003e 0F       		.uleb128 0xf
 1778 003f 00       		.byte	0
 1779 0040 0B       		.uleb128 0xb
 1780 0041 0B       		.uleb128 0xb
 1781 0042 49       		.uleb128 0x49
 1782 0043 13       		.uleb128 0x13
 1783 0044 00       		.byte	0
 1784 0045 00       		.byte	0
 1785 0046 07       		.uleb128 0x7
 1786 0047 26       		.uleb128 0x26
 1787 0048 00       		.byte	0
 1788 0049 49       		.uleb128 0x49
 1789 004a 13       		.uleb128 0x13
 1790 004b 00       		.byte	0
 1791 004c 00       		.byte	0
 1792 004d 08       		.uleb128 0x8
 1793 004e 13       		.uleb128 0x13
 1794 004f 01       		.byte	0x1
 1795 0050 03       		.uleb128 0x3
 1796 0051 0E       		.uleb128 0xe
 1797 0052 0B       		.uleb128 0xb
 1798 0053 0B       		.uleb128 0xb
 1799 0054 3A       		.uleb128 0x3a
 1800 0055 0B       		.uleb128 0xb
 1801 0056 3B       		.uleb128 0x3b
 1802 0057 0B       		.uleb128 0xb
 1803 0058 01       		.uleb128 0x1
 1804 0059 13       		.uleb128 0x13
 1805 005a 00       		.byte	0
 1806 005b 00       		.byte	0
 1807 005c 09       		.uleb128 0x9
 1808 005d 0D       		.uleb128 0xd
 1809 005e 00       		.byte	0
 1810 005f 03       		.uleb128 0x3
 1811 0060 0E       		.uleb128 0xe
 1812 0061 3A       		.uleb128 0x3a
 1813 0062 0B       		.uleb128 0xb
 1814 0063 3B       		.uleb128 0x3b
 1815 0064 0B       		.uleb128 0xb
 1816 0065 49       		.uleb128 0x49
 1817 0066 13       		.uleb128 0x13
 1818 0067 38       		.uleb128 0x38
 1819 0068 0B       		.uleb128 0xb
 1820 0069 00       		.byte	0
 1821 006a 00       		.byte	0
ARM GAS  /var/folders/6q/x_mk5n_j3p7_c40r_2k_78980000gn/T//ccUpRebl.s 			page 33


 1822 006b 0A       		.uleb128 0xa
 1823 006c 0D       		.uleb128 0xd
 1824 006d 00       		.byte	0
 1825 006e 03       		.uleb128 0x3
 1826 006f 08       		.uleb128 0x8
 1827 0070 3A       		.uleb128 0x3a
 1828 0071 0B       		.uleb128 0xb
 1829 0072 3B       		.uleb128 0x3b
 1830 0073 0B       		.uleb128 0xb
 1831 0074 49       		.uleb128 0x49
 1832 0075 13       		.uleb128 0x13
 1833 0076 38       		.uleb128 0x38
 1834 0077 0B       		.uleb128 0xb
 1835 0078 00       		.byte	0
 1836 0079 00       		.byte	0
 1837 007a 0B       		.uleb128 0xb
 1838 007b 13       		.uleb128 0x13
 1839 007c 01       		.byte	0x1
 1840 007d 0B       		.uleb128 0xb
 1841 007e 0B       		.uleb128 0xb
 1842 007f 3A       		.uleb128 0x3a
 1843 0080 0B       		.uleb128 0xb
 1844 0081 3B       		.uleb128 0x3b
 1845 0082 0B       		.uleb128 0xb
 1846 0083 01       		.uleb128 0x1
 1847 0084 13       		.uleb128 0x13
 1848 0085 00       		.byte	0
 1849 0086 00       		.byte	0
 1850 0087 0C       		.uleb128 0xc
 1851 0088 13       		.uleb128 0x13
 1852 0089 01       		.byte	0x1
 1853 008a 03       		.uleb128 0x3
 1854 008b 0E       		.uleb128 0xe
 1855 008c 0B       		.uleb128 0xb
 1856 008d 0B       		.uleb128 0xb
 1857 008e 3A       		.uleb128 0x3a
 1858 008f 0B       		.uleb128 0xb
 1859 0090 3B       		.uleb128 0x3b
 1860 0091 05       		.uleb128 0x5
 1861 0092 01       		.uleb128 0x1
 1862 0093 13       		.uleb128 0x13
 1863 0094 00       		.byte	0
 1864 0095 00       		.byte	0
 1865 0096 0D       		.uleb128 0xd
 1866 0097 0D       		.uleb128 0xd
 1867 0098 00       		.byte	0
 1868 0099 03       		.uleb128 0x3
 1869 009a 08       		.uleb128 0x8
 1870 009b 3A       		.uleb128 0x3a
 1871 009c 0B       		.uleb128 0xb
 1872 009d 3B       		.uleb128 0x3b
 1873 009e 05       		.uleb128 0x5
 1874 009f 49       		.uleb128 0x49
 1875 00a0 13       		.uleb128 0x13
 1876 00a1 38       		.uleb128 0x38
 1877 00a2 0B       		.uleb128 0xb
 1878 00a3 00       		.byte	0
ARM GAS  /var/folders/6q/x_mk5n_j3p7_c40r_2k_78980000gn/T//ccUpRebl.s 			page 34


 1879 00a4 00       		.byte	0
 1880 00a5 0E       		.uleb128 0xe
 1881 00a6 35       		.uleb128 0x35
 1882 00a7 00       		.byte	0
 1883 00a8 49       		.uleb128 0x49
 1884 00a9 13       		.uleb128 0x13
 1885 00aa 00       		.byte	0
 1886 00ab 00       		.byte	0
 1887 00ac 0F       		.uleb128 0xf
 1888 00ad 17       		.uleb128 0x17
 1889 00ae 01       		.byte	0x1
 1890 00af 0B       		.uleb128 0xb
 1891 00b0 0B       		.uleb128 0xb
 1892 00b1 3A       		.uleb128 0x3a
 1893 00b2 0B       		.uleb128 0xb
 1894 00b3 3B       		.uleb128 0x3b
 1895 00b4 0B       		.uleb128 0xb
 1896 00b5 01       		.uleb128 0x1
 1897 00b6 13       		.uleb128 0x13
 1898 00b7 00       		.byte	0
 1899 00b8 00       		.byte	0
 1900 00b9 10       		.uleb128 0x10
 1901 00ba 0D       		.uleb128 0xd
 1902 00bb 00       		.byte	0
 1903 00bc 03       		.uleb128 0x3
 1904 00bd 0E       		.uleb128 0xe
 1905 00be 3A       		.uleb128 0x3a
 1906 00bf 0B       		.uleb128 0xb
 1907 00c0 3B       		.uleb128 0x3b
 1908 00c1 0B       		.uleb128 0xb
 1909 00c2 49       		.uleb128 0x49
 1910 00c3 13       		.uleb128 0x13
 1911 00c4 00       		.byte	0
 1912 00c5 00       		.byte	0
 1913 00c6 11       		.uleb128 0x11
 1914 00c7 15       		.uleb128 0x15
 1915 00c8 01       		.byte	0x1
 1916 00c9 27       		.uleb128 0x27
 1917 00ca 19       		.uleb128 0x19
 1918 00cb 49       		.uleb128 0x49
 1919 00cc 13       		.uleb128 0x13
 1920 00cd 01       		.uleb128 0x1
 1921 00ce 13       		.uleb128 0x13
 1922 00cf 00       		.byte	0
 1923 00d0 00       		.byte	0
 1924 00d1 12       		.uleb128 0x12
 1925 00d2 05       		.uleb128 0x5
 1926 00d3 00       		.byte	0
 1927 00d4 49       		.uleb128 0x49
 1928 00d5 13       		.uleb128 0x13
 1929 00d6 00       		.byte	0
 1930 00d7 00       		.byte	0
 1931 00d8 13       		.uleb128 0x13
 1932 00d9 15       		.uleb128 0x15
 1933 00da 01       		.byte	0x1
 1934 00db 27       		.uleb128 0x27
 1935 00dc 19       		.uleb128 0x19
ARM GAS  /var/folders/6q/x_mk5n_j3p7_c40r_2k_78980000gn/T//ccUpRebl.s 			page 35


 1936 00dd 01       		.uleb128 0x1
 1937 00de 13       		.uleb128 0x13
 1938 00df 00       		.byte	0
 1939 00e0 00       		.byte	0
 1940 00e1 14       		.uleb128 0x14
 1941 00e2 13       		.uleb128 0x13
 1942 00e3 01       		.byte	0x1
 1943 00e4 0B       		.uleb128 0xb
 1944 00e5 0B       		.uleb128 0xb
 1945 00e6 3A       		.uleb128 0x3a
 1946 00e7 0B       		.uleb128 0xb
 1947 00e8 3B       		.uleb128 0x3b
 1948 00e9 05       		.uleb128 0x5
 1949 00ea 01       		.uleb128 0x1
 1950 00eb 13       		.uleb128 0x13
 1951 00ec 00       		.byte	0
 1952 00ed 00       		.byte	0
 1953 00ee 15       		.uleb128 0x15
 1954 00ef 0D       		.uleb128 0xd
 1955 00f0 00       		.byte	0
 1956 00f1 03       		.uleb128 0x3
 1957 00f2 0E       		.uleb128 0xe
 1958 00f3 3A       		.uleb128 0x3a
 1959 00f4 0B       		.uleb128 0xb
 1960 00f5 3B       		.uleb128 0x3b
 1961 00f6 05       		.uleb128 0x5
 1962 00f7 49       		.uleb128 0x49
 1963 00f8 13       		.uleb128 0x13
 1964 00f9 38       		.uleb128 0x38
 1965 00fa 0B       		.uleb128 0xb
 1966 00fb 00       		.byte	0
 1967 00fc 00       		.byte	0
 1968 00fd 16       		.uleb128 0x16
 1969 00fe 16       		.uleb128 0x16
 1970 00ff 00       		.byte	0
 1971 0100 03       		.uleb128 0x3
 1972 0101 0E       		.uleb128 0xe
 1973 0102 3A       		.uleb128 0x3a
 1974 0103 0B       		.uleb128 0xb
 1975 0104 3B       		.uleb128 0x3b
 1976 0105 05       		.uleb128 0x5
 1977 0106 49       		.uleb128 0x49
 1978 0107 13       		.uleb128 0x13
 1979 0108 00       		.byte	0
 1980 0109 00       		.byte	0
 1981 010a 17       		.uleb128 0x17
 1982 010b 04       		.uleb128 0x4
 1983 010c 01       		.byte	0x1
 1984 010d 0B       		.uleb128 0xb
 1985 010e 0B       		.uleb128 0xb
 1986 010f 49       		.uleb128 0x49
 1987 0110 13       		.uleb128 0x13
 1988 0111 3A       		.uleb128 0x3a
 1989 0112 0B       		.uleb128 0xb
 1990 0113 3B       		.uleb128 0x3b
 1991 0114 0B       		.uleb128 0xb
 1992 0115 01       		.uleb128 0x1
ARM GAS  /var/folders/6q/x_mk5n_j3p7_c40r_2k_78980000gn/T//ccUpRebl.s 			page 36


 1993 0116 13       		.uleb128 0x13
 1994 0117 00       		.byte	0
 1995 0118 00       		.byte	0
 1996 0119 18       		.uleb128 0x18
 1997 011a 28       		.uleb128 0x28
 1998 011b 00       		.byte	0
 1999 011c 03       		.uleb128 0x3
 2000 011d 0E       		.uleb128 0xe
 2001 011e 1C       		.uleb128 0x1c
 2002 011f 0B       		.uleb128 0xb
 2003 0120 00       		.byte	0
 2004 0121 00       		.byte	0
 2005 0122 19       		.uleb128 0x19
 2006 0123 01       		.uleb128 0x1
 2007 0124 01       		.byte	0x1
 2008 0125 49       		.uleb128 0x49
 2009 0126 13       		.uleb128 0x13
 2010 0127 01       		.uleb128 0x1
 2011 0128 13       		.uleb128 0x13
 2012 0129 00       		.byte	0
 2013 012a 00       		.byte	0
 2014 012b 1A       		.uleb128 0x1a
 2015 012c 21       		.uleb128 0x21
 2016 012d 00       		.byte	0
 2017 012e 49       		.uleb128 0x49
 2018 012f 13       		.uleb128 0x13
 2019 0130 2F       		.uleb128 0x2f
 2020 0131 0B       		.uleb128 0xb
 2021 0132 00       		.byte	0
 2022 0133 00       		.byte	0
 2023 0134 1B       		.uleb128 0x1b
 2024 0135 28       		.uleb128 0x28
 2025 0136 00       		.byte	0
 2026 0137 03       		.uleb128 0x3
 2027 0138 0E       		.uleb128 0xe
 2028 0139 1C       		.uleb128 0x1c
 2029 013a 0D       		.uleb128 0xd
 2030 013b 00       		.byte	0
 2031 013c 00       		.byte	0
 2032 013d 1C       		.uleb128 0x1c
 2033 013e 2E       		.uleb128 0x2e
 2034 013f 01       		.byte	0x1
 2035 0140 03       		.uleb128 0x3
 2036 0141 0E       		.uleb128 0xe
 2037 0142 3A       		.uleb128 0x3a
 2038 0143 0B       		.uleb128 0xb
 2039 0144 3B       		.uleb128 0x3b
 2040 0145 0B       		.uleb128 0xb
 2041 0146 27       		.uleb128 0x27
 2042 0147 19       		.uleb128 0x19
 2043 0148 11       		.uleb128 0x11
 2044 0149 01       		.uleb128 0x1
 2045 014a 12       		.uleb128 0x12
 2046 014b 06       		.uleb128 0x6
 2047 014c 40       		.uleb128 0x40
 2048 014d 18       		.uleb128 0x18
 2049 014e 9742     		.uleb128 0x2117
ARM GAS  /var/folders/6q/x_mk5n_j3p7_c40r_2k_78980000gn/T//ccUpRebl.s 			page 37


 2050 0150 19       		.uleb128 0x19
 2051 0151 01       		.uleb128 0x1
 2052 0152 13       		.uleb128 0x13
 2053 0153 00       		.byte	0
 2054 0154 00       		.byte	0
 2055 0155 1D       		.uleb128 0x1d
 2056 0156 05       		.uleb128 0x5
 2057 0157 00       		.byte	0
 2058 0158 03       		.uleb128 0x3
 2059 0159 08       		.uleb128 0x8
 2060 015a 3A       		.uleb128 0x3a
 2061 015b 0B       		.uleb128 0xb
 2062 015c 3B       		.uleb128 0x3b
 2063 015d 0B       		.uleb128 0xb
 2064 015e 49       		.uleb128 0x49
 2065 015f 13       		.uleb128 0x13
 2066 0160 02       		.uleb128 0x2
 2067 0161 17       		.uleb128 0x17
 2068 0162 00       		.byte	0
 2069 0163 00       		.byte	0
 2070 0164 1E       		.uleb128 0x1e
 2071 0165 05       		.uleb128 0x5
 2072 0166 00       		.byte	0
 2073 0167 03       		.uleb128 0x3
 2074 0168 0E       		.uleb128 0xe
 2075 0169 3A       		.uleb128 0x3a
 2076 016a 0B       		.uleb128 0xb
 2077 016b 3B       		.uleb128 0x3b
 2078 016c 0B       		.uleb128 0xb
 2079 016d 49       		.uleb128 0x49
 2080 016e 13       		.uleb128 0x13
 2081 016f 02       		.uleb128 0x2
 2082 0170 17       		.uleb128 0x17
 2083 0171 00       		.byte	0
 2084 0172 00       		.byte	0
 2085 0173 1F       		.uleb128 0x1f
 2086 0174 898201   		.uleb128 0x4109
 2087 0177 00       		.byte	0
 2088 0178 11       		.uleb128 0x11
 2089 0179 01       		.uleb128 0x1
 2090 017a 31       		.uleb128 0x31
 2091 017b 13       		.uleb128 0x13
 2092 017c 00       		.byte	0
 2093 017d 00       		.byte	0
 2094 017e 20       		.uleb128 0x20
 2095 017f 898201   		.uleb128 0x4109
 2096 0182 00       		.byte	0
 2097 0183 11       		.uleb128 0x11
 2098 0184 01       		.uleb128 0x1
 2099 0185 9542     		.uleb128 0x2115
 2100 0187 19       		.uleb128 0x19
 2101 0188 31       		.uleb128 0x31
 2102 0189 13       		.uleb128 0x13
 2103 018a 00       		.byte	0
 2104 018b 00       		.byte	0
 2105 018c 21       		.uleb128 0x21
 2106 018d 2E       		.uleb128 0x2e
ARM GAS  /var/folders/6q/x_mk5n_j3p7_c40r_2k_78980000gn/T//ccUpRebl.s 			page 38


 2107 018e 01       		.byte	0x1
 2108 018f 3F       		.uleb128 0x3f
 2109 0190 19       		.uleb128 0x19
 2110 0191 03       		.uleb128 0x3
 2111 0192 0E       		.uleb128 0xe
 2112 0193 3A       		.uleb128 0x3a
 2113 0194 0B       		.uleb128 0xb
 2114 0195 3B       		.uleb128 0x3b
 2115 0196 0B       		.uleb128 0xb
 2116 0197 27       		.uleb128 0x27
 2117 0198 19       		.uleb128 0x19
 2118 0199 49       		.uleb128 0x49
 2119 019a 13       		.uleb128 0x13
 2120 019b 8701     		.uleb128 0x87
 2121 019d 19       		.uleb128 0x19
 2122 019e 11       		.uleb128 0x11
 2123 019f 01       		.uleb128 0x1
 2124 01a0 12       		.uleb128 0x12
 2125 01a1 06       		.uleb128 0x6
 2126 01a2 40       		.uleb128 0x40
 2127 01a3 18       		.uleb128 0x18
 2128 01a4 9742     		.uleb128 0x2117
 2129 01a6 19       		.uleb128 0x19
 2130 01a7 01       		.uleb128 0x1
 2131 01a8 13       		.uleb128 0x13
 2132 01a9 00       		.byte	0
 2133 01aa 00       		.byte	0
 2134 01ab 22       		.uleb128 0x22
 2135 01ac 34       		.uleb128 0x34
 2136 01ad 00       		.byte	0
 2137 01ae 03       		.uleb128 0x3
 2138 01af 0E       		.uleb128 0xe
 2139 01b0 3A       		.uleb128 0x3a
 2140 01b1 0B       		.uleb128 0xb
 2141 01b2 3B       		.uleb128 0x3b
 2142 01b3 0B       		.uleb128 0xb
 2143 01b4 49       		.uleb128 0x49
 2144 01b5 13       		.uleb128 0x13
 2145 01b6 02       		.uleb128 0x2
 2146 01b7 17       		.uleb128 0x17
 2147 01b8 00       		.byte	0
 2148 01b9 00       		.byte	0
 2149 01ba 23       		.uleb128 0x23
 2150 01bb 898201   		.uleb128 0x4109
 2151 01be 01       		.byte	0x1
 2152 01bf 11       		.uleb128 0x11
 2153 01c0 01       		.uleb128 0x1
 2154 01c1 31       		.uleb128 0x31
 2155 01c2 13       		.uleb128 0x13
 2156 01c3 01       		.uleb128 0x1
 2157 01c4 13       		.uleb128 0x13
 2158 01c5 00       		.byte	0
 2159 01c6 00       		.byte	0
 2160 01c7 24       		.uleb128 0x24
 2161 01c8 8A8201   		.uleb128 0x410a
 2162 01cb 00       		.byte	0
 2163 01cc 02       		.uleb128 0x2
ARM GAS  /var/folders/6q/x_mk5n_j3p7_c40r_2k_78980000gn/T//ccUpRebl.s 			page 39


 2164 01cd 18       		.uleb128 0x18
 2165 01ce 9142     		.uleb128 0x2111
 2166 01d0 18       		.uleb128 0x18
 2167 01d1 00       		.byte	0
 2168 01d2 00       		.byte	0
 2169 01d3 25       		.uleb128 0x25
 2170 01d4 898201   		.uleb128 0x4109
 2171 01d7 01       		.byte	0x1
 2172 01d8 11       		.uleb128 0x11
 2173 01d9 01       		.uleb128 0x1
 2174 01da 31       		.uleb128 0x31
 2175 01db 13       		.uleb128 0x13
 2176 01dc 00       		.byte	0
 2177 01dd 00       		.byte	0
 2178 01de 26       		.uleb128 0x26
 2179 01df 34       		.uleb128 0x34
 2180 01e0 00       		.byte	0
 2181 01e1 03       		.uleb128 0x3
 2182 01e2 0E       		.uleb128 0xe
 2183 01e3 3A       		.uleb128 0x3a
 2184 01e4 0B       		.uleb128 0xb
 2185 01e5 3B       		.uleb128 0x3b
 2186 01e6 0B       		.uleb128 0xb
 2187 01e7 49       		.uleb128 0x49
 2188 01e8 13       		.uleb128 0x13
 2189 01e9 02       		.uleb128 0x2
 2190 01ea 18       		.uleb128 0x18
 2191 01eb 00       		.byte	0
 2192 01ec 00       		.byte	0
 2193 01ed 27       		.uleb128 0x27
 2194 01ee 34       		.uleb128 0x34
 2195 01ef 00       		.byte	0
 2196 01f0 03       		.uleb128 0x3
 2197 01f1 0E       		.uleb128 0xe
 2198 01f2 3A       		.uleb128 0x3a
 2199 01f3 0B       		.uleb128 0xb
 2200 01f4 3B       		.uleb128 0x3b
 2201 01f5 05       		.uleb128 0x5
 2202 01f6 49       		.uleb128 0x49
 2203 01f7 13       		.uleb128 0x13
 2204 01f8 3F       		.uleb128 0x3f
 2205 01f9 19       		.uleb128 0x19
 2206 01fa 3C       		.uleb128 0x3c
 2207 01fb 19       		.uleb128 0x19
 2208 01fc 00       		.byte	0
 2209 01fd 00       		.byte	0
 2210 01fe 28       		.uleb128 0x28
 2211 01ff 34       		.uleb128 0x34
 2212 0200 00       		.byte	0
 2213 0201 03       		.uleb128 0x3
 2214 0202 08       		.uleb128 0x8
 2215 0203 3A       		.uleb128 0x3a
 2216 0204 0B       		.uleb128 0xb
 2217 0205 3B       		.uleb128 0x3b
 2218 0206 05       		.uleb128 0x5
 2219 0207 49       		.uleb128 0x49
 2220 0208 13       		.uleb128 0x13
ARM GAS  /var/folders/6q/x_mk5n_j3p7_c40r_2k_78980000gn/T//ccUpRebl.s 			page 40


 2221 0209 3F       		.uleb128 0x3f
 2222 020a 19       		.uleb128 0x19
 2223 020b 3C       		.uleb128 0x3c
 2224 020c 19       		.uleb128 0x19
 2225 020d 00       		.byte	0
 2226 020e 00       		.byte	0
 2227 020f 29       		.uleb128 0x29
 2228 0210 2E       		.uleb128 0x2e
 2229 0211 00       		.byte	0
 2230 0212 3F       		.uleb128 0x3f
 2231 0213 19       		.uleb128 0x19
 2232 0214 3C       		.uleb128 0x3c
 2233 0215 19       		.uleb128 0x19
 2234 0216 6E       		.uleb128 0x6e
 2235 0217 0E       		.uleb128 0xe
 2236 0218 03       		.uleb128 0x3
 2237 0219 0E       		.uleb128 0xe
 2238 021a 3A       		.uleb128 0x3a
 2239 021b 0B       		.uleb128 0xb
 2240 021c 3B       		.uleb128 0x3b
 2241 021d 0B       		.uleb128 0xb
 2242 021e 00       		.byte	0
 2243 021f 00       		.byte	0
 2244 0220 2A       		.uleb128 0x2a
 2245 0221 2E       		.uleb128 0x2e
 2246 0222 00       		.byte	0
 2247 0223 3F       		.uleb128 0x3f
 2248 0224 19       		.uleb128 0x19
 2249 0225 3C       		.uleb128 0x3c
 2250 0226 19       		.uleb128 0x19
 2251 0227 6E       		.uleb128 0x6e
 2252 0228 0E       		.uleb128 0xe
 2253 0229 03       		.uleb128 0x3
 2254 022a 0E       		.uleb128 0xe
 2255 022b 3A       		.uleb128 0x3a
 2256 022c 0B       		.uleb128 0xb
 2257 022d 3B       		.uleb128 0x3b
 2258 022e 05       		.uleb128 0x5
 2259 022f 00       		.byte	0
 2260 0230 00       		.byte	0
 2261 0231 00       		.byte	0
 2262              		.section	.debug_loc,"",%progbits
 2263              	.Ldebug_loc0:
 2264              	.LLST0:
 2265 0000 00000000 		.4byte	.LVL0
 2266 0004 07000000 		.4byte	.LVL1-1
 2267 0008 0100     		.2byte	0x1
 2268 000a 50       		.byte	0x50
 2269 000b 07000000 		.4byte	.LVL1-1
 2270 000f 1A000000 		.4byte	.LVL3
 2271 0013 0100     		.2byte	0x1
 2272 0015 54       		.byte	0x54
 2273 0016 1A000000 		.4byte	.LVL3
 2274 001a 1E000000 		.4byte	.LFE64
 2275 001e 0400     		.2byte	0x4
 2276 0020 F3       		.byte	0xf3
 2277 0021 01       		.uleb128 0x1
ARM GAS  /var/folders/6q/x_mk5n_j3p7_c40r_2k_78980000gn/T//ccUpRebl.s 			page 41


 2278 0022 50       		.byte	0x50
 2279 0023 9F       		.byte	0x9f
 2280 0024 00000000 		.4byte	0
 2281 0028 00000000 		.4byte	0
 2282              	.LLST1:
 2283 002c 00000000 		.4byte	.LVL0
 2284 0030 07000000 		.4byte	.LVL1-1
 2285 0034 0100     		.2byte	0x1
 2286 0036 51       		.byte	0x51
 2287 0037 07000000 		.4byte	.LVL1-1
 2288 003b 1E000000 		.4byte	.LFE64
 2289 003f 0400     		.2byte	0x4
 2290 0041 F3       		.byte	0xf3
 2291 0042 01       		.uleb128 0x1
 2292 0043 51       		.byte	0x51
 2293 0044 9F       		.byte	0x9f
 2294 0045 00000000 		.4byte	0
 2295 0049 00000000 		.4byte	0
 2296              	.LLST2:
 2297 004d 00000000 		.4byte	.LVL0
 2298 0051 07000000 		.4byte	.LVL1-1
 2299 0055 0100     		.2byte	0x1
 2300 0057 52       		.byte	0x52
 2301 0058 07000000 		.4byte	.LVL1-1
 2302 005c 1E000000 		.4byte	.LFE64
 2303 0060 0400     		.2byte	0x4
 2304 0062 F3       		.byte	0xf3
 2305 0063 01       		.uleb128 0x1
 2306 0064 52       		.byte	0x52
 2307 0065 9F       		.byte	0x9f
 2308 0066 00000000 		.4byte	0
 2309 006a 00000000 		.4byte	0
 2310              	.LLST3:
 2311 006e 00000000 		.4byte	.LVL5
 2312 0072 30000000 		.4byte	.LVL16
 2313 0076 0200     		.2byte	0x2
 2314 0078 30       		.byte	0x30
 2315 0079 9F       		.byte	0x9f
 2316 007a 30000000 		.4byte	.LVL16
 2317 007e 42000000 		.4byte	.LVL19
 2318 0082 0100     		.2byte	0x1
 2319 0084 54       		.byte	0x54
 2320 0085 42000000 		.4byte	.LVL19
 2321 0089 50000000 		.4byte	.LVL21
 2322 008d 0200     		.2byte	0x2
 2323 008f 30       		.byte	0x30
 2324 0090 9F       		.byte	0x9f
 2325 0091 50000000 		.4byte	.LVL21
 2326 0095 52000000 		.4byte	.LVL22
 2327 0099 0100     		.2byte	0x1
 2328 009b 50       		.byte	0x50
 2329 009c 52000000 		.4byte	.LVL22
 2330 00a0 58000000 		.4byte	.LVL23
 2331 00a4 0100     		.2byte	0x1
 2332 00a6 54       		.byte	0x54
 2333 00a7 58000000 		.4byte	.LVL23
 2334 00ab 60000000 		.4byte	.LFE65
ARM GAS  /var/folders/6q/x_mk5n_j3p7_c40r_2k_78980000gn/T//ccUpRebl.s 			page 42


 2335 00af 0200     		.2byte	0x2
 2336 00b1 30       		.byte	0x30
 2337 00b2 9F       		.byte	0x9f
 2338 00b3 00000000 		.4byte	0
 2339 00b7 00000000 		.4byte	0
 2340              	.LLST4:
 2341 00bb 00000000 		.4byte	.LVL5
 2342 00bf 16000000 		.4byte	.LVL10
 2343 00c3 0200     		.2byte	0x2
 2344 00c5 30       		.byte	0x30
 2345 00c6 9F       		.byte	0x9f
 2346 00c7 16000000 		.4byte	.LVL10
 2347 00cb 18000000 		.4byte	.LVL11
 2348 00cf 0600     		.2byte	0x6
 2349 00d1 08       		.byte	0x8
 2350 00d2 33       		.byte	0x33
 2351 00d3 74       		.byte	0x74
 2352 00d4 00       		.sleb128 0
 2353 00d5 1C       		.byte	0x1c
 2354 00d6 9F       		.byte	0x9f
 2355 00d7 22000000 		.4byte	.LVL13
 2356 00db 2A000000 		.4byte	.LVL15
 2357 00df 0600     		.2byte	0x6
 2358 00e1 08       		.byte	0x8
 2359 00e2 33       		.byte	0x33
 2360 00e3 74       		.byte	0x74
 2361 00e4 00       		.sleb128 0
 2362 00e5 1C       		.byte	0x1c
 2363 00e6 9F       		.byte	0x9f
 2364 00e7 00000000 		.4byte	0
 2365 00eb 00000000 		.4byte	0
 2366              		.section	.debug_aranges,"",%progbits
 2367 0000 24000000 		.4byte	0x24
 2368 0004 0200     		.2byte	0x2
 2369 0006 00000000 		.4byte	.Ldebug_info0
 2370 000a 04       		.byte	0x4
 2371 000b 00       		.byte	0
 2372 000c 0000     		.2byte	0
 2373 000e 0000     		.2byte	0
 2374 0010 00000000 		.4byte	.LFB64
 2375 0014 1E000000 		.4byte	.LFE64-.LFB64
 2376 0018 00000000 		.4byte	.LFB65
 2377 001c 60000000 		.4byte	.LFE65-.LFB65
 2378 0020 00000000 		.4byte	0
 2379 0024 00000000 		.4byte	0
 2380              		.section	.debug_ranges,"",%progbits
 2381              	.Ldebug_ranges0:
 2382 0000 00000000 		.4byte	.LFB64
 2383 0004 1E000000 		.4byte	.LFE64
 2384 0008 00000000 		.4byte	.LFB65
 2385 000c 60000000 		.4byte	.LFE65
 2386 0010 00000000 		.4byte	0
 2387 0014 00000000 		.4byte	0
 2388              		.section	.debug_line,"",%progbits
 2389              	.Ldebug_line0:
 2390 0000 CF030000 		.section	.debug_str,"MS",%progbits,1
 2390      02008503 
ARM GAS  /var/folders/6q/x_mk5n_j3p7_c40r_2k_78980000gn/T//ccUpRebl.s 			page 43


 2390      00000201 
 2390      FB0E0D00 
 2390      01010101 
 2391              	.LASF4:
 2392 0000 73697A65 		.ascii	"size_t\000"
 2392      5F7400
 2393              	.LASF68:
 2394 0007 7264796D 		.ascii	"rdymsg\000"
 2394      736700
 2395              	.LASF83:
 2396 000e 4F757470 		.ascii	"OutputQueue\000"
 2396      75745175 
 2396      65756500 
 2397              	.LASF5:
 2398 001a 5F5F7569 		.ascii	"__uint8_t\000"
 2398      6E74385F 
 2398      7400
 2399              	.LASF128:
 2400 0024 6B566578 		.ascii	"kVexDigitalOutput\000"
 2400      44696769 
 2400      74616C4F 
 2400      75747075 
 2400      7400
 2401              	.LASF52:
 2402 0036 54687265 		.ascii	"ThreadsQueue\000"
 2402      61647351 
 2402      75657565 
 2402      00
 2403              	.LASF126:
 2404 0043 6B566578 		.ascii	"kVexDigital_Num\000"
 2404      44696769 
 2404      74616C5F 
 2404      4E756D00 
 2405              	.LASF153:
 2406 0053 49544D5F 		.ascii	"ITM_RxBuffer\000"
 2406      52784275 
 2406      66666572 
 2406      00
 2407              	.LASF35:
 2408 0060 705F7072 		.ascii	"p_prio\000"
 2408      696F00
 2409              	.LASF111:
 2410 0067 72656164 		.ascii	"readt\000"
 2410      7400
 2411              	.LASF73:
 2412 006d 715F7761 		.ascii	"q_waiting\000"
 2412      6974696E 
 2412      6700
 2413              	.LASF1:
 2414 0077 6C6F6E67 		.ascii	"long long int\000"
 2414      206C6F6E 
 2414      6720696E 
 2414      7400
 2415              	.LASF3:
 2416 0085 7369676E 		.ascii	"signed char\000"
 2416      65642063 
 2416      68617200 
ARM GAS  /var/folders/6q/x_mk5n_j3p7_c40r_2k_78980000gn/T//ccUpRebl.s 			page 44


 2417              	.LASF156:
 2418 0091 61706F6C 		.ascii	"apolloDeinit\000"
 2418      6C6F4465 
 2418      696E6974 
 2418      00
 2419              	.LASF94:
 2420 009e 47545052 		.ascii	"GTPR\000"
 2420      00
 2421              	.LASF13:
 2422 00a3 6C6F6E67 		.ascii	"long unsigned int\000"
 2422      20756E73 
 2422      69676E65 
 2422      6420696E 
 2422      7400
 2423              	.LASF51:
 2424 00b5 705F6D70 		.ascii	"p_mpool\000"
 2424      6F6F6C00 
 2425              	.LASF21:
 2426 00bd 626F6F6C 		.ascii	"bool_t\000"
 2426      5F7400
 2427              	.LASF58:
 2428 00c4 6D5F7175 		.ascii	"m_queue\000"
 2428      65756500 
 2429              	.LASF143:
 2430 00cc 73635F63 		.ascii	"sc_channel\000"
 2430      68616E6E 
 2430      656C00
 2431              	.LASF70:
 2432 00d7 77746F62 		.ascii	"wtobjp\000"
 2432      6A7000
 2433              	.LASF26:
 2434 00de 74736C69 		.ascii	"tslices_t\000"
 2434      6365735F 
 2434      7400
 2435              	.LASF103:
 2436 00e8 73746174 		.ascii	"state\000"
 2436      6500
 2437              	.LASF11:
 2438 00ee 6C6F6E67 		.ascii	"long int\000"
 2438      20696E74 
 2438      00
 2439              	.LASF142:
 2440 00f7 5368656C 		.ascii	"ShellCommand\000"
 2440      6C436F6D 
 2440      6D616E64 
 2440      00
 2441              	.LASF24:
 2442 0104 74737461 		.ascii	"tstate_t\000"
 2442      74655F74 
 2442      00
 2443              	.LASF113:
 2444 010d 6B566578 		.ascii	"kVexDigital_None\000"
 2444      44696769 
 2444      74616C5F 
 2444      4E6F6E65 
 2444      00
 2445              	.LASF75:
ARM GAS  /var/folders/6q/x_mk5n_j3p7_c40r_2k_78980000gn/T//ccUpRebl.s 			page 45


 2446 011e 715F6275 		.ascii	"q_buffer\000"
 2446      66666572 
 2446      00
 2447              	.LASF18:
 2448 0127 75696E74 		.ascii	"uint16_t\000"
 2448      31365F74 
 2448      00
 2449              	.LASF80:
 2450 0130 715F6C69 		.ascii	"q_link\000"
 2450      6E6B00
 2451              	.LASF14:
 2452 0137 6C6F6E67 		.ascii	"long long unsigned int\000"
 2452      206C6F6E 
 2452      6720756E 
 2452      7369676E 
 2452      65642069 
 2453              	.LASF37:
 2454 014e 705F6E65 		.ascii	"p_newer\000"
 2454      77657200 
 2455              	.LASF123:
 2456 0156 6B566578 		.ascii	"kVexDigital_10\000"
 2456      44696769 
 2456      74616C5F 
 2456      313000
 2457              	.LASF69:
 2458 0165 65786974 		.ascii	"exitcode\000"
 2458      636F6465 
 2458      00
 2459              	.LASF12:
 2460 016e 5F5F7569 		.ascii	"__uint32_t\000"
 2460      6E743332 
 2460      5F7400
 2461              	.LASF54:
 2462 0179 72656761 		.ascii	"regarm_t\000"
 2462      726D5F74 
 2462      00
 2463              	.LASF158:
 2464 0182 63685379 		.ascii	"chSysInit\000"
 2464      73496E69 
 2464      7400
 2465              	.LASF137:
 2466 018c 6B496D65 		.ascii	"kImeTotal\000"
 2466      546F7461 
 2466      6C00
 2467              	.LASF140:
 2468 0196 73635F6E 		.ascii	"sc_name\000"
 2468      616D6500 
 2469              	.LASF66:
 2470 019e 4576656E 		.ascii	"EventSource\000"
 2470      74536F75 
 2470      72636500 
 2471              	.LASF87:
 2472 01aa 42617365 		.ascii	"BaseSequentialStream\000"
 2472      53657175 
 2472      656E7469 
 2472      616C5374 
 2472      7265616D 
ARM GAS  /var/folders/6q/x_mk5n_j3p7_c40r_2k_78980000gn/T//ccUpRebl.s 			page 46


 2473              	.LASF106:
 2474 01bf 75736172 		.ascii	"usart\000"
 2474      7400
 2475              	.LASF0:
 2476 01c5 756E7369 		.ascii	"unsigned int\000"
 2476      676E6564 
 2476      20696E74 
 2476      00
 2477              	.LASF149:
 2478 01d2 7368656C 		.ascii	"shelltp\000"
 2478      6C747000 
 2479              	.LASF107:
 2480 01da 53657269 		.ascii	"SerialDriverVMT\000"
 2480      616C4472 
 2480      69766572 
 2480      564D5400 
 2481              	.LASF144:
 2482 01ea 73635F63 		.ascii	"sc_commands\000"
 2482      6F6D6D61 
 2482      6E647300 
 2483              	.LASF104:
 2484 01f6 69717565 		.ascii	"iqueue\000"
 2484      756500
 2485              	.LASF46:
 2486 01fd 705F6D73 		.ascii	"p_msgqueue\000"
 2486      67717565 
 2486      756500
 2487              	.LASF157:
 2488 0208 68616C49 		.ascii	"halInit\000"
 2488      6E697400 
 2489              	.LASF150:
 2490 0210 74696D65 		.ascii	"timeout\000"
 2490      6F757400 
 2491              	.LASF109:
 2492 0218 67657474 		.ascii	"gett\000"
 2492      00
 2493              	.LASF166:
 2494 021d 474E5520 		.ascii	"GNU C11 5.4.1 20160919 (release) [ARM/embedded-5-br"
 2494      43313120 
 2494      352E342E 
 2494      31203230 
 2494      31363039 
 2495 0250 616E6368 		.ascii	"anch revision 240496] -mcpu=cortex-m3 -mno-thumb-in"
 2495      20726576 
 2495      6973696F 
 2495      6E203234 
 2495      30343936 
 2496 0283 74657277 		.ascii	"terwork -mthumb -ggdb -O2 -fomit-frame-pointer -fal"
 2496      6F726B20 
 2496      2D6D7468 
 2496      756D6220 
 2496      2D676764 
 2497 02b6 69676E2D 		.ascii	"ign-functions=16 -ffunction-sections -fdata-section"
 2497      66756E63 
 2497      74696F6E 
 2497      733D3136 
 2497      202D6666 
ARM GAS  /var/folders/6q/x_mk5n_j3p7_c40r_2k_78980000gn/T//ccUpRebl.s 			page 47


 2498 02e9 73202D66 		.ascii	"s -fno-common\000"
 2498      6E6F2D63 
 2498      6F6D6D6F 
 2498      6E00
 2499              	.LASF164:
 2500 02f7 7368656C 		.ascii	"shellCreate\000"
 2500      6C437265 
 2500      61746500 
 2501              	.LASF102:
 2502 0303 6576656E 		.ascii	"event\000"
 2502      7400
 2503              	.LASF56:
 2504 0309 636F6E74 		.ascii	"context\000"
 2504      65787400 
 2505              	.LASF9:
 2506 0311 73686F72 		.ascii	"short unsigned int\000"
 2506      7420756E 
 2506      7369676E 
 2506      65642069 
 2506      6E7400
 2507              	.LASF160:
 2508 0324 76657843 		.ascii	"vexCortexInit\000"
 2508      6F727465 
 2508      78496E69 
 2508      7400
 2509              	.LASF28:
 2510 0332 6D73675F 		.ascii	"msg_t\000"
 2510      7400
 2511              	.LASF105:
 2512 0338 6F717565 		.ascii	"oqueue\000"
 2512      756500
 2513              	.LASF62:
 2514 033f 656C5F6E 		.ascii	"el_next\000"
 2514      65787400 
 2515              	.LASF114:
 2516 0347 6B566578 		.ascii	"kVexDigital_1\000"
 2516      44696769 
 2516      74616C5F 
 2516      3100
 2517              	.LASF115:
 2518 0355 6B566578 		.ascii	"kVexDigital_2\000"
 2518      44696769 
 2518      74616C5F 
 2518      3200
 2519              	.LASF116:
 2520 0363 6B566578 		.ascii	"kVexDigital_3\000"
 2520      44696769 
 2520      74616C5F 
 2520      3300
 2521              	.LASF117:
 2522 0371 6B566578 		.ascii	"kVexDigital_4\000"
 2522      44696769 
 2522      74616C5F 
 2522      3400
 2523              	.LASF118:
 2524 037f 6B566578 		.ascii	"kVexDigital_5\000"
 2524      44696769 
ARM GAS  /var/folders/6q/x_mk5n_j3p7_c40r_2k_78980000gn/T//ccUpRebl.s 			page 48


 2524      74616C5F 
 2524      3500
 2525              	.LASF119:
 2526 038d 6B566578 		.ascii	"kVexDigital_6\000"
 2526      44696769 
 2526      74616C5F 
 2526      3600
 2527              	.LASF120:
 2528 039b 6B566578 		.ascii	"kVexDigital_7\000"
 2528      44696769 
 2528      74616C5F 
 2528      3700
 2529              	.LASF121:
 2530 03a9 6B566578 		.ascii	"kVexDigital_8\000"
 2530      44696769 
 2530      74616C5F 
 2530      3800
 2531              	.LASF122:
 2532 03b7 6B566578 		.ascii	"kVexDigital_9\000"
 2532      44696769 
 2532      74616C5F 
 2532      3900
 2533              	.LASF53:
 2534 03c5 54687265 		.ascii	"ThreadsList\000"
 2534      6164734C 
 2534      69737400 
 2535              	.LASF49:
 2536 03d1 705F6D74 		.ascii	"p_mtxlist\000"
 2536      786C6973 
 2536      7400
 2537              	.LASF29:
 2538 03db 6576656E 		.ascii	"eventmask_t\000"
 2538      746D6173 
 2538      6B5F7400 
 2539              	.LASF82:
 2540 03e7 496E7075 		.ascii	"InputQueue\000"
 2540      74517565 
 2540      756500
 2541              	.LASF57:
 2542 03f2 4D757465 		.ascii	"Mutex\000"
 2542      7800
 2543              	.LASF72:
 2544 03f8 47656E65 		.ascii	"GenericQueue\000"
 2544      72696351 
 2544      75657565 
 2544      00
 2545              	.LASF110:
 2546 0405 77726974 		.ascii	"writet\000"
 2546      657400
 2547              	.LASF85:
 2548 040c 77726974 		.ascii	"write\000"
 2548      6500
 2549              	.LASF108:
 2550 0412 70757474 		.ascii	"putt\000"
 2550      00
 2551              	.LASF34:
 2552 0417 705F7072 		.ascii	"p_prev\000"
ARM GAS  /var/folders/6q/x_mk5n_j3p7_c40r_2k_78980000gn/T//ccUpRebl.s 			page 49


 2552      657600
 2553              	.LASF15:
 2554 041e 73697A65 		.ascii	"sizetype\000"
 2554      74797065 
 2554      00
 2555              	.LASF74:
 2556 0427 715F636F 		.ascii	"q_counter\000"
 2556      756E7465 
 2556      7200
 2557              	.LASF139:
 2558 0431 7368656C 		.ascii	"shellcmd_t\000"
 2558      6C636D64 
 2558      5F7400
 2559              	.LASF170:
 2560 043c 6D61696E 		.ascii	"main\000"
 2560      00
 2561              	.LASF38:
 2562 0441 705F6F6C 		.ascii	"p_older\000"
 2562      64657200 
 2563              	.LASF154:
 2564 0449 61706F6C 		.ascii	"apolloInit\000"
 2564      6C6F496E 
 2564      697400
 2565              	.LASF167:
 2566 0454 6D61696E 		.ascii	"main.c\000"
 2566      2E6300
 2567              	.LASF64:
 2568 045b 656C5F6D 		.ascii	"el_mask\000"
 2568      61736B00 
 2569              	.LASF161:
 2570 0463 63685468 		.ascii	"chThdSleep\000"
 2570      64536C65 
 2570      657000
 2571              	.LASF151:
 2572 046e 636F6D6D 		.ascii	"commands\000"
 2572      616E6473 
 2572      00
 2573              	.LASF146:
 2574 0477 666C6F61 		.ascii	"float\000"
 2574      7400
 2575              	.LASF25:
 2576 047d 74726566 		.ascii	"trefs_t\000"
 2576      735F7400 
 2577              	.LASF88:
 2578 0485 52455345 		.ascii	"RESERVED0\000"
 2578      52564544 
 2578      3000
 2579              	.LASF89:
 2580 048f 52455345 		.ascii	"RESERVED1\000"
 2580      52564544 
 2580      3100
 2581              	.LASF90:
 2582 0499 52455345 		.ascii	"RESERVED2\000"
 2582      52564544 
 2582      3200
 2583              	.LASF81:
 2584 04a3 716E6F74 		.ascii	"qnotify_t\000"
ARM GAS  /var/folders/6q/x_mk5n_j3p7_c40r_2k_78980000gn/T//ccUpRebl.s 			page 50


 2584      6966795F 
 2584      7400
 2585              	.LASF92:
 2586 04ad 52455345 		.ascii	"RESERVED4\000"
 2586      52564544 
 2586      3400
 2587              	.LASF98:
 2588 04b7 53445F53 		.ascii	"SD_STOP\000"
 2588      544F5000 
 2589              	.LASF95:
 2590 04bf 52455345 		.ascii	"RESERVED6\000"
 2590      52564544 
 2590      3600
 2591              	.LASF27:
 2592 04c9 74707269 		.ascii	"tprio_t\000"
 2592      6F5F7400 
 2593              	.LASF78:
 2594 04d1 715F7264 		.ascii	"q_rdptr\000"
 2594      70747200 
 2595              	.LASF22:
 2596 04d9 5F426F6F 		.ascii	"_Bool\000"
 2596      6C00
 2597              	.LASF19:
 2598 04df 696E7433 		.ascii	"int32_t\000"
 2598      325F7400 
 2599              	.LASF6:
 2600 04e7 756E7369 		.ascii	"unsigned char\000"
 2600      676E6564 
 2600      20636861 
 2600      7200
 2601              	.LASF96:
 2602 04f5 55534152 		.ascii	"USART_TypeDef\000"
 2602      545F5479 
 2602      70654465 
 2602      6600
 2603              	.LASF63:
 2604 0503 656C5F6C 		.ascii	"el_listener\000"
 2604      69737465 
 2604      6E657200 
 2605              	.LASF65:
 2606 050f 656C5F66 		.ascii	"el_flags\000"
 2606      6C616773 
 2606      00
 2607              	.LASF138:
 2608 0518 6B496D65 		.ascii	"kImeChannelNone\000"
 2608      4368616E 
 2608      6E656C4E 
 2608      6F6E6500 
 2609              	.LASF7:
 2610 0528 73686F72 		.ascii	"short int\000"
 2610      7420696E 
 2610      7400
 2611              	.LASF40:
 2612 0532 705F7374 		.ascii	"p_state\000"
 2612      61746500 
 2613              	.LASF43:
 2614 053a 705F7072 		.ascii	"p_preempt\000"
ARM GAS  /var/folders/6q/x_mk5n_j3p7_c40r_2k_78980000gn/T//ccUpRebl.s 			page 51


 2614      65656D70 
 2614      7400
 2615              	.LASF71:
 2616 0544 65776D61 		.ascii	"ewmask\000"
 2616      736B00
 2617              	.LASF33:
 2618 054b 705F6E65 		.ascii	"p_next\000"
 2618      787400
 2619              	.LASF84:
 2620 0552 42617365 		.ascii	"BaseSequentialStreamVMT\000"
 2620      53657175 
 2620      656E7469 
 2620      616C5374 
 2620      7265616D 
 2621              	.LASF41:
 2622 056a 705F666C 		.ascii	"p_flags\000"
 2622      61677300 
 2623              	.LASF77:
 2624 0572 715F7772 		.ascii	"q_wrptr\000"
 2624      70747200 
 2625              	.LASF165:
 2626 057a 63685468 		.ascii	"chThdRelease\000"
 2626      6452656C 
 2626      65617365 
 2626      00
 2627              	.LASF32:
 2628 0587 54687265 		.ascii	"Thread\000"
 2628      616400
 2629              	.LASF91:
 2630 058e 52455345 		.ascii	"RESERVED3\000"
 2630      52564544 
 2630      3300
 2631              	.LASF48:
 2632 0598 705F6570 		.ascii	"p_epending\000"
 2632      656E6469 
 2632      6E6700
 2633              	.LASF97:
 2634 05a3 53445F55 		.ascii	"SD_UNINIT\000"
 2634      4E494E49 
 2634      5400
 2635              	.LASF93:
 2636 05ad 52455345 		.ascii	"RESERVED5\000"
 2636      52564544 
 2636      3500
 2637              	.LASF20:
 2638 05b7 75696E74 		.ascii	"uint32_t\000"
 2638      33325F74 
 2638      00
 2639              	.LASF100:
 2640 05c0 73647374 		.ascii	"sdstate_t\000"
 2640      6174655F 
 2640      7400
 2641              	.LASF101:
 2642 05ca 53657269 		.ascii	"SerialDriver\000"
 2642      616C4472 
 2642      69766572 
 2642      00
ARM GAS  /var/folders/6q/x_mk5n_j3p7_c40r_2k_78980000gn/T//ccUpRebl.s 			page 52


 2643              	.LASF125:
 2644 05d7 6B566578 		.ascii	"kVexDigital_12\000"
 2644      44696769 
 2644      74616C5F 
 2644      313200
 2645              	.LASF2:
 2646 05e6 6C6F6E67 		.ascii	"long double\000"
 2646      20646F75 
 2646      626C6500 
 2647              	.LASF16:
 2648 05f2 63686172 		.ascii	"char\000"
 2648      00
 2649              	.LASF129:
 2650 05f7 6B496D65 		.ascii	"kImeChannel_1\000"
 2650      4368616E 
 2650      6E656C5F 
 2650      3100
 2651              	.LASF130:
 2652 0605 6B496D65 		.ascii	"kImeChannel_2\000"
 2652      4368616E 
 2652      6E656C5F 
 2652      3200
 2653              	.LASF131:
 2654 0613 6B496D65 		.ascii	"kImeChannel_3\000"
 2654      4368616E 
 2654      6E656C5F 
 2654      3300
 2655              	.LASF132:
 2656 0621 6B496D65 		.ascii	"kImeChannel_4\000"
 2656      4368616E 
 2656      6E656C5F 
 2656      3400
 2657              	.LASF133:
 2658 062f 6B496D65 		.ascii	"kImeChannel_5\000"
 2658      4368616E 
 2658      6E656C5F 
 2658      3500
 2659              	.LASF134:
 2660 063d 6B496D65 		.ascii	"kImeChannel_6\000"
 2660      4368616E 
 2660      6E656C5F 
 2660      3600
 2661              	.LASF135:
 2662 064b 6B496D65 		.ascii	"kImeChannel_7\000"
 2662      4368616E 
 2662      6E656C5F 
 2662      3700
 2663              	.LASF136:
 2664 0659 6B496D65 		.ascii	"kImeChannel_8\000"
 2664      4368616E 
 2664      6E656C5F 
 2664      3800
 2665              	.LASF8:
 2666 0667 5F5F7569 		.ascii	"__uint16_t\000"
 2666      6E743136 
 2666      5F7400
 2667              	.LASF163:
ARM GAS  /var/folders/6q/x_mk5n_j3p7_c40r_2k_78980000gn/T//ccUpRebl.s 			page 53


 2668 0672 7368656C 		.ascii	"shellInit\000"
 2668      6C496E69 
 2668      7400
 2669              	.LASF124:
 2670 067c 6B566578 		.ascii	"kVexDigital_11\000"
 2670      44696769 
 2670      74616C5F 
 2670      313100
 2671              	.LASF169:
 2672 068b 636D645F 		.ascii	"cmd_apollo\000"
 2672      61706F6C 
 2672      6C6F00
 2673              	.LASF60:
 2674 0696 6D5F6E65 		.ascii	"m_next\000"
 2674      787400
 2675              	.LASF31:
 2676 069d 73797374 		.ascii	"systime_t\000"
 2676      696D655F 
 2676      7400
 2677              	.LASF50:
 2678 06a7 705F7265 		.ascii	"p_realprio\000"
 2678      616C7072 
 2678      696F00
 2679              	.LASF10:
 2680 06b2 5F5F696E 		.ascii	"__int32_t\000"
 2680      7433325F 
 2680      7400
 2681              	.LASF145:
 2682 06bc 5368656C 		.ascii	"ShellConfig\000"
 2682      6C436F6E 
 2682      66696700 
 2683              	.LASF44:
 2684 06c8 705F7469 		.ascii	"p_time\000"
 2684      6D6500
 2685              	.LASF112:
 2686 06cf 76657853 		.ascii	"vexStream\000"
 2686      74726561 
 2686      6D00
 2687              	.LASF55:
 2688 06d9 696E7463 		.ascii	"intctx\000"
 2688      747800
 2689              	.LASF99:
 2690 06e0 53445F52 		.ascii	"SD_READY\000"
 2690      45414459 
 2690      00
 2691              	.LASF30:
 2692 06e9 666C6167 		.ascii	"flagsmask_t\000"
 2692      736D6173 
 2692      6B5F7400 
 2693              	.LASF148:
 2694 06f5 61726776 		.ascii	"argv\000"
 2694      00
 2695              	.LASF76:
 2696 06fa 715F746F 		.ascii	"q_top\000"
 2696      7000
 2697              	.LASF39:
 2698 0700 705F6E61 		.ascii	"p_name\000"
ARM GAS  /var/folders/6q/x_mk5n_j3p7_c40r_2k_78980000gn/T//ccUpRebl.s 			page 54


 2698      6D6500
 2699              	.LASF42:
 2700 0707 705F7265 		.ascii	"p_refs\000"
 2700      667300
 2701              	.LASF79:
 2702 070e 715F6E6F 		.ascii	"q_notify\000"
 2702      74696679 
 2702      00
 2703              	.LASF17:
 2704 0717 75696E74 		.ascii	"uint8_t\000"
 2704      385F7400 
 2705              	.LASF159:
 2706 071f 76657843 		.ascii	"vexConsoleInit\000"
 2706      6F6E736F 
 2706      6C65496E 
 2706      697400
 2707              	.LASF141:
 2708 072e 73635F66 		.ascii	"sc_function\000"
 2708      756E6374 
 2708      696F6E00 
 2709              	.LASF152:
 2710 073a 7368656C 		.ascii	"shell_cfg1\000"
 2710      6C5F6366 
 2710      673100
 2711              	.LASF61:
 2712 0745 4576656E 		.ascii	"EventListener\000"
 2712      744C6973 
 2712      74656E65 
 2712      7200
 2713              	.LASF86:
 2714 0753 72656164 		.ascii	"read\000"
 2714      00
 2715              	.LASF162:
 2716 0758 76657853 		.ascii	"vexSpiGetOnlineStatus\000"
 2716      70694765 
 2716      744F6E6C 
 2716      696E6553 
 2716      74617475 
 2717              	.LASF147:
 2718 076e 61726763 		.ascii	"argc\000"
 2718      00
 2719              	.LASF67:
 2720 0773 65735F6E 		.ascii	"es_next\000"
 2720      65787400 
 2721              	.LASF23:
 2722 077b 746D6F64 		.ascii	"tmode_t\000"
 2722      655F7400 
 2723              	.LASF47:
 2724 0783 705F6D73 		.ascii	"p_msg\000"
 2724      6700
 2725              	.LASF155:
 2726 0789 61706F6C 		.ascii	"apolloUpdate\000"
 2726      6C6F5570 
 2726      64617465 
 2726      00
 2727              	.LASF168:
 2728 0796 2F557365 		.ascii	"/Users/Luca/src/vexilla/src/teamA\000"
ARM GAS  /var/folders/6q/x_mk5n_j3p7_c40r_2k_78980000gn/T//ccUpRebl.s 			page 55


 2728      72732F4C 
 2728      7563612F 
 2728      7372632F 
 2728      76657869 
 2729              	.LASF59:
 2730 07b8 6D5F6F77 		.ascii	"m_owner\000"
 2730      6E657200 
 2731              	.LASF36:
 2732 07c0 705F6374 		.ascii	"p_ctx\000"
 2732      7800
 2733              	.LASF45:
 2734 07c6 705F7761 		.ascii	"p_waiting\000"
 2734      6974696E 
 2734      6700
 2735              	.LASF127:
 2736 07d0 6B566578 		.ascii	"kVexDigitalInput\000"
 2736      44696769 
 2736      74616C49 
 2736      6E707574 
 2736      00
 2737              		.ident	"GCC: (GNU Tools for ARM Embedded Processors) 5.4.1 20160919 (release) [ARM/embedded-5-bran
ARM GAS  /var/folders/6q/x_mk5n_j3p7_c40r_2k_78980000gn/T//ccUpRebl.s 			page 56


DEFINED SYMBOLS
                            *ABS*:0000000000000000 main.c
/var/folders/6q/x_mk5n_j3p7_c40r_2k_78980000gn/T//ccUpRebl.s:20     .text.cmd_apollo:0000000000000000 $t
/var/folders/6q/x_mk5n_j3p7_c40r_2k_78980000gn/T//ccUpRebl.s:25     .text.cmd_apollo:0000000000000000 cmd_apollo
/var/folders/6q/x_mk5n_j3p7_c40r_2k_78980000gn/T//ccUpRebl.s:67     .text.startup.main:0000000000000000 $t
/var/folders/6q/x_mk5n_j3p7_c40r_2k_78980000gn/T//ccUpRebl.s:73     .text.startup.main:0000000000000000 main
/var/folders/6q/x_mk5n_j3p7_c40r_2k_78980000gn/T//ccUpRebl.s:164    .text.startup.main:000000000000005c $d
/var/folders/6q/x_mk5n_j3p7_c40r_2k_78980000gn/T//ccUpRebl.s:169    .rodata.commands:0000000000000000 $d
/var/folders/6q/x_mk5n_j3p7_c40r_2k_78980000gn/T//ccUpRebl.s:172    .rodata.commands:0000000000000000 commands
/var/folders/6q/x_mk5n_j3p7_c40r_2k_78980000gn/T//ccUpRebl.s:194    .rodata.shell_cfg1:0000000000000000 $d
/var/folders/6q/x_mk5n_j3p7_c40r_2k_78980000gn/T//ccUpRebl.s:198    .rodata.shell_cfg1:0000000000000000 shell_cfg1
/var/folders/6q/x_mk5n_j3p7_c40r_2k_78980000gn/T//ccUpRebl.s:202    .rodata.str1.4:0000000000000000 $d
                     .debug_frame:0000000000000010 $d

UNDEFINED SYMBOLS
apolloInit
apolloUpdate
apolloDeinit
halInit
chSysInit
vexConsoleInit
vexCortexInit
chThdSleep
vexSpiGetOnlineStatus
shellInit
shellCreate
chThdRelease
vexAdcDebug
vexSpiDebug
vexMotorDebug
vexLcdDebug
vexEncoderDebug
vexSonarDebug
vexIMEDebug
vexTestDebug
SD1
