ARM GAS  /var/folders/6q/x_mk5n_j3p7_c40r_2k_78980000gn/T//ccVu1Yrv.s 			page 1


   1              		.syntax unified
   2              		.cpu cortex-m3
   3              		.fpu softvfp
   4              		.eabi_attribute 20, 1
   5              		.eabi_attribute 21, 1
   6              		.eabi_attribute 23, 3
   7              		.eabi_attribute 24, 1
   8              		.eabi_attribute 25, 1
   9              		.eabi_attribute 26, 1
  10              		.eabi_attribute 30, 2
  11              		.eabi_attribute 34, 1
  12              		.eabi_attribute 18, 4
  13              		.thumb
  14              		.syntax unified
  15              		.file	"pal.c"
  16              		.text
  17              	.Ltext0:
  18              		.cfi_sections	.debug_frame
  19              		.section	.text.palReadBus,"ax",%progbits
  20              		.align	2
  21              		.p2align 4,,15
  22              		.global	palReadBus
  23              		.thumb
  24              		.thumb_func
  25              		.type	palReadBus, %function
  26              	palReadBus:
  27              	.LFB63:
  28              		.file 1 "../ChibiOS/os/hal/src/pal.c"
  29              		.loc 1 77 0
  30              		.cfi_startproc
  31              		@ args = 0, pretend = 0, frame = 0
  32              		@ frame_needed = 0, uses_anonymous_args = 0
  33              		@ link register save eliminated.
  34              	.LVL0:
  35              		.loc 1 82 0
  36 0000 0368     		ldr	r3, [r0]
  37 0002 8268     		ldr	r2, [r0, #8]
  38 0004 9B68     		ldr	r3, [r3, #8]
  39 0006 4068     		ldr	r0, [r0, #4]
  40              	.LVL1:
  41 0008 D340     		lsrs	r3, r3, r2
  42              		.loc 1 83 0
  43 000a 1840     		ands	r0, r0, r3
  44 000c 7047     		bx	lr
  45              		.cfi_endproc
  46              	.LFE63:
  47              		.size	palReadBus, .-palReadBus
  48 000e 00BF     		.section	.text.palWriteBus,"ax",%progbits
  49              		.align	2
  50              		.p2align 4,,15
  51              		.global	palWriteBus
  52              		.thumb
  53              		.thumb_func
  54              		.type	palWriteBus, %function
  55              	palWriteBus:
  56              	.LFB64:
  57              		.loc 1 103 0
ARM GAS  /var/folders/6q/x_mk5n_j3p7_c40r_2k_78980000gn/T//ccVu1Yrv.s 			page 2


  58              		.cfi_startproc
  59              		@ args = 0, pretend = 0, frame = 0
  60              		@ frame_needed = 0, uses_anonymous_args = 0
  61              		@ link register save eliminated.
  62              	.LVL2:
  63              		.loc 1 108 0
  64 0000 4368     		ldr	r3, [r0, #4]
  65              		.loc 1 103 0
  66 0002 10B4     		push	{r4}
  67              		.cfi_def_cfa_offset 4
  68              		.cfi_offset 4, -4
  69              		.loc 1 108 0
  70 0004 8468     		ldr	r4, [r0, #8]
  71 0006 23EA0102 		bic	r2, r3, r1
  72 000a 1940     		ands	r1, r1, r3
  73              	.LVL3:
  74 000c 04F11003 		add	r3, r4, #16
  75 0010 A140     		lsls	r1, r1, r4
  76 0012 02FA03F3 		lsl	r3, r2, r3
  77 0016 0268     		ldr	r2, [r0]
  78 0018 0B43     		orrs	r3, r3, r1
  79 001a 1361     		str	r3, [r2, #16]
  80              		.loc 1 109 0
  81 001c 10BC     		pop	{r4}
  82              		.cfi_restore 4
  83              		.cfi_def_cfa_offset 0
  84 001e 7047     		bx	lr
  85              		.cfi_endproc
  86              	.LFE64:
  87              		.size	palWriteBus, .-palWriteBus
  88              		.section	.text.palSetBusMode,"ax",%progbits
  89              		.align	2
  90              		.p2align 4,,15
  91              		.global	palSetBusMode
  92              		.thumb
  93              		.thumb_func
  94              		.type	palSetBusMode, %function
  95              	palSetBusMode:
  96              	.LFB65:
  97              		.loc 1 127 0
  98              		.cfi_startproc
  99              		@ args = 0, pretend = 0, frame = 0
 100              		@ frame_needed = 0, uses_anonymous_args = 0
 101              		@ link register save eliminated.
 102              	.LVL4:
 103 0000 10B4     		push	{r4}
 104              		.cfi_def_cfa_offset 4
 105              		.cfi_offset 4, -4
 106              		.loc 1 132 0
 107 0002 8368     		ldr	r3, [r0, #8]
 108 0004 4468     		ldr	r4, [r0, #4]
 109 0006 0A46     		mov	r2, r1
 110 0008 0068     		ldr	r0, [r0]
 111              	.LVL5:
 112 000a 04FA03F1 		lsl	r1, r4, r3
 113              	.LVL6:
 114              		.loc 1 133 0
ARM GAS  /var/folders/6q/x_mk5n_j3p7_c40r_2k_78980000gn/T//ccVu1Yrv.s 			page 3


 115 000e 10BC     		pop	{r4}
 116              		.cfi_restore 4
 117              		.cfi_def_cfa_offset 0
 118              		.loc 1 132 0
 119 0010 FFF7FEBF 		b	_pal_lld_setgroupmode
 120              	.LVL7:
 121              		.cfi_endproc
 122              	.LFE65:
 123              		.size	palSetBusMode, .-palSetBusMode
 124              		.text
 125              	.Letext0:
 126              		.file 2 "/Users/Luca/src/vexilla/src/gcc-arm-none-eabi-5_4-2016q3/arm-none-eabi/include/machine/_d
 127              		.file 3 "/Users/Luca/src/vexilla/src/gcc-arm-none-eabi-5_4-2016q3/arm-none-eabi/include/sys/_stdin
 128              		.file 4 "/Users/Luca/src/vexilla/src/gcc-arm-none-eabi-5_4-2016q3/arm-none-eabi/include/stdint.h"
 129              		.file 5 "../ChibiOS/os/hal/platforms/STM32F1xx/stm32f10x.h"
 130              		.file 6 "../ChibiOS/os/hal/platforms/STM32/GPIOv1/pal_lld.h"
 131              		.file 7 "../ChibiOS/os/hal/include/pal.h"
 132              		.file 8 "../ChibiOS/os/ports/common/ARMCMx/CMSIS/include/core_cm3.h"