ARM GAS  /var/folders/6q/x_mk5n_j3p7_c40r_2k_78980000gn/T//ccJlml7g.s 			page 1


   1              		.syntax unified
   2              		.cpu cortex-m3
   3              		.fpu softvfp
   4              		.eabi_attribute 20, 1
   5              		.eabi_attribute 21, 1
   6              		.eabi_attribute 23, 3
   7              		.eabi_attribute 24, 1
   8              		.eabi_attribute 25, 1
   9              		.eabi_attribute 26, 1
  10              		.eabi_attribute 30, 2
  11              		.eabi_attribute 34, 1
  12              		.eabi_attribute 18, 4
  13              		.thumb
  14              		.syntax unified
  15              		.file	"pal_lld.c"
  16              		.text
  17              	.Ltext0:
  18              		.cfi_sections	.debug_frame
  19              		.section	.text._pal_lld_init,"ax",%progbits
  20              		.align	2
  21              		.p2align 4,,15
  22              		.global	_pal_lld_init
  23              		.thumb
  24              		.thumb_func
  25              		.type	_pal_lld_init, %function
  26              	_pal_lld_init:
  27              	.LFB63:
  28              		.file 1 "../ChibiOS/os/hal/platforms/STM32/GPIOv1/pal_lld.c"
  29              		.loc 1 77 0
  30              		.cfi_startproc
  31              		@ args = 0, pretend = 0, frame = 0
  32              		@ frame_needed = 0, uses_anonymous_args = 0
  33              		@ link register save eliminated.
  34              	.LVL0:
  35              		.loc 1 82 0
  36 0000 1E49     		ldr	r1, .L3
  37              		.loc 1 77 0
  38 0002 F0B4     		push	{r4, r5, r6, r7}
  39              		.cfi_def_cfa_offset 16
  40              		.cfi_offset 4, -16
  41              		.cfi_offset 5, -12
  42              		.cfi_offset 6, -8
  43              		.cfi_offset 7, -4
  44              		.loc 1 82 0
  45 0004 8B69     		ldr	r3, [r1, #24]
  46              		.loc 1 87 0
  47 0006 1E4A     		ldr	r2, .L3+4
  48              		.loc 1 82 0
  49 0008 43F4FE73 		orr	r3, r3, #508
  50 000c 43F00103 		orr	r3, r3, #1
  51 0010 8B61     		str	r3, [r1, #24]
  52              		.loc 1 87 0
  53 0012 0368     		ldr	r3, [r0]
  54              		.loc 1 90 0
  55 0014 1B4E     		ldr	r6, .L3+8
  56              		.loc 1 87 0
  57 0016 D360     		str	r3, [r2, #12]
ARM GAS  /var/folders/6q/x_mk5n_j3p7_c40r_2k_78980000gn/T//ccJlml7g.s 			page 2


  58              		.loc 1 88 0
  59 0018 8368     		ldr	r3, [r0, #8]
  60              		.loc 1 93 0
  61 001a 1B4D     		ldr	r5, .L3+12
  62              		.loc 1 88 0
  63 001c 5360     		str	r3, [r2, #4]
  64              		.loc 1 89 0
  65 001e 4368     		ldr	r3, [r0, #4]
  66              		.loc 1 96 0
  67 0020 1A4C     		ldr	r4, .L3+16
  68              		.loc 1 89 0
  69 0022 1360     		str	r3, [r2]
  70              		.loc 1 90 0
  71 0024 C368     		ldr	r3, [r0, #12]
  72              		.loc 1 100 0
  73 0026 A1F57841 		sub	r1, r1, #63488
  74              		.loc 1 90 0
  75 002a F360     		str	r3, [r6, #12]
  76              		.loc 1 91 0
  77 002c 4769     		ldr	r7, [r0, #20]
  78              		.loc 1 104 0
  79 002e 02F5A052 		add	r2, r2, #5120
  80              		.loc 1 91 0
  81 0032 7760     		str	r7, [r6, #4]
  82              		.loc 1 92 0
  83 0034 0769     		ldr	r7, [r0, #16]
  84              		.loc 1 108 0
  85 0036 164B     		ldr	r3, .L3+20
  86              		.loc 1 92 0
  87 0038 3760     		str	r7, [r6]
  88              		.loc 1 93 0
  89 003a 8669     		ldr	r6, [r0, #24]
  90 003c EE60     		str	r6, [r5, #12]
  91              		.loc 1 94 0
  92 003e 066A     		ldr	r6, [r0, #32]
  93 0040 6E60     		str	r6, [r5, #4]
  94              		.loc 1 95 0
  95 0042 C669     		ldr	r6, [r0, #28]
  96 0044 2E60     		str	r6, [r5]
  97              		.loc 1 96 0
  98 0046 456A     		ldr	r5, [r0, #36]
  99 0048 E560     		str	r5, [r4, #12]
 100              		.loc 1 97 0
 101 004a C56A     		ldr	r5, [r0, #44]
 102 004c 6560     		str	r5, [r4, #4]
 103              		.loc 1 98 0
 104 004e 856A     		ldr	r5, [r0, #40]
 105 0050 2560     		str	r5, [r4]
 106              		.loc 1 100 0
 107 0052 046B     		ldr	r4, [r0, #48]
 108 0054 CC60     		str	r4, [r1, #12]
 109              		.loc 1 101 0
 110 0056 846B     		ldr	r4, [r0, #56]
 111 0058 4C60     		str	r4, [r1, #4]
 112              		.loc 1 102 0
 113 005a 446B     		ldr	r4, [r0, #52]
 114 005c 0C60     		str	r4, [r1]
ARM GAS  /var/folders/6q/x_mk5n_j3p7_c40r_2k_78980000gn/T//ccJlml7g.s 			page 3


 115              		.loc 1 104 0
 116 005e C16B     		ldr	r1, [r0, #60]
 117              		.loc 1 114 0
 118 0060 F0BC     		pop	{r4, r5, r6, r7}
 119              		.cfi_restore 7
 120              		.cfi_restore 6
 121              		.cfi_restore 5
 122              		.cfi_restore 4
 123              		.cfi_def_cfa_offset 0
 124              		.loc 1 104 0
 125 0062 D160     		str	r1, [r2, #12]
 126              		.loc 1 105 0
 127 0064 416C     		ldr	r1, [r0, #68]
 128 0066 5160     		str	r1, [r2, #4]
 129              		.loc 1 106 0
 130 0068 016C     		ldr	r1, [r0, #64]
 131 006a 1160     		str	r1, [r2]
 132              		.loc 1 108 0
 133 006c 826C     		ldr	r2, [r0, #72]
 134 006e DA60     		str	r2, [r3, #12]
 135              		.loc 1 109 0
 136 0070 026D     		ldr	r2, [r0, #80]
 137 0072 5A60     		str	r2, [r3, #4]
 138              		.loc 1 110 0
 139 0074 C26C     		ldr	r2, [r0, #76]
 140 0076 1A60     		str	r2, [r3]
 141              		.loc 1 114 0
 142 0078 7047     		bx	lr
 143              	.L4:
 144 007a 00BF     		.align	2
 145              	.L3:
 146 007c 00100240 		.word	1073876992
 147 0080 00080140 		.word	1073809408
 148 0084 000C0140 		.word	1073810432
 149 0088 00100140 		.word	1073811456
 150 008c 00140140 		.word	1073812480
 151 0090 00200140 		.word	1073815552
 152              		.cfi_endproc
 153              	.LFE63:
 154              		.size	_pal_lld_init, .-_pal_lld_init
 155              		.section	.text._pal_lld_setgroupmode,"ax",%progbits
 156              		.align	2
 157              		.p2align 4,,15
 158              		.global	_pal_lld_setgroupmode
 159              		.thumb
 160              		.thumb_func
 161              		.type	_pal_lld_setgroupmode, %function
 162              	_pal_lld_setgroupmode:
 163              	.LFB64:
 164              		.loc 1 133 0
 165              		.cfi_startproc
 166              		@ args = 0, pretend = 0, frame = 0
 167              		@ frame_needed = 0, uses_anonymous_args = 0
 168              	.LVL1:
 169              		.loc 1 157 0
 170 0000 032A     		cmp	r2, #3
 171              		.loc 1 133 0
ARM GAS  /var/folders/6q/x_mk5n_j3p7_c40r_2k_78980000gn/T//ccJlml7g.s 			page 4


 172 0002 F0B5     		push	{r4, r5, r6, r7, lr}
 173              		.cfi_def_cfa_offset 20
 174              		.cfi_offset 4, -20
 175              		.cfi_offset 5, -16
 176              		.cfi_offset 6, -12
 177              		.cfi_offset 7, -8
 178              		.cfi_offset 14, -4
 179              		.loc 1 157 0
 180 0004 2CD0     		beq	.L16
 181              		.loc 1 159 0
 182 0006 042A     		cmp	r2, #4
 183              		.loc 1 160 0
 184 0008 08BF     		it	eq
 185 000a 4161     		streq	r1, [r0, #20]
 186              	.L7:
 187              		.loc 1 162 0
 188 000c 0023     		movs	r3, #0
 189 000e 1C46     		mov	r4, r3
 190 0010 1D46     		mov	r5, r3
 191 0012 1E46     		mov	r6, r3
 192              		.loc 1 161 0
 193 0014 DFF84CE0 		ldr	lr, .L17
 194 0018 0827     		movs	r7, #8
 195 001a 1EF80220 		ldrb	r2, [lr, r2]	@ zero_extendqisi2
 196              	.LVL2:
 197              	.L12:
 198              		.loc 1 168 0
 199 001e 11F0800F 		tst	r1, #128
 200              		.loc 1 164 0
 201 0022 4FEA0515 		lsl	r5, r5, #4
 202              	.LVL3:
 203              		.loc 1 166 0
 204 0026 4FEA0313 		lsl	r3, r3, #4
 205              	.LVL4:
 206              		.loc 1 165 0
 207 002a 4FEA0616 		lsl	r6, r6, #4
 208              	.LVL5:
 209              		.loc 1 167 0
 210 002e 4FEA0414 		lsl	r4, r4, #4
 211              	.LVL6:
 212              		.loc 1 169 0
 213 0032 0CBF     		ite	eq
 214 0034 45F00F05 		orreq	r5, r5, #15
 215              	.LVL7:
 216              		.loc 1 171 0
 217 0038 1343     		orrne	r3, r3, r2
 218              	.LVL8:
 219              		.loc 1 172 0
 220 003a 11F4004F 		tst	r1, #32768
 221              		.loc 1 173 0
 222 003e 0CBF     		ite	eq
 223 0040 46F00F06 		orreq	r6, r6, #15
 224              	.LVL9:
 225              		.loc 1 175 0
 226 0044 1443     		orrne	r4, r4, r2
 227              	.LVL10:
 228              		.loc 1 163 0
ARM GAS  /var/folders/6q/x_mk5n_j3p7_c40r_2k_78980000gn/T//ccJlml7g.s 			page 5


 229 0046 013F     		subs	r7, r7, #1
 230              	.LVL11:
 231              		.loc 1 176 0
 232 0048 4FEA4101 		lsl	r1, r1, #1
 233              	.LVL12:
 234              		.loc 1 163 0
 235 004c E7D1     		bne	.L12
 236              		.loc 1 178 0
 237 004e 4268     		ldr	r2, [r0, #4]
 238              	.LVL13:
 239 0050 1640     		ands	r6, r6, r2
 240              	.LVL14:
 241 0052 3443     		orrs	r4, r4, r6
 242              	.LVL15:
 243 0054 4460     		str	r4, [r0, #4]
 244              		.loc 1 179 0
 245 0056 0268     		ldr	r2, [r0]
 246 0058 1540     		ands	r5, r5, r2
 247              	.LVL16:
 248 005a 2B43     		orrs	r3, r3, r5
 249              	.LVL17:
 250 005c 0360     		str	r3, [r0]
 251 005e F0BD     		pop	{r4, r5, r6, r7, pc}
 252              	.LVL18:
 253              	.L16:
 254              		.loc 1 158 0
 255 0060 0161     		str	r1, [r0, #16]
 256 0062 D3E7     		b	.L7
 257              	.L18:
 258              		.align	2
 259              	.L17:
 260 0064 00000000 		.word	.LANCHOR0
 261              		.cfi_endproc
 262              	.LFE64:
 263              		.size	_pal_lld_setgroupmode, .-_pal_lld_setgroupmode
 264              		.section	.rodata.cfgtab.6619,"a",%progbits
 265              		.align	2
 266              		.set	.LANCHOR0,. + 0
 267              		.type	cfgtab.6619, %object
 268              		.size	cfgtab.6619, 18
 269              	cfgtab.6619:
 270 0000 04       		.byte	4
 271 0001 02       		.byte	2
 272 0002 04       		.byte	4
 273 0003 08       		.byte	8
 274 0004 08       		.byte	8
 275 0005 00       		.byte	0
 276 0006 03       		.byte	3
 277 0007 07       		.byte	7
 278 0008 08       		.byte	8
 279 0009 08       		.byte	8
 280 000a 08       		.byte	8
 281 000b 08       		.byte	8
 282 000c 08       		.byte	8
 283 000d 08       		.byte	8
 284 000e 08       		.byte	8
 285 000f 08       		.byte	8
ARM GAS  /var/folders/6q/x_mk5n_j3p7_c40r_2k_78980000gn/T//ccJlml7g.s 			page 6


 286 0010 0B       		.byte	11
 287 0011 0F       		.byte	15
 288              		.text
 289              	.Letext0:
 290              		.file 2 "/Users/Luca/src/vexilla/src/gcc-arm-none-eabi-5_4-2016q3/arm-none-eabi/include/machine/_d
 291              		.file 3 "/Users/Luca/src/vexilla/src/gcc-arm-none-eabi-5_4-2016q3/arm-none-eabi/include/sys/_stdin
 292              		.file 4 "../ChibiOS/os/hal/platforms/STM32F1xx/stm32f10x.h"
 293              		.file 5 "../ChibiOS/os/hal/platforms/STM32/GPIOv1/pal_lld.h"
 294              		.file 6 "../ChibiOS/os/ports/common/ARMCMx/CMSIS/include/core_cm3.h"
 295              		.section	.debug_info,"",%progbits
 296              	.Ldebug_info0:
 297 0000 9B030000 		.4byte	0x39b
 298 0004 0400     		.2byte	0x4
 299 0006 00000000 		.4byte	.Ldebug_abbrev0
 300 000a 04       		.byte	0x4
 301 000b 01       		.uleb128 0x1
 302 000c 91000000 		.4byte	.LASF49
 303 0010 0C       		.byte	0xc
 304 0011 A0020000 		.4byte	.LASF50
 305 0015 88010000 		.4byte	.LASF51
 306 0019 00000000 		.4byte	.Ldebug_ranges0+0
 307 001d 00000000 		.4byte	0
 308 0021 00000000 		.4byte	.Ldebug_line0
 309 0025 02       		.uleb128 0x2
 310 0026 04       		.byte	0x4
 311 0027 05       		.byte	0x5
 312 0028 696E7400 		.ascii	"int\000"
 313 002c 03       		.uleb128 0x3
 314 002d 04       		.byte	0x4
 315 002e 07       		.byte	0x7
 316 002f 50020000 		.4byte	.LASF0
 317 0033 03       		.uleb128 0x3
 318 0034 08       		.byte	0x8
 319 0035 05       		.byte	0x5
 320 0036 C9010000 		.4byte	.LASF1
 321 003a 03       		.uleb128 0x3
 322 003b 08       		.byte	0x8
 323 003c 04       		.byte	0x4
 324 003d B6010000 		.4byte	.LASF2
 325 0041 03       		.uleb128 0x3
 326 0042 01       		.byte	0x1
 327 0043 06       		.byte	0x6
 328 0044 AA010000 		.4byte	.LASF3
 329 0048 04       		.uleb128 0x4
 330 0049 F7010000 		.4byte	.LASF7
 331 004d 02       		.byte	0x2
 332 004e 1D       		.byte	0x1d
 333 004f 53000000 		.4byte	0x53
 334 0053 03       		.uleb128 0x3
 335 0054 01       		.byte	0x1
 336 0055 08       		.byte	0x8
 337 0056 1A020000 		.4byte	.LASF4
 338 005a 03       		.uleb128 0x3
 339 005b 02       		.byte	0x2
 340 005c 05       		.byte	0x5
 341 005d 4B000000 		.4byte	.LASF5
 342 0061 03       		.uleb128 0x3
ARM GAS  /var/folders/6q/x_mk5n_j3p7_c40r_2k_78980000gn/T//ccJlml7g.s 			page 7


 343 0062 02       		.byte	0x2
 344 0063 07       		.byte	0x7
 345 0064 70020000 		.4byte	.LASF6
 346 0068 04       		.uleb128 0x4
 347 0069 F6020000 		.4byte	.LASF8
 348 006d 02       		.byte	0x2
 349 006e 3F       		.byte	0x3f
 350 006f 73000000 		.4byte	0x73
 351 0073 03       		.uleb128 0x3
 352 0074 04       		.byte	0x4
 353 0075 05       		.byte	0x5
 354 0076 D7010000 		.4byte	.LASF9
 355 007a 04       		.uleb128 0x4
 356 007b 63000000 		.4byte	.LASF10
 357 007f 02       		.byte	0x2
 358 0080 41       		.byte	0x41
 359 0081 85000000 		.4byte	0x85
 360 0085 03       		.uleb128 0x3
 361 0086 04       		.byte	0x4
 362 0087 07       		.byte	0x7
 363 0088 DF020000 		.4byte	.LASF11
 364 008c 03       		.uleb128 0x3
 365 008d 08       		.byte	0x8
 366 008e 07       		.byte	0x7
 367 008f 30020000 		.4byte	.LASF12
 368 0093 04       		.uleb128 0x4
 369 0094 6B010000 		.4byte	.LASF13
 370 0098 03       		.byte	0x3
 371 0099 18       		.byte	0x18
 372 009a 48000000 		.4byte	0x48
 373 009e 04       		.uleb128 0x4
 374 009f 88020000 		.4byte	.LASF14
 375 00a3 03       		.byte	0x3
 376 00a4 2C       		.byte	0x2c
 377 00a5 68000000 		.4byte	0x68
 378 00a9 04       		.uleb128 0x4
 379 00aa 47020000 		.4byte	.LASF15
 380 00ae 03       		.byte	0x3
 381 00af 30       		.byte	0x30
 382 00b0 7A000000 		.4byte	0x7a
 383 00b4 03       		.uleb128 0x3
 384 00b5 01       		.byte	0x1
 385 00b6 02       		.byte	0x2
 386 00b7 9A020000 		.4byte	.LASF16
 387 00bb 05       		.uleb128 0x5
 388 00bc A9000000 		.4byte	0xa9
 389 00c0 03       		.uleb128 0x3
 390 00c1 04       		.byte	0x4
 391 00c2 07       		.byte	0x7
 392 00c3 55000000 		.4byte	.LASF17
 393 00c7 03       		.uleb128 0x3
 394 00c8 01       		.byte	0x1
 395 00c9 08       		.byte	0x8
 396 00ca 83020000 		.4byte	.LASF18
 397 00ce 06       		.uleb128 0x6
 398 00cf 93000000 		.4byte	0x93
 399 00d3 05       		.uleb128 0x5
ARM GAS  /var/folders/6q/x_mk5n_j3p7_c40r_2k_78980000gn/T//ccJlml7g.s 			page 8


 400 00d4 9E000000 		.4byte	0x9e
 401 00d8 07       		.uleb128 0x7
 402 00d9 1C       		.byte	0x1c
 403 00da 04       		.byte	0x4
 404 00db F803     		.2byte	0x3f8
 405 00dd 3D010000 		.4byte	0x13d
 406 00e1 08       		.uleb128 0x8
 407 00e2 43524C00 		.ascii	"CRL\000"
 408 00e6 04       		.byte	0x4
 409 00e7 FA03     		.2byte	0x3fa
 410 00e9 BB000000 		.4byte	0xbb
 411 00ed 00       		.byte	0
 412 00ee 08       		.uleb128 0x8
 413 00ef 43524800 		.ascii	"CRH\000"
 414 00f3 04       		.byte	0x4
 415 00f4 FB03     		.2byte	0x3fb
 416 00f6 BB000000 		.4byte	0xbb
 417 00fa 04       		.byte	0x4
 418 00fb 08       		.uleb128 0x8
 419 00fc 49445200 		.ascii	"IDR\000"
 420 0100 04       		.byte	0x4
 421 0101 FC03     		.2byte	0x3fc
 422 0103 BB000000 		.4byte	0xbb
 423 0107 08       		.byte	0x8
 424 0108 08       		.uleb128 0x8
 425 0109 4F445200 		.ascii	"ODR\000"
 426 010d 04       		.byte	0x4
 427 010e FD03     		.2byte	0x3fd
 428 0110 BB000000 		.4byte	0xbb
 429 0114 0C       		.byte	0xc
 430 0115 09       		.uleb128 0x9
 431 0116 7C000000 		.4byte	.LASF19
 432 011a 04       		.byte	0x4
 433 011b FE03     		.2byte	0x3fe
 434 011d BB000000 		.4byte	0xbb
 435 0121 10       		.byte	0x10
 436 0122 08       		.uleb128 0x8
 437 0123 42525200 		.ascii	"BRR\000"
 438 0127 04       		.byte	0x4
 439 0128 FF03     		.2byte	0x3ff
 440 012a BB000000 		.4byte	0xbb
 441 012e 14       		.byte	0x14
 442 012f 09       		.uleb128 0x9
 443 0130 19030000 		.4byte	.LASF20
 444 0134 04       		.byte	0x4
 445 0135 0004     		.2byte	0x400
 446 0137 BB000000 		.4byte	0xbb
 447 013b 18       		.byte	0x18
 448 013c 00       		.byte	0
 449 013d 0A       		.uleb128 0xa
 450 013e 00000000 		.4byte	.LASF21
 451 0142 04       		.byte	0x4
 452 0143 0104     		.2byte	0x401
 453 0145 D8000000 		.4byte	0xd8
 454 0149 07       		.uleb128 0x7
 455 014a 28       		.byte	0x28
 456 014b 04       		.byte	0x4
ARM GAS  /var/folders/6q/x_mk5n_j3p7_c40r_2k_78980000gn/T//ccJlml7g.s 			page 9


 457 014c 4304     		.2byte	0x443
 458 014e D4010000 		.4byte	0x1d4
 459 0152 08       		.uleb128 0x8
 460 0153 435200   		.ascii	"CR\000"
 461 0156 04       		.byte	0x4
 462 0157 4504     		.2byte	0x445
 463 0159 BB000000 		.4byte	0xbb
 464 015d 00       		.byte	0
 465 015e 09       		.uleb128 0x9
 466 015f 14030000 		.4byte	.LASF22
 467 0163 04       		.byte	0x4
 468 0164 4604     		.2byte	0x446
 469 0166 BB000000 		.4byte	0xbb
 470 016a 04       		.byte	0x4
 471 016b 08       		.uleb128 0x8
 472 016c 43495200 		.ascii	"CIR\000"
 473 0170 04       		.byte	0x4
 474 0171 4704     		.2byte	0x447
 475 0173 BB000000 		.4byte	0xbb
 476 0177 08       		.byte	0x8
 477 0178 09       		.uleb128 0x9
 478 0179 EE010000 		.4byte	.LASF23
 479 017d 04       		.byte	0x4
 480 017e 4804     		.2byte	0x448
 481 0180 BB000000 		.4byte	0xbb
 482 0184 0C       		.byte	0xc
 483 0185 09       		.uleb128 0x9
 484 0186 6E000000 		.4byte	.LASF24
 485 018a 04       		.byte	0x4
 486 018b 4904     		.2byte	0x449
 487 018d BB000000 		.4byte	0xbb
 488 0191 10       		.byte	0x10
 489 0192 09       		.uleb128 0x9
 490 0193 E7010000 		.4byte	.LASF25
 491 0197 04       		.byte	0x4
 492 0198 4A04     		.2byte	0x44a
 493 019a BB000000 		.4byte	0xbb
 494 019e 14       		.byte	0x14
 495 019f 09       		.uleb128 0x9
 496 01a0 28020000 		.4byte	.LASF26
 497 01a4 04       		.byte	0x4
 498 01a5 4B04     		.2byte	0x44b
 499 01a7 BB000000 		.4byte	0xbb
 500 01ab 18       		.byte	0x18
 501 01ac 09       		.uleb128 0x9
 502 01ad 73010000 		.4byte	.LASF27
 503 01b1 04       		.byte	0x4
 504 01b2 4C04     		.2byte	0x44c
 505 01b4 BB000000 		.4byte	0xbb
 506 01b8 1C       		.byte	0x1c
 507 01b9 09       		.uleb128 0x9
 508 01ba 5E000000 		.4byte	.LASF28
 509 01be 04       		.byte	0x4
 510 01bf 4D04     		.2byte	0x44d
 511 01c1 BB000000 		.4byte	0xbb
 512 01c5 20       		.byte	0x20
 513 01c6 08       		.uleb128 0x8
ARM GAS  /var/folders/6q/x_mk5n_j3p7_c40r_2k_78980000gn/T//ccJlml7g.s 			page 10


 514 01c7 43535200 		.ascii	"CSR\000"
 515 01cb 04       		.byte	0x4
 516 01cc 4E04     		.2byte	0x44e
 517 01ce BB000000 		.4byte	0xbb
 518 01d2 24       		.byte	0x24
 519 01d3 00       		.byte	0
 520 01d4 0A       		.uleb128 0xa
 521 01d5 14000000 		.4byte	.LASF29
 522 01d9 04       		.byte	0x4
 523 01da 5904     		.2byte	0x459
 524 01dc 49010000 		.4byte	0x149
 525 01e0 0B       		.uleb128 0xb
 526 01e1 0C       		.byte	0xc
 527 01e2 05       		.byte	0x5
 528 01e3 38       		.byte	0x38
 529 01e4 0D020000 		.4byte	0x20d
 530 01e8 0C       		.uleb128 0xc
 531 01e9 6F647200 		.ascii	"odr\000"
 532 01ed 05       		.byte	0x5
 533 01ee 3A       		.byte	0x3a
 534 01ef A9000000 		.4byte	0xa9
 535 01f3 00       		.byte	0
 536 01f4 0C       		.uleb128 0xc
 537 01f5 63726C00 		.ascii	"crl\000"
 538 01f9 05       		.byte	0x5
 539 01fa 3C       		.byte	0x3c
 540 01fb A9000000 		.4byte	0xa9
 541 01ff 04       		.byte	0x4
 542 0200 0C       		.uleb128 0xc
 543 0201 63726800 		.ascii	"crh\000"
 544 0205 05       		.byte	0x5
 545 0206 3E       		.byte	0x3e
 546 0207 A9000000 		.4byte	0xa9
 547 020b 08       		.byte	0x8
 548 020c 00       		.byte	0
 549 020d 04       		.uleb128 0x4
 550 020e 5D020000 		.4byte	.LASF30
 551 0212 05       		.byte	0x5
 552 0213 3F       		.byte	0x3f
 553 0214 E0010000 		.4byte	0x1e0
 554 0218 0B       		.uleb128 0xb
 555 0219 54       		.byte	0x54
 556 021a 05       		.byte	0x5
 557 021b 48       		.byte	0x48
 558 021c 75020000 		.4byte	0x275
 559 0220 0D       		.uleb128 0xd
 560 0221 C2010000 		.4byte	.LASF31
 561 0225 05       		.byte	0x5
 562 0226 4A       		.byte	0x4a
 563 0227 0D020000 		.4byte	0x20d
 564 022b 00       		.byte	0
 565 022c 0D       		.uleb128 0xd
 566 022d 0D030000 		.4byte	.LASF32
 567 0231 05       		.byte	0x5
 568 0232 4C       		.byte	0x4c
 569 0233 0D020000 		.4byte	0x20d
 570 0237 0C       		.byte	0xc
ARM GAS  /var/folders/6q/x_mk5n_j3p7_c40r_2k_78980000gn/T//ccJlml7g.s 			page 11


 571 0238 0D       		.uleb128 0xd
 572 0239 0D000000 		.4byte	.LASF33
 573 023d 05       		.byte	0x5
 574 023e 4E       		.byte	0x4e
 575 023f 0D020000 		.4byte	0x20d
 576 0243 18       		.byte	0x18
 577 0244 0D       		.uleb128 0xd
 578 0245 E0010000 		.4byte	.LASF34
 579 0249 05       		.byte	0x5
 580 024a 50       		.byte	0x50
 581 024b 0D020000 		.4byte	0x20d
 582 024f 24       		.byte	0x24
 583 0250 0D       		.uleb128 0xd
 584 0251 D3020000 		.4byte	.LASF35
 585 0255 05       		.byte	0x5
 586 0256 53       		.byte	0x53
 587 0257 0D020000 		.4byte	0x20d
 588 025b 30       		.byte	0x30
 589 025c 0D       		.uleb128 0xd
 590 025d 44000000 		.4byte	.LASF36
 591 0261 05       		.byte	0x5
 592 0262 56       		.byte	0x56
 593 0263 0D020000 		.4byte	0x20d
 594 0267 3C       		.byte	0x3c
 595 0268 0D       		.uleb128 0xd
 596 0269 01020000 		.4byte	.LASF37
 597 026d 05       		.byte	0x5
 598 026e 59       		.byte	0x59
 599 026f 0D020000 		.4byte	0x20d
 600 0273 48       		.byte	0x48
 601 0274 00       		.byte	0
 602 0275 04       		.uleb128 0x4
 603 0276 90020000 		.4byte	.LASF38
 604 027a 05       		.byte	0x5
 605 027b 5D       		.byte	0x5d
 606 027c 18020000 		.4byte	0x218
 607 0280 04       		.uleb128 0x4
 608 0281 7B010000 		.4byte	.LASF39
 609 0285 05       		.byte	0x5
 610 0286 6D       		.byte	0x6d
 611 0287 A9000000 		.4byte	0xa9
 612 028b 04       		.uleb128 0x4
 613 028c 88000000 		.4byte	.LASF40
 614 0290 05       		.byte	0x5
 615 0291 72       		.byte	0x72
 616 0292 A9000000 		.4byte	0xa9
 617 0296 04       		.uleb128 0x4
 618 0297 08020000 		.4byte	.LASF41
 619 029b 05       		.byte	0x5
 620 029c 7A       		.byte	0x7a
 621 029d A1020000 		.4byte	0x2a1
 622 02a1 0E       		.uleb128 0xe
 623 02a2 04       		.byte	0x4
 624 02a3 3D010000 		.4byte	0x13d
 625 02a7 0F       		.uleb128 0xf
 626 02a8 36000000 		.4byte	.LASF42
 627 02ac 01       		.byte	0x1
ARM GAS  /var/folders/6q/x_mk5n_j3p7_c40r_2k_78980000gn/T//ccJlml7g.s 			page 12


 628 02ad 4D       		.byte	0x4d
 629 02ae 00000000 		.4byte	.LFB63
 630 02b2 94000000 		.4byte	.LFE63-.LFB63
 631 02b6 01       		.uleb128 0x1
 632 02b7 9C       		.byte	0x9c
 633 02b8 CA020000 		.4byte	0x2ca
 634 02bc 10       		.uleb128 0x10
 635 02bd 81000000 		.4byte	.LASF44
 636 02c1 01       		.byte	0x1
 637 02c2 4D       		.byte	0x4d
 638 02c3 CA020000 		.4byte	0x2ca
 639 02c7 01       		.uleb128 0x1
 640 02c8 50       		.byte	0x50
 641 02c9 00       		.byte	0
 642 02ca 0E       		.uleb128 0xe
 643 02cb 04       		.byte	0x4
 644 02cc D0020000 		.4byte	0x2d0
 645 02d0 06       		.uleb128 0x6
 646 02d1 75020000 		.4byte	0x275
 647 02d5 0F       		.uleb128 0xf
 648 02d6 20000000 		.4byte	.LASF43
 649 02da 01       		.byte	0x1
 650 02db 83       		.byte	0x83
 651 02dc 00000000 		.4byte	.LFB64
 652 02e0 68000000 		.4byte	.LFE64-.LFB64
 653 02e4 01       		.uleb128 0x1
 654 02e5 9C       		.byte	0x9c
 655 02e6 7D030000 		.4byte	0x37d
 656 02ea 10       		.uleb128 0x10
 657 02eb DA020000 		.4byte	.LASF45
 658 02ef 01       		.byte	0x1
 659 02f0 83       		.byte	0x83
 660 02f1 96020000 		.4byte	0x296
 661 02f5 01       		.uleb128 0x1
 662 02f6 50       		.byte	0x50
 663 02f7 11       		.uleb128 0x11
 664 02f8 F1020000 		.4byte	.LASF46
 665 02fc 01       		.byte	0x1
 666 02fd 84       		.byte	0x84
 667 02fe 80020000 		.4byte	0x280
 668 0302 00000000 		.4byte	.LLST0
 669 0306 11       		.uleb128 0x11
 670 0307 77000000 		.4byte	.LASF47
 671 030b 01       		.byte	0x1
 672 030c 85       		.byte	0x85
 673 030d 8B020000 		.4byte	0x28b
 674 0311 1E000000 		.4byte	.LLST1
 675 0315 12       		.uleb128 0x12
 676 0316 13020000 		.4byte	.LASF48
 677 031a 01       		.byte	0x1
 678 031b 86       		.byte	0x86
 679 031c 8D030000 		.4byte	0x38d
 680 0320 05       		.uleb128 0x5
 681 0321 03       		.byte	0x3
 682 0322 00000000 		.4byte	cfgtab.6619
 683 0326 13       		.uleb128 0x13
 684 0327 6D6800   		.ascii	"mh\000"
ARM GAS  /var/folders/6q/x_mk5n_j3p7_c40r_2k_78980000gn/T//ccJlml7g.s 			page 13


 685 032a 01       		.byte	0x1
 686 032b 9A       		.byte	0x9a
 687 032c A9000000 		.4byte	0xa9
 688 0330 4A000000 		.4byte	.LLST2
 689 0334 13       		.uleb128 0x13
 690 0335 6D6C00   		.ascii	"ml\000"
 691 0338 01       		.byte	0x1
 692 0339 9A       		.byte	0x9a
 693 033a A9000000 		.4byte	0xa9
 694 033e 5D000000 		.4byte	.LLST3
 695 0342 13       		.uleb128 0x13
 696 0343 63726800 		.ascii	"crh\000"
 697 0347 01       		.byte	0x1
 698 0348 9A       		.byte	0x9a
 699 0349 A9000000 		.4byte	0xa9
 700 034d 70000000 		.4byte	.LLST4
 701 0351 13       		.uleb128 0x13
 702 0352 63726C00 		.ascii	"crl\000"
 703 0356 01       		.byte	0x1
 704 0357 9A       		.byte	0x9a
 705 0358 A9000000 		.4byte	0xa9
 706 035c 83000000 		.4byte	.LLST5
 707 0360 13       		.uleb128 0x13
 708 0361 63666700 		.ascii	"cfg\000"
 709 0365 01       		.byte	0x1
 710 0366 9A       		.byte	0x9a
 711 0367 A9000000 		.4byte	0xa9
 712 036b A1000000 		.4byte	.LLST6
 713 036f 13       		.uleb128 0x13
 714 0370 6900     		.ascii	"i\000"
 715 0372 01       		.byte	0x1
 716 0373 9B       		.byte	0x9b
 717 0374 2C000000 		.4byte	0x2c
 718 0378 CA000000 		.4byte	.LLST7
 719 037c 00       		.byte	0
 720 037d 14       		.uleb128 0x14
 721 037e CE000000 		.4byte	0xce
 722 0382 8D030000 		.4byte	0x38d
 723 0386 15       		.uleb128 0x15
 724 0387 C0000000 		.4byte	0xc0
 725 038b 11       		.byte	0x11
 726 038c 00       		.byte	0
 727 038d 06       		.uleb128 0x6
 728 038e 7D030000 		.4byte	0x37d
 729 0392 16       		.uleb128 0x16
 730 0393 00030000 		.4byte	.LASF52
 731 0397 06       		.byte	0x6
 732 0398 0706     		.2byte	0x607
 733 039a D3000000 		.4byte	0xd3
 734 039e 00       		.byte	0
 735              		.section	.debug_abbrev,"",%progbits
 736              	.Ldebug_abbrev0:
 737 0000 01       		.uleb128 0x1
 738 0001 11       		.uleb128 0x11
 739 0002 01       		.byte	0x1
 740 0003 25       		.uleb128 0x25
 741 0004 0E       		.uleb128 0xe
ARM GAS  /var/folders/6q/x_mk5n_j3p7_c40r_2k_78980000gn/T//ccJlml7g.s 			page 14


 742 0005 13       		.uleb128 0x13
 743 0006 0B       		.uleb128 0xb
 744 0007 03       		.uleb128 0x3
 745 0008 0E       		.uleb128 0xe
 746 0009 1B       		.uleb128 0x1b
 747 000a 0E       		.uleb128 0xe
 748 000b 55       		.uleb128 0x55
 749 000c 17       		.uleb128 0x17
 750 000d 11       		.uleb128 0x11
 751 000e 01       		.uleb128 0x1
 752 000f 10       		.uleb128 0x10
 753 0010 17       		.uleb128 0x17
 754 0011 00       		.byte	0
 755 0012 00       		.byte	0
 756 0013 02       		.uleb128 0x2
 757 0014 24       		.uleb128 0x24
 758 0015 00       		.byte	0
 759 0016 0B       		.uleb128 0xb
 760 0017 0B       		.uleb128 0xb
 761 0018 3E       		.uleb128 0x3e
 762 0019 0B       		.uleb128 0xb
 763 001a 03       		.uleb128 0x3
 764 001b 08       		.uleb128 0x8
 765 001c 00       		.byte	0
 766 001d 00       		.byte	0
 767 001e 03       		.uleb128 0x3
 768 001f 24       		.uleb128 0x24
 769 0020 00       		.byte	0
 770 0021 0B       		.uleb128 0xb
 771 0022 0B       		.uleb128 0xb
 772 0023 3E       		.uleb128 0x3e
 773 0024 0B       		.uleb128 0xb
 774 0025 03       		.uleb128 0x3
 775 0026 0E       		.uleb128 0xe
 776 0027 00       		.byte	0
 777 0028 00       		.byte	0
 778 0029 04       		.uleb128 0x4
 779 002a 16       		.uleb128 0x16
 780 002b 00       		.byte	0
 781 002c 03       		.uleb128 0x3
 782 002d 0E       		.uleb128 0xe
 783 002e 3A       		.uleb128 0x3a
 784 002f 0B       		.uleb128 0xb
 785 0030 3B       		.uleb128 0x3b
 786 0031 0B       		.uleb128 0xb
 787 0032 49       		.uleb128 0x49
 788 0033 13       		.uleb128 0x13
 789 0034 00       		.byte	0
 790 0035 00       		.byte	0
 791 0036 05       		.uleb128 0x5
 792 0037 35       		.uleb128 0x35
 793 0038 00       		.byte	0
 794 0039 49       		.uleb128 0x49
 795 003a 13       		.uleb128 0x13
 796 003b 00       		.byte	0
 797 003c 00       		.byte	0
 798 003d 06       		.uleb128 0x6
ARM GAS  /var/folders/6q/x_mk5n_j3p7_c40r_2k_78980000gn/T//ccJlml7g.s 			page 15


 799 003e 26       		.uleb128 0x26
 800 003f 00       		.byte	0
 801 0040 49       		.uleb128 0x49
 802 0041 13       		.uleb128 0x13
 803 0042 00       		.byte	0
 804 0043 00       		.byte	0
 805 0044 07       		.uleb128 0x7
 806 0045 13       		.uleb128 0x13
 807 0046 01       		.byte	0x1
 808 0047 0B       		.uleb128 0xb
 809 0048 0B       		.uleb128 0xb
 810 0049 3A       		.uleb128 0x3a
 811 004a 0B       		.uleb128 0xb
 812 004b 3B       		.uleb128 0x3b
 813 004c 05       		.uleb128 0x5
 814 004d 01       		.uleb128 0x1
 815 004e 13       		.uleb128 0x13
 816 004f 00       		.byte	0
 817 0050 00       		.byte	0
 818 0051 08       		.uleb128 0x8
 819 0052 0D       		.uleb128 0xd
 820 0053 00       		.byte	0
 821 0054 03       		.uleb128 0x3
 822 0055 08       		.uleb128 0x8
 823 0056 3A       		.uleb128 0x3a
 824 0057 0B       		.uleb128 0xb
 825 0058 3B       		.uleb128 0x3b
 826 0059 05       		.uleb128 0x5
 827 005a 49       		.uleb128 0x49
 828 005b 13       		.uleb128 0x13
 829 005c 38       		.uleb128 0x38
 830 005d 0B       		.uleb128 0xb
 831 005e 00       		.byte	0
 832 005f 00       		.byte	0
 833 0060 09       		.uleb128 0x9
 834 0061 0D       		.uleb128 0xd
 835 0062 00       		.byte	0
 836 0063 03       		.uleb128 0x3
 837 0064 0E       		.uleb128 0xe
 838 0065 3A       		.uleb128 0x3a
 839 0066 0B       		.uleb128 0xb
 840 0067 3B       		.uleb128 0x3b
 841 0068 05       		.uleb128 0x5
 842 0069 49       		.uleb128 0x49
 843 006a 13       		.uleb128 0x13
 844 006b 38       		.uleb128 0x38
 845 006c 0B       		.uleb128 0xb
 846 006d 00       		.byte	0
 847 006e 00       		.byte	0
 848 006f 0A       		.uleb128 0xa
 849 0070 16       		.uleb128 0x16
 850 0071 00       		.byte	0
 851 0072 03       		.uleb128 0x3
 852 0073 0E       		.uleb128 0xe
 853 0074 3A       		.uleb128 0x3a
 854 0075 0B       		.uleb128 0xb
 855 0076 3B       		.uleb128 0x3b
ARM GAS  /var/folders/6q/x_mk5n_j3p7_c40r_2k_78980000gn/T//ccJlml7g.s 			page 16


 856 0077 05       		.uleb128 0x5
 857 0078 49       		.uleb128 0x49
 858 0079 13       		.uleb128 0x13
 859 007a 00       		.byte	0
 860 007b 00       		.byte	0
 861 007c 0B       		.uleb128 0xb
 862 007d 13       		.uleb128 0x13
 863 007e 01       		.byte	0x1
 864 007f 0B       		.uleb128 0xb
 865 0080 0B       		.uleb128 0xb
 866 0081 3A       		.uleb128 0x3a
 867 0082 0B       		.uleb128 0xb
 868 0083 3B       		.uleb128 0x3b
 869 0084 0B       		.uleb128 0xb
 870 0085 01       		.uleb128 0x1
 871 0086 13       		.uleb128 0x13
 872 0087 00       		.byte	0
 873 0088 00       		.byte	0
 874 0089 0C       		.uleb128 0xc
 875 008a 0D       		.uleb128 0xd
 876 008b 00       		.byte	0
 877 008c 03       		.uleb128 0x3
 878 008d 08       		.uleb128 0x8
 879 008e 3A       		.uleb128 0x3a
 880 008f 0B       		.uleb128 0xb
 881 0090 3B       		.uleb128 0x3b
 882 0091 0B       		.uleb128 0xb
 883 0092 49       		.uleb128 0x49
 884 0093 13       		.uleb128 0x13
 885 0094 38       		.uleb128 0x38
 886 0095 0B       		.uleb128 0xb
 887 0096 00       		.byte	0
 888 0097 00       		.byte	0
 889 0098 0D       		.uleb128 0xd
 890 0099 0D       		.uleb128 0xd
 891 009a 00       		.byte	0
 892 009b 03       		.uleb128 0x3
 893 009c 0E       		.uleb128 0xe
 894 009d 3A       		.uleb128 0x3a
 895 009e 0B       		.uleb128 0xb
 896 009f 3B       		.uleb128 0x3b
 897 00a0 0B       		.uleb128 0xb
 898 00a1 49       		.uleb128 0x49
 899 00a2 13       		.uleb128 0x13
 900 00a3 38       		.uleb128 0x38
 901 00a4 0B       		.uleb128 0xb
 902 00a5 00       		.byte	0
 903 00a6 00       		.byte	0
 904 00a7 0E       		.uleb128 0xe
 905 00a8 0F       		.uleb128 0xf
 906 00a9 00       		.byte	0
 907 00aa 0B       		.uleb128 0xb
 908 00ab 0B       		.uleb128 0xb
 909 00ac 49       		.uleb128 0x49
 910 00ad 13       		.uleb128 0x13
 911 00ae 00       		.byte	0
 912 00af 00       		.byte	0
ARM GAS  /var/folders/6q/x_mk5n_j3p7_c40r_2k_78980000gn/T//ccJlml7g.s 			page 17


 913 00b0 0F       		.uleb128 0xf
 914 00b1 2E       		.uleb128 0x2e
 915 00b2 01       		.byte	0x1
 916 00b3 3F       		.uleb128 0x3f
 917 00b4 19       		.uleb128 0x19
 918 00b5 03       		.uleb128 0x3
 919 00b6 0E       		.uleb128 0xe
 920 00b7 3A       		.uleb128 0x3a
 921 00b8 0B       		.uleb128 0xb
 922 00b9 3B       		.uleb128 0x3b
 923 00ba 0B       		.uleb128 0xb
 924 00bb 27       		.uleb128 0x27
 925 00bc 19       		.uleb128 0x19
 926 00bd 11       		.uleb128 0x11
 927 00be 01       		.uleb128 0x1
 928 00bf 12       		.uleb128 0x12
 929 00c0 06       		.uleb128 0x6
 930 00c1 40       		.uleb128 0x40
 931 00c2 18       		.uleb128 0x18
 932 00c3 9742     		.uleb128 0x2117
 933 00c5 19       		.uleb128 0x19
 934 00c6 01       		.uleb128 0x1
 935 00c7 13       		.uleb128 0x13
 936 00c8 00       		.byte	0
 937 00c9 00       		.byte	0
 938 00ca 10       		.uleb128 0x10
 939 00cb 05       		.uleb128 0x5
 940 00cc 00       		.byte	0
 941 00cd 03       		.uleb128 0x3
 942 00ce 0E       		.uleb128 0xe
 943 00cf 3A       		.uleb128 0x3a
 944 00d0 0B       		.uleb128 0xb
 945 00d1 3B       		.uleb128 0x3b
 946 00d2 0B       		.uleb128 0xb
 947 00d3 49       		.uleb128 0x49
 948 00d4 13       		.uleb128 0x13
 949 00d5 02       		.uleb128 0x2
 950 00d6 18       		.uleb128 0x18
 951 00d7 00       		.byte	0
 952 00d8 00       		.byte	0
 953 00d9 11       		.uleb128 0x11
 954 00da 05       		.uleb128 0x5
 955 00db 00       		.byte	0
 956 00dc 03       		.uleb128 0x3
 957 00dd 0E       		.uleb128 0xe
 958 00de 3A       		.uleb128 0x3a
 959 00df 0B       		.uleb128 0xb
 960 00e0 3B       		.uleb128 0x3b
 961 00e1 0B       		.uleb128 0xb
 962 00e2 49       		.uleb128 0x49
 963 00e3 13       		.uleb128 0x13
 964 00e4 02       		.uleb128 0x2
 965 00e5 17       		.uleb128 0x17
 966 00e6 00       		.byte	0
 967 00e7 00       		.byte	0
 968 00e8 12       		.uleb128 0x12
 969 00e9 34       		.uleb128 0x34
ARM GAS  /var/folders/6q/x_mk5n_j3p7_c40r_2k_78980000gn/T//ccJlml7g.s 			page 18


 970 00ea 00       		.byte	0
 971 00eb 03       		.uleb128 0x3
 972 00ec 0E       		.uleb128 0xe
 973 00ed 3A       		.uleb128 0x3a
 974 00ee 0B       		.uleb128 0xb
 975 00ef 3B       		.uleb128 0x3b
 976 00f0 0B       		.uleb128 0xb
 977 00f1 49       		.uleb128 0x49
 978 00f2 13       		.uleb128 0x13
 979 00f3 02       		.uleb128 0x2
 980 00f4 18       		.uleb128 0x18
 981 00f5 00       		.byte	0
 982 00f6 00       		.byte	0
 983 00f7 13       		.uleb128 0x13
 984 00f8 34       		.uleb128 0x34
 985 00f9 00       		.byte	0
 986 00fa 03       		.uleb128 0x3
 987 00fb 08       		.uleb128 0x8
 988 00fc 3A       		.uleb128 0x3a
 989 00fd 0B       		.uleb128 0xb
 990 00fe 3B       		.uleb128 0x3b
 991 00ff 0B       		.uleb128 0xb
 992 0100 49       		.uleb128 0x49
 993 0101 13       		.uleb128 0x13
 994 0102 02       		.uleb128 0x2
 995 0103 17       		.uleb128 0x17
 996 0104 00       		.byte	0
 997 0105 00       		.byte	0
 998 0106 14       		.uleb128 0x14
 999 0107 01       		.uleb128 0x1
 1000 0108 01       		.byte	0x1
 1001 0109 49       		.uleb128 0x49
 1002 010a 13       		.uleb128 0x13
 1003 010b 01       		.uleb128 0x1
 1004 010c 13       		.uleb128 0x13
 1005 010d 00       		.byte	0
 1006 010e 00       		.byte	0
 1007 010f 15       		.uleb128 0x15
 1008 0110 21       		.uleb128 0x21
 1009 0111 00       		.byte	0
 1010 0112 49       		.uleb128 0x49
 1011 0113 13       		.uleb128 0x13
 1012 0114 2F       		.uleb128 0x2f
 1013 0115 0B       		.uleb128 0xb
 1014 0116 00       		.byte	0
 1015 0117 00       		.byte	0
 1016 0118 16       		.uleb128 0x16
 1017 0119 34       		.uleb128 0x34
 1018 011a 00       		.byte	0
 1019 011b 03       		.uleb128 0x3
 1020 011c 0E       		.uleb128 0xe
 1021 011d 3A       		.uleb128 0x3a
 1022 011e 0B       		.uleb128 0xb
 1023 011f 3B       		.uleb128 0x3b
 1024 0120 05       		.uleb128 0x5
 1025 0121 49       		.uleb128 0x49
 1026 0122 13       		.uleb128 0x13
ARM GAS  /var/folders/6q/x_mk5n_j3p7_c40r_2k_78980000gn/T//ccJlml7g.s 			page 19


 1027 0123 3F       		.uleb128 0x3f
 1028 0124 19       		.uleb128 0x19
 1029 0125 3C       		.uleb128 0x3c
 1030 0126 19       		.uleb128 0x19
 1031 0127 00       		.byte	0
 1032 0128 00       		.byte	0
 1033 0129 00       		.byte	0
 1034              		.section	.debug_loc,"",%progbits
 1035              	.Ldebug_loc0:
 1036              	.LLST0:
 1037 0000 00000000 		.4byte	.LVL1
 1038 0004 4C000000 		.4byte	.LVL12
 1039 0008 0100     		.2byte	0x1
 1040 000a 51       		.byte	0x51
 1041 000b 4C000000 		.4byte	.LVL12
 1042 000f 68000000 		.4byte	.LFE64
 1043 0013 0100     		.2byte	0x1
 1044 0015 51       		.byte	0x51
 1045 0016 00000000 		.4byte	0
 1046 001a 00000000 		.4byte	0
 1047              	.LLST1:
 1048 001e 00000000 		.4byte	.LVL1
 1049 0022 1E000000 		.4byte	.LVL2
 1050 0026 0100     		.2byte	0x1
 1051 0028 52       		.byte	0x52
 1052 0029 1E000000 		.4byte	.LVL2
 1053 002d 60000000 		.4byte	.LVL18
 1054 0031 0400     		.2byte	0x4
 1055 0033 F3       		.byte	0xf3
 1056 0034 01       		.uleb128 0x1
 1057 0035 52       		.byte	0x52
 1058 0036 9F       		.byte	0x9f
 1059 0037 60000000 		.4byte	.LVL18
 1060 003b 68000000 		.4byte	.LFE64
 1061 003f 0100     		.2byte	0x1
 1062 0041 52       		.byte	0x52
 1063 0042 00000000 		.4byte	0
 1064 0046 00000000 		.4byte	0
 1065              	.LLST2:
 1066 004a 1E000000 		.4byte	.LVL2
 1067 004e 52000000 		.4byte	.LVL14
 1068 0052 0100     		.2byte	0x1
 1069 0054 56       		.byte	0x56
 1070 0055 00000000 		.4byte	0
 1071 0059 00000000 		.4byte	0
 1072              	.LLST3:
 1073 005d 1E000000 		.4byte	.LVL2
 1074 0061 5A000000 		.4byte	.LVL16
 1075 0065 0100     		.2byte	0x1
 1076 0067 55       		.byte	0x55
 1077 0068 00000000 		.4byte	0
 1078 006c 00000000 		.4byte	0
 1079              	.LLST4:
 1080 0070 1E000000 		.4byte	.LVL2
 1081 0074 54000000 		.4byte	.LVL15
 1082 0078 0100     		.2byte	0x1
 1083 007a 54       		.byte	0x54
ARM GAS  /var/folders/6q/x_mk5n_j3p7_c40r_2k_78980000gn/T//ccJlml7g.s 			page 20


 1084 007b 00000000 		.4byte	0
 1085 007f 00000000 		.4byte	0
 1086              	.LLST5:
 1087 0083 1E000000 		.4byte	.LVL2
 1088 0087 2A000000 		.4byte	.LVL4
 1089 008b 0100     		.2byte	0x1
 1090 008d 53       		.byte	0x53
 1091 008e 2E000000 		.4byte	.LVL5
 1092 0092 5C000000 		.4byte	.LVL17
 1093 0096 0100     		.2byte	0x1
 1094 0098 53       		.byte	0x53
 1095 0099 00000000 		.4byte	0
 1096 009d 00000000 		.4byte	0
 1097              	.LLST6:
 1098 00a1 1E000000 		.4byte	.LVL2
 1099 00a5 50000000 		.4byte	.LVL13
 1100 00a9 0100     		.2byte	0x1
 1101 00ab 52       		.byte	0x52
 1102 00ac 50000000 		.4byte	.LVL13
 1103 00b0 60000000 		.4byte	.LVL18
 1104 00b4 0C00     		.2byte	0xc
 1105 00b6 7E       		.byte	0x7e
 1106 00b7 00       		.sleb128 0
 1107 00b8 F3       		.byte	0xf3
 1108 00b9 01       		.uleb128 0x1
 1109 00ba 52       		.byte	0x52
 1110 00bb 22       		.byte	0x22
 1111 00bc 94       		.byte	0x94
 1112 00bd 01       		.byte	0x1
 1113 00be 08       		.byte	0x8
 1114 00bf FF       		.byte	0xff
 1115 00c0 1A       		.byte	0x1a
 1116 00c1 9F       		.byte	0x9f
 1117 00c2 00000000 		.4byte	0
 1118 00c6 00000000 		.4byte	0
 1119              	.LLST7:
 1120 00ca 1E000000 		.4byte	.LVL2
 1121 00ce 48000000 		.4byte	.LVL11
 1122 00d2 0500     		.2byte	0x5
 1123 00d4 38       		.byte	0x38
 1124 00d5 77       		.byte	0x77
 1125 00d6 00       		.sleb128 0
 1126 00d7 1C       		.byte	0x1c
 1127 00d8 9F       		.byte	0x9f
 1128 00d9 48000000 		.4byte	.LVL11
 1129 00dd 4C000000 		.4byte	.LVL12
 1130 00e1 0500     		.2byte	0x5
 1131 00e3 37       		.byte	0x37
 1132 00e4 77       		.byte	0x77
 1133 00e5 00       		.sleb128 0
 1134 00e6 1C       		.byte	0x1c
 1135 00e7 9F       		.byte	0x9f
 1136 00e8 00000000 		.4byte	0
 1137 00ec 00000000 		.4byte	0
 1138              		.section	.debug_aranges,"",%progbits
 1139 0000 24000000 		.4byte	0x24
 1140 0004 0200     		.2byte	0x2
ARM GAS  /var/folders/6q/x_mk5n_j3p7_c40r_2k_78980000gn/T//ccJlml7g.s 			page 21


 1141 0006 00000000 		.4byte	.Ldebug_info0
 1142 000a 04       		.byte	0x4
 1143 000b 00       		.byte	0
 1144 000c 0000     		.2byte	0
 1145 000e 0000     		.2byte	0
 1146 0010 00000000 		.4byte	.LFB63
 1147 0014 94000000 		.4byte	.LFE63-.LFB63
 1148 0018 00000000 		.4byte	.LFB64
 1149 001c 68000000 		.4byte	.LFE64-.LFB64
 1150 0020 00000000 		.4byte	0
 1151 0024 00000000 		.4byte	0
 1152              		.section	.debug_ranges,"",%progbits
 1153              	.Ldebug_ranges0:
 1154 0000 00000000 		.4byte	.LFB63
 1155 0004 94000000 		.4byte	.LFE63
 1156 0008 00000000 		.4byte	.LFB64
 1157 000c 68000000 		.4byte	.LFE64
 1158 0010 00000000 		.4byte	0
 1159 0014 00000000 		.4byte	0
 1160              		.section	.debug_line,"",%progbits
 1161              	.Ldebug_line0:
 1162 0000 1C020000 		.section	.debug_str,"MS",%progbits,1
 1162      02009401 
 1162      00000201 
 1162      FB0E0D00 
 1162      01010101 
 1163              	.LASF21:
 1164 0000 4750494F 		.ascii	"GPIO_TypeDef\000"
 1164      5F547970 
 1164      65446566 
 1164      00
 1165              	.LASF33:
 1166 000d 50434461 		.ascii	"PCData\000"
 1166      746100
 1167              	.LASF29:
 1168 0014 5243435F 		.ascii	"RCC_TypeDef\000"
 1168      54797065 
 1168      44656600 
 1169              	.LASF43:
 1170 0020 5F70616C 		.ascii	"_pal_lld_setgroupmode\000"
 1170      5F6C6C64 
 1170      5F736574 
 1170      67726F75 
 1170      706D6F64 
 1171              	.LASF42:
 1172 0036 5F70616C 		.ascii	"_pal_lld_init\000"
 1172      5F6C6C64 
 1172      5F696E69 
 1172      7400
 1173              	.LASF36:
 1174 0044 50464461 		.ascii	"PFData\000"
 1174      746100
 1175              	.LASF5:
 1176 004b 73686F72 		.ascii	"short int\000"
 1176      7420696E 
 1176      7400
 1177              	.LASF17:
ARM GAS  /var/folders/6q/x_mk5n_j3p7_c40r_2k_78980000gn/T//ccJlml7g.s 			page 22


 1178 0055 73697A65 		.ascii	"sizetype\000"
 1178      74797065 
 1178      00
 1179              	.LASF28:
 1180 005e 42444352 		.ascii	"BDCR\000"
 1180      00
 1181              	.LASF10:
 1182 0063 5F5F7569 		.ascii	"__uint32_t\000"
 1182      6E743332 
 1182      5F7400
 1183              	.LASF24:
 1184 006e 41504231 		.ascii	"APB1RSTR\000"
 1184      52535452 
 1184      00
 1185              	.LASF47:
 1186 0077 6D6F6465 		.ascii	"mode\000"
 1186      00
 1187              	.LASF19:
 1188 007c 42535252 		.ascii	"BSRR\000"
 1188      00
 1189              	.LASF44:
 1190 0081 636F6E66 		.ascii	"config\000"
 1190      696700
 1191              	.LASF40:
 1192 0088 696F6D6F 		.ascii	"iomode_t\000"
 1192      64655F74 
 1192      00
 1193              	.LASF49:
 1194 0091 474E5520 		.ascii	"GNU C11 5.4.1 20160919 (release) [ARM/embedded-5-br"
 1194      43313120 
 1194      352E342E 
 1194      31203230 
 1194      31363039 
 1195 00c4 616E6368 		.ascii	"anch revision 240496] -mcpu=cortex-m3 -mno-thumb-in"
 1195      20726576 
 1195      6973696F 
 1195      6E203234 
 1195      30343936 
 1196 00f7 74657277 		.ascii	"terwork -mthumb -ggdb -O2 -fomit-frame-pointer -fal"
 1196      6F726B20 
 1196      2D6D7468 
 1196      756D6220 
 1196      2D676764 
 1197 012a 69676E2D 		.ascii	"ign-functions=16 -ffunction-sections -fdata-section"
 1197      66756E63 
 1197      74696F6E 
 1197      733D3136 
 1197      202D6666 
 1198 015d 73202D66 		.ascii	"s -fno-common\000"
 1198      6E6F2D63 
 1198      6F6D6D6F 
 1198      6E00
 1199              	.LASF13:
 1200 016b 75696E74 		.ascii	"uint8_t\000"
 1200      385F7400 
 1201              	.LASF27:
 1202 0173 41504231 		.ascii	"APB1ENR\000"
ARM GAS  /var/folders/6q/x_mk5n_j3p7_c40r_2k_78980000gn/T//ccJlml7g.s 			page 23


 1202      454E5200 
 1203              	.LASF39:
 1204 017b 696F706F 		.ascii	"ioportmask_t\000"
 1204      72746D61 
 1204      736B5F74 
 1204      00
 1205              	.LASF51:
 1206 0188 2F557365 		.ascii	"/Users/Luca/src/vexilla/src/teamA\000"
 1206      72732F4C 
 1206      7563612F 
 1206      7372632F 
 1206      76657869 
 1207              	.LASF3:
 1208 01aa 7369676E 		.ascii	"signed char\000"
 1208      65642063 
 1208      68617200 
 1209              	.LASF2:
 1210 01b6 6C6F6E67 		.ascii	"long double\000"
 1210      20646F75 
 1210      626C6500 
 1211              	.LASF31:
 1212 01c2 50414461 		.ascii	"PAData\000"
 1212      746100
 1213              	.LASF1:
 1214 01c9 6C6F6E67 		.ascii	"long long int\000"
 1214      206C6F6E 
 1214      6720696E 
 1214      7400
 1215              	.LASF9:
 1216 01d7 6C6F6E67 		.ascii	"long int\000"
 1216      20696E74 
 1216      00
 1217              	.LASF34:
 1218 01e0 50444461 		.ascii	"PDData\000"
 1218      746100
 1219              	.LASF25:
 1220 01e7 41484245 		.ascii	"AHBENR\000"
 1220      4E5200
 1221              	.LASF23:
 1222 01ee 41504232 		.ascii	"APB2RSTR\000"
 1222      52535452 
 1222      00
 1223              	.LASF7:
 1224 01f7 5F5F7569 		.ascii	"__uint8_t\000"
 1224      6E74385F 
 1224      7400
 1225              	.LASF37:
 1226 0201 50474461 		.ascii	"PGData\000"
 1226      746100
 1227              	.LASF41:
 1228 0208 696F706F 		.ascii	"ioportid_t\000"
 1228      72746964 
 1228      5F7400
 1229              	.LASF48:
 1230 0213 63666774 		.ascii	"cfgtab\000"
 1230      616200
 1231              	.LASF4:
ARM GAS  /var/folders/6q/x_mk5n_j3p7_c40r_2k_78980000gn/T//ccJlml7g.s 			page 24


 1232 021a 756E7369 		.ascii	"unsigned char\000"
 1232      676E6564 
 1232      20636861 
 1232      7200
 1233              	.LASF26:
 1234 0228 41504232 		.ascii	"APB2ENR\000"
 1234      454E5200 
 1235              	.LASF12:
 1236 0230 6C6F6E67 		.ascii	"long long unsigned int\000"
 1236      206C6F6E 
 1236      6720756E 
 1236      7369676E 
 1236      65642069 
 1237              	.LASF15:
 1238 0247 75696E74 		.ascii	"uint32_t\000"
 1238      33325F74 
 1238      00
 1239              	.LASF0:
 1240 0250 756E7369 		.ascii	"unsigned int\000"
 1240      676E6564 
 1240      20696E74 
 1240      00
 1241              	.LASF30:
 1242 025d 73746D33 		.ascii	"stm32_gpio_setup_t\000"
 1242      325F6770 
 1242      696F5F73 
 1242      65747570 
 1242      5F7400
 1243              	.LASF6:
 1244 0270 73686F72 		.ascii	"short unsigned int\000"
 1244      7420756E 
 1244      7369676E 
 1244      65642069 
 1244      6E7400
 1245              	.LASF18:
 1246 0283 63686172 		.ascii	"char\000"
 1246      00
 1247              	.LASF14:
 1248 0288 696E7433 		.ascii	"int32_t\000"
 1248      325F7400 
 1249              	.LASF38:
 1250 0290 50414C43 		.ascii	"PALConfig\000"
 1250      6F6E6669 
 1250      6700
 1251              	.LASF16:
 1252 029a 5F426F6F 		.ascii	"_Bool\000"
 1252      6C00
 1253              	.LASF50:
 1254 02a0 2E2E2F43 		.ascii	"../ChibiOS/os/hal/platforms/STM32/GPIOv1/pal_lld.c\000"
 1254      68696269 
 1254      4F532F6F 
 1254      732F6861 
 1254      6C2F706C 
 1255              	.LASF35:
 1256 02d3 50454461 		.ascii	"PEData\000"
 1256      746100
 1257              	.LASF45:
ARM GAS  /var/folders/6q/x_mk5n_j3p7_c40r_2k_78980000gn/T//ccJlml7g.s 			page 25


 1258 02da 706F7274 		.ascii	"port\000"
 1258      00
 1259              	.LASF11:
 1260 02df 6C6F6E67 		.ascii	"long unsigned int\000"
 1260      20756E73 
 1260      69676E65 
 1260      6420696E 
 1260      7400
 1261              	.LASF46:
 1262 02f1 6D61736B 		.ascii	"mask\000"
 1262      00
 1263              	.LASF8:
 1264 02f6 5F5F696E 		.ascii	"__int32_t\000"
 1264      7433325F 
 1264      7400
 1265              	.LASF52:
 1266 0300 49544D5F 		.ascii	"ITM_RxBuffer\000"
 1266      52784275 
 1266      66666572 
 1266      00
 1267              	.LASF32:
 1268 030d 50424461 		.ascii	"PBData\000"
 1268      746100
 1269              	.LASF22:
 1270 0314 43464752 		.ascii	"CFGR\000"
 1270      00
 1271              	.LASF20:
 1272 0319 4C434B52 		.ascii	"LCKR\000"
 1272      00
 1273              		.ident	"GCC: (GNU Tools for ARM Embedded Processors) 5.4.1 20160919 (release) [ARM/embedded-5-bran
ARM GAS  /var/folders/6q/x_mk5n_j3p7_c40r_2k_78980000gn/T//ccJlml7g.s 			page 26


DEFINED SYMBOLS
                            *ABS*:0000000000000000 pal_lld.c
/var/folders/6q/x_mk5n_j3p7_c40r_2k_78980000gn/T//ccJlml7g.s:20     .text._pal_lld_init:0000000000000000 $t
/var/folders/6q/x_mk5n_j3p7_c40r_2k_78980000gn/T//ccJlml7g.s:26     .text._pal_lld_init:0000000000000000 _pal_lld_init
/var/folders/6q/x_mk5n_j3p7_c40r_2k_78980000gn/T//ccJlml7g.s:146    .text._pal_lld_init:000000000000007c $d
/var/folders/6q/x_mk5n_j3p7_c40r_2k_78980000gn/T//ccJlml7g.s:156    .text._pal_lld_setgroupmode:0000000000000000 $t
/var/folders/6q/x_mk5n_j3p7_c40r_2k_78980000gn/T//ccJlml7g.s:162    .text._pal_lld_setgroupmode:0000000000000000 _pal_lld_setgroupmode
/var/folders/6q/x_mk5n_j3p7_c40r_2k_78980000gn/T//ccJlml7g.s:260    .text._pal_lld_setgroupmode:0000000000000064 $d
/var/folders/6q/x_mk5n_j3p7_c40r_2k_78980000gn/T//ccJlml7g.s:265    .rodata.cfgtab.6619:0000000000000000 $d
/var/folders/6q/x_mk5n_j3p7_c40r_2k_78980000gn/T//ccJlml7g.s:269    .rodata.cfgtab.6619:0000000000000000 cfgtab.6619
                     .debug_frame:0000000000000010 $d

NO UNDEFINED SYMBOLS
