ARM GAS  /var/folders/6q/x_mk5n_j3p7_c40r_2k_78980000gn/T//cc5RWwhR.s 			page 1


   1              		.syntax unified
   2              		.cpu cortex-m3
   3              		.fpu softvfp
   4              		.eabi_attribute 20, 1
   5              		.eabi_attribute 21, 1
   6              		.eabi_attribute 23, 3
   7              		.eabi_attribute 24, 1
   8              		.eabi_attribute 25, 1
   9              		.eabi_attribute 26, 1
  10              		.eabi_attribute 30, 2
  11              		.eabi_attribute 34, 1
  12              		.eabi_attribute 18, 4
  13              		.thumb
  14              		.syntax unified
  15              		.file	"pidlib.c"
  16              		.text
  17              	.Ltext0:
  18              		.cfi_sections	.debug_frame
  19              		.global	__aeabi_i2f
  20              		.global	__aeabi_fcmplt
  21              		.global	__aeabi_fcmpeq
  22              		.global	__aeabi_fadd
  23              		.global	__aeabi_fcmpgt
  24              		.global	__aeabi_fmul
  25              		.global	__aeabi_fsub
  26              		.global	__aeabi_f2d
  27              		.global	__aeabi_dmul
  28              		.global	__aeabi_d2iz
  29              		.global	__aeabi_f2iz
  30              		.section	.text.PidControllerUpdate,"ax",%progbits
  31              		.align	2
  32              		.p2align 4,,15
  33              		.global	PidControllerUpdate
  34              		.thumb
  35              		.thumb_func
  36              		.type	PidControllerUpdate, %function
  37              	PidControllerUpdate:
  38              	.LFB71:
  39              		.file 1 "../convex-vexilla/cortex/opt/pidlib.c"
  40              		.loc 1 160 0
  41              		.cfi_startproc
  42              		@ args = 0, pretend = 0, frame = 0
  43              		@ frame_needed = 0, uses_anonymous_args = 0
  44              	.LVL0:
  45              		.loc 1 161 0
  46 0000 0028     		cmp	r0, #0
  47 0002 00F0E280 		beq	.L45
  48              		.loc 1 164 0
  49 0006 B0F90030 		ldrsh	r3, [r0]
  50              		.loc 1 160 0
  51 000a 2DE9F047 		push	{r4, r5, r6, r7, r8, r9, r10, lr}
  52              		.cfi_def_cfa_offset 32
  53              		.cfi_offset 4, -32
  54              		.cfi_offset 5, -28
  55              		.cfi_offset 6, -24
  56              		.cfi_offset 7, -20
  57              		.cfi_offset 8, -16
ARM GAS  /var/folders/6q/x_mk5n_j3p7_c40r_2k_78980000gn/T//cc5RWwhR.s 			page 2


  58              		.cfi_offset 9, -12
  59              		.cfi_offset 10, -8
  60              		.cfi_offset 14, -4
  61 000e 0446     		mov	r4, r0
  62              		.loc 1 164 0
  63 0010 002B     		cmp	r3, #0
  64 0012 00F08C80 		beq	.L3
  65              		.loc 1 168 0
  66 0016 90F93400 		ldrsb	r0, [r0, #52]
  67              	.LVL1:
  68 001a 0028     		cmp	r0, #0
  69 001c 80F29E80 		bge	.L4
  70 0020 6569     		ldr	r5, [r4, #20]	@ float
  71              	.L5:
  72              		.loc 1 188 0
  73 0022 25F00040 		bic	r0, r5, #-2147483648
  74 0026 A16A     		ldr	r1, [r4, #40]	@ float
  75 0028 FFF7FEFF 		bl	__aeabi_fcmplt
  76              	.LVL2:
  77 002c 10B1     		cbz	r0, .L8
  78              		.loc 1 189 0
  79 002e 0023     		movs	r3, #0
  80 0030 1D46     		mov	r5, r3
  81 0032 6361     		str	r3, [r4, #20]	@ float
  82              	.L8:
  83              		.loc 1 192 0
  84 0034 A768     		ldr	r7, [r4, #8]	@ float
  85 0036 0026     		movs	r6, #0
  86 0038 3846     		mov	r0, r7
  87 003a 3146     		mov	r1, r6
  88 003c FFF7FEFF 		bl	__aeabi_fcmpeq
  89              	.LVL3:
  90 0040 0028     		cmp	r0, #0
  91 0042 40F09880 		bne	.L39
  92              		.loc 1 194 0
  93 0046 E169     		ldr	r1, [r4, #28]	@ float
  94 0048 2846     		mov	r0, r5
  95 004a FFF7FEFF 		bl	__aeabi_fadd
  96              	.LVL4:
  97 004e 8146     		mov	r9, r0
  98              		.loc 1 197 0
  99 0050 D4F820A0 		ldr	r10, [r4, #32]	@ float
 100 0054 20F00040 		bic	r0, r0, #-2147483648
 101              		.loc 1 194 0
 102 0058 C4F81C90 		str	r9, [r4, #28]	@ float
 103              		.loc 1 197 0
 104 005c 5146     		mov	r1, r10
 105              		.loc 1 194 0
 106 005e C846     		mov	r8, r9
 107              		.loc 1 197 0
 108 0060 FFF7FEFF 		bl	__aeabi_fcmpgt
 109              	.LVL5:
 110 0064 90B1     		cbz	r0, .L12
 111              	.LVL6:
 112              	.LBB18:
 113              	.LBB19:
 114              		.loc 1 74 0
ARM GAS  /var/folders/6q/x_mk5n_j3p7_c40r_2k_78980000gn/T//cc5RWwhR.s 			page 3


 115 0066 3146     		mov	r1, r6
 116 0068 4846     		mov	r0, r9
 117 006a FFF7FEFF 		bl	__aeabi_fcmpeq
 118              	.LVL7:
 119 006e 3146     		mov	r1, r6
 120 0070 38B9     		cbnz	r0, .L14
 121              		.loc 1 75 0
 122 0072 4846     		mov	r0, r9
 123 0074 FFF7FEFF 		bl	__aeabi_fcmpgt
 124              	.LVL8:
 125 0078 0028     		cmp	r0, #0
 126 007a 00F0AB80 		beq	.L40
 127 007e 4FF07E51 		mov	r1, #1065353216
 128              	.L14:
 129              	.LVL9:
 130              	.LBE19:
 131              	.LBE18:
 132              		.loc 1 198 0
 133 0082 5046     		mov	r0, r10
 134 0084 FFF7FEFF 		bl	__aeabi_fmul
 135              	.LVL10:
 136 0088 8046     		mov	r8, r0
 137 008a E061     		str	r0, [r4, #28]	@ float
 138              	.L12:
 139              		.loc 1 204 0
 140 008c A169     		ldr	r1, [r4, #24]	@ float
 141 008e 2846     		mov	r0, r5
 142 0090 FFF7FEFF 		bl	__aeabi_fsub
 143              	.LVL11:
 144              		.loc 1 205 0
 145 0094 A561     		str	r5, [r4, #24]	@ float
 146              		.loc 1 204 0
 147 0096 0646     		mov	r6, r0
 148 0098 6062     		str	r0, [r4, #36]	@ float
 149              		.loc 1 208 0
 150 009a 6168     		ldr	r1, [r4, #4]	@ float
 151 009c 2846     		mov	r0, r5
 152 009e FFF7FEFF 		bl	__aeabi_fmul
 153              	.LVL12:
 154 00a2 4146     		mov	r1, r8
 155 00a4 0546     		mov	r5, r0
 156 00a6 3846     		mov	r0, r7
 157 00a8 FFF7FEFF 		bl	__aeabi_fmul
 158              	.LVL13:
 159 00ac 0146     		mov	r1, r0
 160 00ae 2846     		mov	r0, r5
 161 00b0 FFF7FEFF 		bl	__aeabi_fadd
 162              	.LVL14:
 163 00b4 E168     		ldr	r1, [r4, #12]	@ float
 164 00b6 0546     		mov	r5, r0
 165 00b8 3046     		mov	r0, r6
 166 00ba FFF7FEFF 		bl	__aeabi_fmul
 167              	.LVL15:
 168 00be 0146     		mov	r1, r0
 169 00c0 2846     		mov	r0, r5
 170 00c2 FFF7FEFF 		bl	__aeabi_fadd
 171              	.LVL16:
ARM GAS  /var/folders/6q/x_mk5n_j3p7_c40r_2k_78980000gn/T//cc5RWwhR.s 			page 4


 172 00c6 2169     		ldr	r1, [r4, #16]	@ float
 173 00c8 FFF7FEFF 		bl	__aeabi_fadd
 174              	.LVL17:
 175              		.loc 1 211 0
 176 00cc 4FF07E51 		mov	r1, #1065353216
 177              		.loc 1 208 0
 178 00d0 0546     		mov	r5, r0
 179              		.loc 1 211 0
 180 00d2 20F00040 		bic	r0, r0, #-2147483648
 181 00d6 FFF7FEFF 		bl	__aeabi_fcmpgt
 182              	.LVL18:
 183 00da 0028     		cmp	r0, #0
 184 00dc 60D0     		beq	.L48
 185              	.LVL19:
 186              	.LBB21:
 187              	.LBB22:
 188              		.loc 1 74 0
 189 00de 0021     		movs	r1, #0
 190 00e0 2846     		mov	r0, r5
 191 00e2 FFF7FEFF 		bl	__aeabi_fcmpeq
 192              	.LVL20:
 193 00e6 0028     		cmp	r0, #0
 194 00e8 48D1     		bne	.L26
 195              		.loc 1 75 0
 196 00ea 2846     		mov	r0, r5
 197 00ec 0021     		movs	r1, #0
 198 00ee FFF7FEFF 		bl	__aeabi_fcmpgt
 199              	.LVL21:
 200 00f2 0028     		cmp	r0, #0
 201 00f4 70D0     		beq	.L41
 202 00f6 7F23     		movs	r3, #127
 203 00f8 1E46     		mov	r6, r3
 204 00fa 3D4D     		ldr	r5, .L51+8
 205              	.LVL22:
 206 00fc 4FF07E52 		mov	r2, #1065353216
 207              	.L18:
 208              	.LBE22:
 209              	.LBE21:
 210              		.loc 1 212 0
 211 0100 E262     		str	r2, [r4, #44]	@ float
 212              	.L17:
 213              		.loc 1 230 0
 214 0102 3C4A     		ldr	r2, .L51+12
 215              		.loc 1 215 0
 216 0104 2686     		strh	r6, [r4, #48]	@ movhi
 217              		.loc 1 230 0
 218 0106 32F91300 		ldrsh	r0, [r2, r3, lsl #1]
 219 010a FFF7FEFF 		bl	__aeabi_i2f
 220              	.LVL23:
 221              	.LBB25:
 222              	.LBB26:
 223              		.loc 1 74 0
 224 010e 0021     		movs	r1, #0
 225              	.LBE26:
 226              	.LBE25:
 227              		.loc 1 230 0
 228 0110 0646     		mov	r6, r0
ARM GAS  /var/folders/6q/x_mk5n_j3p7_c40r_2k_78980000gn/T//cc5RWwhR.s 			page 5


 229              	.LVL24:
 230              	.LBB31:
 231              	.LBB27:
 232              		.loc 1 74 0
 233 0112 2846     		mov	r0, r5
 234 0114 FFF7FEFF 		bl	__aeabi_fcmpeq
 235              	.LVL25:
 236 0118 0028     		cmp	r0, #0
 237 011a 63D1     		bne	.L49
 238              		.loc 1 75 0
 239 011c 2846     		mov	r0, r5
 240 011e 0021     		movs	r1, #0
 241 0120 FFF7FEFF 		bl	__aeabi_fcmpgt
 242              	.LVL26:
 243 0124 0028     		cmp	r0, #0
 244 0126 39D0     		beq	.L43
 245 0128 4FF07E50 		mov	r0, #1065353216
 246 012c 0DE0     		b	.L20
 247              	.LVL27:
 248              	.L3:
 249              	.LBE27:
 250              	.LBE31:
 251              		.loc 1 230 0
 252 012e 314A     		ldr	r2, .L51+12
 253              		.loc 1 221 0
 254 0130 0025     		movs	r5, #0
 255              		.loc 1 226 0
 256 0132 0386     		strh	r3, [r0, #48]	@ movhi
 257              		.loc 1 221 0
 258 0134 4561     		str	r5, [r0, #20]	@ float
 259              		.loc 1 222 0
 260 0136 8561     		str	r5, [r0, #24]	@ float
 261              		.loc 1 223 0
 262 0138 C561     		str	r5, [r0, #28]	@ float
 263              		.loc 1 224 0
 264 013a 4562     		str	r5, [r0, #36]	@ float
 265              		.loc 1 225 0
 266 013c C562     		str	r5, [r0, #44]	@ float
 267              		.loc 1 230 0
 268 013e B2F90000 		ldrsh	r0, [r2]
 269              	.LVL28:
 270 0142 FFF7FEFF 		bl	__aeabi_i2f
 271              	.LVL29:
 272 0146 0646     		mov	r6, r0
 273              	.LVL30:
 274              	.LBB32:
 275              	.LBB28:
 276              		.loc 1 74 0
 277 0148 2846     		mov	r0, r5
 278              	.LVL31:
 279              	.L20:
 280              	.LBE28:
 281              	.LBE32:
 282              		.loc 1 230 0
 283 014a 3146     		mov	r1, r6
 284 014c FFF7FEFF 		bl	__aeabi_fmul
 285              	.LVL32:
ARM GAS  /var/folders/6q/x_mk5n_j3p7_c40r_2k_78980000gn/T//cc5RWwhR.s 			page 6


 286 0150 FFF7FEFF 		bl	__aeabi_f2iz
 287              	.LVL33:
 288 0154 00B2     		sxth	r0, r0
 289 0156 6086     		strh	r0, [r4, #50]	@ movhi
 290              		.loc 1 234 0
 291 0158 BDE8F087 		pop	{r4, r5, r6, r7, r8, r9, r10, pc}
 292              	.LVL34:
 293              	.L4:
 294              		.loc 1 171 0
 295 015c FFF7FEFF 		bl	vexSensorValueGet
 296              	.LVL35:
 297              		.loc 1 174 0
 298 0160 B4F93630 		ldrsh	r3, [r4, #54]
 299              		.loc 1 171 0
 300 0164 A063     		str	r0, [r4, #56]
 301              		.loc 1 174 0
 302 0166 73B9     		cbnz	r3, .L50
 303              	.L6:
 304              		.loc 1 184 0
 305 0168 E36B     		ldr	r3, [r4, #60]
 306 016a 181A     		subs	r0, r3, r0
 307 016c FFF7FEFF 		bl	__aeabi_i2f
 308              	.LVL36:
 309 0170 0546     		mov	r5, r0
 310 0172 6061     		str	r0, [r4, #20]	@ float
 311 0174 55E7     		b	.L5
 312              	.L39:
 313              		.loc 1 201 0
 314 0176 B046     		mov	r8, r6
 315 0178 E661     		str	r6, [r4, #28]	@ float
 316 017a 87E7     		b	.L12
 317              	.LVL37:
 318              	.L26:
 319              	.LBB33:
 320              	.LBB23:
 321              		.loc 1 74 0
 322 017c 0025     		movs	r5, #0
 323              	.LVL38:
 324 017e 0023     		movs	r3, #0
 325 0180 2A46     		mov	r2, r5
 326 0182 1E46     		mov	r6, r3
 327 0184 BCE7     		b	.L18
 328              	.L50:
 329              	.LBE23:
 330              	.LBE33:
 331              		.loc 1 176 0
 332 0186 94F93400 		ldrsb	r0, [r4, #52]
 333 018a FFF7FEFF 		bl	vexSensorIsAnalog
 334              	.LVL39:
 335 018e E8B1     		cbz	r0, .L7
 336              		.loc 1 178 0
 337 0190 A06B     		ldr	r0, [r4, #56]
 338 0192 C0F57F60 		rsb	r0, r0, #4080
 339 0196 0F30     		adds	r0, r0, #15
 340 0198 A063     		str	r0, [r4, #56]
 341 019a E5E7     		b	.L6
 342              	.L43:
ARM GAS  /var/folders/6q/x_mk5n_j3p7_c40r_2k_78980000gn/T//cc5RWwhR.s 			page 7


 343              	.LBB34:
 344              	.LBB29:
 345              		.loc 1 75 0
 346 019c 1648     		ldr	r0, .L51+16
 347 019e D4E7     		b	.L20
 348              	.L48:
 349              	.LBE29:
 350              	.LBE34:
 351              		.loc 1 208 0
 352 01a0 E562     		str	r5, [r4, #44]	@ float
 353 01a2 2846     		mov	r0, r5
 354 01a4 FFF7FEFF 		bl	__aeabi_f2d
 355              	.LVL40:
 356 01a8 0FA3     		adr	r3, .L51
 357 01aa D3E90023 		ldrd	r2, [r3]
 358 01ae FFF7FEFF 		bl	__aeabi_dmul
 359              	.LVL41:
 360 01b2 FFF7FEFF 		bl	__aeabi_d2iz
 361              	.LVL42:
 362 01b6 06B2     		sxth	r6, r0
 363 01b8 3046     		mov	r0, r6
 364 01ba FFF7FEFF 		bl	__aeabi_i2f
 365              	.LVL43:
 366 01be 86EAE673 		eor	r3, r6, r6, asr #31
 367 01c2 0546     		mov	r5, r0
 368 01c4 A3EBE673 		sub	r3, r3, r6, asr #31
 369 01c8 9BE7     		b	.L17
 370              	.LVL44:
 371              	.L45:
 372              		.cfi_def_cfa_offset 0
 373              		.cfi_restore 4
 374              		.cfi_restore 5
 375              		.cfi_restore 6
 376              		.cfi_restore 7
 377              		.cfi_restore 8
 378              		.cfi_restore 9
 379              		.cfi_restore 10
 380              		.cfi_restore 14
 381              		.loc 1 234 0
 382 01ca 7047     		bx	lr
 383              	.LVL45:
 384              	.L7:
 385              		.cfi_def_cfa_offset 32
 386              		.cfi_offset 4, -32
 387              		.cfi_offset 5, -28
 388              		.cfi_offset 6, -24
 389              		.cfi_offset 7, -20
 390              		.cfi_offset 8, -16
 391              		.cfi_offset 9, -12
 392              		.cfi_offset 10, -8
 393              		.cfi_offset 14, -4
 394              		.loc 1 181 0
 395 01cc A06B     		ldr	r0, [r4, #56]
 396 01ce 4042     		negs	r0, r0
 397 01d0 A063     		str	r0, [r4, #56]
 398 01d2 C9E7     		b	.L6
 399              	.LVL46:
ARM GAS  /var/folders/6q/x_mk5n_j3p7_c40r_2k_78980000gn/T//cc5RWwhR.s 			page 8


 400              	.L40:
 401              	.LBB35:
 402              	.LBB20:
 403              		.loc 1 75 0
 404 01d4 0849     		ldr	r1, .L51+16
 405 01d6 54E7     		b	.L14
 406              	.LVL47:
 407              	.L41:
 408              	.LBE20:
 409              	.LBE35:
 410              	.LBB36:
 411              	.LBB24:
 412 01d8 084D     		ldr	r5, .L51+20
 413              	.LVL48:
 414 01da 074A     		ldr	r2, .L51+16
 415 01dc 7F23     		movs	r3, #127
 416 01de 6FF07E06 		mvn	r6, #126
 417 01e2 8DE7     		b	.L18
 418              	.L49:
 419              	.LBE24:
 420              	.LBE36:
 421              	.LBB37:
 422              	.LBB30:
 423              		.loc 1 74 0
 424 01e4 0020     		movs	r0, #0
 425 01e6 B0E7     		b	.L20
 426              	.L52:
 427              		.align	3
 428              	.L51:
 429 01e8 00000000 		.word	0
 430 01ec 00C05F40 		.word	1080016896
 431 01f0 0000FE42 		.word	1123942400
 432 01f4 00000000 		.word	.LANCHOR0
 433 01f8 000080BF 		.word	-1082130432
 434 01fc 0000FEC2 		.word	-1023541248
 435              	.LBE30:
 436              	.LBE37:
 437              		.cfi_endproc
 438              	.LFE71:
 439              		.size	PidControllerUpdate, .-PidControllerUpdate
 440              		.global	__aeabi_fdiv
 441              		.global	__aeabi_f2uiz
 442              		.global	__aeabi_dsub
 443              		.global	__aeabi_ddiv
 444              		.global	__aeabi_dadd
 445              		.section	.text.PidControllerMakeLut,"ax",%progbits
 446              		.align	2
 447              		.p2align 4,,15
 448              		.global	PidControllerMakeLut
 449              		.thumb
 450              		.thumb_func
 451              		.type	PidControllerMakeLut, %function
 452              	PidControllerMakeLut:
 453              	.LFB72:
 454              		.loc 1 243 0
 455              		.cfi_startproc
 456              		@ args = 0, pretend = 0, frame = 0
ARM GAS  /var/folders/6q/x_mk5n_j3p7_c40r_2k_78980000gn/T//cc5RWwhR.s 			page 9


 457              		@ frame_needed = 0, uses_anonymous_args = 0
 458              	.LVL49:
 459 0000 2DE9F843 		push	{r3, r4, r5, r6, r7, r8, r9, lr}
 460              		.cfi_def_cfa_offset 32
 461              		.cfi_offset 3, -32
 462              		.cfi_offset 4, -28
 463              		.cfi_offset 5, -24
 464              		.cfi_offset 6, -20
 465              		.cfi_offset 7, -16
 466              		.cfi_offset 8, -12
 467              		.cfi_offset 9, -8
 468              		.cfi_offset 14, -4
 469 0004 384E     		ldr	r6, .L67
 470              		.loc 1 243 0
 471 0006 0024     		movs	r4, #0
 472 0008 53E0     		b	.L59
 473              	.LVL50:
 474              	.L64:
 475              	.LBB38:
 476              	.LBB39:
 477              	.LBB40:
 478              	.LBB41:
 479              		.file 2 "../convex-vexilla/cortex/opt/fastmath.c"
 480              		.loc 2 61 0
 481 000a 4FF00009 		mov	r9, #0
 482              	.L54:
 483              	.LVL51:
 484              		.loc 2 62 0
 485 000e 3749     		ldr	r1, .L67+4
 486 0010 2846     		mov	r0, r5
 487 0012 374F     		ldr	r7, .L67+8
 488 0014 4FF00008 		mov	r8, #0
 489 0018 FFF7FEFF 		bl	__aeabi_fcmplt
 490              	.LVL52:
 491 001c 70B9     		cbnz	r0, .L56
 492 001e 2846     		mov	r0, r5
 493 0020 FFF7FEFF 		bl	__aeabi_f2iz
 494              	.LVL53:
 495 0024 FFF7FEFF 		bl	__aeabi_i2f
 496              	.LVL54:
 497 0028 0146     		mov	r1, r0
 498 002a 2846     		mov	r0, r5
 499 002c FFF7FEFF 		bl	__aeabi_fsub
 500              	.LVL55:
 501 0030 3049     		ldr	r1, .L67+12
 502 0032 8046     		mov	r8, r0
 503 0034 2846     		mov	r0, r5
 504 0036 FFF7FEFF 		bl	__aeabi_fadd
 505              	.LVL56:
 506 003a 0746     		mov	r7, r0
 507              	.L56:
 508              		.loc 2 64 0
 509 003c 4146     		mov	r1, r8
 510 003e 4846     		mov	r0, r9
 511 0040 FFF7FEFF 		bl	__aeabi_fadd
 512              	.LVL57:
 513              		.loc 2 65 0
ARM GAS  /var/folders/6q/x_mk5n_j3p7_c40r_2k_78980000gn/T//cc5RWwhR.s 			page 10


 514 0044 0146     		mov	r1, r0
 515              		.loc 2 64 0
 516 0046 0546     		mov	r5, r0
 517              	.LVL58:
 518              		.loc 2 65 0
 519 0048 2B48     		ldr	r0, .L67+16
 520              	.LVL59:
 521 004a FFF7FEFF 		bl	__aeabi_fsub
 522              	.LVL60:
 523 004e 0146     		mov	r1, r0
 524 0050 2A48     		ldr	r0, .L67+20
 525 0052 FFF7FEFF 		bl	__aeabi_fdiv
 526              	.LVL61:
 527 0056 3946     		mov	r1, r7
 528 0058 FFF7FEFF 		bl	__aeabi_fadd
 529              	.LVL62:
 530 005c 2849     		ldr	r1, .L67+24
 531 005e 0746     		mov	r7, r0
 532 0060 2846     		mov	r0, r5
 533 0062 FFF7FEFF 		bl	__aeabi_fmul
 534              	.LVL63:
 535 0066 0146     		mov	r1, r0
 536 0068 3846     		mov	r0, r7
 537 006a FFF7FEFF 		bl	__aeabi_fsub
 538              	.LVL64:
 539 006e 4FF09641 		mov	r1, #1258291200
 540 0072 FFF7FEFF 		bl	__aeabi_fmul
 541              	.LVL65:
 542 0076 FFF7FEFF 		bl	__aeabi_f2uiz
 543              	.LVL66:
 544              	.LBE41:
 545              	.LBE40:
 546              	.LBE39:
 547              	.LBE38:
 548              		.loc 1 254 0
 549 007a 042C     		cmp	r4, #4
 550 007c 2BD9     		bls	.L57
 551              		.loc 1 255 0
 552 007e FFF7FEFF 		bl	__aeabi_f2d
 553              	.LVL67:
 554 0082 0022     		movs	r2, #0
 555 0084 1F4B     		ldr	r3, .L67+28
 556 0086 FFF7FEFF 		bl	__aeabi_dsub
 557              	.LVL68:
 558 008a 0022     		movs	r2, #0
 559 008c 1E4B     		ldr	r3, .L67+32
 560 008e FFF7FEFF 		bl	__aeabi_ddiv
 561              	.LVL69:
 562 0092 0022     		movs	r2, #0
 563 0094 1D4B     		ldr	r3, .L67+36
 564 0096 FFF7FEFF 		bl	__aeabi_dmul
 565              	.LVL70:
 566 009a 0022     		movs	r2, #0
 567 009c 1C4B     		ldr	r3, .L67+40
 568 009e FFF7FEFF 		bl	__aeabi_dadd
 569              	.LVL71:
 570 00a2 FFF7FEFF 		bl	__aeabi_d2iz
ARM GAS  /var/folders/6q/x_mk5n_j3p7_c40r_2k_78980000gn/T//cc5RWwhR.s 			page 11


 571              	.LVL72:
 572 00a6 0134     		adds	r4, r4, #1
 573              	.LVL73:
 574              		.loc 1 247 0
 575 00a8 802C     		cmp	r4, #128
 576              		.loc 1 255 0
 577 00aa 3080     		strh	r0, [r6]	@ movhi
 578 00ac 06F10206 		add	r6, r6, #2
 579              		.loc 1 247 0
 580 00b0 18D0     		beq	.L66
 581              	.L59:
 582              	.LVL74:
 583              	.LBB47:
 584              	.LBB46:
 585              		.loc 2 93 0
 586 00b2 20B2     		sxth	r0, r4
 587 00b4 FFF7FEFF 		bl	__aeabi_i2f
 588              	.LVL75:
 589 00b8 1649     		ldr	r1, .L67+44
 590 00ba FFF7FEFF 		bl	__aeabi_fdiv
 591              	.LVL76:
 592 00be 1649     		ldr	r1, .L67+48
 593 00c0 FFF7FEFF 		bl	__aeabi_fmul
 594              	.LVL77:
 595              	.LBB44:
 596              	.LBB42:
 597              		.loc 2 61 0
 598 00c4 0021     		movs	r1, #0
 599              	.LBE42:
 600              	.LBE44:
 601              		.loc 2 93 0
 602 00c6 0546     		mov	r5, r0
 603              	.LVL78:
 604              	.LBB45:
 605              	.LBB43:
 606              		.loc 2 61 0
 607 00c8 FFF7FEFF 		bl	__aeabi_fcmplt
 608              	.LVL79:
 609 00cc 0028     		cmp	r0, #0
 610 00ce 9CD0     		beq	.L64
 611 00d0 4FF07E59 		mov	r9, #1065353216
 612 00d4 9BE7     		b	.L54
 613              	.LVL80:
 614              	.L57:
 615              	.LBE43:
 616              	.LBE45:
 617              	.LBE46:
 618              	.LBE47:
 619              		.loc 1 257 0
 620 00d6 6300     		lsls	r3, r4, #1
 621 00d8 0134     		adds	r4, r4, #1
 622              	.LVL81:
 623              		.loc 1 247 0
 624 00da 802C     		cmp	r4, #128
 625              		.loc 1 257 0
 626 00dc 3380     		strh	r3, [r6]	@ movhi
 627 00de 06F10206 		add	r6, r6, #2
ARM GAS  /var/folders/6q/x_mk5n_j3p7_c40r_2k_78980000gn/T//cc5RWwhR.s 			page 12


 628              		.loc 1 247 0
 629 00e2 E6D1     		bne	.L59
 630              	.L66:
 631              		.loc 1 265 0
 632 00e4 BDE8F883 		pop	{r3, r4, r5, r6, r7, r8, r9, pc}
 633              	.L68:
 634              		.align	2
 635              	.L67:
 636 00e8 00000000 		.word	.LANCHOR0
 637 00ec 0000FCC2 		.word	-1023672320
 638 00f0 F03A97C0 		.word	-1063830800
 639 00f4 518CF242 		.word	1123191889
 640 00f8 F8F59A40 		.word	1083897336
 641 00fc FED2DD41 		.word	1105056510
 642 0100 8DBCBE3F 		.word	1069464717
 643 0104 0000F03F 		.word	1072693248
 644 0108 00003340 		.word	1077084160
 645 010c 00405D40 		.word	1079853056
 646 0110 00002440 		.word	1076101120
 647 0114 0000FE42 		.word	1123942400
 648 0118 B74C8A40 		.word	1082805431
 649              		.cfi_endproc
 650              	.LFE72:
 651              		.size	PidControllerMakeLut, .-PidControllerMakeLut
 652              		.section	.text.PidControllerInit,"ax",%progbits
 653              		.align	2
 654              		.p2align 4,,15
 655              		.global	PidControllerInit
 656              		.thumb
 657              		.thumb_func
 658              		.type	PidControllerInit, %function
 659              	PidControllerInit:
 660              	.LFB69:
 661              		.loc 1 88 0
 662              		.cfi_startproc
 663              		@ args = 4, pretend = 0, frame = 0
 664              		@ frame_needed = 0, uses_anonymous_args = 0
 665              	.LVL82:
 666 0000 2DE9F047 		push	{r4, r5, r6, r7, r8, r9, r10, lr}
 667              		.cfi_def_cfa_offset 32
 668              		.cfi_offset 4, -32
 669              		.cfi_offset 5, -28
 670              		.cfi_offset 6, -24
 671              		.cfi_offset 7, -20
 672              		.cfi_offset 8, -16
 673              		.cfi_offset 9, -12
 674              		.cfi_offset 10, -8
 675              		.cfi_offset 14, -4
 676              		.loc 1 88 0
 677 0004 0E46     		mov	r6, r1
 678 0006 8246     		mov	r10, r0
 679              		.loc 1 97 0
 680 0008 4021     		movs	r1, #64
 681              	.LVL83:
 682 000a 0020     		movs	r0, #0
 683              	.LVL84:
 684              		.loc 1 88 0
ARM GAS  /var/folders/6q/x_mk5n_j3p7_c40r_2k_78980000gn/T//cc5RWwhR.s 			page 13


 685 000c 9146     		mov	r9, r2
 686 000e 9846     		mov	r8, r3
 687 0010 BDF92070 		ldrsh	r7, [sp, #32]
 688              		.loc 1 97 0
 689 0014 FFF7FEFF 		bl	chHeapAlloc
 690              	.LVL85:
 691              		.loc 1 104 0
 692 0018 0025     		movs	r5, #0
 693              		.loc 1 112 0
 694 001a 0023     		movs	r3, #0
 695              		.loc 1 97 0
 696 001c 0446     		mov	r4, r0
 697              	.LVL86:
 698              		.loc 1 101 0
 699 001e C0F804A0 		str	r10, [r0, #4]	@ float
 700              		.loc 1 102 0
 701 0022 8660     		str	r6, [r0, #8]	@ float
 702              		.loc 1 103 0
 703 0024 C0F80C90 		str	r9, [r0, #12]	@ float
 704              		.loc 1 112 0
 705 0028 4386     		strh	r3, [r0, #50]	@ movhi
 706              		.loc 1 104 0
 707 002a 0561     		str	r5, [r0, #16]	@ float
 708              		.loc 1 107 0
 709 002c 4561     		str	r5, [r0, #20]	@ float
 710              		.loc 1 108 0
 711 002e 8561     		str	r5, [r0, #24]	@ float
 712              		.loc 1 109 0
 713 0030 C561     		str	r5, [r0, #28]	@ float
 714              		.loc 1 110 0
 715 0032 4562     		str	r5, [r0, #36]	@ float
 716              		.loc 1 111 0
 717 0034 C562     		str	r5, [r0, #44]	@ float
 718              		.loc 1 113 0
 719 0036 2946     		mov	r1, r5
 720 0038 3046     		mov	r0, r6
 721              	.LVL87:
 722 003a FFF7FEFF 		bl	__aeabi_fcmpeq
 723              	.LVL88:
 724 003e A0B9     		cbnz	r0, .L74
 725              		.loc 1 114 0
 726 0040 3146     		mov	r1, r6
 727 0042 4FF07A50 		mov	r0, #1048576000
 728 0046 FFF7FEFF 		bl	__aeabi_fdiv
 729              	.LVL89:
 730 004a 2062     		str	r0, [r4, #32]	@ float
 731              	.L72:
 732              		.loc 1 118 0
 733 004c 0849     		ldr	r1, .L76
 734              		.loc 1 123 0
 735 004e 0023     		movs	r3, #0
 736              		.loc 1 130 0
 737 0050 0122     		movs	r2, #1
 738              		.loc 1 121 0
 739 0052 84F83480 		strb	r8, [r4, #52]
 740              		.loc 1 122 0
 741 0056 E786     		strh	r7, [r4, #54]	@ movhi
ARM GAS  /var/folders/6q/x_mk5n_j3p7_c40r_2k_78980000gn/T//cc5RWwhR.s 			page 14


 742              		.loc 1 118 0
 743 0058 A162     		str	r1, [r4, #40]	@ float
 744              		.loc 1 123 0
 745 005a A363     		str	r3, [r4, #56]
 746              		.loc 1 125 0
 747 005c E363     		str	r3, [r4, #60]
 748              		.loc 1 130 0
 749 005e 2280     		strh	r2, [r4]	@ movhi
 750              		.loc 1 134 0
 751 0060 FFF7FEFF 		bl	PidControllerMakeLut
 752              	.LVL90:
 753              		.loc 1 137 0
 754 0064 2046     		mov	r0, r4
 755 0066 BDE8F087 		pop	{r4, r5, r6, r7, r8, r9, r10, pc}
 756              	.LVL91:
 757              	.L74:
 758              		.loc 1 116 0
 759 006a 2562     		str	r5, [r4, #32]	@ float
 760 006c EEE7     		b	.L72
 761              	.L77:
 762 006e 00BF     		.align	2
 763              	.L76:
 764 0070 00002041 		.word	1092616192
 765              		.cfi_endproc
 766              	.LFE69:
 767              		.size	PidControllerInit, .-PidControllerInit
 768              		.section	.text.PidControllerInitWithBias,"ax",%progbits
 769              		.align	2
 770              		.p2align 4,,15
 771              		.global	PidControllerInitWithBias
 772              		.thumb
 773              		.thumb_func
 774              		.type	PidControllerInitWithBias, %function
 775              	PidControllerInitWithBias:
 776              	.LFB70:
 777              		.loc 1 145 0
 778              		.cfi_startproc
 779              		@ args = 8, pretend = 0, frame = 0
 780              		@ frame_needed = 0, uses_anonymous_args = 0
 781              	.LVL92:
 782 0000 70B5     		push	{r4, r5, r6, lr}
 783              		.cfi_def_cfa_offset 16
 784              		.cfi_offset 4, -16
 785              		.cfi_offset 5, -12
 786              		.cfi_offset 6, -8
 787              		.cfi_offset 14, -4
 788 0002 82B0     		sub	sp, sp, #8
 789              		.cfi_def_cfa_offset 24
 790              		.loc 1 145 0
 791 0004 9DF91840 		ldrsb	r4, [sp, #24]
 792 0008 BDF91C50 		ldrsh	r5, [sp, #28]
 793 000c 1E46     		mov	r6, r3
 794              		.loc 1 147 0
 795 000e 0095     		str	r5, [sp]
 796 0010 2346     		mov	r3, r4
 797              	.LVL93:
 798 0012 FFF7FEFF 		bl	PidControllerInit
ARM GAS  /var/folders/6q/x_mk5n_j3p7_c40r_2k_78980000gn/T//cc5RWwhR.s 			page 15


 799              	.LVL94:
 800              		.loc 1 148 0
 801 0016 00B1     		cbz	r0, .L79
 802              		.loc 1 149 0
 803 0018 0661     		str	r6, [r0, #16]	@ float
 804              	.L79:
 805              		.loc 1 152 0
 806 001a 02B0     		add	sp, sp, #8
 807              		.cfi_def_cfa_offset 16
 808              		@ sp needed
 809 001c 70BD     		pop	{r4, r5, r6, pc}
 810              		.cfi_endproc
 811              	.LFE70:
 812              		.size	PidControllerInitWithBias, .-PidControllerInitWithBias
 813 001e 00BF     		.section	.bss.PidDriveLut,"aw",%nobits
 814              		.align	2
 815              		.set	.LANCHOR0,. + 0
 816              		.type	PidDriveLut, %object
 817              		.size	PidDriveLut, 256
 818              	PidDriveLut:
 819 0000 00000000 		.space	256
 819      00000000 
 819      00000000 
 819      00000000 
 819      00000000 
 820              		.text
 821              	.Letext0:
 822              		.file 3 "/Users/Luca/src/vexilla/src/gcc-arm-none-eabi-5_4-2016q3/arm-none-eabi/include/machine/_d
 823              		.file 4 "/Users/Luca/src/vexilla/src/gcc-arm-none-eabi-5_4-2016q3/arm-none-eabi/include/sys/_stdin
 824              		.file 5 "../convex-vexilla/cortex/fw/vexsensor.h"
 825              		.file 6 "../convex-vexilla/cortex/opt/pidlib.h"
 826              		.file 7 "../ChibiOS/os/kernel/include/chheap.h"
 827              		.file 8 "../ChibiOS/os/ports/common/ARMCMx/CMSIS/include/core_cm3.h"
 828              		.section	.debug_info,"",%progbits
 829              	.Ldebug_info0:
 830 0000 6A060000 		.4byte	0x66a
 831 0004 0400     		.2byte	0x4
 832 0006 00000000 		.4byte	.Ldebug_abbrev0
 833 000a 04       		.byte	0x4
 834 000b 01       		.uleb128 0x1
 835 000c 8B000000 		.4byte	.LASF82
 836 0010 0C       		.byte	0xc
 837 0011 65010000 		.4byte	.LASF83
 838 0015 9A030000 		.4byte	.LASF84
 839 0019 A0000000 		.4byte	.Ldebug_ranges0+0xa0
 840 001d 00000000 		.4byte	0
 841 0021 00000000 		.4byte	.Ldebug_line0
 842 0025 02       		.uleb128 0x2
 843 0026 04       		.byte	0x4
 844 0027 04       		.byte	0x4
 845 0028 11020000 		.4byte	.LASF0
 846 002c 02       		.uleb128 0x2
 847 002d 02       		.byte	0x2
 848 002e 05       		.byte	0x5
 849 002f 56020000 		.4byte	.LASF1
 850 0033 02       		.uleb128 0x2
 851 0034 04       		.byte	0x4
ARM GAS  /var/folders/6q/x_mk5n_j3p7_c40r_2k_78980000gn/T//cc5RWwhR.s 			page 16


 852 0035 07       		.byte	0x7
 853 0036 F5020000 		.4byte	.LASF2
 854 003a 03       		.uleb128 0x3
 855 003b 04       		.byte	0x4
 856 003c 05       		.byte	0x5
 857 003d 696E7400 		.ascii	"int\000"
 858 0041 02       		.uleb128 0x2
 859 0042 08       		.byte	0x8
 860 0043 05       		.byte	0x5
 861 0044 23020000 		.4byte	.LASF3
 862 0048 02       		.uleb128 0x2
 863 0049 08       		.byte	0x8
 864 004a 04       		.byte	0x4
 865 004b 84020000 		.4byte	.LASF4
 866 004f 02       		.uleb128 0x2
 867 0050 01       		.byte	0x1
 868 0051 06       		.byte	0x6
 869 0052 AE020000 		.4byte	.LASF5
 870 0056 02       		.uleb128 0x2
 871 0057 01       		.byte	0x1
 872 0058 08       		.byte	0x8
 873 0059 90020000 		.4byte	.LASF6
 874 005d 04       		.uleb128 0x4
 875 005e AC040000 		.4byte	.LASF8
 876 0062 03       		.byte	0x3
 877 0063 29       		.byte	0x29
 878 0064 2C000000 		.4byte	0x2c
 879 0068 02       		.uleb128 0x2
 880 0069 02       		.byte	0x2
 881 006a 07       		.byte	0x7
 882 006b 2C030000 		.4byte	.LASF7
 883 006f 04       		.uleb128 0x4
 884 0070 9A040000 		.4byte	.LASF9
 885 0074 03       		.byte	0x3
 886 0075 3F       		.byte	0x3f
 887 0076 7A000000 		.4byte	0x7a
 888 007a 02       		.uleb128 0x2
 889 007b 04       		.byte	0x4
 890 007c 05       		.byte	0x5
 891 007d 31020000 		.4byte	.LASF10
 892 0081 04       		.uleb128 0x4
 893 0082 6D000000 		.4byte	.LASF11
 894 0086 03       		.byte	0x3
 895 0087 41       		.byte	0x41
 896 0088 8C000000 		.4byte	0x8c
 897 008c 02       		.uleb128 0x2
 898 008d 04       		.byte	0x4
 899 008e 07       		.byte	0x7
 900 008f 11030000 		.4byte	.LASF12
 901 0093 02       		.uleb128 0x2
 902 0094 08       		.byte	0x8
 903 0095 07       		.byte	0x7
 904 0096 BA020000 		.4byte	.LASF13
 905 009a 02       		.uleb128 0x2
 906 009b 04       		.byte	0x4
 907 009c 07       		.byte	0x7
 908 009d 4C000000 		.4byte	.LASF14
ARM GAS  /var/folders/6q/x_mk5n_j3p7_c40r_2k_78980000gn/T//cc5RWwhR.s 			page 17


 909 00a1 02       		.uleb128 0x2
 910 00a2 01       		.byte	0x1
 911 00a3 08       		.byte	0x8
 912 00a4 5E030000 		.4byte	.LASF15
 913 00a8 02       		.uleb128 0x2
 914 00a9 08       		.byte	0x8
 915 00aa 04       		.byte	0x4
 916 00ab 93040000 		.4byte	.LASF16
 917 00af 04       		.uleb128 0x4
 918 00b0 BC030000 		.4byte	.LASF17
 919 00b4 04       		.byte	0x4
 920 00b5 20       		.byte	0x20
 921 00b6 5D000000 		.4byte	0x5d
 922 00ba 04       		.uleb128 0x4
 923 00bb 78030000 		.4byte	.LASF18
 924 00bf 04       		.byte	0x4
 925 00c0 2C       		.byte	0x2c
 926 00c1 6F000000 		.4byte	0x6f
 927 00c5 04       		.uleb128 0x4
 928 00c6 DA020000 		.4byte	.LASF19
 929 00ca 04       		.byte	0x4
 930 00cb 30       		.byte	0x30
 931 00cc 81000000 		.4byte	0x81
 932 00d0 02       		.uleb128 0x2
 933 00d1 01       		.byte	0x1
 934 00d2 02       		.byte	0x2
 935 00d3 C4030000 		.4byte	.LASF20
 936 00d7 05       		.uleb128 0x5
 937 00d8 AF000000 		.4byte	0xaf
 938 00dc 06       		.uleb128 0x6
 939 00dd BA000000 		.4byte	0xba
 940 00e1 07       		.uleb128 0x7
 941 00e2 01       		.byte	0x1
 942 00e3 4F000000 		.4byte	0x4f
 943 00e7 05       		.byte	0x5
 944 00e8 3C       		.byte	0x3c
 945 00e9 9C010000 		.4byte	0x19c
 946 00ed 08       		.uleb128 0x8
 947 00ee CB040000 		.4byte	.LASF21
 948 00f2 7F       		.sleb128 -1
 949 00f3 09       		.uleb128 0x9
 950 00f4 E3030000 		.4byte	.LASF22
 951 00f8 00       		.byte	0
 952 00f9 09       		.uleb128 0x9
 953 00fa F6030000 		.4byte	.LASF23
 954 00fe 01       		.byte	0x1
 955 00ff 09       		.uleb128 0x9
 956 0100 09040000 		.4byte	.LASF24
 957 0104 02       		.byte	0x2
 958 0105 09       		.uleb128 0x9
 959 0106 1C040000 		.4byte	.LASF25
 960 010a 03       		.byte	0x3
 961 010b 09       		.uleb128 0x9
 962 010c 2F040000 		.4byte	.LASF26
 963 0110 04       		.byte	0x4
 964 0111 09       		.uleb128 0x9
 965 0112 42040000 		.4byte	.LASF27
ARM GAS  /var/folders/6q/x_mk5n_j3p7_c40r_2k_78980000gn/T//cc5RWwhR.s 			page 18


 966 0116 05       		.byte	0x5
 967 0117 09       		.uleb128 0x9
 968 0118 55040000 		.4byte	.LASF28
 969 011c 06       		.byte	0x6
 970 011d 09       		.uleb128 0x9
 971 011e 3A020000 		.4byte	.LASF29
 972 0122 07       		.byte	0x7
 973 0123 09       		.uleb128 0x9
 974 0124 12050000 		.4byte	.LASF30
 975 0128 08       		.byte	0x8
 976 0129 09       		.uleb128 0x9
 977 012a 26050000 		.4byte	.LASF31
 978 012e 09       		.byte	0x9
 979 012f 09       		.uleb128 0x9
 980 0130 3A050000 		.4byte	.LASF32
 981 0134 0A       		.byte	0xa
 982 0135 09       		.uleb128 0x9
 983 0136 4E050000 		.4byte	.LASF33
 984 013a 0B       		.byte	0xb
 985 013b 09       		.uleb128 0x9
 986 013c 62050000 		.4byte	.LASF34
 987 0140 0C       		.byte	0xc
 988 0141 09       		.uleb128 0x9
 989 0142 76050000 		.4byte	.LASF35
 990 0146 0D       		.byte	0xd
 991 0147 09       		.uleb128 0x9
 992 0148 8A050000 		.4byte	.LASF36
 993 014c 0E       		.byte	0xe
 994 014d 09       		.uleb128 0x9
 995 014e 9E050000 		.4byte	.LASF37
 996 0152 0F       		.byte	0xf
 997 0153 09       		.uleb128 0x9
 998 0154 B2050000 		.4byte	.LASF38
 999 0158 10       		.byte	0x10
 1000 0159 09       		.uleb128 0x9
 1001 015a FD040000 		.4byte	.LASF39
 1002 015e 11       		.byte	0x11
 1003 015f 09       		.uleb128 0x9
 1004 0160 22000000 		.4byte	.LASF40
 1005 0164 12       		.byte	0x12
 1006 0165 09       		.uleb128 0x9
 1007 0166 37000000 		.4byte	.LASF41
 1008 016a 13       		.byte	0x13
 1009 016b 09       		.uleb128 0x9
 1010 016c 9A010000 		.4byte	.LASF42
 1011 0170 14       		.byte	0x14
 1012 0171 09       		.uleb128 0x9
 1013 0172 AA010000 		.4byte	.LASF43
 1014 0176 15       		.byte	0x15
 1015 0177 09       		.uleb128 0x9
 1016 0178 68040000 		.4byte	.LASF44
 1017 017c 16       		.byte	0x16
 1018 017d 09       		.uleb128 0x9
 1019 017e 78040000 		.4byte	.LASF45
 1020 0182 17       		.byte	0x17
 1021 0183 09       		.uleb128 0x9
 1022 0184 D1010000 		.4byte	.LASF46
ARM GAS  /var/folders/6q/x_mk5n_j3p7_c40r_2k_78980000gn/T//cc5RWwhR.s 			page 19


 1023 0188 18       		.byte	0x18
 1024 0189 09       		.uleb128 0x9
 1025 018a E1010000 		.4byte	.LASF47
 1026 018e 19       		.byte	0x19
 1027 018f 09       		.uleb128 0x9
 1028 0190 F1010000 		.4byte	.LASF48
 1029 0194 1A       		.byte	0x1a
 1030 0195 09       		.uleb128 0x9
 1031 0196 01020000 		.4byte	.LASF49
 1032 019a 1B       		.byte	0x1b
 1033 019b 00       		.byte	0
 1034 019c 04       		.uleb128 0x4
 1035 019d 46030000 		.4byte	.LASF50
 1036 01a1 05       		.byte	0x5
 1037 01a2 64       		.byte	0x64
 1038 01a3 E1000000 		.4byte	0xe1
 1039 01a7 0A       		.uleb128 0xa
 1040 01a8 8B010000 		.4byte	.LASF85
 1041 01ac 40       		.byte	0x40
 1042 01ad 06       		.byte	0x6
 1043 01ae 44       		.byte	0x44
 1044 01af 95020000 		.4byte	0x295
 1045 01b3 0B       		.uleb128 0xb
 1046 01b4 A4040000 		.4byte	.LASF51
 1047 01b8 06       		.byte	0x6
 1048 01b9 46       		.byte	0x46
 1049 01ba AF000000 		.4byte	0xaf
 1050 01be 00       		.byte	0
 1051 01bf 0B       		.uleb128 0xb
 1052 01c0 DF040000 		.4byte	.LASF52
 1053 01c4 06       		.byte	0x6
 1054 01c5 47       		.byte	0x47
 1055 01c6 AF000000 		.4byte	0xaf
 1056 01ca 02       		.byte	0x2
 1057 01cb 0C       		.uleb128 0xc
 1058 01cc 4B7000   		.ascii	"Kp\000"
 1059 01cf 06       		.byte	0x6
 1060 01d0 4A       		.byte	0x4a
 1061 01d1 25000000 		.4byte	0x25
 1062 01d5 04       		.byte	0x4
 1063 01d6 0C       		.uleb128 0xc
 1064 01d7 4B6900   		.ascii	"Ki\000"
 1065 01da 06       		.byte	0x6
 1066 01db 4B       		.byte	0x4b
 1067 01dc 25000000 		.4byte	0x25
 1068 01e0 08       		.byte	0x8
 1069 01e1 0C       		.uleb128 0xc
 1070 01e2 4B6400   		.ascii	"Kd\000"
 1071 01e5 06       		.byte	0x6
 1072 01e6 4C       		.byte	0x4c
 1073 01e7 25000000 		.4byte	0x25
 1074 01eb 0C       		.byte	0xc
 1075 01ec 0B       		.uleb128 0xb
 1076 01ed F7040000 		.4byte	.LASF53
 1077 01f1 06       		.byte	0x6
 1078 01f2 4D       		.byte	0x4d
 1079 01f3 25000000 		.4byte	0x25
ARM GAS  /var/folders/6q/x_mk5n_j3p7_c40r_2k_78980000gn/T//cc5RWwhR.s 			page 20


 1080 01f7 10       		.byte	0x10
 1081 01f8 0B       		.uleb128 0xb
 1082 01f9 C5040000 		.4byte	.LASF54
 1083 01fd 06       		.byte	0x6
 1084 01fe 50       		.byte	0x50
 1085 01ff 25000000 		.4byte	0x25
 1086 0203 14       		.byte	0x14
 1087 0204 0B       		.uleb128 0xb
 1088 0205 88040000 		.4byte	.LASF55
 1089 0209 06       		.byte	0x6
 1090 020a 51       		.byte	0x51
 1091 020b 25000000 		.4byte	0x25
 1092 020f 18       		.byte	0x18
 1093 0210 0B       		.uleb128 0xb
 1094 0211 4D020000 		.4byte	.LASF56
 1095 0215 06       		.byte	0x6
 1096 0216 52       		.byte	0x52
 1097 0217 25000000 		.4byte	0x25
 1098 021b 1C       		.byte	0x1c
 1099 021c 0B       		.uleb128 0xb
 1100 021d 02030000 		.4byte	.LASF57
 1101 0221 06       		.byte	0x6
 1102 0222 53       		.byte	0x53
 1103 0223 25000000 		.4byte	0x25
 1104 0227 20       		.byte	0x20
 1105 0228 0B       		.uleb128 0xb
 1106 0229 78000000 		.4byte	.LASF58
 1107 022d 06       		.byte	0x6
 1108 022e 54       		.byte	0x54
 1109 022f 25000000 		.4byte	0x25
 1110 0233 24       		.byte	0x24
 1111 0234 0B       		.uleb128 0xb
 1112 0235 9E020000 		.4byte	.LASF59
 1113 0239 06       		.byte	0x6
 1114 023a 55       		.byte	0x55
 1115 023b 25000000 		.4byte	0x25
 1116 023f 28       		.byte	0x28
 1117 0240 0B       		.uleb128 0xb
 1118 0241 60020000 		.4byte	.LASF60
 1119 0245 06       		.byte	0x6
 1120 0246 58       		.byte	0x58
 1121 0247 25000000 		.4byte	0x25
 1122 024b 2C       		.byte	0x2c
 1123 024c 0B       		.uleb128 0xb
 1124 024d BA010000 		.4byte	.LASF61
 1125 0251 06       		.byte	0x6
 1126 0252 59       		.byte	0x59
 1127 0253 AF000000 		.4byte	0xaf
 1128 0257 30       		.byte	0x30
 1129 0258 0B       		.uleb128 0xb
 1130 0259 55000000 		.4byte	.LASF62
 1131 025d 06       		.byte	0x6
 1132 025e 5A       		.byte	0x5a
 1133 025f AF000000 		.4byte	0xaf
 1134 0263 32       		.byte	0x32
 1135 0264 0B       		.uleb128 0xb
 1136 0265 66020000 		.4byte	.LASF63
ARM GAS  /var/folders/6q/x_mk5n_j3p7_c40r_2k_78980000gn/T//cc5RWwhR.s 			page 21


 1137 0269 06       		.byte	0x6
 1138 026a 5C       		.byte	0x5c
 1139 026b 9C010000 		.4byte	0x19c
 1140 026f 34       		.byte	0x34
 1141 0270 0B       		.uleb128 0xb
 1142 0271 B6040000 		.4byte	.LASF64
 1143 0275 06       		.byte	0x6
 1144 0276 5D       		.byte	0x5d
 1145 0277 AF000000 		.4byte	0xaf
 1146 027b 36       		.byte	0x36
 1147 027c 0B       		.uleb128 0xb
 1148 027d C4010000 		.4byte	.LASF65
 1149 0281 06       		.byte	0x6
 1150 0282 5E       		.byte	0x5e
 1151 0283 BA000000 		.4byte	0xba
 1152 0287 38       		.byte	0x38
 1153 0288 0B       		.uleb128 0xb
 1154 0289 00000000 		.4byte	.LASF66
 1155 028d 06       		.byte	0x6
 1156 028e 60       		.byte	0x60
 1157 028f BA000000 		.4byte	0xba
 1158 0293 3C       		.byte	0x3c
 1159 0294 00       		.byte	0
 1160 0295 04       		.uleb128 0x4
 1161 0296 5F000000 		.4byte	.LASF67
 1162 029a 06       		.byte	0x6
 1163 029b 61       		.byte	0x61
 1164 029c A7010000 		.4byte	0x1a7
 1165 02a0 0D       		.uleb128 0xd
 1166 02a1 D1020000 		.4byte	.LASF70
 1167 02a5 02       		.byte	0x2
 1168 02a6 3B       		.byte	0x3b
 1169 02a7 25000000 		.4byte	0x25
 1170 02ab 03       		.byte	0x3
 1171 02ac 06030000 		.4byte	0x306
 1172 02b0 0E       		.uleb128 0xe
 1173 02b1 7000     		.ascii	"p\000"
 1174 02b3 02       		.byte	0x2
 1175 02b4 3B       		.byte	0x3b
 1176 02b5 25000000 		.4byte	0x25
 1177 02b9 0F       		.uleb128 0xf
 1178 02ba 3F030000 		.4byte	.LASF68
 1179 02be 02       		.byte	0x2
 1180 02bf 3D       		.byte	0x3d
 1181 02c0 25000000 		.4byte	0x25
 1182 02c4 0F       		.uleb128 0xf
 1183 02c5 F1040000 		.4byte	.LASF69
 1184 02c9 02       		.byte	0x2
 1185 02ca 3E       		.byte	0x3e
 1186 02cb 25000000 		.4byte	0x25
 1187 02cf 10       		.uleb128 0x10
 1188 02d0 7700     		.ascii	"w\000"
 1189 02d2 02       		.byte	0x2
 1190 02d3 3F       		.byte	0x3f
 1191 02d4 3A000000 		.4byte	0x3a
 1192 02d8 10       		.uleb128 0x10
 1193 02d9 7A00     		.ascii	"z\000"
ARM GAS  /var/folders/6q/x_mk5n_j3p7_c40r_2k_78980000gn/T//cc5RWwhR.s 			page 22


 1194 02db 02       		.byte	0x2
 1195 02dc 40       		.byte	0x40
 1196 02dd 25000000 		.4byte	0x25
 1197 02e1 11       		.uleb128 0x11
 1198 02e2 04       		.byte	0x4
 1199 02e3 02       		.byte	0x2
 1200 02e4 41       		.byte	0x41
 1201 02e5 FC020000 		.4byte	0x2fc
 1202 02e9 12       		.uleb128 0x12
 1203 02ea 6900     		.ascii	"i\000"
 1204 02ec 02       		.byte	0x2
 1205 02ed 41       		.byte	0x41
 1206 02ee C5000000 		.4byte	0xc5
 1207 02f2 12       		.uleb128 0x12
 1208 02f3 6600     		.ascii	"f\000"
 1209 02f5 02       		.byte	0x2
 1210 02f6 41       		.byte	0x41
 1211 02f7 25000000 		.4byte	0x25
 1212 02fb 00       		.byte	0
 1213 02fc 10       		.uleb128 0x10
 1214 02fd 7600     		.ascii	"v\000"
 1215 02ff 02       		.byte	0x2
 1216 0300 41       		.byte	0x41
 1217 0301 E1020000 		.4byte	0x2e1
 1218 0305 00       		.byte	0
 1219 0306 0D       		.uleb128 0xd
 1220 0307 23030000 		.4byte	.LASF71
 1221 030b 02       		.byte	0x2
 1222 030c 47       		.byte	0x47
 1223 030d 25000000 		.4byte	0x25
 1224 0311 03       		.byte	0x3
 1225 0312 73030000 		.4byte	0x373
 1226 0316 0E       		.uleb128 0xe
 1227 0317 7800     		.ascii	"x\000"
 1228 0319 02       		.byte	0x2
 1229 031a 47       		.byte	0x47
 1230 031b 25000000 		.4byte	0x25
 1231 031f 11       		.uleb128 0x11
 1232 0320 04       		.byte	0x4
 1233 0321 02       		.byte	0x2
 1234 0322 49       		.byte	0x49
 1235 0323 3A030000 		.4byte	0x33a
 1236 0327 12       		.uleb128 0x12
 1237 0328 6600     		.ascii	"f\000"
 1238 032a 02       		.byte	0x2
 1239 032b 49       		.byte	0x49
 1240 032c 25000000 		.4byte	0x25
 1241 0330 12       		.uleb128 0x12
 1242 0331 6900     		.ascii	"i\000"
 1243 0333 02       		.byte	0x2
 1244 0334 49       		.byte	0x49
 1245 0335 C5000000 		.4byte	0xc5
 1246 0339 00       		.byte	0
 1247 033a 10       		.uleb128 0x10
 1248 033b 767800   		.ascii	"vx\000"
 1249 033e 02       		.byte	0x2
 1250 033f 49       		.byte	0x49
ARM GAS  /var/folders/6q/x_mk5n_j3p7_c40r_2k_78980000gn/T//cc5RWwhR.s 			page 23


 1251 0340 1F030000 		.4byte	0x31f
 1252 0344 11       		.uleb128 0x11
 1253 0345 04       		.byte	0x4
 1254 0346 02       		.byte	0x2
 1255 0347 4A       		.byte	0x4a
 1256 0348 5F030000 		.4byte	0x35f
 1257 034c 12       		.uleb128 0x12
 1258 034d 6900     		.ascii	"i\000"
 1259 034f 02       		.byte	0x2
 1260 0350 4A       		.byte	0x4a
 1261 0351 C5000000 		.4byte	0xc5
 1262 0355 12       		.uleb128 0x12
 1263 0356 6600     		.ascii	"f\000"
 1264 0358 02       		.byte	0x2
 1265 0359 4A       		.byte	0x4a
 1266 035a 25000000 		.4byte	0x25
 1267 035e 00       		.byte	0
 1268 035f 10       		.uleb128 0x10
 1269 0360 6D7800   		.ascii	"mx\000"
 1270 0363 02       		.byte	0x2
 1271 0364 4A       		.byte	0x4a
 1272 0365 44030000 		.4byte	0x344
 1273 0369 10       		.uleb128 0x10
 1274 036a 7900     		.ascii	"y\000"
 1275 036c 02       		.byte	0x2
 1276 036d 4B       		.byte	0x4b
 1277 036e 25000000 		.4byte	0x25
 1278 0372 00       		.byte	0
 1279 0373 13       		.uleb128 0x13
 1280 0374 73676E00 		.ascii	"sgn\000"
 1281 0378 01       		.byte	0x1
 1282 0379 48       		.byte	0x48
 1283 037a 25000000 		.4byte	0x25
 1284 037e 03       		.byte	0x3
 1285 037f 8D030000 		.4byte	0x38d
 1286 0383 0E       		.uleb128 0xe
 1287 0384 7800     		.ascii	"x\000"
 1288 0386 01       		.byte	0x1
 1289 0387 48       		.byte	0x48
 1290 0388 25000000 		.4byte	0x25
 1291 038c 00       		.byte	0
 1292 038d 0D       		.uleb128 0xd
 1293 038e 83000000 		.4byte	.LASF72
 1294 0392 02       		.byte	0x2
 1295 0393 5A       		.byte	0x5a
 1296 0394 25000000 		.4byte	0x25
 1297 0398 03       		.byte	0x3
 1298 0399 B0030000 		.4byte	0x3b0
 1299 039d 0E       		.uleb128 0xe
 1300 039e 7800     		.ascii	"x\000"
 1301 03a0 02       		.byte	0x2
 1302 03a1 5A       		.byte	0x5a
 1303 03a2 25000000 		.4byte	0x25
 1304 03a6 0E       		.uleb128 0xe
 1305 03a7 7000     		.ascii	"p\000"
 1306 03a9 02       		.byte	0x2
 1307 03aa 5B       		.byte	0x5b
ARM GAS  /var/folders/6q/x_mk5n_j3p7_c40r_2k_78980000gn/T//cc5RWwhR.s 			page 24


 1308 03ab 25000000 		.4byte	0x25
 1309 03af 00       		.byte	0
 1310 03b0 14       		.uleb128 0x14
 1311 03b1 CA030000 		.4byte	.LASF73
 1312 03b5 01       		.byte	0x1
 1313 03b6 9F       		.byte	0x9f
 1314 03b7 AF000000 		.4byte	0xaf
 1315 03bb 00000000 		.4byte	.LFB71
 1316 03bf 00020000 		.4byte	.LFE71-.LFB71
 1317 03c3 01       		.uleb128 0x1
 1318 03c4 9C       		.byte	0x9c
 1319 03c5 40040000 		.4byte	0x440
 1320 03c9 15       		.uleb128 0x15
 1321 03ca 7000     		.ascii	"p\000"
 1322 03cc 01       		.byte	0x1
 1323 03cd 9F       		.byte	0x9f
 1324 03ce 40040000 		.4byte	0x440
 1325 03d2 00000000 		.4byte	.LLST0
 1326 03d6 16       		.uleb128 0x16
 1327 03d7 73030000 		.4byte	0x373
 1328 03db 66000000 		.4byte	.LBB18
 1329 03df 00000000 		.4byte	.Ldebug_ranges0+0
 1330 03e3 01       		.byte	0x1
 1331 03e4 C6       		.byte	0xc6
 1332 03e5 F3030000 		.4byte	0x3f3
 1333 03e9 17       		.uleb128 0x17
 1334 03ea 83030000 		.4byte	0x383
 1335 03ee 4A000000 		.4byte	.LLST1
 1336 03f2 00       		.byte	0
 1337 03f3 16       		.uleb128 0x16
 1338 03f4 73030000 		.4byte	0x373
 1339 03f8 DE000000 		.4byte	.LBB21
 1340 03fc 18000000 		.4byte	.Ldebug_ranges0+0x18
 1341 0400 01       		.byte	0x1
 1342 0401 D4       		.byte	0xd4
 1343 0402 10040000 		.4byte	0x410
 1344 0406 17       		.uleb128 0x17
 1345 0407 83030000 		.4byte	0x383
 1346 040b 68000000 		.4byte	.LLST2
 1347 040f 00       		.byte	0
 1348 0410 16       		.uleb128 0x16
 1349 0411 73030000 		.4byte	0x373
 1350 0415 0E010000 		.4byte	.LBB25
 1351 0419 38000000 		.4byte	.Ldebug_ranges0+0x38
 1352 041d 01       		.byte	0x1
 1353 041e E6       		.byte	0xe6
 1354 041f 2D040000 		.4byte	0x42d
 1355 0423 17       		.uleb128 0x17
 1356 0424 83030000 		.4byte	0x383
 1357 0428 91000000 		.4byte	.LLST3
 1358 042c 00       		.byte	0
 1359 042d 18       		.uleb128 0x18
 1360 042e 60010000 		.4byte	.LVL35
 1361 0432 4C060000 		.4byte	0x64c
 1362 0436 18       		.uleb128 0x18
 1363 0437 8E010000 		.4byte	.LVL39
 1364 043b 57060000 		.4byte	0x657
ARM GAS  /var/folders/6q/x_mk5n_j3p7_c40r_2k_78980000gn/T//cc5RWwhR.s 			page 25


 1365 043f 00       		.byte	0
 1366 0440 19       		.uleb128 0x19
 1367 0441 04       		.byte	0x4
 1368 0442 95020000 		.4byte	0x295
 1369 0446 1A       		.uleb128 0x1a
 1370 0447 63030000 		.4byte	.LASF86
 1371 044b 01       		.byte	0x1
 1372 044c F2       		.byte	0xf2
 1373 044d 00000000 		.4byte	.LFB72
 1374 0451 1C010000 		.4byte	.LFE72-.LFB72
 1375 0455 01       		.uleb128 0x1
 1376 0456 9C       		.byte	0x9c
 1377 0457 D6040000 		.4byte	0x4d6
 1378 045b 1B       		.uleb128 0x1b
 1379 045c 6900     		.ascii	"i\000"
 1380 045e 01       		.byte	0x1
 1381 045f F4       		.byte	0xf4
 1382 0460 AF000000 		.4byte	0xaf
 1383 0464 A9000000 		.4byte	.LLST4
 1384 0468 10       		.uleb128 0x10
 1385 0469 7800     		.ascii	"x\000"
 1386 046b 01       		.byte	0x1
 1387 046c F5       		.byte	0xf5
 1388 046d 25000000 		.4byte	0x25
 1389 0471 1C       		.uleb128 0x1c
 1390 0472 8D030000 		.4byte	0x38d
 1391 0476 0A000000 		.4byte	.LBB38
 1392 047a 68000000 		.4byte	.Ldebug_ranges0+0x68
 1393 047e 01       		.byte	0x1
 1394 047f FC       		.byte	0xfc
 1395 0480 17       		.uleb128 0x17
 1396 0481 A6030000 		.4byte	0x3a6
 1397 0485 D3000000 		.4byte	.LLST5
 1398 0489 17       		.uleb128 0x17
 1399 048a 9D030000 		.4byte	0x39d
 1400 048e 0D010000 		.4byte	.LLST6
 1401 0492 1C       		.uleb128 0x1c
 1402 0493 A0020000 		.4byte	0x2a0
 1403 0497 0A000000 		.4byte	.LBB40
 1404 049b 80000000 		.4byte	.Ldebug_ranges0+0x80
 1405 049f 02       		.byte	0x2
 1406 04a0 5D       		.byte	0x5d
 1407 04a1 17       		.uleb128 0x17
 1408 04a2 B0020000 		.4byte	0x2b0
 1409 04a6 35010000 		.4byte	.LLST7
 1410 04aa 1D       		.uleb128 0x1d
 1411 04ab 80000000 		.4byte	.Ldebug_ranges0+0x80
 1412 04af 1E       		.uleb128 0x1e
 1413 04b0 B9020000 		.4byte	0x2b9
 1414 04b4 5E010000 		.4byte	.LLST8
 1415 04b8 1F       		.uleb128 0x1f
 1416 04b9 C4020000 		.4byte	0x2c4
 1417 04bd 01       		.uleb128 0x1
 1418 04be 55       		.byte	0x55
 1419 04bf 20       		.uleb128 0x20
 1420 04c0 CF020000 		.4byte	0x2cf
 1421 04c4 1E       		.uleb128 0x1e
ARM GAS  /var/folders/6q/x_mk5n_j3p7_c40r_2k_78980000gn/T//cc5RWwhR.s 			page 26


 1422 04c5 D8020000 		.4byte	0x2d8
 1423 04c9 71010000 		.4byte	.LLST9
 1424 04cd 20       		.uleb128 0x20
 1425 04ce FC020000 		.4byte	0x2fc
 1426 04d2 00       		.byte	0
 1427 04d3 00       		.byte	0
 1428 04d4 00       		.byte	0
 1429 04d5 00       		.byte	0
 1430 04d6 14       		.uleb128 0x14
 1431 04d7 72020000 		.4byte	.LASF74
 1432 04db 01       		.byte	0x1
 1433 04dc 57       		.byte	0x57
 1434 04dd 40040000 		.4byte	0x440
 1435 04e1 00000000 		.4byte	.LFB69
 1436 04e5 74000000 		.4byte	.LFE69-.LFB69
 1437 04e9 01       		.uleb128 0x1
 1438 04ea 9C       		.byte	0x9c
 1439 04eb 67050000 		.4byte	0x567
 1440 04ef 15       		.uleb128 0x15
 1441 04f0 4B7000   		.ascii	"Kp\000"
 1442 04f3 01       		.byte	0x1
 1443 04f4 57       		.byte	0x57
 1444 04f5 25000000 		.4byte	0x25
 1445 04f9 9A010000 		.4byte	.LLST10
 1446 04fd 15       		.uleb128 0x15
 1447 04fe 4B6900   		.ascii	"Ki\000"
 1448 0501 01       		.byte	0x1
 1449 0502 57       		.byte	0x57
 1450 0503 25000000 		.4byte	0x25
 1451 0507 B8010000 		.4byte	.LLST11
 1452 050b 15       		.uleb128 0x15
 1453 050c 4B6400   		.ascii	"Kd\000"
 1454 050f 01       		.byte	0x1
 1455 0510 57       		.byte	0x57
 1456 0511 25000000 		.4byte	0x25
 1457 0515 D6010000 		.4byte	.LLST12
 1458 0519 21       		.uleb128 0x21
 1459 051a DE030000 		.4byte	.LASF75
 1460 051e 01       		.byte	0x1
 1461 051f 57       		.byte	0x57
 1462 0520 9C010000 		.4byte	0x19c
 1463 0524 F4010000 		.4byte	.LLST13
 1464 0528 21       		.uleb128 0x21
 1465 0529 B6040000 		.4byte	.LASF64
 1466 052d 01       		.byte	0x1
 1467 052e 57       		.byte	0x57
 1468 052f AF000000 		.4byte	0xaf
 1469 0533 15020000 		.4byte	.LLST14
 1470 0537 1B       		.uleb128 0x1b
 1471 0538 7000     		.ascii	"p\000"
 1472 053a 01       		.byte	0x1
 1473 053b 59       		.byte	0x59
 1474 053c 40040000 		.4byte	0x440
 1475 0540 35020000 		.4byte	.LLST15
 1476 0544 22       		.uleb128 0x22
 1477 0545 18000000 		.4byte	.LVL85
 1478 0549 62060000 		.4byte	0x662
ARM GAS  /var/folders/6q/x_mk5n_j3p7_c40r_2k_78980000gn/T//cc5RWwhR.s 			page 27


 1479 054d 5D050000 		.4byte	0x55d
 1480 0551 23       		.uleb128 0x23
 1481 0552 01       		.uleb128 0x1
 1482 0553 50       		.byte	0x50
 1483 0554 01       		.uleb128 0x1
 1484 0555 30       		.byte	0x30
 1485 0556 23       		.uleb128 0x23
 1486 0557 01       		.uleb128 0x1
 1487 0558 51       		.byte	0x51
 1488 0559 02       		.uleb128 0x2
 1489 055a 08       		.byte	0x8
 1490 055b 40       		.byte	0x40
 1491 055c 00       		.byte	0
 1492 055d 18       		.uleb128 0x18
 1493 055e 64000000 		.4byte	.LVL90
 1494 0562 46040000 		.4byte	0x446
 1495 0566 00       		.byte	0
 1496 0567 24       		.uleb128 0x24
 1497 0568 80030000 		.4byte	.LASF76
 1498 056c 01       		.byte	0x1
 1499 056d 90       		.byte	0x90
 1500 056e 40040000 		.4byte	0x440
 1501 0572 00000000 		.4byte	.LFB70
 1502 0576 1E000000 		.4byte	.LFE70-.LFB70
 1503 057a 01       		.uleb128 0x1
 1504 057b 9C       		.byte	0x9c
 1505 057c 13060000 		.4byte	0x613
 1506 0580 15       		.uleb128 0x15
 1507 0581 4B7000   		.ascii	"Kp\000"
 1508 0584 01       		.byte	0x1
 1509 0585 90       		.byte	0x90
 1510 0586 25000000 		.4byte	0x25
 1511 058a 53020000 		.4byte	.LLST16
 1512 058e 15       		.uleb128 0x15
 1513 058f 4B6900   		.ascii	"Ki\000"
 1514 0592 01       		.byte	0x1
 1515 0593 90       		.byte	0x90
 1516 0594 25000000 		.4byte	0x25
 1517 0598 76020000 		.4byte	.LLST17
 1518 059c 15       		.uleb128 0x15
 1519 059d 4B6400   		.ascii	"Kd\000"
 1520 05a0 01       		.byte	0x1
 1521 05a1 90       		.byte	0x90
 1522 05a2 25000000 		.4byte	0x25
 1523 05a6 99020000 		.4byte	.LLST18
 1524 05aa 21       		.uleb128 0x21
 1525 05ab F7040000 		.4byte	.LASF53
 1526 05af 01       		.byte	0x1
 1527 05b0 90       		.byte	0x90
 1528 05b1 25000000 		.4byte	0x25
 1529 05b5 BC020000 		.4byte	.LLST19
 1530 05b9 25       		.uleb128 0x25
 1531 05ba DE030000 		.4byte	.LASF75
 1532 05be 01       		.byte	0x1
 1533 05bf 90       		.byte	0x90
 1534 05c0 9C010000 		.4byte	0x19c
 1535 05c4 02       		.uleb128 0x2
ARM GAS  /var/folders/6q/x_mk5n_j3p7_c40r_2k_78980000gn/T//cc5RWwhR.s 			page 28


 1536 05c5 91       		.byte	0x91
 1537 05c6 00       		.sleb128 0
 1538 05c7 25       		.uleb128 0x25
 1539 05c8 B6040000 		.4byte	.LASF64
 1540 05cc 01       		.byte	0x1
 1541 05cd 90       		.byte	0x90
 1542 05ce AF000000 		.4byte	0xaf
 1543 05d2 02       		.uleb128 0x2
 1544 05d3 91       		.byte	0x91
 1545 05d4 04       		.sleb128 4
 1546 05d5 26       		.uleb128 0x26
 1547 05d6 7000     		.ascii	"p\000"
 1548 05d8 01       		.byte	0x1
 1549 05d9 92       		.byte	0x92
 1550 05da 40040000 		.4byte	0x440
 1551 05de 01       		.uleb128 0x1
 1552 05df 50       		.byte	0x50
 1553 05e0 27       		.uleb128 0x27
 1554 05e1 16000000 		.4byte	.LVL94
 1555 05e5 D6040000 		.4byte	0x4d6
 1556 05e9 23       		.uleb128 0x23
 1557 05ea 01       		.uleb128 0x1
 1558 05eb 50       		.byte	0x50
 1559 05ec 05       		.uleb128 0x5
 1560 05ed F3       		.byte	0xf3
 1561 05ee 03       		.uleb128 0x3
 1562 05ef F5       		.byte	0xf5
 1563 05f0 00       		.uleb128 0
 1564 05f1 25       		.uleb128 0x25
 1565 05f2 23       		.uleb128 0x23
 1566 05f3 01       		.uleb128 0x1
 1567 05f4 51       		.byte	0x51
 1568 05f5 05       		.uleb128 0x5
 1569 05f6 F3       		.byte	0xf3
 1570 05f7 03       		.uleb128 0x3
 1571 05f8 F5       		.byte	0xf5
 1572 05f9 01       		.uleb128 0x1
 1573 05fa 25       		.uleb128 0x25
 1574 05fb 23       		.uleb128 0x23
 1575 05fc 01       		.uleb128 0x1
 1576 05fd 52       		.byte	0x52
 1577 05fe 05       		.uleb128 0x5
 1578 05ff F3       		.byte	0xf3
 1579 0600 03       		.uleb128 0x3
 1580 0601 F5       		.byte	0xf5
 1581 0602 02       		.uleb128 0x2
 1582 0603 25       		.uleb128 0x25
 1583 0604 23       		.uleb128 0x23
 1584 0605 01       		.uleb128 0x1
 1585 0606 53       		.byte	0x53
 1586 0607 02       		.uleb128 0x2
 1587 0608 74       		.byte	0x74
 1588 0609 00       		.sleb128 0
 1589 060a 23       		.uleb128 0x23
 1590 060b 02       		.uleb128 0x2
 1591 060c 7D       		.byte	0x7d
 1592 060d 00       		.sleb128 0
ARM GAS  /var/folders/6q/x_mk5n_j3p7_c40r_2k_78980000gn/T//cc5RWwhR.s 			page 29


 1593 060e 02       		.uleb128 0x2
 1594 060f 75       		.byte	0x75
 1595 0610 00       		.sleb128 0
 1596 0611 00       		.byte	0
 1597 0612 00       		.byte	0
 1598 0613 28       		.uleb128 0x28
 1599 0614 0D000000 		.4byte	.LASF77
 1600 0618 01       		.byte	0x1
 1601 0619 42       		.byte	0x42
 1602 061a D7000000 		.4byte	0xd7
 1603 061e 00       		.byte	0
 1604 061f 29       		.uleb128 0x29
 1605 0620 AF000000 		.4byte	0xaf
 1606 0624 2F060000 		.4byte	0x62f
 1607 0628 2A       		.uleb128 0x2a
 1608 0629 9A000000 		.4byte	0x9a
 1609 062d 7F       		.byte	0x7f
 1610 062e 00       		.byte	0
 1611 062f 2B       		.uleb128 0x2b
 1612 0630 52030000 		.4byte	.LASF78
 1613 0634 01       		.byte	0x1
 1614 0635 44       		.byte	0x44
 1615 0636 1F060000 		.4byte	0x61f
 1616 063a 05       		.uleb128 0x5
 1617 063b 03       		.byte	0x3
 1618 063c 00000000 		.4byte	PidDriveLut
 1619 0640 2C       		.uleb128 0x2c
 1620 0641 E4040000 		.4byte	.LASF87
 1621 0645 08       		.byte	0x8
 1622 0646 0706     		.2byte	0x607
 1623 0648 DC000000 		.4byte	0xdc
 1624 064c 2D       		.uleb128 0x2d
 1625 064d E3020000 		.4byte	.LASF79
 1626 0651 E3020000 		.4byte	.LASF79
 1627 0655 05       		.byte	0x5
 1628 0656 6B       		.byte	0x6b
 1629 0657 2D       		.uleb128 0x2d
 1630 0658 C6050000 		.4byte	.LASF80
 1631 065c C6050000 		.4byte	.LASF80
 1632 0660 05       		.byte	0x5
 1633 0661 6A       		.byte	0x6a
 1634 0662 2D       		.uleb128 0x2d
 1635 0663 17020000 		.4byte	.LASF81
 1636 0667 17020000 		.4byte	.LASF81
 1637 066b 07       		.byte	0x7
 1638 066c 59       		.byte	0x59
 1639 066d 00       		.byte	0
 1640              		.section	.debug_abbrev,"",%progbits
 1641              	.Ldebug_abbrev0:
 1642 0000 01       		.uleb128 0x1
 1643 0001 11       		.uleb128 0x11
 1644 0002 01       		.byte	0x1
 1645 0003 25       		.uleb128 0x25
 1646 0004 0E       		.uleb128 0xe
 1647 0005 13       		.uleb128 0x13
 1648 0006 0B       		.uleb128 0xb
 1649 0007 03       		.uleb128 0x3
ARM GAS  /var/folders/6q/x_mk5n_j3p7_c40r_2k_78980000gn/T//cc5RWwhR.s 			page 30


 1650 0008 0E       		.uleb128 0xe
 1651 0009 1B       		.uleb128 0x1b
 1652 000a 0E       		.uleb128 0xe
 1653 000b 55       		.uleb128 0x55
 1654 000c 17       		.uleb128 0x17
 1655 000d 11       		.uleb128 0x11
 1656 000e 01       		.uleb128 0x1
 1657 000f 10       		.uleb128 0x10
 1658 0010 17       		.uleb128 0x17
 1659 0011 00       		.byte	0
 1660 0012 00       		.byte	0
 1661 0013 02       		.uleb128 0x2
 1662 0014 24       		.uleb128 0x24
 1663 0015 00       		.byte	0
 1664 0016 0B       		.uleb128 0xb
 1665 0017 0B       		.uleb128 0xb
 1666 0018 3E       		.uleb128 0x3e
 1667 0019 0B       		.uleb128 0xb
 1668 001a 03       		.uleb128 0x3
 1669 001b 0E       		.uleb128 0xe
 1670 001c 00       		.byte	0
 1671 001d 00       		.byte	0
 1672 001e 03       		.uleb128 0x3
 1673 001f 24       		.uleb128 0x24
 1674 0020 00       		.byte	0
 1675 0021 0B       		.uleb128 0xb
 1676 0022 0B       		.uleb128 0xb
 1677 0023 3E       		.uleb128 0x3e
 1678 0024 0B       		.uleb128 0xb
 1679 0025 03       		.uleb128 0x3
 1680 0026 08       		.uleb128 0x8
 1681 0027 00       		.byte	0
 1682 0028 00       		.byte	0
 1683 0029 04       		.uleb128 0x4
 1684 002a 16       		.uleb128 0x16
 1685 002b 00       		.byte	0
 1686 002c 03       		.uleb128 0x3
 1687 002d 0E       		.uleb128 0xe
 1688 002e 3A       		.uleb128 0x3a
 1689 002f 0B       		.uleb128 0xb
 1690 0030 3B       		.uleb128 0x3b
 1691 0031 0B       		.uleb128 0xb
 1692 0032 49       		.uleb128 0x49
 1693 0033 13       		.uleb128 0x13
 1694 0034 00       		.byte	0
 1695 0035 00       		.byte	0
 1696 0036 05       		.uleb128 0x5
 1697 0037 26       		.uleb128 0x26
 1698 0038 00       		.byte	0
 1699 0039 49       		.uleb128 0x49
 1700 003a 13       		.uleb128 0x13
 1701 003b 00       		.byte	0
 1702 003c 00       		.byte	0
 1703 003d 06       		.uleb128 0x6
 1704 003e 35       		.uleb128 0x35
 1705 003f 00       		.byte	0
 1706 0040 49       		.uleb128 0x49
ARM GAS  /var/folders/6q/x_mk5n_j3p7_c40r_2k_78980000gn/T//cc5RWwhR.s 			page 31


 1707 0041 13       		.uleb128 0x13
 1708 0042 00       		.byte	0
 1709 0043 00       		.byte	0
 1710 0044 07       		.uleb128 0x7
 1711 0045 04       		.uleb128 0x4
 1712 0046 01       		.byte	0x1
 1713 0047 0B       		.uleb128 0xb
 1714 0048 0B       		.uleb128 0xb
 1715 0049 49       		.uleb128 0x49
 1716 004a 13       		.uleb128 0x13
 1717 004b 3A       		.uleb128 0x3a
 1718 004c 0B       		.uleb128 0xb
 1719 004d 3B       		.uleb128 0x3b
 1720 004e 0B       		.uleb128 0xb
 1721 004f 01       		.uleb128 0x1
 1722 0050 13       		.uleb128 0x13
 1723 0051 00       		.byte	0
 1724 0052 00       		.byte	0
 1725 0053 08       		.uleb128 0x8
 1726 0054 28       		.uleb128 0x28
 1727 0055 00       		.byte	0
 1728 0056 03       		.uleb128 0x3
 1729 0057 0E       		.uleb128 0xe
 1730 0058 1C       		.uleb128 0x1c
 1731 0059 0D       		.uleb128 0xd
 1732 005a 00       		.byte	0
 1733 005b 00       		.byte	0
 1734 005c 09       		.uleb128 0x9
 1735 005d 28       		.uleb128 0x28
 1736 005e 00       		.byte	0
 1737 005f 03       		.uleb128 0x3
 1738 0060 0E       		.uleb128 0xe
 1739 0061 1C       		.uleb128 0x1c
 1740 0062 0B       		.uleb128 0xb
 1741 0063 00       		.byte	0
 1742 0064 00       		.byte	0
 1743 0065 0A       		.uleb128 0xa
 1744 0066 13       		.uleb128 0x13
 1745 0067 01       		.byte	0x1
 1746 0068 03       		.uleb128 0x3
 1747 0069 0E       		.uleb128 0xe
 1748 006a 0B       		.uleb128 0xb
 1749 006b 0B       		.uleb128 0xb
 1750 006c 3A       		.uleb128 0x3a
 1751 006d 0B       		.uleb128 0xb
 1752 006e 3B       		.uleb128 0x3b
 1753 006f 0B       		.uleb128 0xb
 1754 0070 01       		.uleb128 0x1
 1755 0071 13       		.uleb128 0x13
 1756 0072 00       		.byte	0
 1757 0073 00       		.byte	0
 1758 0074 0B       		.uleb128 0xb
 1759 0075 0D       		.uleb128 0xd
 1760 0076 00       		.byte	0
 1761 0077 03       		.uleb128 0x3
 1762 0078 0E       		.uleb128 0xe
 1763 0079 3A       		.uleb128 0x3a
ARM GAS  /var/folders/6q/x_mk5n_j3p7_c40r_2k_78980000gn/T//cc5RWwhR.s 			page 32


 1764 007a 0B       		.uleb128 0xb
 1765 007b 3B       		.uleb128 0x3b
 1766 007c 0B       		.uleb128 0xb
 1767 007d 49       		.uleb128 0x49
 1768 007e 13       		.uleb128 0x13
 1769 007f 38       		.uleb128 0x38
 1770 0080 0B       		.uleb128 0xb
 1771 0081 00       		.byte	0
 1772 0082 00       		.byte	0
 1773 0083 0C       		.uleb128 0xc
 1774 0084 0D       		.uleb128 0xd
 1775 0085 00       		.byte	0
 1776 0086 03       		.uleb128 0x3
 1777 0087 08       		.uleb128 0x8
 1778 0088 3A       		.uleb128 0x3a
 1779 0089 0B       		.uleb128 0xb
 1780 008a 3B       		.uleb128 0x3b
 1781 008b 0B       		.uleb128 0xb
 1782 008c 49       		.uleb128 0x49
 1783 008d 13       		.uleb128 0x13
 1784 008e 38       		.uleb128 0x38
 1785 008f 0B       		.uleb128 0xb
 1786 0090 00       		.byte	0
 1787 0091 00       		.byte	0
 1788 0092 0D       		.uleb128 0xd
 1789 0093 2E       		.uleb128 0x2e
 1790 0094 01       		.byte	0x1
 1791 0095 03       		.uleb128 0x3
 1792 0096 0E       		.uleb128 0xe
 1793 0097 3A       		.uleb128 0x3a
 1794 0098 0B       		.uleb128 0xb
 1795 0099 3B       		.uleb128 0x3b
 1796 009a 0B       		.uleb128 0xb
 1797 009b 27       		.uleb128 0x27
 1798 009c 19       		.uleb128 0x19
 1799 009d 49       		.uleb128 0x49
 1800 009e 13       		.uleb128 0x13
 1801 009f 20       		.uleb128 0x20
 1802 00a0 0B       		.uleb128 0xb
 1803 00a1 01       		.uleb128 0x1
 1804 00a2 13       		.uleb128 0x13
 1805 00a3 00       		.byte	0
 1806 00a4 00       		.byte	0
 1807 00a5 0E       		.uleb128 0xe
 1808 00a6 05       		.uleb128 0x5
 1809 00a7 00       		.byte	0
 1810 00a8 03       		.uleb128 0x3
 1811 00a9 08       		.uleb128 0x8
 1812 00aa 3A       		.uleb128 0x3a
 1813 00ab 0B       		.uleb128 0xb
 1814 00ac 3B       		.uleb128 0x3b
 1815 00ad 0B       		.uleb128 0xb
 1816 00ae 49       		.uleb128 0x49
 1817 00af 13       		.uleb128 0x13
 1818 00b0 00       		.byte	0
 1819 00b1 00       		.byte	0
 1820 00b2 0F       		.uleb128 0xf
ARM GAS  /var/folders/6q/x_mk5n_j3p7_c40r_2k_78980000gn/T//cc5RWwhR.s 			page 33


 1821 00b3 34       		.uleb128 0x34
 1822 00b4 00       		.byte	0
 1823 00b5 03       		.uleb128 0x3
 1824 00b6 0E       		.uleb128 0xe
 1825 00b7 3A       		.uleb128 0x3a
 1826 00b8 0B       		.uleb128 0xb
 1827 00b9 3B       		.uleb128 0x3b
 1828 00ba 0B       		.uleb128 0xb
 1829 00bb 49       		.uleb128 0x49
 1830 00bc 13       		.uleb128 0x13
 1831 00bd 00       		.byte	0
 1832 00be 00       		.byte	0
 1833 00bf 10       		.uleb128 0x10
 1834 00c0 34       		.uleb128 0x34
 1835 00c1 00       		.byte	0
 1836 00c2 03       		.uleb128 0x3
 1837 00c3 08       		.uleb128 0x8
 1838 00c4 3A       		.uleb128 0x3a
 1839 00c5 0B       		.uleb128 0xb
 1840 00c6 3B       		.uleb128 0x3b
 1841 00c7 0B       		.uleb128 0xb
 1842 00c8 49       		.uleb128 0x49
 1843 00c9 13       		.uleb128 0x13
 1844 00ca 00       		.byte	0
 1845 00cb 00       		.byte	0
 1846 00cc 11       		.uleb128 0x11
 1847 00cd 17       		.uleb128 0x17
 1848 00ce 01       		.byte	0x1
 1849 00cf 0B       		.uleb128 0xb
 1850 00d0 0B       		.uleb128 0xb
 1851 00d1 3A       		.uleb128 0x3a
 1852 00d2 0B       		.uleb128 0xb
 1853 00d3 3B       		.uleb128 0x3b
 1854 00d4 0B       		.uleb128 0xb
 1855 00d5 01       		.uleb128 0x1
 1856 00d6 13       		.uleb128 0x13
 1857 00d7 00       		.byte	0
 1858 00d8 00       		.byte	0
 1859 00d9 12       		.uleb128 0x12
 1860 00da 0D       		.uleb128 0xd
 1861 00db 00       		.byte	0
 1862 00dc 03       		.uleb128 0x3
 1863 00dd 08       		.uleb128 0x8
 1864 00de 3A       		.uleb128 0x3a
 1865 00df 0B       		.uleb128 0xb
 1866 00e0 3B       		.uleb128 0x3b
 1867 00e1 0B       		.uleb128 0xb
 1868 00e2 49       		.uleb128 0x49
 1869 00e3 13       		.uleb128 0x13
 1870 00e4 00       		.byte	0
 1871 00e5 00       		.byte	0
 1872 00e6 13       		.uleb128 0x13
 1873 00e7 2E       		.uleb128 0x2e
 1874 00e8 01       		.byte	0x1
 1875 00e9 03       		.uleb128 0x3
 1876 00ea 08       		.uleb128 0x8
 1877 00eb 3A       		.uleb128 0x3a
ARM GAS  /var/folders/6q/x_mk5n_j3p7_c40r_2k_78980000gn/T//cc5RWwhR.s 			page 34


 1878 00ec 0B       		.uleb128 0xb
 1879 00ed 3B       		.uleb128 0x3b
 1880 00ee 0B       		.uleb128 0xb
 1881 00ef 27       		.uleb128 0x27
 1882 00f0 19       		.uleb128 0x19
 1883 00f1 49       		.uleb128 0x49
 1884 00f2 13       		.uleb128 0x13
 1885 00f3 20       		.uleb128 0x20
 1886 00f4 0B       		.uleb128 0xb
 1887 00f5 01       		.uleb128 0x1
 1888 00f6 13       		.uleb128 0x13
 1889 00f7 00       		.byte	0
 1890 00f8 00       		.byte	0
 1891 00f9 14       		.uleb128 0x14
 1892 00fa 2E       		.uleb128 0x2e
 1893 00fb 01       		.byte	0x1
 1894 00fc 3F       		.uleb128 0x3f
 1895 00fd 19       		.uleb128 0x19
 1896 00fe 03       		.uleb128 0x3
 1897 00ff 0E       		.uleb128 0xe
 1898 0100 3A       		.uleb128 0x3a
 1899 0101 0B       		.uleb128 0xb
 1900 0102 3B       		.uleb128 0x3b
 1901 0103 0B       		.uleb128 0xb
 1902 0104 27       		.uleb128 0x27
 1903 0105 19       		.uleb128 0x19
 1904 0106 49       		.uleb128 0x49
 1905 0107 13       		.uleb128 0x13
 1906 0108 11       		.uleb128 0x11
 1907 0109 01       		.uleb128 0x1
 1908 010a 12       		.uleb128 0x12
 1909 010b 06       		.uleb128 0x6
 1910 010c 40       		.uleb128 0x40
 1911 010d 18       		.uleb128 0x18
 1912 010e 9642     		.uleb128 0x2116
 1913 0110 19       		.uleb128 0x19
 1914 0111 01       		.uleb128 0x1
 1915 0112 13       		.uleb128 0x13
 1916 0113 00       		.byte	0
 1917 0114 00       		.byte	0
 1918 0115 15       		.uleb128 0x15
 1919 0116 05       		.uleb128 0x5
 1920 0117 00       		.byte	0
 1921 0118 03       		.uleb128 0x3
 1922 0119 08       		.uleb128 0x8
 1923 011a 3A       		.uleb128 0x3a
 1924 011b 0B       		.uleb128 0xb
 1925 011c 3B       		.uleb128 0x3b
 1926 011d 0B       		.uleb128 0xb
 1927 011e 49       		.uleb128 0x49
 1928 011f 13       		.uleb128 0x13
 1929 0120 02       		.uleb128 0x2
 1930 0121 17       		.uleb128 0x17
 1931 0122 00       		.byte	0
 1932 0123 00       		.byte	0
 1933 0124 16       		.uleb128 0x16
 1934 0125 1D       		.uleb128 0x1d
ARM GAS  /var/folders/6q/x_mk5n_j3p7_c40r_2k_78980000gn/T//cc5RWwhR.s 			page 35


 1935 0126 01       		.byte	0x1
 1936 0127 31       		.uleb128 0x31
 1937 0128 13       		.uleb128 0x13
 1938 0129 52       		.uleb128 0x52
 1939 012a 01       		.uleb128 0x1
 1940 012b 55       		.uleb128 0x55
 1941 012c 17       		.uleb128 0x17
 1942 012d 58       		.uleb128 0x58
 1943 012e 0B       		.uleb128 0xb
 1944 012f 59       		.uleb128 0x59
 1945 0130 0B       		.uleb128 0xb
 1946 0131 01       		.uleb128 0x1
 1947 0132 13       		.uleb128 0x13
 1948 0133 00       		.byte	0
 1949 0134 00       		.byte	0
 1950 0135 17       		.uleb128 0x17
 1951 0136 05       		.uleb128 0x5
 1952 0137 00       		.byte	0
 1953 0138 31       		.uleb128 0x31
 1954 0139 13       		.uleb128 0x13
 1955 013a 02       		.uleb128 0x2
 1956 013b 17       		.uleb128 0x17
 1957 013c 00       		.byte	0
 1958 013d 00       		.byte	0
 1959 013e 18       		.uleb128 0x18
 1960 013f 898201   		.uleb128 0x4109
 1961 0142 00       		.byte	0
 1962 0143 11       		.uleb128 0x11
 1963 0144 01       		.uleb128 0x1
 1964 0145 31       		.uleb128 0x31
 1965 0146 13       		.uleb128 0x13
 1966 0147 00       		.byte	0
 1967 0148 00       		.byte	0
 1968 0149 19       		.uleb128 0x19
 1969 014a 0F       		.uleb128 0xf
 1970 014b 00       		.byte	0
 1971 014c 0B       		.uleb128 0xb
 1972 014d 0B       		.uleb128 0xb
 1973 014e 49       		.uleb128 0x49
 1974 014f 13       		.uleb128 0x13
 1975 0150 00       		.byte	0
 1976 0151 00       		.byte	0
 1977 0152 1A       		.uleb128 0x1a
 1978 0153 2E       		.uleb128 0x2e
 1979 0154 01       		.byte	0x1
 1980 0155 3F       		.uleb128 0x3f
 1981 0156 19       		.uleb128 0x19
 1982 0157 03       		.uleb128 0x3
 1983 0158 0E       		.uleb128 0xe
 1984 0159 3A       		.uleb128 0x3a
 1985 015a 0B       		.uleb128 0xb
 1986 015b 3B       		.uleb128 0x3b
 1987 015c 0B       		.uleb128 0xb
 1988 015d 27       		.uleb128 0x27
 1989 015e 19       		.uleb128 0x19
 1990 015f 11       		.uleb128 0x11
 1991 0160 01       		.uleb128 0x1
ARM GAS  /var/folders/6q/x_mk5n_j3p7_c40r_2k_78980000gn/T//cc5RWwhR.s 			page 36


 1992 0161 12       		.uleb128 0x12
 1993 0162 06       		.uleb128 0x6
 1994 0163 40       		.uleb128 0x40
 1995 0164 18       		.uleb128 0x18
 1996 0165 9642     		.uleb128 0x2116
 1997 0167 19       		.uleb128 0x19
 1998 0168 01       		.uleb128 0x1
 1999 0169 13       		.uleb128 0x13
 2000 016a 00       		.byte	0
 2001 016b 00       		.byte	0
 2002 016c 1B       		.uleb128 0x1b
 2003 016d 34       		.uleb128 0x34
 2004 016e 00       		.byte	0
 2005 016f 03       		.uleb128 0x3
 2006 0170 08       		.uleb128 0x8
 2007 0171 3A       		.uleb128 0x3a
 2008 0172 0B       		.uleb128 0xb
 2009 0173 3B       		.uleb128 0x3b
 2010 0174 0B       		.uleb128 0xb
 2011 0175 49       		.uleb128 0x49
 2012 0176 13       		.uleb128 0x13
 2013 0177 02       		.uleb128 0x2
 2014 0178 17       		.uleb128 0x17
 2015 0179 00       		.byte	0
 2016 017a 00       		.byte	0
 2017 017b 1C       		.uleb128 0x1c
 2018 017c 1D       		.uleb128 0x1d
 2019 017d 01       		.byte	0x1
 2020 017e 31       		.uleb128 0x31
 2021 017f 13       		.uleb128 0x13
 2022 0180 52       		.uleb128 0x52
 2023 0181 01       		.uleb128 0x1
 2024 0182 55       		.uleb128 0x55
 2025 0183 17       		.uleb128 0x17
 2026 0184 58       		.uleb128 0x58
 2027 0185 0B       		.uleb128 0xb
 2028 0186 59       		.uleb128 0x59
 2029 0187 0B       		.uleb128 0xb
 2030 0188 00       		.byte	0
 2031 0189 00       		.byte	0
 2032 018a 1D       		.uleb128 0x1d
 2033 018b 0B       		.uleb128 0xb
 2034 018c 01       		.byte	0x1
 2035 018d 55       		.uleb128 0x55
 2036 018e 17       		.uleb128 0x17
 2037 018f 00       		.byte	0
 2038 0190 00       		.byte	0
 2039 0191 1E       		.uleb128 0x1e
 2040 0192 34       		.uleb128 0x34
 2041 0193 00       		.byte	0
 2042 0194 31       		.uleb128 0x31
 2043 0195 13       		.uleb128 0x13
 2044 0196 02       		.uleb128 0x2
 2045 0197 17       		.uleb128 0x17
 2046 0198 00       		.byte	0
 2047 0199 00       		.byte	0
 2048 019a 1F       		.uleb128 0x1f
ARM GAS  /var/folders/6q/x_mk5n_j3p7_c40r_2k_78980000gn/T//cc5RWwhR.s 			page 37


 2049 019b 34       		.uleb128 0x34
 2050 019c 00       		.byte	0
 2051 019d 31       		.uleb128 0x31
 2052 019e 13       		.uleb128 0x13
 2053 019f 02       		.uleb128 0x2
 2054 01a0 18       		.uleb128 0x18
 2055 01a1 00       		.byte	0
 2056 01a2 00       		.byte	0
 2057 01a3 20       		.uleb128 0x20
 2058 01a4 34       		.uleb128 0x34
 2059 01a5 00       		.byte	0
 2060 01a6 31       		.uleb128 0x31
 2061 01a7 13       		.uleb128 0x13
 2062 01a8 00       		.byte	0
 2063 01a9 00       		.byte	0
 2064 01aa 21       		.uleb128 0x21
 2065 01ab 05       		.uleb128 0x5
 2066 01ac 00       		.byte	0
 2067 01ad 03       		.uleb128 0x3
 2068 01ae 0E       		.uleb128 0xe
 2069 01af 3A       		.uleb128 0x3a
 2070 01b0 0B       		.uleb128 0xb
 2071 01b1 3B       		.uleb128 0x3b
 2072 01b2 0B       		.uleb128 0xb
 2073 01b3 49       		.uleb128 0x49
 2074 01b4 13       		.uleb128 0x13
 2075 01b5 02       		.uleb128 0x2
 2076 01b6 17       		.uleb128 0x17
 2077 01b7 00       		.byte	0
 2078 01b8 00       		.byte	0
 2079 01b9 22       		.uleb128 0x22
 2080 01ba 898201   		.uleb128 0x4109
 2081 01bd 01       		.byte	0x1
 2082 01be 11       		.uleb128 0x11
 2083 01bf 01       		.uleb128 0x1
 2084 01c0 31       		.uleb128 0x31
 2085 01c1 13       		.uleb128 0x13
 2086 01c2 01       		.uleb128 0x1
 2087 01c3 13       		.uleb128 0x13
 2088 01c4 00       		.byte	0
 2089 01c5 00       		.byte	0
 2090 01c6 23       		.uleb128 0x23
 2091 01c7 8A8201   		.uleb128 0x410a
 2092 01ca 00       		.byte	0
 2093 01cb 02       		.uleb128 0x2
 2094 01cc 18       		.uleb128 0x18
 2095 01cd 9142     		.uleb128 0x2111
 2096 01cf 18       		.uleb128 0x18
 2097 01d0 00       		.byte	0
 2098 01d1 00       		.byte	0
 2099 01d2 24       		.uleb128 0x24
 2100 01d3 2E       		.uleb128 0x2e
 2101 01d4 01       		.byte	0x1
 2102 01d5 3F       		.uleb128 0x3f
 2103 01d6 19       		.uleb128 0x19
 2104 01d7 03       		.uleb128 0x3
 2105 01d8 0E       		.uleb128 0xe
ARM GAS  /var/folders/6q/x_mk5n_j3p7_c40r_2k_78980000gn/T//cc5RWwhR.s 			page 38


 2106 01d9 3A       		.uleb128 0x3a
 2107 01da 0B       		.uleb128 0xb
 2108 01db 3B       		.uleb128 0x3b
 2109 01dc 0B       		.uleb128 0xb
 2110 01dd 27       		.uleb128 0x27
 2111 01de 19       		.uleb128 0x19
 2112 01df 49       		.uleb128 0x49
 2113 01e0 13       		.uleb128 0x13
 2114 01e1 11       		.uleb128 0x11
 2115 01e2 01       		.uleb128 0x1
 2116 01e3 12       		.uleb128 0x12
 2117 01e4 06       		.uleb128 0x6
 2118 01e5 40       		.uleb128 0x40
 2119 01e6 18       		.uleb128 0x18
 2120 01e7 9742     		.uleb128 0x2117
 2121 01e9 19       		.uleb128 0x19
 2122 01ea 01       		.uleb128 0x1
 2123 01eb 13       		.uleb128 0x13
 2124 01ec 00       		.byte	0
 2125 01ed 00       		.byte	0
 2126 01ee 25       		.uleb128 0x25
 2127 01ef 05       		.uleb128 0x5
 2128 01f0 00       		.byte	0
 2129 01f1 03       		.uleb128 0x3
 2130 01f2 0E       		.uleb128 0xe
 2131 01f3 3A       		.uleb128 0x3a
 2132 01f4 0B       		.uleb128 0xb
 2133 01f5 3B       		.uleb128 0x3b
 2134 01f6 0B       		.uleb128 0xb
 2135 01f7 49       		.uleb128 0x49
 2136 01f8 13       		.uleb128 0x13
 2137 01f9 02       		.uleb128 0x2
 2138 01fa 18       		.uleb128 0x18
 2139 01fb 00       		.byte	0
 2140 01fc 00       		.byte	0
 2141 01fd 26       		.uleb128 0x26
 2142 01fe 34       		.uleb128 0x34
 2143 01ff 00       		.byte	0
 2144 0200 03       		.uleb128 0x3
 2145 0201 08       		.uleb128 0x8
 2146 0202 3A       		.uleb128 0x3a
 2147 0203 0B       		.uleb128 0xb
 2148 0204 3B       		.uleb128 0x3b
 2149 0205 0B       		.uleb128 0xb
 2150 0206 49       		.uleb128 0x49
 2151 0207 13       		.uleb128 0x13
 2152 0208 02       		.uleb128 0x2
 2153 0209 18       		.uleb128 0x18
 2154 020a 00       		.byte	0
 2155 020b 00       		.byte	0
 2156 020c 27       		.uleb128 0x27
 2157 020d 898201   		.uleb128 0x4109
 2158 0210 01       		.byte	0x1
 2159 0211 11       		.uleb128 0x11
 2160 0212 01       		.uleb128 0x1
 2161 0213 31       		.uleb128 0x31
 2162 0214 13       		.uleb128 0x13
ARM GAS  /var/folders/6q/x_mk5n_j3p7_c40r_2k_78980000gn/T//cc5RWwhR.s 			page 39


 2163 0215 00       		.byte	0
 2164 0216 00       		.byte	0
 2165 0217 28       		.uleb128 0x28
 2166 0218 34       		.uleb128 0x34
 2167 0219 00       		.byte	0
 2168 021a 03       		.uleb128 0x3
 2169 021b 0E       		.uleb128 0xe
 2170 021c 3A       		.uleb128 0x3a
 2171 021d 0B       		.uleb128 0xb
 2172 021e 3B       		.uleb128 0x3b
 2173 021f 0B       		.uleb128 0xb
 2174 0220 49       		.uleb128 0x49
 2175 0221 13       		.uleb128 0x13
 2176 0222 1C       		.uleb128 0x1c
 2177 0223 0B       		.uleb128 0xb
 2178 0224 00       		.byte	0
 2179 0225 00       		.byte	0
 2180 0226 29       		.uleb128 0x29
 2181 0227 01       		.uleb128 0x1
 2182 0228 01       		.byte	0x1
 2183 0229 49       		.uleb128 0x49
 2184 022a 13       		.uleb128 0x13
 2185 022b 01       		.uleb128 0x1
 2186 022c 13       		.uleb128 0x13
 2187 022d 00       		.byte	0
 2188 022e 00       		.byte	0
 2189 022f 2A       		.uleb128 0x2a
 2190 0230 21       		.uleb128 0x21
 2191 0231 00       		.byte	0
 2192 0232 49       		.uleb128 0x49
 2193 0233 13       		.uleb128 0x13
 2194 0234 2F       		.uleb128 0x2f
 2195 0235 0B       		.uleb128 0xb
 2196 0236 00       		.byte	0
 2197 0237 00       		.byte	0
 2198 0238 2B       		.uleb128 0x2b
 2199 0239 34       		.uleb128 0x34
 2200 023a 00       		.byte	0
 2201 023b 03       		.uleb128 0x3
 2202 023c 0E       		.uleb128 0xe
 2203 023d 3A       		.uleb128 0x3a
 2204 023e 0B       		.uleb128 0xb
 2205 023f 3B       		.uleb128 0x3b
 2206 0240 0B       		.uleb128 0xb
 2207 0241 49       		.uleb128 0x49
 2208 0242 13       		.uleb128 0x13
 2209 0243 02       		.uleb128 0x2
 2210 0244 18       		.uleb128 0x18
 2211 0245 00       		.byte	0
 2212 0246 00       		.byte	0
 2213 0247 2C       		.uleb128 0x2c
 2214 0248 34       		.uleb128 0x34
 2215 0249 00       		.byte	0
 2216 024a 03       		.uleb128 0x3
 2217 024b 0E       		.uleb128 0xe
 2218 024c 3A       		.uleb128 0x3a
 2219 024d 0B       		.uleb128 0xb
ARM GAS  /var/folders/6q/x_mk5n_j3p7_c40r_2k_78980000gn/T//cc5RWwhR.s 			page 40


 2220 024e 3B       		.uleb128 0x3b
 2221 024f 05       		.uleb128 0x5
 2222 0250 49       		.uleb128 0x49
 2223 0251 13       		.uleb128 0x13
 2224 0252 3F       		.uleb128 0x3f
 2225 0253 19       		.uleb128 0x19
 2226 0254 3C       		.uleb128 0x3c
 2227 0255 19       		.uleb128 0x19
 2228 0256 00       		.byte	0
 2229 0257 00       		.byte	0
 2230 0258 2D       		.uleb128 0x2d
 2231 0259 2E       		.uleb128 0x2e
 2232 025a 00       		.byte	0
 2233 025b 3F       		.uleb128 0x3f
 2234 025c 19       		.uleb128 0x19
 2235 025d 3C       		.uleb128 0x3c
 2236 025e 19       		.uleb128 0x19
 2237 025f 6E       		.uleb128 0x6e
 2238 0260 0E       		.uleb128 0xe
 2239 0261 03       		.uleb128 0x3
 2240 0262 0E       		.uleb128 0xe
 2241 0263 3A       		.uleb128 0x3a
 2242 0264 0B       		.uleb128 0xb
 2243 0265 3B       		.uleb128 0x3b
 2244 0266 0B       		.uleb128 0xb
 2245 0267 00       		.byte	0
 2246 0268 00       		.byte	0
 2247 0269 00       		.byte	0
 2248              		.section	.debug_loc,"",%progbits
 2249              	.Ldebug_loc0:
 2250              	.LLST0:
 2251 0000 00000000 		.4byte	.LVL0
 2252 0004 1A000000 		.4byte	.LVL1
 2253 0008 0100     		.2byte	0x1
 2254 000a 50       		.byte	0x50
 2255 000b 1A000000 		.4byte	.LVL1
 2256 000f 2E010000 		.4byte	.LVL27
 2257 0013 0100     		.2byte	0x1
 2258 0015 54       		.byte	0x54
 2259 0016 2E010000 		.4byte	.LVL27
 2260 001a 42010000 		.4byte	.LVL28
 2261 001e 0100     		.2byte	0x1
 2262 0020 50       		.byte	0x50
 2263 0021 42010000 		.4byte	.LVL28
 2264 0025 CA010000 		.4byte	.LVL44
 2265 0029 0100     		.2byte	0x1
 2266 002b 54       		.byte	0x54
 2267 002c CA010000 		.4byte	.LVL44
 2268 0030 CC010000 		.4byte	.LVL45
 2269 0034 0100     		.2byte	0x1
 2270 0036 50       		.byte	0x50
 2271 0037 CC010000 		.4byte	.LVL45
 2272 003b 00020000 		.4byte	.LFE71
 2273 003f 0100     		.2byte	0x1
 2274 0041 54       		.byte	0x54
 2275 0042 00000000 		.4byte	0
 2276 0046 00000000 		.4byte	0
ARM GAS  /var/folders/6q/x_mk5n_j3p7_c40r_2k_78980000gn/T//cc5RWwhR.s 			page 41


 2277              	.LLST1:
 2278 004a 66000000 		.4byte	.LVL6
 2279 004e 82000000 		.4byte	.LVL9
 2280 0052 0100     		.2byte	0x1
 2281 0054 58       		.byte	0x58
 2282 0055 D4010000 		.4byte	.LVL46
 2283 0059 D8010000 		.4byte	.LVL47
 2284 005d 0100     		.2byte	0x1
 2285 005f 58       		.byte	0x58
 2286 0060 00000000 		.4byte	0
 2287 0064 00000000 		.4byte	0
 2288              	.LLST2:
 2289 0068 DE000000 		.4byte	.LVL19
 2290 006c FC000000 		.4byte	.LVL22
 2291 0070 0100     		.2byte	0x1
 2292 0072 55       		.byte	0x55
 2293 0073 7C010000 		.4byte	.LVL37
 2294 0077 7E010000 		.4byte	.LVL38
 2295 007b 0100     		.2byte	0x1
 2296 007d 55       		.byte	0x55
 2297 007e D8010000 		.4byte	.LVL47
 2298 0082 DA010000 		.4byte	.LVL48
 2299 0086 0100     		.2byte	0x1
 2300 0088 55       		.byte	0x55
 2301 0089 00000000 		.4byte	0
 2302 008d 00000000 		.4byte	0
 2303              	.LLST3:
 2304 0091 48010000 		.4byte	.LVL30
 2305 0095 4A010000 		.4byte	.LVL31
 2306 0099 0600     		.2byte	0x6
 2307 009b 9E       		.byte	0x9e
 2308 009c 04       		.uleb128 0x4
 2309 009d 00000000 		.4byte	0
 2310 00a1 00000000 		.4byte	0
 2311 00a5 00000000 		.4byte	0
 2312              	.LLST4:
 2313 00a9 00000000 		.4byte	.LVL49
 2314 00ad 0A000000 		.4byte	.LVL50
 2315 00b1 0200     		.2byte	0x2
 2316 00b3 30       		.byte	0x30
 2317 00b4 9F       		.byte	0x9f
 2318 00b5 0A000000 		.4byte	.LVL50
 2319 00b9 A8000000 		.4byte	.LVL73
 2320 00bd 0100     		.2byte	0x1
 2321 00bf 54       		.byte	0x54
 2322 00c0 B2000000 		.4byte	.LVL74
 2323 00c4 DA000000 		.4byte	.LVL81
 2324 00c8 0100     		.2byte	0x1
 2325 00ca 54       		.byte	0x54
 2326 00cb 00000000 		.4byte	0
 2327 00cf 00000000 		.4byte	0
 2328              	.LLST5:
 2329 00d3 0A000000 		.4byte	.LVL50
 2330 00d7 7A000000 		.4byte	.LVL66
 2331 00db 0F00     		.2byte	0xf
 2332 00dd 74       		.byte	0x74
 2333 00de 00       		.sleb128 0
ARM GAS  /var/folders/6q/x_mk5n_j3p7_c40r_2k_78980000gn/T//cc5RWwhR.s 			page 42


 2334 00df F7       		.byte	0xf7
 2335 00e0 2C       		.uleb128 0x2c
 2336 00e1 F7       		.byte	0xf7
 2337 00e2 25       		.uleb128 0x25
 2338 00e3 F4       		.byte	0xf4
 2339 00e4 25       		.uleb128 0x25
 2340 00e5 04       		.byte	0x4
 2341 00e6 0000FE42 		.4byte	0x42fe0000
 2342 00ea 1B       		.byte	0x1b
 2343 00eb 9F       		.byte	0x9f
 2344 00ec B2000000 		.4byte	.LVL74
 2345 00f0 D6000000 		.4byte	.LVL80
 2346 00f4 0F00     		.2byte	0xf
 2347 00f6 74       		.byte	0x74
 2348 00f7 00       		.sleb128 0
 2349 00f8 F7       		.byte	0xf7
 2350 00f9 2C       		.uleb128 0x2c
 2351 00fa F7       		.byte	0xf7
 2352 00fb 25       		.uleb128 0x25
 2353 00fc F4       		.byte	0xf4
 2354 00fd 25       		.uleb128 0x25
 2355 00fe 04       		.byte	0x4
 2356 00ff 0000FE42 		.4byte	0x42fe0000
 2357 0103 1B       		.byte	0x1b
 2358 0104 9F       		.byte	0x9f
 2359 0105 00000000 		.4byte	0
 2360 0109 00000000 		.4byte	0
 2361              	.LLST6:
 2362 010d 0A000000 		.4byte	.LVL50
 2363 0111 7A000000 		.4byte	.LVL66
 2364 0115 0600     		.2byte	0x6
 2365 0117 9E       		.byte	0x9e
 2366 0118 04       		.uleb128 0x4
 2367 0119 0000A041 		.4byte	0x41a00000
 2368 011d B2000000 		.4byte	.LVL74
 2369 0121 D6000000 		.4byte	.LVL80
 2370 0125 0600     		.2byte	0x6
 2371 0127 9E       		.byte	0x9e
 2372 0128 04       		.uleb128 0x4
 2373 0129 0000A041 		.4byte	0x41a00000
 2374 012d 00000000 		.4byte	0
 2375 0131 00000000 		.4byte	0
 2376              	.LLST7:
 2377 0135 0A000000 		.4byte	.LVL50
 2378 0139 48000000 		.4byte	.LVL58
 2379 013d 0100     		.2byte	0x1
 2380 013f 55       		.byte	0x55
 2381 0140 C8000000 		.4byte	.LVL78
 2382 0144 CB000000 		.4byte	.LVL79-1
 2383 0148 0100     		.2byte	0x1
 2384 014a 50       		.byte	0x50
 2385 014b CB000000 		.4byte	.LVL79-1
 2386 014f D6000000 		.4byte	.LVL80
 2387 0153 0100     		.2byte	0x1
 2388 0155 55       		.byte	0x55
 2389 0156 00000000 		.4byte	0
 2390 015a 00000000 		.4byte	0
ARM GAS  /var/folders/6q/x_mk5n_j3p7_c40r_2k_78980000gn/T//cc5RWwhR.s 			page 43


 2391              	.LLST8:
 2392 015e 0E000000 		.4byte	.LVL51
 2393 0162 7A000000 		.4byte	.LVL66
 2394 0166 0100     		.2byte	0x1
 2395 0168 59       		.byte	0x59
 2396 0169 00000000 		.4byte	0
 2397 016d 00000000 		.4byte	0
 2398              	.LLST9:
 2399 0171 48000000 		.4byte	.LVL58
 2400 0175 4A000000 		.4byte	.LVL59
 2401 0179 0100     		.2byte	0x1
 2402 017b 50       		.byte	0x50
 2403 017c 4A000000 		.4byte	.LVL59
 2404 0180 4D000000 		.4byte	.LVL60-1
 2405 0184 0100     		.2byte	0x1
 2406 0186 51       		.byte	0x51
 2407 0187 4D000000 		.4byte	.LVL60-1
 2408 018b 7A000000 		.4byte	.LVL66
 2409 018f 0100     		.2byte	0x1
 2410 0191 55       		.byte	0x55
 2411 0192 00000000 		.4byte	0
 2412 0196 00000000 		.4byte	0
 2413              	.LLST10:
 2414 019a 00000000 		.4byte	.LVL82
 2415 019e 0C000000 		.4byte	.LVL84
 2416 01a2 0100     		.2byte	0x1
 2417 01a4 50       		.byte	0x50
 2418 01a5 0C000000 		.4byte	.LVL84
 2419 01a9 74000000 		.4byte	.LFE69
 2420 01ad 0100     		.2byte	0x1
 2421 01af 5A       		.byte	0x5a
 2422 01b0 00000000 		.4byte	0
 2423 01b4 00000000 		.4byte	0
 2424              	.LLST11:
 2425 01b8 00000000 		.4byte	.LVL82
 2426 01bc 0A000000 		.4byte	.LVL83
 2427 01c0 0100     		.2byte	0x1
 2428 01c2 51       		.byte	0x51
 2429 01c3 0A000000 		.4byte	.LVL83
 2430 01c7 74000000 		.4byte	.LFE69
 2431 01cb 0100     		.2byte	0x1
 2432 01cd 56       		.byte	0x56
 2433 01ce 00000000 		.4byte	0
 2434 01d2 00000000 		.4byte	0
 2435              	.LLST12:
 2436 01d6 00000000 		.4byte	.LVL82
 2437 01da 17000000 		.4byte	.LVL85-1
 2438 01de 0100     		.2byte	0x1
 2439 01e0 52       		.byte	0x52
 2440 01e1 17000000 		.4byte	.LVL85-1
 2441 01e5 74000000 		.4byte	.LFE69
 2442 01e9 0100     		.2byte	0x1
 2443 01eb 59       		.byte	0x59
 2444 01ec 00000000 		.4byte	0
 2445 01f0 00000000 		.4byte	0
 2446              	.LLST13:
 2447 01f4 00000000 		.4byte	.LVL82
ARM GAS  /var/folders/6q/x_mk5n_j3p7_c40r_2k_78980000gn/T//cc5RWwhR.s 			page 44


 2448 01f8 17000000 		.4byte	.LVL85-1
 2449 01fc 0100     		.2byte	0x1
 2450 01fe 53       		.byte	0x53
 2451 01ff 17000000 		.4byte	.LVL85-1
 2452 0203 74000000 		.4byte	.LFE69
 2453 0207 0400     		.2byte	0x4
 2454 0209 F3       		.byte	0xf3
 2455 020a 01       		.uleb128 0x1
 2456 020b 53       		.byte	0x53
 2457 020c 9F       		.byte	0x9f
 2458 020d 00000000 		.4byte	0
 2459 0211 00000000 		.4byte	0
 2460              	.LLST14:
 2461 0215 00000000 		.4byte	.LVL82
 2462 0219 6A000000 		.4byte	.LVL91
 2463 021d 0200     		.2byte	0x2
 2464 021f 91       		.byte	0x91
 2465 0220 00       		.sleb128 0
 2466 0221 6A000000 		.4byte	.LVL91
 2467 0225 74000000 		.4byte	.LFE69
 2468 0229 0200     		.2byte	0x2
 2469 022b 91       		.byte	0x91
 2470 022c 00       		.sleb128 0
 2471 022d 00000000 		.4byte	0
 2472 0231 00000000 		.4byte	0
 2473              	.LLST15:
 2474 0235 1E000000 		.4byte	.LVL86
 2475 0239 3A000000 		.4byte	.LVL87
 2476 023d 0100     		.2byte	0x1
 2477 023f 50       		.byte	0x50
 2478 0240 3A000000 		.4byte	.LVL87
 2479 0244 74000000 		.4byte	.LFE69
 2480 0248 0100     		.2byte	0x1
 2481 024a 54       		.byte	0x54
 2482 024b 00000000 		.4byte	0
 2483 024f 00000000 		.4byte	0
 2484              	.LLST16:
 2485 0253 00000000 		.4byte	.LVL92
 2486 0257 15000000 		.4byte	.LVL94-1
 2487 025b 0100     		.2byte	0x1
 2488 025d 50       		.byte	0x50
 2489 025e 15000000 		.4byte	.LVL94-1
 2490 0262 1E000000 		.4byte	.LFE70
 2491 0266 0600     		.2byte	0x6
 2492 0268 F3       		.byte	0xf3
 2493 0269 03       		.uleb128 0x3
 2494 026a F5       		.byte	0xf5
 2495 026b 00       		.uleb128 0
 2496 026c 25       		.uleb128 0x25
 2497 026d 9F       		.byte	0x9f
 2498 026e 00000000 		.4byte	0
 2499 0272 00000000 		.4byte	0
 2500              	.LLST17:
 2501 0276 00000000 		.4byte	.LVL92
 2502 027a 15000000 		.4byte	.LVL94-1
 2503 027e 0100     		.2byte	0x1
 2504 0280 51       		.byte	0x51
ARM GAS  /var/folders/6q/x_mk5n_j3p7_c40r_2k_78980000gn/T//cc5RWwhR.s 			page 45


 2505 0281 15000000 		.4byte	.LVL94-1
 2506 0285 1E000000 		.4byte	.LFE70
 2507 0289 0600     		.2byte	0x6
 2508 028b F3       		.byte	0xf3
 2509 028c 03       		.uleb128 0x3
 2510 028d F5       		.byte	0xf5
 2511 028e 01       		.uleb128 0x1
 2512 028f 25       		.uleb128 0x25
 2513 0290 9F       		.byte	0x9f
 2514 0291 00000000 		.4byte	0
 2515 0295 00000000 		.4byte	0
 2516              	.LLST18:
 2517 0299 00000000 		.4byte	.LVL92
 2518 029d 15000000 		.4byte	.LVL94-1
 2519 02a1 0100     		.2byte	0x1
 2520 02a3 52       		.byte	0x52
 2521 02a4 15000000 		.4byte	.LVL94-1
 2522 02a8 1E000000 		.4byte	.LFE70
 2523 02ac 0600     		.2byte	0x6
 2524 02ae F3       		.byte	0xf3
 2525 02af 03       		.uleb128 0x3
 2526 02b0 F5       		.byte	0xf5
 2527 02b1 02       		.uleb128 0x2
 2528 02b2 25       		.uleb128 0x25
 2529 02b3 9F       		.byte	0x9f
 2530 02b4 00000000 		.4byte	0
 2531 02b8 00000000 		.4byte	0
 2532              	.LLST19:
 2533 02bc 00000000 		.4byte	.LVL92
 2534 02c0 12000000 		.4byte	.LVL93
 2535 02c4 0100     		.2byte	0x1
 2536 02c6 53       		.byte	0x53
 2537 02c7 12000000 		.4byte	.LVL93
 2538 02cb 1E000000 		.4byte	.LFE70
 2539 02cf 0100     		.2byte	0x1
 2540 02d1 56       		.byte	0x56
 2541 02d2 00000000 		.4byte	0
 2542 02d6 00000000 		.4byte	0
 2543              		.section	.debug_aranges,"",%progbits
 2544 0000 34000000 		.4byte	0x34
 2545 0004 0200     		.2byte	0x2
 2546 0006 00000000 		.4byte	.Ldebug_info0
 2547 000a 04       		.byte	0x4
 2548 000b 00       		.byte	0
 2549 000c 0000     		.2byte	0
 2550 000e 0000     		.2byte	0
 2551 0010 00000000 		.4byte	.LFB71
 2552 0014 00020000 		.4byte	.LFE71-.LFB71
 2553 0018 00000000 		.4byte	.LFB72
 2554 001c 1C010000 		.4byte	.LFE72-.LFB72
 2555 0020 00000000 		.4byte	.LFB69
 2556 0024 74000000 		.4byte	.LFE69-.LFB69
 2557 0028 00000000 		.4byte	.LFB70
 2558 002c 1E000000 		.4byte	.LFE70-.LFB70
 2559 0030 00000000 		.4byte	0
 2560 0034 00000000 		.4byte	0
 2561              		.section	.debug_ranges,"",%progbits
ARM GAS  /var/folders/6q/x_mk5n_j3p7_c40r_2k_78980000gn/T//cc5RWwhR.s 			page 46


 2562              	.Ldebug_ranges0:
 2563 0000 66000000 		.4byte	.LBB18
 2564 0004 82000000 		.4byte	.LBE18
 2565 0008 D4010000 		.4byte	.LBB35
 2566 000c D8010000 		.4byte	.LBE35
 2567 0010 00000000 		.4byte	0
 2568 0014 00000000 		.4byte	0
 2569 0018 DE000000 		.4byte	.LBB21
 2570 001c 00010000 		.4byte	.LBE21
 2571 0020 7C010000 		.4byte	.LBB33
 2572 0024 86010000 		.4byte	.LBE33
 2573 0028 D8010000 		.4byte	.LBB36
 2574 002c E4010000 		.4byte	.LBE36
 2575 0030 00000000 		.4byte	0
 2576 0034 00000000 		.4byte	0
 2577 0038 0E010000 		.4byte	.LBB25
 2578 003c 10010000 		.4byte	.LBE25
 2579 0040 12010000 		.4byte	.LBB31
 2580 0044 2E010000 		.4byte	.LBE31
 2581 0048 48010000 		.4byte	.LBB32
 2582 004c 4A010000 		.4byte	.LBE32
 2583 0050 9C010000 		.4byte	.LBB34
 2584 0054 A0010000 		.4byte	.LBE34
 2585 0058 E4010000 		.4byte	.LBB37
 2586 005c 00020000 		.4byte	.LBE37
 2587 0060 00000000 		.4byte	0
 2588 0064 00000000 		.4byte	0
 2589 0068 0A000000 		.4byte	.LBB38
 2590 006c 7A000000 		.4byte	.LBE38
 2591 0070 B2000000 		.4byte	.LBB47
 2592 0074 D6000000 		.4byte	.LBE47
 2593 0078 00000000 		.4byte	0
 2594 007c 00000000 		.4byte	0
 2595 0080 0A000000 		.4byte	.LBB40
 2596 0084 7A000000 		.4byte	.LBE40
 2597 0088 C4000000 		.4byte	.LBB44
 2598 008c C6000000 		.4byte	.LBE44
 2599 0090 C8000000 		.4byte	.LBB45
 2600 0094 D6000000 		.4byte	.LBE45
 2601 0098 00000000 		.4byte	0
 2602 009c 00000000 		.4byte	0
 2603 00a0 00000000 		.4byte	.LFB71
 2604 00a4 00020000 		.4byte	.LFE71
 2605 00a8 00000000 		.4byte	.LFB72
 2606 00ac 1C010000 		.4byte	.LFE72
 2607 00b0 00000000 		.4byte	.LFB69
 2608 00b4 74000000 		.4byte	.LFE69
 2609 00b8 00000000 		.4byte	.LFB70
 2610 00bc 1E000000 		.4byte	.LFE70
 2611 00c0 00000000 		.4byte	0
 2612 00c4 00000000 		.4byte	0
 2613              		.section	.debug_line,"",%progbits
 2614              	.Ldebug_line0:
 2615 0000 EB020000 		.section	.debug_str,"MS",%progbits,1
 2615      0200B301 
 2615      00000201 
 2615      FB0E0D00 
ARM GAS  /var/folders/6q/x_mk5n_j3p7_c40r_2k_78980000gn/T//cc5RWwhR.s 			page 47


 2615      01010101 
 2616              	.LASF66:
 2617 0000 74617267 		.ascii	"target_value\000"
 2617      65745F76 
 2617      616C7565 
 2617      00
 2618              	.LASF77:
 2619 000d 6E657874 		.ascii	"nextPidControllerPtr\000"
 2619      50696443 
 2619      6F6E7472 
 2619      6F6C6C65 
 2619      72507472 
 2620              	.LASF40:
 2621 0022 6B566578 		.ascii	"kVexSensorDigital_11\000"
 2621      53656E73 
 2621      6F724469 
 2621      67697461 
 2621      6C5F3131 
 2622              	.LASF41:
 2623 0037 6B566578 		.ascii	"kVexSensorDigital_12\000"
 2623      53656E73 
 2623      6F724469 
 2623      67697461 
 2623      6C5F3132 
 2624              	.LASF14:
 2625 004c 73697A65 		.ascii	"sizetype\000"
 2625      74797065 
 2625      00
 2626              	.LASF62:
 2627 0055 64726976 		.ascii	"drive_cmd\000"
 2627      655F636D 
 2627      6400
 2628              	.LASF67:
 2629 005f 70696443 		.ascii	"pidController\000"
 2629      6F6E7472 
 2629      6F6C6C65 
 2629      7200
 2630              	.LASF11:
 2631 006d 5F5F7569 		.ascii	"__uint32_t\000"
 2631      6E743332 
 2631      5F7400
 2632              	.LASF58:
 2633 0078 64657269 		.ascii	"derivative\000"
 2633      76617469 
 2633      766500
 2634              	.LASF72:
 2635 0083 66617374 		.ascii	"fastpow\000"
 2635      706F7700 
 2636              	.LASF82:
 2637 008b 474E5520 		.ascii	"GNU C11 5.4.1 20160919 (release) [ARM/embedded-5-br"
 2637      43313120 
 2637      352E342E 
 2637      31203230 
 2637      31363039 
 2638 00be 616E6368 		.ascii	"anch revision 240496] -mcpu=cortex-m3 -mno-thumb-in"
 2638      20726576 
 2638      6973696F 
ARM GAS  /var/folders/6q/x_mk5n_j3p7_c40r_2k_78980000gn/T//cc5RWwhR.s 			page 48


 2638      6E203234 
 2638      30343936 
 2639 00f1 74657277 		.ascii	"terwork -mthumb -ggdb -O2 -fomit-frame-pointer -fal"
 2639      6F726B20 
 2639      2D6D7468 
 2639      756D6220 
 2639      2D676764 
 2640 0124 69676E2D 		.ascii	"ign-functions=16 -ffunction-sections -fdata-section"
 2640      66756E63 
 2640      74696F6E 
 2640      733D3136 
 2640      202D6666 
 2641 0157 73202D66 		.ascii	"s -fno-common\000"
 2641      6E6F2D63 
 2641      6F6D6D6F 
 2641      6E00
 2642              	.LASF83:
 2643 0165 2E2E2F63 		.ascii	"../convex-vexilla/cortex/opt/pidlib.c\000"
 2643      6F6E7665 
 2643      782D7665 
 2643      78696C6C 
 2643      612F636F 
 2644              	.LASF85:
 2645 018b 5F706964 		.ascii	"_pidController\000"
 2645      436F6E74 
 2645      726F6C6C 
 2645      657200
 2646              	.LASF42:
 2647 019a 6B566578 		.ascii	"kVexSensorIme_1\000"
 2647      53656E73 
 2647      6F72496D 
 2647      655F3100 
 2648              	.LASF43:
 2649 01aa 6B566578 		.ascii	"kVexSensorIme_2\000"
 2649      53656E73 
 2649      6F72496D 
 2649      655F3200 
 2650              	.LASF61:
 2651 01ba 64726976 		.ascii	"drive_raw\000"
 2651      655F7261 
 2651      7700
 2652              	.LASF65:
 2653 01c4 73656E73 		.ascii	"sensor_value\000"
 2653      6F725F76 
 2653      616C7565 
 2653      00
 2654              	.LASF46:
 2655 01d1 6B566578 		.ascii	"kVexSensorIme_5\000"
 2655      53656E73 
 2655      6F72496D 
 2655      655F3500 
 2656              	.LASF47:
 2657 01e1 6B566578 		.ascii	"kVexSensorIme_6\000"
 2657      53656E73 
 2657      6F72496D 
 2657      655F3600 
 2658              	.LASF48:
ARM GAS  /var/folders/6q/x_mk5n_j3p7_c40r_2k_78980000gn/T//cc5RWwhR.s 			page 49


 2659 01f1 6B566578 		.ascii	"kVexSensorIme_7\000"
 2659      53656E73 
 2659      6F72496D 
 2659      655F3700 
 2660              	.LASF49:
 2661 0201 6B566578 		.ascii	"kVexSensorIme_8\000"
 2661      53656E73 
 2661      6F72496D 
 2661      655F3800 
 2662              	.LASF0:
 2663 0211 666C6F61 		.ascii	"float\000"
 2663      7400
 2664              	.LASF81:
 2665 0217 63684865 		.ascii	"chHeapAlloc\000"
 2665      6170416C 
 2665      6C6F6300 
 2666              	.LASF3:
 2667 0223 6C6F6E67 		.ascii	"long long int\000"
 2667      206C6F6E 
 2667      6720696E 
 2667      7400
 2668              	.LASF10:
 2669 0231 6C6F6E67 		.ascii	"long int\000"
 2669      20696E74 
 2669      00
 2670              	.LASF29:
 2671 023a 6B566578 		.ascii	"kVexSensorAnalog_8\000"
 2671      53656E73 
 2671      6F72416E 
 2671      616C6F67 
 2671      5F3800
 2672              	.LASF56:
 2673 024d 696E7465 		.ascii	"integral\000"
 2673      6772616C 
 2673      00
 2674              	.LASF1:
 2675 0256 73686F72 		.ascii	"short int\000"
 2675      7420696E 
 2675      7400
 2676              	.LASF60:
 2677 0260 64726976 		.ascii	"drive\000"
 2677      6500
 2678              	.LASF63:
 2679 0266 73656E73 		.ascii	"sensor_port\000"
 2679      6F725F70 
 2679      6F727400 
 2680              	.LASF74:
 2681 0272 50696443 		.ascii	"PidControllerInit\000"
 2681      6F6E7472 
 2681      6F6C6C65 
 2681      72496E69 
 2681      7400
 2682              	.LASF4:
 2683 0284 6C6F6E67 		.ascii	"long double\000"
 2683      20646F75 
 2683      626C6500 
 2684              	.LASF6:
ARM GAS  /var/folders/6q/x_mk5n_j3p7_c40r_2k_78980000gn/T//cc5RWwhR.s 			page 50


 2685 0290 756E7369 		.ascii	"unsigned char\000"
 2685      676E6564 
 2685      20636861 
 2685      7200
 2686              	.LASF59:
 2687 029e 6572726F 		.ascii	"error_threshold\000"
 2687      725F7468 
 2687      72657368 
 2687      6F6C6400 
 2688              	.LASF5:
 2689 02ae 7369676E 		.ascii	"signed char\000"
 2689      65642063 
 2689      68617200 
 2690              	.LASF13:
 2691 02ba 6C6F6E67 		.ascii	"long long unsigned int\000"
 2691      206C6F6E 
 2691      6720756E 
 2691      7369676E 
 2691      65642069 
 2692              	.LASF70:
 2693 02d1 66617374 		.ascii	"fastpow2\000"
 2693      706F7732 
 2693      00
 2694              	.LASF19:
 2695 02da 75696E74 		.ascii	"uint32_t\000"
 2695      33325F74 
 2695      00
 2696              	.LASF79:
 2697 02e3 76657853 		.ascii	"vexSensorValueGet\000"
 2697      656E736F 
 2697      7256616C 
 2697      75654765 
 2697      7400
 2698              	.LASF2:
 2699 02f5 756E7369 		.ascii	"unsigned int\000"
 2699      676E6564 
 2699      20696E74 
 2699      00
 2700              	.LASF57:
 2701 0302 696E7465 		.ascii	"integral_limit\000"
 2701      6772616C 
 2701      5F6C696D 
 2701      697400
 2702              	.LASF12:
 2703 0311 6C6F6E67 		.ascii	"long unsigned int\000"
 2703      20756E73 
 2703      69676E65 
 2703      6420696E 
 2703      7400
 2704              	.LASF71:
 2705 0323 66617374 		.ascii	"fastlog2\000"
 2705      6C6F6732 
 2705      00
 2706              	.LASF7:
 2707 032c 73686F72 		.ascii	"short unsigned int\000"
 2707      7420756E 
 2707      7369676E 
ARM GAS  /var/folders/6q/x_mk5n_j3p7_c40r_2k_78980000gn/T//cc5RWwhR.s 			page 51


 2707      65642069 
 2707      6E7400
 2708              	.LASF68:
 2709 033f 6F666673 		.ascii	"offset\000"
 2709      657400
 2710              	.LASF50:
 2711 0346 74566578 		.ascii	"tVexSensors\000"
 2711      53656E73 
 2711      6F727300 
 2712              	.LASF78:
 2713 0352 50696444 		.ascii	"PidDriveLut\000"
 2713      72697665 
 2713      4C757400 
 2714              	.LASF15:
 2715 035e 63686172 		.ascii	"char\000"
 2715      00
 2716              	.LASF86:
 2717 0363 50696443 		.ascii	"PidControllerMakeLut\000"
 2717      6F6E7472 
 2717      6F6C6C65 
 2717      724D616B 
 2717      654C7574 
 2718              	.LASF18:
 2719 0378 696E7433 		.ascii	"int32_t\000"
 2719      325F7400 
 2720              	.LASF76:
 2721 0380 50696443 		.ascii	"PidControllerInitWithBias\000"
 2721      6F6E7472 
 2721      6F6C6C65 
 2721      72496E69 
 2721      74576974 
 2722              	.LASF84:
 2723 039a 2F557365 		.ascii	"/Users/Luca/src/vexilla/src/teamA\000"
 2723      72732F4C 
 2723      7563612F 
 2723      7372632F 
 2723      76657869 
 2724              	.LASF17:
 2725 03bc 696E7431 		.ascii	"int16_t\000"
 2725      365F7400 
 2726              	.LASF20:
 2727 03c4 5F426F6F 		.ascii	"_Bool\000"
 2727      6C00
 2728              	.LASF73:
 2729 03ca 50696443 		.ascii	"PidControllerUpdate\000"
 2729      6F6E7472 
 2729      6F6C6C65 
 2729      72557064 
 2729      61746500 
 2730              	.LASF75:
 2731 03de 706F7274 		.ascii	"port\000"
 2731      00
 2732              	.LASF22:
 2733 03e3 6B566578 		.ascii	"kVexSensorAnalog_1\000"
 2733      53656E73 
 2733      6F72416E 
 2733      616C6F67 
ARM GAS  /var/folders/6q/x_mk5n_j3p7_c40r_2k_78980000gn/T//cc5RWwhR.s 			page 52


 2733      5F3100
 2734              	.LASF23:
 2735 03f6 6B566578 		.ascii	"kVexSensorAnalog_2\000"
 2735      53656E73 
 2735      6F72416E 
 2735      616C6F67 
 2735      5F3200
 2736              	.LASF24:
 2737 0409 6B566578 		.ascii	"kVexSensorAnalog_3\000"
 2737      53656E73 
 2737      6F72416E 
 2737      616C6F67 
 2737      5F3300
 2738              	.LASF25:
 2739 041c 6B566578 		.ascii	"kVexSensorAnalog_4\000"
 2739      53656E73 
 2739      6F72416E 
 2739      616C6F67 
 2739      5F3400
 2740              	.LASF26:
 2741 042f 6B566578 		.ascii	"kVexSensorAnalog_5\000"
 2741      53656E73 
 2741      6F72416E 
 2741      616C6F67 
 2741      5F3500
 2742              	.LASF27:
 2743 0442 6B566578 		.ascii	"kVexSensorAnalog_6\000"
 2743      53656E73 
 2743      6F72416E 
 2743      616C6F67 
 2743      5F3600
 2744              	.LASF28:
 2745 0455 6B566578 		.ascii	"kVexSensorAnalog_7\000"
 2745      53656E73 
 2745      6F72416E 
 2745      616C6F67 
 2745      5F3700
 2746              	.LASF44:
 2747 0468 6B566578 		.ascii	"kVexSensorIme_3\000"
 2747      53656E73 
 2747      6F72496D 
 2747      655F3300 
 2748              	.LASF45:
 2749 0478 6B566578 		.ascii	"kVexSensorIme_4\000"
 2749      53656E73 
 2749      6F72496D 
 2749      655F3400 
 2750              	.LASF55:
 2751 0488 6C617374 		.ascii	"last_error\000"
 2751      5F657272 
 2751      6F7200
 2752              	.LASF16:
 2753 0493 646F7562 		.ascii	"double\000"
 2753      6C6500
 2754              	.LASF9:
 2755 049a 5F5F696E 		.ascii	"__int32_t\000"
 2755      7433325F 
ARM GAS  /var/folders/6q/x_mk5n_j3p7_c40r_2k_78980000gn/T//cc5RWwhR.s 			page 53


 2755      7400
 2756              	.LASF51:
 2757 04a4 656E6162 		.ascii	"enabled\000"
 2757      6C656400 
 2758              	.LASF8:
 2759 04ac 5F5F696E 		.ascii	"__int16_t\000"
 2759      7431365F 
 2759      7400
 2760              	.LASF64:
 2761 04b6 73656E73 		.ascii	"sensor_reverse\000"
 2761      6F725F72 
 2761      65766572 
 2761      736500
 2762              	.LASF54:
 2763 04c5 6572726F 		.ascii	"error\000"
 2763      7200
 2764              	.LASF21:
 2765 04cb 6B566578 		.ascii	"kVexSensorUndefined\000"
 2765      53656E73 
 2765      6F72556E 
 2765      64656669 
 2765      6E656400 
 2766              	.LASF52:
 2767 04df 72657331 		.ascii	"res1\000"
 2767      00
 2768              	.LASF87:
 2769 04e4 49544D5F 		.ascii	"ITM_RxBuffer\000"
 2769      52784275 
 2769      66666572 
 2769      00
 2770              	.LASF69:
 2771 04f1 636C6970 		.ascii	"clipp\000"
 2771      7000
 2772              	.LASF53:
 2773 04f7 4B626961 		.ascii	"Kbias\000"
 2773      7300
 2774              	.LASF39:
 2775 04fd 6B566578 		.ascii	"kVexSensorDigital_10\000"
 2775      53656E73 
 2775      6F724469 
 2775      67697461 
 2775      6C5F3130 
 2776              	.LASF30:
 2777 0512 6B566578 		.ascii	"kVexSensorDigital_1\000"
 2777      53656E73 
 2777      6F724469 
 2777      67697461 
 2777      6C5F3100 
 2778              	.LASF31:
 2779 0526 6B566578 		.ascii	"kVexSensorDigital_2\000"
 2779      53656E73 
 2779      6F724469 
 2779      67697461 
 2779      6C5F3200 
 2780              	.LASF32:
 2781 053a 6B566578 		.ascii	"kVexSensorDigital_3\000"
 2781      53656E73 
ARM GAS  /var/folders/6q/x_mk5n_j3p7_c40r_2k_78980000gn/T//cc5RWwhR.s 			page 54


 2781      6F724469 
 2781      67697461 
 2781      6C5F3300 
 2782              	.LASF33:
 2783 054e 6B566578 		.ascii	"kVexSensorDigital_4\000"
 2783      53656E73 
 2783      6F724469 
 2783      67697461 
 2783      6C5F3400 
 2784              	.LASF34:
 2785 0562 6B566578 		.ascii	"kVexSensorDigital_5\000"
 2785      53656E73 
 2785      6F724469 
 2785      67697461 
 2785      6C5F3500 
 2786              	.LASF35:
 2787 0576 6B566578 		.ascii	"kVexSensorDigital_6\000"
 2787      53656E73 
 2787      6F724469 
 2787      67697461 
 2787      6C5F3600 
 2788              	.LASF36:
 2789 058a 6B566578 		.ascii	"kVexSensorDigital_7\000"
 2789      53656E73 
 2789      6F724469 
 2789      67697461 
 2789      6C5F3700 
 2790              	.LASF37:
 2791 059e 6B566578 		.ascii	"kVexSensorDigital_8\000"
 2791      53656E73 
 2791      6F724469 
 2791      67697461 
 2791      6C5F3800 
 2792              	.LASF38:
 2793 05b2 6B566578 		.ascii	"kVexSensorDigital_9\000"
 2793      53656E73 
 2793      6F724469 
 2793      67697461 
 2793      6C5F3900 
 2794              	.LASF80:
 2795 05c6 76657853 		.ascii	"vexSensorIsAnalog\000"
 2795      656E736F 
 2795      72497341 
 2795      6E616C6F 
 2795      6700
 2796              		.ident	"GCC: (GNU Tools for ARM Embedded Processors) 5.4.1 20160919 (release) [ARM/embedded-5-bran
ARM GAS  /var/folders/6q/x_mk5n_j3p7_c40r_2k_78980000gn/T//cc5RWwhR.s 			page 55


DEFINED SYMBOLS
                            *ABS*:0000000000000000 pidlib.c
/var/folders/6q/x_mk5n_j3p7_c40r_2k_78980000gn/T//cc5RWwhR.s:31     .text.PidControllerUpdate:0000000000000000 $t
/var/folders/6q/x_mk5n_j3p7_c40r_2k_78980000gn/T//cc5RWwhR.s:37     .text.PidControllerUpdate:0000000000000000 PidControllerUpdate
/var/folders/6q/x_mk5n_j3p7_c40r_2k_78980000gn/T//cc5RWwhR.s:429    .text.PidControllerUpdate:00000000000001e8 $d
/var/folders/6q/x_mk5n_j3p7_c40r_2k_78980000gn/T//cc5RWwhR.s:446    .text.PidControllerMakeLut:0000000000000000 $t
/var/folders/6q/x_mk5n_j3p7_c40r_2k_78980000gn/T//cc5RWwhR.s:452    .text.PidControllerMakeLut:0000000000000000 PidControllerMakeLut
/var/folders/6q/x_mk5n_j3p7_c40r_2k_78980000gn/T//cc5RWwhR.s:636    .text.PidControllerMakeLut:00000000000000e8 $d
/var/folders/6q/x_mk5n_j3p7_c40r_2k_78980000gn/T//cc5RWwhR.s:653    .text.PidControllerInit:0000000000000000 $t
/var/folders/6q/x_mk5n_j3p7_c40r_2k_78980000gn/T//cc5RWwhR.s:659    .text.PidControllerInit:0000000000000000 PidControllerInit
/var/folders/6q/x_mk5n_j3p7_c40r_2k_78980000gn/T//cc5RWwhR.s:764    .text.PidControllerInit:0000000000000070 $d
/var/folders/6q/x_mk5n_j3p7_c40r_2k_78980000gn/T//cc5RWwhR.s:769    .text.PidControllerInitWithBias:0000000000000000 $t
/var/folders/6q/x_mk5n_j3p7_c40r_2k_78980000gn/T//cc5RWwhR.s:775    .text.PidControllerInitWithBias:0000000000000000 PidControllerInitWithBias
/var/folders/6q/x_mk5n_j3p7_c40r_2k_78980000gn/T//cc5RWwhR.s:814    .bss.PidDriveLut:0000000000000000 $d
/var/folders/6q/x_mk5n_j3p7_c40r_2k_78980000gn/T//cc5RWwhR.s:818    .bss.PidDriveLut:0000000000000000 PidDriveLut
                     .debug_frame:0000000000000010 $d

UNDEFINED SYMBOLS
__aeabi_i2f
__aeabi_fcmplt
__aeabi_fcmpeq
__aeabi_fadd
__aeabi_fcmpgt
__aeabi_fmul
__aeabi_fsub
__aeabi_f2d
__aeabi_dmul
__aeabi_d2iz
__aeabi_f2iz
vexSensorValueGet
vexSensorIsAnalog
__aeabi_fdiv
__aeabi_f2uiz
__aeabi_dsub
__aeabi_ddiv
__aeabi_dadd
chHeapAlloc
