ARM GAS  /var/folders/6q/x_mk5n_j3p7_c40r_2k_78980000gn/T//cc5RWwhR.s 			page 1


   1              		.syntax unified
   2              		.cpu cortex-m3
   3              		.fpu softvfp
   4              		.eabi_attribute 20, 1
   5              		.eabi_attribute 21, 1
   6              		.eabi_attribute 23, 3
   7              		.eabi_attribute 24, 1
   8              		.eabi_attribute 25, 1
   9              		.eabi_attribute 26, 1
  10              		.eabi_attribute 30, 2
  11              		.eabi_attribute 34, 1
  12              		.eabi_attribute 18, 4
  13              		.thumb
  14              		.syntax unified
  15              		.file	"pidlib.c"
  16              		.text
  17              	.Ltext0:
  18              		.cfi_sections	.debug_frame
  19              		.global	__aeabi_i2f
  20              		.global	__aeabi_fcmplt
  21              		.global	__aeabi_fcmpeq
  22              		.global	__aeabi_fadd
  23              		.global	__aeabi_fcmpgt
  24              		.global	__aeabi_fmul
  25              		.global	__aeabi_fsub
  26              		.global	__aeabi_f2d
  27              		.global	__aeabi_dmul
  28              		.global	__aeabi_d2iz
  29              		.global	__aeabi_f2iz
  30              		.section	.text.PidControllerUpdate,"ax",%progbits
  31              		.align	2
  32              		.p2align 4,,15
  33              		.global	PidControllerUpdate
  34              		.thumb
  35              		.thumb_func
  36              		.type	PidControllerUpdate, %function
  37              	PidControllerUpdate:
  38              	.LFB71:
  39              		.file 1 "../convex-vexilla/cortex/opt/pidlib.c"
  40              		.loc 1 160 0
  41              		.cfi_startproc
  42              		@ args = 0, pretend = 0, frame = 0
  43              		@ frame_needed = 0, uses_anonymous_args = 0
  44              	.LVL0:
  45              		.loc 1 161 0
  46 0000 0028     		cmp	r0, #0
  47 0002 00F0E280 		beq	.L45
  48              		.loc 1 164 0
  49 0006 B0F90030 		ldrsh	r3, [r0]
  50              		.loc 1 160 0
  51 000a 2DE9F047 		push	{r4, r5, r6, r7, r8, r9, r10, lr}
  52              		.cfi_def_cfa_offset 32
  53              		.cfi_offset 4, -32
  54              		.cfi_offset 5, -28
  55              		.cfi_offset 6, -24
  56              		.cfi_offset 7, -20
  57              		.cfi_offset 8, -16
ARM GAS  /var/folders/6q/x_mk5n_j3p7_c40r_2k_78980000gn/T//cc5RWwhR.s 			page 2


  58              		.cfi_offset 9, -12
  59              		.cfi_offset 10, -8
  60              		.cfi_offset 14, -4
  61 000e 0446     		mov	r4, r0
  62              		.loc 1 164 0
  63 0010 002B     		cmp	r3, #0
  64 0012 00F08C80 		beq	.L3
  65              		.loc 1 168 0
  66 0016 90F93400 		ldrsb	r0, [r0, #52]
  67              	.LVL1:
  68 001a 0028     		cmp	r0, #0
  69 001c 80F29E80 		bge	.L4
  70 0020 6569     		ldr	r5, [r4, #20]	@ float
  71              	.L5:
  72              		.loc 1 188 0
  73 0022 25F00040 		bic	r0, r5, #-2147483648
  74 0026 A16A     		ldr	r1, [r4, #40]	@ float
  75 0028 FFF7FEFF 		bl	__aeabi_fcmplt
  76              	.LVL2:
  77 002c 10B1     		cbz	r0, .L8
  78              		.loc 1 189 0
  79 002e 0023     		movs	r3, #0
  80 0030 1D46     		mov	r5, r3
  81 0032 6361     		str	r3, [r4, #20]	@ float
  82              	.L8:
  83              		.loc 1 192 0
  84 0034 A768     		ldr	r7, [r4, #8]	@ float
  85 0036 0026     		movs	r6, #0
  86 0038 3846     		mov	r0, r7
  87 003a 3146     		mov	r1, r6
  88 003c FFF7FEFF 		bl	__aeabi_fcmpeq
  89              	.LVL3:
  90 0040 0028     		cmp	r0, #0
  91 0042 40F09880 		bne	.L39
  92              		.loc 1 194 0
  93 0046 E169     		ldr	r1, [r4, #28]	@ float
  94 0048 2846     		mov	r0, r5
  95 004a FFF7FEFF 		bl	__aeabi_fadd
  96              	.LVL4:
  97 004e 8146     		mov	r9, r0
  98              		.loc 1 197 0
  99 0050 D4F820A0 		ldr	r10, [r4, #32]	@ float
 100 0054 20F00040 		bic	r0, r0, #-2147483648
 101              		.loc 1 194 0
 102 0058 C4F81C90 		str	r9, [r4, #28]	@ float
 103              		.loc 1 197 0
 104 005c 5146     		mov	r1, r10
 105              		.loc 1 194 0
 106 005e C846     		mov	r8, r9
 107              		.loc 1 197 0
 108 0060 FFF7FEFF 		bl	__aeabi_fcmpgt
 109              	.LVL5:
 110 0064 90B1     		cbz	r0, .L12
 111              	.LVL6:
 112              	.LBB18:
 113              	.LBB19:
 114              		.loc 1 74 0
ARM GAS  /var/folders/6q/x_mk5n_j3p7_c40r_2k_78980000gn/T//cc5RWwhR.s 			page 3


 115 0066 3146     		mov	r1, r6
 116 0068 4846     		mov	r0, r9
 117 006a FFF7FEFF 		bl	__aeabi_fcmpeq
 118              	.LVL7:
 119 006e 3146     		mov	r1, r6
 120 0070 38B9     		cbnz	r0, .L14
 121              		.loc 1 75 0
 122 0072 4846     		mov	r0, r9
 123 0074 FFF7FEFF 		bl	__aeabi_fcmpgt
 124              	.LVL8:
 125 0078 0028     		cmp	r0, #0
 126 007a 00F0AB80 		beq	.L40
 127 007e 4FF07E51 		mov	r1, #1065353216
 128              	.L14:
 129              	.LVL9:
 130              	.LBE19:
 131              	.LBE18:
 132              		.loc 1 198 0
 133 0082 5046     		mov	r0, r10
 134 0084 FFF7FEFF 		bl	__aeabi_fmul
 135              	.LVL10:
 136 0088 8046     		mov	r8, r0
 137 008a E061     		str	r0, [r4, #28]	@ float
 138              	.L12:
 139              		.loc 1 204 0
 140 008c A169     		ldr	r1, [r4, #24]	@ float
 141 008e 2846     		mov	r0, r5
 142 0090 FFF7FEFF 		bl	__aeabi_fsub
 143              	.LVL11:
 144              		.loc 1 205 0
 145 0094 A561     		str	r5, [r4, #24]	@ float
 146              		.loc 1 204 0
 147 0096 0646     		mov	r6, r0
 148 0098 6062     		str	r0, [r4, #36]	@ float
 149              		.loc 1 208 0
 150 009a 6168     		ldr	r1, [r4, #4]	@ float
 151 009c 2846     		mov	r0, r5
 152 009e FFF7FEFF 		bl	__aeabi_fmul
 153              	.LVL12:
 154 00a2 4146     		mov	r1, r8
 155 00a4 0546     		mov	r5, r0
 156 00a6 3846     		mov	r0, r7
 157 00a8 FFF7FEFF 		bl	__aeabi_fmul
 158              	.LVL13:
 159 00ac 0146     		mov	r1, r0
 160 00ae 2846     		mov	r0, r5
 161 00b0 FFF7FEFF 		bl	__aeabi_fadd
 162              	.LVL14:
 163 00b4 E168     		ldr	r1, [r4, #12]	@ float
 164 00b6 0546     		mov	r5, r0
 165 00b8 3046     		mov	r0, r6
 166 00ba FFF7FEFF 		bl	__aeabi_fmul
 167              	.LVL15:
 168 00be 0146     		mov	r1, r0
 169 00c0 2846     		mov	r0, r5
 170 00c2 FFF7FEFF 		bl	__aeabi_fadd
 171              	.LVL16:
ARM GAS  /var/folders/6q/x_mk5n_j3p7_c40r_2k_78980000gn/T//cc5RWwhR.s 			page 4


 172 00c6 2169     		ldr	r1, [r4, #16]	@ float
 173 00c8 FFF7FEFF 		bl	__aeabi_fadd
 174              	.LVL17:
 175              		.loc 1 211 0
 176 00cc 4FF07E51 		mov	r1, #1065353216
 177              		.loc 1 208 0
 178 00d0 0546     		mov	r5, r0
 179              		.loc 1 211 0
 180 00d2 20F00040 		bic	r0, r0, #-2147483648
 181 00d6 FFF7FEFF 		bl	__aeabi_fcmpgt
 182              	.LVL18:
 183 00da 0028     		cmp	r0, #0
 184 00dc 60D0     		beq	.L48
 185              	.LVL19:
 186              	.LBB21:
 187              	.LBB22:
 188              		.loc 1 74 0
 189 00de 0021     		movs	r1, #0
 190 00e0 2846     		mov	r0, r5
 191 00e2 FFF7FEFF 		bl	__aeabi_fcmpeq
 192              	.LVL20:
 193 00e6 0028     		cmp	r0, #0
 194 00e8 48D1     		bne	.L26
 195              		.loc 1 75 0
 196 00ea 2846     		mov	r0, r5
 197 00ec 0021     		movs	r1, #0
 198 00ee FFF7FEFF 		bl	__aeabi_fcmpgt
 199              	.LVL21:
 200 00f2 0028     		cmp	r0, #0
 201 00f4 70D0     		beq	.L41
 202 00f6 7F23     		movs	r3, #127
 203 00f8 1E46     		mov	r6, r3
 204 00fa 3D4D     		ldr	r5, .L51+8
 205              	.LVL22:
 206 00fc 4FF07E52 		mov	r2, #1065353216
 207              	.L18:
 208              	.LBE22:
 209              	.LBE21:
 210              		.loc 1 212 0
 211 0100 E262     		str	r2, [r4, #44]	@ float
 212              	.L17:
 213              		.loc 1 230 0
 214 0102 3C4A     		ldr	r2, .L51+12
 215              		.loc 1 215 0
 216 0104 2686     		strh	r6, [r4, #48]	@ movhi
 217              		.loc 1 230 0
 218 0106 32F91300 		ldrsh	r0, [r2, r3, lsl #1]
 219 010a FFF7FEFF 		bl	__aeabi_i2f
 220              	.LVL23:
 221              	.LBB25:
 222              	.LBB26:
 223              		.loc 1 74 0
 224 010e 0021     		movs	r1, #0
 225              	.LBE26:
 226              	.LBE25:
 227              		.loc 1 230 0
 228 0110 0646     		mov	r6, r0
ARM GAS  /var/folders/6q/x_mk5n_j3p7_c40r_2k_78980000gn/T//cc5RWwhR.s 			page 5


 229              	.LVL24:
 230              	.LBB31:
 231              	.LBB27:
 232              		.loc 1 74 0
 233 0112 2846     		mov	r0, r5
 234 0114 FFF7FEFF 		bl	__aeabi_fcmpeq
 235              	.LVL25:
 236 0118 0028     		cmp	r0, #0
 237 011a 63D1     		bne	.L49
 238              		.loc 1 75 0
 239 011c 2846     		mov	r0, r5
 240 011e 0021     		movs	r1, #0
 241 0120 FFF7FEFF 		bl	__aeabi_fcmpgt
 242              	.LVL26:
 243 0124 0028     		cmp	r0, #0
 244 0126 39D0     		beq	.L43
 245 0128 4FF07E50 		mov	r0, #1065353216
 246 012c 0DE0     		b	.L20
 247              	.LVL27:
 248              	.L3:
 249              	.LBE27:
 250              	.LBE31:
 251              		.loc 1 230 0
 252 012e 314A     		ldr	r2, .L51+12
 253              		.loc 1 221 0
 254 0130 0025     		movs	r5, #0
 255              		.loc 1 226 0
 256 0132 0386     		strh	r3, [r0, #48]	@ movhi
 257              		.loc 1 221 0
 258 0134 4561     		str	r5, [r0, #20]	@ float
 259              		.loc 1 222 0
 260 0136 8561     		str	r5, [r0, #24]	@ float
 261              		.loc 1 223 0
 262 0138 C561     		str	r5, [r0, #28]	@ float
 263              		.loc 1 224 0
 264 013a 4562     		str	r5, [r0, #36]	@ float
 265              		.loc 1 225 0
 266 013c C562     		str	r5, [r0, #44]	@ float
 267              		.loc 1 230 0
 268 013e B2F90000 		ldrsh	r0, [r2]
 269              	.LVL28:
 270 0142 FFF7FEFF 		bl	__aeabi_i2f
 271              	.LVL29:
 272 0146 0646     		mov	r6, r0
 273              	.LVL30:
 274              	.LBB32:
 275              	.LBB28:
 276              		.loc 1 74 0
 277 0148 2846     		mov	r0, r5
 278              	.LVL31:
 279              	.L20:
 280              	.LBE28:
 281              	.LBE32:
 282              		.loc 1 230 0
 283 014a 3146     		mov	r1, r6
 284 014c FFF7FEFF 		bl	__aeabi_fmul
 285              	.LVL32:
ARM GAS  /var/folders/6q/x_mk5n_j3p7_c40r_2k_78980000gn/T//cc5RWwhR.s 			page 6


 286 0150 FFF7FEFF 		bl	__aeabi_f2iz
 287              	.LVL33:
 288 0154 00B2     		sxth	r0, r0
 289 0156 6086     		strh	r0, [r4, #50]	@ movhi
 290              		.loc 1 234 0
 291 0158 BDE8F087 		pop	{r4, r5, r6, r7, r8, r9, r10, pc}
 292              	.LVL34:
 293              	.L4:
 294              		.loc 1 171 0
 295 015c FFF7FEFF 		bl	vexSensorValueGet
 296              	.LVL35:
 297              		.loc 1 174 0
 298 0160 B4F93630 		ldrsh	r3, [r4, #54]
 299              		.loc 1 171 0
 300 0164 A063     		str	r0, [r4, #56]
 301              		.loc 1 174 0
 302 0166 73B9     		cbnz	r3, .L50
 303              	.L6:
 304              		.loc 1 184 0
 305 0168 E36B     		ldr	r3, [r4, #60]
 306 016a 181A     		subs	r0, r3, r0
 307 016c FFF7FEFF 		bl	__aeabi_i2f
 308              	.LVL36:
 309 0170 0546     		mov	r5, r0
 310 0172 6061     		str	r0, [r4, #20]	@ float
 311 0174 55E7     		b	.L5
 312              	.L39:
 313              		.loc 1 201 0
 314 0176 B046     		mov	r8, r6
 315 0178 E661     		str	r6, [r4, #28]	@ float
 316 017a 87E7     		b	.L12
 317              	.LVL37:
 318              	.L26:
 319              	.LBB33:
 320              	.LBB23:
 321              		.loc 1 74 0
 322 017c 0025     		movs	r5, #0
 323              	.LVL38:
 324 017e 0023     		movs	r3, #0
 325 0180 2A46     		mov	r2, r5
 326 0182 1E46     		mov	r6, r3
 327 0184 BCE7     		b	.L18
 328              	.L50:
 329              	.LBE23:
 330              	.LBE33:
 331              		.loc 1 176 0
 332 0186 94F93400 		ldrsb	r0, [r4, #52]
 333 018a FFF7FEFF 		bl	vexSensorIsAnalog
 334              	.LVL39:
 335 018e E8B1     		cbz	r0, .L7
 336              		.loc 1 178 0
 337 0190 A06B     		ldr	r0, [r4, #56]
 338 0192 C0F57F60 		rsb	r0, r0, #4080
 339 0196 0F30     		adds	r0, r0, #15
 340 0198 A063     		str	r0, [r4, #56]
 341 019a E5E7     		b	.L6
 342              	.L43:
ARM GAS  /var/folders/6q/x_mk5n_j3p7_c40r_2k_78980000gn/T//cc5RWwhR.s 			page 7


 343              	.LBB34:
 344              	.LBB29:
 345              		.loc 1 75 0
 346 019c 1648     		ldr	r0, .L51+16
 347 019e D4E7     		b	.L20
 348              	.L48:
 349              	.LBE29:
 350              	.LBE34:
 351              		.loc 1 208 0
 352 01a0 E562     		str	r5, [r4, #44]	@ float
 353 01a2 2846     		mov	r0, r5
 354 01a4 FFF7FEFF 		bl	__aeabi_f2d
 355              	.LVL40:
 356 01a8 0FA3     		adr	r3, .L51
 357 01aa D3E90023 		ldrd	r2, [r3]
 358 01ae FFF7FEFF 		bl	__aeabi_dmul
 359              	.LVL41:
 360 01b2 FFF7FEFF 		bl	__aeabi_d2iz
 361              	.LVL42:
 362 01b6 06B2     		sxth	r6, r0
 363 01b8 3046     		mov	r0, r6
 364 01ba FFF7FEFF 		bl	__aeabi_i2f
 365              	.LVL43:
 366 01be 86EAE673 		eor	r3, r6, r6, asr #31
 367 01c2 0546     		mov	r5, r0
 368 01c4 A3EBE673 		sub	r3, r3, r6, asr #31
 369 01c8 9BE7     		b	.L17
 370              	.LVL44:
 371              	.L45:
 372              		.cfi_def_cfa_offset 0
 373              		.cfi_restore 4
 374              		.cfi_restore 5
 375              		.cfi_restore 6
 376              		.cfi_restore 7
 377              		.cfi_restore 8
 378              		.cfi_restore 9
 379              		.cfi_restore 10
 380              		.cfi_restore 14
 381              		.loc 1 234 0
 382 01ca 7047     		bx	lr
 383              	.LVL45:
 384              	.L7:
 385              		.cfi_def_cfa_offset 32
 386              		.cfi_offset 4, -32
 387              		.cfi_offset 5, -28
 388              		.cfi_offset 6, -24
 389              		.cfi_offset 7, -20
 390              		.cfi_offset 8, -16
 391              		.cfi_offset 9, -12
 392              		.cfi_offset 10, -8
 393              		.cfi_offset 14, -4
 394              		.loc 1 181 0
 395 01cc A06B     		ldr	r0, [r4, #56]
 396 01ce 4042     		negs	r0, r0
 397 01d0 A063     		str	r0, [r4, #56]
 398 01d2 C9E7     		b	.L6
 399              	.LVL46:
ARM GAS  /var/folders/6q/x_mk5n_j3p7_c40r_2k_78980000gn/T//cc5RWwhR.s 			page 8


 400              	.L40:
 401              	.LBB35:
 402              	.LBB20:
 403              		.loc 1 75 0
 404 01d4 0849     		ldr	r1, .L51+16
 405 01d6 54E7     		b	.L14
 406              	.LVL47:
 407              	.L41:
 408              	.LBE20:
 409              	.LBE35:
 410              	.LBB36:
 411              	.LBB24:
 412 01d8 084D     		ldr	r5, .L51+20
 413              	.LVL48:
 414 01da 074A     		ldr	r2, .L51+16
 415 01dc 7F23     		movs	r3, #127
 416 01de 6FF07E06 		mvn	r6, #126
 417 01e2 8DE7     		b	.L18
 418              	.L49:
 419              	.LBE24:
 420              	.LBE36:
 421              	.LBB37:
 422              	.LBB30:
 423              		.loc 1 74 0
 424 01e4 0020     		movs	r0, #0
 425 01e6 B0E7     		b	.L20
 426              	.L52:
 427              		.align	3
 428              	.L51:
 429 01e8 00000000 		.word	0
 430 01ec 00C05F40 		.word	1080016896
 431 01f0 0000FE42 		.word	1123942400
 432 01f4 00000000 		.word	.LANCHOR0
 433 01f8 000080BF 		.word	-1082130432
 434 01fc 0000FEC2 		.word	-1023541248
 435              	.LBE30:
 436              	.LBE37:
 437              		.cfi_endproc
 438              	.LFE71:
 439              		.size	PidControllerUpdate, .-PidControllerUpdate
 440              		.global	__aeabi_fdiv
 441              		.global	__aeabi_f2uiz
 442              		.global	__aeabi_dsub
 443              		.global	__aeabi_ddiv
 444              		.global	__aeabi_dadd
 445              		.section	.text.PidControllerMakeLut,"ax",%progbits
 446              		.align	2
 447              		.p2align 4,,15
 448              		.global	PidControllerMakeLut
 449              		.thumb
 450              		.thumb_func
 451              		.type	PidControllerMakeLut, %function
 452              	PidControllerMakeLut:
 453              	.LFB72:
 454              		.loc 1 243 0
 455              		.cfi_startproc
 456              		@ args = 0, pretend = 0, frame = 0
ARM GAS  /var/folders/6q/x_mk5n_j3p7_c40r_2k_78980000gn/T//cc5RWwhR.s 			page 9


 457              		@ frame_needed = 0, uses_anonymous_args = 0
 458              	.LVL49:
 459 0000 2DE9F843 		push	{r3, r4, r5, r6, r7, r8, r9, lr}
 460              		.cfi_def_cfa_offset 32
 461              		.cfi_offset 3, -32
 462              		.cfi_offset 4, -28
 463              		.cfi_offset 5, -24
 464              		.cfi_offset 6, -20
 465              		.cfi_offset 7, -16
 466              		.cfi_offset 8, -12
 467              		.cfi_offset 9, -8
 468              		.cfi_offset 14, -4
 469 0004 384E     		ldr	r6, .L67
 470              		.loc 1 243 0
 471 0006 0024     		movs	r4, #0
 472 0008 53E0     		b	.L59
 473              	.LVL50:
 474              	.L64:
 475              	.LBB38:
 476              	.LBB39:
 477              	.LBB40:
 478              	.LBB41:
 479              		.file 2 "../convex-vexilla/cortex/opt/fastmath.c"
 480              		.loc 2 61 0
 481 000a 4FF00009 		mov	r9, #0
 482              	.L54:
 483              	.LVL51:
 484              		.loc 2 62 0
 485 000e 3749     		ldr	r1, .L67+4
 486 0010 2846     		mov	r0, r5
 487 0012 374F     		ldr	r7, .L67+8
 488 0014 4FF00008 		mov	r8, #0
 489 0018 FFF7FEFF 		bl	__aeabi_fcmplt
 490              	.LVL52:
 491 001c 70B9     		cbnz	r0, .L56
 492 001e 2846     		mov	r0, r5
 493 0020 FFF7FEFF 		bl	__aeabi_f2iz
 494              	.LVL53:
 495 0024 FFF7FEFF 		bl	__aeabi_i2f
 496              	.LVL54:
 497 0028 0146     		mov	r1, r0
 498 002a 2846     		mov	r0, r5
 499 002c FFF7FEFF 		bl	__aeabi_fsub
 500              	.LVL55:
 501 0030 3049     		ldr	r1, .L67+12
 502 0032 8046     		mov	r8, r0
 503 0034 2846     		mov	r0, r5
 504 0036 FFF7FEFF 		bl	__aeabi_fadd
 505              	.LVL56:
 506 003a 0746     		mov	r7, r0
 507              	.L56:
 508              		.loc 2 64 0
 509 003c 4146     		mov	r1, r8
 510 003e 4846     		mov	r0, r9
 511 0040 FFF7FEFF 		bl	__aeabi_fadd
 512              	.LVL57:
 513              		.loc 2 65 0
ARM GAS  /var/folders/6q/x_mk5n_j3p7_c40r_2k_78980000gn/T//cc5RWwhR.s 			page 10


 514 0044 0146     		mov	r1, r0
 515              		.loc 2 64 0
 516 0046 0546     		mov	r5, r0
 517              	.LVL58:
 518              		.loc 2 65 0
 519 0048 2B48     		ldr	r0, .L67+16
 520              	.LVL59:
 521 004a FFF7FEFF 		bl	__aeabi_fsub
 522              	.LVL60:
 523 004e 0146     		mov	r1, r0
 524 0050 2A48     		ldr	r0, .L67+20
 525 0052 FFF7FEFF 		bl	__aeabi_fdiv
 526              	.LVL61:
 527 0056 3946     		mov	r1, r7
 528 0058 FFF7FEFF 		bl	__aeabi_fadd
 529              	.LVL62:
 530 005c 2849     		ldr	r1, .L67+24
 531 005e 0746     		mov	r7, r0
 532 0060 2846     		mov	r0, r5
 533 0062 FFF7FEFF 		bl	__aeabi_fmul
 534              	.LVL63:
 535 0066 0146     		mov	r1, r0
 536 0068 3846     		mov	r0, r7
 537 006a FFF7FEFF 		bl	__aeabi_fsub
 538              	.LVL64:
 539 006e 4FF09641 		mov	r1, #1258291200
 540 0072 FFF7FEFF 		bl	__aeabi_fmul
 541              	.LVL65:
 542 0076 FFF7FEFF 		bl	__aeabi_f2uiz
 543              	.LVL66:
 544              	.LBE41:
 545              	.LBE40:
 546              	.LBE39:
 547              	.LBE38:
 548              		.loc 1 254 0
 549 007a 042C     		cmp	r4, #4
 550 007c 2BD9     		bls	.L57
 551              		.loc 1 255 0
 552 007e FFF7FEFF 		bl	__aeabi_f2d
 553              	.LVL67:
 554 0082 0022     		movs	r2, #0
 555 0084 1F4B     		ldr	r3, .L67+28
 556 0086 FFF7FEFF 		bl	__aeabi_dsub
 557              	.LVL68:
 558 008a 0022     		movs	r2, #0
 559 008c 1E4B     		ldr	r3, .L67+32
 560 008e FFF7FEFF 		bl	__aeabi_ddiv
 561              	.LVL69:
 562 0092 0022     		movs	r2, #0
 563 0094 1D4B     		ldr	r3, .L67+36
 564 0096 FFF7FEFF 		bl	__aeabi_dmul
 565              	.LVL70:
 566 009a 0022     		movs	r2, #0
 567 009c 1C4B     		ldr	r3, .L67+40
 568 009e FFF7FEFF 		bl	__aeabi_dadd
 569              	.LVL71:
 570 00a2 FFF7FEFF 		bl	__aeabi_d2iz
ARM GAS  /var/folders/6q/x_mk5n_j3p7_c40r_2k_78980000gn/T//cc5RWwhR.s 			page 11


 571              	.LVL72:
 572 00a6 0134     		adds	r4, r4, #1
 573              	.LVL73:
 574              		.loc 1 247 0
 575 00a8 802C     		cmp	r4, #128
 576              		.loc 1 255 0
 577 00aa 3080     		strh	r0, [r6]	@ movhi
 578 00ac 06F10206 		add	r6, r6, #2
 579              		.loc 1 247 0
 580 00b0 18D0     		beq	.L66
 581              	.L59:
 582              	.LVL74:
 583              	.LBB47:
 584              	.LBB46:
 585              		.loc 2 93 0
 586 00b2 20B2     		sxth	r0, r4
 587 00b4 FFF7FEFF 		bl	__aeabi_i2f
 588              	.LVL75:
 589 00b8 1649     		ldr	r1, .L67+44
 590 00ba FFF7FEFF 		bl	__aeabi_fdiv
 591              	.LVL76:
 592 00be 1649     		ldr	r1, .L67+48
 593 00c0 FFF7FEFF 		bl	__aeabi_fmul
 594              	.LVL77:
 595              	.LBB44:
 596              	.LBB42:
 597              		.loc 2 61 0
 598 00c4 0021     		movs	r1, #0
 599              	.LBE42:
 600              	.LBE44:
 601              		.loc 2 93 0
 602 00c6 0546     		mov	r5, r0
 603              	.LVL78:
 604              	.LBB45:
 605              	.LBB43:
 606              		.loc 2 61 0
 607 00c8 FFF7FEFF 		bl	__aeabi_fcmplt
 608              	.LVL79:
 609 00cc 0028     		cmp	r0, #0
 610 00ce 9CD0     		beq	.L64
 611 00d0 4FF07E59 		mov	r9, #1065353216
 612 00d4 9BE7     		b	.L54
 613              	.LVL80:
 614              	.L57:
 615              	.LBE43:
 616              	.LBE45:
 617              	.LBE46:
 618              	.LBE47:
 619              		.loc 1 257 0
 620 00d6 6300     		lsls	r3, r4, #1
 621 00d8 0134     		adds	r4, r4, #1
 622              	.LVL81:
 623              		.loc 1 247 0
 624 00da 802C     		cmp	r4, #128
 625              		.loc 1 257 0
 626 00dc 3380     		strh	r3, [r6]	@ movhi
 627 00de 06F10206 		add	r6, r6, #2
ARM GAS  /var/folders/6q/x_mk5n_j3p7_c40r_2k_78980000gn/T//cc5RWwhR.s 			page 12


 628              		.loc 1 247 0
 629 00e2 E6D1     		bne	.L59
 630              	.L66:
 631              		.loc 1 265 0
 632 00e4 BDE8F883 		pop	{r3, r4, r5, r6, r7, r8, r9, pc}
 633              	.L68:
 634              		.align	2
 635              	.L67:
 636 00e8 00000000 		.word	.LANCHOR0
 637 00ec 0000FCC2 		.word	-1023672320
 638 00f0 F03A97C0 		.word	-1063830800
 639 00f4 518CF242 		.word	1123191889
 640 00f8 F8F59A40 		.word	1083897336
 641 00fc FED2DD41 		.word	1105056510
 642 0100 8DBCBE3F 		.word	1069464717
 643 0104 0000F03F 		.word	1072693248
 644 0108 00003340 		.word	1077084160
 645 010c 00405D40 		.word	1079853056
 646 0110 00002440 		.word	1076101120
 647 0114 0000FE42 		.word	1123942400
 648 0118 B74C8A40 		.word	1082805431
 649              		.cfi_endproc
 650              	.LFE72:
 651              		.size	PidControllerMakeLut, .-PidControllerMakeLut
 652              		.section	.text.PidControllerInit,"ax",%progbits
 653              		.align	2
 654              		.p2align 4,,15
 655              		.global	PidControllerInit
 656              		.thumb
 657              		.thumb_func
 658              		.type	PidControllerInit, %function
 659              	PidControllerInit:
 660              	.LFB69:
 661              		.loc 1 88 0
 662              		.cfi_startproc
 663              		@ args = 4, pretend = 0, frame = 0
 664              		@ frame_needed = 0, uses_anonymous_args = 0
 665              	.LVL82:
 666 0000 2DE9F047 		push	{r4, r5, r6, r7, r8, r9, r10, lr}
 667              		.cfi_def_cfa_offset 32
 668              		.cfi_offset 4, -32
 669              		.cfi_offset 5, -28
 670              		.cfi_offset 6, -24
 671              		.cfi_offset 7, -20
 672              		.cfi_offset 8, -16
 673              		.cfi_offset 9, -12
 674              		.cfi_offset 10, -8
 675              		.cfi_offset 14, -4
 676              		.loc 1 88 0
 677 0004 0E46     		mov	r6, r1
 678 0006 8246     		mov	r10, r0
 679              		.loc 1 97 0
 680 0008 4021     		movs	r1, #64
 681              	.LVL83:
 682 000a 0020     		movs	r0, #0
 683              	.LVL84:
 684              		.loc 1 88 0
ARM GAS  /var/folders/6q/x_mk5n_j3p7_c40r_2k_78980000gn/T//cc5RWwhR.s 			page 13


 685 000c 9146     		mov	r9, r2
 686 000e 9846     		mov	r8, r3
 687 0010 BDF92070 		ldrsh	r7, [sp, #32]
 688              		.loc 1 97 0
 689 0014 FFF7FEFF 		bl	chHeapAlloc
 690              	.LVL85:
 691              		.loc 1 104 0
 692 0018 0025     		movs	r5, #0
 693              		.loc 1 112 0
 694 001a 0023     		movs	r3, #0
 695              		.loc 1 97 0
 696 001c 0446     		mov	r4, r0
 697              	.LVL86:
 698              		.loc 1 101 0
 699 001e C0F804A0 		str	r10, [r0, #4]	@ float
 700              		.loc 1 102 0
 701 0022 8660     		str	r6, [r0, #8]	@ float
 702              		.loc 1 103 0
 703 0024 C0F80C90 		str	r9, [r0, #12]	@ float
 704              		.loc 1 112 0
 705 0028 4386     		strh	r3, [r0, #50]	@ movhi
 706              		.loc 1 104 0
 707 002a 0561     		str	r5, [r0, #16]	@ float
 708              		.loc 1 107 0
 709 002c 4561     		str	r5, [r0, #20]	@ float
 710              		.loc 1 108 0
 711 002e 8561     		str	r5, [r0, #24]	@ float
 712              		.loc 1 109 0
 713 0030 C561     		str	r5, [r0, #28]	@ float
 714              		.loc 1 110 0
 715 0032 4562     		str	r5, [r0, #36]	@ float
 716              		.loc 1 111 0
 717 0034 C562     		str	r5, [r0, #44]	@ float
 718              		.loc 1 113 0
 719 0036 2946     		mov	r1, r5
 720 0038 3046     		mov	r0, r6
 721              	.LVL87:
 722 003a FFF7FEFF 		bl	__aeabi_fcmpeq
 723              	.LVL88:
 724 003e A0B9     		cbnz	r0, .L74
 725              		.loc 1 114 0
 726 0040 3146     		mov	r1, r6
 727 0042 4FF07A50 		mov	r0, #1048576000
 728 0046 FFF7FEFF 		bl	__aeabi_fdiv
 729              	.LVL89:
 730 004a 2062     		str	r0, [r4, #32]	@ float
 731              	.L72:
 732              		.loc 1 118 0
 733 004c 0849     		ldr	r1, .L76
 734              		.loc 1 123 0
 735 004e 0023     		movs	r3, #0
 736              		.loc 1 130 0
 737 0050 0122     		movs	r2, #1
 738              		.loc 1 121 0
 739 0052 84F83480 		strb	r8, [r4, #52]
 740              		.loc 1 122 0
 741 0056 E786     		strh	r7, [r4, #54]	@ movhi
ARM GAS  /var/folders/6q/x_mk5n_j3p7_c40r_2k_78980000gn/T//cc5RWwhR.s 			page 14


 742              		.loc 1 118 0
 743 0058 A162     		str	r1, [r4, #40]	@ float
 744              		.loc 1 123 0
 745 005a A363     		str	r3, [r4, #56]
 746              		.loc 1 125 0
 747 005c E363     		str	r3, [r4, #60]
 748              		.loc 1 130 0
 749 005e 2280     		strh	r2, [r4]	@ movhi
 750              		.loc 1 134 0
 751 0060 FFF7FEFF 		bl	PidControllerMakeLut
 752              	.LVL90:
 753              		.loc 1 137 0
 754 0064 2046     		mov	r0, r4
 755 0066 BDE8F087 		pop	{r4, r5, r6, r7, r8, r9, r10, pc}
 756              	.LVL91:
 757              	.L74:
 758              		.loc 1 116 0
 759 006a 2562     		str	r5, [r4, #32]	@ float
 760 006c EEE7     		b	.L72
 761              	.L77:
 762 006e 00BF     		.align	2
 763              	.L76:
 764 0070 00002041 		.word	1092616192
 765              		.cfi_endproc
 766              	.LFE69:
 767              		.size	PidControllerInit, .-PidControllerInit
 768              		.section	.text.PidControllerInitWithBias,"ax",%progbits
 769              		.align	2
 770              		.p2align 4,,15
 771              		.global	PidControllerInitWithBias
 772              		.thumb
 773              		.thumb_func
 774              		.type	PidControllerInitWithBias, %function
 775              	PidControllerInitWithBias:
 776              	.LFB70:
 777              		.loc 1 145 0
 778              		.cfi_startproc
 779              		@ args = 8, pretend = 0, frame = 0
 780              		@ frame_needed = 0, uses_anonymous_args = 0
 781              	.LVL92:
 782 0000 70B5     		push	{r4, r5, r6, lr}
 783              		.cfi_def_cfa_offset 16
 784              		.cfi_offset 4, -16
 785              		.cfi_offset 5, -12
 786              		.cfi_offset 6, -8
 787              		.cfi_offset 14, -4
 788 0002 82B0     		sub	sp, sp, #8
 789              		.cfi_def_cfa_offset 24
 790              		.loc 1 145 0
 791 0004 9DF91840 		ldrsb	r4, [sp, #24]
 792 0008 BDF91C50 		ldrsh	r5, [sp, #28]
 793 000c 1E46     		mov	r6, r3
 794              		.loc 1 147 0
 795 000e 0095     		str	r5, [sp]
 796 0010 2346     		mov	r3, r4
 797              	.LVL93:
 798 0012 FFF7FEFF 		bl	PidControllerInit
ARM GAS  /var/folders/6q/x_mk5n_j3p7_c40r_2k_78980000gn/T//cc5RWwhR.s 			page 15


 799              	.LVL94:
 800              		.loc 1 148 0
 801 0016 00B1     		cbz	r0, .L79
 802              		.loc 1 149 0
 803 0018 0661     		str	r6, [r0, #16]	@ float
 804              	.L79:
 805              		.loc 1 152 0
 806 001a 02B0     		add	sp, sp, #8
 807              		.cfi_def_cfa_offset 16
 808              		@ sp needed
 809 001c 70BD     		pop	{r4, r5, r6, pc}
 810              		.cfi_endproc
 811              	.LFE70:
 812              		.size	PidControllerInitWithBias, .-PidControllerInitWithBias
 813 001e 00BF     		.section	.bss.PidDriveLut,"aw",%nobits
 814              		.align	2
 815              		.set	.LANCHOR0,. + 0
 816              		.type	PidDriveLut, %object
 817              		.size	PidDriveLut, 256
 818              	PidDriveLut:
 819 0000 00000000 		.space	256
 819      00000000 
 819      00000000 
 819      00000000 
 819      00000000 
 820              		.text
 821              	.Letext0:
 822              		.file 3 "/Users/Luca/src/vexilla/src/gcc-arm-none-eabi-5_4-2016q3/arm-none-eabi/include/machine/_d
 823              		.file 4 "/Users/Luca/src/vexilla/src/gcc-arm-none-eabi-5_4-2016q3/arm-none-eabi/include/sys/_stdin
 824              		.file 5 "../convex-vexilla/cortex/fw/vexsensor.h"
 825              		.file 6 "../convex-vexilla/cortex/opt/pidlib.h"
 826              		.file 7 "../ChibiOS/os/kernel/include/chheap.h"
 827              		.file 8 "../ChibiOS/os/ports/common/ARMCMx/CMSIS/include/core_cm3.h"