ARM GAS  /var/folders/6q/x_mk5n_j3p7_c40r_2k_78980000gn/T//cckhicoL.s 			page 1


   1              		.syntax unified
   2              		.cpu cortex-m3
   3              		.fpu softvfp
   4              		.eabi_attribute 20, 1
   5              		.eabi_attribute 21, 1
   6              		.eabi_attribute 23, 3
   7              		.eabi_attribute 24, 1
   8              		.eabi_attribute 25, 1
   9              		.eabi_attribute 26, 1
  10              		.eabi_attribute 30, 2
  11              		.eabi_attribute 34, 1
  12              		.eabi_attribute 18, 4
  13              		.thumb
  14              		.syntax unified
  15              		.file	"serial_lld.c"
  16              		.text
  17              	.Ltext0:
  18              		.cfi_sections	.debug_frame
  19              		.section	.text.notify1,"ax",%progbits
  20              		.align	2
  21              		.p2align 4,,15
  22              		.thumb
  23              		.thumb_func
  24              		.type	notify1, %function
  25              	notify1:
  26              	.LFB67:
  27              		.file 1 "../ChibiOS/os/hal/platforms/STM32/USARTv1/serial_lld.c"
  28              		.loc 1 203 0
  29              		.cfi_startproc
  30              		@ args = 0, pretend = 0, frame = 0
  31              		@ frame_needed = 0, uses_anonymous_args = 0
  32              		@ link register save eliminated.
  33              	.LVL0:
  34              		.loc 1 206 0
  35 0000 034A     		ldr	r2, .L2
  36 0002 9389     		ldrh	r3, [r2, #12]
  37 0004 9BB2     		uxth	r3, r3
  38 0006 43F08003 		orr	r3, r3, #128
  39 000a 9381     		strh	r3, [r2, #12]	@ movhi
  40 000c 7047     		bx	lr
  41              	.L3:
  42 000e 00BF     		.align	2
  43              	.L2:
  44 0010 00380140 		.word	1073821696
  45              		.cfi_endproc
  46              	.LFE67:
  47              		.size	notify1, .-notify1
  48              		.section	.text.notify2,"ax",%progbits
  49              		.align	2
  50              		.p2align 4,,15
  51              		.thumb
  52              		.thumb_func
  53              		.type	notify2, %function
  54              	notify2:
  55              	.LFB68:
  56              		.loc 1 211 0
  57              		.cfi_startproc
ARM GAS  /var/folders/6q/x_mk5n_j3p7_c40r_2k_78980000gn/T//cckhicoL.s 			page 2


  58              		@ args = 0, pretend = 0, frame = 0
  59              		@ frame_needed = 0, uses_anonymous_args = 0
  60              		@ link register save eliminated.
  61              	.LVL1:
  62              		.loc 1 214 0
  63 0000 034A     		ldr	r2, .L5
  64 0002 9389     		ldrh	r3, [r2, #12]
  65 0004 9BB2     		uxth	r3, r3
  66 0006 43F08003 		orr	r3, r3, #128
  67 000a 9381     		strh	r3, [r2, #12]	@ movhi
  68 000c 7047     		bx	lr
  69              	.L6:
  70 000e 00BF     		.align	2
  71              	.L5:
  72 0010 00440040 		.word	1073759232
  73              		.cfi_endproc
  74              	.LFE68:
  75              		.size	notify2, .-notify2
  76              		.section	.text.notify3,"ax",%progbits
  77              		.align	2
  78              		.p2align 4,,15
  79              		.thumb
  80              		.thumb_func
  81              		.type	notify3, %function
  82              	notify3:
  83              	.LFB69:
  84              		.loc 1 219 0
  85              		.cfi_startproc
  86              		@ args = 0, pretend = 0, frame = 0
  87              		@ frame_needed = 0, uses_anonymous_args = 0
  88              		@ link register save eliminated.
  89              	.LVL2:
  90              		.loc 1 222 0
  91 0000 034A     		ldr	r2, .L8
  92 0002 9389     		ldrh	r3, [r2, #12]
  93 0004 9BB2     		uxth	r3, r3
  94 0006 43F08003 		orr	r3, r3, #128
  95 000a 9381     		strh	r3, [r2, #12]	@ movhi
  96 000c 7047     		bx	lr
  97              	.L9:
  98 000e 00BF     		.align	2
  99              	.L8:
 100 0010 00480040 		.word	1073760256
 101              		.cfi_endproc
 102              	.LFE69:
 103              		.size	notify3, .-notify3
 104              		.section	.text.serve_interrupt,"ax",%progbits
 105              		.align	2
 106              		.p2align 4,,15
 107              		.thumb
 108              		.thumb_func
 109              		.type	serve_interrupt, %function
 110              	serve_interrupt:
 111              	.LFB66:
 112              		.loc 1 154 0
 113              		.cfi_startproc
 114              		@ args = 0, pretend = 0, frame = 0
ARM GAS  /var/folders/6q/x_mk5n_j3p7_c40r_2k_78980000gn/T//cckhicoL.s 			page 3


 115              		@ frame_needed = 0, uses_anonymous_args = 0
 116              	.LVL3:
 117 0000 2DE9F041 		push	{r4, r5, r6, r7, r8, lr}
 118              		.cfi_def_cfa_offset 24
 119              		.cfi_offset 4, -24
 120              		.cfi_offset 5, -20
 121              		.cfi_offset 6, -16
 122              		.cfi_offset 7, -12
 123              		.cfi_offset 8, -8
 124              		.cfi_offset 14, -4
 125              		.loc 1 155 0
 126 0004 D0F8D450 		ldr	r5, [r0, #212]
 127              	.LVL4:
 128              		.loc 1 154 0
 129 0008 0646     		mov	r6, r0
 130              		.loc 1 156 0
 131 000a AF89     		ldrh	r7, [r5, #12]
 132              		.loc 1 157 0
 133 000c 2C88     		ldrh	r4, [r5]
 134              		.loc 1 156 0
 135 000e BFB2     		uxth	r7, r7
 136              	.LVL5:
 137              		.loc 1 157 0
 138 0010 A4B2     		uxth	r4, r4
 139              	.LVL6:
 140              		.loc 1 160 0
 141 0012 E305     		lsls	r3, r4, #23
 142 0014 44D4     		bmi	.L54
 143              	.LVL7:
 144              	.L11:
 145              	.LBB17:
 146              		.loc 1 168 0
 147 0016 2023     		movs	r3, #32
 148              		.syntax unified
 149              	@ 168 "../ChibiOS/os/hal/platforms/STM32/USARTv1/serial_lld.c" 1
 150 0018 83F31188 		msr     BASEPRI, r3
 151              	@ 0 "" 2
 152              		.thumb
 153              		.syntax unified
 154              	.LBE17:
 155              		.loc 1 169 0
 156 001c A006     		lsls	r0, r4, #26
 157 001e 23D5     		bpl	.L12
 158              	.LBB18:
 159              	.LBB19:
 160              		.loc 1 146 0
 161 0020 06F10408 		add	r8, r6, #4
 162 0024 08E0     		b	.L18
 163              	.LVL8:
 164              	.L13:
 165              	.LBE19:
 166              	.LBE18:
 167              		.loc 1 173 0
 168 0026 A988     		ldrh	r1, [r5, #4]
 169 0028 3046     		mov	r0, r6
 170 002a C9B2     		uxtb	r1, r1
 171 002c FFF7FEFF 		bl	sdIncomingDataI
ARM GAS  /var/folders/6q/x_mk5n_j3p7_c40r_2k_78980000gn/T//cckhicoL.s 			page 4


 172              	.LVL9:
 173              		.loc 1 174 0
 174 0030 2C88     		ldrh	r4, [r5]
 175 0032 A4B2     		uxth	r4, r4
 176              	.LVL10:
 177              		.loc 1 169 0
 178 0034 A006     		lsls	r0, r4, #26
 179 0036 17D5     		bpl	.L12
 180              	.L18:
 181              		.loc 1 171 0
 182 0038 2207     		lsls	r2, r4, #28
 183 003a F4D0     		beq	.L13
 184              	.LVL11:
 185              	.LBB21:
 186              	.LBB20:
 187              		.loc 1 139 0
 188 003c 14F0080F 		tst	r4, #8
 189 0040 14BF     		ite	ne
 190 0042 8021     		movne	r1, #128
 191 0044 0021     		moveq	r1, #0
 192              	.LVL12:
 193              		.loc 1 140 0
 194 0046 14F0010F 		tst	r4, #1
 195              		.loc 1 141 0
 196 004a 18BF     		it	ne
 197 004c 41F02001 		orrne	r1, r1, #32
 198              	.LVL13:
 199              		.loc 1 142 0
 200 0050 A307     		lsls	r3, r4, #30
 201              		.loc 1 143 0
 202 0052 48BF     		it	mi
 203 0054 41F04001 		orrmi	r1, r1, #64
 204              	.LVL14:
 205              		.loc 1 144 0
 206 0058 6407     		lsls	r4, r4, #29
 207              	.LVL15:
 208              		.loc 1 146 0
 209 005a 4046     		mov	r0, r8
 210              		.loc 1 145 0
 211 005c 48BF     		it	mi
 212 005e 41F48071 		orrmi	r1, r1, #256
 213              	.LVL16:
 214              		.loc 1 146 0
 215 0062 FFF7FEFF 		bl	chEvtBroadcastFlagsI
 216              	.LVL17:
 217 0066 DEE7     		b	.L13
 218              	.LVL18:
 219              	.L12:
 220              	.LBE20:
 221              	.LBE21:
 222              	.LBB22:
 223              		.loc 1 176 0
 224 0068 0023     		movs	r3, #0
 225              		.syntax unified
 226              	@ 176 "../ChibiOS/os/hal/platforms/STM32/USARTv1/serial_lld.c" 1
 227 006a 83F31188 		msr     BASEPRI, r3
 228              	@ 0 "" 2
ARM GAS  /var/folders/6q/x_mk5n_j3p7_c40r_2k_78980000gn/T//cckhicoL.s 			page 5


 229              		.thumb
 230              		.syntax unified
 231              	.LBE22:
 232              		.loc 1 179 0
 233 006e 3906     		lsls	r1, r7, #24
 234 0070 01D5     		bpl	.L19
 235              		.loc 1 179 0 is_stmt 0 discriminator 1
 236 0072 2206     		lsls	r2, r4, #24
 237 0074 23D4     		bmi	.L55
 238              	.L19:
 239              		.loc 1 193 0 is_stmt 1
 240 0076 6306     		lsls	r3, r4, #25
 241 0078 10D5     		bpl	.L10
 242              	.LBB23:
 243              		.loc 1 194 0
 244 007a 2023     		movs	r3, #32
 245              		.syntax unified
 246              	@ 194 "../ChibiOS/os/hal/platforms/STM32/USARTv1/serial_lld.c" 1
 247 007c 83F31188 		msr     BASEPRI, r3
 248              	@ 0 "" 2
 249              		.thumb
 250              		.syntax unified
 251              	.LBE23:
 252              		.loc 1 195 0
 253 0080 1021     		movs	r1, #16
 254 0082 301D     		adds	r0, r6, #4
 255 0084 FFF7FEFF 		bl	chEvtBroadcastFlagsI
 256              	.LVL19:
 257              	.LBB24:
 258              		.loc 1 196 0
 259 0088 0023     		movs	r3, #0
 260              		.syntax unified
 261              	@ 196 "../ChibiOS/os/hal/platforms/STM32/USARTv1/serial_lld.c" 1
 262 008a 83F31188 		msr     BASEPRI, r3
 263              	@ 0 "" 2
 264              		.thumb
 265              		.syntax unified
 266              	.LBE24:
 267              		.loc 1 198 0
 268 008e 4FF6BF73 		movw	r3, #65471
 269              		.loc 1 197 0
 270 0092 27F0C007 		bic	r7, r7, #192
 271              	.LVL20:
 272 0096 BFB2     		uxth	r7, r7
 273 0098 AF81     		strh	r7, [r5, #12]	@ movhi
 274              		.loc 1 198 0
 275 009a 2B80     		strh	r3, [r5]	@ movhi
 276              	.L10:
 277 009c BDE8F081 		pop	{r4, r5, r6, r7, r8, pc}
 278              	.LVL21:
 279              	.L54:
 280              	.LBB25:
 281              		.loc 1 161 0
 282 00a0 2023     		movs	r3, #32
 283              		.syntax unified
 284              	@ 161 "../ChibiOS/os/hal/platforms/STM32/USARTv1/serial_lld.c" 1
 285 00a2 83F31188 		msr     BASEPRI, r3
ARM GAS  /var/folders/6q/x_mk5n_j3p7_c40r_2k_78980000gn/T//cckhicoL.s 			page 6


 286              	@ 0 "" 2
 287              		.thumb
 288              		.syntax unified
 289              	.LBE25:
 290              		.loc 1 162 0
 291 00a6 4FF40071 		mov	r1, #512
 292 00aa 0430     		adds	r0, r0, #4
 293              	.LVL22:
 294 00ac FFF7FEFF 		bl	chEvtBroadcastFlagsI
 295              	.LVL23:
 296              	.LBB26:
 297              		.loc 1 163 0
 298 00b0 0023     		movs	r3, #0
 299              		.syntax unified
 300              	@ 163 "../ChibiOS/os/hal/platforms/STM32/USARTv1/serial_lld.c" 1
 301 00b2 83F31188 		msr     BASEPRI, r3
 302              	@ 0 "" 2
 303              		.thumb
 304              		.syntax unified
 305              	.LBE26:
 306              		.loc 1 164 0
 307 00b6 4FF6FF63 		movw	r3, #65279
 308 00ba 2B80     		strh	r3, [r5]	@ movhi
 309 00bc ABE7     		b	.L11
 310              	.L55:
 311              	.LBB27:
 312              	.LBB28:
 313              		.loc 1 181 0
 314 00be 2023     		movs	r3, #32
 315              		.syntax unified
 316              	@ 181 "../ChibiOS/os/hal/platforms/STM32/USARTv1/serial_lld.c" 1
 317 00c0 83F31188 		msr     BASEPRI, r3
 318              	@ 0 "" 2
 319              		.thumb
 320              		.syntax unified
 321              	.LBE28:
 322              		.loc 1 182 0
 323 00c4 06F13000 		add	r0, r6, #48
 324 00c8 FFF7FEFF 		bl	chOQGetI
 325              	.LVL24:
 326              		.loc 1 183 0
 327 00cc 0028     		cmp	r0, #0
 328 00ce 05DB     		blt	.L56
 329              		.loc 1 188 0
 330 00d0 80B2     		uxth	r0, r0
 331              	.LVL25:
 332 00d2 A880     		strh	r0, [r5, #4]	@ movhi
 333              	.L21:
 334              	.LBB29:
 335              		.loc 1 189 0
 336 00d4 0023     		movs	r3, #0
 337              		.syntax unified
 338              	@ 189 "../ChibiOS/os/hal/platforms/STM32/USARTv1/serial_lld.c" 1
 339 00d6 83F31188 		msr     BASEPRI, r3
 340              	@ 0 "" 2
 341              		.thumb
 342              		.syntax unified
ARM GAS  /var/folders/6q/x_mk5n_j3p7_c40r_2k_78980000gn/T//cckhicoL.s 			page 7


 343 00da CCE7     		b	.L19
 344              	.LVL26:
 345              	.L56:
 346              	.LBE29:
 347              		.loc 1 184 0
 348 00dc 0821     		movs	r1, #8
 349 00de 301D     		adds	r0, r6, #4
 350              	.LVL27:
 351 00e0 FFF7FEFF 		bl	chEvtBroadcastFlagsI
 352              	.LVL28:
 353              		.loc 1 185 0
 354 00e4 27F0C003 		bic	r3, r7, #192
 355 00e8 43F04003 		orr	r3, r3, #64
 356 00ec AB81     		strh	r3, [r5, #12]	@ movhi
 357 00ee F1E7     		b	.L21
 358              	.LBE27:
 359              		.cfi_endproc
 360              	.LFE66:
 361              		.size	serve_interrupt, .-serve_interrupt
 362              		.section	.text.VectorD4,"ax",%progbits
 363              		.align	2
 364              		.p2align 4,,15
 365              		.global	VectorD4
 366              		.thumb
 367              		.thumb_func
 368              		.type	VectorD4, %function
 369              	VectorD4:
 370              	.LFB70:
 371              		.loc 1 263 0
 372              		.cfi_startproc
 373              		@ args = 0, pretend = 0, frame = 0
 374              		@ frame_needed = 0, uses_anonymous_args = 0
 375 0000 08B5     		push	{r3, lr}
 376              		.cfi_def_cfa_offset 8
 377              		.cfi_offset 3, -8
 378              		.cfi_offset 14, -4
 379              		.loc 1 267 0
 380 0002 0348     		ldr	r0, .L59
 381 0004 FFF7FEFF 		bl	serve_interrupt
 382              	.LVL29:
 383              		.loc 1 270 0
 384 0008 BDE80840 		pop	{r3, lr}
 385              		.cfi_restore 14
 386              		.cfi_restore 3
 387              		.cfi_def_cfa_offset 0
 388              		.loc 1 269 0
 389 000c FFF7FEBF 		b	_port_irq_epilogue
 390              	.LVL30:
 391              	.L60:
 392              		.align	2
 393              	.L59:
 394 0010 00000000 		.word	.LANCHOR0
 395              		.cfi_endproc
 396              	.LFE70:
 397              		.size	VectorD4, .-VectorD4
 398              		.section	.text.VectorD8,"ax",%progbits
 399              		.align	2
ARM GAS  /var/folders/6q/x_mk5n_j3p7_c40r_2k_78980000gn/T//cckhicoL.s 			page 8


 400              		.p2align 4,,15
 401              		.global	VectorD8
 402              		.thumb
 403              		.thumb_func
 404              		.type	VectorD8, %function
 405              	VectorD8:
 406              	.LFB71:
 407              		.loc 1 282 0
 408              		.cfi_startproc
 409              		@ args = 0, pretend = 0, frame = 0
 410              		@ frame_needed = 0, uses_anonymous_args = 0
 411 0000 08B5     		push	{r3, lr}
 412              		.cfi_def_cfa_offset 8
 413              		.cfi_offset 3, -8
 414              		.cfi_offset 14, -4
 415              		.loc 1 286 0
 416 0002 0348     		ldr	r0, .L63
 417 0004 FFF7FEFF 		bl	serve_interrupt
 418              	.LVL31:
 419              		.loc 1 289 0
 420 0008 BDE80840 		pop	{r3, lr}
 421              		.cfi_restore 14
 422              		.cfi_restore 3
 423              		.cfi_def_cfa_offset 0
 424              		.loc 1 288 0
 425 000c FFF7FEBF 		b	_port_irq_epilogue
 426              	.LVL32:
 427              	.L64:
 428              		.align	2
 429              	.L63:
 430 0010 00000000 		.word	.LANCHOR1
 431              		.cfi_endproc
 432              	.LFE71:
 433              		.size	VectorD8, .-VectorD8
 434              		.section	.text.VectorDC,"ax",%progbits
 435              		.align	2
 436              		.p2align 4,,15
 437              		.global	VectorDC
 438              		.thumb
 439              		.thumb_func
 440              		.type	VectorDC, %function
 441              	VectorDC:
 442              	.LFB72:
 443              		.loc 1 301 0
 444              		.cfi_startproc
 445              		@ args = 0, pretend = 0, frame = 0
 446              		@ frame_needed = 0, uses_anonymous_args = 0
 447 0000 08B5     		push	{r3, lr}
 448              		.cfi_def_cfa_offset 8
 449              		.cfi_offset 3, -8
 450              		.cfi_offset 14, -4
 451              		.loc 1 305 0
 452 0002 0348     		ldr	r0, .L67
 453 0004 FFF7FEFF 		bl	serve_interrupt
 454              	.LVL33:
 455              		.loc 1 308 0
 456 0008 BDE80840 		pop	{r3, lr}
ARM GAS  /var/folders/6q/x_mk5n_j3p7_c40r_2k_78980000gn/T//cckhicoL.s 			page 9


 457              		.cfi_restore 14
 458              		.cfi_restore 3
 459              		.cfi_def_cfa_offset 0
 460              		.loc 1 307 0
 461 000c FFF7FEBF 		b	_port_irq_epilogue
 462              	.LVL34:
 463              	.L68:
 464              		.align	2
 465              	.L67:
 466 0010 00000000 		.word	.LANCHOR2
 467              		.cfi_endproc
 468              	.LFE72:
 469              		.size	VectorDC, .-VectorDC
 470              		.section	.text.sd_lld_init,"ax",%progbits
 471              		.align	2
 472              		.p2align 4,,15
 473              		.global	sd_lld_init
 474              		.thumb
 475              		.thumb_func
 476              		.type	sd_lld_init, %function
 477              	sd_lld_init:
 478              	.LFB73:
 479              		.loc 1 377 0
 480              		.cfi_startproc
 481              		@ args = 0, pretend = 0, frame = 0
 482              		@ frame_needed = 0, uses_anonymous_args = 0
 483 0000 70B5     		push	{r4, r5, r6, lr}
 484              		.cfi_def_cfa_offset 16
 485              		.cfi_offset 4, -16
 486              		.cfi_offset 5, -12
 487              		.cfi_offset 6, -8
 488              		.cfi_offset 14, -4
 489              		.loc 1 380 0
 490 0002 0E4E     		ldr	r6, .L71
 491 0004 0E4A     		ldr	r2, .L71+4
 492 0006 3046     		mov	r0, r6
 493 0008 0021     		movs	r1, #0
 494              		.loc 1 385 0
 495 000a 0E4D     		ldr	r5, .L71+8
 496              		.loc 1 380 0
 497 000c FFF7FEFF 		bl	sdObjectInit
 498              	.LVL35:
 499              		.loc 1 381 0
 500 0010 0D4B     		ldr	r3, .L71+12
 501              		.loc 1 385 0
 502 0012 2846     		mov	r0, r5
 503 0014 0D4A     		ldr	r2, .L71+16
 504 0016 0021     		movs	r1, #0
 505              		.loc 1 390 0
 506 0018 0D4C     		ldr	r4, .L71+20
 507              		.loc 1 381 0
 508 001a C6F8D430 		str	r3, [r6, #212]
 509              		.loc 1 385 0
 510 001e FFF7FEFF 		bl	sdObjectInit
 511              	.LVL36:
 512              		.loc 1 386 0
 513 0022 0C4B     		ldr	r3, .L71+24
ARM GAS  /var/folders/6q/x_mk5n_j3p7_c40r_2k_78980000gn/T//cckhicoL.s 			page 10


 514              		.loc 1 390 0
 515 0024 2046     		mov	r0, r4
 516 0026 0C4A     		ldr	r2, .L71+28
 517 0028 0021     		movs	r1, #0
 518              		.loc 1 386 0
 519 002a C5F8D430 		str	r3, [r5, #212]
 520              		.loc 1 390 0
 521 002e FFF7FEFF 		bl	sdObjectInit
 522              	.LVL37:
 523              		.loc 1 391 0
 524 0032 0A4B     		ldr	r3, .L71+32
 525 0034 C4F8D430 		str	r3, [r4, #212]
 526 0038 70BD     		pop	{r4, r5, r6, pc}
 527              	.L72:
 528 003a 00BF     		.align	2
 529              	.L71:
 530 003c 00000000 		.word	.LANCHOR0
 531 0040 00000000 		.word	notify1
 532 0044 00000000 		.word	.LANCHOR1
 533 0048 00380140 		.word	1073821696
 534 004c 00000000 		.word	notify2
 535 0050 00000000 		.word	.LANCHOR2
 536 0054 00440040 		.word	1073759232
 537 0058 00000000 		.word	notify3
 538 005c 00480040 		.word	1073760256
 539              		.cfi_endproc
 540              	.LFE73:
 541              		.size	sd_lld_init, .-sd_lld_init
 542              		.section	.text.sd_lld_start,"ax",%progbits
 543              		.align	2
 544              		.p2align 4,,15
 545              		.global	sd_lld_start
 546              		.thumb
 547              		.thumb_func
 548              		.type	sd_lld_start, %function
 549              	sd_lld_start:
 550              	.LFB74:
 551              		.loc 1 420 0
 552              		.cfi_startproc
 553              		@ args = 0, pretend = 0, frame = 0
 554              		@ frame_needed = 0, uses_anonymous_args = 0
 555              	.LVL38:
 556 0000 38B5     		push	{r3, r4, r5, lr}
 557              		.cfi_def_cfa_offset 16
 558              		.cfi_offset 3, -16
 559              		.cfi_offset 4, -12
 560              		.cfi_offset 5, -8
 561              		.cfi_offset 14, -4
 562              		.loc 1 423 0
 563 0002 284C     		ldr	r4, .L84
 564              		.loc 1 425 0
 565 0004 037A     		ldrb	r3, [r0, #8]	@ zero_extendqisi2
 566              		.loc 1 423 0
 567 0006 0029     		cmp	r1, #0
 568 0008 18BF     		it	ne
 569 000a 0C46     		movne	r4, r1
 570              	.LVL39:
ARM GAS  /var/folders/6q/x_mk5n_j3p7_c40r_2k_78980000gn/T//cckhicoL.s 			page 11


 571              		.loc 1 425 0
 572 000c 012B     		cmp	r3, #1
 573              		.loc 1 420 0
 574 000e 0546     		mov	r5, r0
 575              		.loc 1 425 0
 576 0010 21D0     		beq	.L81
 577              	.LVL40:
 578              	.L75:
 579 0012 D5F8D430 		ldr	r3, [r5, #212]
 580              	.LVL41:
 581              	.LBB30:
 582              	.LBB31:
 583              		.loc 1 99 0
 584 0016 244A     		ldr	r2, .L84+4
 585              		.loc 1 103 0
 586 0018 2168     		ldr	r1, [r4]
 587              		.loc 1 99 0
 588 001a 9342     		cmp	r3, r2
 589              		.loc 1 101 0
 590 001c 0CBF     		ite	eq
 591 001e 234A     		ldreq	r2, .L84+8
 592              		.loc 1 103 0
 593 0020 234A     		ldrne	r2, .L84+12
 594 0022 B2FBF1F2 		udiv	r2, r2, r1
 595 0026 92B2     		uxth	r2, r2
 596 0028 1A81     		strh	r2, [r3, #8]	@ movhi
 597              		.loc 1 108 0
 598 002a A288     		ldrh	r2, [r4, #4]
 599              		.loc 1 106 0
 600 002c E088     		ldrh	r0, [r4, #6]
 601              		.loc 1 107 0
 602 002e 2189     		ldrh	r1, [r4, #8]
 603              		.loc 1 108 0
 604 0030 42F40452 		orr	r2, r2, #8448
 605              		.loc 1 106 0
 606 0034 40F04000 		orr	r0, r0, #64
 607              		.loc 1 108 0
 608 0038 42F02C02 		orr	r2, r2, #44
 609              		.loc 1 107 0
 610 003c 41F00101 		orr	r1, r1, #1
 611              		.loc 1 108 0
 612 0040 92B2     		uxth	r2, r2
 613              		.loc 1 106 0
 614 0042 80B2     		uxth	r0, r0
 615              		.loc 1 107 0
 616 0044 89B2     		uxth	r1, r1
 617              		.loc 1 111 0
 618 0046 0024     		movs	r4, #0
 619              	.LVL42:
 620              		.loc 1 106 0
 621 0048 1882     		strh	r0, [r3, #16]	@ movhi
 622              		.loc 1 107 0
 623 004a 9982     		strh	r1, [r3, #20]	@ movhi
 624              		.loc 1 108 0
 625 004c 9A81     		strh	r2, [r3, #12]	@ movhi
 626              		.loc 1 111 0
 627 004e 1C80     		strh	r4, [r3]	@ movhi
ARM GAS  /var/folders/6q/x_mk5n_j3p7_c40r_2k_78980000gn/T//cckhicoL.s 			page 12


 628              		.loc 1 112 0
 629 0050 1A88     		ldrh	r2, [r3]
 630              		.loc 1 113 0
 631 0052 9B88     		ldrh	r3, [r3, #4]
 632              	.LVL43:
 633 0054 38BD     		pop	{r3, r4, r5, pc}
 634              	.LVL44:
 635              	.L81:
 636              	.LBE31:
 637              	.LBE30:
 638              		.loc 1 427 0
 639 0056 174B     		ldr	r3, .L84+16
 640 0058 9842     		cmp	r0, r3
 641 005a 0FD0     		beq	.L82
 642              		.loc 1 434 0
 643 005c 164B     		ldr	r3, .L84+20
 644 005e 9842     		cmp	r0, r3
 645 0060 16D0     		beq	.L83
 646              		.loc 1 441 0
 647 0062 164B     		ldr	r3, .L84+24
 648 0064 9842     		cmp	r0, r3
 649 0066 D4D1     		bne	.L75
 650              		.loc 1 442 0
 651 0068 154A     		ldr	r2, .L84+28
 652              		.loc 1 443 0
 653 006a C021     		movs	r1, #192
 654              		.loc 1 442 0
 655 006c D369     		ldr	r3, [r2, #28]
 656              		.loc 1 443 0
 657 006e 2720     		movs	r0, #39
 658              	.LVL45:
 659              		.loc 1 442 0
 660 0070 43F48023 		orr	r3, r3, #262144
 661 0074 D361     		str	r3, [r2, #28]
 662              		.loc 1 443 0
 663 0076 FFF7FEFF 		bl	nvicEnableVector
 664              	.LVL46:
 665 007a CAE7     		b	.L75
 666              	.LVL47:
 667              	.L82:
 668              		.loc 1 428 0
 669 007c 104A     		ldr	r2, .L84+28
 670              		.loc 1 429 0
 671 007e C021     		movs	r1, #192
 672              		.loc 1 428 0
 673 0080 9369     		ldr	r3, [r2, #24]
 674              		.loc 1 429 0
 675 0082 2520     		movs	r0, #37
 676              	.LVL48:
 677              		.loc 1 428 0
 678 0084 43F48043 		orr	r3, r3, #16384
 679 0088 9361     		str	r3, [r2, #24]
 680              		.loc 1 429 0
 681 008a FFF7FEFF 		bl	nvicEnableVector
 682              	.LVL49:
 683 008e C0E7     		b	.L75
 684              	.LVL50:
ARM GAS  /var/folders/6q/x_mk5n_j3p7_c40r_2k_78980000gn/T//cckhicoL.s 			page 13


 685              	.L83:
 686              		.loc 1 435 0
 687 0090 0B4A     		ldr	r2, .L84+28
 688              		.loc 1 436 0
 689 0092 C021     		movs	r1, #192
 690              		.loc 1 435 0
 691 0094 D369     		ldr	r3, [r2, #28]
 692              		.loc 1 436 0
 693 0096 2620     		movs	r0, #38
 694              	.LVL51:
 695              		.loc 1 435 0
 696 0098 43F40033 		orr	r3, r3, #131072
 697 009c D361     		str	r3, [r2, #28]
 698              		.loc 1 436 0
 699 009e FFF7FEFF 		bl	nvicEnableVector
 700              	.LVL52:
 701 00a2 B6E7     		b	.L75
 702              	.L85:
 703              		.align	2
 704              	.L84:
 705 00a4 00000000 		.word	.LANCHOR3
 706 00a8 00380140 		.word	1073821696
 707 00ac 00A24A04 		.word	72000000
 708 00b0 00512502 		.word	36000000
 709 00b4 00000000 		.word	.LANCHOR0
 710 00b8 00000000 		.word	.LANCHOR1
 711 00bc 00000000 		.word	.LANCHOR2
 712 00c0 00100240 		.word	1073876992
 713              		.cfi_endproc
 714              	.LFE74:
 715              		.size	sd_lld_start, .-sd_lld_start
 716              		.section	.text.sd_lld_stop,"ax",%progbits
 717              		.align	2
 718              		.p2align 4,,15
 719              		.global	sd_lld_stop
 720              		.thumb
 721              		.thumb_func
 722              		.type	sd_lld_stop, %function
 723              	sd_lld_stop:
 724              	.LFB75:
 725              		.loc 1 481 0
 726              		.cfi_startproc
 727              		@ args = 0, pretend = 0, frame = 0
 728              		@ frame_needed = 0, uses_anonymous_args = 0
 729              		@ link register save eliminated.
 730              	.LVL53:
 731              		.loc 1 483 0
 732 0000 037A     		ldrb	r3, [r0, #8]	@ zero_extendqisi2
 733 0002 022B     		cmp	r3, #2
 734 0004 00D0     		beq	.L92
 735              	.L86:
 736 0006 7047     		bx	lr
 737              	.L92:
 738              		.loc 1 486 0
 739 0008 1449     		ldr	r1, .L95
 740              		.loc 1 484 0
 741 000a D0F8D430 		ldr	r3, [r0, #212]
ARM GAS  /var/folders/6q/x_mk5n_j3p7_c40r_2k_78980000gn/T//cckhicoL.s 			page 14


 742              	.LVL54:
 743              	.LBB32:
 744              	.LBB33:
 745              		.loc 1 124 0
 746 000e 0022     		movs	r2, #0
 747              	.LBE33:
 748              	.LBE32:
 749              		.loc 1 486 0
 750 0010 8842     		cmp	r0, r1
 751              	.LBB35:
 752              	.LBB34:
 753              		.loc 1 124 0
 754 0012 9A81     		strh	r2, [r3, #12]	@ movhi
 755              		.loc 1 125 0
 756 0014 1A82     		strh	r2, [r3, #16]	@ movhi
 757              		.loc 1 126 0
 758 0016 9A82     		strh	r2, [r3, #20]	@ movhi
 759              	.LVL55:
 760              	.LBE34:
 761              	.LBE35:
 762              		.loc 1 486 0
 763 0018 0DD0     		beq	.L93
 764              		.loc 1 493 0
 765 001a 114B     		ldr	r3, .L95+4
 766 001c 9842     		cmp	r0, r3
 767 001e 15D0     		beq	.L94
 768              		.loc 1 500 0
 769 0020 104B     		ldr	r3, .L95+8
 770 0022 9842     		cmp	r0, r3
 771 0024 EFD1     		bne	.L86
 772              		.loc 1 501 0
 773 0026 104A     		ldr	r2, .L95+12
 774              		.loc 1 502 0
 775 0028 2720     		movs	r0, #39
 776              	.LVL56:
 777              		.loc 1 501 0
 778 002a D369     		ldr	r3, [r2, #28]
 779 002c 23F48023 		bic	r3, r3, #262144
 780 0030 D361     		str	r3, [r2, #28]
 781              		.loc 1 502 0
 782 0032 FFF7FEBF 		b	nvicDisableVector
 783              	.LVL57:
 784              	.L93:
 785              		.loc 1 487 0
 786 0036 02F18042 		add	r2, r2, #1073741824
 787 003a 02F50432 		add	r2, r2, #135168
 788 003e 9369     		ldr	r3, [r2, #24]
 789              		.loc 1 488 0
 790 0040 2520     		movs	r0, #37
 791              	.LVL58:
 792              		.loc 1 487 0
 793 0042 23F48043 		bic	r3, r3, #16384
 794 0046 9361     		str	r3, [r2, #24]
 795              		.loc 1 488 0
 796 0048 FFF7FEBF 		b	nvicDisableVector
 797              	.LVL59:
 798              	.L94:
ARM GAS  /var/folders/6q/x_mk5n_j3p7_c40r_2k_78980000gn/T//cckhicoL.s 			page 15


 799              		.loc 1 494 0
 800 004c 064A     		ldr	r2, .L95+12
 801              		.loc 1 495 0
 802 004e 2620     		movs	r0, #38
 803              	.LVL60:
 804              		.loc 1 494 0
 805 0050 D369     		ldr	r3, [r2, #28]
 806 0052 23F40033 		bic	r3, r3, #131072
 807 0056 D361     		str	r3, [r2, #28]
 808              		.loc 1 495 0
 809 0058 FFF7FEBF 		b	nvicDisableVector
 810              	.LVL61:
 811              	.L96:
 812              		.align	2
 813              	.L95:
 814 005c 00000000 		.word	.LANCHOR0
 815 0060 00000000 		.word	.LANCHOR1
 816 0064 00000000 		.word	.LANCHOR2
 817 0068 00100240 		.word	1073876992
 818              		.cfi_endproc
 819              	.LFE75:
 820              		.size	sd_lld_stop, .-sd_lld_stop
 821              		.global	SD3
 822              		.global	SD2
 823              		.global	SD1
 824              		.section	.rodata.default_config,"a",%progbits
 825              		.align	2
 826              		.set	.LANCHOR3,. + 0
 827              		.type	default_config, %object
 828              		.size	default_config, 12
 829              	default_config:
 830 0000 004B0000 		.word	19200
 831 0004 0000     		.short	0
 832 0006 0040     		.short	16384
 833 0008 0000     		.short	0
 834 000a 0000     		.space	2
 835              		.section	.bss.SD1,"aw",%nobits
 836              		.align	2
 837              		.set	.LANCHOR0,. + 0
 838              		.type	SD1, %object
 839              		.size	SD1, 216
 840              	SD1:
 841 0000 00000000 		.space	216
 841      00000000 
 841      00000000 
 841      00000000 
 841      00000000 
 842              		.section	.bss.SD2,"aw",%nobits
 843              		.align	2
 844              		.set	.LANCHOR1,. + 0
 845              		.type	SD2, %object
 846              		.size	SD2, 216
 847              	SD2:
 848 0000 00000000 		.space	216
 848      00000000 
 848      00000000 
 848      00000000 
ARM GAS  /var/folders/6q/x_mk5n_j3p7_c40r_2k_78980000gn/T//cckhicoL.s 			page 16


 848      00000000 
 849              		.section	.bss.SD3,"aw",%nobits
 850              		.align	2
 851              		.set	.LANCHOR2,. + 0
 852              		.type	SD3, %object
 853              		.size	SD3, 216
 854              	SD3:
 855 0000 00000000 		.space	216
 855      00000000 
 855      00000000 
 855      00000000 
 855      00000000 
 856              		.text
 857              	.Letext0:
 858              		.file 2 "/Users/Luca/src/vexilla/src/gcc-arm-none-eabi-5_4-2016q3/lib/gcc/arm-none-eabi/5.4.1/incl
 859              		.file 3 "/Users/Luca/src/vexilla/src/gcc-arm-none-eabi-5_4-2016q3/arm-none-eabi/include/machine/_d
 860              		.file 4 "/Users/Luca/src/vexilla/src/gcc-arm-none-eabi-5_4-2016q3/arm-none-eabi/include/sys/_stdin
 861              		.file 5 "../ChibiOS/os/ports/GCC/ARMCMx/chtypes.h"
 862              		.file 6 "../ChibiOS/os/kernel/include/chlists.h"
 863              		.file 7 "../ChibiOS/os/kernel/include/chthreads.h"
 864              		.file 8 "../ChibiOS/os/ports/GCC/ARMCMx/chcore_v7m.h"
 865              		.file 9 "../ChibiOS/os/kernel/include/chmtx.h"
 866              		.file 10 "../ChibiOS/os/kernel/include/chevents.h"
 867              		.file 11 "../ChibiOS/os/kernel/include/chqueues.h"
 868              		.file 12 "../ChibiOS/os/hal/platforms/STM32F1xx/stm32f10x.h"
 869              		.file 13 "../ChibiOS/os/hal/include/serial.h"
 870              		.file 14 "../ChibiOS/os/hal/platforms/STM32/USARTv1/serial_lld.h"
 871              		.file 15 "../ChibiOS/os/ports/common/ARMCMx/nvic.h"
 872              		.file 16 "../ChibiOS/os/ports/common/ARMCMx/CMSIS/include/core_cm3.h"
 873              		.section	.debug_info,"",%progbits
 874              	.Ldebug_info0:
 875 0000 AB0E0000 		.4byte	0xeab
 876 0004 0400     		.2byte	0x4
 877 0006 00000000 		.4byte	.Ldebug_abbrev0
 878 000a 04       		.byte	0x4
 879 000b 01       		.uleb128 0x1
 880 000c BF010000 		.4byte	.LASF142
 881 0010 0C       		.byte	0xc
 882 0011 B1050000 		.4byte	.LASF143
 883 0015 EE050000 		.4byte	.LASF144
 884 0019 30000000 		.4byte	.Ldebug_ranges0+0x30
 885 001d 00000000 		.4byte	0
 886 0021 00000000 		.4byte	.Ldebug_line0
 887 0025 02       		.uleb128 0x2
 888 0026 04       		.byte	0x4
 889 0027 05       		.byte	0x5
 890 0028 696E7400 		.ascii	"int\000"
 891 002c 03       		.uleb128 0x3
 892 002d 11000000 		.4byte	.LASF4
 893 0031 02       		.byte	0x2
 894 0032 D8       		.byte	0xd8
 895 0033 37000000 		.4byte	0x37
 896 0037 04       		.uleb128 0x4
 897 0038 04       		.byte	0x4
 898 0039 07       		.byte	0x7
 899 003a 76010000 		.4byte	.LASF0
 900 003e 04       		.uleb128 0x4
ARM GAS  /var/folders/6q/x_mk5n_j3p7_c40r_2k_78980000gn/T//cckhicoL.s 			page 17


 901 003f 08       		.byte	0x8
 902 0040 05       		.byte	0x5
 903 0041 89000000 		.4byte	.LASF1
 904 0045 04       		.uleb128 0x4
 905 0046 08       		.byte	0x8
 906 0047 04       		.byte	0x4
 907 0048 68030000 		.4byte	.LASF2
 908 004c 04       		.uleb128 0x4
 909 004d 01       		.byte	0x1
 910 004e 06       		.byte	0x6
 911 004f 97000000 		.4byte	.LASF3
 912 0053 03       		.uleb128 0x3
 913 0054 2B000000 		.4byte	.LASF5
 914 0058 03       		.byte	0x3
 915 0059 1D       		.byte	0x1d
 916 005a 5E000000 		.4byte	0x5e
 917 005e 04       		.uleb128 0x4
 918 005f 01       		.byte	0x1
 919 0060 08       		.byte	0x8
 920 0061 35040000 		.4byte	.LASF6
 921 0065 04       		.uleb128 0x4
 922 0066 02       		.byte	0x2
 923 0067 05       		.byte	0x5
 924 0068 77040000 		.4byte	.LASF7
 925 006c 03       		.uleb128 0x3
 926 006d 4D050000 		.4byte	.LASF8
 927 0071 03       		.byte	0x3
 928 0072 2B       		.byte	0x2b
 929 0073 77000000 		.4byte	0x77
 930 0077 04       		.uleb128 0x4
 931 0078 02       		.byte	0x2
 932 0079 07       		.byte	0x7
 933 007a 9F020000 		.4byte	.LASF9
 934 007e 03       		.uleb128 0x3
 935 007f 74050000 		.4byte	.LASF10
 936 0083 03       		.byte	0x3
 937 0084 3F       		.byte	0x3f
 938 0085 89000000 		.4byte	0x89
 939 0089 04       		.uleb128 0x4
 940 008a 04       		.byte	0x4
 941 008b 05       		.byte	0x5
 942 008c E3000000 		.4byte	.LASF11
 943 0090 03       		.uleb128 0x3
 944 0091 43010000 		.4byte	.LASF12
 945 0095 03       		.byte	0x3
 946 0096 41       		.byte	0x41
 947 0097 9B000000 		.4byte	0x9b
 948 009b 04       		.uleb128 0x4
 949 009c 04       		.byte	0x4
 950 009d 07       		.byte	0x7
 951 009e 1A050000 		.4byte	.LASF13
 952 00a2 04       		.uleb128 0x4
 953 00a3 08       		.byte	0x8
 954 00a4 07       		.byte	0x7
 955 00a5 3F000000 		.4byte	.LASF14
 956 00a9 03       		.uleb128 0x3
 957 00aa 26060000 		.4byte	.LASF15
ARM GAS  /var/folders/6q/x_mk5n_j3p7_c40r_2k_78980000gn/T//cckhicoL.s 			page 18


 958 00ae 04       		.byte	0x4
 959 00af 18       		.byte	0x18
 960 00b0 53000000 		.4byte	0x53
 961 00b4 03       		.uleb128 0x3
 962 00b5 83010000 		.4byte	.LASF16
 963 00b9 04       		.byte	0x4
 964 00ba 24       		.byte	0x24
 965 00bb 6C000000 		.4byte	0x6c
 966 00bf 03       		.uleb128 0x3
 967 00c0 2D040000 		.4byte	.LASF17
 968 00c4 04       		.byte	0x4
 969 00c5 2C       		.byte	0x2c
 970 00c6 7E000000 		.4byte	0x7e
 971 00ca 03       		.uleb128 0x3
 972 00cb E8040000 		.4byte	.LASF18
 973 00cf 04       		.byte	0x4
 974 00d0 30       		.byte	0x30
 975 00d1 90000000 		.4byte	0x90
 976 00d5 04       		.uleb128 0x4
 977 00d6 01       		.byte	0x1
 978 00d7 02       		.byte	0x2
 979 00d8 27040000 		.4byte	.LASF19
 980 00dc 03       		.uleb128 0x3
 981 00dd E7020000 		.4byte	.LASF20
 982 00e1 05       		.byte	0x5
 983 00e2 2C       		.byte	0x2c
 984 00e3 A9000000 		.4byte	0xa9
 985 00e7 03       		.uleb128 0x3
 986 00e8 F5000000 		.4byte	.LASF21
 987 00ec 05       		.byte	0x5
 988 00ed 2D       		.byte	0x2d
 989 00ee A9000000 		.4byte	0xa9
 990 00f2 03       		.uleb128 0x3
 991 00f3 CC030000 		.4byte	.LASF22
 992 00f7 05       		.byte	0x5
 993 00f8 2E       		.byte	0x2e
 994 00f9 A9000000 		.4byte	0xa9
 995 00fd 03       		.uleb128 0x3
 996 00fe B8000000 		.4byte	.LASF23
 997 0102 05       		.byte	0x5
 998 0103 2F       		.byte	0x2f
 999 0104 A9000000 		.4byte	0xa9
 1000 0108 03       		.uleb128 0x3
 1001 0109 17040000 		.4byte	.LASF24
 1002 010d 05       		.byte	0x5
 1003 010e 30       		.byte	0x30
 1004 010f CA000000 		.4byte	0xca
 1005 0113 03       		.uleb128 0x3
 1006 0114 B2020000 		.4byte	.LASF25
 1007 0118 05       		.byte	0x5
 1008 0119 31       		.byte	0x31
 1009 011a BF000000 		.4byte	0xbf
 1010 011e 03       		.uleb128 0x3
 1011 011f FB020000 		.4byte	.LASF26
 1012 0123 05       		.byte	0x5
 1013 0124 33       		.byte	0x33
 1014 0125 CA000000 		.4byte	0xca
ARM GAS  /var/folders/6q/x_mk5n_j3p7_c40r_2k_78980000gn/T//cckhicoL.s 			page 19


 1015 0129 03       		.uleb128 0x3
 1016 012a A5050000 		.4byte	.LASF27
 1017 012e 05       		.byte	0x5
 1018 012f 34       		.byte	0x34
 1019 0130 CA000000 		.4byte	0xca
 1020 0134 03       		.uleb128 0x3
 1021 0135 5F050000 		.4byte	.LASF28
 1022 0139 05       		.byte	0x5
 1023 013a 35       		.byte	0x35
 1024 013b CA000000 		.4byte	0xca
 1025 013f 03       		.uleb128 0x3
 1026 0140 B2040000 		.4byte	.LASF29
 1027 0144 06       		.byte	0x6
 1028 0145 2A       		.byte	0x2a
 1029 0146 4A010000 		.4byte	0x14a
 1030 014a 05       		.uleb128 0x5
 1031 014b B2040000 		.4byte	.LASF29
 1032 014f 48       		.byte	0x48
 1033 0150 07       		.byte	0x7
 1034 0151 5E       		.byte	0x5e
 1035 0152 47020000 		.4byte	0x247
 1036 0156 06       		.uleb128 0x6
 1037 0157 7A030000 		.4byte	.LASF30
 1038 015b 07       		.byte	0x7
 1039 015c 5F       		.byte	0x5f
 1040 015d 68020000 		.4byte	0x268
 1041 0161 00       		.byte	0
 1042 0162 06       		.uleb128 0x6
 1043 0163 06040000 		.4byte	.LASF31
 1044 0167 07       		.byte	0x7
 1045 0168 61       		.byte	0x61
 1046 0169 68020000 		.4byte	0x268
 1047 016d 04       		.byte	0x4
 1048 016e 06       		.uleb128 0x6
 1049 016f 39060000 		.4byte	.LASF32
 1050 0173 07       		.byte	0x7
 1051 0174 63       		.byte	0x63
 1052 0175 08010000 		.4byte	0x108
 1053 0179 08       		.byte	0x8
 1054 017a 06       		.uleb128 0x6
 1055 017b 7B060000 		.4byte	.LASF33
 1056 017f 07       		.byte	0x7
 1057 0180 64       		.byte	0x64
 1058 0181 22030000 		.4byte	0x322
 1059 0185 0C       		.byte	0xc
 1060 0186 06       		.uleb128 0x6
 1061 0187 3B010000 		.4byte	.LASF34
 1062 018b 07       		.byte	0x7
 1063 018c 66       		.byte	0x66
 1064 018d 68020000 		.4byte	0x268
 1065 0191 10       		.byte	0x10
 1066 0192 06       		.uleb128 0x6
 1067 0193 81030000 		.4byte	.LASF35
 1068 0197 07       		.byte	0x7
 1069 0198 67       		.byte	0x67
 1070 0199 68020000 		.4byte	0x268
 1071 019d 14       		.byte	0x14
ARM GAS  /var/folders/6q/x_mk5n_j3p7_c40r_2k_78980000gn/T//cckhicoL.s 			page 20


 1072 019e 06       		.uleb128 0x6
 1073 019f 7E050000 		.4byte	.LASF36
 1074 01a3 07       		.byte	0x7
 1075 01a4 6E       		.byte	0x6e
 1076 01a5 3D040000 		.4byte	0x43d
 1077 01a9 18       		.byte	0x18
 1078 01aa 06       		.uleb128 0x6
 1079 01ab 65040000 		.4byte	.LASF37
 1080 01af 07       		.byte	0x7
 1081 01b0 79       		.byte	0x79
 1082 01b1 E7000000 		.4byte	0xe7
 1083 01b5 1C       		.byte	0x1c
 1084 01b6 06       		.uleb128 0x6
 1085 01b7 92040000 		.4byte	.LASF38
 1086 01bb 07       		.byte	0x7
 1087 01bc 7D       		.byte	0x7d
 1088 01bd DC000000 		.4byte	0xdc
 1089 01c1 1D       		.byte	0x1d
 1090 01c2 06       		.uleb128 0x6
 1091 01c3 07010000 		.4byte	.LASF39
 1092 01c7 07       		.byte	0x7
 1093 01c8 82       		.byte	0x82
 1094 01c9 F2000000 		.4byte	0xf2
 1095 01cd 1E       		.byte	0x1e
 1096 01ce 06       		.uleb128 0x6
 1097 01cf 81040000 		.4byte	.LASF40
 1098 01d3 07       		.byte	0x7
 1099 01d4 88       		.byte	0x88
 1100 01d5 FD000000 		.4byte	0xfd
 1101 01d9 1F       		.byte	0x1f
 1102 01da 06       		.uleb128 0x6
 1103 01db 1F010000 		.4byte	.LASF41
 1104 01df 07       		.byte	0x7
 1105 01e0 8F       		.byte	0x8f
 1106 01e1 4F030000 		.4byte	0x34f
 1107 01e5 20       		.byte	0x20
 1108 01e6 07       		.uleb128 0x7
 1109 01e7 705F7500 		.ascii	"p_u\000"
 1110 01eb 07       		.byte	0x7
 1111 01ec B4       		.byte	0xb4
 1112 01ed 08040000 		.4byte	0x408
 1113 01f1 24       		.byte	0x24
 1114 01f2 06       		.uleb128 0x6
 1115 01f3 81060000 		.4byte	.LASF42
 1116 01f7 07       		.byte	0x7
 1117 01f8 B9       		.byte	0xb9
 1118 01f9 8E020000 		.4byte	0x28e
 1119 01fd 28       		.byte	0x28
 1120 01fe 06       		.uleb128 0x6
 1121 01ff A3010000 		.4byte	.LASF43
 1122 0203 07       		.byte	0x7
 1123 0204 BF       		.byte	0xbf
 1124 0205 6E020000 		.4byte	0x26e
 1125 0209 2C       		.byte	0x2c
 1126 020a 06       		.uleb128 0x6
 1127 020b 5A060000 		.4byte	.LASF44
 1128 020f 07       		.byte	0x7
ARM GAS  /var/folders/6q/x_mk5n_j3p7_c40r_2k_78980000gn/T//cckhicoL.s 			page 21


 1129 0210 C3       		.byte	0xc3
 1130 0211 13010000 		.4byte	0x113
 1131 0215 34       		.byte	0x34
 1132 0216 06       		.uleb128 0x6
 1133 0217 C9040000 		.4byte	.LASF45
 1134 021b 07       		.byte	0x7
 1135 021c C9       		.byte	0xc9
 1136 021d 1E010000 		.4byte	0x11e
 1137 0221 38       		.byte	0x38
 1138 0222 06       		.uleb128 0x6
 1139 0223 6D040000 		.4byte	.LASF46
 1140 0227 07       		.byte	0x7
 1141 0228 D0       		.byte	0xd0
 1142 0229 4F040000 		.4byte	0x44f
 1143 022d 3C       		.byte	0x3c
 1144 022e 06       		.uleb128 0x6
 1145 022f 69050000 		.4byte	.LASF47
 1146 0233 07       		.byte	0x7
 1147 0234 D4       		.byte	0xd4
 1148 0235 08010000 		.4byte	0x108
 1149 0239 40       		.byte	0x40
 1150 023a 06       		.uleb128 0x6
 1151 023b A8000000 		.4byte	.LASF48
 1152 023f 07       		.byte	0x7
 1153 0240 DA       		.byte	0xda
 1154 0241 A4020000 		.4byte	0x2a4
 1155 0245 44       		.byte	0x44
 1156 0246 00       		.byte	0
 1157 0247 08       		.uleb128 0x8
 1158 0248 08       		.byte	0x8
 1159 0249 06       		.byte	0x6
 1160 024a 61       		.byte	0x61
 1161 024b 68020000 		.4byte	0x268
 1162 024f 06       		.uleb128 0x6
 1163 0250 7A030000 		.4byte	.LASF30
 1164 0254 06       		.byte	0x6
 1165 0255 62       		.byte	0x62
 1166 0256 68020000 		.4byte	0x268
 1167 025a 00       		.byte	0
 1168 025b 06       		.uleb128 0x6
 1169 025c 06040000 		.4byte	.LASF31
 1170 0260 06       		.byte	0x6
 1171 0261 64       		.byte	0x64
 1172 0262 68020000 		.4byte	0x268
 1173 0266 04       		.byte	0x4
 1174 0267 00       		.byte	0
 1175 0268 09       		.uleb128 0x9
 1176 0269 04       		.byte	0x4
 1177 026a 3F010000 		.4byte	0x13f
 1178 026e 03       		.uleb128 0x3
 1179 026f 89030000 		.4byte	.LASF49
 1180 0273 06       		.byte	0x6
 1181 0274 66       		.byte	0x66
 1182 0275 47020000 		.4byte	0x247
 1183 0279 08       		.uleb128 0x8
 1184 027a 04       		.byte	0x4
 1185 027b 06       		.byte	0x6
ARM GAS  /var/folders/6q/x_mk5n_j3p7_c40r_2k_78980000gn/T//cckhicoL.s 			page 22


 1186 027c 6B       		.byte	0x6b
 1187 027d 8E020000 		.4byte	0x28e
 1188 0281 06       		.uleb128 0x6
 1189 0282 7A030000 		.4byte	.LASF30
 1190 0286 06       		.byte	0x6
 1191 0287 6D       		.byte	0x6d
 1192 0288 68020000 		.4byte	0x268
 1193 028c 00       		.byte	0
 1194 028d 00       		.byte	0
 1195 028e 03       		.uleb128 0x3
 1196 028f EF020000 		.4byte	.LASF50
 1197 0293 06       		.byte	0x6
 1198 0294 70       		.byte	0x70
 1199 0295 79020000 		.4byte	0x279
 1200 0299 03       		.uleb128 0x3
 1201 029a 4E010000 		.4byte	.LASF51
 1202 029e 08       		.byte	0x8
 1203 029f E5       		.byte	0xe5
 1204 02a0 A4020000 		.4byte	0x2a4
 1205 02a4 0A       		.uleb128 0xa
 1206 02a5 04       		.byte	0x4
 1207 02a6 0B       		.uleb128 0xb
 1208 02a7 95050000 		.4byte	.LASF52
 1209 02ab 24       		.byte	0x24
 1210 02ac 08       		.byte	0x8
 1211 02ad 0C01     		.2byte	0x10c
 1212 02af 22030000 		.4byte	0x322
 1213 02b3 0C       		.uleb128 0xc
 1214 02b4 723400   		.ascii	"r4\000"
 1215 02b7 08       		.byte	0x8
 1216 02b8 1F01     		.2byte	0x11f
 1217 02ba 99020000 		.4byte	0x299
 1218 02be 00       		.byte	0
 1219 02bf 0C       		.uleb128 0xc
 1220 02c0 723500   		.ascii	"r5\000"
 1221 02c3 08       		.byte	0x8
 1222 02c4 2001     		.2byte	0x120
 1223 02c6 99020000 		.4byte	0x299
 1224 02ca 04       		.byte	0x4
 1225 02cb 0C       		.uleb128 0xc
 1226 02cc 723600   		.ascii	"r6\000"
 1227 02cf 08       		.byte	0x8
 1228 02d0 2101     		.2byte	0x121
 1229 02d2 99020000 		.4byte	0x299
 1230 02d6 08       		.byte	0x8
 1231 02d7 0C       		.uleb128 0xc
 1232 02d8 723700   		.ascii	"r7\000"
 1233 02db 08       		.byte	0x8
 1234 02dc 2201     		.2byte	0x122
 1235 02de 99020000 		.4byte	0x299
 1236 02e2 0C       		.byte	0xc
 1237 02e3 0C       		.uleb128 0xc
 1238 02e4 723800   		.ascii	"r8\000"
 1239 02e7 08       		.byte	0x8
 1240 02e8 2301     		.2byte	0x123
 1241 02ea 99020000 		.4byte	0x299
 1242 02ee 10       		.byte	0x10
ARM GAS  /var/folders/6q/x_mk5n_j3p7_c40r_2k_78980000gn/T//cckhicoL.s 			page 23


 1243 02ef 0C       		.uleb128 0xc
 1244 02f0 723900   		.ascii	"r9\000"
 1245 02f3 08       		.byte	0x8
 1246 02f4 2401     		.2byte	0x124
 1247 02f6 99020000 		.4byte	0x299
 1248 02fa 14       		.byte	0x14
 1249 02fb 0C       		.uleb128 0xc
 1250 02fc 72313000 		.ascii	"r10\000"
 1251 0300 08       		.byte	0x8
 1252 0301 2501     		.2byte	0x125
 1253 0303 99020000 		.4byte	0x299
 1254 0307 18       		.byte	0x18
 1255 0308 0C       		.uleb128 0xc
 1256 0309 72313100 		.ascii	"r11\000"
 1257 030d 08       		.byte	0x8
 1258 030e 2601     		.2byte	0x126
 1259 0310 99020000 		.4byte	0x299
 1260 0314 1C       		.byte	0x1c
 1261 0315 0C       		.uleb128 0xc
 1262 0316 6C7200   		.ascii	"lr\000"
 1263 0319 08       		.byte	0x8
 1264 031a 2701     		.2byte	0x127
 1265 031c 99020000 		.4byte	0x299
 1266 0320 20       		.byte	0x20
 1267 0321 00       		.byte	0
 1268 0322 0B       		.uleb128 0xb
 1269 0323 8D050000 		.4byte	.LASF53
 1270 0327 04       		.byte	0x4
 1271 0328 08       		.byte	0x8
 1272 0329 3101     		.2byte	0x131
 1273 032b 3D030000 		.4byte	0x33d
 1274 032f 0C       		.uleb128 0xc
 1275 0330 72313300 		.ascii	"r13\000"
 1276 0334 08       		.byte	0x8
 1277 0335 3201     		.2byte	0x132
 1278 0337 3D030000 		.4byte	0x33d
 1279 033b 00       		.byte	0
 1280 033c 00       		.byte	0
 1281 033d 09       		.uleb128 0x9
 1282 033e 04       		.byte	0x4
 1283 033f A6020000 		.4byte	0x2a6
 1284 0343 0D       		.uleb128 0xd
 1285 0344 CA000000 		.4byte	0xca
 1286 0348 04       		.uleb128 0x4
 1287 0349 04       		.byte	0x4
 1288 034a 07       		.byte	0x7
 1289 034b 55030000 		.4byte	.LASF54
 1290 034f 0D       		.uleb128 0xd
 1291 0350 34010000 		.4byte	0x134
 1292 0354 05       		.uleb128 0x5
 1293 0355 74030000 		.4byte	.LASF55
 1294 0359 10       		.byte	0x10
 1295 035a 09       		.byte	0x9
 1296 035b 2C       		.byte	0x2c
 1297 035c 85030000 		.4byte	0x385
 1298 0360 06       		.uleb128 0x6
 1299 0361 B0000000 		.4byte	.LASF56
ARM GAS  /var/folders/6q/x_mk5n_j3p7_c40r_2k_78980000gn/T//cckhicoL.s 			page 24


 1300 0365 09       		.byte	0x9
 1301 0366 2D       		.byte	0x2d
 1302 0367 6E020000 		.4byte	0x26e
 1303 036b 00       		.byte	0
 1304 036c 06       		.uleb128 0x6
 1305 036d 73060000 		.4byte	.LASF57
 1306 0371 09       		.byte	0x9
 1307 0372 2F       		.byte	0x2f
 1308 0373 68020000 		.4byte	0x268
 1309 0377 08       		.byte	0x8
 1310 0378 06       		.uleb128 0x6
 1311 0379 58050000 		.4byte	.LASF58
 1312 037d 09       		.byte	0x9
 1313 037e 31       		.byte	0x31
 1314 037f 85030000 		.4byte	0x385
 1315 0383 0C       		.byte	0xc
 1316 0384 00       		.byte	0
 1317 0385 09       		.uleb128 0x9
 1318 0386 04       		.byte	0x4
 1319 0387 54030000 		.4byte	0x354
 1320 038b 03       		.uleb128 0x3
 1321 038c 74030000 		.4byte	.LASF55
 1322 0390 09       		.byte	0x9
 1323 0391 33       		.byte	0x33
 1324 0392 54030000 		.4byte	0x354
 1325 0396 03       		.uleb128 0x3
 1326 0397 40060000 		.4byte	.LASF59
 1327 039b 0A       		.byte	0xa
 1328 039c 2C       		.byte	0x2c
 1329 039d A1030000 		.4byte	0x3a1
 1330 03a1 05       		.uleb128 0x5
 1331 03a2 40060000 		.4byte	.LASF59
 1332 03a6 10       		.byte	0x10
 1333 03a7 0A       		.byte	0xa
 1334 03a8 31       		.byte	0x31
 1335 03a9 DE030000 		.4byte	0x3de
 1336 03ad 06       		.uleb128 0x6
 1337 03ae 9A040000 		.4byte	.LASF60
 1338 03b2 0A       		.byte	0xa
 1339 03b3 32       		.byte	0x32
 1340 03b4 DE030000 		.4byte	0x3de
 1341 03b8 00       		.byte	0
 1342 03b9 06       		.uleb128 0x6
 1343 03ba 50040000 		.4byte	.LASF61
 1344 03be 0A       		.byte	0xa
 1345 03bf 35       		.byte	0x35
 1346 03c0 68020000 		.4byte	0x268
 1347 03c4 04       		.byte	0x4
 1348 03c5 06       		.uleb128 0x6
 1349 03c6 9F030000 		.4byte	.LASF62
 1350 03ca 0A       		.byte	0xa
 1351 03cb 37       		.byte	0x37
 1352 03cc 1E010000 		.4byte	0x11e
 1353 03d0 08       		.byte	0x8
 1354 03d1 06       		.uleb128 0x6
 1355 03d2 5C040000 		.4byte	.LASF63
 1356 03d6 0A       		.byte	0xa
ARM GAS  /var/folders/6q/x_mk5n_j3p7_c40r_2k_78980000gn/T//cckhicoL.s 			page 25


 1357 03d7 3A       		.byte	0x3a
 1358 03d8 29010000 		.4byte	0x129
 1359 03dc 0C       		.byte	0xc
 1360 03dd 00       		.byte	0
 1361 03de 09       		.uleb128 0x9
 1362 03df 04       		.byte	0x4
 1363 03e0 96030000 		.4byte	0x396
 1364 03e4 05       		.uleb128 0x5
 1365 03e5 64010000 		.4byte	.LASF64
 1366 03e9 04       		.byte	0x4
 1367 03ea 0A       		.byte	0xa
 1368 03eb 41       		.byte	0x41
 1369 03ec FD030000 		.4byte	0x3fd
 1370 03f0 06       		.uleb128 0x6
 1371 03f1 10060000 		.4byte	.LASF65
 1372 03f5 0A       		.byte	0xa
 1373 03f6 42       		.byte	0x42
 1374 03f7 DE030000 		.4byte	0x3de
 1375 03fb 00       		.byte	0
 1376 03fc 00       		.byte	0
 1377 03fd 03       		.uleb128 0x3
 1378 03fe 64010000 		.4byte	.LASF64
 1379 0402 0A       		.byte	0xa
 1380 0403 45       		.byte	0x45
 1381 0404 E4030000 		.4byte	0x3e4
 1382 0408 0E       		.uleb128 0xe
 1383 0409 04       		.byte	0x4
 1384 040a 07       		.byte	0x7
 1385 040b 96       		.byte	0x96
 1386 040c 3D040000 		.4byte	0x43d
 1387 0410 0F       		.uleb128 0xf
 1388 0411 18000000 		.4byte	.LASF66
 1389 0415 07       		.byte	0x7
 1390 0416 9D       		.byte	0x9d
 1391 0417 13010000 		.4byte	0x113
 1392 041b 0F       		.uleb128 0xf
 1393 041c 56000000 		.4byte	.LASF67
 1394 0420 07       		.byte	0x7
 1395 0421 A4       		.byte	0xa4
 1396 0422 13010000 		.4byte	0x113
 1397 0426 0F       		.uleb128 0xf
 1398 0427 4E060000 		.4byte	.LASF68
 1399 042b 07       		.byte	0x7
 1400 042c AB       		.byte	0xab
 1401 042d A4020000 		.4byte	0x2a4
 1402 0431 0F       		.uleb128 0xf
 1403 0432 8B040000 		.4byte	.LASF69
 1404 0436 07       		.byte	0x7
 1405 0437 B2       		.byte	0xb2
 1406 0438 1E010000 		.4byte	0x11e
 1407 043c 00       		.byte	0
 1408 043d 09       		.uleb128 0x9
 1409 043e 04       		.byte	0x4
 1410 043f 4A040000 		.4byte	0x44a
 1411 0443 04       		.uleb128 0x4
 1412 0444 01       		.byte	0x1
 1413 0445 08       		.byte	0x8
ARM GAS  /var/folders/6q/x_mk5n_j3p7_c40r_2k_78980000gn/T//cckhicoL.s 			page 26


 1414 0446 31050000 		.4byte	.LASF70
 1415 044a 10       		.uleb128 0x10
 1416 044b 43040000 		.4byte	0x443
 1417 044f 09       		.uleb128 0x9
 1418 0450 04       		.byte	0x4
 1419 0451 8B030000 		.4byte	0x38b
 1420 0455 09       		.uleb128 0x9
 1421 0456 04       		.byte	0x4
 1422 0457 5B040000 		.4byte	0x45b
 1423 045b 11       		.uleb128 0x11
 1424 045c 13010000 		.4byte	0x113
 1425 0460 6A040000 		.4byte	0x46a
 1426 0464 12       		.uleb128 0x12
 1427 0465 A4020000 		.4byte	0x2a4
 1428 0469 00       		.byte	0
 1429 046a 03       		.uleb128 0x3
 1430 046b 29030000 		.4byte	.LASF71
 1431 046f 0B       		.byte	0xb
 1432 0470 37       		.byte	0x37
 1433 0471 75040000 		.4byte	0x475
 1434 0475 05       		.uleb128 0x5
 1435 0476 29030000 		.4byte	.LASF71
 1436 047a 24       		.byte	0x24
 1437 047b 0B       		.byte	0xb
 1438 047c 45       		.byte	0x45
 1439 047d E2040000 		.4byte	0x4e2
 1440 0481 06       		.uleb128 0x6
 1441 0482 7F000000 		.4byte	.LASF72
 1442 0486 0B       		.byte	0xb
 1443 0487 46       		.byte	0x46
 1444 0488 6E020000 		.4byte	0x26e
 1445 048c 00       		.byte	0
 1446 048d 06       		.uleb128 0x6
 1447 048e 5E030000 		.4byte	.LASF73
 1448 0492 0B       		.byte	0xb
 1449 0493 47       		.byte	0x47
 1450 0494 2C000000 		.4byte	0x2c
 1451 0498 08       		.byte	0x8
 1452 0499 06       		.uleb128 0x6
 1453 049a 0E010000 		.4byte	.LASF74
 1454 049e 0B       		.byte	0xb
 1455 049f 48       		.byte	0x48
 1456 04a0 04050000 		.4byte	0x504
 1457 04a4 0C       		.byte	0xc
 1458 04a5 06       		.uleb128 0x6
 1459 04a6 E8050000 		.4byte	.LASF75
 1460 04aa 0B       		.byte	0xb
 1461 04ab 49       		.byte	0x49
 1462 04ac 04050000 		.4byte	0x504
 1463 04b0 10       		.byte	0x10
 1464 04b1 06       		.uleb128 0x6
 1465 04b2 17010000 		.4byte	.LASF76
 1466 04b6 0B       		.byte	0xb
 1467 04b7 4B       		.byte	0x4b
 1468 04b8 04050000 		.4byte	0x504
 1469 04bc 14       		.byte	0x14
 1470 04bd 06       		.uleb128 0x6
ARM GAS  /var/folders/6q/x_mk5n_j3p7_c40r_2k_78980000gn/T//cckhicoL.s 			page 27


 1471 04be 1F040000 		.4byte	.LASF77
 1472 04c2 0B       		.byte	0xb
 1473 04c3 4C       		.byte	0x4c
 1474 04c4 04050000 		.4byte	0x504
 1475 04c8 18       		.byte	0x18
 1476 04c9 06       		.uleb128 0x6
 1477 04ca 1D060000 		.4byte	.LASF78
 1478 04ce 0B       		.byte	0xb
 1479 04cf 4D       		.byte	0x4d
 1480 04d0 E2040000 		.4byte	0x4e2
 1481 04d4 1C       		.byte	0x1c
 1482 04d5 06       		.uleb128 0x6
 1483 04d6 6C060000 		.4byte	.LASF79
 1484 04da 0B       		.byte	0xb
 1485 04db 4E       		.byte	0x4e
 1486 04dc A4020000 		.4byte	0x2a4
 1487 04e0 20       		.byte	0x20
 1488 04e1 00       		.byte	0
 1489 04e2 03       		.uleb128 0x3
 1490 04e3 1F030000 		.4byte	.LASF80
 1491 04e7 0B       		.byte	0xb
 1492 04e8 3A       		.byte	0x3a
 1493 04e9 ED040000 		.4byte	0x4ed
 1494 04ed 09       		.uleb128 0x9
 1495 04ee 04       		.byte	0x4
 1496 04ef F3040000 		.4byte	0x4f3
 1497 04f3 13       		.uleb128 0x13
 1498 04f4 FE040000 		.4byte	0x4fe
 1499 04f8 12       		.uleb128 0x12
 1500 04f9 FE040000 		.4byte	0x4fe
 1501 04fd 00       		.byte	0
 1502 04fe 09       		.uleb128 0x9
 1503 04ff 04       		.byte	0x4
 1504 0500 6A040000 		.4byte	0x46a
 1505 0504 09       		.uleb128 0x9
 1506 0505 04       		.byte	0x4
 1507 0506 A9000000 		.4byte	0xa9
 1508 050a 03       		.uleb128 0x3
 1509 050b 2E060000 		.4byte	.LASF81
 1510 050f 0B       		.byte	0xb
 1511 0510 82       		.byte	0x82
 1512 0511 6A040000 		.4byte	0x46a
 1513 0515 03       		.uleb128 0x3
 1514 0516 1F000000 		.4byte	.LASF82
 1515 051a 0B       		.byte	0xb
 1516 051b F5       		.byte	0xf5
 1517 051c 6A040000 		.4byte	0x46a
 1518 0520 11       		.uleb128 0x11
 1519 0521 2C000000 		.4byte	0x2c
 1520 0525 39050000 		.4byte	0x539
 1521 0529 12       		.uleb128 0x12
 1522 052a A4020000 		.4byte	0x2a4
 1523 052e 12       		.uleb128 0x12
 1524 052f 39050000 		.4byte	0x539
 1525 0533 12       		.uleb128 0x12
 1526 0534 2C000000 		.4byte	0x2c
 1527 0538 00       		.byte	0
ARM GAS  /var/folders/6q/x_mk5n_j3p7_c40r_2k_78980000gn/T//cckhicoL.s 			page 28


 1528 0539 09       		.uleb128 0x9
 1529 053a 04       		.byte	0x4
 1530 053b 3F050000 		.4byte	0x53f
 1531 053f 10       		.uleb128 0x10
 1532 0540 A9000000 		.4byte	0xa9
 1533 0544 09       		.uleb128 0x9
 1534 0545 04       		.byte	0x4
 1535 0546 20050000 		.4byte	0x520
 1536 054a 11       		.uleb128 0x11
 1537 054b 2C000000 		.4byte	0x2c
 1538 054f 63050000 		.4byte	0x563
 1539 0553 12       		.uleb128 0x12
 1540 0554 A4020000 		.4byte	0x2a4
 1541 0558 12       		.uleb128 0x12
 1542 0559 04050000 		.4byte	0x504
 1543 055d 12       		.uleb128 0x12
 1544 055e 2C000000 		.4byte	0x2c
 1545 0562 00       		.byte	0
 1546 0563 09       		.uleb128 0x9
 1547 0564 04       		.byte	0x4
 1548 0565 4A050000 		.4byte	0x54a
 1549 0569 11       		.uleb128 0x11
 1550 056a 13010000 		.4byte	0x113
 1551 056e 7D050000 		.4byte	0x57d
 1552 0572 12       		.uleb128 0x12
 1553 0573 A4020000 		.4byte	0x2a4
 1554 0577 12       		.uleb128 0x12
 1555 0578 A9000000 		.4byte	0xa9
 1556 057c 00       		.byte	0
 1557 057d 09       		.uleb128 0x9
 1558 057e 04       		.byte	0x4
 1559 057f 69050000 		.4byte	0x569
 1560 0583 0D       		.uleb128 0xd
 1561 0584 B4000000 		.4byte	0xb4
 1562 0588 0D       		.uleb128 0xd
 1563 0589 BF000000 		.4byte	0xbf
 1564 058d 14       		.uleb128 0x14
 1565 058e 28       		.byte	0x28
 1566 058f 0C       		.byte	0xc
 1567 0590 4304     		.2byte	0x443
 1568 0592 18060000 		.4byte	0x618
 1569 0596 0C       		.uleb128 0xc
 1570 0597 435200   		.ascii	"CR\000"
 1571 059a 0C       		.byte	0xc
 1572 059b 4504     		.2byte	0x445
 1573 059d 43030000 		.4byte	0x343
 1574 05a1 00       		.byte	0
 1575 05a2 15       		.uleb128 0x15
 1576 05a3 55060000 		.4byte	.LASF83
 1577 05a7 0C       		.byte	0xc
 1578 05a8 4604     		.2byte	0x446
 1579 05aa 43030000 		.4byte	0x343
 1580 05ae 04       		.byte	0x4
 1581 05af 0C       		.uleb128 0xc
 1582 05b0 43495200 		.ascii	"CIR\000"
 1583 05b4 0C       		.byte	0xc
 1584 05b5 4704     		.2byte	0x447
ARM GAS  /var/folders/6q/x_mk5n_j3p7_c40r_2k_78980000gn/T//cckhicoL.s 			page 29


 1585 05b7 43030000 		.4byte	0x343
 1586 05bb 08       		.byte	0x8
 1587 05bc 15       		.uleb128 0x15
 1588 05bd EC000000 		.4byte	.LASF84
 1589 05c1 0C       		.byte	0xc
 1590 05c2 4804     		.2byte	0x448
 1591 05c4 43030000 		.4byte	0x343
 1592 05c8 0C       		.byte	0xc
 1593 05c9 15       		.uleb128 0x15
 1594 05ca 96030000 		.4byte	.LASF85
 1595 05ce 0C       		.byte	0xc
 1596 05cf 4904     		.2byte	0x449
 1597 05d1 43030000 		.4byte	0x343
 1598 05d5 10       		.byte	0x10
 1599 05d6 15       		.uleb128 0x15
 1600 05d7 8B060000 		.4byte	.LASF86
 1601 05db 0C       		.byte	0xc
 1602 05dc 4A04     		.2byte	0x44a
 1603 05de 43030000 		.4byte	0x343
 1604 05e2 14       		.byte	0x14
 1605 05e3 15       		.uleb128 0x15
 1606 05e4 AA040000 		.4byte	.LASF87
 1607 05e8 0C       		.byte	0xc
 1608 05e9 4B04     		.2byte	0x44b
 1609 05eb 43030000 		.4byte	0x343
 1610 05ef 18       		.byte	0x18
 1611 05f0 15       		.uleb128 0x15
 1612 05f1 85050000 		.4byte	.LASF88
 1613 05f5 0C       		.byte	0xc
 1614 05f6 4C04     		.2byte	0x44c
 1615 05f8 43030000 		.4byte	0x343
 1616 05fc 1C       		.byte	0x1c
 1617 05fd 15       		.uleb128 0x15
 1618 05fe 18060000 		.4byte	.LASF89
 1619 0602 0C       		.byte	0xc
 1620 0603 4D04     		.2byte	0x44d
 1621 0605 43030000 		.4byte	0x343
 1622 0609 20       		.byte	0x20
 1623 060a 0C       		.uleb128 0xc
 1624 060b 43535200 		.ascii	"CSR\000"
 1625 060f 0C       		.byte	0xc
 1626 0610 4E04     		.2byte	0x44e
 1627 0612 43030000 		.4byte	0x343
 1628 0616 24       		.byte	0x24
 1629 0617 00       		.byte	0
 1630 0618 16       		.uleb128 0x16
 1631 0619 C2000000 		.4byte	.LASF90
 1632 061d 0C       		.byte	0xc
 1633 061e 5904     		.2byte	0x459
 1634 0620 8D050000 		.4byte	0x58d
 1635 0624 14       		.uleb128 0x14
 1636 0625 1C       		.byte	0x1c
 1637 0626 0C       		.byte	0xc
 1638 0627 E104     		.2byte	0x4e1
 1639 0629 E2060000 		.4byte	0x6e2
 1640 062d 0C       		.uleb128 0xc
 1641 062e 535200   		.ascii	"SR\000"
ARM GAS  /var/folders/6q/x_mk5n_j3p7_c40r_2k_78980000gn/T//cckhicoL.s 			page 30


 1642 0631 0C       		.byte	0xc
 1643 0632 E304     		.2byte	0x4e3
 1644 0634 83050000 		.4byte	0x583
 1645 0638 00       		.byte	0
 1646 0639 15       		.uleb128 0x15
 1647 063a D4030000 		.4byte	.LASF91
 1648 063e 0C       		.byte	0xc
 1649 063f E404     		.2byte	0x4e4
 1650 0641 B4000000 		.4byte	0xb4
 1651 0645 02       		.byte	0x2
 1652 0646 0C       		.uleb128 0xc
 1653 0647 445200   		.ascii	"DR\000"
 1654 064a 0C       		.byte	0xc
 1655 064b E504     		.2byte	0x4e5
 1656 064d 83050000 		.4byte	0x583
 1657 0651 04       		.byte	0x4
 1658 0652 15       		.uleb128 0x15
 1659 0653 DE030000 		.4byte	.LASF92
 1660 0657 0C       		.byte	0xc
 1661 0658 E604     		.2byte	0x4e6
 1662 065a B4000000 		.4byte	0xb4
 1663 065e 06       		.byte	0x6
 1664 065f 0C       		.uleb128 0xc
 1665 0660 42525200 		.ascii	"BRR\000"
 1666 0664 0C       		.byte	0xc
 1667 0665 E704     		.2byte	0x4e7
 1668 0667 83050000 		.4byte	0x583
 1669 066b 08       		.byte	0x8
 1670 066c 15       		.uleb128 0x15
 1671 066d E8030000 		.4byte	.LASF93
 1672 0671 0C       		.byte	0xc
 1673 0672 E804     		.2byte	0x4e8
 1674 0674 B4000000 		.4byte	0xb4
 1675 0678 0A       		.byte	0xa
 1676 0679 0C       		.uleb128 0xc
 1677 067a 43523100 		.ascii	"CR1\000"
 1678 067e 0C       		.byte	0xc
 1679 067f E904     		.2byte	0x4e9
 1680 0681 83050000 		.4byte	0x583
 1681 0685 0C       		.byte	0xc
 1682 0686 15       		.uleb128 0x15
 1683 0687 F2030000 		.4byte	.LASF94
 1684 068b 0C       		.byte	0xc
 1685 068c EA04     		.2byte	0x4ea
 1686 068e B4000000 		.4byte	0xb4
 1687 0692 0E       		.byte	0xe
 1688 0693 0C       		.uleb128 0xc
 1689 0694 43523200 		.ascii	"CR2\000"
 1690 0698 0C       		.byte	0xc
 1691 0699 EB04     		.2byte	0x4eb
 1692 069b 83050000 		.4byte	0x583
 1693 069f 10       		.byte	0x10
 1694 06a0 15       		.uleb128 0x15
 1695 06a1 FC030000 		.4byte	.LASF95
 1696 06a5 0C       		.byte	0xc
 1697 06a6 EC04     		.2byte	0x4ec
 1698 06a8 B4000000 		.4byte	0xb4
ARM GAS  /var/folders/6q/x_mk5n_j3p7_c40r_2k_78980000gn/T//cckhicoL.s 			page 31


 1699 06ac 12       		.byte	0x12
 1700 06ad 0C       		.uleb128 0xc
 1701 06ae 43523300 		.ascii	"CR3\000"
 1702 06b2 0C       		.byte	0xc
 1703 06b3 ED04     		.2byte	0x4ed
 1704 06b5 83050000 		.4byte	0x583
 1705 06b9 14       		.byte	0x14
 1706 06ba 15       		.uleb128 0x15
 1707 06bb DE040000 		.4byte	.LASF96
 1708 06bf 0C       		.byte	0xc
 1709 06c0 EE04     		.2byte	0x4ee
 1710 06c2 B4000000 		.4byte	0xb4
 1711 06c6 16       		.byte	0x16
 1712 06c7 15       		.uleb128 0x15
 1713 06c8 A3000000 		.4byte	.LASF97
 1714 06cc 0C       		.byte	0xc
 1715 06cd EF04     		.2byte	0x4ef
 1716 06cf 83050000 		.4byte	0x583
 1717 06d3 18       		.byte	0x18
 1718 06d4 15       		.uleb128 0x15
 1719 06d5 0D040000 		.4byte	.LASF98
 1720 06d9 0C       		.byte	0xc
 1721 06da F004     		.2byte	0x4f0
 1722 06dc B4000000 		.4byte	0xb4
 1723 06e0 1A       		.byte	0x1a
 1724 06e1 00       		.byte	0
 1725 06e2 16       		.uleb128 0x16
 1726 06e3 D2020000 		.4byte	.LASF99
 1727 06e7 0C       		.byte	0xc
 1728 06e8 F104     		.2byte	0x4f1
 1729 06ea 24060000 		.4byte	0x624
 1730 06ee 11       		.uleb128 0x11
 1731 06ef 13010000 		.4byte	0x113
 1732 06f3 07070000 		.4byte	0x707
 1733 06f7 12       		.uleb128 0x12
 1734 06f8 A4020000 		.4byte	0x2a4
 1735 06fc 12       		.uleb128 0x12
 1736 06fd A9000000 		.4byte	0xa9
 1737 0701 12       		.uleb128 0x12
 1738 0702 34010000 		.4byte	0x134
 1739 0706 00       		.byte	0
 1740 0707 09       		.uleb128 0x9
 1741 0708 04       		.byte	0x4
 1742 0709 EE060000 		.4byte	0x6ee
 1743 070d 11       		.uleb128 0x11
 1744 070e 13010000 		.4byte	0x113
 1745 0712 21070000 		.4byte	0x721
 1746 0716 12       		.uleb128 0x12
 1747 0717 A4020000 		.4byte	0x2a4
 1748 071b 12       		.uleb128 0x12
 1749 071c 34010000 		.4byte	0x134
 1750 0720 00       		.byte	0
 1751 0721 09       		.uleb128 0x9
 1752 0722 04       		.byte	0x4
 1753 0723 0D070000 		.4byte	0x70d
 1754 0727 11       		.uleb128 0x11
 1755 0728 2C000000 		.4byte	0x2c
ARM GAS  /var/folders/6q/x_mk5n_j3p7_c40r_2k_78980000gn/T//cckhicoL.s 			page 32


 1756 072c 45070000 		.4byte	0x745
 1757 0730 12       		.uleb128 0x12
 1758 0731 A4020000 		.4byte	0x2a4
 1759 0735 12       		.uleb128 0x12
 1760 0736 39050000 		.4byte	0x539
 1761 073a 12       		.uleb128 0x12
 1762 073b 2C000000 		.4byte	0x2c
 1763 073f 12       		.uleb128 0x12
 1764 0740 34010000 		.4byte	0x134
 1765 0744 00       		.byte	0
 1766 0745 09       		.uleb128 0x9
 1767 0746 04       		.byte	0x4
 1768 0747 27070000 		.4byte	0x727
 1769 074b 11       		.uleb128 0x11
 1770 074c 2C000000 		.4byte	0x2c
 1771 0750 69070000 		.4byte	0x769
 1772 0754 12       		.uleb128 0x12
 1773 0755 A4020000 		.4byte	0x2a4
 1774 0759 12       		.uleb128 0x12
 1775 075a 04050000 		.4byte	0x504
 1776 075e 12       		.uleb128 0x12
 1777 075f 2C000000 		.4byte	0x2c
 1778 0763 12       		.uleb128 0x12
 1779 0764 34010000 		.4byte	0x134
 1780 0768 00       		.byte	0
 1781 0769 09       		.uleb128 0x9
 1782 076a 04       		.byte	0x4
 1783 076b 4B070000 		.4byte	0x74b
 1784 076f 17       		.uleb128 0x17
 1785 0770 01       		.byte	0x1
 1786 0771 5E000000 		.4byte	0x5e
 1787 0775 0D       		.byte	0xd
 1788 0776 64       		.byte	0x64
 1789 0777 8E070000 		.4byte	0x78e
 1790 077b 18       		.uleb128 0x18
 1791 077c D4040000 		.4byte	.LASF100
 1792 0780 00       		.byte	0
 1793 0781 18       		.uleb128 0x18
 1794 0782 A2040000 		.4byte	.LASF101
 1795 0786 01       		.byte	0x1
 1796 0787 18       		.uleb128 0x18
 1797 0788 9C050000 		.4byte	.LASF102
 1798 078c 02       		.byte	0x2
 1799 078d 00       		.byte	0
 1800 078e 03       		.uleb128 0x3
 1801 078f F1040000 		.4byte	.LASF103
 1802 0793 0D       		.byte	0xd
 1803 0794 68       		.byte	0x68
 1804 0795 6F070000 		.4byte	0x76f
 1805 0799 03       		.uleb128 0x3
 1806 079a FB040000 		.4byte	.LASF104
 1807 079e 0D       		.byte	0xd
 1808 079f 6D       		.byte	0x6d
 1809 07a0 A4070000 		.4byte	0x7a4
 1810 07a4 05       		.uleb128 0x5
 1811 07a5 FB040000 		.4byte	.LASF104
 1812 07a9 D8       		.byte	0xd8
ARM GAS  /var/folders/6q/x_mk5n_j3p7_c40r_2k_78980000gn/T//cckhicoL.s 			page 33


 1813 07aa 0D       		.byte	0xd
 1814 07ab 87       		.byte	0x87
 1815 07ac 0F080000 		.4byte	0x80f
 1816 07b0 07       		.uleb128 0x7
 1817 07b1 766D7400 		.ascii	"vmt\000"
 1818 07b5 0D       		.byte	0xd
 1819 07b6 89       		.byte	0x89
 1820 07b7 C0080000 		.4byte	0x8c0
 1821 07bb 00       		.byte	0
 1822 07bc 06       		.uleb128 0x6
 1823 07bd 99020000 		.4byte	.LASF105
 1824 07c1 0D       		.byte	0xd
 1825 07c2 8A       		.byte	0x8a
 1826 07c3 FD030000 		.4byte	0x3fd
 1827 07c7 04       		.byte	0x4
 1828 07c8 06       		.uleb128 0x6
 1829 07c9 DD000000 		.4byte	.LASF106
 1830 07cd 0D       		.byte	0xd
 1831 07ce 8A       		.byte	0x8a
 1832 07cf 8E070000 		.4byte	0x78e
 1833 07d3 08       		.byte	0x8
 1834 07d4 06       		.uleb128 0x6
 1835 07d5 9C010000 		.4byte	.LASF107
 1836 07d9 0D       		.byte	0xd
 1837 07da 8A       		.byte	0x8a
 1838 07db 0A050000 		.4byte	0x50a
 1839 07df 0C       		.byte	0xc
 1840 07e0 06       		.uleb128 0x6
 1841 07e1 B8020000 		.4byte	.LASF108
 1842 07e5 0D       		.byte	0xd
 1843 07e6 8A       		.byte	0x8a
 1844 07e7 15050000 		.4byte	0x515
 1845 07eb 30       		.byte	0x30
 1846 07ec 07       		.uleb128 0x7
 1847 07ed 696200   		.ascii	"ib\000"
 1848 07f0 0D       		.byte	0xd
 1849 07f1 8A       		.byte	0x8a
 1850 07f2 CB080000 		.4byte	0x8cb
 1851 07f6 54       		.byte	0x54
 1852 07f7 07       		.uleb128 0x7
 1853 07f8 6F6200   		.ascii	"ob\000"
 1854 07fb 0D       		.byte	0xd
 1855 07fc 8A       		.byte	0x8a
 1856 07fd CB080000 		.4byte	0x8cb
 1857 0801 94       		.byte	0x94
 1858 0802 06       		.uleb128 0x6
 1859 0803 70010000 		.4byte	.LASF109
 1860 0807 0D       		.byte	0xd
 1861 0808 8A       		.byte	0x8a
 1862 0809 DB080000 		.4byte	0x8db
 1863 080d D4       		.byte	0xd4
 1864 080e 00       		.byte	0
 1865 080f 08       		.uleb128 0x8
 1866 0810 0C       		.byte	0xc
 1867 0811 0E       		.byte	0xe
 1868 0812 D7       		.byte	0xd7
 1869 0813 48080000 		.4byte	0x848
ARM GAS  /var/folders/6q/x_mk5n_j3p7_c40r_2k_78980000gn/T//cckhicoL.s 			page 34


 1870 0817 06       		.uleb128 0x6
 1871 0818 10030000 		.4byte	.LASF110
 1872 081c 0E       		.byte	0xe
 1873 081d DB       		.byte	0xdb
 1874 081e CA000000 		.4byte	0xca
 1875 0822 00       		.byte	0
 1876 0823 07       		.uleb128 0x7
 1877 0824 63723100 		.ascii	"cr1\000"
 1878 0828 0E       		.byte	0xe
 1879 0829 E0       		.byte	0xe0
 1880 082a B4000000 		.4byte	0xb4
 1881 082e 04       		.byte	0x4
 1882 082f 07       		.uleb128 0x7
 1883 0830 63723200 		.ascii	"cr2\000"
 1884 0834 0E       		.byte	0xe
 1885 0835 E4       		.byte	0xe4
 1886 0836 B4000000 		.4byte	0xb4
 1887 083a 06       		.byte	0x6
 1888 083b 07       		.uleb128 0x7
 1889 083c 63723300 		.ascii	"cr3\000"
 1890 0840 0E       		.byte	0xe
 1891 0841 E8       		.byte	0xe8
 1892 0842 B4000000 		.4byte	0xb4
 1893 0846 08       		.byte	0x8
 1894 0847 00       		.byte	0
 1895 0848 03       		.uleb128 0x3
 1896 0849 A7030000 		.4byte	.LASF111
 1897 084d 0E       		.byte	0xe
 1898 084e E9       		.byte	0xe9
 1899 084f 0F080000 		.4byte	0x80f
 1900 0853 05       		.uleb128 0x5
 1901 0854 8C010000 		.4byte	.LASF112
 1902 0858 20       		.byte	0x20
 1903 0859 0D       		.byte	0xd
 1904 085a 7C       		.byte	0x7c
 1905 085b C0080000 		.4byte	0x8c0
 1906 085f 06       		.uleb128 0x6
 1907 0860 3F030000 		.4byte	.LASF113
 1908 0864 0D       		.byte	0xd
 1909 0865 7D       		.byte	0x7d
 1910 0866 44050000 		.4byte	0x544
 1911 086a 00       		.byte	0
 1912 086b 06       		.uleb128 0x6
 1913 086c 2C050000 		.4byte	.LASF114
 1914 0870 0D       		.byte	0xd
 1915 0871 7D       		.byte	0x7d
 1916 0872 63050000 		.4byte	0x563
 1917 0876 04       		.byte	0x4
 1918 0877 07       		.uleb128 0x7
 1919 0878 70757400 		.ascii	"put\000"
 1920 087c 0D       		.byte	0xd
 1921 087d 7D       		.byte	0x7d
 1922 087e 7D050000 		.4byte	0x57d
 1923 0882 08       		.byte	0x8
 1924 0883 07       		.uleb128 0x7
 1925 0884 67657400 		.ascii	"get\000"
 1926 0888 0D       		.byte	0xd
ARM GAS  /var/folders/6q/x_mk5n_j3p7_c40r_2k_78980000gn/T//cckhicoL.s 			page 35


 1927 0889 7D       		.byte	0x7d
 1928 088a 55040000 		.4byte	0x455
 1929 088e 0C       		.byte	0xc
 1930 088f 06       		.uleb128 0x6
 1931 0890 45030000 		.4byte	.LASF115
 1932 0894 0D       		.byte	0xd
 1933 0895 7D       		.byte	0x7d
 1934 0896 07070000 		.4byte	0x707
 1935 089a 10       		.byte	0x10
 1936 089b 06       		.uleb128 0x6
 1937 089c BA010000 		.4byte	.LASF116
 1938 08a0 0D       		.byte	0xd
 1939 08a1 7D       		.byte	0x7d
 1940 08a2 21070000 		.4byte	0x721
 1941 08a6 14       		.byte	0x14
 1942 08a7 06       		.uleb128 0x6
 1943 08a8 E0020000 		.4byte	.LASF117
 1944 08ac 0D       		.byte	0xd
 1945 08ad 7D       		.byte	0x7d
 1946 08ae 45070000 		.4byte	0x745
 1947 08b2 18       		.byte	0x18
 1948 08b3 06       		.uleb128 0x6
 1949 08b4 79000000 		.4byte	.LASF118
 1950 08b8 0D       		.byte	0xd
 1951 08b9 7D       		.byte	0x7d
 1952 08ba 69070000 		.4byte	0x769
 1953 08be 1C       		.byte	0x1c
 1954 08bf 00       		.byte	0
 1955 08c0 09       		.uleb128 0x9
 1956 08c1 04       		.byte	0x4
 1957 08c2 C6080000 		.4byte	0x8c6
 1958 08c6 10       		.uleb128 0x10
 1959 08c7 53080000 		.4byte	0x853
 1960 08cb 19       		.uleb128 0x19
 1961 08cc A9000000 		.4byte	0xa9
 1962 08d0 DB080000 		.4byte	0x8db
 1963 08d4 1A       		.uleb128 0x1a
 1964 08d5 48030000 		.4byte	0x348
 1965 08d9 3F       		.byte	0x3f
 1966 08da 00       		.byte	0
 1967 08db 09       		.uleb128 0x9
 1968 08dc 04       		.byte	0x4
 1969 08dd E2060000 		.4byte	0x6e2
 1970 08e1 1B       		.uleb128 0x1b
 1971 08e2 4A030000 		.4byte	.LASF120
 1972 08e6 01       		.byte	0x1
 1973 08e7 5C       		.byte	0x5c
 1974 08e8 01       		.byte	0x1
 1975 08e9 0D090000 		.4byte	0x90d
 1976 08ed 1C       		.uleb128 0x1c
 1977 08ee 73647000 		.ascii	"sdp\000"
 1978 08f2 01       		.byte	0x1
 1979 08f3 5C       		.byte	0x5c
 1980 08f4 0D090000 		.4byte	0x90d
 1981 08f8 1D       		.uleb128 0x1d
 1982 08f9 46050000 		.4byte	.LASF119
 1983 08fd 01       		.byte	0x1
ARM GAS  /var/folders/6q/x_mk5n_j3p7_c40r_2k_78980000gn/T//cckhicoL.s 			page 36


 1984 08fe 5C       		.byte	0x5c
 1985 08ff 13090000 		.4byte	0x913
 1986 0903 1E       		.uleb128 0x1e
 1987 0904 7500     		.ascii	"u\000"
 1988 0906 01       		.byte	0x1
 1989 0907 5D       		.byte	0x5d
 1990 0908 DB080000 		.4byte	0x8db
 1991 090c 00       		.byte	0
 1992 090d 09       		.uleb128 0x9
 1993 090e 04       		.byte	0x4
 1994 090f 99070000 		.4byte	0x799
 1995 0913 09       		.uleb128 0x9
 1996 0914 04       		.byte	0x4
 1997 0915 19090000 		.4byte	0x919
 1998 0919 10       		.uleb128 0x10
 1999 091a 48080000 		.4byte	0x848
 2000 091e 1B       		.uleb128 0x1b
 2001 091f 57010000 		.4byte	.LASF121
 2002 0923 01       		.byte	0x1
 2003 0924 7A       		.byte	0x7a
 2004 0925 01       		.byte	0x1
 2005 0926 34090000 		.4byte	0x934
 2006 092a 1C       		.uleb128 0x1c
 2007 092b 7500     		.ascii	"u\000"
 2008 092d 01       		.byte	0x1
 2009 092e 7A       		.byte	0x7a
 2010 092f DB080000 		.4byte	0x8db
 2011 0933 00       		.byte	0
 2012 0934 1F       		.uleb128 0x1f
 2013 0935 B4030000 		.4byte	.LASF122
 2014 0939 01       		.byte	0x1
 2015 093a CB       		.byte	0xcb
 2016 093b 00000000 		.4byte	.LFB67
 2017 093f 14000000 		.4byte	.LFE67-.LFB67
 2018 0943 01       		.uleb128 0x1
 2019 0944 9C       		.byte	0x9c
 2020 0945 56090000 		.4byte	0x956
 2021 0949 20       		.uleb128 0x20
 2022 094a 717000   		.ascii	"qp\000"
 2023 094d 01       		.byte	0x1
 2024 094e CB       		.byte	0xcb
 2025 094f FE040000 		.4byte	0x4fe
 2026 0953 01       		.uleb128 0x1
 2027 0954 50       		.byte	0x50
 2028 0955 00       		.byte	0
 2029 0956 1F       		.uleb128 0x1f
 2030 0957 BC030000 		.4byte	.LASF123
 2031 095b 01       		.byte	0x1
 2032 095c D3       		.byte	0xd3
 2033 095d 00000000 		.4byte	.LFB68
 2034 0961 14000000 		.4byte	.LFE68-.LFB68
 2035 0965 01       		.uleb128 0x1
 2036 0966 9C       		.byte	0x9c
 2037 0967 78090000 		.4byte	0x978
 2038 096b 20       		.uleb128 0x20
 2039 096c 717000   		.ascii	"qp\000"
 2040 096f 01       		.byte	0x1
ARM GAS  /var/folders/6q/x_mk5n_j3p7_c40r_2k_78980000gn/T//cckhicoL.s 			page 37


 2041 0970 D3       		.byte	0xd3
 2042 0971 FE040000 		.4byte	0x4fe
 2043 0975 01       		.uleb128 0x1
 2044 0976 50       		.byte	0x50
 2045 0977 00       		.byte	0
 2046 0978 1F       		.uleb128 0x1f
 2047 0979 C4030000 		.4byte	.LASF124
 2048 097d 01       		.byte	0x1
 2049 097e DB       		.byte	0xdb
 2050 097f 00000000 		.4byte	.LFB69
 2051 0983 14000000 		.4byte	.LFE69-.LFB69
 2052 0987 01       		.uleb128 0x1
 2053 0988 9C       		.byte	0x9c
 2054 0989 9A090000 		.4byte	0x99a
 2055 098d 20       		.uleb128 0x20
 2056 098e 717000   		.ascii	"qp\000"
 2057 0991 01       		.byte	0x1
 2058 0992 DB       		.byte	0xdb
 2059 0993 FE040000 		.4byte	0x4fe
 2060 0997 01       		.uleb128 0x1
 2061 0998 50       		.byte	0x50
 2062 0999 00       		.byte	0
 2063 099a 1B       		.uleb128 0x1b
 2064 099b 35000000 		.4byte	.LASF125
 2065 099f 01       		.byte	0x1
 2066 09a0 87       		.byte	0x87
 2067 09a1 01       		.byte	0x1
 2068 09a2 C7090000 		.4byte	0x9c7
 2069 09a6 1C       		.uleb128 0x1c
 2070 09a7 73647000 		.ascii	"sdp\000"
 2071 09ab 01       		.byte	0x1
 2072 09ac 87       		.byte	0x87
 2073 09ad 0D090000 		.4byte	0x90d
 2074 09b1 1C       		.uleb128 0x1c
 2075 09b2 737200   		.ascii	"sr\000"
 2076 09b5 01       		.byte	0x1
 2077 09b6 87       		.byte	0x87
 2078 09b7 B4000000 		.4byte	0xb4
 2079 09bb 1E       		.uleb128 0x1e
 2080 09bc 73747300 		.ascii	"sts\000"
 2081 09c0 01       		.byte	0x1
 2082 09c1 88       		.byte	0x88
 2083 09c2 29010000 		.4byte	0x129
 2084 09c6 00       		.byte	0
 2085 09c7 1F       		.uleb128 0x1f
 2086 09c8 B9040000 		.4byte	.LASF126
 2087 09cc 01       		.byte	0x1
 2088 09cd 9A       		.byte	0x9a
 2089 09ce 00000000 		.4byte	.LFB66
 2090 09d2 F0000000 		.4byte	.LFE66-.LFB66
 2091 09d6 01       		.uleb128 0x1
 2092 09d7 9C       		.byte	0x9c
 2093 09d8 B50B0000 		.4byte	0xbb5
 2094 09dc 21       		.uleb128 0x21
 2095 09dd 73647000 		.ascii	"sdp\000"
 2096 09e1 01       		.byte	0x1
 2097 09e2 9A       		.byte	0x9a
ARM GAS  /var/folders/6q/x_mk5n_j3p7_c40r_2k_78980000gn/T//cckhicoL.s 			page 38


 2098 09e3 0D090000 		.4byte	0x90d
 2099 09e7 00000000 		.4byte	.LLST0
 2100 09eb 22       		.uleb128 0x22
 2101 09ec 7500     		.ascii	"u\000"
 2102 09ee 01       		.byte	0x1
 2103 09ef 9B       		.byte	0x9b
 2104 09f0 DB080000 		.4byte	0x8db
 2105 09f4 01       		.uleb128 0x1
 2106 09f5 55       		.byte	0x55
 2107 09f6 23       		.uleb128 0x23
 2108 09f7 63723100 		.ascii	"cr1\000"
 2109 09fb 01       		.byte	0x1
 2110 09fc 9C       		.byte	0x9c
 2111 09fd B4000000 		.4byte	0xb4
 2112 0a01 34000000 		.4byte	.LLST1
 2113 0a05 23       		.uleb128 0x23
 2114 0a06 737200   		.ascii	"sr\000"
 2115 0a09 01       		.byte	0x1
 2116 0a0a 9D       		.byte	0x9d
 2117 0a0b B4000000 		.4byte	0xb4
 2118 0a0f 52000000 		.4byte	.LLST2
 2119 0a13 24       		.uleb128 0x24
 2120 0a14 16000000 		.4byte	.LBB17
 2121 0a18 06000000 		.4byte	.LBE17-.LBB17
 2122 0a1c 2E0A0000 		.4byte	0xa2e
 2123 0a20 22       		.uleb128 0x22
 2124 0a21 746D7000 		.ascii	"tmp\000"
 2125 0a25 01       		.byte	0x1
 2126 0a26 A8       		.byte	0xa8
 2127 0a27 CA000000 		.4byte	0xca
 2128 0a2b 01       		.uleb128 0x1
 2129 0a2c 53       		.byte	0x53
 2130 0a2d 00       		.byte	0
 2131 0a2e 25       		.uleb128 0x25
 2132 0a2f 9A090000 		.4byte	0x99a
 2133 0a33 20000000 		.4byte	.LBB18
 2134 0a37 00000000 		.4byte	.Ldebug_ranges0+0
 2135 0a3b 01       		.byte	0x1
 2136 0a3c AC       		.byte	0xac
 2137 0a3d 6F0A0000 		.4byte	0xa6f
 2138 0a41 26       		.uleb128 0x26
 2139 0a42 B1090000 		.4byte	0x9b1
 2140 0a46 7B000000 		.4byte	.LLST3
 2141 0a4a 27       		.uleb128 0x27
 2142 0a4b A6090000 		.4byte	0x9a6
 2143 0a4f 28       		.uleb128 0x28
 2144 0a50 00000000 		.4byte	.Ldebug_ranges0+0
 2145 0a54 29       		.uleb128 0x29
 2146 0a55 BB090000 		.4byte	0x9bb
 2147 0a59 8E000000 		.4byte	.LLST4
 2148 0a5d 2A       		.uleb128 0x2a
 2149 0a5e 66000000 		.4byte	.LVL17
 2150 0a62 5B0E0000 		.4byte	0xe5b
 2151 0a66 2B       		.uleb128 0x2b
 2152 0a67 01       		.uleb128 0x1
 2153 0a68 50       		.byte	0x50
 2154 0a69 02       		.uleb128 0x2
ARM GAS  /var/folders/6q/x_mk5n_j3p7_c40r_2k_78980000gn/T//cckhicoL.s 			page 39


 2155 0a6a 78       		.byte	0x78
 2156 0a6b 00       		.sleb128 0
 2157 0a6c 00       		.byte	0
 2158 0a6d 00       		.byte	0
 2159 0a6e 00       		.byte	0
 2160 0a6f 24       		.uleb128 0x24
 2161 0a70 68000000 		.4byte	.LBB22
 2162 0a74 06000000 		.4byte	.LBE22-.LBB22
 2163 0a78 8A0A0000 		.4byte	0xa8a
 2164 0a7c 22       		.uleb128 0x22
 2165 0a7d 746D7000 		.ascii	"tmp\000"
 2166 0a81 01       		.byte	0x1
 2167 0a82 B0       		.byte	0xb0
 2168 0a83 CA000000 		.4byte	0xca
 2169 0a87 01       		.uleb128 0x1
 2170 0a88 53       		.byte	0x53
 2171 0a89 00       		.byte	0
 2172 0a8a 24       		.uleb128 0x24
 2173 0a8b 7A000000 		.4byte	.LBB23
 2174 0a8f 06000000 		.4byte	.LBE23-.LBB23
 2175 0a93 A50A0000 		.4byte	0xaa5
 2176 0a97 22       		.uleb128 0x22
 2177 0a98 746D7000 		.ascii	"tmp\000"
 2178 0a9c 01       		.byte	0x1
 2179 0a9d C2       		.byte	0xc2
 2180 0a9e CA000000 		.4byte	0xca
 2181 0aa2 01       		.uleb128 0x1
 2182 0aa3 53       		.byte	0x53
 2183 0aa4 00       		.byte	0
 2184 0aa5 24       		.uleb128 0x24
 2185 0aa6 88000000 		.4byte	.LBB24
 2186 0aaa 06000000 		.4byte	.LBE24-.LBB24
 2187 0aae C00A0000 		.4byte	0xac0
 2188 0ab2 22       		.uleb128 0x22
 2189 0ab3 746D7000 		.ascii	"tmp\000"
 2190 0ab7 01       		.byte	0x1
 2191 0ab8 C4       		.byte	0xc4
 2192 0ab9 CA000000 		.4byte	0xca
 2193 0abd 01       		.uleb128 0x1
 2194 0abe 53       		.byte	0x53
 2195 0abf 00       		.byte	0
 2196 0ac0 24       		.uleb128 0x24
 2197 0ac1 A0000000 		.4byte	.LBB25
 2198 0ac5 06000000 		.4byte	.LBE25-.LBB25
 2199 0ac9 DB0A0000 		.4byte	0xadb
 2200 0acd 22       		.uleb128 0x22
 2201 0ace 746D7000 		.ascii	"tmp\000"
 2202 0ad2 01       		.byte	0x1
 2203 0ad3 A1       		.byte	0xa1
 2204 0ad4 CA000000 		.4byte	0xca
 2205 0ad8 01       		.uleb128 0x1
 2206 0ad9 53       		.byte	0x53
 2207 0ada 00       		.byte	0
 2208 0adb 24       		.uleb128 0x24
 2209 0adc B0000000 		.4byte	.LBB26
 2210 0ae0 06000000 		.4byte	.LBE26-.LBB26
 2211 0ae4 F60A0000 		.4byte	0xaf6
ARM GAS  /var/folders/6q/x_mk5n_j3p7_c40r_2k_78980000gn/T//cckhicoL.s 			page 40


 2212 0ae8 22       		.uleb128 0x22
 2213 0ae9 746D7000 		.ascii	"tmp\000"
 2214 0aed 01       		.byte	0x1
 2215 0aee A3       		.byte	0xa3
 2216 0aef CA000000 		.4byte	0xca
 2217 0af3 01       		.uleb128 0x1
 2218 0af4 53       		.byte	0x53
 2219 0af5 00       		.byte	0
 2220 0af6 24       		.uleb128 0x24
 2221 0af7 BE000000 		.4byte	.LBB27
 2222 0afb 32000000 		.4byte	.LBE27-.LBB27
 2223 0aff 700B0000 		.4byte	0xb70
 2224 0b03 23       		.uleb128 0x23
 2225 0b04 6200     		.ascii	"b\000"
 2226 0b06 01       		.byte	0x1
 2227 0b07 B4       		.byte	0xb4
 2228 0b08 13010000 		.4byte	0x113
 2229 0b0c AD000000 		.4byte	.LLST5
 2230 0b10 24       		.uleb128 0x24
 2231 0b11 BE000000 		.4byte	.LBB28
 2232 0b15 06000000 		.4byte	.LBE28-.LBB28
 2233 0b19 2B0B0000 		.4byte	0xb2b
 2234 0b1d 22       		.uleb128 0x22
 2235 0b1e 746D7000 		.ascii	"tmp\000"
 2236 0b22 01       		.byte	0x1
 2237 0b23 B5       		.byte	0xb5
 2238 0b24 CA000000 		.4byte	0xca
 2239 0b28 01       		.uleb128 0x1
 2240 0b29 53       		.byte	0x53
 2241 0b2a 00       		.byte	0
 2242 0b2b 24       		.uleb128 0x24
 2243 0b2c D4000000 		.4byte	.LBB29
 2244 0b30 08000000 		.4byte	.LBE29-.LBB29
 2245 0b34 460B0000 		.4byte	0xb46
 2246 0b38 22       		.uleb128 0x22
 2247 0b39 746D7000 		.ascii	"tmp\000"
 2248 0b3d 01       		.byte	0x1
 2249 0b3e BD       		.byte	0xbd
 2250 0b3f CA000000 		.4byte	0xca
 2251 0b43 01       		.uleb128 0x1
 2252 0b44 53       		.byte	0x53
 2253 0b45 00       		.byte	0
 2254 0b46 2C       		.uleb128 0x2c
 2255 0b47 CC000000 		.4byte	.LVL24
 2256 0b4b 660E0000 		.4byte	0xe66
 2257 0b4f 5A0B0000 		.4byte	0xb5a
 2258 0b53 2B       		.uleb128 0x2b
 2259 0b54 01       		.uleb128 0x1
 2260 0b55 50       		.byte	0x50
 2261 0b56 02       		.uleb128 0x2
 2262 0b57 76       		.byte	0x76
 2263 0b58 30       		.sleb128 48
 2264 0b59 00       		.byte	0
 2265 0b5a 2A       		.uleb128 0x2a
 2266 0b5b E4000000 		.4byte	.LVL28
 2267 0b5f 5B0E0000 		.4byte	0xe5b
 2268 0b63 2B       		.uleb128 0x2b
ARM GAS  /var/folders/6q/x_mk5n_j3p7_c40r_2k_78980000gn/T//cckhicoL.s 			page 41


 2269 0b64 01       		.uleb128 0x1
 2270 0b65 50       		.byte	0x50
 2271 0b66 02       		.uleb128 0x2
 2272 0b67 76       		.byte	0x76
 2273 0b68 04       		.sleb128 4
 2274 0b69 2B       		.uleb128 0x2b
 2275 0b6a 01       		.uleb128 0x1
 2276 0b6b 51       		.byte	0x51
 2277 0b6c 01       		.uleb128 0x1
 2278 0b6d 38       		.byte	0x38
 2279 0b6e 00       		.byte	0
 2280 0b6f 00       		.byte	0
 2281 0b70 2C       		.uleb128 0x2c
 2282 0b71 30000000 		.4byte	.LVL9
 2283 0b75 720E0000 		.4byte	0xe72
 2284 0b79 840B0000 		.4byte	0xb84
 2285 0b7d 2B       		.uleb128 0x2b
 2286 0b7e 01       		.uleb128 0x1
 2287 0b7f 50       		.byte	0x50
 2288 0b80 02       		.uleb128 0x2
 2289 0b81 76       		.byte	0x76
 2290 0b82 00       		.sleb128 0
 2291 0b83 00       		.byte	0
 2292 0b84 2C       		.uleb128 0x2c
 2293 0b85 88000000 		.4byte	.LVL19
 2294 0b89 5B0E0000 		.4byte	0xe5b
 2295 0b8d 9D0B0000 		.4byte	0xb9d
 2296 0b91 2B       		.uleb128 0x2b
 2297 0b92 01       		.uleb128 0x1
 2298 0b93 50       		.byte	0x50
 2299 0b94 02       		.uleb128 0x2
 2300 0b95 76       		.byte	0x76
 2301 0b96 04       		.sleb128 4
 2302 0b97 2B       		.uleb128 0x2b
 2303 0b98 01       		.uleb128 0x1
 2304 0b99 51       		.byte	0x51
 2305 0b9a 01       		.uleb128 0x1
 2306 0b9b 40       		.byte	0x40
 2307 0b9c 00       		.byte	0
 2308 0b9d 2A       		.uleb128 0x2a
 2309 0b9e B0000000 		.4byte	.LVL23
 2310 0ba2 5B0E0000 		.4byte	0xe5b
 2311 0ba6 2B       		.uleb128 0x2b
 2312 0ba7 01       		.uleb128 0x1
 2313 0ba8 50       		.byte	0x50
 2314 0ba9 02       		.uleb128 0x2
 2315 0baa 76       		.byte	0x76
 2316 0bab 04       		.sleb128 4
 2317 0bac 2B       		.uleb128 0x2b
 2318 0bad 01       		.uleb128 0x1
 2319 0bae 51       		.byte	0x51
 2320 0baf 03       		.uleb128 0x3
 2321 0bb0 0A       		.byte	0xa
 2322 0bb1 0002     		.2byte	0x200
 2323 0bb3 00       		.byte	0
 2324 0bb4 00       		.byte	0
 2325 0bb5 2D       		.uleb128 0x2d
ARM GAS  /var/folders/6q/x_mk5n_j3p7_c40r_2k_78980000gn/T//cckhicoL.s 			page 42


 2326 0bb6 07030000 		.4byte	.LASF127
 2327 0bba 01       		.byte	0x1
 2328 0bbb 0701     		.2byte	0x107
 2329 0bbd 00000000 		.4byte	.LFB70
 2330 0bc1 14000000 		.4byte	.LFE70-.LFB70
 2331 0bc5 01       		.uleb128 0x1
 2332 0bc6 9C       		.byte	0x9c
 2333 0bc7 EC0B0000 		.4byte	0xbec
 2334 0bcb 2C       		.uleb128 0x2c
 2335 0bcc 08000000 		.4byte	.LVL29
 2336 0bd0 C7090000 		.4byte	0x9c7
 2337 0bd4 E20B0000 		.4byte	0xbe2
 2338 0bd8 2B       		.uleb128 0x2b
 2339 0bd9 01       		.uleb128 0x1
 2340 0bda 50       		.byte	0x50
 2341 0bdb 05       		.uleb128 0x5
 2342 0bdc 03       		.byte	0x3
 2343 0bdd 00000000 		.4byte	.LANCHOR0
 2344 0be1 00       		.byte	0
 2345 0be2 2E       		.uleb128 0x2e
 2346 0be3 10000000 		.4byte	.LVL30
 2347 0be7 7E0E0000 		.4byte	0xe7e
 2348 0beb 00       		.byte	0
 2349 0bec 2D       		.uleb128 0x2d
 2350 0bed 16030000 		.4byte	.LASF128
 2351 0bf1 01       		.byte	0x1
 2352 0bf2 1A01     		.2byte	0x11a
 2353 0bf4 00000000 		.4byte	.LFB71
 2354 0bf8 14000000 		.4byte	.LFE71-.LFB71
 2355 0bfc 01       		.uleb128 0x1
 2356 0bfd 9C       		.byte	0x9c
 2357 0bfe 230C0000 		.4byte	0xc23
 2358 0c02 2C       		.uleb128 0x2c
 2359 0c03 08000000 		.4byte	.LVL31
 2360 0c07 C7090000 		.4byte	0x9c7
 2361 0c0b 190C0000 		.4byte	0xc19
 2362 0c0f 2B       		.uleb128 0x2b
 2363 0c10 01       		.uleb128 0x1
 2364 0c11 50       		.byte	0x50
 2365 0c12 05       		.uleb128 0x5
 2366 0c13 03       		.byte	0x3
 2367 0c14 00000000 		.4byte	.LANCHOR1
 2368 0c18 00       		.byte	0
 2369 0c19 2E       		.uleb128 0x2e
 2370 0c1a 10000000 		.4byte	.LVL32
 2371 0c1e 7E0E0000 		.4byte	0xe7e
 2372 0c22 00       		.byte	0
 2373 0c23 2D       		.uleb128 0x2d
 2374 0c24 36030000 		.4byte	.LASF129
 2375 0c28 01       		.byte	0x1
 2376 0c29 2D01     		.2byte	0x12d
 2377 0c2b 00000000 		.4byte	.LFB72
 2378 0c2f 14000000 		.4byte	.LFE72-.LFB72
 2379 0c33 01       		.uleb128 0x1
 2380 0c34 9C       		.byte	0x9c
 2381 0c35 5A0C0000 		.4byte	0xc5a
 2382 0c39 2C       		.uleb128 0x2c
ARM GAS  /var/folders/6q/x_mk5n_j3p7_c40r_2k_78980000gn/T//cckhicoL.s 			page 43


 2383 0c3a 08000000 		.4byte	.LVL33
 2384 0c3e C7090000 		.4byte	0x9c7
 2385 0c42 500C0000 		.4byte	0xc50
 2386 0c46 2B       		.uleb128 0x2b
 2387 0c47 01       		.uleb128 0x1
 2388 0c48 50       		.byte	0x50
 2389 0c49 05       		.uleb128 0x5
 2390 0c4a 03       		.byte	0x3
 2391 0c4b 00000000 		.4byte	.LANCHOR2
 2392 0c4f 00       		.byte	0
 2393 0c50 2E       		.uleb128 0x2e
 2394 0c51 10000000 		.4byte	.LVL34
 2395 0c55 7E0E0000 		.4byte	0xe7e
 2396 0c59 00       		.byte	0
 2397 0c5a 2D       		.uleb128 0x2d
 2398 0c5b AE010000 		.4byte	.LASF130
 2399 0c5f 01       		.byte	0x1
 2400 0c60 7901     		.2byte	0x179
 2401 0c62 00000000 		.4byte	.LFB73
 2402 0c66 60000000 		.4byte	.LFE73-.LFB73
 2403 0c6a 01       		.uleb128 0x1
 2404 0c6b 9C       		.byte	0x9c
 2405 0c6c D30C0000 		.4byte	0xcd3
 2406 0c70 2C       		.uleb128 0x2c
 2407 0c71 10000000 		.4byte	.LVL35
 2408 0c75 8A0E0000 		.4byte	0xe8a
 2409 0c79 920C0000 		.4byte	0xc92
 2410 0c7d 2B       		.uleb128 0x2b
 2411 0c7e 01       		.uleb128 0x1
 2412 0c7f 50       		.byte	0x50
 2413 0c80 02       		.uleb128 0x2
 2414 0c81 76       		.byte	0x76
 2415 0c82 00       		.sleb128 0
 2416 0c83 2B       		.uleb128 0x2b
 2417 0c84 01       		.uleb128 0x1
 2418 0c85 51       		.byte	0x51
 2419 0c86 01       		.uleb128 0x1
 2420 0c87 30       		.byte	0x30
 2421 0c88 2B       		.uleb128 0x2b
 2422 0c89 01       		.uleb128 0x1
 2423 0c8a 52       		.byte	0x52
 2424 0c8b 05       		.uleb128 0x5
 2425 0c8c 03       		.byte	0x3
 2426 0c8d 00000000 		.4byte	notify1
 2427 0c91 00       		.byte	0
 2428 0c92 2C       		.uleb128 0x2c
 2429 0c93 22000000 		.4byte	.LVL36
 2430 0c97 8A0E0000 		.4byte	0xe8a
 2431 0c9b B40C0000 		.4byte	0xcb4
 2432 0c9f 2B       		.uleb128 0x2b
 2433 0ca0 01       		.uleb128 0x1
 2434 0ca1 50       		.byte	0x50
 2435 0ca2 02       		.uleb128 0x2
 2436 0ca3 75       		.byte	0x75
 2437 0ca4 00       		.sleb128 0
 2438 0ca5 2B       		.uleb128 0x2b
 2439 0ca6 01       		.uleb128 0x1
ARM GAS  /var/folders/6q/x_mk5n_j3p7_c40r_2k_78980000gn/T//cckhicoL.s 			page 44


 2440 0ca7 51       		.byte	0x51
 2441 0ca8 01       		.uleb128 0x1
 2442 0ca9 30       		.byte	0x30
 2443 0caa 2B       		.uleb128 0x2b
 2444 0cab 01       		.uleb128 0x1
 2445 0cac 52       		.byte	0x52
 2446 0cad 05       		.uleb128 0x5
 2447 0cae 03       		.byte	0x3
 2448 0caf 00000000 		.4byte	notify2
 2449 0cb3 00       		.byte	0
 2450 0cb4 2A       		.uleb128 0x2a
 2451 0cb5 32000000 		.4byte	.LVL37
 2452 0cb9 8A0E0000 		.4byte	0xe8a
 2453 0cbd 2B       		.uleb128 0x2b
 2454 0cbe 01       		.uleb128 0x1
 2455 0cbf 50       		.byte	0x50
 2456 0cc0 02       		.uleb128 0x2
 2457 0cc1 74       		.byte	0x74
 2458 0cc2 00       		.sleb128 0
 2459 0cc3 2B       		.uleb128 0x2b
 2460 0cc4 01       		.uleb128 0x1
 2461 0cc5 51       		.byte	0x51
 2462 0cc6 01       		.uleb128 0x1
 2463 0cc7 30       		.byte	0x30
 2464 0cc8 2B       		.uleb128 0x2b
 2465 0cc9 01       		.uleb128 0x1
 2466 0cca 52       		.byte	0x52
 2467 0ccb 05       		.uleb128 0x5
 2468 0ccc 03       		.byte	0x3
 2469 0ccd 00000000 		.4byte	notify3
 2470 0cd1 00       		.byte	0
 2471 0cd2 00       		.byte	0
 2472 0cd3 2D       		.uleb128 0x2d
 2473 0cd4 43040000 		.4byte	.LASF131
 2474 0cd8 01       		.byte	0x1
 2475 0cd9 A401     		.2byte	0x1a4
 2476 0cdb 00000000 		.4byte	.LFB74
 2477 0cdf C4000000 		.4byte	.LFE74-.LFB74
 2478 0ce3 01       		.uleb128 0x1
 2479 0ce4 9C       		.byte	0x9c
 2480 0ce5 8E0D0000 		.4byte	0xd8e
 2481 0ce9 2F       		.uleb128 0x2f
 2482 0cea 73647000 		.ascii	"sdp\000"
 2483 0cee 01       		.byte	0x1
 2484 0cef A401     		.2byte	0x1a4
 2485 0cf1 0D090000 		.4byte	0x90d
 2486 0cf5 CB000000 		.4byte	.LLST6
 2487 0cf9 30       		.uleb128 0x30
 2488 0cfa 46050000 		.4byte	.LASF119
 2489 0cfe 01       		.byte	0x1
 2490 0cff A401     		.2byte	0x1a4
 2491 0d01 13090000 		.4byte	0x913
 2492 0d05 2B010000 		.4byte	.LLST7
 2493 0d09 31       		.uleb128 0x31
 2494 0d0a E1080000 		.4byte	0x8e1
 2495 0d0e 16000000 		.4byte	.LBB30
 2496 0d12 40000000 		.4byte	.LBE30-.LBB30
ARM GAS  /var/folders/6q/x_mk5n_j3p7_c40r_2k_78980000gn/T//cckhicoL.s 			page 45


 2497 0d16 01       		.byte	0x1
 2498 0d17 D501     		.2byte	0x1d5
 2499 0d19 430D0000 		.4byte	0xd43
 2500 0d1d 26       		.uleb128 0x26
 2501 0d1e ED080000 		.4byte	0x8ed
 2502 0d22 71010000 		.4byte	.LLST8
 2503 0d26 26       		.uleb128 0x26
 2504 0d27 F8080000 		.4byte	0x8f8
 2505 0d2b 84010000 		.4byte	.LLST9
 2506 0d2f 32       		.uleb128 0x32
 2507 0d30 16000000 		.4byte	.LBB31
 2508 0d34 40000000 		.4byte	.LBE31-.LBB31
 2509 0d38 29       		.uleb128 0x29
 2510 0d39 03090000 		.4byte	0x903
 2511 0d3d B4010000 		.4byte	.LLST10
 2512 0d41 00       		.byte	0
 2513 0d42 00       		.byte	0
 2514 0d43 2C       		.uleb128 0x2c
 2515 0d44 7A000000 		.4byte	.LVL46
 2516 0d48 960E0000 		.4byte	0xe96
 2517 0d4c 5D0D0000 		.4byte	0xd5d
 2518 0d50 2B       		.uleb128 0x2b
 2519 0d51 01       		.uleb128 0x1
 2520 0d52 50       		.byte	0x50
 2521 0d53 02       		.uleb128 0x2
 2522 0d54 08       		.byte	0x8
 2523 0d55 27       		.byte	0x27
 2524 0d56 2B       		.uleb128 0x2b
 2525 0d57 01       		.uleb128 0x1
 2526 0d58 51       		.byte	0x51
 2527 0d59 02       		.uleb128 0x2
 2528 0d5a 08       		.byte	0x8
 2529 0d5b C0       		.byte	0xc0
 2530 0d5c 00       		.byte	0
 2531 0d5d 2C       		.uleb128 0x2c
 2532 0d5e 8E000000 		.4byte	.LVL49
 2533 0d62 960E0000 		.4byte	0xe96
 2534 0d66 770D0000 		.4byte	0xd77
 2535 0d6a 2B       		.uleb128 0x2b
 2536 0d6b 01       		.uleb128 0x1
 2537 0d6c 50       		.byte	0x50
 2538 0d6d 02       		.uleb128 0x2
 2539 0d6e 08       		.byte	0x8
 2540 0d6f 25       		.byte	0x25
 2541 0d70 2B       		.uleb128 0x2b
 2542 0d71 01       		.uleb128 0x1
 2543 0d72 51       		.byte	0x51
 2544 0d73 02       		.uleb128 0x2
 2545 0d74 08       		.byte	0x8
 2546 0d75 C0       		.byte	0xc0
 2547 0d76 00       		.byte	0
 2548 0d77 2A       		.uleb128 0x2a
 2549 0d78 A2000000 		.4byte	.LVL52
 2550 0d7c 960E0000 		.4byte	0xe96
 2551 0d80 2B       		.uleb128 0x2b
 2552 0d81 01       		.uleb128 0x1
 2553 0d82 50       		.byte	0x50
ARM GAS  /var/folders/6q/x_mk5n_j3p7_c40r_2k_78980000gn/T//cckhicoL.s 			page 46


 2554 0d83 02       		.uleb128 0x2
 2555 0d84 08       		.byte	0x8
 2556 0d85 26       		.byte	0x26
 2557 0d86 2B       		.uleb128 0x2b
 2558 0d87 01       		.uleb128 0x1
 2559 0d88 51       		.byte	0x51
 2560 0d89 02       		.uleb128 0x2
 2561 0d8a 08       		.byte	0x8
 2562 0d8b C0       		.byte	0xc0
 2563 0d8c 00       		.byte	0
 2564 0d8d 00       		.byte	0
 2565 0d8e 2D       		.uleb128 0x2d
 2566 0d8f 60060000 		.4byte	.LASF132
 2567 0d93 01       		.byte	0x1
 2568 0d94 E101     		.2byte	0x1e1
 2569 0d96 00000000 		.4byte	.LFB75
 2570 0d9a 6C000000 		.4byte	.LFE75-.LFB75
 2571 0d9e 01       		.uleb128 0x1
 2572 0d9f 9C       		.byte	0x9c
 2573 0da0 0B0E0000 		.4byte	0xe0b
 2574 0da4 2F       		.uleb128 0x2f
 2575 0da5 73647000 		.ascii	"sdp\000"
 2576 0da9 01       		.byte	0x1
 2577 0daa E101     		.2byte	0x1e1
 2578 0dac 0D090000 		.4byte	0x90d
 2579 0db0 C7010000 		.4byte	.LLST11
 2580 0db4 33       		.uleb128 0x33
 2581 0db5 1E090000 		.4byte	0x91e
 2582 0db9 0E000000 		.4byte	.LBB32
 2583 0dbd 18000000 		.4byte	.Ldebug_ranges0+0x18
 2584 0dc1 01       		.byte	0x1
 2585 0dc2 E401     		.2byte	0x1e4
 2586 0dc4 D20D0000 		.4byte	0xdd2
 2587 0dc8 26       		.uleb128 0x26
 2588 0dc9 2A090000 		.4byte	0x92a
 2589 0dcd 1A020000 		.4byte	.LLST12
 2590 0dd1 00       		.byte	0
 2591 0dd2 34       		.uleb128 0x34
 2592 0dd3 36000000 		.4byte	.LVL57
 2593 0dd7 A20E0000 		.4byte	0xea2
 2594 0ddb E60D0000 		.4byte	0xde6
 2595 0ddf 2B       		.uleb128 0x2b
 2596 0de0 01       		.uleb128 0x1
 2597 0de1 50       		.byte	0x50
 2598 0de2 02       		.uleb128 0x2
 2599 0de3 08       		.byte	0x8
 2600 0de4 27       		.byte	0x27
 2601 0de5 00       		.byte	0
 2602 0de6 34       		.uleb128 0x34
 2603 0de7 4C000000 		.4byte	.LVL59
 2604 0deb A20E0000 		.4byte	0xea2
 2605 0def FA0D0000 		.4byte	0xdfa
 2606 0df3 2B       		.uleb128 0x2b
 2607 0df4 01       		.uleb128 0x1
 2608 0df5 50       		.byte	0x50
 2609 0df6 02       		.uleb128 0x2
 2610 0df7 08       		.byte	0x8
ARM GAS  /var/folders/6q/x_mk5n_j3p7_c40r_2k_78980000gn/T//cckhicoL.s 			page 47


 2611 0df8 25       		.byte	0x25
 2612 0df9 00       		.byte	0
 2613 0dfa 35       		.uleb128 0x35
 2614 0dfb 5C000000 		.4byte	.LVL61
 2615 0dff A20E0000 		.4byte	0xea2
 2616 0e03 2B       		.uleb128 0x2b
 2617 0e04 01       		.uleb128 0x1
 2618 0e05 50       		.byte	0x50
 2619 0e06 02       		.uleb128 0x2
 2620 0e07 08       		.byte	0x8
 2621 0e08 26       		.byte	0x26
 2622 0e09 00       		.byte	0
 2623 0e0a 00       		.byte	0
 2624 0e0b 36       		.uleb128 0x36
 2625 0e0c CE000000 		.4byte	.LASF133
 2626 0e10 01       		.byte	0x1
 2627 0e11 49       		.byte	0x49
 2628 0e12 19090000 		.4byte	0x919
 2629 0e16 05       		.uleb128 0x5
 2630 0e17 03       		.byte	0x3
 2631 0e18 00000000 		.4byte	default_config
 2632 0e1c 37       		.uleb128 0x37
 2633 0e1d 5F000000 		.4byte	.LASF134
 2634 0e21 10       		.byte	0x10
 2635 0e22 0706     		.2byte	0x607
 2636 0e24 88050000 		.4byte	0x588
 2637 0e28 38       		.uleb128 0x38
 2638 0e29 53443100 		.ascii	"SD1\000"
 2639 0e2d 01       		.byte	0x1
 2640 0e2e 28       		.byte	0x28
 2641 0e2f 99070000 		.4byte	0x799
 2642 0e33 05       		.uleb128 0x5
 2643 0e34 03       		.byte	0x3
 2644 0e35 00000000 		.4byte	SD1
 2645 0e39 38       		.uleb128 0x38
 2646 0e3a 53443200 		.ascii	"SD2\000"
 2647 0e3e 01       		.byte	0x1
 2648 0e3f 2D       		.byte	0x2d
 2649 0e40 99070000 		.4byte	0x799
 2650 0e44 05       		.uleb128 0x5
 2651 0e45 03       		.byte	0x3
 2652 0e46 00000000 		.4byte	SD2
 2653 0e4a 38       		.uleb128 0x38
 2654 0e4b 53443300 		.ascii	"SD3\000"
 2655 0e4f 01       		.byte	0x1
 2656 0e50 32       		.byte	0x32
 2657 0e51 99070000 		.4byte	0x799
 2658 0e55 05       		.uleb128 0x5
 2659 0e56 03       		.byte	0x3
 2660 0e57 00000000 		.4byte	SD3
 2661 0e5b 39       		.uleb128 0x39
 2662 0e5c 26010000 		.4byte	.LASF135
 2663 0e60 26010000 		.4byte	.LASF135
 2664 0e64 0A       		.byte	0xa
 2665 0e65 BA       		.byte	0xba
 2666 0e66 3A       		.uleb128 0x3a
 2667 0e67 FE000000 		.4byte	.LASF136
ARM GAS  /var/folders/6q/x_mk5n_j3p7_c40r_2k_78980000gn/T//cckhicoL.s 			page 48


 2668 0e6b FE000000 		.4byte	.LASF136
 2669 0e6f 0B       		.byte	0xb
 2670 0e70 6E01     		.2byte	0x16e
 2671 0e72 3A       		.uleb128 0x3a
 2672 0e73 36050000 		.4byte	.LASF137
 2673 0e77 36050000 		.4byte	.LASF137
 2674 0e7b 0D       		.byte	0xd
 2675 0e7c 3901     		.2byte	0x139
 2676 0e7e 3A       		.uleb128 0x3a
 2677 0e7f BF020000 		.4byte	.LASF138
 2678 0e83 BF020000 		.4byte	.LASF138
 2679 0e87 08       		.byte	0x8
 2680 0e88 0302     		.2byte	0x203
 2681 0e8a 3A       		.uleb128 0x3a
 2682 0e8b 6C000000 		.4byte	.LASF139
 2683 0e8f 6C000000 		.4byte	.LASF139
 2684 0e93 0D       		.byte	0xd
 2685 0e94 3601     		.2byte	0x136
 2686 0e96 3A       		.uleb128 0x3a
 2687 0e97 00000000 		.4byte	.LASF140
 2688 0e9b 00000000 		.4byte	.LASF140
 2689 0e9f 0F       		.byte	0xf
 2690 0ea0 2301     		.2byte	0x123
 2691 0ea2 3A       		.uleb128 0x3a
 2692 0ea3 08050000 		.4byte	.LASF141
 2693 0ea7 08050000 		.4byte	.LASF141
 2694 0eab 0F       		.byte	0xf
 2695 0eac 2401     		.2byte	0x124
 2696 0eae 00       		.byte	0
 2697              		.section	.debug_abbrev,"",%progbits
 2698              	.Ldebug_abbrev0:
 2699 0000 01       		.uleb128 0x1
 2700 0001 11       		.uleb128 0x11
 2701 0002 01       		.byte	0x1
 2702 0003 25       		.uleb128 0x25
 2703 0004 0E       		.uleb128 0xe
 2704 0005 13       		.uleb128 0x13
 2705 0006 0B       		.uleb128 0xb
 2706 0007 03       		.uleb128 0x3
 2707 0008 0E       		.uleb128 0xe
 2708 0009 1B       		.uleb128 0x1b
 2709 000a 0E       		.uleb128 0xe
 2710 000b 55       		.uleb128 0x55
 2711 000c 17       		.uleb128 0x17
 2712 000d 11       		.uleb128 0x11
 2713 000e 01       		.uleb128 0x1
 2714 000f 10       		.uleb128 0x10
 2715 0010 17       		.uleb128 0x17
 2716 0011 00       		.byte	0
 2717 0012 00       		.byte	0
 2718 0013 02       		.uleb128 0x2
 2719 0014 24       		.uleb128 0x24
 2720 0015 00       		.byte	0
 2721 0016 0B       		.uleb128 0xb
 2722 0017 0B       		.uleb128 0xb
 2723 0018 3E       		.uleb128 0x3e
 2724 0019 0B       		.uleb128 0xb
ARM GAS  /var/folders/6q/x_mk5n_j3p7_c40r_2k_78980000gn/T//cckhicoL.s 			page 49


 2725 001a 03       		.uleb128 0x3
 2726 001b 08       		.uleb128 0x8
 2727 001c 00       		.byte	0
 2728 001d 00       		.byte	0
 2729 001e 03       		.uleb128 0x3
 2730 001f 16       		.uleb128 0x16
 2731 0020 00       		.byte	0
 2732 0021 03       		.uleb128 0x3
 2733 0022 0E       		.uleb128 0xe
 2734 0023 3A       		.uleb128 0x3a
 2735 0024 0B       		.uleb128 0xb
 2736 0025 3B       		.uleb128 0x3b
 2737 0026 0B       		.uleb128 0xb
 2738 0027 49       		.uleb128 0x49
 2739 0028 13       		.uleb128 0x13
 2740 0029 00       		.byte	0
 2741 002a 00       		.byte	0
 2742 002b 04       		.uleb128 0x4
 2743 002c 24       		.uleb128 0x24
 2744 002d 00       		.byte	0
 2745 002e 0B       		.uleb128 0xb
 2746 002f 0B       		.uleb128 0xb
 2747 0030 3E       		.uleb128 0x3e
 2748 0031 0B       		.uleb128 0xb
 2749 0032 03       		.uleb128 0x3
 2750 0033 0E       		.uleb128 0xe
 2751 0034 00       		.byte	0
 2752 0035 00       		.byte	0
 2753 0036 05       		.uleb128 0x5
 2754 0037 13       		.uleb128 0x13
 2755 0038 01       		.byte	0x1
 2756 0039 03       		.uleb128 0x3
 2757 003a 0E       		.uleb128 0xe
 2758 003b 0B       		.uleb128 0xb
 2759 003c 0B       		.uleb128 0xb
 2760 003d 3A       		.uleb128 0x3a
 2761 003e 0B       		.uleb128 0xb
 2762 003f 3B       		.uleb128 0x3b
 2763 0040 0B       		.uleb128 0xb
 2764 0041 01       		.uleb128 0x1
 2765 0042 13       		.uleb128 0x13
 2766 0043 00       		.byte	0
 2767 0044 00       		.byte	0
 2768 0045 06       		.uleb128 0x6
 2769 0046 0D       		.uleb128 0xd
 2770 0047 00       		.byte	0
 2771 0048 03       		.uleb128 0x3
 2772 0049 0E       		.uleb128 0xe
 2773 004a 3A       		.uleb128 0x3a
 2774 004b 0B       		.uleb128 0xb
 2775 004c 3B       		.uleb128 0x3b
 2776 004d 0B       		.uleb128 0xb
 2777 004e 49       		.uleb128 0x49
 2778 004f 13       		.uleb128 0x13
 2779 0050 38       		.uleb128 0x38
 2780 0051 0B       		.uleb128 0xb
 2781 0052 00       		.byte	0
ARM GAS  /var/folders/6q/x_mk5n_j3p7_c40r_2k_78980000gn/T//cckhicoL.s 			page 50


 2782 0053 00       		.byte	0
 2783 0054 07       		.uleb128 0x7
 2784 0055 0D       		.uleb128 0xd
 2785 0056 00       		.byte	0
 2786 0057 03       		.uleb128 0x3
 2787 0058 08       		.uleb128 0x8
 2788 0059 3A       		.uleb128 0x3a
 2789 005a 0B       		.uleb128 0xb
 2790 005b 3B       		.uleb128 0x3b
 2791 005c 0B       		.uleb128 0xb
 2792 005d 49       		.uleb128 0x49
 2793 005e 13       		.uleb128 0x13
 2794 005f 38       		.uleb128 0x38
 2795 0060 0B       		.uleb128 0xb
 2796 0061 00       		.byte	0
 2797 0062 00       		.byte	0
 2798 0063 08       		.uleb128 0x8
 2799 0064 13       		.uleb128 0x13
 2800 0065 01       		.byte	0x1
 2801 0066 0B       		.uleb128 0xb
 2802 0067 0B       		.uleb128 0xb
 2803 0068 3A       		.uleb128 0x3a
 2804 0069 0B       		.uleb128 0xb
 2805 006a 3B       		.uleb128 0x3b
 2806 006b 0B       		.uleb128 0xb
 2807 006c 01       		.uleb128 0x1
 2808 006d 13       		.uleb128 0x13
 2809 006e 00       		.byte	0
 2810 006f 00       		.byte	0
 2811 0070 09       		.uleb128 0x9
 2812 0071 0F       		.uleb128 0xf
 2813 0072 00       		.byte	0
 2814 0073 0B       		.uleb128 0xb
 2815 0074 0B       		.uleb128 0xb
 2816 0075 49       		.uleb128 0x49
 2817 0076 13       		.uleb128 0x13
 2818 0077 00       		.byte	0
 2819 0078 00       		.byte	0
 2820 0079 0A       		.uleb128 0xa
 2821 007a 0F       		.uleb128 0xf
 2822 007b 00       		.byte	0
 2823 007c 0B       		.uleb128 0xb
 2824 007d 0B       		.uleb128 0xb
 2825 007e 00       		.byte	0
 2826 007f 00       		.byte	0
 2827 0080 0B       		.uleb128 0xb
 2828 0081 13       		.uleb128 0x13
 2829 0082 01       		.byte	0x1
 2830 0083 03       		.uleb128 0x3
 2831 0084 0E       		.uleb128 0xe
 2832 0085 0B       		.uleb128 0xb
 2833 0086 0B       		.uleb128 0xb
 2834 0087 3A       		.uleb128 0x3a
 2835 0088 0B       		.uleb128 0xb
 2836 0089 3B       		.uleb128 0x3b
 2837 008a 05       		.uleb128 0x5
 2838 008b 01       		.uleb128 0x1
ARM GAS  /var/folders/6q/x_mk5n_j3p7_c40r_2k_78980000gn/T//cckhicoL.s 			page 51


 2839 008c 13       		.uleb128 0x13
 2840 008d 00       		.byte	0
 2841 008e 00       		.byte	0
 2842 008f 0C       		.uleb128 0xc
 2843 0090 0D       		.uleb128 0xd
 2844 0091 00       		.byte	0
 2845 0092 03       		.uleb128 0x3
 2846 0093 08       		.uleb128 0x8
 2847 0094 3A       		.uleb128 0x3a
 2848 0095 0B       		.uleb128 0xb
 2849 0096 3B       		.uleb128 0x3b
 2850 0097 05       		.uleb128 0x5
 2851 0098 49       		.uleb128 0x49
 2852 0099 13       		.uleb128 0x13
 2853 009a 38       		.uleb128 0x38
 2854 009b 0B       		.uleb128 0xb
 2855 009c 00       		.byte	0
 2856 009d 00       		.byte	0
 2857 009e 0D       		.uleb128 0xd
 2858 009f 35       		.uleb128 0x35
 2859 00a0 00       		.byte	0
 2860 00a1 49       		.uleb128 0x49
 2861 00a2 13       		.uleb128 0x13
 2862 00a3 00       		.byte	0
 2863 00a4 00       		.byte	0
 2864 00a5 0E       		.uleb128 0xe
 2865 00a6 17       		.uleb128 0x17
 2866 00a7 01       		.byte	0x1
 2867 00a8 0B       		.uleb128 0xb
 2868 00a9 0B       		.uleb128 0xb
 2869 00aa 3A       		.uleb128 0x3a
 2870 00ab 0B       		.uleb128 0xb
 2871 00ac 3B       		.uleb128 0x3b
 2872 00ad 0B       		.uleb128 0xb
 2873 00ae 01       		.uleb128 0x1
 2874 00af 13       		.uleb128 0x13
 2875 00b0 00       		.byte	0
 2876 00b1 00       		.byte	0
 2877 00b2 0F       		.uleb128 0xf
 2878 00b3 0D       		.uleb128 0xd
 2879 00b4 00       		.byte	0
 2880 00b5 03       		.uleb128 0x3
 2881 00b6 0E       		.uleb128 0xe
 2882 00b7 3A       		.uleb128 0x3a
 2883 00b8 0B       		.uleb128 0xb
 2884 00b9 3B       		.uleb128 0x3b
 2885 00ba 0B       		.uleb128 0xb
 2886 00bb 49       		.uleb128 0x49
 2887 00bc 13       		.uleb128 0x13
 2888 00bd 00       		.byte	0
 2889 00be 00       		.byte	0
 2890 00bf 10       		.uleb128 0x10
 2891 00c0 26       		.uleb128 0x26
 2892 00c1 00       		.byte	0
 2893 00c2 49       		.uleb128 0x49
 2894 00c3 13       		.uleb128 0x13
 2895 00c4 00       		.byte	0
ARM GAS  /var/folders/6q/x_mk5n_j3p7_c40r_2k_78980000gn/T//cckhicoL.s 			page 52


 2896 00c5 00       		.byte	0
 2897 00c6 11       		.uleb128 0x11
 2898 00c7 15       		.uleb128 0x15
 2899 00c8 01       		.byte	0x1
 2900 00c9 27       		.uleb128 0x27
 2901 00ca 19       		.uleb128 0x19
 2902 00cb 49       		.uleb128 0x49
 2903 00cc 13       		.uleb128 0x13
 2904 00cd 01       		.uleb128 0x1
 2905 00ce 13       		.uleb128 0x13
 2906 00cf 00       		.byte	0
 2907 00d0 00       		.byte	0
 2908 00d1 12       		.uleb128 0x12
 2909 00d2 05       		.uleb128 0x5
 2910 00d3 00       		.byte	0
 2911 00d4 49       		.uleb128 0x49
 2912 00d5 13       		.uleb128 0x13
 2913 00d6 00       		.byte	0
 2914 00d7 00       		.byte	0
 2915 00d8 13       		.uleb128 0x13
 2916 00d9 15       		.uleb128 0x15
 2917 00da 01       		.byte	0x1
 2918 00db 27       		.uleb128 0x27
 2919 00dc 19       		.uleb128 0x19
 2920 00dd 01       		.uleb128 0x1
 2921 00de 13       		.uleb128 0x13
 2922 00df 00       		.byte	0
 2923 00e0 00       		.byte	0
 2924 00e1 14       		.uleb128 0x14
 2925 00e2 13       		.uleb128 0x13
 2926 00e3 01       		.byte	0x1
 2927 00e4 0B       		.uleb128 0xb
 2928 00e5 0B       		.uleb128 0xb
 2929 00e6 3A       		.uleb128 0x3a
 2930 00e7 0B       		.uleb128 0xb
 2931 00e8 3B       		.uleb128 0x3b
 2932 00e9 05       		.uleb128 0x5
 2933 00ea 01       		.uleb128 0x1
 2934 00eb 13       		.uleb128 0x13
 2935 00ec 00       		.byte	0
 2936 00ed 00       		.byte	0
 2937 00ee 15       		.uleb128 0x15
 2938 00ef 0D       		.uleb128 0xd
 2939 00f0 00       		.byte	0
 2940 00f1 03       		.uleb128 0x3
 2941 00f2 0E       		.uleb128 0xe
 2942 00f3 3A       		.uleb128 0x3a
 2943 00f4 0B       		.uleb128 0xb
 2944 00f5 3B       		.uleb128 0x3b
 2945 00f6 05       		.uleb128 0x5
 2946 00f7 49       		.uleb128 0x49
 2947 00f8 13       		.uleb128 0x13
 2948 00f9 38       		.uleb128 0x38
 2949 00fa 0B       		.uleb128 0xb
 2950 00fb 00       		.byte	0
 2951 00fc 00       		.byte	0
 2952 00fd 16       		.uleb128 0x16
ARM GAS  /var/folders/6q/x_mk5n_j3p7_c40r_2k_78980000gn/T//cckhicoL.s 			page 53


 2953 00fe 16       		.uleb128 0x16
 2954 00ff 00       		.byte	0
 2955 0100 03       		.uleb128 0x3
 2956 0101 0E       		.uleb128 0xe
 2957 0102 3A       		.uleb128 0x3a
 2958 0103 0B       		.uleb128 0xb
 2959 0104 3B       		.uleb128 0x3b
 2960 0105 05       		.uleb128 0x5
 2961 0106 49       		.uleb128 0x49
 2962 0107 13       		.uleb128 0x13
 2963 0108 00       		.byte	0
 2964 0109 00       		.byte	0
 2965 010a 17       		.uleb128 0x17
 2966 010b 04       		.uleb128 0x4
 2967 010c 01       		.byte	0x1
 2968 010d 0B       		.uleb128 0xb
 2969 010e 0B       		.uleb128 0xb
 2970 010f 49       		.uleb128 0x49
 2971 0110 13       		.uleb128 0x13
 2972 0111 3A       		.uleb128 0x3a
 2973 0112 0B       		.uleb128 0xb
 2974 0113 3B       		.uleb128 0x3b
 2975 0114 0B       		.uleb128 0xb
 2976 0115 01       		.uleb128 0x1
 2977 0116 13       		.uleb128 0x13
 2978 0117 00       		.byte	0
 2979 0118 00       		.byte	0
 2980 0119 18       		.uleb128 0x18
 2981 011a 28       		.uleb128 0x28
 2982 011b 00       		.byte	0
 2983 011c 03       		.uleb128 0x3
 2984 011d 0E       		.uleb128 0xe
 2985 011e 1C       		.uleb128 0x1c
 2986 011f 0B       		.uleb128 0xb
 2987 0120 00       		.byte	0
 2988 0121 00       		.byte	0
 2989 0122 19       		.uleb128 0x19
 2990 0123 01       		.uleb128 0x1
 2991 0124 01       		.byte	0x1
 2992 0125 49       		.uleb128 0x49
 2993 0126 13       		.uleb128 0x13
 2994 0127 01       		.uleb128 0x1
 2995 0128 13       		.uleb128 0x13
 2996 0129 00       		.byte	0
 2997 012a 00       		.byte	0
 2998 012b 1A       		.uleb128 0x1a
 2999 012c 21       		.uleb128 0x21
 3000 012d 00       		.byte	0
 3001 012e 49       		.uleb128 0x49
 3002 012f 13       		.uleb128 0x13
 3003 0130 2F       		.uleb128 0x2f
 3004 0131 0B       		.uleb128 0xb
 3005 0132 00       		.byte	0
 3006 0133 00       		.byte	0
 3007 0134 1B       		.uleb128 0x1b
 3008 0135 2E       		.uleb128 0x2e
 3009 0136 01       		.byte	0x1
ARM GAS  /var/folders/6q/x_mk5n_j3p7_c40r_2k_78980000gn/T//cckhicoL.s 			page 54


 3010 0137 03       		.uleb128 0x3
 3011 0138 0E       		.uleb128 0xe
 3012 0139 3A       		.uleb128 0x3a
 3013 013a 0B       		.uleb128 0xb
 3014 013b 3B       		.uleb128 0x3b
 3015 013c 0B       		.uleb128 0xb
 3016 013d 27       		.uleb128 0x27
 3017 013e 19       		.uleb128 0x19
 3018 013f 20       		.uleb128 0x20
 3019 0140 0B       		.uleb128 0xb
 3020 0141 01       		.uleb128 0x1
 3021 0142 13       		.uleb128 0x13
 3022 0143 00       		.byte	0
 3023 0144 00       		.byte	0
 3024 0145 1C       		.uleb128 0x1c
 3025 0146 05       		.uleb128 0x5
 3026 0147 00       		.byte	0
 3027 0148 03       		.uleb128 0x3
 3028 0149 08       		.uleb128 0x8
 3029 014a 3A       		.uleb128 0x3a
 3030 014b 0B       		.uleb128 0xb
 3031 014c 3B       		.uleb128 0x3b
 3032 014d 0B       		.uleb128 0xb
 3033 014e 49       		.uleb128 0x49
 3034 014f 13       		.uleb128 0x13
 3035 0150 00       		.byte	0
 3036 0151 00       		.byte	0
 3037 0152 1D       		.uleb128 0x1d
 3038 0153 05       		.uleb128 0x5
 3039 0154 00       		.byte	0
 3040 0155 03       		.uleb128 0x3
 3041 0156 0E       		.uleb128 0xe
 3042 0157 3A       		.uleb128 0x3a
 3043 0158 0B       		.uleb128 0xb
 3044 0159 3B       		.uleb128 0x3b
 3045 015a 0B       		.uleb128 0xb
 3046 015b 49       		.uleb128 0x49
 3047 015c 13       		.uleb128 0x13
 3048 015d 00       		.byte	0
 3049 015e 00       		.byte	0
 3050 015f 1E       		.uleb128 0x1e
 3051 0160 34       		.uleb128 0x34
 3052 0161 00       		.byte	0
 3053 0162 03       		.uleb128 0x3
 3054 0163 08       		.uleb128 0x8
 3055 0164 3A       		.uleb128 0x3a
 3056 0165 0B       		.uleb128 0xb
 3057 0166 3B       		.uleb128 0x3b
 3058 0167 0B       		.uleb128 0xb
 3059 0168 49       		.uleb128 0x49
 3060 0169 13       		.uleb128 0x13
 3061 016a 00       		.byte	0
 3062 016b 00       		.byte	0
 3063 016c 1F       		.uleb128 0x1f
 3064 016d 2E       		.uleb128 0x2e
 3065 016e 01       		.byte	0x1
 3066 016f 03       		.uleb128 0x3
ARM GAS  /var/folders/6q/x_mk5n_j3p7_c40r_2k_78980000gn/T//cckhicoL.s 			page 55


 3067 0170 0E       		.uleb128 0xe
 3068 0171 3A       		.uleb128 0x3a
 3069 0172 0B       		.uleb128 0xb
 3070 0173 3B       		.uleb128 0x3b
 3071 0174 0B       		.uleb128 0xb
 3072 0175 27       		.uleb128 0x27
 3073 0176 19       		.uleb128 0x19
 3074 0177 11       		.uleb128 0x11
 3075 0178 01       		.uleb128 0x1
 3076 0179 12       		.uleb128 0x12
 3077 017a 06       		.uleb128 0x6
 3078 017b 40       		.uleb128 0x40
 3079 017c 18       		.uleb128 0x18
 3080 017d 9742     		.uleb128 0x2117
 3081 017f 19       		.uleb128 0x19
 3082 0180 01       		.uleb128 0x1
 3083 0181 13       		.uleb128 0x13
 3084 0182 00       		.byte	0
 3085 0183 00       		.byte	0
 3086 0184 20       		.uleb128 0x20
 3087 0185 05       		.uleb128 0x5
 3088 0186 00       		.byte	0
 3089 0187 03       		.uleb128 0x3
 3090 0188 08       		.uleb128 0x8
 3091 0189 3A       		.uleb128 0x3a
 3092 018a 0B       		.uleb128 0xb
 3093 018b 3B       		.uleb128 0x3b
 3094 018c 0B       		.uleb128 0xb
 3095 018d 49       		.uleb128 0x49
 3096 018e 13       		.uleb128 0x13
 3097 018f 02       		.uleb128 0x2
 3098 0190 18       		.uleb128 0x18
 3099 0191 00       		.byte	0
 3100 0192 00       		.byte	0
 3101 0193 21       		.uleb128 0x21
 3102 0194 05       		.uleb128 0x5
 3103 0195 00       		.byte	0
 3104 0196 03       		.uleb128 0x3
 3105 0197 08       		.uleb128 0x8
 3106 0198 3A       		.uleb128 0x3a
 3107 0199 0B       		.uleb128 0xb
 3108 019a 3B       		.uleb128 0x3b
 3109 019b 0B       		.uleb128 0xb
 3110 019c 49       		.uleb128 0x49
 3111 019d 13       		.uleb128 0x13
 3112 019e 02       		.uleb128 0x2
 3113 019f 17       		.uleb128 0x17
 3114 01a0 00       		.byte	0
 3115 01a1 00       		.byte	0
 3116 01a2 22       		.uleb128 0x22
 3117 01a3 34       		.uleb128 0x34
 3118 01a4 00       		.byte	0
 3119 01a5 03       		.uleb128 0x3
 3120 01a6 08       		.uleb128 0x8
 3121 01a7 3A       		.uleb128 0x3a
 3122 01a8 0B       		.uleb128 0xb
 3123 01a9 3B       		.uleb128 0x3b
ARM GAS  /var/folders/6q/x_mk5n_j3p7_c40r_2k_78980000gn/T//cckhicoL.s 			page 56


 3124 01aa 0B       		.uleb128 0xb
 3125 01ab 49       		.uleb128 0x49
 3126 01ac 13       		.uleb128 0x13
 3127 01ad 02       		.uleb128 0x2
 3128 01ae 18       		.uleb128 0x18
 3129 01af 00       		.byte	0
 3130 01b0 00       		.byte	0
 3131 01b1 23       		.uleb128 0x23
 3132 01b2 34       		.uleb128 0x34
 3133 01b3 00       		.byte	0
 3134 01b4 03       		.uleb128 0x3
 3135 01b5 08       		.uleb128 0x8
 3136 01b6 3A       		.uleb128 0x3a
 3137 01b7 0B       		.uleb128 0xb
 3138 01b8 3B       		.uleb128 0x3b
 3139 01b9 0B       		.uleb128 0xb
 3140 01ba 49       		.uleb128 0x49
 3141 01bb 13       		.uleb128 0x13
 3142 01bc 02       		.uleb128 0x2
 3143 01bd 17       		.uleb128 0x17
 3144 01be 00       		.byte	0
 3145 01bf 00       		.byte	0
 3146 01c0 24       		.uleb128 0x24
 3147 01c1 0B       		.uleb128 0xb
 3148 01c2 01       		.byte	0x1
 3149 01c3 11       		.uleb128 0x11
 3150 01c4 01       		.uleb128 0x1
 3151 01c5 12       		.uleb128 0x12
 3152 01c6 06       		.uleb128 0x6
 3153 01c7 01       		.uleb128 0x1
 3154 01c8 13       		.uleb128 0x13
 3155 01c9 00       		.byte	0
 3156 01ca 00       		.byte	0
 3157 01cb 25       		.uleb128 0x25
 3158 01cc 1D       		.uleb128 0x1d
 3159 01cd 01       		.byte	0x1
 3160 01ce 31       		.uleb128 0x31
 3161 01cf 13       		.uleb128 0x13
 3162 01d0 52       		.uleb128 0x52
 3163 01d1 01       		.uleb128 0x1
 3164 01d2 55       		.uleb128 0x55
 3165 01d3 17       		.uleb128 0x17
 3166 01d4 58       		.uleb128 0x58
 3167 01d5 0B       		.uleb128 0xb
 3168 01d6 59       		.uleb128 0x59
 3169 01d7 0B       		.uleb128 0xb
 3170 01d8 01       		.uleb128 0x1
 3171 01d9 13       		.uleb128 0x13
 3172 01da 00       		.byte	0
 3173 01db 00       		.byte	0
 3174 01dc 26       		.uleb128 0x26
 3175 01dd 05       		.uleb128 0x5
 3176 01de 00       		.byte	0
 3177 01df 31       		.uleb128 0x31
 3178 01e0 13       		.uleb128 0x13
 3179 01e1 02       		.uleb128 0x2
 3180 01e2 17       		.uleb128 0x17
ARM GAS  /var/folders/6q/x_mk5n_j3p7_c40r_2k_78980000gn/T//cckhicoL.s 			page 57


 3181 01e3 00       		.byte	0
 3182 01e4 00       		.byte	0
 3183 01e5 27       		.uleb128 0x27
 3184 01e6 05       		.uleb128 0x5
 3185 01e7 00       		.byte	0
 3186 01e8 31       		.uleb128 0x31
 3187 01e9 13       		.uleb128 0x13
 3188 01ea 00       		.byte	0
 3189 01eb 00       		.byte	0
 3190 01ec 28       		.uleb128 0x28
 3191 01ed 0B       		.uleb128 0xb
 3192 01ee 01       		.byte	0x1
 3193 01ef 55       		.uleb128 0x55
 3194 01f0 17       		.uleb128 0x17
 3195 01f1 00       		.byte	0
 3196 01f2 00       		.byte	0
 3197 01f3 29       		.uleb128 0x29
 3198 01f4 34       		.uleb128 0x34
 3199 01f5 00       		.byte	0
 3200 01f6 31       		.uleb128 0x31
 3201 01f7 13       		.uleb128 0x13
 3202 01f8 02       		.uleb128 0x2
 3203 01f9 17       		.uleb128 0x17
 3204 01fa 00       		.byte	0
 3205 01fb 00       		.byte	0
 3206 01fc 2A       		.uleb128 0x2a
 3207 01fd 898201   		.uleb128 0x4109
 3208 0200 01       		.byte	0x1
 3209 0201 11       		.uleb128 0x11
 3210 0202 01       		.uleb128 0x1
 3211 0203 31       		.uleb128 0x31
 3212 0204 13       		.uleb128 0x13
 3213 0205 00       		.byte	0
 3214 0206 00       		.byte	0
 3215 0207 2B       		.uleb128 0x2b
 3216 0208 8A8201   		.uleb128 0x410a
 3217 020b 00       		.byte	0
 3218 020c 02       		.uleb128 0x2
 3219 020d 18       		.uleb128 0x18
 3220 020e 9142     		.uleb128 0x2111
 3221 0210 18       		.uleb128 0x18
 3222 0211 00       		.byte	0
 3223 0212 00       		.byte	0
 3224 0213 2C       		.uleb128 0x2c
 3225 0214 898201   		.uleb128 0x4109
 3226 0217 01       		.byte	0x1
 3227 0218 11       		.uleb128 0x11
 3228 0219 01       		.uleb128 0x1
 3229 021a 31       		.uleb128 0x31
 3230 021b 13       		.uleb128 0x13
 3231 021c 01       		.uleb128 0x1
 3232 021d 13       		.uleb128 0x13
 3233 021e 00       		.byte	0
 3234 021f 00       		.byte	0
 3235 0220 2D       		.uleb128 0x2d
 3236 0221 2E       		.uleb128 0x2e
 3237 0222 01       		.byte	0x1
ARM GAS  /var/folders/6q/x_mk5n_j3p7_c40r_2k_78980000gn/T//cckhicoL.s 			page 58


 3238 0223 3F       		.uleb128 0x3f
 3239 0224 19       		.uleb128 0x19
 3240 0225 03       		.uleb128 0x3
 3241 0226 0E       		.uleb128 0xe
 3242 0227 3A       		.uleb128 0x3a
 3243 0228 0B       		.uleb128 0xb
 3244 0229 3B       		.uleb128 0x3b
 3245 022a 05       		.uleb128 0x5
 3246 022b 27       		.uleb128 0x27
 3247 022c 19       		.uleb128 0x19
 3248 022d 11       		.uleb128 0x11
 3249 022e 01       		.uleb128 0x1
 3250 022f 12       		.uleb128 0x12
 3251 0230 06       		.uleb128 0x6
 3252 0231 40       		.uleb128 0x40
 3253 0232 18       		.uleb128 0x18
 3254 0233 9742     		.uleb128 0x2117
 3255 0235 19       		.uleb128 0x19
 3256 0236 01       		.uleb128 0x1
 3257 0237 13       		.uleb128 0x13
 3258 0238 00       		.byte	0
 3259 0239 00       		.byte	0
 3260 023a 2E       		.uleb128 0x2e
 3261 023b 898201   		.uleb128 0x4109
 3262 023e 00       		.byte	0
 3263 023f 11       		.uleb128 0x11
 3264 0240 01       		.uleb128 0x1
 3265 0241 9542     		.uleb128 0x2115
 3266 0243 19       		.uleb128 0x19
 3267 0244 31       		.uleb128 0x31
 3268 0245 13       		.uleb128 0x13
 3269 0246 00       		.byte	0
 3270 0247 00       		.byte	0
 3271 0248 2F       		.uleb128 0x2f
 3272 0249 05       		.uleb128 0x5
 3273 024a 00       		.byte	0
 3274 024b 03       		.uleb128 0x3
 3275 024c 08       		.uleb128 0x8
 3276 024d 3A       		.uleb128 0x3a
 3277 024e 0B       		.uleb128 0xb
 3278 024f 3B       		.uleb128 0x3b
 3279 0250 05       		.uleb128 0x5
 3280 0251 49       		.uleb128 0x49
 3281 0252 13       		.uleb128 0x13
 3282 0253 02       		.uleb128 0x2
 3283 0254 17       		.uleb128 0x17
 3284 0255 00       		.byte	0
 3285 0256 00       		.byte	0
 3286 0257 30       		.uleb128 0x30
 3287 0258 05       		.uleb128 0x5
 3288 0259 00       		.byte	0
 3289 025a 03       		.uleb128 0x3
 3290 025b 0E       		.uleb128 0xe
 3291 025c 3A       		.uleb128 0x3a
 3292 025d 0B       		.uleb128 0xb
 3293 025e 3B       		.uleb128 0x3b
 3294 025f 05       		.uleb128 0x5
ARM GAS  /var/folders/6q/x_mk5n_j3p7_c40r_2k_78980000gn/T//cckhicoL.s 			page 59


 3295 0260 49       		.uleb128 0x49
 3296 0261 13       		.uleb128 0x13
 3297 0262 02       		.uleb128 0x2
 3298 0263 17       		.uleb128 0x17
 3299 0264 00       		.byte	0
 3300 0265 00       		.byte	0
 3301 0266 31       		.uleb128 0x31
 3302 0267 1D       		.uleb128 0x1d
 3303 0268 01       		.byte	0x1
 3304 0269 31       		.uleb128 0x31
 3305 026a 13       		.uleb128 0x13
 3306 026b 11       		.uleb128 0x11
 3307 026c 01       		.uleb128 0x1
 3308 026d 12       		.uleb128 0x12
 3309 026e 06       		.uleb128 0x6
 3310 026f 58       		.uleb128 0x58
 3311 0270 0B       		.uleb128 0xb
 3312 0271 59       		.uleb128 0x59
 3313 0272 05       		.uleb128 0x5
 3314 0273 01       		.uleb128 0x1
 3315 0274 13       		.uleb128 0x13
 3316 0275 00       		.byte	0
 3317 0276 00       		.byte	0
 3318 0277 32       		.uleb128 0x32
 3319 0278 0B       		.uleb128 0xb
 3320 0279 01       		.byte	0x1
 3321 027a 11       		.uleb128 0x11
 3322 027b 01       		.uleb128 0x1
 3323 027c 12       		.uleb128 0x12
 3324 027d 06       		.uleb128 0x6
 3325 027e 00       		.byte	0
 3326 027f 00       		.byte	0
 3327 0280 33       		.uleb128 0x33
 3328 0281 1D       		.uleb128 0x1d
 3329 0282 01       		.byte	0x1
 3330 0283 31       		.uleb128 0x31
 3331 0284 13       		.uleb128 0x13
 3332 0285 52       		.uleb128 0x52
 3333 0286 01       		.uleb128 0x1
 3334 0287 55       		.uleb128 0x55
 3335 0288 17       		.uleb128 0x17
 3336 0289 58       		.uleb128 0x58
 3337 028a 0B       		.uleb128 0xb
 3338 028b 59       		.uleb128 0x59
 3339 028c 05       		.uleb128 0x5
 3340 028d 01       		.uleb128 0x1
 3341 028e 13       		.uleb128 0x13
 3342 028f 00       		.byte	0
 3343 0290 00       		.byte	0
 3344 0291 34       		.uleb128 0x34
 3345 0292 898201   		.uleb128 0x4109
 3346 0295 01       		.byte	0x1
 3347 0296 11       		.uleb128 0x11
 3348 0297 01       		.uleb128 0x1
 3349 0298 9542     		.uleb128 0x2115
 3350 029a 19       		.uleb128 0x19
 3351 029b 31       		.uleb128 0x31
ARM GAS  /var/folders/6q/x_mk5n_j3p7_c40r_2k_78980000gn/T//cckhicoL.s 			page 60


 3352 029c 13       		.uleb128 0x13
 3353 029d 01       		.uleb128 0x1
 3354 029e 13       		.uleb128 0x13
 3355 029f 00       		.byte	0
 3356 02a0 00       		.byte	0
 3357 02a1 35       		.uleb128 0x35
 3358 02a2 898201   		.uleb128 0x4109
 3359 02a5 01       		.byte	0x1
 3360 02a6 11       		.uleb128 0x11
 3361 02a7 01       		.uleb128 0x1
 3362 02a8 9542     		.uleb128 0x2115
 3363 02aa 19       		.uleb128 0x19
 3364 02ab 31       		.uleb128 0x31
 3365 02ac 13       		.uleb128 0x13
 3366 02ad 00       		.byte	0
 3367 02ae 00       		.byte	0
 3368 02af 36       		.uleb128 0x36
 3369 02b0 34       		.uleb128 0x34
 3370 02b1 00       		.byte	0
 3371 02b2 03       		.uleb128 0x3
 3372 02b3 0E       		.uleb128 0xe
 3373 02b4 3A       		.uleb128 0x3a
 3374 02b5 0B       		.uleb128 0xb
 3375 02b6 3B       		.uleb128 0x3b
 3376 02b7 0B       		.uleb128 0xb
 3377 02b8 49       		.uleb128 0x49
 3378 02b9 13       		.uleb128 0x13
 3379 02ba 02       		.uleb128 0x2
 3380 02bb 18       		.uleb128 0x18
 3381 02bc 00       		.byte	0
 3382 02bd 00       		.byte	0
 3383 02be 37       		.uleb128 0x37
 3384 02bf 34       		.uleb128 0x34
 3385 02c0 00       		.byte	0
 3386 02c1 03       		.uleb128 0x3
 3387 02c2 0E       		.uleb128 0xe
 3388 02c3 3A       		.uleb128 0x3a
 3389 02c4 0B       		.uleb128 0xb
 3390 02c5 3B       		.uleb128 0x3b
 3391 02c6 05       		.uleb128 0x5
 3392 02c7 49       		.uleb128 0x49
 3393 02c8 13       		.uleb128 0x13
 3394 02c9 3F       		.uleb128 0x3f
 3395 02ca 19       		.uleb128 0x19
 3396 02cb 3C       		.uleb128 0x3c
 3397 02cc 19       		.uleb128 0x19
 3398 02cd 00       		.byte	0
 3399 02ce 00       		.byte	0
 3400 02cf 38       		.uleb128 0x38
 3401 02d0 34       		.uleb128 0x34
 3402 02d1 00       		.byte	0
 3403 02d2 03       		.uleb128 0x3
 3404 02d3 08       		.uleb128 0x8
 3405 02d4 3A       		.uleb128 0x3a
 3406 02d5 0B       		.uleb128 0xb
 3407 02d6 3B       		.uleb128 0x3b
 3408 02d7 0B       		.uleb128 0xb
ARM GAS  /var/folders/6q/x_mk5n_j3p7_c40r_2k_78980000gn/T//cckhicoL.s 			page 61


 3409 02d8 49       		.uleb128 0x49
 3410 02d9 13       		.uleb128 0x13
 3411 02da 3F       		.uleb128 0x3f
 3412 02db 19       		.uleb128 0x19
 3413 02dc 02       		.uleb128 0x2
 3414 02dd 18       		.uleb128 0x18
 3415 02de 00       		.byte	0
 3416 02df 00       		.byte	0
 3417 02e0 39       		.uleb128 0x39
 3418 02e1 2E       		.uleb128 0x2e
 3419 02e2 00       		.byte	0
 3420 02e3 3F       		.uleb128 0x3f
 3421 02e4 19       		.uleb128 0x19
 3422 02e5 3C       		.uleb128 0x3c
 3423 02e6 19       		.uleb128 0x19
 3424 02e7 6E       		.uleb128 0x6e
 3425 02e8 0E       		.uleb128 0xe
 3426 02e9 03       		.uleb128 0x3
 3427 02ea 0E       		.uleb128 0xe
 3428 02eb 3A       		.uleb128 0x3a
 3429 02ec 0B       		.uleb128 0xb
 3430 02ed 3B       		.uleb128 0x3b
 3431 02ee 0B       		.uleb128 0xb
 3432 02ef 00       		.byte	0
 3433 02f0 00       		.byte	0
 3434 02f1 3A       		.uleb128 0x3a
 3435 02f2 2E       		.uleb128 0x2e
 3436 02f3 00       		.byte	0
 3437 02f4 3F       		.uleb128 0x3f
 3438 02f5 19       		.uleb128 0x19
 3439 02f6 3C       		.uleb128 0x3c
 3440 02f7 19       		.uleb128 0x19
 3441 02f8 6E       		.uleb128 0x6e
 3442 02f9 0E       		.uleb128 0xe
 3443 02fa 03       		.uleb128 0x3
 3444 02fb 0E       		.uleb128 0xe
 3445 02fc 3A       		.uleb128 0x3a
 3446 02fd 0B       		.uleb128 0xb
 3447 02fe 3B       		.uleb128 0x3b
 3448 02ff 05       		.uleb128 0x5
 3449 0300 00       		.byte	0
 3450 0301 00       		.byte	0
 3451 0302 00       		.byte	0
 3452              		.section	.debug_loc,"",%progbits
 3453              	.Ldebug_loc0:
 3454              	.LLST0:
 3455 0000 00000000 		.4byte	.LVL3
 3456 0004 16000000 		.4byte	.LVL7
 3457 0008 0100     		.2byte	0x1
 3458 000a 50       		.byte	0x50
 3459 000b 16000000 		.4byte	.LVL7
 3460 000f A0000000 		.4byte	.LVL21
 3461 0013 0100     		.2byte	0x1
 3462 0015 56       		.byte	0x56
 3463 0016 A0000000 		.4byte	.LVL21
 3464 001a AC000000 		.4byte	.LVL22
 3465 001e 0100     		.2byte	0x1
ARM GAS  /var/folders/6q/x_mk5n_j3p7_c40r_2k_78980000gn/T//cckhicoL.s 			page 62


 3466 0020 50       		.byte	0x50
 3467 0021 AC000000 		.4byte	.LVL22
 3468 0025 F0000000 		.4byte	.LFE66
 3469 0029 0100     		.2byte	0x1
 3470 002b 56       		.byte	0x56
 3471 002c 00000000 		.4byte	0
 3472 0030 00000000 		.4byte	0
 3473              	.LLST1:
 3474 0034 10000000 		.4byte	.LVL5
 3475 0038 96000000 		.4byte	.LVL20
 3476 003c 0100     		.2byte	0x1
 3477 003e 57       		.byte	0x57
 3478 003f A0000000 		.4byte	.LVL21
 3479 0043 F0000000 		.4byte	.LFE66
 3480 0047 0100     		.2byte	0x1
 3481 0049 57       		.byte	0x57
 3482 004a 00000000 		.4byte	0
 3483 004e 00000000 		.4byte	0
 3484              	.LLST2:
 3485 0052 12000000 		.4byte	.LVL6
 3486 0056 26000000 		.4byte	.LVL8
 3487 005a 0100     		.2byte	0x1
 3488 005c 54       		.byte	0x54
 3489 005d 34000000 		.4byte	.LVL10
 3490 0061 5A000000 		.4byte	.LVL15
 3491 0065 0100     		.2byte	0x1
 3492 0067 54       		.byte	0x54
 3493 0068 68000000 		.4byte	.LVL18
 3494 006c F0000000 		.4byte	.LFE66
 3495 0070 0100     		.2byte	0x1
 3496 0072 54       		.byte	0x54
 3497 0073 00000000 		.4byte	0
 3498 0077 00000000 		.4byte	0
 3499              	.LLST3:
 3500 007b 3C000000 		.4byte	.LVL11
 3501 007f 5A000000 		.4byte	.LVL15
 3502 0083 0100     		.2byte	0x1
 3503 0085 54       		.byte	0x54
 3504 0086 00000000 		.4byte	0
 3505 008a 00000000 		.4byte	0
 3506              	.LLST4:
 3507 008e 3C000000 		.4byte	.LVL11
 3508 0092 46000000 		.4byte	.LVL12
 3509 0096 0200     		.2byte	0x2
 3510 0098 30       		.byte	0x30
 3511 0099 9F       		.byte	0x9f
 3512 009a 46000000 		.4byte	.LVL12
 3513 009e 65000000 		.4byte	.LVL17-1
 3514 00a2 0100     		.2byte	0x1
 3515 00a4 51       		.byte	0x51
 3516 00a5 00000000 		.4byte	0
 3517 00a9 00000000 		.4byte	0
 3518              	.LLST5:
 3519 00ad CC000000 		.4byte	.LVL24
 3520 00b1 D2000000 		.4byte	.LVL25
 3521 00b5 0100     		.2byte	0x1
 3522 00b7 50       		.byte	0x50
ARM GAS  /var/folders/6q/x_mk5n_j3p7_c40r_2k_78980000gn/T//cckhicoL.s 			page 63


 3523 00b8 DC000000 		.4byte	.LVL26
 3524 00bc E0000000 		.4byte	.LVL27
 3525 00c0 0100     		.2byte	0x1
 3526 00c2 50       		.byte	0x50
 3527 00c3 00000000 		.4byte	0
 3528 00c7 00000000 		.4byte	0
 3529              	.LLST6:
 3530 00cb 00000000 		.4byte	.LVL38
 3531 00cf 12000000 		.4byte	.LVL40
 3532 00d3 0100     		.2byte	0x1
 3533 00d5 50       		.byte	0x50
 3534 00d6 12000000 		.4byte	.LVL40
 3535 00da 56000000 		.4byte	.LVL44
 3536 00de 0100     		.2byte	0x1
 3537 00e0 55       		.byte	0x55
 3538 00e1 56000000 		.4byte	.LVL44
 3539 00e5 70000000 		.4byte	.LVL45
 3540 00e9 0100     		.2byte	0x1
 3541 00eb 50       		.byte	0x50
 3542 00ec 70000000 		.4byte	.LVL45
 3543 00f0 7C000000 		.4byte	.LVL47
 3544 00f4 0100     		.2byte	0x1
 3545 00f6 55       		.byte	0x55
 3546 00f7 7C000000 		.4byte	.LVL47
 3547 00fb 84000000 		.4byte	.LVL48
 3548 00ff 0100     		.2byte	0x1
 3549 0101 50       		.byte	0x50
 3550 0102 84000000 		.4byte	.LVL48
 3551 0106 90000000 		.4byte	.LVL50
 3552 010a 0100     		.2byte	0x1
 3553 010c 55       		.byte	0x55
 3554 010d 90000000 		.4byte	.LVL50
 3555 0111 98000000 		.4byte	.LVL51
 3556 0115 0100     		.2byte	0x1
 3557 0117 50       		.byte	0x50
 3558 0118 98000000 		.4byte	.LVL51
 3559 011c C4000000 		.4byte	.LFE74
 3560 0120 0100     		.2byte	0x1
 3561 0122 55       		.byte	0x55
 3562 0123 00000000 		.4byte	0
 3563 0127 00000000 		.4byte	0
 3564              	.LLST7:
 3565 012b 00000000 		.4byte	.LVL38
 3566 012f 0C000000 		.4byte	.LVL39
 3567 0133 0100     		.2byte	0x1
 3568 0135 51       		.byte	0x51
 3569 0136 0C000000 		.4byte	.LVL39
 3570 013a 48000000 		.4byte	.LVL42
 3571 013e 0100     		.2byte	0x1
 3572 0140 54       		.byte	0x54
 3573 0141 48000000 		.4byte	.LVL42
 3574 0145 56000000 		.4byte	.LVL44
 3575 0149 1300     		.2byte	0x13
 3576 014b F3       		.byte	0xf3
 3577 014c 01       		.uleb128 0x1
 3578 014d 51       		.byte	0x51
 3579 014e 03       		.byte	0x3
ARM GAS  /var/folders/6q/x_mk5n_j3p7_c40r_2k_78980000gn/T//cckhicoL.s 			page 64


 3580 014f 00000000 		.4byte	.LANCHOR3
 3581 0153 F3       		.byte	0xf3
 3582 0154 01       		.uleb128 0x1
 3583 0155 51       		.byte	0x51
 3584 0156 30       		.byte	0x30
 3585 0157 2E       		.byte	0x2e
 3586 0158 28       		.byte	0x28
 3587 0159 0100     		.2byte	0x1
 3588 015b 16       		.byte	0x16
 3589 015c 13       		.byte	0x13
 3590 015d 9F       		.byte	0x9f
 3591 015e 56000000 		.4byte	.LVL44
 3592 0162 C4000000 		.4byte	.LFE74
 3593 0166 0100     		.2byte	0x1
 3594 0168 54       		.byte	0x54
 3595 0169 00000000 		.4byte	0
 3596 016d 00000000 		.4byte	0
 3597              	.LLST8:
 3598 0171 16000000 		.4byte	.LVL41
 3599 0175 56000000 		.4byte	.LVL44
 3600 0179 0100     		.2byte	0x1
 3601 017b 55       		.byte	0x55
 3602 017c 00000000 		.4byte	0
 3603 0180 00000000 		.4byte	0
 3604              	.LLST9:
 3605 0184 16000000 		.4byte	.LVL41
 3606 0188 48000000 		.4byte	.LVL42
 3607 018c 0100     		.2byte	0x1
 3608 018e 54       		.byte	0x54
 3609 018f 48000000 		.4byte	.LVL42
 3610 0193 54000000 		.4byte	.LVL43
 3611 0197 1300     		.2byte	0x13
 3612 0199 F3       		.byte	0xf3
 3613 019a 01       		.uleb128 0x1
 3614 019b 51       		.byte	0x51
 3615 019c 03       		.byte	0x3
 3616 019d 00000000 		.4byte	.LANCHOR3
 3617 01a1 F3       		.byte	0xf3
 3618 01a2 01       		.uleb128 0x1
 3619 01a3 51       		.byte	0x51
 3620 01a4 30       		.byte	0x30
 3621 01a5 2E       		.byte	0x2e
 3622 01a6 28       		.byte	0x28
 3623 01a7 0100     		.2byte	0x1
 3624 01a9 16       		.byte	0x16
 3625 01aa 13       		.byte	0x13
 3626 01ab 9F       		.byte	0x9f
 3627 01ac 00000000 		.4byte	0
 3628 01b0 00000000 		.4byte	0
 3629              	.LLST10:
 3630 01b4 16000000 		.4byte	.LVL41
 3631 01b8 54000000 		.4byte	.LVL43
 3632 01bc 0100     		.2byte	0x1
 3633 01be 53       		.byte	0x53
 3634 01bf 00000000 		.4byte	0
 3635 01c3 00000000 		.4byte	0
 3636              	.LLST11:
ARM GAS  /var/folders/6q/x_mk5n_j3p7_c40r_2k_78980000gn/T//cckhicoL.s 			page 65


 3637 01c7 00000000 		.4byte	.LVL53
 3638 01cb 2A000000 		.4byte	.LVL56
 3639 01cf 0100     		.2byte	0x1
 3640 01d1 50       		.byte	0x50
 3641 01d2 2A000000 		.4byte	.LVL56
 3642 01d6 36000000 		.4byte	.LVL57
 3643 01da 0400     		.2byte	0x4
 3644 01dc F3       		.byte	0xf3
 3645 01dd 01       		.uleb128 0x1
 3646 01de 50       		.byte	0x50
 3647 01df 9F       		.byte	0x9f
 3648 01e0 36000000 		.4byte	.LVL57
 3649 01e4 42000000 		.4byte	.LVL58
 3650 01e8 0100     		.2byte	0x1
 3651 01ea 50       		.byte	0x50
 3652 01eb 42000000 		.4byte	.LVL58
 3653 01ef 4C000000 		.4byte	.LVL59
 3654 01f3 0400     		.2byte	0x4
 3655 01f5 F3       		.byte	0xf3
 3656 01f6 01       		.uleb128 0x1
 3657 01f7 50       		.byte	0x50
 3658 01f8 9F       		.byte	0x9f
 3659 01f9 4C000000 		.4byte	.LVL59
 3660 01fd 50000000 		.4byte	.LVL60
 3661 0201 0100     		.2byte	0x1
 3662 0203 50       		.byte	0x50
 3663 0204 50000000 		.4byte	.LVL60
 3664 0208 6C000000 		.4byte	.LFE75
 3665 020c 0400     		.2byte	0x4
 3666 020e F3       		.byte	0xf3
 3667 020f 01       		.uleb128 0x1
 3668 0210 50       		.byte	0x50
 3669 0211 9F       		.byte	0x9f
 3670 0212 00000000 		.4byte	0
 3671 0216 00000000 		.4byte	0
 3672              	.LLST12:
 3673 021a 0E000000 		.4byte	.LVL54
 3674 021e 18000000 		.4byte	.LVL55
 3675 0222 0100     		.2byte	0x1
 3676 0224 53       		.byte	0x53
 3677 0225 00000000 		.4byte	0
 3678 0229 00000000 		.4byte	0
 3679              		.section	.debug_aranges,"",%progbits
 3680 0000 64000000 		.4byte	0x64
 3681 0004 0200     		.2byte	0x2
 3682 0006 00000000 		.4byte	.Ldebug_info0
 3683 000a 04       		.byte	0x4
 3684 000b 00       		.byte	0
 3685 000c 0000     		.2byte	0
 3686 000e 0000     		.2byte	0
 3687 0010 00000000 		.4byte	.LFB67
 3688 0014 14000000 		.4byte	.LFE67-.LFB67
 3689 0018 00000000 		.4byte	.LFB68
 3690 001c 14000000 		.4byte	.LFE68-.LFB68
 3691 0020 00000000 		.4byte	.LFB69
 3692 0024 14000000 		.4byte	.LFE69-.LFB69
 3693 0028 00000000 		.4byte	.LFB66
ARM GAS  /var/folders/6q/x_mk5n_j3p7_c40r_2k_78980000gn/T//cckhicoL.s 			page 66


 3694 002c F0000000 		.4byte	.LFE66-.LFB66
 3695 0030 00000000 		.4byte	.LFB70
 3696 0034 14000000 		.4byte	.LFE70-.LFB70
 3697 0038 00000000 		.4byte	.LFB71
 3698 003c 14000000 		.4byte	.LFE71-.LFB71
 3699 0040 00000000 		.4byte	.LFB72
 3700 0044 14000000 		.4byte	.LFE72-.LFB72
 3701 0048 00000000 		.4byte	.LFB73
 3702 004c 60000000 		.4byte	.LFE73-.LFB73
 3703 0050 00000000 		.4byte	.LFB74
 3704 0054 C4000000 		.4byte	.LFE74-.LFB74
 3705 0058 00000000 		.4byte	.LFB75
 3706 005c 6C000000 		.4byte	.LFE75-.LFB75
 3707 0060 00000000 		.4byte	0
 3708 0064 00000000 		.4byte	0
 3709              		.section	.debug_ranges,"",%progbits
 3710              	.Ldebug_ranges0:
 3711 0000 20000000 		.4byte	.LBB18
 3712 0004 26000000 		.4byte	.LBE18
 3713 0008 3C000000 		.4byte	.LBB21
 3714 000c 68000000 		.4byte	.LBE21
 3715 0010 00000000 		.4byte	0
 3716 0014 00000000 		.4byte	0
 3717 0018 0E000000 		.4byte	.LBB32
 3718 001c 10000000 		.4byte	.LBE32
 3719 0020 12000000 		.4byte	.LBB35
 3720 0024 18000000 		.4byte	.LBE35
 3721 0028 00000000 		.4byte	0
 3722 002c 00000000 		.4byte	0
 3723 0030 00000000 		.4byte	.LFB67
 3724 0034 14000000 		.4byte	.LFE67
 3725 0038 00000000 		.4byte	.LFB68
 3726 003c 14000000 		.4byte	.LFE68
 3727 0040 00000000 		.4byte	.LFB69
 3728 0044 14000000 		.4byte	.LFE69
 3729 0048 00000000 		.4byte	.LFB66
 3730 004c F0000000 		.4byte	.LFE66
 3731 0050 00000000 		.4byte	.LFB70
 3732 0054 14000000 		.4byte	.LFE70
 3733 0058 00000000 		.4byte	.LFB71
 3734 005c 14000000 		.4byte	.LFE71
 3735 0060 00000000 		.4byte	.LFB72
 3736 0064 14000000 		.4byte	.LFE72
 3737 0068 00000000 		.4byte	.LFB73
 3738 006c 60000000 		.4byte	.LFE73
 3739 0070 00000000 		.4byte	.LFB74
 3740 0074 C4000000 		.4byte	.LFE74
 3741 0078 00000000 		.4byte	.LFB75
 3742 007c 6C000000 		.4byte	.LFE75
 3743 0080 00000000 		.4byte	0
 3744 0084 00000000 		.4byte	0
 3745              		.section	.debug_line,"",%progbits
 3746              	.Ldebug_line0:
 3747 0000 51040000 		.section	.debug_str,"MS",%progbits,1
 3747      0200F202 
 3747      00000201 
 3747      FB0E0D00 
ARM GAS  /var/folders/6q/x_mk5n_j3p7_c40r_2k_78980000gn/T//cckhicoL.s 			page 67


 3747      01010101 
 3748              	.LASF140:
 3749 0000 6E766963 		.ascii	"nvicEnableVector\000"
 3749      456E6162 
 3749      6C655665 
 3749      63746F72 
 3749      00
 3750              	.LASF4:
 3751 0011 73697A65 		.ascii	"size_t\000"
 3751      5F7400
 3752              	.LASF66:
 3753 0018 7264796D 		.ascii	"rdymsg\000"
 3753      736700
 3754              	.LASF82:
 3755 001f 4F757470 		.ascii	"OutputQueue\000"
 3755      75745175 
 3755      65756500 
 3756              	.LASF5:
 3757 002b 5F5F7569 		.ascii	"__uint8_t\000"
 3757      6E74385F 
 3757      7400
 3758              	.LASF125:
 3759 0035 7365745F 		.ascii	"set_error\000"
 3759      6572726F 
 3759      7200
 3760              	.LASF14:
 3761 003f 6C6F6E67 		.ascii	"long long unsigned int\000"
 3761      206C6F6E 
 3761      6720756E 
 3761      7369676E 
 3761      65642069 
 3762              	.LASF67:
 3763 0056 65786974 		.ascii	"exitcode\000"
 3763      636F6465 
 3763      00
 3764              	.LASF134:
 3765 005f 49544D5F 		.ascii	"ITM_RxBuffer\000"
 3765      52784275 
 3765      66666572 
 3765      00
 3766              	.LASF139:
 3767 006c 73644F62 		.ascii	"sdObjectInit\000"
 3767      6A656374 
 3767      496E6974 
 3767      00
 3768              	.LASF118:
 3769 0079 72656164 		.ascii	"readt\000"
 3769      7400
 3770              	.LASF72:
 3771 007f 715F7761 		.ascii	"q_waiting\000"
 3771      6974696E 
 3771      6700
 3772              	.LASF1:
 3773 0089 6C6F6E67 		.ascii	"long long int\000"
 3773      206C6F6E 
 3773      6720696E 
 3773      7400
ARM GAS  /var/folders/6q/x_mk5n_j3p7_c40r_2k_78980000gn/T//cckhicoL.s 			page 68


 3774              	.LASF3:
 3775 0097 7369676E 		.ascii	"signed char\000"
 3775      65642063 
 3775      68617200 
 3776              	.LASF97:
 3777 00a3 47545052 		.ascii	"GTPR\000"
 3777      00
 3778              	.LASF48:
 3779 00a8 705F6D70 		.ascii	"p_mpool\000"
 3779      6F6F6C00 
 3780              	.LASF56:
 3781 00b0 6D5F7175 		.ascii	"m_queue\000"
 3781      65756500 
 3782              	.LASF23:
 3783 00b8 74736C69 		.ascii	"tslices_t\000"
 3783      6365735F 
 3783      7400
 3784              	.LASF90:
 3785 00c2 5243435F 		.ascii	"RCC_TypeDef\000"
 3785      54797065 
 3785      44656600 
 3786              	.LASF133:
 3787 00ce 64656661 		.ascii	"default_config\000"
 3787      756C745F 
 3787      636F6E66 
 3787      696700
 3788              	.LASF106:
 3789 00dd 73746174 		.ascii	"state\000"
 3789      6500
 3790              	.LASF11:
 3791 00e3 6C6F6E67 		.ascii	"long int\000"
 3791      20696E74 
 3791      00
 3792              	.LASF84:
 3793 00ec 41504232 		.ascii	"APB2RSTR\000"
 3793      52535452 
 3793      00
 3794              	.LASF21:
 3795 00f5 74737461 		.ascii	"tstate_t\000"
 3795      74655F74 
 3795      00
 3796              	.LASF136:
 3797 00fe 63684F51 		.ascii	"chOQGetI\000"
 3797      47657449 
 3797      00
 3798              	.LASF39:
 3799 0107 705F7265 		.ascii	"p_refs\000"
 3799      667300
 3800              	.LASF74:
 3801 010e 715F6275 		.ascii	"q_buffer\000"
 3801      66666572 
 3801      00
 3802              	.LASF76:
 3803 0117 715F7772 		.ascii	"q_wrptr\000"
 3803      70747200 
 3804              	.LASF41:
 3805 011f 705F7469 		.ascii	"p_time\000"
ARM GAS  /var/folders/6q/x_mk5n_j3p7_c40r_2k_78980000gn/T//cckhicoL.s 			page 69


 3805      6D6500
 3806              	.LASF135:
 3807 0126 63684576 		.ascii	"chEvtBroadcastFlagsI\000"
 3807      7442726F 
 3807      61646361 
 3807      7374466C 
 3807      61677349 
 3808              	.LASF34:
 3809 013b 705F6E65 		.ascii	"p_newer\000"
 3809      77657200 
 3810              	.LASF12:
 3811 0143 5F5F7569 		.ascii	"__uint32_t\000"
 3811      6E743332 
 3811      5F7400
 3812              	.LASF51:
 3813 014e 72656761 		.ascii	"regarm_t\000"
 3813      726D5F74 
 3813      00
 3814              	.LASF121:
 3815 0157 75736172 		.ascii	"usart_deinit\000"
 3815      745F6465 
 3815      696E6974 
 3815      00
 3816              	.LASF64:
 3817 0164 4576656E 		.ascii	"EventSource\000"
 3817      74536F75 
 3817      72636500 
 3818              	.LASF109:
 3819 0170 75736172 		.ascii	"usart\000"
 3819      7400
 3820              	.LASF0:
 3821 0176 756E7369 		.ascii	"unsigned int\000"
 3821      676E6564 
 3821      20696E74 
 3821      00
 3822              	.LASF16:
 3823 0183 75696E74 		.ascii	"uint16_t\000"
 3823      31365F74 
 3823      00
 3824              	.LASF112:
 3825 018c 53657269 		.ascii	"SerialDriverVMT\000"
 3825      616C4472 
 3825      69766572 
 3825      564D5400 
 3826              	.LASF107:
 3827 019c 69717565 		.ascii	"iqueue\000"
 3827      756500
 3828              	.LASF43:
 3829 01a3 705F6D73 		.ascii	"p_msgqueue\000"
 3829      67717565 
 3829      756500
 3830              	.LASF130:
 3831 01ae 73645F6C 		.ascii	"sd_lld_init\000"
 3831      6C645F69 
 3831      6E697400 
 3832              	.LASF116:
 3833 01ba 67657474 		.ascii	"gett\000"
ARM GAS  /var/folders/6q/x_mk5n_j3p7_c40r_2k_78980000gn/T//cckhicoL.s 			page 70


 3833      00
 3834              	.LASF142:
 3835 01bf 474E5520 		.ascii	"GNU C11 5.4.1 20160919 (release) [ARM/embedded-5-br"
 3835      43313120 
 3835      352E342E 
 3835      31203230 
 3835      31363039 
 3836 01f2 616E6368 		.ascii	"anch revision 240496] -mcpu=cortex-m3 -mno-thumb-in"
 3836      20726576 
 3836      6973696F 
 3836      6E203234 
 3836      30343936 
 3837 0225 74657277 		.ascii	"terwork -mthumb -ggdb -O2 -fomit-frame-pointer -fal"
 3837      6F726B20 
 3837      2D6D7468 
 3837      756D6220 
 3837      2D676764 
 3838 0258 69676E2D 		.ascii	"ign-functions=16 -ffunction-sections -fdata-section"
 3838      66756E63 
 3838      74696F6E 
 3838      733D3136 
 3838      202D6666 
 3839 028b 73202D66 		.ascii	"s -fno-common\000"
 3839      6E6F2D63 
 3839      6F6D6D6F 
 3839      6E00
 3840              	.LASF105:
 3841 0299 6576656E 		.ascii	"event\000"
 3841      7400
 3842              	.LASF9:
 3843 029f 73686F72 		.ascii	"short unsigned int\000"
 3843      7420756E 
 3843      7369676E 
 3843      65642069 
 3843      6E7400
 3844              	.LASF25:
 3845 02b2 6D73675F 		.ascii	"msg_t\000"
 3845      7400
 3846              	.LASF108:
 3847 02b8 6F717565 		.ascii	"oqueue\000"
 3847      756500
 3848              	.LASF138:
 3849 02bf 5F706F72 		.ascii	"_port_irq_epilogue\000"
 3849      745F6972 
 3849      715F6570 
 3849      696C6F67 
 3849      756500
 3850              	.LASF99:
 3851 02d2 55534152 		.ascii	"USART_TypeDef\000"
 3851      545F5479 
 3851      70654465 
 3851      6600
 3852              	.LASF117:
 3853 02e0 77726974 		.ascii	"writet\000"
 3853      657400
 3854              	.LASF20:
 3855 02e7 746D6F64 		.ascii	"tmode_t\000"
ARM GAS  /var/folders/6q/x_mk5n_j3p7_c40r_2k_78980000gn/T//cckhicoL.s 			page 71


 3855      655F7400 
 3856              	.LASF50:
 3857 02ef 54687265 		.ascii	"ThreadsList\000"
 3857      6164734C 
 3857      69737400 
 3858              	.LASF26:
 3859 02fb 6576656E 		.ascii	"eventmask_t\000"
 3859      746D6173 
 3859      6B5F7400 
 3860              	.LASF127:
 3861 0307 56656374 		.ascii	"VectorD4\000"
 3861      6F724434 
 3861      00
 3862              	.LASF110:
 3863 0310 73706565 		.ascii	"speed\000"
 3863      6400
 3864              	.LASF128:
 3865 0316 56656374 		.ascii	"VectorD8\000"
 3865      6F724438 
 3865      00
 3866              	.LASF80:
 3867 031f 716E6F74 		.ascii	"qnotify_t\000"
 3867      6966795F 
 3867      7400
 3868              	.LASF71:
 3869 0329 47656E65 		.ascii	"GenericQueue\000"
 3869      72696351 
 3869      75657565 
 3869      00
 3870              	.LASF129:
 3871 0336 56656374 		.ascii	"VectorDC\000"
 3871      6F724443 
 3871      00
 3872              	.LASF113:
 3873 033f 77726974 		.ascii	"write\000"
 3873      6500
 3874              	.LASF115:
 3875 0345 70757474 		.ascii	"putt\000"
 3875      00
 3876              	.LASF120:
 3877 034a 75736172 		.ascii	"usart_init\000"
 3877      745F696E 
 3877      697400
 3878              	.LASF54:
 3879 0355 73697A65 		.ascii	"sizetype\000"
 3879      74797065 
 3879      00
 3880              	.LASF73:
 3881 035e 715F636F 		.ascii	"q_counter\000"
 3881      756E7465 
 3881      7200
 3882              	.LASF2:
 3883 0368 6C6F6E67 		.ascii	"long double\000"
 3883      20646F75 
 3883      626C6500 
 3884              	.LASF55:
 3885 0374 4D757465 		.ascii	"Mutex\000"
ARM GAS  /var/folders/6q/x_mk5n_j3p7_c40r_2k_78980000gn/T//cckhicoL.s 			page 72


 3885      7800
 3886              	.LASF30:
 3887 037a 705F6E65 		.ascii	"p_next\000"
 3887      787400
 3888              	.LASF35:
 3889 0381 705F6F6C 		.ascii	"p_older\000"
 3889      64657200 
 3890              	.LASF49:
 3891 0389 54687265 		.ascii	"ThreadsQueue\000"
 3891      61647351 
 3891      75657565 
 3891      00
 3892              	.LASF85:
 3893 0396 41504231 		.ascii	"APB1RSTR\000"
 3893      52535452 
 3893      00
 3894              	.LASF62:
 3895 039f 656C5F6D 		.ascii	"el_mask\000"
 3895      61736B00 
 3896              	.LASF111:
 3897 03a7 53657269 		.ascii	"SerialConfig\000"
 3897      616C436F 
 3897      6E666967 
 3897      00
 3898              	.LASF122:
 3899 03b4 6E6F7469 		.ascii	"notify1\000"
 3899      66793100 
 3900              	.LASF123:
 3901 03bc 6E6F7469 		.ascii	"notify2\000"
 3901      66793200 
 3902              	.LASF124:
 3903 03c4 6E6F7469 		.ascii	"notify3\000"
 3903      66793300 
 3904              	.LASF22:
 3905 03cc 74726566 		.ascii	"trefs_t\000"
 3905      735F7400 
 3906              	.LASF91:
 3907 03d4 52455345 		.ascii	"RESERVED0\000"
 3907      52564544 
 3907      3000
 3908              	.LASF92:
 3909 03de 52455345 		.ascii	"RESERVED1\000"
 3909      52564544 
 3909      3100
 3910              	.LASF93:
 3911 03e8 52455345 		.ascii	"RESERVED2\000"
 3911      52564544 
 3911      3200
 3912              	.LASF94:
 3913 03f2 52455345 		.ascii	"RESERVED3\000"
 3913      52564544 
 3913      3300
 3914              	.LASF95:
 3915 03fc 52455345 		.ascii	"RESERVED4\000"
 3915      52564544 
 3915      3400
 3916              	.LASF31:
ARM GAS  /var/folders/6q/x_mk5n_j3p7_c40r_2k_78980000gn/T//cckhicoL.s 			page 73


 3917 0406 705F7072 		.ascii	"p_prev\000"
 3917      657600
 3918              	.LASF98:
 3919 040d 52455345 		.ascii	"RESERVED6\000"
 3919      52564544 
 3919      3600
 3920              	.LASF24:
 3921 0417 74707269 		.ascii	"tprio_t\000"
 3921      6F5F7400 
 3922              	.LASF77:
 3923 041f 715F7264 		.ascii	"q_rdptr\000"
 3923      70747200 
 3924              	.LASF19:
 3925 0427 5F426F6F 		.ascii	"_Bool\000"
 3925      6C00
 3926              	.LASF17:
 3927 042d 696E7433 		.ascii	"int32_t\000"
 3927      325F7400 
 3928              	.LASF6:
 3929 0435 756E7369 		.ascii	"unsigned char\000"
 3929      676E6564 
 3929      20636861 
 3929      7200
 3930              	.LASF131:
 3931 0443 73645F6C 		.ascii	"sd_lld_start\000"
 3931      6C645F73 
 3931      74617274 
 3931      00
 3932              	.LASF61:
 3933 0450 656C5F6C 		.ascii	"el_listener\000"
 3933      69737465 
 3933      6E657200 
 3934              	.LASF63:
 3935 045c 656C5F66 		.ascii	"el_flags\000"
 3935      6C616773 
 3935      00
 3936              	.LASF37:
 3937 0465 705F7374 		.ascii	"p_state\000"
 3937      61746500 
 3938              	.LASF46:
 3939 046d 705F6D74 		.ascii	"p_mtxlist\000"
 3939      786C6973 
 3939      7400
 3940              	.LASF7:
 3941 0477 73686F72 		.ascii	"short int\000"
 3941      7420696E 
 3941      7400
 3942              	.LASF40:
 3943 0481 705F7072 		.ascii	"p_preempt\000"
 3943      65656D70 
 3943      7400
 3944              	.LASF69:
 3945 048b 65776D61 		.ascii	"ewmask\000"
 3945      736B00
 3946              	.LASF38:
 3947 0492 705F666C 		.ascii	"p_flags\000"
 3947      61677300 
ARM GAS  /var/folders/6q/x_mk5n_j3p7_c40r_2k_78980000gn/T//cckhicoL.s 			page 74


 3948              	.LASF60:
 3949 049a 656C5F6E 		.ascii	"el_next\000"
 3949      65787400 
 3950              	.LASF101:
 3951 04a2 53445F53 		.ascii	"SD_STOP\000"
 3951      544F5000 
 3952              	.LASF87:
 3953 04aa 41504232 		.ascii	"APB2ENR\000"
 3953      454E5200 
 3954              	.LASF29:
 3955 04b2 54687265 		.ascii	"Thread\000"
 3955      616400
 3956              	.LASF126:
 3957 04b9 73657276 		.ascii	"serve_interrupt\000"
 3957      655F696E 
 3957      74657272 
 3957      75707400 
 3958              	.LASF45:
 3959 04c9 705F6570 		.ascii	"p_epending\000"
 3959      656E6469 
 3959      6E6700
 3960              	.LASF100:
 3961 04d4 53445F55 		.ascii	"SD_UNINIT\000"
 3961      4E494E49 
 3961      5400
 3962              	.LASF96:
 3963 04de 52455345 		.ascii	"RESERVED5\000"
 3963      52564544 
 3963      3500
 3964              	.LASF18:
 3965 04e8 75696E74 		.ascii	"uint32_t\000"
 3965      33325F74 
 3965      00
 3966              	.LASF103:
 3967 04f1 73647374 		.ascii	"sdstate_t\000"
 3967      6174655F 
 3967      7400
 3968              	.LASF104:
 3969 04fb 53657269 		.ascii	"SerialDriver\000"
 3969      616C4472 
 3969      69766572 
 3969      00
 3970              	.LASF141:
 3971 0508 6E766963 		.ascii	"nvicDisableVector\000"
 3971      44697361 
 3971      626C6556 
 3971      6563746F 
 3971      7200
 3972              	.LASF13:
 3973 051a 6C6F6E67 		.ascii	"long unsigned int\000"
 3973      20756E73 
 3973      69676E65 
 3973      6420696E 
 3973      7400
 3974              	.LASF114:
 3975 052c 72656164 		.ascii	"read\000"
 3975      00
ARM GAS  /var/folders/6q/x_mk5n_j3p7_c40r_2k_78980000gn/T//cckhicoL.s 			page 75


 3976              	.LASF70:
 3977 0531 63686172 		.ascii	"char\000"
 3977      00
 3978              	.LASF137:
 3979 0536 7364496E 		.ascii	"sdIncomingDataI\000"
 3979      636F6D69 
 3979      6E674461 
 3979      74614900 
 3980              	.LASF119:
 3981 0546 636F6E66 		.ascii	"config\000"
 3981      696700
 3982              	.LASF8:
 3983 054d 5F5F7569 		.ascii	"__uint16_t\000"
 3983      6E743136 
 3983      5F7400
 3984              	.LASF58:
 3985 0558 6D5F6E65 		.ascii	"m_next\000"
 3985      787400
 3986              	.LASF28:
 3987 055f 73797374 		.ascii	"systime_t\000"
 3987      696D655F 
 3987      7400
 3988              	.LASF47:
 3989 0569 705F7265 		.ascii	"p_realprio\000"
 3989      616C7072 
 3989      696F00
 3990              	.LASF10:
 3991 0574 5F5F696E 		.ascii	"__int32_t\000"
 3991      7433325F 
 3991      7400
 3992              	.LASF36:
 3993 057e 705F6E61 		.ascii	"p_name\000"
 3993      6D6500
 3994              	.LASF88:
 3995 0585 41504231 		.ascii	"APB1ENR\000"
 3995      454E5200 
 3996              	.LASF53:
 3997 058d 636F6E74 		.ascii	"context\000"
 3997      65787400 
 3998              	.LASF52:
 3999 0595 696E7463 		.ascii	"intctx\000"
 3999      747800
 4000              	.LASF102:
 4001 059c 53445F52 		.ascii	"SD_READY\000"
 4001      45414459 
 4001      00
 4002              	.LASF27:
 4003 05a5 666C6167 		.ascii	"flagsmask_t\000"
 4003      736D6173 
 4003      6B5F7400 
 4004              	.LASF143:
 4005 05b1 2E2E2F43 		.ascii	"../ChibiOS/os/hal/platforms/STM32/USARTv1/serial_ll"
 4005      68696269 
 4005      4F532F6F 
 4005      732F6861 
 4005      6C2F706C 
 4006 05e4 642E6300 		.ascii	"d.c\000"
ARM GAS  /var/folders/6q/x_mk5n_j3p7_c40r_2k_78980000gn/T//cckhicoL.s 			page 76


 4007              	.LASF75:
 4008 05e8 715F746F 		.ascii	"q_top\000"
 4008      7000
 4009              	.LASF144:
 4010 05ee 2F557365 		.ascii	"/Users/Luca/src/vexilla/src/teamA\000"
 4010      72732F4C 
 4010      7563612F 
 4010      7372632F 
 4010      76657869 
 4011              	.LASF65:
 4012 0610 65735F6E 		.ascii	"es_next\000"
 4012      65787400 
 4013              	.LASF89:
 4014 0618 42444352 		.ascii	"BDCR\000"
 4014      00
 4015              	.LASF78:
 4016 061d 715F6E6F 		.ascii	"q_notify\000"
 4016      74696679 
 4016      00
 4017              	.LASF15:
 4018 0626 75696E74 		.ascii	"uint8_t\000"
 4018      385F7400 
 4019              	.LASF81:
 4020 062e 496E7075 		.ascii	"InputQueue\000"
 4020      74517565 
 4020      756500
 4021              	.LASF32:
 4022 0639 705F7072 		.ascii	"p_prio\000"
 4022      696F00
 4023              	.LASF59:
 4024 0640 4576656E 		.ascii	"EventListener\000"
 4024      744C6973 
 4024      74656E65 
 4024      7200
 4025              	.LASF68:
 4026 064e 77746F62 		.ascii	"wtobjp\000"
 4026      6A7000
 4027              	.LASF83:
 4028 0655 43464752 		.ascii	"CFGR\000"
 4028      00
 4029              	.LASF44:
 4030 065a 705F6D73 		.ascii	"p_msg\000"
 4030      6700
 4031              	.LASF132:
 4032 0660 73645F6C 		.ascii	"sd_lld_stop\000"
 4032      6C645F73 
 4032      746F7000 
 4033              	.LASF79:
 4034 066c 715F6C69 		.ascii	"q_link\000"
 4034      6E6B00
 4035              	.LASF57:
 4036 0673 6D5F6F77 		.ascii	"m_owner\000"
 4036      6E657200 
 4037              	.LASF33:
 4038 067b 705F6374 		.ascii	"p_ctx\000"
 4038      7800
 4039              	.LASF42:
ARM GAS  /var/folders/6q/x_mk5n_j3p7_c40r_2k_78980000gn/T//cckhicoL.s 			page 77


 4040 0681 705F7761 		.ascii	"p_waiting\000"
 4040      6974696E 
 4040      6700
 4041              	.LASF86:
 4042 068b 41484245 		.ascii	"AHBENR\000"
 4042      4E5200
 4043              		.ident	"GCC: (GNU Tools for ARM Embedded Processors) 5.4.1 20160919 (release) [ARM/embedded-5-bran
ARM GAS  /var/folders/6q/x_mk5n_j3p7_c40r_2k_78980000gn/T//cckhicoL.s 			page 78


DEFINED SYMBOLS
                            *ABS*:0000000000000000 serial_lld.c
/var/folders/6q/x_mk5n_j3p7_c40r_2k_78980000gn/T//cckhicoL.s:20     .text.notify1:0000000000000000 $t
/var/folders/6q/x_mk5n_j3p7_c40r_2k_78980000gn/T//cckhicoL.s:25     .text.notify1:0000000000000000 notify1
/var/folders/6q/x_mk5n_j3p7_c40r_2k_78980000gn/T//cckhicoL.s:44     .text.notify1:0000000000000010 $d
/var/folders/6q/x_mk5n_j3p7_c40r_2k_78980000gn/T//cckhicoL.s:49     .text.notify2:0000000000000000 $t
/var/folders/6q/x_mk5n_j3p7_c40r_2k_78980000gn/T//cckhicoL.s:54     .text.notify2:0000000000000000 notify2
/var/folders/6q/x_mk5n_j3p7_c40r_2k_78980000gn/T//cckhicoL.s:72     .text.notify2:0000000000000010 $d
/var/folders/6q/x_mk5n_j3p7_c40r_2k_78980000gn/T//cckhicoL.s:77     .text.notify3:0000000000000000 $t
/var/folders/6q/x_mk5n_j3p7_c40r_2k_78980000gn/T//cckhicoL.s:82     .text.notify3:0000000000000000 notify3
/var/folders/6q/x_mk5n_j3p7_c40r_2k_78980000gn/T//cckhicoL.s:100    .text.notify3:0000000000000010 $d
/var/folders/6q/x_mk5n_j3p7_c40r_2k_78980000gn/T//cckhicoL.s:105    .text.serve_interrupt:0000000000000000 $t
/var/folders/6q/x_mk5n_j3p7_c40r_2k_78980000gn/T//cckhicoL.s:110    .text.serve_interrupt:0000000000000000 serve_interrupt
/var/folders/6q/x_mk5n_j3p7_c40r_2k_78980000gn/T//cckhicoL.s:363    .text.VectorD4:0000000000000000 $t
/var/folders/6q/x_mk5n_j3p7_c40r_2k_78980000gn/T//cckhicoL.s:369    .text.VectorD4:0000000000000000 VectorD4
/var/folders/6q/x_mk5n_j3p7_c40r_2k_78980000gn/T//cckhicoL.s:394    .text.VectorD4:0000000000000010 $d
/var/folders/6q/x_mk5n_j3p7_c40r_2k_78980000gn/T//cckhicoL.s:399    .text.VectorD8:0000000000000000 $t
/var/folders/6q/x_mk5n_j3p7_c40r_2k_78980000gn/T//cckhicoL.s:405    .text.VectorD8:0000000000000000 VectorD8
/var/folders/6q/x_mk5n_j3p7_c40r_2k_78980000gn/T//cckhicoL.s:430    .text.VectorD8:0000000000000010 $d
/var/folders/6q/x_mk5n_j3p7_c40r_2k_78980000gn/T//cckhicoL.s:435    .text.VectorDC:0000000000000000 $t
/var/folders/6q/x_mk5n_j3p7_c40r_2k_78980000gn/T//cckhicoL.s:441    .text.VectorDC:0000000000000000 VectorDC
/var/folders/6q/x_mk5n_j3p7_c40r_2k_78980000gn/T//cckhicoL.s:466    .text.VectorDC:0000000000000010 $d
/var/folders/6q/x_mk5n_j3p7_c40r_2k_78980000gn/T//cckhicoL.s:471    .text.sd_lld_init:0000000000000000 $t
/var/folders/6q/x_mk5n_j3p7_c40r_2k_78980000gn/T//cckhicoL.s:477    .text.sd_lld_init:0000000000000000 sd_lld_init
/var/folders/6q/x_mk5n_j3p7_c40r_2k_78980000gn/T//cckhicoL.s:530    .text.sd_lld_init:000000000000003c $d
/var/folders/6q/x_mk5n_j3p7_c40r_2k_78980000gn/T//cckhicoL.s:543    .text.sd_lld_start:0000000000000000 $t
/var/folders/6q/x_mk5n_j3p7_c40r_2k_78980000gn/T//cckhicoL.s:549    .text.sd_lld_start:0000000000000000 sd_lld_start
/var/folders/6q/x_mk5n_j3p7_c40r_2k_78980000gn/T//cckhicoL.s:705    .text.sd_lld_start:00000000000000a4 $d
/var/folders/6q/x_mk5n_j3p7_c40r_2k_78980000gn/T//cckhicoL.s:717    .text.sd_lld_stop:0000000000000000 $t
/var/folders/6q/x_mk5n_j3p7_c40r_2k_78980000gn/T//cckhicoL.s:723    .text.sd_lld_stop:0000000000000000 sd_lld_stop
/var/folders/6q/x_mk5n_j3p7_c40r_2k_78980000gn/T//cckhicoL.s:814    .text.sd_lld_stop:000000000000005c $d
/var/folders/6q/x_mk5n_j3p7_c40r_2k_78980000gn/T//cckhicoL.s:854    .bss.SD3:0000000000000000 SD3
/var/folders/6q/x_mk5n_j3p7_c40r_2k_78980000gn/T//cckhicoL.s:847    .bss.SD2:0000000000000000 SD2
/var/folders/6q/x_mk5n_j3p7_c40r_2k_78980000gn/T//cckhicoL.s:840    .bss.SD1:0000000000000000 SD1
/var/folders/6q/x_mk5n_j3p7_c40r_2k_78980000gn/T//cckhicoL.s:825    .rodata.default_config:0000000000000000 $d
/var/folders/6q/x_mk5n_j3p7_c40r_2k_78980000gn/T//cckhicoL.s:829    .rodata.default_config:0000000000000000 default_config
/var/folders/6q/x_mk5n_j3p7_c40r_2k_78980000gn/T//cckhicoL.s:836    .bss.SD1:0000000000000000 $d
/var/folders/6q/x_mk5n_j3p7_c40r_2k_78980000gn/T//cckhicoL.s:843    .bss.SD2:0000000000000000 $d
/var/folders/6q/x_mk5n_j3p7_c40r_2k_78980000gn/T//cckhicoL.s:850    .bss.SD3:0000000000000000 $d
                     .debug_frame:0000000000000010 $d

UNDEFINED SYMBOLS
sdIncomingDataI
chEvtBroadcastFlagsI
chOQGetI
_port_irq_epilogue
sdObjectInit
nvicEnableVector
nvicDisableVector
