ARM GAS  /var/folders/6q/x_mk5n_j3p7_c40r_2k_78980000gn/T//cckhicoL.s 			page 1


   1              		.syntax unified
   2              		.cpu cortex-m3
   3              		.fpu softvfp
   4              		.eabi_attribute 20, 1
   5              		.eabi_attribute 21, 1
   6              		.eabi_attribute 23, 3
   7              		.eabi_attribute 24, 1
   8              		.eabi_attribute 25, 1
   9              		.eabi_attribute 26, 1
  10              		.eabi_attribute 30, 2
  11              		.eabi_attribute 34, 1
  12              		.eabi_attribute 18, 4
  13              		.thumb
  14              		.syntax unified
  15              		.file	"serial_lld.c"
  16              		.text
  17              	.Ltext0:
  18              		.cfi_sections	.debug_frame
  19              		.section	.text.notify1,"ax",%progbits
  20              		.align	2
  21              		.p2align 4,,15
  22              		.thumb
  23              		.thumb_func
  24              		.type	notify1, %function
  25              	notify1:
  26              	.LFB67:
  27              		.file 1 "../ChibiOS/os/hal/platforms/STM32/USARTv1/serial_lld.c"
  28              		.loc 1 203 0
  29              		.cfi_startproc
  30              		@ args = 0, pretend = 0, frame = 0
  31              		@ frame_needed = 0, uses_anonymous_args = 0
  32              		@ link register save eliminated.
  33              	.LVL0:
  34              		.loc 1 206 0
  35 0000 034A     		ldr	r2, .L2
  36 0002 9389     		ldrh	r3, [r2, #12]
  37 0004 9BB2     		uxth	r3, r3
  38 0006 43F08003 		orr	r3, r3, #128
  39 000a 9381     		strh	r3, [r2, #12]	@ movhi
  40 000c 7047     		bx	lr
  41              	.L3:
  42 000e 00BF     		.align	2
  43              	.L2:
  44 0010 00380140 		.word	1073821696
  45              		.cfi_endproc
  46              	.LFE67:
  47              		.size	notify1, .-notify1
  48              		.section	.text.notify2,"ax",%progbits
  49              		.align	2
  50              		.p2align 4,,15
  51              		.thumb
  52              		.thumb_func
  53              		.type	notify2, %function
  54              	notify2:
  55              	.LFB68:
  56              		.loc 1 211 0
  57              		.cfi_startproc
ARM GAS  /var/folders/6q/x_mk5n_j3p7_c40r_2k_78980000gn/T//cckhicoL.s 			page 2


  58              		@ args = 0, pretend = 0, frame = 0
  59              		@ frame_needed = 0, uses_anonymous_args = 0
  60              		@ link register save eliminated.
  61              	.LVL1:
  62              		.loc 1 214 0
  63 0000 034A     		ldr	r2, .L5
  64 0002 9389     		ldrh	r3, [r2, #12]
  65 0004 9BB2     		uxth	r3, r3
  66 0006 43F08003 		orr	r3, r3, #128
  67 000a 9381     		strh	r3, [r2, #12]	@ movhi
  68 000c 7047     		bx	lr
  69              	.L6:
  70 000e 00BF     		.align	2
  71              	.L5:
  72 0010 00440040 		.word	1073759232
  73              		.cfi_endproc
  74              	.LFE68:
  75              		.size	notify2, .-notify2
  76              		.section	.text.notify3,"ax",%progbits
  77              		.align	2
  78              		.p2align 4,,15
  79              		.thumb
  80              		.thumb_func
  81              		.type	notify3, %function
  82              	notify3:
  83              	.LFB69:
  84              		.loc 1 219 0
  85              		.cfi_startproc
  86              		@ args = 0, pretend = 0, frame = 0
  87              		@ frame_needed = 0, uses_anonymous_args = 0
  88              		@ link register save eliminated.
  89              	.LVL2:
  90              		.loc 1 222 0
  91 0000 034A     		ldr	r2, .L8
  92 0002 9389     		ldrh	r3, [r2, #12]
  93 0004 9BB2     		uxth	r3, r3
  94 0006 43F08003 		orr	r3, r3, #128
  95 000a 9381     		strh	r3, [r2, #12]	@ movhi
  96 000c 7047     		bx	lr
  97              	.L9:
  98 000e 00BF     		.align	2
  99              	.L8:
 100 0010 00480040 		.word	1073760256
 101              		.cfi_endproc
 102              	.LFE69:
 103              		.size	notify3, .-notify3
 104              		.section	.text.serve_interrupt,"ax",%progbits
 105              		.align	2
 106              		.p2align 4,,15
 107              		.thumb
 108              		.thumb_func
 109              		.type	serve_interrupt, %function
 110              	serve_interrupt:
 111              	.LFB66:
 112              		.loc 1 154 0
 113              		.cfi_startproc
 114              		@ args = 0, pretend = 0, frame = 0
ARM GAS  /var/folders/6q/x_mk5n_j3p7_c40r_2k_78980000gn/T//cckhicoL.s 			page 3


 115              		@ frame_needed = 0, uses_anonymous_args = 0
 116              	.LVL3:
 117 0000 2DE9F041 		push	{r4, r5, r6, r7, r8, lr}
 118              		.cfi_def_cfa_offset 24
 119              		.cfi_offset 4, -24
 120              		.cfi_offset 5, -20
 121              		.cfi_offset 6, -16
 122              		.cfi_offset 7, -12
 123              		.cfi_offset 8, -8
 124              		.cfi_offset 14, -4
 125              		.loc 1 155 0
 126 0004 D0F8D450 		ldr	r5, [r0, #212]
 127              	.LVL4:
 128              		.loc 1 154 0
 129 0008 0646     		mov	r6, r0
 130              		.loc 1 156 0
 131 000a AF89     		ldrh	r7, [r5, #12]
 132              		.loc 1 157 0
 133 000c 2C88     		ldrh	r4, [r5]
 134              		.loc 1 156 0
 135 000e BFB2     		uxth	r7, r7
 136              	.LVL5:
 137              		.loc 1 157 0
 138 0010 A4B2     		uxth	r4, r4
 139              	.LVL6:
 140              		.loc 1 160 0
 141 0012 E305     		lsls	r3, r4, #23
 142 0014 44D4     		bmi	.L54
 143              	.LVL7:
 144              	.L11:
 145              	.LBB17:
 146              		.loc 1 168 0
 147 0016 2023     		movs	r3, #32
 148              		.syntax unified
 149              	@ 168 "../ChibiOS/os/hal/platforms/STM32/USARTv1/serial_lld.c" 1
 150 0018 83F31188 		msr     BASEPRI, r3
 151              	@ 0 "" 2
 152              		.thumb
 153              		.syntax unified
 154              	.LBE17:
 155              		.loc 1 169 0
 156 001c A006     		lsls	r0, r4, #26
 157 001e 23D5     		bpl	.L12
 158              	.LBB18:
 159              	.LBB19:
 160              		.loc 1 146 0
 161 0020 06F10408 		add	r8, r6, #4
 162 0024 08E0     		b	.L18
 163              	.LVL8:
 164              	.L13:
 165              	.LBE19:
 166              	.LBE18:
 167              		.loc 1 173 0
 168 0026 A988     		ldrh	r1, [r5, #4]
 169 0028 3046     		mov	r0, r6
 170 002a C9B2     		uxtb	r1, r1
 171 002c FFF7FEFF 		bl	sdIncomingDataI
ARM GAS  /var/folders/6q/x_mk5n_j3p7_c40r_2k_78980000gn/T//cckhicoL.s 			page 4


 172              	.LVL9:
 173              		.loc 1 174 0
 174 0030 2C88     		ldrh	r4, [r5]
 175 0032 A4B2     		uxth	r4, r4
 176              	.LVL10:
 177              		.loc 1 169 0
 178 0034 A006     		lsls	r0, r4, #26
 179 0036 17D5     		bpl	.L12
 180              	.L18:
 181              		.loc 1 171 0
 182 0038 2207     		lsls	r2, r4, #28
 183 003a F4D0     		beq	.L13
 184              	.LVL11:
 185              	.LBB21:
 186              	.LBB20:
 187              		.loc 1 139 0
 188 003c 14F0080F 		tst	r4, #8
 189 0040 14BF     		ite	ne
 190 0042 8021     		movne	r1, #128
 191 0044 0021     		moveq	r1, #0
 192              	.LVL12:
 193              		.loc 1 140 0
 194 0046 14F0010F 		tst	r4, #1
 195              		.loc 1 141 0
 196 004a 18BF     		it	ne
 197 004c 41F02001 		orrne	r1, r1, #32
 198              	.LVL13:
 199              		.loc 1 142 0
 200 0050 A307     		lsls	r3, r4, #30
 201              		.loc 1 143 0
 202 0052 48BF     		it	mi
 203 0054 41F04001 		orrmi	r1, r1, #64
 204              	.LVL14:
 205              		.loc 1 144 0
 206 0058 6407     		lsls	r4, r4, #29
 207              	.LVL15:
 208              		.loc 1 146 0
 209 005a 4046     		mov	r0, r8
 210              		.loc 1 145 0
 211 005c 48BF     		it	mi
 212 005e 41F48071 		orrmi	r1, r1, #256
 213              	.LVL16:
 214              		.loc 1 146 0
 215 0062 FFF7FEFF 		bl	chEvtBroadcastFlagsI
 216              	.LVL17:
 217 0066 DEE7     		b	.L13
 218              	.LVL18:
 219              	.L12:
 220              	.LBE20:
 221              	.LBE21:
 222              	.LBB22:
 223              		.loc 1 176 0
 224 0068 0023     		movs	r3, #0
 225              		.syntax unified
 226              	@ 176 "../ChibiOS/os/hal/platforms/STM32/USARTv1/serial_lld.c" 1
 227 006a 83F31188 		msr     BASEPRI, r3
 228              	@ 0 "" 2
ARM GAS  /var/folders/6q/x_mk5n_j3p7_c40r_2k_78980000gn/T//cckhicoL.s 			page 5


 229              		.thumb
 230              		.syntax unified
 231              	.LBE22:
 232              		.loc 1 179 0
 233 006e 3906     		lsls	r1, r7, #24
 234 0070 01D5     		bpl	.L19
 235              		.loc 1 179 0 is_stmt 0 discriminator 1
 236 0072 2206     		lsls	r2, r4, #24
 237 0074 23D4     		bmi	.L55
 238              	.L19:
 239              		.loc 1 193 0 is_stmt 1
 240 0076 6306     		lsls	r3, r4, #25
 241 0078 10D5     		bpl	.L10
 242              	.LBB23:
 243              		.loc 1 194 0
 244 007a 2023     		movs	r3, #32
 245              		.syntax unified
 246              	@ 194 "../ChibiOS/os/hal/platforms/STM32/USARTv1/serial_lld.c" 1
 247 007c 83F31188 		msr     BASEPRI, r3
 248              	@ 0 "" 2
 249              		.thumb
 250              		.syntax unified
 251              	.LBE23:
 252              		.loc 1 195 0
 253 0080 1021     		movs	r1, #16
 254 0082 301D     		adds	r0, r6, #4
 255 0084 FFF7FEFF 		bl	chEvtBroadcastFlagsI
 256              	.LVL19:
 257              	.LBB24:
 258              		.loc 1 196 0
 259 0088 0023     		movs	r3, #0
 260              		.syntax unified
 261              	@ 196 "../ChibiOS/os/hal/platforms/STM32/USARTv1/serial_lld.c" 1
 262 008a 83F31188 		msr     BASEPRI, r3
 263              	@ 0 "" 2
 264              		.thumb
 265              		.syntax unified
 266              	.LBE24:
 267              		.loc 1 198 0
 268 008e 4FF6BF73 		movw	r3, #65471
 269              		.loc 1 197 0
 270 0092 27F0C007 		bic	r7, r7, #192
 271              	.LVL20:
 272 0096 BFB2     		uxth	r7, r7
 273 0098 AF81     		strh	r7, [r5, #12]	@ movhi
 274              		.loc 1 198 0
 275 009a 2B80     		strh	r3, [r5]	@ movhi
 276              	.L10:
 277 009c BDE8F081 		pop	{r4, r5, r6, r7, r8, pc}
 278              	.LVL21:
 279              	.L54:
 280              	.LBB25:
 281              		.loc 1 161 0
 282 00a0 2023     		movs	r3, #32
 283              		.syntax unified
 284              	@ 161 "../ChibiOS/os/hal/platforms/STM32/USARTv1/serial_lld.c" 1
 285 00a2 83F31188 		msr     BASEPRI, r3
ARM GAS  /var/folders/6q/x_mk5n_j3p7_c40r_2k_78980000gn/T//cckhicoL.s 			page 6


 286              	@ 0 "" 2
 287              		.thumb
 288              		.syntax unified
 289              	.LBE25:
 290              		.loc 1 162 0
 291 00a6 4FF40071 		mov	r1, #512
 292 00aa 0430     		adds	r0, r0, #4
 293              	.LVL22:
 294 00ac FFF7FEFF 		bl	chEvtBroadcastFlagsI
 295              	.LVL23:
 296              	.LBB26:
 297              		.loc 1 163 0
 298 00b0 0023     		movs	r3, #0
 299              		.syntax unified
 300              	@ 163 "../ChibiOS/os/hal/platforms/STM32/USARTv1/serial_lld.c" 1
 301 00b2 83F31188 		msr     BASEPRI, r3
 302              	@ 0 "" 2
 303              		.thumb
 304              		.syntax unified
 305              	.LBE26:
 306              		.loc 1 164 0
 307 00b6 4FF6FF63 		movw	r3, #65279
 308 00ba 2B80     		strh	r3, [r5]	@ movhi
 309 00bc ABE7     		b	.L11
 310              	.L55:
 311              	.LBB27:
 312              	.LBB28:
 313              		.loc 1 181 0
 314 00be 2023     		movs	r3, #32
 315              		.syntax unified
 316              	@ 181 "../ChibiOS/os/hal/platforms/STM32/USARTv1/serial_lld.c" 1
 317 00c0 83F31188 		msr     BASEPRI, r3
 318              	@ 0 "" 2
 319              		.thumb
 320              		.syntax unified
 321              	.LBE28:
 322              		.loc 1 182 0
 323 00c4 06F13000 		add	r0, r6, #48
 324 00c8 FFF7FEFF 		bl	chOQGetI
 325              	.LVL24:
 326              		.loc 1 183 0
 327 00cc 0028     		cmp	r0, #0
 328 00ce 05DB     		blt	.L56
 329              		.loc 1 188 0
 330 00d0 80B2     		uxth	r0, r0
 331              	.LVL25:
 332 00d2 A880     		strh	r0, [r5, #4]	@ movhi
 333              	.L21:
 334              	.LBB29:
 335              		.loc 1 189 0
 336 00d4 0023     		movs	r3, #0
 337              		.syntax unified
 338              	@ 189 "../ChibiOS/os/hal/platforms/STM32/USARTv1/serial_lld.c" 1
 339 00d6 83F31188 		msr     BASEPRI, r3
 340              	@ 0 "" 2
 341              		.thumb
 342              		.syntax unified
ARM GAS  /var/folders/6q/x_mk5n_j3p7_c40r_2k_78980000gn/T//cckhicoL.s 			page 7


 343 00da CCE7     		b	.L19
 344              	.LVL26:
 345              	.L56:
 346              	.LBE29:
 347              		.loc 1 184 0
 348 00dc 0821     		movs	r1, #8
 349 00de 301D     		adds	r0, r6, #4
 350              	.LVL27:
 351 00e0 FFF7FEFF 		bl	chEvtBroadcastFlagsI
 352              	.LVL28:
 353              		.loc 1 185 0
 354 00e4 27F0C003 		bic	r3, r7, #192
 355 00e8 43F04003 		orr	r3, r3, #64
 356 00ec AB81     		strh	r3, [r5, #12]	@ movhi
 357 00ee F1E7     		b	.L21
 358              	.LBE27:
 359              		.cfi_endproc
 360              	.LFE66:
 361              		.size	serve_interrupt, .-serve_interrupt
 362              		.section	.text.VectorD4,"ax",%progbits
 363              		.align	2
 364              		.p2align 4,,15
 365              		.global	VectorD4
 366              		.thumb
 367              		.thumb_func
 368              		.type	VectorD4, %function
 369              	VectorD4:
 370              	.LFB70:
 371              		.loc 1 263 0
 372              		.cfi_startproc
 373              		@ args = 0, pretend = 0, frame = 0
 374              		@ frame_needed = 0, uses_anonymous_args = 0
 375 0000 08B5     		push	{r3, lr}
 376              		.cfi_def_cfa_offset 8
 377              		.cfi_offset 3, -8
 378              		.cfi_offset 14, -4
 379              		.loc 1 267 0
 380 0002 0348     		ldr	r0, .L59
 381 0004 FFF7FEFF 		bl	serve_interrupt
 382              	.LVL29:
 383              		.loc 1 270 0
 384 0008 BDE80840 		pop	{r3, lr}
 385              		.cfi_restore 14
 386              		.cfi_restore 3
 387              		.cfi_def_cfa_offset 0
 388              		.loc 1 269 0
 389 000c FFF7FEBF 		b	_port_irq_epilogue
 390              	.LVL30:
 391              	.L60:
 392              		.align	2
 393              	.L59:
 394 0010 00000000 		.word	.LANCHOR0
 395              		.cfi_endproc
 396              	.LFE70:
 397              		.size	VectorD4, .-VectorD4
 398              		.section	.text.VectorD8,"ax",%progbits
 399              		.align	2
ARM GAS  /var/folders/6q/x_mk5n_j3p7_c40r_2k_78980000gn/T//cckhicoL.s 			page 8


 400              		.p2align 4,,15
 401              		.global	VectorD8
 402              		.thumb
 403              		.thumb_func
 404              		.type	VectorD8, %function
 405              	VectorD8:
 406              	.LFB71:
 407              		.loc 1 282 0
 408              		.cfi_startproc
 409              		@ args = 0, pretend = 0, frame = 0
 410              		@ frame_needed = 0, uses_anonymous_args = 0
 411 0000 08B5     		push	{r3, lr}
 412              		.cfi_def_cfa_offset 8
 413              		.cfi_offset 3, -8
 414              		.cfi_offset 14, -4
 415              		.loc 1 286 0
 416 0002 0348     		ldr	r0, .L63
 417 0004 FFF7FEFF 		bl	serve_interrupt
 418              	.LVL31:
 419              		.loc 1 289 0
 420 0008 BDE80840 		pop	{r3, lr}
 421              		.cfi_restore 14
 422              		.cfi_restore 3
 423              		.cfi_def_cfa_offset 0
 424              		.loc 1 288 0
 425 000c FFF7FEBF 		b	_port_irq_epilogue
 426              	.LVL32:
 427              	.L64:
 428              		.align	2
 429              	.L63:
 430 0010 00000000 		.word	.LANCHOR1
 431              		.cfi_endproc
 432              	.LFE71:
 433              		.size	VectorD8, .-VectorD8
 434              		.section	.text.VectorDC,"ax",%progbits
 435              		.align	2
 436              		.p2align 4,,15
 437              		.global	VectorDC
 438              		.thumb
 439              		.thumb_func
 440              		.type	VectorDC, %function
 441              	VectorDC:
 442              	.LFB72:
 443              		.loc 1 301 0
 444              		.cfi_startproc
 445              		@ args = 0, pretend = 0, frame = 0
 446              		@ frame_needed = 0, uses_anonymous_args = 0
 447 0000 08B5     		push	{r3, lr}
 448              		.cfi_def_cfa_offset 8
 449              		.cfi_offset 3, -8
 450              		.cfi_offset 14, -4
 451              		.loc 1 305 0
 452 0002 0348     		ldr	r0, .L67
 453 0004 FFF7FEFF 		bl	serve_interrupt
 454              	.LVL33:
 455              		.loc 1 308 0
 456 0008 BDE80840 		pop	{r3, lr}
ARM GAS  /var/folders/6q/x_mk5n_j3p7_c40r_2k_78980000gn/T//cckhicoL.s 			page 9


 457              		.cfi_restore 14
 458              		.cfi_restore 3
 459              		.cfi_def_cfa_offset 0
 460              		.loc 1 307 0
 461 000c FFF7FEBF 		b	_port_irq_epilogue
 462              	.LVL34:
 463              	.L68:
 464              		.align	2
 465              	.L67:
 466 0010 00000000 		.word	.LANCHOR2
 467              		.cfi_endproc
 468              	.LFE72:
 469              		.size	VectorDC, .-VectorDC
 470              		.section	.text.sd_lld_init,"ax",%progbits
 471              		.align	2
 472              		.p2align 4,,15
 473              		.global	sd_lld_init
 474              		.thumb
 475              		.thumb_func
 476              		.type	sd_lld_init, %function
 477              	sd_lld_init:
 478              	.LFB73:
 479              		.loc 1 377 0
 480              		.cfi_startproc
 481              		@ args = 0, pretend = 0, frame = 0
 482              		@ frame_needed = 0, uses_anonymous_args = 0
 483 0000 70B5     		push	{r4, r5, r6, lr}
 484              		.cfi_def_cfa_offset 16
 485              		.cfi_offset 4, -16
 486              		.cfi_offset 5, -12
 487              		.cfi_offset 6, -8
 488              		.cfi_offset 14, -4
 489              		.loc 1 380 0
 490 0002 0E4E     		ldr	r6, .L71
 491 0004 0E4A     		ldr	r2, .L71+4
 492 0006 3046     		mov	r0, r6
 493 0008 0021     		movs	r1, #0
 494              		.loc 1 385 0
 495 000a 0E4D     		ldr	r5, .L71+8
 496              		.loc 1 380 0
 497 000c FFF7FEFF 		bl	sdObjectInit
 498              	.LVL35:
 499              		.loc 1 381 0
 500 0010 0D4B     		ldr	r3, .L71+12
 501              		.loc 1 385 0
 502 0012 2846     		mov	r0, r5
 503 0014 0D4A     		ldr	r2, .L71+16
 504 0016 0021     		movs	r1, #0
 505              		.loc 1 390 0
 506 0018 0D4C     		ldr	r4, .L71+20
 507              		.loc 1 381 0
 508 001a C6F8D430 		str	r3, [r6, #212]
 509              		.loc 1 385 0
 510 001e FFF7FEFF 		bl	sdObjectInit
 511              	.LVL36:
 512              		.loc 1 386 0
 513 0022 0C4B     		ldr	r3, .L71+24
ARM GAS  /var/folders/6q/x_mk5n_j3p7_c40r_2k_78980000gn/T//cckhicoL.s 			page 10


 514              		.loc 1 390 0
 515 0024 2046     		mov	r0, r4
 516 0026 0C4A     		ldr	r2, .L71+28
 517 0028 0021     		movs	r1, #0
 518              		.loc 1 386 0
 519 002a C5F8D430 		str	r3, [r5, #212]
 520              		.loc 1 390 0
 521 002e FFF7FEFF 		bl	sdObjectInit
 522              	.LVL37:
 523              		.loc 1 391 0
 524 0032 0A4B     		ldr	r3, .L71+32
 525 0034 C4F8D430 		str	r3, [r4, #212]
 526 0038 70BD     		pop	{r4, r5, r6, pc}
 527              	.L72:
 528 003a 00BF     		.align	2
 529              	.L71:
 530 003c 00000000 		.word	.LANCHOR0
 531 0040 00000000 		.word	notify1
 532 0044 00000000 		.word	.LANCHOR1
 533 0048 00380140 		.word	1073821696
 534 004c 00000000 		.word	notify2
 535 0050 00000000 		.word	.LANCHOR2
 536 0054 00440040 		.word	1073759232
 537 0058 00000000 		.word	notify3
 538 005c 00480040 		.word	1073760256
 539              		.cfi_endproc
 540              	.LFE73:
 541              		.size	sd_lld_init, .-sd_lld_init
 542              		.section	.text.sd_lld_start,"ax",%progbits
 543              		.align	2
 544              		.p2align 4,,15
 545              		.global	sd_lld_start
 546              		.thumb
 547              		.thumb_func
 548              		.type	sd_lld_start, %function
 549              	sd_lld_start:
 550              	.LFB74:
 551              		.loc 1 420 0
 552              		.cfi_startproc
 553              		@ args = 0, pretend = 0, frame = 0
 554              		@ frame_needed = 0, uses_anonymous_args = 0
 555              	.LVL38:
 556 0000 38B5     		push	{r3, r4, r5, lr}
 557              		.cfi_def_cfa_offset 16
 558              		.cfi_offset 3, -16
 559              		.cfi_offset 4, -12
 560              		.cfi_offset 5, -8
 561              		.cfi_offset 14, -4
 562              		.loc 1 423 0
 563 0002 284C     		ldr	r4, .L84
 564              		.loc 1 425 0
 565 0004 037A     		ldrb	r3, [r0, #8]	@ zero_extendqisi2
 566              		.loc 1 423 0
 567 0006 0029     		cmp	r1, #0
 568 0008 18BF     		it	ne
 569 000a 0C46     		movne	r4, r1
 570              	.LVL39:
ARM GAS  /var/folders/6q/x_mk5n_j3p7_c40r_2k_78980000gn/T//cckhicoL.s 			page 11


 571              		.loc 1 425 0
 572 000c 012B     		cmp	r3, #1
 573              		.loc 1 420 0
 574 000e 0546     		mov	r5, r0
 575              		.loc 1 425 0
 576 0010 21D0     		beq	.L81
 577              	.LVL40:
 578              	.L75:
 579 0012 D5F8D430 		ldr	r3, [r5, #212]
 580              	.LVL41:
 581              	.LBB30:
 582              	.LBB31:
 583              		.loc 1 99 0
 584 0016 244A     		ldr	r2, .L84+4
 585              		.loc 1 103 0
 586 0018 2168     		ldr	r1, [r4]
 587              		.loc 1 99 0
 588 001a 9342     		cmp	r3, r2
 589              		.loc 1 101 0
 590 001c 0CBF     		ite	eq
 591 001e 234A     		ldreq	r2, .L84+8
 592              		.loc 1 103 0
 593 0020 234A     		ldrne	r2, .L84+12
 594 0022 B2FBF1F2 		udiv	r2, r2, r1
 595 0026 92B2     		uxth	r2, r2
 596 0028 1A81     		strh	r2, [r3, #8]	@ movhi
 597              		.loc 1 108 0
 598 002a A288     		ldrh	r2, [r4, #4]
 599              		.loc 1 106 0
 600 002c E088     		ldrh	r0, [r4, #6]
 601              		.loc 1 107 0
 602 002e 2189     		ldrh	r1, [r4, #8]
 603              		.loc 1 108 0
 604 0030 42F40452 		orr	r2, r2, #8448
 605              		.loc 1 106 0
 606 0034 40F04000 		orr	r0, r0, #64
 607              		.loc 1 108 0
 608 0038 42F02C02 		orr	r2, r2, #44
 609              		.loc 1 107 0
 610 003c 41F00101 		orr	r1, r1, #1
 611              		.loc 1 108 0
 612 0040 92B2     		uxth	r2, r2
 613              		.loc 1 106 0
 614 0042 80B2     		uxth	r0, r0
 615              		.loc 1 107 0
 616 0044 89B2     		uxth	r1, r1
 617              		.loc 1 111 0
 618 0046 0024     		movs	r4, #0
 619              	.LVL42:
 620              		.loc 1 106 0
 621 0048 1882     		strh	r0, [r3, #16]	@ movhi
 622              		.loc 1 107 0
 623 004a 9982     		strh	r1, [r3, #20]	@ movhi
 624              		.loc 1 108 0
 625 004c 9A81     		strh	r2, [r3, #12]	@ movhi
 626              		.loc 1 111 0
 627 004e 1C80     		strh	r4, [r3]	@ movhi
ARM GAS  /var/folders/6q/x_mk5n_j3p7_c40r_2k_78980000gn/T//cckhicoL.s 			page 12


 628              		.loc 1 112 0
 629 0050 1A88     		ldrh	r2, [r3]
 630              		.loc 1 113 0
 631 0052 9B88     		ldrh	r3, [r3, #4]
 632              	.LVL43:
 633 0054 38BD     		pop	{r3, r4, r5, pc}
 634              	.LVL44:
 635              	.L81:
 636              	.LBE31:
 637              	.LBE30:
 638              		.loc 1 427 0
 639 0056 174B     		ldr	r3, .L84+16
 640 0058 9842     		cmp	r0, r3
 641 005a 0FD0     		beq	.L82
 642              		.loc 1 434 0
 643 005c 164B     		ldr	r3, .L84+20
 644 005e 9842     		cmp	r0, r3
 645 0060 16D0     		beq	.L83
 646              		.loc 1 441 0
 647 0062 164B     		ldr	r3, .L84+24
 648 0064 9842     		cmp	r0, r3
 649 0066 D4D1     		bne	.L75
 650              		.loc 1 442 0
 651 0068 154A     		ldr	r2, .L84+28
 652              		.loc 1 443 0
 653 006a C021     		movs	r1, #192
 654              		.loc 1 442 0
 655 006c D369     		ldr	r3, [r2, #28]
 656              		.loc 1 443 0
 657 006e 2720     		movs	r0, #39
 658              	.LVL45:
 659              		.loc 1 442 0
 660 0070 43F48023 		orr	r3, r3, #262144
 661 0074 D361     		str	r3, [r2, #28]
 662              		.loc 1 443 0
 663 0076 FFF7FEFF 		bl	nvicEnableVector
 664              	.LVL46:
 665 007a CAE7     		b	.L75
 666              	.LVL47:
 667              	.L82:
 668              		.loc 1 428 0
 669 007c 104A     		ldr	r2, .L84+28
 670              		.loc 1 429 0
 671 007e C021     		movs	r1, #192
 672              		.loc 1 428 0
 673 0080 9369     		ldr	r3, [r2, #24]
 674              		.loc 1 429 0
 675 0082 2520     		movs	r0, #37
 676              	.LVL48:
 677              		.loc 1 428 0
 678 0084 43F48043 		orr	r3, r3, #16384
 679 0088 9361     		str	r3, [r2, #24]
 680              		.loc 1 429 0
 681 008a FFF7FEFF 		bl	nvicEnableVector
 682              	.LVL49:
 683 008e C0E7     		b	.L75
 684              	.LVL50:
ARM GAS  /var/folders/6q/x_mk5n_j3p7_c40r_2k_78980000gn/T//cckhicoL.s 			page 13


 685              	.L83:
 686              		.loc 1 435 0
 687 0090 0B4A     		ldr	r2, .L84+28
 688              		.loc 1 436 0
 689 0092 C021     		movs	r1, #192
 690              		.loc 1 435 0
 691 0094 D369     		ldr	r3, [r2, #28]
 692              		.loc 1 436 0
 693 0096 2620     		movs	r0, #38
 694              	.LVL51:
 695              		.loc 1 435 0
 696 0098 43F40033 		orr	r3, r3, #131072
 697 009c D361     		str	r3, [r2, #28]
 698              		.loc 1 436 0
 699 009e FFF7FEFF 		bl	nvicEnableVector
 700              	.LVL52:
 701 00a2 B6E7     		b	.L75
 702              	.L85:
 703              		.align	2
 704              	.L84:
 705 00a4 00000000 		.word	.LANCHOR3
 706 00a8 00380140 		.word	1073821696
 707 00ac 00A24A04 		.word	72000000
 708 00b0 00512502 		.word	36000000
 709 00b4 00000000 		.word	.LANCHOR0
 710 00b8 00000000 		.word	.LANCHOR1
 711 00bc 00000000 		.word	.LANCHOR2
 712 00c0 00100240 		.word	1073876992
 713              		.cfi_endproc
 714              	.LFE74:
 715              		.size	sd_lld_start, .-sd_lld_start
 716              		.section	.text.sd_lld_stop,"ax",%progbits
 717              		.align	2
 718              		.p2align 4,,15
 719              		.global	sd_lld_stop
 720              		.thumb
 721              		.thumb_func
 722              		.type	sd_lld_stop, %function
 723              	sd_lld_stop:
 724              	.LFB75:
 725              		.loc 1 481 0
 726              		.cfi_startproc
 727              		@ args = 0, pretend = 0, frame = 0
 728              		@ frame_needed = 0, uses_anonymous_args = 0
 729              		@ link register save eliminated.
 730              	.LVL53:
 731              		.loc 1 483 0
 732 0000 037A     		ldrb	r3, [r0, #8]	@ zero_extendqisi2
 733 0002 022B     		cmp	r3, #2
 734 0004 00D0     		beq	.L92
 735              	.L86:
 736 0006 7047     		bx	lr
 737              	.L92:
 738              		.loc 1 486 0
 739 0008 1449     		ldr	r1, .L95
 740              		.loc 1 484 0
 741 000a D0F8D430 		ldr	r3, [r0, #212]
ARM GAS  /var/folders/6q/x_mk5n_j3p7_c40r_2k_78980000gn/T//cckhicoL.s 			page 14


 742              	.LVL54:
 743              	.LBB32:
 744              	.LBB33:
 745              		.loc 1 124 0
 746 000e 0022     		movs	r2, #0
 747              	.LBE33:
 748              	.LBE32:
 749              		.loc 1 486 0
 750 0010 8842     		cmp	r0, r1
 751              	.LBB35:
 752              	.LBB34:
 753              		.loc 1 124 0
 754 0012 9A81     		strh	r2, [r3, #12]	@ movhi
 755              		.loc 1 125 0
 756 0014 1A82     		strh	r2, [r3, #16]	@ movhi
 757              		.loc 1 126 0
 758 0016 9A82     		strh	r2, [r3, #20]	@ movhi
 759              	.LVL55:
 760              	.LBE34:
 761              	.LBE35:
 762              		.loc 1 486 0
 763 0018 0DD0     		beq	.L93
 764              		.loc 1 493 0
 765 001a 114B     		ldr	r3, .L95+4
 766 001c 9842     		cmp	r0, r3
 767 001e 15D0     		beq	.L94
 768              		.loc 1 500 0
 769 0020 104B     		ldr	r3, .L95+8
 770 0022 9842     		cmp	r0, r3
 771 0024 EFD1     		bne	.L86
 772              		.loc 1 501 0
 773 0026 104A     		ldr	r2, .L95+12
 774              		.loc 1 502 0
 775 0028 2720     		movs	r0, #39
 776              	.LVL56:
 777              		.loc 1 501 0
 778 002a D369     		ldr	r3, [r2, #28]
 779 002c 23F48023 		bic	r3, r3, #262144
 780 0030 D361     		str	r3, [r2, #28]
 781              		.loc 1 502 0
 782 0032 FFF7FEBF 		b	nvicDisableVector
 783              	.LVL57:
 784              	.L93:
 785              		.loc 1 487 0
 786 0036 02F18042 		add	r2, r2, #1073741824
 787 003a 02F50432 		add	r2, r2, #135168
 788 003e 9369     		ldr	r3, [r2, #24]
 789              		.loc 1 488 0
 790 0040 2520     		movs	r0, #37
 791              	.LVL58:
 792              		.loc 1 487 0
 793 0042 23F48043 		bic	r3, r3, #16384
 794 0046 9361     		str	r3, [r2, #24]
 795              		.loc 1 488 0
 796 0048 FFF7FEBF 		b	nvicDisableVector
 797              	.LVL59:
 798              	.L94:
ARM GAS  /var/folders/6q/x_mk5n_j3p7_c40r_2k_78980000gn/T//cckhicoL.s 			page 15


 799              		.loc 1 494 0
 800 004c 064A     		ldr	r2, .L95+12
 801              		.loc 1 495 0
 802 004e 2620     		movs	r0, #38
 803              	.LVL60:
 804              		.loc 1 494 0
 805 0050 D369     		ldr	r3, [r2, #28]
 806 0052 23F40033 		bic	r3, r3, #131072
 807 0056 D361     		str	r3, [r2, #28]
 808              		.loc 1 495 0
 809 0058 FFF7FEBF 		b	nvicDisableVector
 810              	.LVL61:
 811              	.L96:
 812              		.align	2
 813              	.L95:
 814 005c 00000000 		.word	.LANCHOR0
 815 0060 00000000 		.word	.LANCHOR1
 816 0064 00000000 		.word	.LANCHOR2
 817 0068 00100240 		.word	1073876992
 818              		.cfi_endproc
 819              	.LFE75:
 820              		.size	sd_lld_stop, .-sd_lld_stop
 821              		.global	SD3
 822              		.global	SD2
 823              		.global	SD1
 824              		.section	.rodata.default_config,"a",%progbits
 825              		.align	2
 826              		.set	.LANCHOR3,. + 0
 827              		.type	default_config, %object
 828              		.size	default_config, 12
 829              	default_config:
 830 0000 004B0000 		.word	19200
 831 0004 0000     		.short	0
 832 0006 0040     		.short	16384
 833 0008 0000     		.short	0
 834 000a 0000     		.space	2
 835              		.section	.bss.SD1,"aw",%nobits
 836              		.align	2
 837              		.set	.LANCHOR0,. + 0
 838              		.type	SD1, %object
 839              		.size	SD1, 216
 840              	SD1:
 841 0000 00000000 		.space	216
 841      00000000 
 841      00000000 
 841      00000000 
 841      00000000 
 842              		.section	.bss.SD2,"aw",%nobits
 843              		.align	2
 844              		.set	.LANCHOR1,. + 0
 845              		.type	SD2, %object
 846              		.size	SD2, 216
 847              	SD2:
 848 0000 00000000 		.space	216
 848      00000000 
 848      00000000 
 848      00000000 
ARM GAS  /var/folders/6q/x_mk5n_j3p7_c40r_2k_78980000gn/T//cckhicoL.s 			page 16


 848      00000000 
 849              		.section	.bss.SD3,"aw",%nobits
 850              		.align	2
 851              		.set	.LANCHOR2,. + 0
 852              		.type	SD3, %object
 853              		.size	SD3, 216
 854              	SD3:
 855 0000 00000000 		.space	216
 855      00000000 
 855      00000000 
 855      00000000 
 855      00000000 
 856              		.text
 857              	.Letext0:
 858              		.file 2 "/Users/Luca/src/vexilla/src/gcc-arm-none-eabi-5_4-2016q3/lib/gcc/arm-none-eabi/5.4.1/incl
 859              		.file 3 "/Users/Luca/src/vexilla/src/gcc-arm-none-eabi-5_4-2016q3/arm-none-eabi/include/machine/_d
 860              		.file 4 "/Users/Luca/src/vexilla/src/gcc-arm-none-eabi-5_4-2016q3/arm-none-eabi/include/sys/_stdin
 861              		.file 5 "../ChibiOS/os/ports/GCC/ARMCMx/chtypes.h"
 862              		.file 6 "../ChibiOS/os/kernel/include/chlists.h"
 863              		.file 7 "../ChibiOS/os/kernel/include/chthreads.h"
 864              		.file 8 "../ChibiOS/os/ports/GCC/ARMCMx/chcore_v7m.h"
 865              		.file 9 "../ChibiOS/os/kernel/include/chmtx.h"
 866              		.file 10 "../ChibiOS/os/kernel/include/chevents.h"
 867              		.file 11 "../ChibiOS/os/kernel/include/chqueues.h"
 868              		.file 12 "../ChibiOS/os/hal/platforms/STM32F1xx/stm32f10x.h"
 869              		.file 13 "../ChibiOS/os/hal/include/serial.h"
 870              		.file 14 "../ChibiOS/os/hal/platforms/STM32/USARTv1/serial_lld.h"
 871              		.file 15 "../ChibiOS/os/ports/common/ARMCMx/nvic.h"
 872              		.file 16 "../ChibiOS/os/ports/common/ARMCMx/CMSIS/include/core_cm3.h"