ARM GAS  /var/folders/6q/x_mk5n_j3p7_c40r_2k_78980000gn/T//cc8CwihN.s 			page 1


   1              		.syntax unified
   2              		.cpu cortex-m3
   3              		.fpu softvfp
   4              		.eabi_attribute 20, 1
   5              		.eabi_attribute 21, 1
   6              		.eabi_attribute 23, 3
   7              		.eabi_attribute 24, 1
   8              		.eabi_attribute 25, 1
   9              		.eabi_attribute 26, 1
  10              		.eabi_attribute 30, 2
  11              		.eabi_attribute 34, 1
  12              		.eabi_attribute 18, 4
  13              		.thumb
  14              		.syntax unified
  15              		.file	"serial.c"
  16              		.text
  17              	.Ltext0:
  18              		.cfi_sections	.debug_frame
  19              		.section	.text.readt,"ax",%progbits
  20              		.align	2
  21              		.p2align 4,,15
  22              		.thumb
  23              		.thumb_func
  24              		.type	readt, %function
  25              	readt:
  26              	.LFB70:
  27              		.file 1 "../ChibiOS/os/hal/src/serial.c"
  28              		.loc 1 99 0
  29              		.cfi_startproc
  30              		@ args = 0, pretend = 0, frame = 0
  31              		@ frame_needed = 0, uses_anonymous_args = 0
  32              		@ link register save eliminated.
  33              	.LVL0:
  34              		.loc 1 101 0
  35 0000 0C30     		adds	r0, r0, #12
  36              	.LVL1:
  37 0002 FFF7FEBF 		b	chIQReadTimeout
  38              	.LVL2:
  39              		.cfi_endproc
  40              	.LFE70:
  41              		.size	readt, .-readt
  42 0006 00BF     		.section	.text.read,"ax",%progbits
  43              		.align	2
  44              		.p2align 4,,15
  45              		.thumb
  46              		.thumb_func
  47              		.type	read, %function
  48              	read:
  49              	.LFB64:
  50              		.loc 1 68 0
  51              		.cfi_startproc
  52              		@ args = 0, pretend = 0, frame = 0
  53              		@ frame_needed = 0, uses_anonymous_args = 0
  54              		@ link register save eliminated.
  55              	.LVL3:
  56              		.loc 1 70 0
  57 0000 0C30     		adds	r0, r0, #12
ARM GAS  /var/folders/6q/x_mk5n_j3p7_c40r_2k_78980000gn/T//cc8CwihN.s 			page 2


  58              	.LVL4:
  59 0002 4FF0FF33 		mov	r3, #-1
  60 0006 FFF7FEBF 		b	chIQReadTimeout
  61              	.LVL5:
  62              		.cfi_endproc
  63              	.LFE64:
  64              		.size	read, .-read
  65 000a 00BF     		.section	.text.writet,"ax",%progbits
  66              		.align	2
  67              		.p2align 4,,15
  68              		.thumb
  69              		.thumb_func
  70              		.type	writet, %function
  71              	writet:
  72              	.LFB69:
  73              		.loc 1 94 0
  74              		.cfi_startproc
  75              		@ args = 0, pretend = 0, frame = 0
  76              		@ frame_needed = 0, uses_anonymous_args = 0
  77              		@ link register save eliminated.
  78              	.LVL6:
  79              		.loc 1 96 0
  80 0000 3030     		adds	r0, r0, #48
  81              	.LVL7:
  82 0002 FFF7FEBF 		b	chOQWriteTimeout
  83              	.LVL8:
  84              		.cfi_endproc
  85              	.LFE69:
  86              		.size	writet, .-writet
  87 0006 00BF     		.section	.text.write,"ax",%progbits
  88              		.align	2
  89              		.p2align 4,,15
  90              		.thumb
  91              		.thumb_func
  92              		.type	write, %function
  93              	write:
  94              	.LFB63:
  95              		.loc 1 62 0
  96              		.cfi_startproc
  97              		@ args = 0, pretend = 0, frame = 0
  98              		@ frame_needed = 0, uses_anonymous_args = 0
  99              		@ link register save eliminated.
 100              	.LVL9:
 101              		.loc 1 64 0
 102 0000 3030     		adds	r0, r0, #48
 103              	.LVL10:
 104 0002 4FF0FF33 		mov	r3, #-1
 105 0006 FFF7FEBF 		b	chOQWriteTimeout
 106              	.LVL11:
 107              		.cfi_endproc
 108              	.LFE63:
 109              		.size	write, .-write
 110 000a 00BF     		.section	.text.gett,"ax",%progbits
 111              		.align	2
 112              		.p2align 4,,15
 113              		.thumb
 114              		.thumb_func
ARM GAS  /var/folders/6q/x_mk5n_j3p7_c40r_2k_78980000gn/T//cc8CwihN.s 			page 3


 115              		.type	gett, %function
 116              	gett:
 117              	.LFB68:
 118              		.loc 1 89 0
 119              		.cfi_startproc
 120              		@ args = 0, pretend = 0, frame = 0
 121              		@ frame_needed = 0, uses_anonymous_args = 0
 122              		@ link register save eliminated.
 123              	.LVL12:
 124              		.loc 1 91 0
 125 0000 0C30     		adds	r0, r0, #12
 126              	.LVL13:
 127 0002 FFF7FEBF 		b	chIQGetTimeout
 128              	.LVL14:
 129              		.cfi_endproc
 130              	.LFE68:
 131              		.size	gett, .-gett
 132 0006 00BF     		.section	.text.get,"ax",%progbits
 133              		.align	2
 134              		.p2align 4,,15
 135              		.thumb
 136              		.thumb_func
 137              		.type	get, %function
 138              	get:
 139              	.LFB66:
 140              		.loc 1 79 0
 141              		.cfi_startproc
 142              		@ args = 0, pretend = 0, frame = 0
 143              		@ frame_needed = 0, uses_anonymous_args = 0
 144              		@ link register save eliminated.
 145              	.LVL15:
 146              		.loc 1 81 0
 147 0000 0C30     		adds	r0, r0, #12
 148              	.LVL16:
 149 0002 4FF0FF31 		mov	r1, #-1
 150 0006 FFF7FEBF 		b	chIQGetTimeout
 151              	.LVL17:
 152              		.cfi_endproc
 153              	.LFE66:
 154              		.size	get, .-get
 155 000a 00BF     		.section	.text.putt,"ax",%progbits
 156              		.align	2
 157              		.p2align 4,,15
 158              		.thumb
 159              		.thumb_func
 160              		.type	putt, %function
 161              	putt:
 162              	.LFB67:
 163              		.loc 1 84 0
 164              		.cfi_startproc
 165              		@ args = 0, pretend = 0, frame = 0
 166              		@ frame_needed = 0, uses_anonymous_args = 0
 167              		@ link register save eliminated.
 168              	.LVL18:
 169              		.loc 1 86 0
 170 0000 3030     		adds	r0, r0, #48
 171              	.LVL19:
ARM GAS  /var/folders/6q/x_mk5n_j3p7_c40r_2k_78980000gn/T//cc8CwihN.s 			page 4


 172 0002 FFF7FEBF 		b	chOQPutTimeout
 173              	.LVL20:
 174              		.cfi_endproc
 175              	.LFE67:
 176              		.size	putt, .-putt
 177 0006 00BF     		.section	.text.put,"ax",%progbits
 178              		.align	2
 179              		.p2align 4,,15
 180              		.thumb
 181              		.thumb_func
 182              		.type	put, %function
 183              	put:
 184              	.LFB65:
 185              		.loc 1 74 0
 186              		.cfi_startproc
 187              		@ args = 0, pretend = 0, frame = 0
 188              		@ frame_needed = 0, uses_anonymous_args = 0
 189              		@ link register save eliminated.
 190              	.LVL21:
 191              		.loc 1 76 0
 192 0000 3030     		adds	r0, r0, #48
 193              	.LVL22:
 194 0002 4FF0FF32 		mov	r2, #-1
 195 0006 FFF7FEBF 		b	chOQPutTimeout
 196              	.LVL23:
 197              		.cfi_endproc
 198              	.LFE65:
 199              		.size	put, .-put
 200 000a 00BF     		.section	.text.sdInit,"ax",%progbits
 201              		.align	2
 202              		.p2align 4,,15
 203              		.global	sdInit
 204              		.thumb
 205              		.thumb_func
 206              		.type	sdInit, %function
 207              	sdInit:
 208              	.LFB71:
 209              		.loc 1 120 0
 210              		.cfi_startproc
 211              		@ args = 0, pretend = 0, frame = 0
 212              		@ frame_needed = 0, uses_anonymous_args = 0
 213              		@ link register save eliminated.
 214              		.loc 1 122 0
 215 0000 FFF7FEBF 		b	sd_lld_init
 216              	.LVL24:
 217              		.cfi_endproc
 218              	.LFE71:
 219              		.size	sdInit, .-sdInit
 220              		.section	.text.sdObjectInit,"ax",%progbits
 221              		.align	2
 222              		.p2align 4,,15
 223              		.global	sdObjectInit
 224              		.thumb
 225              		.thumb_func
 226              		.type	sdObjectInit, %function
 227              	sdObjectInit:
 228              	.LFB72:
ARM GAS  /var/folders/6q/x_mk5n_j3p7_c40r_2k_78980000gn/T//cc8CwihN.s 			page 5


 229              		.loc 1 140 0
 230              		.cfi_startproc
 231              		@ args = 0, pretend = 0, frame = 0
 232              		@ frame_needed = 0, uses_anonymous_args = 0
 233              	.LVL25:
 234 0000 30B5     		push	{r4, r5, lr}
 235              		.cfi_def_cfa_offset 12
 236              		.cfi_offset 4, -12
 237              		.cfi_offset 5, -8
 238              		.cfi_offset 14, -4
 239 0002 0446     		mov	r4, r0
 240 0004 1546     		mov	r5, r2
 241              		.loc 1 142 0
 242 0006 0D4B     		ldr	r3, .L12
 243              		.loc 1 140 0
 244 0008 83B0     		sub	sp, sp, #12
 245              		.cfi_def_cfa_offset 24
 246              		.loc 1 142 0
 247 000a 40F8043B 		str	r3, [r0], #4
 248              	.LVL26:
 249              		.loc 1 144 0
 250 000e 0122     		movs	r2, #1
 251              	.LVL27:
 252              		.loc 1 145 0
 253 0010 0094     		str	r4, [sp]
 254 0012 0B46     		mov	r3, r1
 255              		.loc 1 143 0
 256 0014 6060     		str	r0, [r4, #4]
 257              		.loc 1 144 0
 258 0016 2272     		strb	r2, [r4, #8]
 259              		.loc 1 145 0
 260 0018 04F15401 		add	r1, r4, #84
 261              	.LVL28:
 262 001c 04F10C00 		add	r0, r4, #12
 263 0020 4022     		movs	r2, #64
 264 0022 FFF7FEFF 		bl	chIQInit
 265              	.LVL29:
 266              		.loc 1 146 0
 267 0026 0094     		str	r4, [sp]
 268 0028 2B46     		mov	r3, r5
 269 002a 04F19401 		add	r1, r4, #148
 270 002e 04F13000 		add	r0, r4, #48
 271 0032 4022     		movs	r2, #64
 272 0034 FFF7FEFF 		bl	chOQInit
 273              	.LVL30:
 274              		.loc 1 147 0
 275 0038 03B0     		add	sp, sp, #12
 276              		.cfi_def_cfa_offset 12
 277              		@ sp needed
 278 003a 30BD     		pop	{r4, r5, pc}
 279              	.LVL31:
 280              	.L13:
 281              		.align	2
 282              	.L12:
 283 003c 00000000 		.word	.LANCHOR0
 284              		.cfi_endproc
 285              	.LFE72:
ARM GAS  /var/folders/6q/x_mk5n_j3p7_c40r_2k_78980000gn/T//cc8CwihN.s 			page 6


 286              		.size	sdObjectInit, .-sdObjectInit
 287              		.section	.text.sdStart,"ax",%progbits
 288              		.align	2
 289              		.p2align 4,,15
 290              		.global	sdStart
 291              		.thumb
 292              		.thumb_func
 293              		.type	sdStart, %function
 294              	sdStart:
 295              	.LFB73:
 296              		.loc 1 159 0
 297              		.cfi_startproc
 298              		@ args = 0, pretend = 0, frame = 0
 299              		@ frame_needed = 0, uses_anonymous_args = 0
 300              	.LVL32:
 301 0000 10B5     		push	{r4, lr}
 302              		.cfi_def_cfa_offset 8
 303              		.cfi_offset 4, -8
 304              		.cfi_offset 14, -4
 305              	.LBB2:
 306              		.loc 1 163 0
 307 0002 2023     		movs	r3, #32
 308              	.LBE2:
 309              		.loc 1 159 0
 310 0004 0446     		mov	r4, r0
 311              	.LBB3:
 312              		.loc 1 163 0
 313              		.syntax unified
 314              	@ 163 "../ChibiOS/os/hal/src/serial.c" 1
 315 0006 83F31188 		msr     BASEPRI, r3
 316              	@ 0 "" 2
 317              		.thumb
 318              		.syntax unified
 319              	.LBE3:
 320              		.loc 1 167 0
 321 000a FFF7FEFF 		bl	sd_lld_start
 322              	.LVL33:
 323              		.loc 1 168 0
 324 000e 0223     		movs	r3, #2
 325 0010 2372     		strb	r3, [r4, #8]
 326              	.LBB4:
 327              		.loc 1 169 0
 328 0012 0023     		movs	r3, #0
 329              		.syntax unified
 330              	@ 169 "../ChibiOS/os/hal/src/serial.c" 1
 331 0014 83F31188 		msr     BASEPRI, r3
 332              	@ 0 "" 2
 333              		.thumb
 334              		.syntax unified
 335 0018 10BD     		pop	{r4, pc}
 336              	.LBE4:
 337              		.cfi_endproc
 338              	.LFE73:
 339              		.size	sdStart, .-sdStart
 340 001a 00BF     		.section	.text.sdStop,"ax",%progbits
 341              		.align	2
 342              		.p2align 4,,15
ARM GAS  /var/folders/6q/x_mk5n_j3p7_c40r_2k_78980000gn/T//cc8CwihN.s 			page 7


 343              		.global	sdStop
 344              		.thumb
 345              		.thumb_func
 346              		.type	sdStop, %function
 347              	sdStop:
 348              	.LFB74:
 349              		.loc 1 181 0
 350              		.cfi_startproc
 351              		@ args = 0, pretend = 0, frame = 0
 352              		@ frame_needed = 0, uses_anonymous_args = 0
 353              	.LVL34:
 354 0000 10B5     		push	{r4, lr}
 355              		.cfi_def_cfa_offset 8
 356              		.cfi_offset 4, -8
 357              		.cfi_offset 14, -4
 358              	.LBB5:
 359              		.loc 1 185 0
 360 0002 2023     		movs	r3, #32
 361              	.LBE5:
 362              		.loc 1 181 0
 363 0004 0446     		mov	r4, r0
 364              	.LBB6:
 365              		.loc 1 185 0
 366              		.syntax unified
 367              	@ 185 "../ChibiOS/os/hal/src/serial.c" 1
 368 0006 83F31188 		msr     BASEPRI, r3
 369              	@ 0 "" 2
 370              		.thumb
 371              		.syntax unified
 372              	.LBE6:
 373              		.loc 1 189 0
 374 000a FFF7FEFF 		bl	sd_lld_stop
 375              	.LVL35:
 376              		.loc 1 190 0
 377 000e 0123     		movs	r3, #1
 378 0010 2372     		strb	r3, [r4, #8]
 379              		.loc 1 191 0
 380 0012 04F13000 		add	r0, r4, #48
 381 0016 FFF7FEFF 		bl	chOQResetI
 382              	.LVL36:
 383              		.loc 1 192 0
 384 001a 04F10C00 		add	r0, r4, #12
 385 001e FFF7FEFF 		bl	chIQResetI
 386              	.LVL37:
 387              		.loc 1 193 0
 388 0022 FFF7FEFF 		bl	chSchRescheduleS
 389              	.LVL38:
 390              	.LBB7:
 391              		.loc 1 194 0
 392 0026 0023     		movs	r3, #0
 393              		.syntax unified
 394              	@ 194 "../ChibiOS/os/hal/src/serial.c" 1
 395 0028 83F31188 		msr     BASEPRI, r3
 396              	@ 0 "" 2
 397              		.thumb
 398              		.syntax unified
 399 002c 10BD     		pop	{r4, pc}
ARM GAS  /var/folders/6q/x_mk5n_j3p7_c40r_2k_78980000gn/T//cc8CwihN.s 			page 8


 400              	.LBE7:
 401              		.cfi_endproc
 402              	.LFE74:
 403              		.size	sdStop, .-sdStop
 404 002e 00BF     		.section	.text.sdIncomingDataI,"ax",%progbits
 405              		.align	2
 406              		.p2align 4,,15
 407              		.global	sdIncomingDataI
 408              		.thumb
 409              		.thumb_func
 410              		.type	sdIncomingDataI, %function
 411              	sdIncomingDataI:
 412              	.LFB75:
 413              		.loc 1 213 0
 414              		.cfi_startproc
 415              		@ args = 0, pretend = 0, frame = 0
 416              		@ frame_needed = 0, uses_anonymous_args = 0
 417              	.LVL39:
 418 0000 38B5     		push	{r3, r4, r5, lr}
 419              		.cfi_def_cfa_offset 16
 420              		.cfi_offset 3, -16
 421              		.cfi_offset 4, -12
 422              		.cfi_offset 5, -8
 423              		.cfi_offset 14, -4
 424              		.loc 1 218 0
 425 0002 4369     		ldr	r3, [r0, #20]
 426              		.loc 1 213 0
 427 0004 0446     		mov	r4, r0
 428 0006 0D46     		mov	r5, r1
 429              		.loc 1 218 0
 430 0008 3BB1     		cbz	r3, .L23
 431              		.loc 1 220 0
 432 000a 2946     		mov	r1, r5
 433              	.LVL40:
 434 000c 04F10C00 		add	r0, r4, #12
 435              	.LVL41:
 436 0010 FFF7FEFF 		bl	chIQPutI
 437              	.LVL42:
 438 0014 0028     		cmp	r0, #0
 439 0016 0BDB     		blt	.L24
 440              	.L18:
 441 0018 38BD     		pop	{r3, r4, r5, pc}
 442              	.LVL43:
 443              	.L23:
 444              		.loc 1 219 0
 445 001a 0421     		movs	r1, #4
 446              	.LVL44:
 447 001c 0844     		add	r0, r0, r1
 448              	.LVL45:
 449 001e FFF7FEFF 		bl	chEvtBroadcastFlagsI
 450              	.LVL46:
 451              		.loc 1 220 0
 452 0022 2946     		mov	r1, r5
 453 0024 04F10C00 		add	r0, r4, #12
 454 0028 FFF7FEFF 		bl	chIQPutI
 455              	.LVL47:
 456 002c 0028     		cmp	r0, #0
ARM GAS  /var/folders/6q/x_mk5n_j3p7_c40r_2k_78980000gn/T//cc8CwihN.s 			page 9


 457 002e F3DA     		bge	.L18
 458              	.L24:
 459              		.loc 1 221 0
 460 0030 201D     		adds	r0, r4, #4
 461 0032 8021     		movs	r1, #128
 462              		.loc 1 222 0
 463 0034 BDE83840 		pop	{r3, r4, r5, lr}
 464              		.cfi_restore 14
 465              		.cfi_restore 5
 466              		.cfi_restore 4
 467              		.cfi_restore 3
 468              		.cfi_def_cfa_offset 0
 469              	.LVL48:
 470              		.loc 1 221 0
 471 0038 FFF7FEBF 		b	chEvtBroadcastFlagsI
 472              	.LVL49:
 473              		.cfi_endproc
 474              	.LFE75:
 475              		.size	sdIncomingDataI, .-sdIncomingDataI
 476              		.section	.text.sdRequestDataI,"ax",%progbits
 477              		.align	2
 478              		.p2align 4,,15
 479              		.global	sdRequestDataI
 480              		.thumb
 481              		.thumb_func
 482              		.type	sdRequestDataI, %function
 483              	sdRequestDataI:
 484              	.LFB76:
 485              		.loc 1 239 0
 486              		.cfi_startproc
 487              		@ args = 0, pretend = 0, frame = 0
 488              		@ frame_needed = 0, uses_anonymous_args = 0
 489              	.LVL50:
 490 0000 38B5     		push	{r3, r4, r5, lr}
 491              		.cfi_def_cfa_offset 16
 492              		.cfi_offset 3, -16
 493              		.cfi_offset 4, -12
 494              		.cfi_offset 5, -8
 495              		.cfi_offset 14, -4
 496              		.loc 1 239 0
 497 0002 0446     		mov	r4, r0
 498              		.loc 1 245 0
 499 0004 3030     		adds	r0, r0, #48
 500              	.LVL51:
 501 0006 FFF7FEFF 		bl	chOQGetI
 502              	.LVL52:
 503              		.loc 1 246 0
 504 000a 051E     		subs	r5, r0, #0
 505 000c 01DB     		blt	.L28
 506              		.loc 1 249 0
 507 000e 2846     		mov	r0, r5
 508 0010 38BD     		pop	{r3, r4, r5, pc}
 509              	.LVL53:
 510              	.L28:
 511              		.loc 1 247 0
 512 0012 201D     		adds	r0, r4, #4
 513              	.LVL54:
ARM GAS  /var/folders/6q/x_mk5n_j3p7_c40r_2k_78980000gn/T//cc8CwihN.s 			page 10


 514 0014 0821     		movs	r1, #8
 515 0016 FFF7FEFF 		bl	chEvtBroadcastFlagsI
 516              	.LVL55:
 517              		.loc 1 249 0
 518 001a 2846     		mov	r0, r5
 519 001c 38BD     		pop	{r3, r4, r5, pc}
 520              		.cfi_endproc
 521              	.LFE76:
 522              		.size	sdRequestDataI, .-sdRequestDataI
 523 001e 00BF     		.section	.rodata.vmt,"a",%progbits
 524              		.align	2
 525              		.set	.LANCHOR0,. + 0
 526              		.type	vmt, %object
 527              		.size	vmt, 32
 528              	vmt:
 529 0000 00000000 		.word	write
 530 0004 00000000 		.word	read
 531 0008 00000000 		.word	put
 532 000c 00000000 		.word	get
 533 0010 00000000 		.word	putt
 534 0014 00000000 		.word	gett
 535 0018 00000000 		.word	writet
 536 001c 00000000 		.word	readt
 537              		.text
 538              	.Letext0:
 539              		.file 2 "/Users/Luca/src/vexilla/src/gcc-arm-none-eabi-5_4-2016q3/lib/gcc/arm-none-eabi/5.4.1/incl
 540              		.file 3 "/Users/Luca/src/vexilla/src/gcc-arm-none-eabi-5_4-2016q3/arm-none-eabi/include/machine/_d
 541              		.file 4 "/Users/Luca/src/vexilla/src/gcc-arm-none-eabi-5_4-2016q3/arm-none-eabi/include/sys/_stdin
 542              		.file 5 "../ChibiOS/os/ports/GCC/ARMCMx/chtypes.h"
 543              		.file 6 "../ChibiOS/os/kernel/include/chlists.h"
 544              		.file 7 "../ChibiOS/os/kernel/include/chthreads.h"
 545              		.file 8 "../ChibiOS/os/ports/GCC/ARMCMx/chcore_v7m.h"
 546              		.file 9 "../ChibiOS/os/kernel/include/chmtx.h"
 547              		.file 10 "../ChibiOS/os/kernel/include/chevents.h"
 548              		.file 11 "../ChibiOS/os/kernel/include/chqueues.h"
 549              		.file 12 "../ChibiOS/os/hal/platforms/STM32F1xx/stm32f10x.h"
 550              		.file 13 "../ChibiOS/os/hal/include/serial.h"
 551              		.file 14 "../ChibiOS/os/hal/platforms/STM32/USARTv1/serial_lld.h"
 552              		.file 15 "../ChibiOS/os/kernel/include/chschd.h"
 553              		.file 16 "../ChibiOS/os/ports/common/ARMCMx/CMSIS/include/core_cm3.h"