ARM GAS  /var/folders/6q/x_mk5n_j3p7_c40r_2k_78980000gn/T//cc8CwihN.s 			page 1


   1              		.syntax unified
   2              		.cpu cortex-m3
   3              		.fpu softvfp
   4              		.eabi_attribute 20, 1
   5              		.eabi_attribute 21, 1
   6              		.eabi_attribute 23, 3
   7              		.eabi_attribute 24, 1
   8              		.eabi_attribute 25, 1
   9              		.eabi_attribute 26, 1
  10              		.eabi_attribute 30, 2
  11              		.eabi_attribute 34, 1
  12              		.eabi_attribute 18, 4
  13              		.thumb
  14              		.syntax unified
  15              		.file	"serial.c"
  16              		.text
  17              	.Ltext0:
  18              		.cfi_sections	.debug_frame
  19              		.section	.text.readt,"ax",%progbits
  20              		.align	2
  21              		.p2align 4,,15
  22              		.thumb
  23              		.thumb_func
  24              		.type	readt, %function
  25              	readt:
  26              	.LFB70:
  27              		.file 1 "../ChibiOS/os/hal/src/serial.c"
  28              		.loc 1 99 0
  29              		.cfi_startproc
  30              		@ args = 0, pretend = 0, frame = 0
  31              		@ frame_needed = 0, uses_anonymous_args = 0
  32              		@ link register save eliminated.
  33              	.LVL0:
  34              		.loc 1 101 0
  35 0000 0C30     		adds	r0, r0, #12
  36              	.LVL1:
  37 0002 FFF7FEBF 		b	chIQReadTimeout
  38              	.LVL2:
  39              		.cfi_endproc
  40              	.LFE70:
  41              		.size	readt, .-readt
  42 0006 00BF     		.section	.text.read,"ax",%progbits
  43              		.align	2
  44              		.p2align 4,,15
  45              		.thumb
  46              		.thumb_func
  47              		.type	read, %function
  48              	read:
  49              	.LFB64:
  50              		.loc 1 68 0
  51              		.cfi_startproc
  52              		@ args = 0, pretend = 0, frame = 0
  53              		@ frame_needed = 0, uses_anonymous_args = 0
  54              		@ link register save eliminated.
  55              	.LVL3:
  56              		.loc 1 70 0
  57 0000 0C30     		adds	r0, r0, #12
ARM GAS  /var/folders/6q/x_mk5n_j3p7_c40r_2k_78980000gn/T//cc8CwihN.s 			page 2


  58              	.LVL4:
  59 0002 4FF0FF33 		mov	r3, #-1
  60 0006 FFF7FEBF 		b	chIQReadTimeout
  61              	.LVL5:
  62              		.cfi_endproc
  63              	.LFE64:
  64              		.size	read, .-read
  65 000a 00BF     		.section	.text.writet,"ax",%progbits
  66              		.align	2
  67              		.p2align 4,,15
  68              		.thumb
  69              		.thumb_func
  70              		.type	writet, %function
  71              	writet:
  72              	.LFB69:
  73              		.loc 1 94 0
  74              		.cfi_startproc
  75              		@ args = 0, pretend = 0, frame = 0
  76              		@ frame_needed = 0, uses_anonymous_args = 0
  77              		@ link register save eliminated.
  78              	.LVL6:
  79              		.loc 1 96 0
  80 0000 3030     		adds	r0, r0, #48
  81              	.LVL7:
  82 0002 FFF7FEBF 		b	chOQWriteTimeout
  83              	.LVL8:
  84              		.cfi_endproc
  85              	.LFE69:
  86              		.size	writet, .-writet
  87 0006 00BF     		.section	.text.write,"ax",%progbits
  88              		.align	2
  89              		.p2align 4,,15
  90              		.thumb
  91              		.thumb_func
  92              		.type	write, %function
  93              	write:
  94              	.LFB63:
  95              		.loc 1 62 0
  96              		.cfi_startproc
  97              		@ args = 0, pretend = 0, frame = 0
  98              		@ frame_needed = 0, uses_anonymous_args = 0
  99              		@ link register save eliminated.
 100              	.LVL9:
 101              		.loc 1 64 0
 102 0000 3030     		adds	r0, r0, #48
 103              	.LVL10:
 104 0002 4FF0FF33 		mov	r3, #-1
 105 0006 FFF7FEBF 		b	chOQWriteTimeout
 106              	.LVL11:
 107              		.cfi_endproc
 108              	.LFE63:
 109              		.size	write, .-write
 110 000a 00BF     		.section	.text.gett,"ax",%progbits
 111              		.align	2
 112              		.p2align 4,,15
 113              		.thumb
 114              		.thumb_func
ARM GAS  /var/folders/6q/x_mk5n_j3p7_c40r_2k_78980000gn/T//cc8CwihN.s 			page 3


 115              		.type	gett, %function
 116              	gett:
 117              	.LFB68:
 118              		.loc 1 89 0
 119              		.cfi_startproc
 120              		@ args = 0, pretend = 0, frame = 0
 121              		@ frame_needed = 0, uses_anonymous_args = 0
 122              		@ link register save eliminated.
 123              	.LVL12:
 124              		.loc 1 91 0
 125 0000 0C30     		adds	r0, r0, #12
 126              	.LVL13:
 127 0002 FFF7FEBF 		b	chIQGetTimeout
 128              	.LVL14:
 129              		.cfi_endproc
 130              	.LFE68:
 131              		.size	gett, .-gett
 132 0006 00BF     		.section	.text.get,"ax",%progbits
 133              		.align	2
 134              		.p2align 4,,15
 135              		.thumb
 136              		.thumb_func
 137              		.type	get, %function
 138              	get:
 139              	.LFB66:
 140              		.loc 1 79 0
 141              		.cfi_startproc
 142              		@ args = 0, pretend = 0, frame = 0
 143              		@ frame_needed = 0, uses_anonymous_args = 0
 144              		@ link register save eliminated.
 145              	.LVL15:
 146              		.loc 1 81 0
 147 0000 0C30     		adds	r0, r0, #12
 148              	.LVL16:
 149 0002 4FF0FF31 		mov	r1, #-1
 150 0006 FFF7FEBF 		b	chIQGetTimeout
 151              	.LVL17:
 152              		.cfi_endproc
 153              	.LFE66:
 154              		.size	get, .-get
 155 000a 00BF     		.section	.text.putt,"ax",%progbits
 156              		.align	2
 157              		.p2align 4,,15
 158              		.thumb
 159              		.thumb_func
 160              		.type	putt, %function
 161              	putt:
 162              	.LFB67:
 163              		.loc 1 84 0
 164              		.cfi_startproc
 165              		@ args = 0, pretend = 0, frame = 0
 166              		@ frame_needed = 0, uses_anonymous_args = 0
 167              		@ link register save eliminated.
 168              	.LVL18:
 169              		.loc 1 86 0
 170 0000 3030     		adds	r0, r0, #48
 171              	.LVL19:
ARM GAS  /var/folders/6q/x_mk5n_j3p7_c40r_2k_78980000gn/T//cc8CwihN.s 			page 4


 172 0002 FFF7FEBF 		b	chOQPutTimeout
 173              	.LVL20:
 174              		.cfi_endproc
 175              	.LFE67:
 176              		.size	putt, .-putt
 177 0006 00BF     		.section	.text.put,"ax",%progbits
 178              		.align	2
 179              		.p2align 4,,15
 180              		.thumb
 181              		.thumb_func
 182              		.type	put, %function
 183              	put:
 184              	.LFB65:
 185              		.loc 1 74 0
 186              		.cfi_startproc
 187              		@ args = 0, pretend = 0, frame = 0
 188              		@ frame_needed = 0, uses_anonymous_args = 0
 189              		@ link register save eliminated.
 190              	.LVL21:
 191              		.loc 1 76 0
 192 0000 3030     		adds	r0, r0, #48
 193              	.LVL22:
 194 0002 4FF0FF32 		mov	r2, #-1
 195 0006 FFF7FEBF 		b	chOQPutTimeout
 196              	.LVL23:
 197              		.cfi_endproc
 198              	.LFE65:
 199              		.size	put, .-put
 200 000a 00BF     		.section	.text.sdInit,"ax",%progbits
 201              		.align	2
 202              		.p2align 4,,15
 203              		.global	sdInit
 204              		.thumb
 205              		.thumb_func
 206              		.type	sdInit, %function
 207              	sdInit:
 208              	.LFB71:
 209              		.loc 1 120 0
 210              		.cfi_startproc
 211              		@ args = 0, pretend = 0, frame = 0
 212              		@ frame_needed = 0, uses_anonymous_args = 0
 213              		@ link register save eliminated.
 214              		.loc 1 122 0
 215 0000 FFF7FEBF 		b	sd_lld_init
 216              	.LVL24:
 217              		.cfi_endproc
 218              	.LFE71:
 219              		.size	sdInit, .-sdInit
 220              		.section	.text.sdObjectInit,"ax",%progbits
 221              		.align	2
 222              		.p2align 4,,15
 223              		.global	sdObjectInit
 224              		.thumb
 225              		.thumb_func
 226              		.type	sdObjectInit, %function
 227              	sdObjectInit:
 228              	.LFB72:
ARM GAS  /var/folders/6q/x_mk5n_j3p7_c40r_2k_78980000gn/T//cc8CwihN.s 			page 5


 229              		.loc 1 140 0
 230              		.cfi_startproc
 231              		@ args = 0, pretend = 0, frame = 0
 232              		@ frame_needed = 0, uses_anonymous_args = 0
 233              	.LVL25:
 234 0000 30B5     		push	{r4, r5, lr}
 235              		.cfi_def_cfa_offset 12
 236              		.cfi_offset 4, -12
 237              		.cfi_offset 5, -8
 238              		.cfi_offset 14, -4
 239 0002 0446     		mov	r4, r0
 240 0004 1546     		mov	r5, r2
 241              		.loc 1 142 0
 242 0006 0D4B     		ldr	r3, .L12
 243              		.loc 1 140 0
 244 0008 83B0     		sub	sp, sp, #12
 245              		.cfi_def_cfa_offset 24
 246              		.loc 1 142 0
 247 000a 40F8043B 		str	r3, [r0], #4
 248              	.LVL26:
 249              		.loc 1 144 0
 250 000e 0122     		movs	r2, #1
 251              	.LVL27:
 252              		.loc 1 145 0
 253 0010 0094     		str	r4, [sp]
 254 0012 0B46     		mov	r3, r1
 255              		.loc 1 143 0
 256 0014 6060     		str	r0, [r4, #4]
 257              		.loc 1 144 0
 258 0016 2272     		strb	r2, [r4, #8]
 259              		.loc 1 145 0
 260 0018 04F15401 		add	r1, r4, #84
 261              	.LVL28:
 262 001c 04F10C00 		add	r0, r4, #12
 263 0020 4022     		movs	r2, #64
 264 0022 FFF7FEFF 		bl	chIQInit
 265              	.LVL29:
 266              		.loc 1 146 0
 267 0026 0094     		str	r4, [sp]
 268 0028 2B46     		mov	r3, r5
 269 002a 04F19401 		add	r1, r4, #148
 270 002e 04F13000 		add	r0, r4, #48
 271 0032 4022     		movs	r2, #64
 272 0034 FFF7FEFF 		bl	chOQInit
 273              	.LVL30:
 274              		.loc 1 147 0
 275 0038 03B0     		add	sp, sp, #12
 276              		.cfi_def_cfa_offset 12
 277              		@ sp needed
 278 003a 30BD     		pop	{r4, r5, pc}
 279              	.LVL31:
 280              	.L13:
 281              		.align	2
 282              	.L12:
 283 003c 00000000 		.word	.LANCHOR0
 284              		.cfi_endproc
 285              	.LFE72:
ARM GAS  /var/folders/6q/x_mk5n_j3p7_c40r_2k_78980000gn/T//cc8CwihN.s 			page 6


 286              		.size	sdObjectInit, .-sdObjectInit
 287              		.section	.text.sdStart,"ax",%progbits
 288              		.align	2
 289              		.p2align 4,,15
 290              		.global	sdStart
 291              		.thumb
 292              		.thumb_func
 293              		.type	sdStart, %function
 294              	sdStart:
 295              	.LFB73:
 296              		.loc 1 159 0
 297              		.cfi_startproc
 298              		@ args = 0, pretend = 0, frame = 0
 299              		@ frame_needed = 0, uses_anonymous_args = 0
 300              	.LVL32:
 301 0000 10B5     		push	{r4, lr}
 302              		.cfi_def_cfa_offset 8
 303              		.cfi_offset 4, -8
 304              		.cfi_offset 14, -4
 305              	.LBB2:
 306              		.loc 1 163 0
 307 0002 2023     		movs	r3, #32
 308              	.LBE2:
 309              		.loc 1 159 0
 310 0004 0446     		mov	r4, r0
 311              	.LBB3:
 312              		.loc 1 163 0
 313              		.syntax unified
 314              	@ 163 "../ChibiOS/os/hal/src/serial.c" 1
 315 0006 83F31188 		msr     BASEPRI, r3
 316              	@ 0 "" 2
 317              		.thumb
 318              		.syntax unified
 319              	.LBE3:
 320              		.loc 1 167 0
 321 000a FFF7FEFF 		bl	sd_lld_start
 322              	.LVL33:
 323              		.loc 1 168 0
 324 000e 0223     		movs	r3, #2
 325 0010 2372     		strb	r3, [r4, #8]
 326              	.LBB4:
 327              		.loc 1 169 0
 328 0012 0023     		movs	r3, #0
 329              		.syntax unified
 330              	@ 169 "../ChibiOS/os/hal/src/serial.c" 1
 331 0014 83F31188 		msr     BASEPRI, r3
 332              	@ 0 "" 2
 333              		.thumb
 334              		.syntax unified
 335 0018 10BD     		pop	{r4, pc}
 336              	.LBE4:
 337              		.cfi_endproc
 338              	.LFE73:
 339              		.size	sdStart, .-sdStart
 340 001a 00BF     		.section	.text.sdStop,"ax",%progbits
 341              		.align	2
 342              		.p2align 4,,15
ARM GAS  /var/folders/6q/x_mk5n_j3p7_c40r_2k_78980000gn/T//cc8CwihN.s 			page 7


 343              		.global	sdStop
 344              		.thumb
 345              		.thumb_func
 346              		.type	sdStop, %function
 347              	sdStop:
 348              	.LFB74:
 349              		.loc 1 181 0
 350              		.cfi_startproc
 351              		@ args = 0, pretend = 0, frame = 0
 352              		@ frame_needed = 0, uses_anonymous_args = 0
 353              	.LVL34:
 354 0000 10B5     		push	{r4, lr}
 355              		.cfi_def_cfa_offset 8
 356              		.cfi_offset 4, -8
 357              		.cfi_offset 14, -4
 358              	.LBB5:
 359              		.loc 1 185 0
 360 0002 2023     		movs	r3, #32
 361              	.LBE5:
 362              		.loc 1 181 0
 363 0004 0446     		mov	r4, r0
 364              	.LBB6:
 365              		.loc 1 185 0
 366              		.syntax unified
 367              	@ 185 "../ChibiOS/os/hal/src/serial.c" 1
 368 0006 83F31188 		msr     BASEPRI, r3
 369              	@ 0 "" 2
 370              		.thumb
 371              		.syntax unified
 372              	.LBE6:
 373              		.loc 1 189 0
 374 000a FFF7FEFF 		bl	sd_lld_stop
 375              	.LVL35:
 376              		.loc 1 190 0
 377 000e 0123     		movs	r3, #1
 378 0010 2372     		strb	r3, [r4, #8]
 379              		.loc 1 191 0
 380 0012 04F13000 		add	r0, r4, #48
 381 0016 FFF7FEFF 		bl	chOQResetI
 382              	.LVL36:
 383              		.loc 1 192 0
 384 001a 04F10C00 		add	r0, r4, #12
 385 001e FFF7FEFF 		bl	chIQResetI
 386              	.LVL37:
 387              		.loc 1 193 0
 388 0022 FFF7FEFF 		bl	chSchRescheduleS
 389              	.LVL38:
 390              	.LBB7:
 391              		.loc 1 194 0
 392 0026 0023     		movs	r3, #0
 393              		.syntax unified
 394              	@ 194 "../ChibiOS/os/hal/src/serial.c" 1
 395 0028 83F31188 		msr     BASEPRI, r3
 396              	@ 0 "" 2
 397              		.thumb
 398              		.syntax unified
 399 002c 10BD     		pop	{r4, pc}
ARM GAS  /var/folders/6q/x_mk5n_j3p7_c40r_2k_78980000gn/T//cc8CwihN.s 			page 8


 400              	.LBE7:
 401              		.cfi_endproc
 402              	.LFE74:
 403              		.size	sdStop, .-sdStop
 404 002e 00BF     		.section	.text.sdIncomingDataI,"ax",%progbits
 405              		.align	2
 406              		.p2align 4,,15
 407              		.global	sdIncomingDataI
 408              		.thumb
 409              		.thumb_func
 410              		.type	sdIncomingDataI, %function
 411              	sdIncomingDataI:
 412              	.LFB75:
 413              		.loc 1 213 0
 414              		.cfi_startproc
 415              		@ args = 0, pretend = 0, frame = 0
 416              		@ frame_needed = 0, uses_anonymous_args = 0
 417              	.LVL39:
 418 0000 38B5     		push	{r3, r4, r5, lr}
 419              		.cfi_def_cfa_offset 16
 420              		.cfi_offset 3, -16
 421              		.cfi_offset 4, -12
 422              		.cfi_offset 5, -8
 423              		.cfi_offset 14, -4
 424              		.loc 1 218 0
 425 0002 4369     		ldr	r3, [r0, #20]
 426              		.loc 1 213 0
 427 0004 0446     		mov	r4, r0
 428 0006 0D46     		mov	r5, r1
 429              		.loc 1 218 0
 430 0008 3BB1     		cbz	r3, .L23
 431              		.loc 1 220 0
 432 000a 2946     		mov	r1, r5
 433              	.LVL40:
 434 000c 04F10C00 		add	r0, r4, #12
 435              	.LVL41:
 436 0010 FFF7FEFF 		bl	chIQPutI
 437              	.LVL42:
 438 0014 0028     		cmp	r0, #0
 439 0016 0BDB     		blt	.L24
 440              	.L18:
 441 0018 38BD     		pop	{r3, r4, r5, pc}
 442              	.LVL43:
 443              	.L23:
 444              		.loc 1 219 0
 445 001a 0421     		movs	r1, #4
 446              	.LVL44:
 447 001c 0844     		add	r0, r0, r1
 448              	.LVL45:
 449 001e FFF7FEFF 		bl	chEvtBroadcastFlagsI
 450              	.LVL46:
 451              		.loc 1 220 0
 452 0022 2946     		mov	r1, r5
 453 0024 04F10C00 		add	r0, r4, #12
 454 0028 FFF7FEFF 		bl	chIQPutI
 455              	.LVL47:
 456 002c 0028     		cmp	r0, #0
ARM GAS  /var/folders/6q/x_mk5n_j3p7_c40r_2k_78980000gn/T//cc8CwihN.s 			page 9


 457 002e F3DA     		bge	.L18
 458              	.L24:
 459              		.loc 1 221 0
 460 0030 201D     		adds	r0, r4, #4
 461 0032 8021     		movs	r1, #128
 462              		.loc 1 222 0
 463 0034 BDE83840 		pop	{r3, r4, r5, lr}
 464              		.cfi_restore 14
 465              		.cfi_restore 5
 466              		.cfi_restore 4
 467              		.cfi_restore 3
 468              		.cfi_def_cfa_offset 0
 469              	.LVL48:
 470              		.loc 1 221 0
 471 0038 FFF7FEBF 		b	chEvtBroadcastFlagsI
 472              	.LVL49:
 473              		.cfi_endproc
 474              	.LFE75:
 475              		.size	sdIncomingDataI, .-sdIncomingDataI
 476              		.section	.text.sdRequestDataI,"ax",%progbits
 477              		.align	2
 478              		.p2align 4,,15
 479              		.global	sdRequestDataI
 480              		.thumb
 481              		.thumb_func
 482              		.type	sdRequestDataI, %function
 483              	sdRequestDataI:
 484              	.LFB76:
 485              		.loc 1 239 0
 486              		.cfi_startproc
 487              		@ args = 0, pretend = 0, frame = 0
 488              		@ frame_needed = 0, uses_anonymous_args = 0
 489              	.LVL50:
 490 0000 38B5     		push	{r3, r4, r5, lr}
 491              		.cfi_def_cfa_offset 16
 492              		.cfi_offset 3, -16
 493              		.cfi_offset 4, -12
 494              		.cfi_offset 5, -8
 495              		.cfi_offset 14, -4
 496              		.loc 1 239 0
 497 0002 0446     		mov	r4, r0
 498              		.loc 1 245 0
 499 0004 3030     		adds	r0, r0, #48
 500              	.LVL51:
 501 0006 FFF7FEFF 		bl	chOQGetI
 502              	.LVL52:
 503              		.loc 1 246 0
 504 000a 051E     		subs	r5, r0, #0
 505 000c 01DB     		blt	.L28
 506              		.loc 1 249 0
 507 000e 2846     		mov	r0, r5
 508 0010 38BD     		pop	{r3, r4, r5, pc}
 509              	.LVL53:
 510              	.L28:
 511              		.loc 1 247 0
 512 0012 201D     		adds	r0, r4, #4
 513              	.LVL54:
ARM GAS  /var/folders/6q/x_mk5n_j3p7_c40r_2k_78980000gn/T//cc8CwihN.s 			page 10


 514 0014 0821     		movs	r1, #8
 515 0016 FFF7FEFF 		bl	chEvtBroadcastFlagsI
 516              	.LVL55:
 517              		.loc 1 249 0
 518 001a 2846     		mov	r0, r5
 519 001c 38BD     		pop	{r3, r4, r5, pc}
 520              		.cfi_endproc
 521              	.LFE76:
 522              		.size	sdRequestDataI, .-sdRequestDataI
 523 001e 00BF     		.section	.rodata.vmt,"a",%progbits
 524              		.align	2
 525              		.set	.LANCHOR0,. + 0
 526              		.type	vmt, %object
 527              		.size	vmt, 32
 528              	vmt:
 529 0000 00000000 		.word	write
 530 0004 00000000 		.word	read
 531 0008 00000000 		.word	put
 532 000c 00000000 		.word	get
 533 0010 00000000 		.word	putt
 534 0014 00000000 		.word	gett
 535 0018 00000000 		.word	writet
 536 001c 00000000 		.word	readt
 537              		.text
 538              	.Letext0:
 539              		.file 2 "/Users/Luca/src/vexilla/src/gcc-arm-none-eabi-5_4-2016q3/lib/gcc/arm-none-eabi/5.4.1/incl
 540              		.file 3 "/Users/Luca/src/vexilla/src/gcc-arm-none-eabi-5_4-2016q3/arm-none-eabi/include/machine/_d
 541              		.file 4 "/Users/Luca/src/vexilla/src/gcc-arm-none-eabi-5_4-2016q3/arm-none-eabi/include/sys/_stdin
 542              		.file 5 "../ChibiOS/os/ports/GCC/ARMCMx/chtypes.h"
 543              		.file 6 "../ChibiOS/os/kernel/include/chlists.h"
 544              		.file 7 "../ChibiOS/os/kernel/include/chthreads.h"
 545              		.file 8 "../ChibiOS/os/ports/GCC/ARMCMx/chcore_v7m.h"
 546              		.file 9 "../ChibiOS/os/kernel/include/chmtx.h"
 547              		.file 10 "../ChibiOS/os/kernel/include/chevents.h"
 548              		.file 11 "../ChibiOS/os/kernel/include/chqueues.h"
 549              		.file 12 "../ChibiOS/os/hal/platforms/STM32F1xx/stm32f10x.h"
 550              		.file 13 "../ChibiOS/os/hal/include/serial.h"
 551              		.file 14 "../ChibiOS/os/hal/platforms/STM32/USARTv1/serial_lld.h"
 552              		.file 15 "../ChibiOS/os/kernel/include/chschd.h"
 553              		.file 16 "../ChibiOS/os/ports/common/ARMCMx/CMSIS/include/core_cm3.h"
 554              		.section	.debug_info,"",%progbits
 555              	.Ldebug_info0:
 556 0000 F70E0000 		.4byte	0xef7
 557 0004 0400     		.2byte	0x4
 558 0006 00000000 		.4byte	.Ldebug_abbrev0
 559 000a 04       		.byte	0x4
 560 000b 01       		.uleb128 0x1
 561 000c D6010000 		.4byte	.LASF137
 562 0010 0C       		.byte	0xc
 563 0011 48050000 		.4byte	.LASF138
 564 0015 A3050000 		.4byte	.LASF139
 565 0019 30000000 		.4byte	.Ldebug_ranges0+0x30
 566 001d 00000000 		.4byte	0
 567 0021 00000000 		.4byte	.Ldebug_line0
 568 0025 02       		.uleb128 0x2
 569 0026 04       		.byte	0x4
 570 0027 05       		.byte	0x5
ARM GAS  /var/folders/6q/x_mk5n_j3p7_c40r_2k_78980000gn/T//cc8CwihN.s 			page 11


 571 0028 696E7400 		.ascii	"int\000"
 572 002c 03       		.uleb128 0x3
 573 002d 0F000000 		.4byte	.LASF4
 574 0031 02       		.byte	0x2
 575 0032 D8       		.byte	0xd8
 576 0033 37000000 		.4byte	0x37
 577 0037 04       		.uleb128 0x4
 578 0038 04       		.byte	0x4
 579 0039 07       		.byte	0x7
 580 003a 7E010000 		.4byte	.LASF0
 581 003e 04       		.uleb128 0x4
 582 003f 08       		.byte	0x8
 583 0040 05       		.byte	0x5
 584 0041 A1000000 		.4byte	.LASF1
 585 0045 04       		.uleb128 0x4
 586 0046 08       		.byte	0x8
 587 0047 04       		.byte	0x4
 588 0048 62030000 		.4byte	.LASF2
 589 004c 04       		.uleb128 0x4
 590 004d 01       		.byte	0x1
 591 004e 06       		.byte	0x6
 592 004f AF000000 		.4byte	.LASF3
 593 0053 03       		.uleb128 0x3
 594 0054 29000000 		.4byte	.LASF5
 595 0058 03       		.byte	0x3
 596 0059 1D       		.byte	0x1d
 597 005a 5E000000 		.4byte	0x5e
 598 005e 04       		.uleb128 0x4
 599 005f 01       		.byte	0x1
 600 0060 08       		.byte	0x8
 601 0061 1A040000 		.4byte	.LASF6
 602 0065 04       		.uleb128 0x4
 603 0066 02       		.byte	0x2
 604 0067 05       		.byte	0x5
 605 0068 5C040000 		.4byte	.LASF7
 606 006c 03       		.uleb128 0x3
 607 006d 17050000 		.4byte	.LASF8
 608 0071 03       		.byte	0x3
 609 0072 2B       		.byte	0x2b
 610 0073 77000000 		.4byte	0x77
 611 0077 04       		.uleb128 0x4
 612 0078 02       		.byte	0x2
 613 0079 07       		.byte	0x7
 614 007a B6020000 		.4byte	.LASF9
 615 007e 03       		.uleb128 0x3
 616 007f 3E050000 		.4byte	.LASF10
 617 0083 03       		.byte	0x3
 618 0084 3F       		.byte	0x3f
 619 0085 89000000 		.4byte	0x89
 620 0089 04       		.uleb128 0x4
 621 008a 04       		.byte	0x4
 622 008b 05       		.byte	0x5
 623 008c E7000000 		.4byte	.LASF11
 624 0090 03       		.uleb128 0x3
 625 0091 4F010000 		.4byte	.LASF12
 626 0095 03       		.byte	0x3
 627 0096 41       		.byte	0x41
ARM GAS  /var/folders/6q/x_mk5n_j3p7_c40r_2k_78980000gn/T//cc8CwihN.s 			page 12


 628 0097 9B000000 		.4byte	0x9b
 629 009b 04       		.uleb128 0x4
 630 009c 04       		.byte	0x4
 631 009d 07       		.byte	0x7
 632 009e DC040000 		.4byte	.LASF13
 633 00a2 04       		.uleb128 0x4
 634 00a3 08       		.byte	0x8
 635 00a4 07       		.byte	0x7
 636 00a5 43000000 		.4byte	.LASF14
 637 00a9 03       		.uleb128 0x3
 638 00aa E5050000 		.4byte	.LASF15
 639 00ae 04       		.byte	0x4
 640 00af 18       		.byte	0x18
 641 00b0 53000000 		.4byte	0x53
 642 00b4 03       		.uleb128 0x3
 643 00b5 8B010000 		.4byte	.LASF16
 644 00b9 04       		.byte	0x4
 645 00ba 24       		.byte	0x24
 646 00bb 6C000000 		.4byte	0x6c
 647 00bf 03       		.uleb128 0x3
 648 00c0 12040000 		.4byte	.LASF17
 649 00c4 04       		.byte	0x4
 650 00c5 2C       		.byte	0x2c
 651 00c6 7E000000 		.4byte	0x7e
 652 00ca 03       		.uleb128 0x3
 653 00cb BC040000 		.4byte	.LASF18
 654 00cf 04       		.byte	0x4
 655 00d0 30       		.byte	0x30
 656 00d1 90000000 		.4byte	0x90
 657 00d5 03       		.uleb128 0x3
 658 00d6 C8000000 		.4byte	.LASF19
 659 00da 05       		.byte	0x5
 660 00db 2B       		.byte	0x2b
 661 00dc E0000000 		.4byte	0xe0
 662 00e0 04       		.uleb128 0x4
 663 00e1 01       		.byte	0x1
 664 00e2 02       		.byte	0x2
 665 00e3 0C040000 		.4byte	.LASF20
 666 00e7 03       		.uleb128 0x3
 667 00e8 EB020000 		.4byte	.LASF21
 668 00ec 05       		.byte	0x5
 669 00ed 2C       		.byte	0x2c
 670 00ee A9000000 		.4byte	0xa9
 671 00f2 03       		.uleb128 0x3
 672 00f3 F0000000 		.4byte	.LASF22
 673 00f7 05       		.byte	0x5
 674 00f8 2D       		.byte	0x2d
 675 00f9 A9000000 		.4byte	0xa9
 676 00fd 03       		.uleb128 0x3
 677 00fe B1030000 		.4byte	.LASF23
 678 0102 05       		.byte	0x5
 679 0103 2E       		.byte	0x2e
 680 0104 A9000000 		.4byte	0xa9
 681 0108 03       		.uleb128 0x3
 682 0109 D7000000 		.4byte	.LASF24
 683 010d 05       		.byte	0x5
 684 010e 2F       		.byte	0x2f
ARM GAS  /var/folders/6q/x_mk5n_j3p7_c40r_2k_78980000gn/T//cc8CwihN.s 			page 13


 685 010f A9000000 		.4byte	0xa9
 686 0113 03       		.uleb128 0x3
 687 0114 FC030000 		.4byte	.LASF25
 688 0118 05       		.byte	0x5
 689 0119 30       		.byte	0x30
 690 011a CA000000 		.4byte	0xca
 691 011e 03       		.uleb128 0x3
 692 011f C9020000 		.4byte	.LASF26
 693 0123 05       		.byte	0x5
 694 0124 31       		.byte	0x31
 695 0125 BF000000 		.4byte	0xbf
 696 0129 03       		.uleb128 0x3
 697 012a FF020000 		.4byte	.LASF27
 698 012e 05       		.byte	0x5
 699 012f 33       		.byte	0x33
 700 0130 CA000000 		.4byte	0xca
 701 0134 03       		.uleb128 0x3
 702 0135 91050000 		.4byte	.LASF28
 703 0139 05       		.byte	0x5
 704 013a 34       		.byte	0x34
 705 013b CA000000 		.4byte	0xca
 706 013f 03       		.uleb128 0x3
 707 0140 29050000 		.4byte	.LASF29
 708 0144 05       		.byte	0x5
 709 0145 35       		.byte	0x35
 710 0146 CA000000 		.4byte	0xca
 711 014a 03       		.uleb128 0x3
 712 014b 96040000 		.4byte	.LASF30
 713 014f 06       		.byte	0x6
 714 0150 2A       		.byte	0x2a
 715 0151 55010000 		.4byte	0x155
 716 0155 05       		.uleb128 0x5
 717 0156 96040000 		.4byte	.LASF30
 718 015a 48       		.byte	0x48
 719 015b 07       		.byte	0x7
 720 015c 5E       		.byte	0x5e
 721 015d 52020000 		.4byte	0x252
 722 0161 06       		.uleb128 0x6
 723 0162 77040000 		.4byte	.LASF31
 724 0166 07       		.byte	0x7
 725 0167 5F       		.byte	0x5f
 726 0168 73020000 		.4byte	0x273
 727 016c 00       		.byte	0
 728 016d 06       		.uleb128 0x6
 729 016e EB030000 		.4byte	.LASF32
 730 0172 07       		.byte	0x7
 731 0173 61       		.byte	0x61
 732 0174 73020000 		.4byte	0x273
 733 0178 04       		.byte	0x4
 734 0179 06       		.uleb128 0x6
 735 017a 74030000 		.4byte	.LASF33
 736 017e 07       		.byte	0x7
 737 017f 63       		.byte	0x63
 738 0180 13010000 		.4byte	0x113
 739 0184 08       		.byte	0x8
 740 0185 06       		.uleb128 0x6
 741 0186 3C060000 		.4byte	.LASF34
ARM GAS  /var/folders/6q/x_mk5n_j3p7_c40r_2k_78980000gn/T//cc8CwihN.s 			page 14


 742 018a 07       		.byte	0x7
 743 018b 64       		.byte	0x64
 744 018c 2D030000 		.4byte	0x32d
 745 0190 0C       		.byte	0xc
 746 0191 06       		.uleb128 0x6
 747 0192 36010000 		.4byte	.LASF35
 748 0196 07       		.byte	0x7
 749 0197 66       		.byte	0x66
 750 0198 73020000 		.4byte	0x273
 751 019c 10       		.byte	0x10
 752 019d 06       		.uleb128 0x6
 753 019e 83030000 		.4byte	.LASF36
 754 01a2 07       		.byte	0x7
 755 01a3 67       		.byte	0x67
 756 01a4 73020000 		.4byte	0x273
 757 01a8 14       		.byte	0x14
 758 01a9 06       		.uleb128 0x6
 759 01aa 67050000 		.4byte	.LASF37
 760 01ae 07       		.byte	0x7
 761 01af 6E       		.byte	0x6e
 762 01b0 43040000 		.4byte	0x443
 763 01b4 18       		.byte	0x18
 764 01b5 06       		.uleb128 0x6
 765 01b6 4A040000 		.4byte	.LASF38
 766 01ba 07       		.byte	0x7
 767 01bb 79       		.byte	0x79
 768 01bc F2000000 		.4byte	0xf2
 769 01c0 1C       		.byte	0x1c
 770 01c1 06       		.uleb128 0x6
 771 01c2 7E040000 		.4byte	.LASF39
 772 01c6 07       		.byte	0x7
 773 01c7 7D       		.byte	0x7d
 774 01c8 E7000000 		.4byte	0xe7
 775 01cc 1D       		.byte	0x1d
 776 01cd 06       		.uleb128 0x6
 777 01ce 02010000 		.4byte	.LASF40
 778 01d2 07       		.byte	0x7
 779 01d3 82       		.byte	0x82
 780 01d4 FD000000 		.4byte	0xfd
 781 01d8 1E       		.byte	0x1e
 782 01d9 06       		.uleb128 0x6
 783 01da 66040000 		.4byte	.LASF41
 784 01de 07       		.byte	0x7
 785 01df 88       		.byte	0x88
 786 01e0 08010000 		.4byte	0x108
 787 01e4 1F       		.byte	0x1f
 788 01e5 06       		.uleb128 0x6
 789 01e6 A4010000 		.4byte	.LASF42
 790 01ea 07       		.byte	0x7
 791 01eb 8F       		.byte	0x8f
 792 01ec 55030000 		.4byte	0x355
 793 01f0 20       		.byte	0x20
 794 01f1 07       		.uleb128 0x7
 795 01f2 705F7500 		.ascii	"p_u\000"
 796 01f6 07       		.byte	0x7
 797 01f7 B4       		.byte	0xb4
 798 01f8 0E040000 		.4byte	0x40e
ARM GAS  /var/folders/6q/x_mk5n_j3p7_c40r_2k_78980000gn/T//cc8CwihN.s 			page 15


 799 01fc 24       		.byte	0x24
 800 01fd 06       		.uleb128 0x6
 801 01fe 42060000 		.4byte	.LASF43
 802 0202 07       		.byte	0x7
 803 0203 B9       		.byte	0xb9
 804 0204 99020000 		.4byte	0x299
 805 0208 28       		.byte	0x28
 806 0209 06       		.uleb128 0x6
 807 020a BA010000 		.4byte	.LASF44
 808 020e 07       		.byte	0x7
 809 020f BF       		.byte	0xbf
 810 0210 79020000 		.4byte	0x279
 811 0214 2C       		.byte	0x2c
 812 0215 06       		.uleb128 0x6
 813 0216 0A060000 		.4byte	.LASF45
 814 021a 07       		.byte	0x7
 815 021b C3       		.byte	0xc3
 816 021c 1E010000 		.4byte	0x11e
 817 0220 34       		.byte	0x34
 818 0221 06       		.uleb128 0x6
 819 0222 9D040000 		.4byte	.LASF46
 820 0226 07       		.byte	0x7
 821 0227 C9       		.byte	0xc9
 822 0228 29010000 		.4byte	0x129
 823 022c 38       		.byte	0x38
 824 022d 06       		.uleb128 0x6
 825 022e 52040000 		.4byte	.LASF47
 826 0232 07       		.byte	0x7
 827 0233 D0       		.byte	0xd0
 828 0234 55040000 		.4byte	0x455
 829 0238 3C       		.byte	0x3c
 830 0239 06       		.uleb128 0x6
 831 023a 33050000 		.4byte	.LASF48
 832 023e 07       		.byte	0x7
 833 023f D4       		.byte	0xd4
 834 0240 13010000 		.4byte	0x113
 835 0244 40       		.byte	0x40
 836 0245 06       		.uleb128 0x6
 837 0246 C0000000 		.4byte	.LASF49
 838 024a 07       		.byte	0x7
 839 024b DA       		.byte	0xda
 840 024c AF020000 		.4byte	0x2af
 841 0250 44       		.byte	0x44
 842 0251 00       		.byte	0
 843 0252 08       		.uleb128 0x8
 844 0253 08       		.byte	0x8
 845 0254 06       		.byte	0x6
 846 0255 61       		.byte	0x61
 847 0256 73020000 		.4byte	0x273
 848 025a 06       		.uleb128 0x6
 849 025b 77040000 		.4byte	.LASF31
 850 025f 06       		.byte	0x6
 851 0260 62       		.byte	0x62
 852 0261 73020000 		.4byte	0x273
 853 0265 00       		.byte	0
 854 0266 06       		.uleb128 0x6
 855 0267 EB030000 		.4byte	.LASF32
ARM GAS  /var/folders/6q/x_mk5n_j3p7_c40r_2k_78980000gn/T//cc8CwihN.s 			page 16


 856 026b 06       		.byte	0x6
 857 026c 64       		.byte	0x64
 858 026d 73020000 		.4byte	0x273
 859 0271 04       		.byte	0x4
 860 0272 00       		.byte	0
 861 0273 09       		.uleb128 0x9
 862 0274 04       		.byte	0x4
 863 0275 4A010000 		.4byte	0x14a
 864 0279 03       		.uleb128 0x3
 865 027a 8B030000 		.4byte	.LASF50
 866 027e 06       		.byte	0x6
 867 027f 66       		.byte	0x66
 868 0280 52020000 		.4byte	0x252
 869 0284 08       		.uleb128 0x8
 870 0285 04       		.byte	0x4
 871 0286 06       		.byte	0x6
 872 0287 6B       		.byte	0x6b
 873 0288 99020000 		.4byte	0x299
 874 028c 06       		.uleb128 0x6
 875 028d 77040000 		.4byte	.LASF31
 876 0291 06       		.byte	0x6
 877 0292 6D       		.byte	0x6d
 878 0293 73020000 		.4byte	0x273
 879 0297 00       		.byte	0
 880 0298 00       		.byte	0
 881 0299 03       		.uleb128 0x3
 882 029a F3020000 		.4byte	.LASF51
 883 029e 06       		.byte	0x6
 884 029f 70       		.byte	0x70
 885 02a0 84020000 		.4byte	0x284
 886 02a4 03       		.uleb128 0x3
 887 02a5 5A010000 		.4byte	.LASF52
 888 02a9 08       		.byte	0x8
 889 02aa E5       		.byte	0xe5
 890 02ab AF020000 		.4byte	0x2af
 891 02af 0A       		.uleb128 0xa
 892 02b0 04       		.byte	0x4
 893 02b1 0B       		.uleb128 0xb
 894 02b2 81050000 		.4byte	.LASF53
 895 02b6 24       		.byte	0x24
 896 02b7 08       		.byte	0x8
 897 02b8 0C01     		.2byte	0x10c
 898 02ba 2D030000 		.4byte	0x32d
 899 02be 0C       		.uleb128 0xc
 900 02bf 723400   		.ascii	"r4\000"
 901 02c2 08       		.byte	0x8
 902 02c3 1F01     		.2byte	0x11f
 903 02c5 A4020000 		.4byte	0x2a4
 904 02c9 00       		.byte	0
 905 02ca 0C       		.uleb128 0xc
 906 02cb 723500   		.ascii	"r5\000"
 907 02ce 08       		.byte	0x8
 908 02cf 2001     		.2byte	0x120
 909 02d1 A4020000 		.4byte	0x2a4
 910 02d5 04       		.byte	0x4
 911 02d6 0C       		.uleb128 0xc
 912 02d7 723600   		.ascii	"r6\000"
ARM GAS  /var/folders/6q/x_mk5n_j3p7_c40r_2k_78980000gn/T//cc8CwihN.s 			page 17


 913 02da 08       		.byte	0x8
 914 02db 2101     		.2byte	0x121
 915 02dd A4020000 		.4byte	0x2a4
 916 02e1 08       		.byte	0x8
 917 02e2 0C       		.uleb128 0xc
 918 02e3 723700   		.ascii	"r7\000"
 919 02e6 08       		.byte	0x8
 920 02e7 2201     		.2byte	0x122
 921 02e9 A4020000 		.4byte	0x2a4
 922 02ed 0C       		.byte	0xc
 923 02ee 0C       		.uleb128 0xc
 924 02ef 723800   		.ascii	"r8\000"
 925 02f2 08       		.byte	0x8
 926 02f3 2301     		.2byte	0x123
 927 02f5 A4020000 		.4byte	0x2a4
 928 02f9 10       		.byte	0x10
 929 02fa 0C       		.uleb128 0xc
 930 02fb 723900   		.ascii	"r9\000"
 931 02fe 08       		.byte	0x8
 932 02ff 2401     		.2byte	0x124
 933 0301 A4020000 		.4byte	0x2a4
 934 0305 14       		.byte	0x14
 935 0306 0C       		.uleb128 0xc
 936 0307 72313000 		.ascii	"r10\000"
 937 030b 08       		.byte	0x8
 938 030c 2501     		.2byte	0x125
 939 030e A4020000 		.4byte	0x2a4
 940 0312 18       		.byte	0x18
 941 0313 0C       		.uleb128 0xc
 942 0314 72313100 		.ascii	"r11\000"
 943 0318 08       		.byte	0x8
 944 0319 2601     		.2byte	0x126
 945 031b A4020000 		.4byte	0x2a4
 946 031f 1C       		.byte	0x1c
 947 0320 0C       		.uleb128 0xc
 948 0321 6C7200   		.ascii	"lr\000"
 949 0324 08       		.byte	0x8
 950 0325 2701     		.2byte	0x127
 951 0327 A4020000 		.4byte	0x2a4
 952 032b 20       		.byte	0x20
 953 032c 00       		.byte	0
 954 032d 0B       		.uleb128 0xb
 955 032e 79050000 		.4byte	.LASF54
 956 0332 04       		.byte	0x4
 957 0333 08       		.byte	0x8
 958 0334 3101     		.2byte	0x131
 959 0336 48030000 		.4byte	0x348
 960 033a 0C       		.uleb128 0xc
 961 033b 72313300 		.ascii	"r13\000"
 962 033f 08       		.byte	0x8
 963 0340 3201     		.2byte	0x132
 964 0342 48030000 		.4byte	0x348
 965 0346 00       		.byte	0
 966 0347 00       		.byte	0
 967 0348 09       		.uleb128 0x9
 968 0349 04       		.byte	0x4
 969 034a B1020000 		.4byte	0x2b1
ARM GAS  /var/folders/6q/x_mk5n_j3p7_c40r_2k_78980000gn/T//cc8CwihN.s 			page 18


 970 034e 04       		.uleb128 0x4
 971 034f 04       		.byte	0x4
 972 0350 07       		.byte	0x7
 973 0351 4F030000 		.4byte	.LASF55
 974 0355 0D       		.uleb128 0xd
 975 0356 3F010000 		.4byte	0x13f
 976 035a 05       		.uleb128 0x5
 977 035b 6E030000 		.4byte	.LASF56
 978 035f 10       		.byte	0x10
 979 0360 09       		.byte	0x9
 980 0361 2C       		.byte	0x2c
 981 0362 8B030000 		.4byte	0x38b
 982 0366 06       		.uleb128 0x6
 983 0367 CF000000 		.4byte	.LASF57
 984 036b 09       		.byte	0x9
 985 036c 2D       		.byte	0x2d
 986 036d 79020000 		.4byte	0x279
 987 0371 00       		.byte	0
 988 0372 06       		.uleb128 0x6
 989 0373 34060000 		.4byte	.LASF58
 990 0377 09       		.byte	0x9
 991 0378 2F       		.byte	0x2f
 992 0379 73020000 		.4byte	0x273
 993 037d 08       		.byte	0x8
 994 037e 06       		.uleb128 0x6
 995 037f 22050000 		.4byte	.LASF59
 996 0383 09       		.byte	0x9
 997 0384 31       		.byte	0x31
 998 0385 8B030000 		.4byte	0x38b
 999 0389 0C       		.byte	0xc
 1000 038a 00       		.byte	0
 1001 038b 09       		.uleb128 0x9
 1002 038c 04       		.byte	0x4
 1003 038d 5A030000 		.4byte	0x35a
 1004 0391 03       		.uleb128 0x3
 1005 0392 6E030000 		.4byte	.LASF56
 1006 0396 09       		.byte	0x9
 1007 0397 33       		.byte	0x33
 1008 0398 5A030000 		.4byte	0x35a
 1009 039c 03       		.uleb128 0x3
 1010 039d F5050000 		.4byte	.LASF60
 1011 03a1 0A       		.byte	0xa
 1012 03a2 2C       		.byte	0x2c
 1013 03a3 A7030000 		.4byte	0x3a7
 1014 03a7 05       		.uleb128 0x5
 1015 03a8 F5050000 		.4byte	.LASF60
 1016 03ac 10       		.byte	0x10
 1017 03ad 0A       		.byte	0xa
 1018 03ae 31       		.byte	0x31
 1019 03af E4030000 		.4byte	0x3e4
 1020 03b3 06       		.uleb128 0x6
 1021 03b4 86040000 		.4byte	.LASF61
 1022 03b8 0A       		.byte	0xa
 1023 03b9 32       		.byte	0x32
 1024 03ba E4030000 		.4byte	0x3e4
 1025 03be 00       		.byte	0
 1026 03bf 06       		.uleb128 0x6
ARM GAS  /var/folders/6q/x_mk5n_j3p7_c40r_2k_78980000gn/T//cc8CwihN.s 			page 19


 1027 03c0 35040000 		.4byte	.LASF62
 1028 03c4 0A       		.byte	0xa
 1029 03c5 35       		.byte	0x35
 1030 03c6 73020000 		.4byte	0x273
 1031 03ca 04       		.byte	0x4
 1032 03cb 06       		.uleb128 0x6
 1033 03cc 7B030000 		.4byte	.LASF63
 1034 03d0 0A       		.byte	0xa
 1035 03d1 37       		.byte	0x37
 1036 03d2 29010000 		.4byte	0x129
 1037 03d6 08       		.byte	0x8
 1038 03d7 06       		.uleb128 0x6
 1039 03d8 41040000 		.4byte	.LASF64
 1040 03dc 0A       		.byte	0xa
 1041 03dd 3A       		.byte	0x3a
 1042 03de 34010000 		.4byte	0x134
 1043 03e2 0C       		.byte	0xc
 1044 03e3 00       		.byte	0
 1045 03e4 09       		.uleb128 0x9
 1046 03e5 04       		.byte	0x4
 1047 03e6 9C030000 		.4byte	0x39c
 1048 03ea 05       		.uleb128 0x5
 1049 03eb 6C010000 		.4byte	.LASF65
 1050 03ef 04       		.byte	0x4
 1051 03f0 0A       		.byte	0xa
 1052 03f1 41       		.byte	0x41
 1053 03f2 03040000 		.4byte	0x403
 1054 03f6 06       		.uleb128 0x6
 1055 03f7 C5050000 		.4byte	.LASF66
 1056 03fb 0A       		.byte	0xa
 1057 03fc 42       		.byte	0x42
 1058 03fd E4030000 		.4byte	0x3e4
 1059 0401 00       		.byte	0
 1060 0402 00       		.byte	0
 1061 0403 03       		.uleb128 0x3
 1062 0404 6C010000 		.4byte	.LASF65
 1063 0408 0A       		.byte	0xa
 1064 0409 45       		.byte	0x45
 1065 040a EA030000 		.4byte	0x3ea
 1066 040e 0E       		.uleb128 0xe
 1067 040f 04       		.byte	0x4
 1068 0410 07       		.byte	0x7
 1069 0411 96       		.byte	0x96
 1070 0412 43040000 		.4byte	0x443
 1071 0416 0F       		.uleb128 0xf
 1072 0417 16000000 		.4byte	.LASF67
 1073 041b 07       		.byte	0x7
 1074 041c 9D       		.byte	0x9d
 1075 041d 1E010000 		.4byte	0x11e
 1076 0421 0F       		.uleb128 0xf
 1077 0422 6E000000 		.4byte	.LASF68
 1078 0426 07       		.byte	0x7
 1079 0427 A4       		.byte	0xa4
 1080 0428 1E010000 		.4byte	0x11e
 1081 042c 0F       		.uleb128 0xf
 1082 042d 03060000 		.4byte	.LASF69
 1083 0431 07       		.byte	0x7
ARM GAS  /var/folders/6q/x_mk5n_j3p7_c40r_2k_78980000gn/T//cc8CwihN.s 			page 20


 1084 0432 AB       		.byte	0xab
 1085 0433 AF020000 		.4byte	0x2af
 1086 0437 0F       		.uleb128 0xf
 1087 0438 70040000 		.4byte	.LASF70
 1088 043c 07       		.byte	0x7
 1089 043d B2       		.byte	0xb2
 1090 043e 29010000 		.4byte	0x129
 1091 0442 00       		.byte	0
 1092 0443 09       		.uleb128 0x9
 1093 0444 04       		.byte	0x4
 1094 0445 50040000 		.4byte	0x450
 1095 0449 04       		.uleb128 0x4
 1096 044a 01       		.byte	0x1
 1097 044b 08       		.byte	0x8
 1098 044c F3040000 		.4byte	.LASF71
 1099 0450 10       		.uleb128 0x10
 1100 0451 49040000 		.4byte	0x449
 1101 0455 09       		.uleb128 0x9
 1102 0456 04       		.byte	0x4
 1103 0457 91030000 		.4byte	0x391
 1104 045b 09       		.uleb128 0x9
 1105 045c 04       		.byte	0x4
 1106 045d 61040000 		.4byte	0x461
 1107 0461 11       		.uleb128 0x11
 1108 0462 1E010000 		.4byte	0x11e
 1109 0466 70040000 		.4byte	0x470
 1110 046a 12       		.uleb128 0x12
 1111 046b AF020000 		.4byte	0x2af
 1112 046f 00       		.byte	0
 1113 0470 03       		.uleb128 0x3
 1114 0471 26030000 		.4byte	.LASF72
 1115 0475 0B       		.byte	0xb
 1116 0476 37       		.byte	0x37
 1117 0477 7B040000 		.4byte	0x47b
 1118 047b 05       		.uleb128 0x5
 1119 047c 26030000 		.4byte	.LASF72
 1120 0480 24       		.byte	0x24
 1121 0481 0B       		.byte	0xb
 1122 0482 45       		.byte	0x45
 1123 0483 E8040000 		.4byte	0x4e8
 1124 0487 06       		.uleb128 0x6
 1125 0488 97000000 		.4byte	.LASF73
 1126 048c 0B       		.byte	0xb
 1127 048d 46       		.byte	0x46
 1128 048e 79020000 		.4byte	0x279
 1129 0492 00       		.byte	0
 1130 0493 06       		.uleb128 0x6
 1131 0494 58030000 		.4byte	.LASF74
 1132 0498 0B       		.byte	0xb
 1133 0499 47       		.byte	0x47
 1134 049a 2C000000 		.4byte	0x2c
 1135 049e 08       		.byte	0x8
 1136 049f 06       		.uleb128 0x6
 1137 04a0 09010000 		.4byte	.LASF75
 1138 04a4 0B       		.byte	0xb
 1139 04a5 48       		.byte	0x48
 1140 04a6 0A050000 		.4byte	0x50a
ARM GAS  /var/folders/6q/x_mk5n_j3p7_c40r_2k_78980000gn/T//cc8CwihN.s 			page 21


 1141 04aa 0C       		.byte	0xc
 1142 04ab 06       		.uleb128 0x6
 1143 04ac 9D050000 		.4byte	.LASF76
 1144 04b0 0B       		.byte	0xb
 1145 04b1 49       		.byte	0x49
 1146 04b2 0A050000 		.4byte	0x50a
 1147 04b6 10       		.byte	0x10
 1148 04b7 06       		.uleb128 0x6
 1149 04b8 12010000 		.4byte	.LASF77
 1150 04bc 0B       		.byte	0xb
 1151 04bd 4B       		.byte	0x4b
 1152 04be 0A050000 		.4byte	0x50a
 1153 04c2 14       		.byte	0x14
 1154 04c3 06       		.uleb128 0x6
 1155 04c4 04040000 		.4byte	.LASF78
 1156 04c8 0B       		.byte	0xb
 1157 04c9 4C       		.byte	0x4c
 1158 04ca 0A050000 		.4byte	0x50a
 1159 04ce 18       		.byte	0x18
 1160 04cf 06       		.uleb128 0x6
 1161 04d0 CD050000 		.4byte	.LASF79
 1162 04d4 0B       		.byte	0xb
 1163 04d5 4D       		.byte	0x4d
 1164 04d6 E8040000 		.4byte	0x4e8
 1165 04da 1C       		.byte	0x1c
 1166 04db 06       		.uleb128 0x6
 1167 04dc 1A010000 		.4byte	.LASF80
 1168 04e0 0B       		.byte	0xb
 1169 04e1 4E       		.byte	0x4e
 1170 04e2 AF020000 		.4byte	0x2af
 1171 04e6 20       		.byte	0x20
 1172 04e7 00       		.byte	0
 1173 04e8 03       		.uleb128 0x3
 1174 04e9 1C030000 		.4byte	.LASF81
 1175 04ed 0B       		.byte	0xb
 1176 04ee 3A       		.byte	0x3a
 1177 04ef F3040000 		.4byte	0x4f3
 1178 04f3 09       		.uleb128 0x9
 1179 04f4 04       		.byte	0x4
 1180 04f5 F9040000 		.4byte	0x4f9
 1181 04f9 13       		.uleb128 0x13
 1182 04fa 04050000 		.4byte	0x504
 1183 04fe 12       		.uleb128 0x12
 1184 04ff 04050000 		.4byte	0x504
 1185 0503 00       		.byte	0
 1186 0504 09       		.uleb128 0x9
 1187 0505 04       		.byte	0x4
 1188 0506 70040000 		.4byte	0x470
 1189 050a 09       		.uleb128 0x9
 1190 050b 04       		.byte	0x4
 1191 050c A9000000 		.4byte	0xa9
 1192 0510 03       		.uleb128 0x3
 1193 0511 0B030000 		.4byte	.LASF82
 1194 0515 0B       		.byte	0xb
 1195 0516 82       		.byte	0x82
 1196 0517 70040000 		.4byte	0x470
 1197 051b 03       		.uleb128 0x3
ARM GAS  /var/folders/6q/x_mk5n_j3p7_c40r_2k_78980000gn/T//cc8CwihN.s 			page 22


 1198 051c 1D000000 		.4byte	.LASF83
 1199 0520 0B       		.byte	0xb
 1200 0521 F5       		.byte	0xf5
 1201 0522 70040000 		.4byte	0x470
 1202 0526 11       		.uleb128 0x11
 1203 0527 2C000000 		.4byte	0x2c
 1204 052b 3F050000 		.4byte	0x53f
 1205 052f 12       		.uleb128 0x12
 1206 0530 AF020000 		.4byte	0x2af
 1207 0534 12       		.uleb128 0x12
 1208 0535 3F050000 		.4byte	0x53f
 1209 0539 12       		.uleb128 0x12
 1210 053a 2C000000 		.4byte	0x2c
 1211 053e 00       		.byte	0
 1212 053f 09       		.uleb128 0x9
 1213 0540 04       		.byte	0x4
 1214 0541 45050000 		.4byte	0x545
 1215 0545 10       		.uleb128 0x10
 1216 0546 A9000000 		.4byte	0xa9
 1217 054a 09       		.uleb128 0x9
 1218 054b 04       		.byte	0x4
 1219 054c 26050000 		.4byte	0x526
 1220 0550 11       		.uleb128 0x11
 1221 0551 2C000000 		.4byte	0x2c
 1222 0555 69050000 		.4byte	0x569
 1223 0559 12       		.uleb128 0x12
 1224 055a AF020000 		.4byte	0x2af
 1225 055e 12       		.uleb128 0x12
 1226 055f 0A050000 		.4byte	0x50a
 1227 0563 12       		.uleb128 0x12
 1228 0564 2C000000 		.4byte	0x2c
 1229 0568 00       		.byte	0
 1230 0569 09       		.uleb128 0x9
 1231 056a 04       		.byte	0x4
 1232 056b 50050000 		.4byte	0x550
 1233 056f 11       		.uleb128 0x11
 1234 0570 1E010000 		.4byte	0x11e
 1235 0574 83050000 		.4byte	0x583
 1236 0578 12       		.uleb128 0x12
 1237 0579 AF020000 		.4byte	0x2af
 1238 057d 12       		.uleb128 0x12
 1239 057e A9000000 		.4byte	0xa9
 1240 0582 00       		.byte	0
 1241 0583 09       		.uleb128 0x9
 1242 0584 04       		.byte	0x4
 1243 0585 6F050000 		.4byte	0x56f
 1244 0589 0D       		.uleb128 0xd
 1245 058a B4000000 		.4byte	0xb4
 1246 058e 0D       		.uleb128 0xd
 1247 058f BF000000 		.4byte	0xbf
 1248 0593 14       		.uleb128 0x14
 1249 0594 1C       		.byte	0x1c
 1250 0595 0C       		.byte	0xc
 1251 0596 E104     		.2byte	0x4e1
 1252 0598 51060000 		.4byte	0x651
 1253 059c 0C       		.uleb128 0xc
 1254 059d 535200   		.ascii	"SR\000"
ARM GAS  /var/folders/6q/x_mk5n_j3p7_c40r_2k_78980000gn/T//cc8CwihN.s 			page 23


 1255 05a0 0C       		.byte	0xc
 1256 05a1 E304     		.2byte	0x4e3
 1257 05a3 89050000 		.4byte	0x589
 1258 05a7 00       		.byte	0
 1259 05a8 15       		.uleb128 0x15
 1260 05a9 B9030000 		.4byte	.LASF84
 1261 05ad 0C       		.byte	0xc
 1262 05ae E404     		.2byte	0x4e4
 1263 05b0 B4000000 		.4byte	0xb4
 1264 05b4 02       		.byte	0x2
 1265 05b5 0C       		.uleb128 0xc
 1266 05b6 445200   		.ascii	"DR\000"
 1267 05b9 0C       		.byte	0xc
 1268 05ba E504     		.2byte	0x4e5
 1269 05bc 89050000 		.4byte	0x589
 1270 05c0 04       		.byte	0x4
 1271 05c1 15       		.uleb128 0x15
 1272 05c2 C3030000 		.4byte	.LASF85
 1273 05c6 0C       		.byte	0xc
 1274 05c7 E604     		.2byte	0x4e6
 1275 05c9 B4000000 		.4byte	0xb4
 1276 05cd 06       		.byte	0x6
 1277 05ce 0C       		.uleb128 0xc
 1278 05cf 42525200 		.ascii	"BRR\000"
 1279 05d3 0C       		.byte	0xc
 1280 05d4 E704     		.2byte	0x4e7
 1281 05d6 89050000 		.4byte	0x589
 1282 05da 08       		.byte	0x8
 1283 05db 15       		.uleb128 0x15
 1284 05dc CD030000 		.4byte	.LASF86
 1285 05e0 0C       		.byte	0xc
 1286 05e1 E804     		.2byte	0x4e8
 1287 05e3 B4000000 		.4byte	0xb4
 1288 05e7 0A       		.byte	0xa
 1289 05e8 0C       		.uleb128 0xc
 1290 05e9 43523100 		.ascii	"CR1\000"
 1291 05ed 0C       		.byte	0xc
 1292 05ee E904     		.2byte	0x4e9
 1293 05f0 89050000 		.4byte	0x589
 1294 05f4 0C       		.byte	0xc
 1295 05f5 15       		.uleb128 0x15
 1296 05f6 D7030000 		.4byte	.LASF87
 1297 05fa 0C       		.byte	0xc
 1298 05fb EA04     		.2byte	0x4ea
 1299 05fd B4000000 		.4byte	0xb4
 1300 0601 0E       		.byte	0xe
 1301 0602 0C       		.uleb128 0xc
 1302 0603 43523200 		.ascii	"CR2\000"
 1303 0607 0C       		.byte	0xc
 1304 0608 EB04     		.2byte	0x4eb
 1305 060a 89050000 		.4byte	0x589
 1306 060e 10       		.byte	0x10
 1307 060f 15       		.uleb128 0x15
 1308 0610 E1030000 		.4byte	.LASF88
 1309 0614 0C       		.byte	0xc
 1310 0615 EC04     		.2byte	0x4ec
 1311 0617 B4000000 		.4byte	0xb4
ARM GAS  /var/folders/6q/x_mk5n_j3p7_c40r_2k_78980000gn/T//cc8CwihN.s 			page 24


 1312 061b 12       		.byte	0x12
 1313 061c 0C       		.uleb128 0xc
 1314 061d 43523300 		.ascii	"CR3\000"
 1315 0621 0C       		.byte	0xc
 1316 0622 ED04     		.2byte	0x4ed
 1317 0624 89050000 		.4byte	0x589
 1318 0628 14       		.byte	0x14
 1319 0629 15       		.uleb128 0x15
 1320 062a B2040000 		.4byte	.LASF89
 1321 062e 0C       		.byte	0xc
 1322 062f EE04     		.2byte	0x4ee
 1323 0631 B4000000 		.4byte	0xb4
 1324 0635 16       		.byte	0x16
 1325 0636 15       		.uleb128 0x15
 1326 0637 BB000000 		.4byte	.LASF90
 1327 063b 0C       		.byte	0xc
 1328 063c EF04     		.2byte	0x4ef
 1329 063e 89050000 		.4byte	0x589
 1330 0642 18       		.byte	0x18
 1331 0643 15       		.uleb128 0x15
 1332 0644 F2030000 		.4byte	.LASF91
 1333 0648 0C       		.byte	0xc
 1334 0649 F004     		.2byte	0x4f0
 1335 064b B4000000 		.4byte	0xb4
 1336 064f 1A       		.byte	0x1a
 1337 0650 00       		.byte	0
 1338 0651 16       		.uleb128 0x16
 1339 0652 D6020000 		.4byte	.LASF92
 1340 0656 0C       		.byte	0xc
 1341 0657 F104     		.2byte	0x4f1
 1342 0659 93050000 		.4byte	0x593
 1343 065d 11       		.uleb128 0x11
 1344 065e 1E010000 		.4byte	0x11e
 1345 0662 76060000 		.4byte	0x676
 1346 0666 12       		.uleb128 0x12
 1347 0667 AF020000 		.4byte	0x2af
 1348 066b 12       		.uleb128 0x12
 1349 066c A9000000 		.4byte	0xa9
 1350 0670 12       		.uleb128 0x12
 1351 0671 3F010000 		.4byte	0x13f
 1352 0675 00       		.byte	0
 1353 0676 09       		.uleb128 0x9
 1354 0677 04       		.byte	0x4
 1355 0678 5D060000 		.4byte	0x65d
 1356 067c 11       		.uleb128 0x11
 1357 067d 1E010000 		.4byte	0x11e
 1358 0681 90060000 		.4byte	0x690
 1359 0685 12       		.uleb128 0x12
 1360 0686 AF020000 		.4byte	0x2af
 1361 068a 12       		.uleb128 0x12
 1362 068b 3F010000 		.4byte	0x13f
 1363 068f 00       		.byte	0
 1364 0690 09       		.uleb128 0x9
 1365 0691 04       		.byte	0x4
 1366 0692 7C060000 		.4byte	0x67c
 1367 0696 11       		.uleb128 0x11
 1368 0697 2C000000 		.4byte	0x2c
ARM GAS  /var/folders/6q/x_mk5n_j3p7_c40r_2k_78980000gn/T//cc8CwihN.s 			page 25


 1369 069b B4060000 		.4byte	0x6b4
 1370 069f 12       		.uleb128 0x12
 1371 06a0 AF020000 		.4byte	0x2af
 1372 06a4 12       		.uleb128 0x12
 1373 06a5 3F050000 		.4byte	0x53f
 1374 06a9 12       		.uleb128 0x12
 1375 06aa 2C000000 		.4byte	0x2c
 1376 06ae 12       		.uleb128 0x12
 1377 06af 3F010000 		.4byte	0x13f
 1378 06b3 00       		.byte	0
 1379 06b4 09       		.uleb128 0x9
 1380 06b5 04       		.byte	0x4
 1381 06b6 96060000 		.4byte	0x696
 1382 06ba 11       		.uleb128 0x11
 1383 06bb 2C000000 		.4byte	0x2c
 1384 06bf D8060000 		.4byte	0x6d8
 1385 06c3 12       		.uleb128 0x12
 1386 06c4 AF020000 		.4byte	0x2af
 1387 06c8 12       		.uleb128 0x12
 1388 06c9 0A050000 		.4byte	0x50a
 1389 06cd 12       		.uleb128 0x12
 1390 06ce 2C000000 		.4byte	0x2c
 1391 06d2 12       		.uleb128 0x12
 1392 06d3 3F010000 		.4byte	0x13f
 1393 06d7 00       		.byte	0
 1394 06d8 09       		.uleb128 0x9
 1395 06d9 04       		.byte	0x4
 1396 06da BA060000 		.4byte	0x6ba
 1397 06de 17       		.uleb128 0x17
 1398 06df 01       		.byte	0x1
 1399 06e0 5E000000 		.4byte	0x5e
 1400 06e4 0D       		.byte	0xd
 1401 06e5 64       		.byte	0x64
 1402 06e6 FD060000 		.4byte	0x6fd
 1403 06ea 18       		.uleb128 0x18
 1404 06eb A8040000 		.4byte	.LASF93
 1405 06ef 00       		.byte	0
 1406 06f0 18       		.uleb128 0x18
 1407 06f1 8E040000 		.4byte	.LASF94
 1408 06f5 01       		.byte	0x1
 1409 06f6 18       		.uleb128 0x18
 1410 06f7 88050000 		.4byte	.LASF95
 1411 06fb 02       		.byte	0x2
 1412 06fc 00       		.byte	0
 1413 06fd 03       		.uleb128 0x3
 1414 06fe C5040000 		.4byte	.LASF96
 1415 0702 0D       		.byte	0xd
 1416 0703 68       		.byte	0x68
 1417 0704 DE060000 		.4byte	0x6de
 1418 0708 03       		.uleb128 0x3
 1419 0709 CF040000 		.4byte	.LASF97
 1420 070d 0D       		.byte	0xd
 1421 070e 6D       		.byte	0x6d
 1422 070f 13070000 		.4byte	0x713
 1423 0713 05       		.uleb128 0x5
 1424 0714 CF040000 		.4byte	.LASF97
 1425 0718 D8       		.byte	0xd8
ARM GAS  /var/folders/6q/x_mk5n_j3p7_c40r_2k_78980000gn/T//cc8CwihN.s 			page 26


 1426 0719 0D       		.byte	0xd
 1427 071a 87       		.byte	0x87
 1428 071b 7E070000 		.4byte	0x77e
 1429 071f 07       		.uleb128 0x7
 1430 0720 766D7400 		.ascii	"vmt\000"
 1431 0724 0D       		.byte	0xd
 1432 0725 89       		.byte	0x89
 1433 0726 2F080000 		.4byte	0x82f
 1434 072a 00       		.byte	0
 1435 072b 06       		.uleb128 0x6
 1436 072c B0020000 		.4byte	.LASF98
 1437 0730 0D       		.byte	0xd
 1438 0731 8A       		.byte	0x8a
 1439 0732 03040000 		.4byte	0x403
 1440 0736 04       		.byte	0x4
 1441 0737 06       		.uleb128 0x6
 1442 0738 E1000000 		.4byte	.LASF99
 1443 073c 0D       		.byte	0xd
 1444 073d 8A       		.byte	0x8a
 1445 073e FD060000 		.4byte	0x6fd
 1446 0742 08       		.byte	0x8
 1447 0743 06       		.uleb128 0x6
 1448 0744 B3010000 		.4byte	.LASF100
 1449 0748 0D       		.byte	0xd
 1450 0749 8A       		.byte	0x8a
 1451 074a 10050000 		.4byte	0x510
 1452 074e 0C       		.byte	0xc
 1453 074f 06       		.uleb128 0x6
 1454 0750 CF020000 		.4byte	.LASF101
 1455 0754 0D       		.byte	0xd
 1456 0755 8A       		.byte	0x8a
 1457 0756 1B050000 		.4byte	0x51b
 1458 075a 30       		.byte	0x30
 1459 075b 07       		.uleb128 0x7
 1460 075c 696200   		.ascii	"ib\000"
 1461 075f 0D       		.byte	0xd
 1462 0760 8A       		.byte	0x8a
 1463 0761 3A080000 		.4byte	0x83a
 1464 0765 54       		.byte	0x54
 1465 0766 07       		.uleb128 0x7
 1466 0767 6F6200   		.ascii	"ob\000"
 1467 076a 0D       		.byte	0xd
 1468 076b 8A       		.byte	0x8a
 1469 076c 3A080000 		.4byte	0x83a
 1470 0770 94       		.byte	0x94
 1471 0771 06       		.uleb128 0x6
 1472 0772 78010000 		.4byte	.LASF102
 1473 0776 0D       		.byte	0xd
 1474 0777 8A       		.byte	0x8a
 1475 0778 4A080000 		.4byte	0x84a
 1476 077c D4       		.byte	0xd4
 1477 077d 00       		.byte	0
 1478 077e 08       		.uleb128 0x8
 1479 077f 0C       		.byte	0xc
 1480 0780 0E       		.byte	0xe
 1481 0781 D7       		.byte	0xd7
 1482 0782 B7070000 		.4byte	0x7b7
ARM GAS  /var/folders/6q/x_mk5n_j3p7_c40r_2k_78980000gn/T//cc8CwihN.s 			page 27


 1483 0786 06       		.uleb128 0x6
 1484 0787 16030000 		.4byte	.LASF103
 1485 078b 0E       		.byte	0xe
 1486 078c DB       		.byte	0xdb
 1487 078d CA000000 		.4byte	0xca
 1488 0791 00       		.byte	0
 1489 0792 07       		.uleb128 0x7
 1490 0793 63723100 		.ascii	"cr1\000"
 1491 0797 0E       		.byte	0xe
 1492 0798 E0       		.byte	0xe0
 1493 0799 B4000000 		.4byte	0xb4
 1494 079d 04       		.byte	0x4
 1495 079e 07       		.uleb128 0x7
 1496 079f 63723200 		.ascii	"cr2\000"
 1497 07a3 0E       		.byte	0xe
 1498 07a4 E4       		.byte	0xe4
 1499 07a5 B4000000 		.4byte	0xb4
 1500 07a9 06       		.byte	0x6
 1501 07aa 07       		.uleb128 0x7
 1502 07ab 63723300 		.ascii	"cr3\000"
 1503 07af 0E       		.byte	0xe
 1504 07b0 E8       		.byte	0xe8
 1505 07b1 B4000000 		.4byte	0xb4
 1506 07b5 08       		.byte	0x8
 1507 07b6 00       		.byte	0
 1508 07b7 03       		.uleb128 0x3
 1509 07b8 A4030000 		.4byte	.LASF104
 1510 07bc 0E       		.byte	0xe
 1511 07bd E9       		.byte	0xe9
 1512 07be 7E070000 		.4byte	0x77e
 1513 07c2 05       		.uleb128 0x5
 1514 07c3 94010000 		.4byte	.LASF105
 1515 07c7 20       		.byte	0x20
 1516 07c8 0D       		.byte	0xd
 1517 07c9 7C       		.byte	0x7c
 1518 07ca 2F080000 		.4byte	0x82f
 1519 07ce 06       		.uleb128 0x6
 1520 07cf 44030000 		.4byte	.LASF106
 1521 07d3 0D       		.byte	0xd
 1522 07d4 7D       		.byte	0x7d
 1523 07d5 4A050000 		.4byte	0x54a
 1524 07d9 00       		.byte	0
 1525 07da 06       		.uleb128 0x6
 1526 07db EE040000 		.4byte	.LASF107
 1527 07df 0D       		.byte	0xd
 1528 07e0 7D       		.byte	0x7d
 1529 07e1 69050000 		.4byte	0x569
 1530 07e5 04       		.byte	0x4
 1531 07e6 07       		.uleb128 0x7
 1532 07e7 70757400 		.ascii	"put\000"
 1533 07eb 0D       		.byte	0xd
 1534 07ec 7D       		.byte	0x7d
 1535 07ed 83050000 		.4byte	0x583
 1536 07f1 08       		.byte	0x8
 1537 07f2 07       		.uleb128 0x7
 1538 07f3 67657400 		.ascii	"get\000"
 1539 07f7 0D       		.byte	0xd
ARM GAS  /var/folders/6q/x_mk5n_j3p7_c40r_2k_78980000gn/T//cc8CwihN.s 			page 28


 1540 07f8 7D       		.byte	0x7d
 1541 07f9 5B040000 		.4byte	0x45b
 1542 07fd 0C       		.byte	0xc
 1543 07fe 06       		.uleb128 0x6
 1544 07ff 4A030000 		.4byte	.LASF108
 1545 0803 0D       		.byte	0xd
 1546 0804 7D       		.byte	0x7d
 1547 0805 76060000 		.4byte	0x676
 1548 0809 10       		.byte	0x10
 1549 080a 06       		.uleb128 0x6
 1550 080b D1010000 		.4byte	.LASF109
 1551 080f 0D       		.byte	0xd
 1552 0810 7D       		.byte	0x7d
 1553 0811 90060000 		.4byte	0x690
 1554 0815 14       		.byte	0x14
 1555 0816 06       		.uleb128 0x6
 1556 0817 E4020000 		.4byte	.LASF110
 1557 081b 0D       		.byte	0xd
 1558 081c 7D       		.byte	0x7d
 1559 081d B4060000 		.4byte	0x6b4
 1560 0821 18       		.byte	0x18
 1561 0822 06       		.uleb128 0x6
 1562 0823 91000000 		.4byte	.LASF111
 1563 0827 0D       		.byte	0xd
 1564 0828 7D       		.byte	0x7d
 1565 0829 D8060000 		.4byte	0x6d8
 1566 082d 1C       		.byte	0x1c
 1567 082e 00       		.byte	0
 1568 082f 09       		.uleb128 0x9
 1569 0830 04       		.byte	0x4
 1570 0831 35080000 		.4byte	0x835
 1571 0835 10       		.uleb128 0x10
 1572 0836 C2070000 		.4byte	0x7c2
 1573 083a 19       		.uleb128 0x19
 1574 083b A9000000 		.4byte	0xa9
 1575 083f 4A080000 		.4byte	0x84a
 1576 0843 1A       		.uleb128 0x1a
 1577 0844 4E030000 		.4byte	0x34e
 1578 0848 3F       		.byte	0x3f
 1579 0849 00       		.byte	0
 1580 084a 09       		.uleb128 0x9
 1581 084b 04       		.byte	0x4
 1582 084c 51060000 		.4byte	0x651
 1583 0850 1B       		.uleb128 0x1b
 1584 0851 91000000 		.4byte	.LASF111
 1585 0855 01       		.byte	0x1
 1586 0856 63       		.byte	0x63
 1587 0857 2C000000 		.4byte	0x2c
 1588 085b 00000000 		.4byte	.LFB70
 1589 085f 06000000 		.4byte	.LFE70-.LFB70
 1590 0863 01       		.uleb128 0x1
 1591 0864 9C       		.byte	0x9c
 1592 0865 CA080000 		.4byte	0x8ca
 1593 0869 1C       		.uleb128 0x1c
 1594 086a 697000   		.ascii	"ip\000"
 1595 086d 01       		.byte	0x1
 1596 086e 63       		.byte	0x63
ARM GAS  /var/folders/6q/x_mk5n_j3p7_c40r_2k_78980000gn/T//cc8CwihN.s 			page 29


 1597 086f AF020000 		.4byte	0x2af
 1598 0873 00000000 		.4byte	.LLST0
 1599 0877 1C       		.uleb128 0x1c
 1600 0878 627000   		.ascii	"bp\000"
 1601 087b 01       		.byte	0x1
 1602 087c 63       		.byte	0x63
 1603 087d 0A050000 		.4byte	0x50a
 1604 0881 2E000000 		.4byte	.LLST1
 1605 0885 1C       		.uleb128 0x1c
 1606 0886 6E00     		.ascii	"n\000"
 1607 0888 01       		.byte	0x1
 1608 0889 63       		.byte	0x63
 1609 088a 2C000000 		.4byte	0x2c
 1610 088e 4F000000 		.4byte	.LLST2
 1611 0892 1D       		.uleb128 0x1d
 1612 0893 9F030000 		.4byte	.LASF112
 1613 0897 01       		.byte	0x1
 1614 0898 63       		.byte	0x63
 1615 0899 3F010000 		.4byte	0x13f
 1616 089d 70000000 		.4byte	.LLST3
 1617 08a1 1E       		.uleb128 0x1e
 1618 08a2 06000000 		.4byte	.LVL2
 1619 08a6 480E0000 		.4byte	0xe48
 1620 08aa 1F       		.uleb128 0x1f
 1621 08ab 01       		.uleb128 0x1
 1622 08ac 50       		.byte	0x50
 1623 08ad 05       		.uleb128 0x5
 1624 08ae F3       		.byte	0xf3
 1625 08af 01       		.uleb128 0x1
 1626 08b0 50       		.byte	0x50
 1627 08b1 23       		.byte	0x23
 1628 08b2 0C       		.uleb128 0xc
 1629 08b3 1F       		.uleb128 0x1f
 1630 08b4 01       		.uleb128 0x1
 1631 08b5 51       		.byte	0x51
 1632 08b6 03       		.uleb128 0x3
 1633 08b7 F3       		.byte	0xf3
 1634 08b8 01       		.uleb128 0x1
 1635 08b9 51       		.byte	0x51
 1636 08ba 1F       		.uleb128 0x1f
 1637 08bb 01       		.uleb128 0x1
 1638 08bc 52       		.byte	0x52
 1639 08bd 03       		.uleb128 0x3
 1640 08be F3       		.byte	0xf3
 1641 08bf 01       		.uleb128 0x1
 1642 08c0 52       		.byte	0x52
 1643 08c1 1F       		.uleb128 0x1f
 1644 08c2 01       		.uleb128 0x1
 1645 08c3 53       		.byte	0x53
 1646 08c4 03       		.uleb128 0x3
 1647 08c5 F3       		.byte	0xf3
 1648 08c6 01       		.uleb128 0x1
 1649 08c7 53       		.byte	0x53
 1650 08c8 00       		.byte	0
 1651 08c9 00       		.byte	0
 1652 08ca 1B       		.uleb128 0x1b
 1653 08cb EE040000 		.4byte	.LASF107
ARM GAS  /var/folders/6q/x_mk5n_j3p7_c40r_2k_78980000gn/T//cc8CwihN.s 			page 30


 1654 08cf 01       		.byte	0x1
 1655 08d0 44       		.byte	0x44
 1656 08d1 2C000000 		.4byte	0x2c
 1657 08d5 00000000 		.4byte	.LFB64
 1658 08d9 0A000000 		.4byte	.LFE64-.LFB64
 1659 08dd 01       		.uleb128 0x1
 1660 08de 9C       		.byte	0x9c
 1661 08df 34090000 		.4byte	0x934
 1662 08e3 1C       		.uleb128 0x1c
 1663 08e4 697000   		.ascii	"ip\000"
 1664 08e7 01       		.byte	0x1
 1665 08e8 44       		.byte	0x44
 1666 08e9 AF020000 		.4byte	0x2af
 1667 08ed 91000000 		.4byte	.LLST4
 1668 08f1 1C       		.uleb128 0x1c
 1669 08f2 627000   		.ascii	"bp\000"
 1670 08f5 01       		.byte	0x1
 1671 08f6 44       		.byte	0x44
 1672 08f7 0A050000 		.4byte	0x50a
 1673 08fb BF000000 		.4byte	.LLST5
 1674 08ff 1C       		.uleb128 0x1c
 1675 0900 6E00     		.ascii	"n\000"
 1676 0902 01       		.byte	0x1
 1677 0903 44       		.byte	0x44
 1678 0904 2C000000 		.4byte	0x2c
 1679 0908 E0000000 		.4byte	.LLST6
 1680 090c 1E       		.uleb128 0x1e
 1681 090d 0A000000 		.4byte	.LVL5
 1682 0911 480E0000 		.4byte	0xe48
 1683 0915 1F       		.uleb128 0x1f
 1684 0916 01       		.uleb128 0x1
 1685 0917 50       		.byte	0x50
 1686 0918 05       		.uleb128 0x5
 1687 0919 F3       		.byte	0xf3
 1688 091a 01       		.uleb128 0x1
 1689 091b 50       		.byte	0x50
 1690 091c 23       		.byte	0x23
 1691 091d 0C       		.uleb128 0xc
 1692 091e 1F       		.uleb128 0x1f
 1693 091f 01       		.uleb128 0x1
 1694 0920 51       		.byte	0x51
 1695 0921 03       		.uleb128 0x3
 1696 0922 F3       		.byte	0xf3
 1697 0923 01       		.uleb128 0x1
 1698 0924 51       		.byte	0x51
 1699 0925 1F       		.uleb128 0x1f
 1700 0926 01       		.uleb128 0x1
 1701 0927 52       		.byte	0x52
 1702 0928 03       		.uleb128 0x3
 1703 0929 F3       		.byte	0xf3
 1704 092a 01       		.uleb128 0x1
 1705 092b 52       		.byte	0x52
 1706 092c 1F       		.uleb128 0x1f
 1707 092d 01       		.uleb128 0x1
 1708 092e 53       		.byte	0x53
 1709 092f 02       		.uleb128 0x2
 1710 0930 09       		.byte	0x9
ARM GAS  /var/folders/6q/x_mk5n_j3p7_c40r_2k_78980000gn/T//cc8CwihN.s 			page 31


 1711 0931 FF       		.byte	0xff
 1712 0932 00       		.byte	0
 1713 0933 00       		.byte	0
 1714 0934 1B       		.uleb128 0x1b
 1715 0935 E4020000 		.4byte	.LASF110
 1716 0939 01       		.byte	0x1
 1717 093a 5E       		.byte	0x5e
 1718 093b 2C000000 		.4byte	0x2c
 1719 093f 00000000 		.4byte	.LFB69
 1720 0943 06000000 		.4byte	.LFE69-.LFB69
 1721 0947 01       		.uleb128 0x1
 1722 0948 9C       		.byte	0x9c
 1723 0949 AE090000 		.4byte	0x9ae
 1724 094d 1C       		.uleb128 0x1c
 1725 094e 697000   		.ascii	"ip\000"
 1726 0951 01       		.byte	0x1
 1727 0952 5E       		.byte	0x5e
 1728 0953 AF020000 		.4byte	0x2af
 1729 0957 01010000 		.4byte	.LLST7
 1730 095b 1C       		.uleb128 0x1c
 1731 095c 627000   		.ascii	"bp\000"
 1732 095f 01       		.byte	0x1
 1733 0960 5E       		.byte	0x5e
 1734 0961 3F050000 		.4byte	0x53f
 1735 0965 2F010000 		.4byte	.LLST8
 1736 0969 1C       		.uleb128 0x1c
 1737 096a 6E00     		.ascii	"n\000"
 1738 096c 01       		.byte	0x1
 1739 096d 5E       		.byte	0x5e
 1740 096e 2C000000 		.4byte	0x2c
 1741 0972 50010000 		.4byte	.LLST9
 1742 0976 1D       		.uleb128 0x1d
 1743 0977 9F030000 		.4byte	.LASF112
 1744 097b 01       		.byte	0x1
 1745 097c 5E       		.byte	0x5e
 1746 097d 3F010000 		.4byte	0x13f
 1747 0981 71010000 		.4byte	.LLST10
 1748 0985 1E       		.uleb128 0x1e
 1749 0986 06000000 		.4byte	.LVL8
 1750 098a 540E0000 		.4byte	0xe54
 1751 098e 1F       		.uleb128 0x1f
 1752 098f 01       		.uleb128 0x1
 1753 0990 50       		.byte	0x50
 1754 0991 05       		.uleb128 0x5
 1755 0992 F3       		.byte	0xf3
 1756 0993 01       		.uleb128 0x1
 1757 0994 50       		.byte	0x50
 1758 0995 23       		.byte	0x23
 1759 0996 30       		.uleb128 0x30
 1760 0997 1F       		.uleb128 0x1f
 1761 0998 01       		.uleb128 0x1
 1762 0999 51       		.byte	0x51
 1763 099a 03       		.uleb128 0x3
 1764 099b F3       		.byte	0xf3
 1765 099c 01       		.uleb128 0x1
 1766 099d 51       		.byte	0x51
 1767 099e 1F       		.uleb128 0x1f
ARM GAS  /var/folders/6q/x_mk5n_j3p7_c40r_2k_78980000gn/T//cc8CwihN.s 			page 32


 1768 099f 01       		.uleb128 0x1
 1769 09a0 52       		.byte	0x52
 1770 09a1 03       		.uleb128 0x3
 1771 09a2 F3       		.byte	0xf3
 1772 09a3 01       		.uleb128 0x1
 1773 09a4 52       		.byte	0x52
 1774 09a5 1F       		.uleb128 0x1f
 1775 09a6 01       		.uleb128 0x1
 1776 09a7 53       		.byte	0x53
 1777 09a8 03       		.uleb128 0x3
 1778 09a9 F3       		.byte	0xf3
 1779 09aa 01       		.uleb128 0x1
 1780 09ab 53       		.byte	0x53
 1781 09ac 00       		.byte	0
 1782 09ad 00       		.byte	0
 1783 09ae 1B       		.uleb128 0x1b
 1784 09af 44030000 		.4byte	.LASF106
 1785 09b3 01       		.byte	0x1
 1786 09b4 3E       		.byte	0x3e
 1787 09b5 2C000000 		.4byte	0x2c
 1788 09b9 00000000 		.4byte	.LFB63
 1789 09bd 0A000000 		.4byte	.LFE63-.LFB63
 1790 09c1 01       		.uleb128 0x1
 1791 09c2 9C       		.byte	0x9c
 1792 09c3 180A0000 		.4byte	0xa18
 1793 09c7 1C       		.uleb128 0x1c
 1794 09c8 697000   		.ascii	"ip\000"
 1795 09cb 01       		.byte	0x1
 1796 09cc 3E       		.byte	0x3e
 1797 09cd AF020000 		.4byte	0x2af
 1798 09d1 92010000 		.4byte	.LLST11
 1799 09d5 1C       		.uleb128 0x1c
 1800 09d6 627000   		.ascii	"bp\000"
 1801 09d9 01       		.byte	0x1
 1802 09da 3E       		.byte	0x3e
 1803 09db 3F050000 		.4byte	0x53f
 1804 09df C0010000 		.4byte	.LLST12
 1805 09e3 1C       		.uleb128 0x1c
 1806 09e4 6E00     		.ascii	"n\000"
 1807 09e6 01       		.byte	0x1
 1808 09e7 3E       		.byte	0x3e
 1809 09e8 2C000000 		.4byte	0x2c
 1810 09ec E1010000 		.4byte	.LLST13
 1811 09f0 1E       		.uleb128 0x1e
 1812 09f1 0A000000 		.4byte	.LVL11
 1813 09f5 540E0000 		.4byte	0xe54
 1814 09f9 1F       		.uleb128 0x1f
 1815 09fa 01       		.uleb128 0x1
 1816 09fb 50       		.byte	0x50
 1817 09fc 05       		.uleb128 0x5
 1818 09fd F3       		.byte	0xf3
 1819 09fe 01       		.uleb128 0x1
 1820 09ff 50       		.byte	0x50
 1821 0a00 23       		.byte	0x23
 1822 0a01 30       		.uleb128 0x30
 1823 0a02 1F       		.uleb128 0x1f
 1824 0a03 01       		.uleb128 0x1
ARM GAS  /var/folders/6q/x_mk5n_j3p7_c40r_2k_78980000gn/T//cc8CwihN.s 			page 33


 1825 0a04 51       		.byte	0x51
 1826 0a05 03       		.uleb128 0x3
 1827 0a06 F3       		.byte	0xf3
 1828 0a07 01       		.uleb128 0x1
 1829 0a08 51       		.byte	0x51
 1830 0a09 1F       		.uleb128 0x1f
 1831 0a0a 01       		.uleb128 0x1
 1832 0a0b 52       		.byte	0x52
 1833 0a0c 03       		.uleb128 0x3
 1834 0a0d F3       		.byte	0xf3
 1835 0a0e 01       		.uleb128 0x1
 1836 0a0f 52       		.byte	0x52
 1837 0a10 1F       		.uleb128 0x1f
 1838 0a11 01       		.uleb128 0x1
 1839 0a12 53       		.byte	0x53
 1840 0a13 02       		.uleb128 0x2
 1841 0a14 09       		.byte	0x9
 1842 0a15 FF       		.byte	0xff
 1843 0a16 00       		.byte	0
 1844 0a17 00       		.byte	0
 1845 0a18 1B       		.uleb128 0x1b
 1846 0a19 D1010000 		.4byte	.LASF109
 1847 0a1d 01       		.byte	0x1
 1848 0a1e 59       		.byte	0x59
 1849 0a1f 1E010000 		.4byte	0x11e
 1850 0a23 00000000 		.4byte	.LFB68
 1851 0a27 06000000 		.4byte	.LFE68-.LFB68
 1852 0a2b 01       		.uleb128 0x1
 1853 0a2c 9C       		.byte	0x9c
 1854 0a2d 690A0000 		.4byte	0xa69
 1855 0a31 1C       		.uleb128 0x1c
 1856 0a32 697000   		.ascii	"ip\000"
 1857 0a35 01       		.byte	0x1
 1858 0a36 59       		.byte	0x59
 1859 0a37 AF020000 		.4byte	0x2af
 1860 0a3b 02020000 		.4byte	.LLST14
 1861 0a3f 1D       		.uleb128 0x1d
 1862 0a40 1C060000 		.4byte	.LASF113
 1863 0a44 01       		.byte	0x1
 1864 0a45 59       		.byte	0x59
 1865 0a46 3F010000 		.4byte	0x13f
 1866 0a4a 30020000 		.4byte	.LLST15
 1867 0a4e 1E       		.uleb128 0x1e
 1868 0a4f 06000000 		.4byte	.LVL14
 1869 0a53 600E0000 		.4byte	0xe60
 1870 0a57 1F       		.uleb128 0x1f
 1871 0a58 01       		.uleb128 0x1
 1872 0a59 50       		.byte	0x50
 1873 0a5a 05       		.uleb128 0x5
 1874 0a5b F3       		.byte	0xf3
 1875 0a5c 01       		.uleb128 0x1
 1876 0a5d 50       		.byte	0x50
 1877 0a5e 23       		.byte	0x23
 1878 0a5f 0C       		.uleb128 0xc
 1879 0a60 1F       		.uleb128 0x1f
 1880 0a61 01       		.uleb128 0x1
 1881 0a62 51       		.byte	0x51
ARM GAS  /var/folders/6q/x_mk5n_j3p7_c40r_2k_78980000gn/T//cc8CwihN.s 			page 34


 1882 0a63 03       		.uleb128 0x3
 1883 0a64 F3       		.byte	0xf3
 1884 0a65 01       		.uleb128 0x1
 1885 0a66 51       		.byte	0x51
 1886 0a67 00       		.byte	0
 1887 0a68 00       		.byte	0
 1888 0a69 20       		.uleb128 0x20
 1889 0a6a 67657400 		.ascii	"get\000"
 1890 0a6e 01       		.byte	0x1
 1891 0a6f 4F       		.byte	0x4f
 1892 0a70 1E010000 		.4byte	0x11e
 1893 0a74 00000000 		.4byte	.LFB66
 1894 0a78 0A000000 		.4byte	.LFE66-.LFB66
 1895 0a7c 01       		.uleb128 0x1
 1896 0a7d 9C       		.byte	0x9c
 1897 0a7e AA0A0000 		.4byte	0xaaa
 1898 0a82 1C       		.uleb128 0x1c
 1899 0a83 697000   		.ascii	"ip\000"
 1900 0a86 01       		.byte	0x1
 1901 0a87 4F       		.byte	0x4f
 1902 0a88 AF020000 		.4byte	0x2af
 1903 0a8c 51020000 		.4byte	.LLST16
 1904 0a90 1E       		.uleb128 0x1e
 1905 0a91 0A000000 		.4byte	.LVL17
 1906 0a95 600E0000 		.4byte	0xe60
 1907 0a99 1F       		.uleb128 0x1f
 1908 0a9a 01       		.uleb128 0x1
 1909 0a9b 50       		.byte	0x50
 1910 0a9c 05       		.uleb128 0x5
 1911 0a9d F3       		.byte	0xf3
 1912 0a9e 01       		.uleb128 0x1
 1913 0a9f 50       		.byte	0x50
 1914 0aa0 23       		.byte	0x23
 1915 0aa1 0C       		.uleb128 0xc
 1916 0aa2 1F       		.uleb128 0x1f
 1917 0aa3 01       		.uleb128 0x1
 1918 0aa4 51       		.byte	0x51
 1919 0aa5 02       		.uleb128 0x2
 1920 0aa6 09       		.byte	0x9
 1921 0aa7 FF       		.byte	0xff
 1922 0aa8 00       		.byte	0
 1923 0aa9 00       		.byte	0
 1924 0aaa 1B       		.uleb128 0x1b
 1925 0aab 4A030000 		.4byte	.LASF108
 1926 0aaf 01       		.byte	0x1
 1927 0ab0 54       		.byte	0x54
 1928 0ab1 1E010000 		.4byte	0x11e
 1929 0ab5 00000000 		.4byte	.LFB67
 1930 0ab9 06000000 		.4byte	.LFE67-.LFB67
 1931 0abd 01       		.uleb128 0x1
 1932 0abe 9C       		.byte	0x9c
 1933 0abf 080B0000 		.4byte	0xb08
 1934 0ac3 1C       		.uleb128 0x1c
 1935 0ac4 697000   		.ascii	"ip\000"
 1936 0ac7 01       		.byte	0x1
 1937 0ac8 54       		.byte	0x54
 1938 0ac9 AF020000 		.4byte	0x2af
ARM GAS  /var/folders/6q/x_mk5n_j3p7_c40r_2k_78980000gn/T//cc8CwihN.s 			page 35


 1939 0acd 7F020000 		.4byte	.LLST17
 1940 0ad1 1C       		.uleb128 0x1c
 1941 0ad2 6200     		.ascii	"b\000"
 1942 0ad4 01       		.byte	0x1
 1943 0ad5 54       		.byte	0x54
 1944 0ad6 A9000000 		.4byte	0xa9
 1945 0ada AD020000 		.4byte	.LLST18
 1946 0ade 1D       		.uleb128 0x1d
 1947 0adf 1C060000 		.4byte	.LASF113
 1948 0ae3 01       		.byte	0x1
 1949 0ae4 54       		.byte	0x54
 1950 0ae5 3F010000 		.4byte	0x13f
 1951 0ae9 CE020000 		.4byte	.LLST19
 1952 0aed 1E       		.uleb128 0x1e
 1953 0aee 06000000 		.4byte	.LVL20
 1954 0af2 6C0E0000 		.4byte	0xe6c
 1955 0af6 1F       		.uleb128 0x1f
 1956 0af7 01       		.uleb128 0x1
 1957 0af8 50       		.byte	0x50
 1958 0af9 05       		.uleb128 0x5
 1959 0afa F3       		.byte	0xf3
 1960 0afb 01       		.uleb128 0x1
 1961 0afc 50       		.byte	0x50
 1962 0afd 23       		.byte	0x23
 1963 0afe 30       		.uleb128 0x30
 1964 0aff 1F       		.uleb128 0x1f
 1965 0b00 01       		.uleb128 0x1
 1966 0b01 52       		.byte	0x52
 1967 0b02 03       		.uleb128 0x3
 1968 0b03 F3       		.byte	0xf3
 1969 0b04 01       		.uleb128 0x1
 1970 0b05 52       		.byte	0x52
 1971 0b06 00       		.byte	0
 1972 0b07 00       		.byte	0
 1973 0b08 20       		.uleb128 0x20
 1974 0b09 70757400 		.ascii	"put\000"
 1975 0b0d 01       		.byte	0x1
 1976 0b0e 4A       		.byte	0x4a
 1977 0b0f 1E010000 		.4byte	0x11e
 1978 0b13 00000000 		.4byte	.LFB65
 1979 0b17 0A000000 		.4byte	.LFE65-.LFB65
 1980 0b1b 01       		.uleb128 0x1
 1981 0b1c 9C       		.byte	0x9c
 1982 0b1d 560B0000 		.4byte	0xb56
 1983 0b21 1C       		.uleb128 0x1c
 1984 0b22 697000   		.ascii	"ip\000"
 1985 0b25 01       		.byte	0x1
 1986 0b26 4A       		.byte	0x4a
 1987 0b27 AF020000 		.4byte	0x2af
 1988 0b2b EF020000 		.4byte	.LLST20
 1989 0b2f 1C       		.uleb128 0x1c
 1990 0b30 6200     		.ascii	"b\000"
 1991 0b32 01       		.byte	0x1
 1992 0b33 4A       		.byte	0x4a
 1993 0b34 A9000000 		.4byte	0xa9
 1994 0b38 1D030000 		.4byte	.LLST21
 1995 0b3c 1E       		.uleb128 0x1e
ARM GAS  /var/folders/6q/x_mk5n_j3p7_c40r_2k_78980000gn/T//cc8CwihN.s 			page 36


 1996 0b3d 0A000000 		.4byte	.LVL23
 1997 0b41 6C0E0000 		.4byte	0xe6c
 1998 0b45 1F       		.uleb128 0x1f
 1999 0b46 01       		.uleb128 0x1
 2000 0b47 50       		.byte	0x50
 2001 0b48 05       		.uleb128 0x5
 2002 0b49 F3       		.byte	0xf3
 2003 0b4a 01       		.uleb128 0x1
 2004 0b4b 50       		.byte	0x50
 2005 0b4c 23       		.byte	0x23
 2006 0b4d 30       		.uleb128 0x30
 2007 0b4e 1F       		.uleb128 0x1f
 2008 0b4f 01       		.uleb128 0x1
 2009 0b50 52       		.byte	0x52
 2010 0b51 02       		.uleb128 0x2
 2011 0b52 09       		.byte	0x9
 2012 0b53 FF       		.byte	0xff
 2013 0b54 00       		.byte	0
 2014 0b55 00       		.byte	0
 2015 0b56 21       		.uleb128 0x21
 2016 0b57 24060000 		.4byte	.LASF114
 2017 0b5b 01       		.byte	0x1
 2018 0b5c 78       		.byte	0x78
 2019 0b5d 00000000 		.4byte	.LFB71
 2020 0b61 04000000 		.4byte	.LFE71-.LFB71
 2021 0b65 01       		.uleb128 0x1
 2022 0b66 9C       		.byte	0x9c
 2023 0b67 750B0000 		.4byte	0xb75
 2024 0b6b 22       		.uleb128 0x22
 2025 0b6c 04000000 		.4byte	.LVL24
 2026 0b70 780E0000 		.4byte	0xe78
 2027 0b74 00       		.byte	0
 2028 0b75 21       		.uleb128 0x21
 2029 0b76 84000000 		.4byte	.LASF115
 2030 0b7a 01       		.byte	0x1
 2031 0b7b 8C       		.byte	0x8c
 2032 0b7c 00000000 		.4byte	.LFB72
 2033 0b80 40000000 		.4byte	.LFE72-.LFB72
 2034 0b84 01       		.uleb128 0x1
 2035 0b85 9C       		.byte	0x9c
 2036 0b86 0A0C0000 		.4byte	0xc0a
 2037 0b8a 1C       		.uleb128 0x1c
 2038 0b8b 73647000 		.ascii	"sdp\000"
 2039 0b8f 01       		.byte	0x1
 2040 0b90 8C       		.byte	0x8c
 2041 0b91 0A0C0000 		.4byte	0xc0a
 2042 0b95 3E030000 		.4byte	.LLST22
 2043 0b99 1D       		.uleb128 0x1d
 2044 0b9a AB010000 		.4byte	.LASF116
 2045 0b9e 01       		.byte	0x1
 2046 0b9f 8C       		.byte	0x8c
 2047 0ba0 E8040000 		.4byte	0x4e8
 2048 0ba4 6A030000 		.4byte	.LLST23
 2049 0ba8 1D       		.uleb128 0x1d
 2050 0ba9 ED050000 		.4byte	.LASF117
 2051 0bad 01       		.byte	0x1
 2052 0bae 8C       		.byte	0x8c
ARM GAS  /var/folders/6q/x_mk5n_j3p7_c40r_2k_78980000gn/T//cc8CwihN.s 			page 37


 2053 0baf E8040000 		.4byte	0x4e8
 2054 0bb3 96030000 		.4byte	.LLST24
 2055 0bb7 23       		.uleb128 0x23
 2056 0bb8 26000000 		.4byte	.LVL29
 2057 0bbc 840E0000 		.4byte	0xe84
 2058 0bc0 DF0B0000 		.4byte	0xbdf
 2059 0bc4 1F       		.uleb128 0x1f
 2060 0bc5 01       		.uleb128 0x1
 2061 0bc6 50       		.byte	0x50
 2062 0bc7 02       		.uleb128 0x2
 2063 0bc8 74       		.byte	0x74
 2064 0bc9 0C       		.sleb128 12
 2065 0bca 1F       		.uleb128 0x1f
 2066 0bcb 01       		.uleb128 0x1
 2067 0bcc 51       		.byte	0x51
 2068 0bcd 03       		.uleb128 0x3
 2069 0bce 74       		.byte	0x74
 2070 0bcf D400     		.sleb128 84
 2071 0bd1 1F       		.uleb128 0x1f
 2072 0bd2 01       		.uleb128 0x1
 2073 0bd3 52       		.byte	0x52
 2074 0bd4 02       		.uleb128 0x2
 2075 0bd5 08       		.byte	0x8
 2076 0bd6 40       		.byte	0x40
 2077 0bd7 1F       		.uleb128 0x1f
 2078 0bd8 01       		.uleb128 0x1
 2079 0bd9 53       		.byte	0x53
 2080 0bda 03       		.uleb128 0x3
 2081 0bdb F3       		.byte	0xf3
 2082 0bdc 01       		.uleb128 0x1
 2083 0bdd 51       		.byte	0x51
 2084 0bde 00       		.byte	0
 2085 0bdf 24       		.uleb128 0x24
 2086 0be0 38000000 		.4byte	.LVL30
 2087 0be4 900E0000 		.4byte	0xe90
 2088 0be8 1F       		.uleb128 0x1f
 2089 0be9 01       		.uleb128 0x1
 2090 0bea 50       		.byte	0x50
 2091 0beb 02       		.uleb128 0x2
 2092 0bec 74       		.byte	0x74
 2093 0bed 30       		.sleb128 48
 2094 0bee 1F       		.uleb128 0x1f
 2095 0bef 01       		.uleb128 0x1
 2096 0bf0 51       		.byte	0x51
 2097 0bf1 03       		.uleb128 0x3
 2098 0bf2 74       		.byte	0x74
 2099 0bf3 9401     		.sleb128 148
 2100 0bf5 1F       		.uleb128 0x1f
 2101 0bf6 01       		.uleb128 0x1
 2102 0bf7 52       		.byte	0x52
 2103 0bf8 02       		.uleb128 0x2
 2104 0bf9 08       		.byte	0x8
 2105 0bfa 40       		.byte	0x40
 2106 0bfb 1F       		.uleb128 0x1f
 2107 0bfc 01       		.uleb128 0x1
 2108 0bfd 53       		.byte	0x53
 2109 0bfe 02       		.uleb128 0x2
ARM GAS  /var/folders/6q/x_mk5n_j3p7_c40r_2k_78980000gn/T//cc8CwihN.s 			page 38


 2110 0bff 75       		.byte	0x75
 2111 0c00 00       		.sleb128 0
 2112 0c01 1F       		.uleb128 0x1f
 2113 0c02 02       		.uleb128 0x2
 2114 0c03 7D       		.byte	0x7d
 2115 0c04 00       		.sleb128 0
 2116 0c05 02       		.uleb128 0x2
 2117 0c06 74       		.byte	0x74
 2118 0c07 00       		.sleb128 0
 2119 0c08 00       		.byte	0
 2120 0c09 00       		.byte	0
 2121 0c0a 09       		.uleb128 0x9
 2122 0c0b 04       		.byte	0x4
 2123 0c0c 08070000 		.4byte	0x708
 2124 0c10 21       		.uleb128 0x21
 2125 0c11 0F050000 		.4byte	.LASF118
 2126 0c15 01       		.byte	0x1
 2127 0c16 9F       		.byte	0x9f
 2128 0c17 00000000 		.4byte	.LFB73
 2129 0c1b 1A000000 		.4byte	.LFE73-.LFB73
 2130 0c1f 01       		.uleb128 0x1
 2131 0c20 9C       		.byte	0x9c
 2132 0c21 8D0C0000 		.4byte	0xc8d
 2133 0c25 1C       		.uleb128 0x1c
 2134 0c26 73647000 		.ascii	"sdp\000"
 2135 0c2a 01       		.byte	0x1
 2136 0c2b 9F       		.byte	0x9f
 2137 0c2c 0A0C0000 		.4byte	0xc0a
 2138 0c30 C2030000 		.4byte	.LLST25
 2139 0c34 1D       		.uleb128 0x1d
 2140 0c35 08050000 		.4byte	.LASF119
 2141 0c39 01       		.byte	0x1
 2142 0c3a 9F       		.byte	0x9f
 2143 0c3b 8D0C0000 		.4byte	0xc8d
 2144 0c3f E0030000 		.4byte	.LLST26
 2145 0c43 25       		.uleb128 0x25
 2146 0c44 00000000 		.4byte	.Ldebug_ranges0+0
 2147 0c48 5A0C0000 		.4byte	0xc5a
 2148 0c4c 26       		.uleb128 0x26
 2149 0c4d 746D7000 		.ascii	"tmp\000"
 2150 0c51 01       		.byte	0x1
 2151 0c52 A3       		.byte	0xa3
 2152 0c53 CA000000 		.4byte	0xca
 2153 0c57 01       		.uleb128 0x1
 2154 0c58 53       		.byte	0x53
 2155 0c59 00       		.byte	0
 2156 0c5a 27       		.uleb128 0x27
 2157 0c5b 12000000 		.4byte	.LBB4
 2158 0c5f 08000000 		.4byte	.LBE4-.LBB4
 2159 0c63 750C0000 		.4byte	0xc75
 2160 0c67 26       		.uleb128 0x26
 2161 0c68 746D7000 		.ascii	"tmp\000"
 2162 0c6c 01       		.byte	0x1
 2163 0c6d A9       		.byte	0xa9
 2164 0c6e CA000000 		.4byte	0xca
 2165 0c72 01       		.uleb128 0x1
 2166 0c73 53       		.byte	0x53
ARM GAS  /var/folders/6q/x_mk5n_j3p7_c40r_2k_78980000gn/T//cc8CwihN.s 			page 39


 2167 0c74 00       		.byte	0
 2168 0c75 24       		.uleb128 0x24
 2169 0c76 0E000000 		.4byte	.LVL33
 2170 0c7a 9C0E0000 		.4byte	0xe9c
 2171 0c7e 1F       		.uleb128 0x1f
 2172 0c7f 01       		.uleb128 0x1
 2173 0c80 50       		.byte	0x50
 2174 0c81 02       		.uleb128 0x2
 2175 0c82 74       		.byte	0x74
 2176 0c83 00       		.sleb128 0
 2177 0c84 1F       		.uleb128 0x1f
 2178 0c85 01       		.uleb128 0x1
 2179 0c86 51       		.byte	0x51
 2180 0c87 03       		.uleb128 0x3
 2181 0c88 F3       		.byte	0xf3
 2182 0c89 01       		.uleb128 0x1
 2183 0c8a 51       		.byte	0x51
 2184 0c8b 00       		.byte	0
 2185 0c8c 00       		.byte	0
 2186 0c8d 09       		.uleb128 0x9
 2187 0c8e 04       		.byte	0x4
 2188 0c8f 930C0000 		.4byte	0xc93
 2189 0c93 10       		.uleb128 0x10
 2190 0c94 B7070000 		.4byte	0x7b7
 2191 0c98 21       		.uleb128 0x21
 2192 0c99 98030000 		.4byte	.LASF120
 2193 0c9d 01       		.byte	0x1
 2194 0c9e B5       		.byte	0xb5
 2195 0c9f 00000000 		.4byte	.LFB74
 2196 0ca3 2E000000 		.4byte	.LFE74-.LFB74
 2197 0ca7 01       		.uleb128 0x1
 2198 0ca8 9C       		.byte	0x9c
 2199 0ca9 340D0000 		.4byte	0xd34
 2200 0cad 1C       		.uleb128 0x1c
 2201 0cae 73647000 		.ascii	"sdp\000"
 2202 0cb2 01       		.byte	0x1
 2203 0cb3 B5       		.byte	0xb5
 2204 0cb4 0A0C0000 		.4byte	0xc0a
 2205 0cb8 01040000 		.4byte	.LLST27
 2206 0cbc 25       		.uleb128 0x25
 2207 0cbd 18000000 		.4byte	.Ldebug_ranges0+0x18
 2208 0cc1 D30C0000 		.4byte	0xcd3
 2209 0cc5 26       		.uleb128 0x26
 2210 0cc6 746D7000 		.ascii	"tmp\000"
 2211 0cca 01       		.byte	0x1
 2212 0ccb B9       		.byte	0xb9
 2213 0ccc CA000000 		.4byte	0xca
 2214 0cd0 01       		.uleb128 0x1
 2215 0cd1 53       		.byte	0x53
 2216 0cd2 00       		.byte	0
 2217 0cd3 27       		.uleb128 0x27
 2218 0cd4 26000000 		.4byte	.LBB7
 2219 0cd8 08000000 		.4byte	.LBE7-.LBB7
 2220 0cdc EE0C0000 		.4byte	0xcee
 2221 0ce0 26       		.uleb128 0x26
 2222 0ce1 746D7000 		.ascii	"tmp\000"
 2223 0ce5 01       		.byte	0x1
ARM GAS  /var/folders/6q/x_mk5n_j3p7_c40r_2k_78980000gn/T//cc8CwihN.s 			page 40


 2224 0ce6 C2       		.byte	0xc2
 2225 0ce7 CA000000 		.4byte	0xca
 2226 0ceb 01       		.uleb128 0x1
 2227 0cec 53       		.byte	0x53
 2228 0ced 00       		.byte	0
 2229 0cee 23       		.uleb128 0x23
 2230 0cef 0E000000 		.4byte	.LVL35
 2231 0cf3 A80E0000 		.4byte	0xea8
 2232 0cf7 020D0000 		.4byte	0xd02
 2233 0cfb 1F       		.uleb128 0x1f
 2234 0cfc 01       		.uleb128 0x1
 2235 0cfd 50       		.byte	0x50
 2236 0cfe 02       		.uleb128 0x2
 2237 0cff 74       		.byte	0x74
 2238 0d00 00       		.sleb128 0
 2239 0d01 00       		.byte	0
 2240 0d02 23       		.uleb128 0x23
 2241 0d03 1A000000 		.4byte	.LVL36
 2242 0d07 B40E0000 		.4byte	0xeb4
 2243 0d0b 160D0000 		.4byte	0xd16
 2244 0d0f 1F       		.uleb128 0x1f
 2245 0d10 01       		.uleb128 0x1
 2246 0d11 50       		.byte	0x50
 2247 0d12 02       		.uleb128 0x2
 2248 0d13 74       		.byte	0x74
 2249 0d14 30       		.sleb128 48
 2250 0d15 00       		.byte	0
 2251 0d16 23       		.uleb128 0x23
 2252 0d17 22000000 		.4byte	.LVL37
 2253 0d1b C00E0000 		.4byte	0xec0
 2254 0d1f 2A0D0000 		.4byte	0xd2a
 2255 0d23 1F       		.uleb128 0x1f
 2256 0d24 01       		.uleb128 0x1
 2257 0d25 50       		.byte	0x50
 2258 0d26 02       		.uleb128 0x2
 2259 0d27 74       		.byte	0x74
 2260 0d28 0C       		.sleb128 12
 2261 0d29 00       		.byte	0
 2262 0d2a 28       		.uleb128 0x28
 2263 0d2b 26000000 		.4byte	.LVL38
 2264 0d2f CC0E0000 		.4byte	0xecc
 2265 0d33 00       		.byte	0
 2266 0d34 21       		.uleb128 0x21
 2267 0d35 F8040000 		.4byte	.LASF121
 2268 0d39 01       		.byte	0x1
 2269 0d3a D5       		.byte	0xd5
 2270 0d3b 00000000 		.4byte	.LFB75
 2271 0d3f 3C000000 		.4byte	.LFE75-.LFB75
 2272 0d43 01       		.uleb128 0x1
 2273 0d44 9C       		.byte	0x9c
 2274 0d45 CC0D0000 		.4byte	0xdcc
 2275 0d49 1C       		.uleb128 0x1c
 2276 0d4a 73647000 		.ascii	"sdp\000"
 2277 0d4e 01       		.byte	0x1
 2278 0d4f D5       		.byte	0xd5
 2279 0d50 0A0C0000 		.4byte	0xc0a
 2280 0d54 1F040000 		.4byte	.LLST28
ARM GAS  /var/folders/6q/x_mk5n_j3p7_c40r_2k_78980000gn/T//cc8CwihN.s 			page 41


 2281 0d58 1C       		.uleb128 0x1c
 2282 0d59 6200     		.ascii	"b\000"
 2283 0d5b 01       		.byte	0x1
 2284 0d5c D5       		.byte	0xd5
 2285 0d5d A9000000 		.4byte	0xa9
 2286 0d61 6E040000 		.4byte	.LLST29
 2287 0d65 23       		.uleb128 0x23
 2288 0d66 14000000 		.4byte	.LVL42
 2289 0d6a D70E0000 		.4byte	0xed7
 2290 0d6e 7F0D0000 		.4byte	0xd7f
 2291 0d72 1F       		.uleb128 0x1f
 2292 0d73 01       		.uleb128 0x1
 2293 0d74 50       		.byte	0x50
 2294 0d75 02       		.uleb128 0x2
 2295 0d76 74       		.byte	0x74
 2296 0d77 0C       		.sleb128 12
 2297 0d78 1F       		.uleb128 0x1f
 2298 0d79 01       		.uleb128 0x1
 2299 0d7a 51       		.byte	0x51
 2300 0d7b 02       		.uleb128 0x2
 2301 0d7c 75       		.byte	0x75
 2302 0d7d 00       		.sleb128 0
 2303 0d7e 00       		.byte	0
 2304 0d7f 23       		.uleb128 0x23
 2305 0d80 22000000 		.4byte	.LVL46
 2306 0d84 E30E0000 		.4byte	0xee3
 2307 0d88 980D0000 		.4byte	0xd98
 2308 0d8c 1F       		.uleb128 0x1f
 2309 0d8d 01       		.uleb128 0x1
 2310 0d8e 50       		.byte	0x50
 2311 0d8f 02       		.uleb128 0x2
 2312 0d90 74       		.byte	0x74
 2313 0d91 04       		.sleb128 4
 2314 0d92 1F       		.uleb128 0x1f
 2315 0d93 01       		.uleb128 0x1
 2316 0d94 51       		.byte	0x51
 2317 0d95 01       		.uleb128 0x1
 2318 0d96 34       		.byte	0x34
 2319 0d97 00       		.byte	0
 2320 0d98 23       		.uleb128 0x23
 2321 0d99 2C000000 		.4byte	.LVL47
 2322 0d9d D70E0000 		.4byte	0xed7
 2323 0da1 B20D0000 		.4byte	0xdb2
 2324 0da5 1F       		.uleb128 0x1f
 2325 0da6 01       		.uleb128 0x1
 2326 0da7 50       		.byte	0x50
 2327 0da8 02       		.uleb128 0x2
 2328 0da9 74       		.byte	0x74
 2329 0daa 0C       		.sleb128 12
 2330 0dab 1F       		.uleb128 0x1f
 2331 0dac 01       		.uleb128 0x1
 2332 0dad 51       		.byte	0x51
 2333 0dae 02       		.uleb128 0x2
 2334 0daf 75       		.byte	0x75
 2335 0db0 00       		.sleb128 0
 2336 0db1 00       		.byte	0
 2337 0db2 1E       		.uleb128 0x1e
ARM GAS  /var/folders/6q/x_mk5n_j3p7_c40r_2k_78980000gn/T//cc8CwihN.s 			page 42


 2338 0db3 3C000000 		.4byte	.LVL49
 2339 0db7 E30E0000 		.4byte	0xee3
 2340 0dbb 1F       		.uleb128 0x1f
 2341 0dbc 01       		.uleb128 0x1
 2342 0dbd 50       		.byte	0x50
 2343 0dbe 05       		.uleb128 0x5
 2344 0dbf F3       		.byte	0xf3
 2345 0dc0 01       		.uleb128 0x1
 2346 0dc1 50       		.byte	0x50
 2347 0dc2 23       		.byte	0x23
 2348 0dc3 04       		.uleb128 0x4
 2349 0dc4 1F       		.uleb128 0x1f
 2350 0dc5 01       		.uleb128 0x1
 2351 0dc6 51       		.byte	0x51
 2352 0dc7 02       		.uleb128 0x2
 2353 0dc8 08       		.byte	0x8
 2354 0dc9 80       		.byte	0x80
 2355 0dca 00       		.byte	0
 2356 0dcb 00       		.byte	0
 2357 0dcc 29       		.uleb128 0x29
 2358 0dcd D6050000 		.4byte	.LASF140
 2359 0dd1 01       		.byte	0x1
 2360 0dd2 EF       		.byte	0xef
 2361 0dd3 1E010000 		.4byte	0x11e
 2362 0dd7 00000000 		.4byte	.LFB76
 2363 0ddb 1E000000 		.4byte	.LFE76-.LFB76
 2364 0ddf 01       		.uleb128 0x1
 2365 0de0 9C       		.byte	0x9c
 2366 0de1 2B0E0000 		.4byte	0xe2b
 2367 0de5 1C       		.uleb128 0x1c
 2368 0de6 73647000 		.ascii	"sdp\000"
 2369 0dea 01       		.byte	0x1
 2370 0deb EF       		.byte	0xef
 2371 0dec 0A0C0000 		.4byte	0xc0a
 2372 0df0 A8040000 		.4byte	.LLST30
 2373 0df4 2A       		.uleb128 0x2a
 2374 0df5 6200     		.ascii	"b\000"
 2375 0df7 01       		.byte	0x1
 2376 0df8 F0       		.byte	0xf0
 2377 0df9 1E010000 		.4byte	0x11e
 2378 0dfd C6040000 		.4byte	.LLST31
 2379 0e01 23       		.uleb128 0x23
 2380 0e02 0A000000 		.4byte	.LVL52
 2381 0e06 EE0E0000 		.4byte	0xeee
 2382 0e0a 150E0000 		.4byte	0xe15
 2383 0e0e 1F       		.uleb128 0x1f
 2384 0e0f 01       		.uleb128 0x1
 2385 0e10 50       		.byte	0x50
 2386 0e11 02       		.uleb128 0x2
 2387 0e12 74       		.byte	0x74
 2388 0e13 30       		.sleb128 48
 2389 0e14 00       		.byte	0
 2390 0e15 24       		.uleb128 0x24
 2391 0e16 1A000000 		.4byte	.LVL55
 2392 0e1a E30E0000 		.4byte	0xee3
 2393 0e1e 1F       		.uleb128 0x1f
 2394 0e1f 01       		.uleb128 0x1
ARM GAS  /var/folders/6q/x_mk5n_j3p7_c40r_2k_78980000gn/T//cc8CwihN.s 			page 43


 2395 0e20 50       		.byte	0x50
 2396 0e21 02       		.uleb128 0x2
 2397 0e22 74       		.byte	0x74
 2398 0e23 04       		.sleb128 4
 2399 0e24 1F       		.uleb128 0x1f
 2400 0e25 01       		.uleb128 0x1
 2401 0e26 51       		.byte	0x51
 2402 0e27 01       		.uleb128 0x1
 2403 0e28 38       		.byte	0x38
 2404 0e29 00       		.byte	0
 2405 0e2a 00       		.byte	0
 2406 0e2b 26       		.uleb128 0x26
 2407 0e2c 766D7400 		.ascii	"vmt\000"
 2408 0e30 01       		.byte	0x1
 2409 0e31 68       		.byte	0x68
 2410 0e32 35080000 		.4byte	0x835
 2411 0e36 05       		.uleb128 0x5
 2412 0e37 03       		.byte	0x3
 2413 0e38 00000000 		.4byte	vmt
 2414 0e3c 2B       		.uleb128 0x2b
 2415 0e3d 77000000 		.4byte	.LASF141
 2416 0e41 10       		.byte	0x10
 2417 0e42 0706     		.2byte	0x607
 2418 0e44 8E050000 		.4byte	0x58e
 2419 0e48 2C       		.uleb128 0x2c
 2420 0e49 33000000 		.4byte	.LASF122
 2421 0e4d 33000000 		.4byte	.LASF122
 2422 0e51 0B       		.byte	0xb
 2423 0e52 6701     		.2byte	0x167
 2424 0e54 2C       		.uleb128 0x2c
 2425 0e55 33030000 		.4byte	.LASF123
 2426 0e59 33030000 		.4byte	.LASF123
 2427 0e5d 0B       		.byte	0xb
 2428 0e5e 6F01     		.2byte	0x16f
 2429 0e60 2C       		.uleb128 0x2c
 2430 0e61 4C060000 		.4byte	.LASF124
 2431 0e65 4C060000 		.4byte	.LASF124
 2432 0e69 0B       		.byte	0xb
 2433 0e6a 6601     		.2byte	0x166
 2434 0e6c 2C       		.uleb128 0x2c
 2435 0e6d 00000000 		.4byte	.LASF125
 2436 0e71 00000000 		.4byte	.LASF125
 2437 0e75 0B       		.byte	0xb
 2438 0e76 6D01     		.2byte	0x16d
 2439 0e78 2C       		.uleb128 0x2c
 2440 0e79 C5010000 		.4byte	.LASF126
 2441 0e7d C5010000 		.4byte	.LASF126
 2442 0e81 0E       		.byte	0xe
 2443 0e82 2401     		.2byte	0x124
 2444 0e84 2C       		.uleb128 0x2c
 2445 0e85 2B060000 		.4byte	.LASF127
 2446 0e89 2B060000 		.4byte	.LASF127
 2447 0e8d 0B       		.byte	0xb
 2448 0e8e 6201     		.2byte	0x162
 2449 0e90 2C       		.uleb128 0x2c
 2450 0e91 65000000 		.4byte	.LASF128
 2451 0e95 65000000 		.4byte	.LASF128
ARM GAS  /var/folders/6q/x_mk5n_j3p7_c40r_2k_78980000gn/T//cc8CwihN.s 			page 44


 2452 0e99 0B       		.byte	0xb
 2453 0e9a 6A01     		.2byte	0x16a
 2454 0e9c 2C       		.uleb128 0x2c
 2455 0e9d 28040000 		.4byte	.LASF129
 2456 0ea1 28040000 		.4byte	.LASF129
 2457 0ea5 0E       		.byte	0xe
 2458 0ea6 2501     		.2byte	0x125
 2459 0ea8 2C       		.uleb128 0x2c
 2460 0ea9 10060000 		.4byte	.LASF130
 2461 0ead 10060000 		.4byte	.LASF130
 2462 0eb1 0E       		.byte	0xe
 2463 0eb2 2601     		.2byte	0x126
 2464 0eb4 2C       		.uleb128 0x2c
 2465 0eb5 6E050000 		.4byte	.LASF131
 2466 0eb9 6E050000 		.4byte	.LASF131
 2467 0ebd 0B       		.byte	0xb
 2468 0ebe 6C01     		.2byte	0x16c
 2469 0ec0 2C       		.uleb128 0x2c
 2470 0ec1 5A000000 		.4byte	.LASF132
 2471 0ec5 5A000000 		.4byte	.LASF132
 2472 0ec9 0B       		.byte	0xb
 2473 0eca 6401     		.2byte	0x164
 2474 0ecc 2D       		.uleb128 0x2d
 2475 0ecd 3E010000 		.4byte	.LASF133
 2476 0ed1 3E010000 		.4byte	.LASF133
 2477 0ed5 0F       		.byte	0xf
 2478 0ed6 9C       		.byte	0x9c
 2479 0ed7 2C       		.uleb128 0x2c
 2480 0ed8 63010000 		.4byte	.LASF134
 2481 0edc 63010000 		.4byte	.LASF134
 2482 0ee0 0B       		.byte	0xb
 2483 0ee1 6501     		.2byte	0x165
 2484 0ee3 2D       		.uleb128 0x2d
 2485 0ee4 21010000 		.4byte	.LASF135
 2486 0ee8 21010000 		.4byte	.LASF135
 2487 0eec 0A       		.byte	0xa
 2488 0eed BA       		.byte	0xba
 2489 0eee 2C       		.uleb128 0x2c
 2490 0eef F9000000 		.4byte	.LASF136
 2491 0ef3 F9000000 		.4byte	.LASF136
 2492 0ef7 0B       		.byte	0xb
 2493 0ef8 6E01     		.2byte	0x16e
 2494 0efa 00       		.byte	0
 2495              		.section	.debug_abbrev,"",%progbits
 2496              	.Ldebug_abbrev0:
 2497 0000 01       		.uleb128 0x1
 2498 0001 11       		.uleb128 0x11
 2499 0002 01       		.byte	0x1
 2500 0003 25       		.uleb128 0x25
 2501 0004 0E       		.uleb128 0xe
 2502 0005 13       		.uleb128 0x13
 2503 0006 0B       		.uleb128 0xb
 2504 0007 03       		.uleb128 0x3
 2505 0008 0E       		.uleb128 0xe
 2506 0009 1B       		.uleb128 0x1b
 2507 000a 0E       		.uleb128 0xe
 2508 000b 55       		.uleb128 0x55
ARM GAS  /var/folders/6q/x_mk5n_j3p7_c40r_2k_78980000gn/T//cc8CwihN.s 			page 45


 2509 000c 17       		.uleb128 0x17
 2510 000d 11       		.uleb128 0x11
 2511 000e 01       		.uleb128 0x1
 2512 000f 10       		.uleb128 0x10
 2513 0010 17       		.uleb128 0x17
 2514 0011 00       		.byte	0
 2515 0012 00       		.byte	0
 2516 0013 02       		.uleb128 0x2
 2517 0014 24       		.uleb128 0x24
 2518 0015 00       		.byte	0
 2519 0016 0B       		.uleb128 0xb
 2520 0017 0B       		.uleb128 0xb
 2521 0018 3E       		.uleb128 0x3e
 2522 0019 0B       		.uleb128 0xb
 2523 001a 03       		.uleb128 0x3
 2524 001b 08       		.uleb128 0x8
 2525 001c 00       		.byte	0
 2526 001d 00       		.byte	0
 2527 001e 03       		.uleb128 0x3
 2528 001f 16       		.uleb128 0x16
 2529 0020 00       		.byte	0
 2530 0021 03       		.uleb128 0x3
 2531 0022 0E       		.uleb128 0xe
 2532 0023 3A       		.uleb128 0x3a
 2533 0024 0B       		.uleb128 0xb
 2534 0025 3B       		.uleb128 0x3b
 2535 0026 0B       		.uleb128 0xb
 2536 0027 49       		.uleb128 0x49
 2537 0028 13       		.uleb128 0x13
 2538 0029 00       		.byte	0
 2539 002a 00       		.byte	0
 2540 002b 04       		.uleb128 0x4
 2541 002c 24       		.uleb128 0x24
 2542 002d 00       		.byte	0
 2543 002e 0B       		.uleb128 0xb
 2544 002f 0B       		.uleb128 0xb
 2545 0030 3E       		.uleb128 0x3e
 2546 0031 0B       		.uleb128 0xb
 2547 0032 03       		.uleb128 0x3
 2548 0033 0E       		.uleb128 0xe
 2549 0034 00       		.byte	0
 2550 0035 00       		.byte	0
 2551 0036 05       		.uleb128 0x5
 2552 0037 13       		.uleb128 0x13
 2553 0038 01       		.byte	0x1
 2554 0039 03       		.uleb128 0x3
 2555 003a 0E       		.uleb128 0xe
 2556 003b 0B       		.uleb128 0xb
 2557 003c 0B       		.uleb128 0xb
 2558 003d 3A       		.uleb128 0x3a
 2559 003e 0B       		.uleb128 0xb
 2560 003f 3B       		.uleb128 0x3b
 2561 0040 0B       		.uleb128 0xb
 2562 0041 01       		.uleb128 0x1
 2563 0042 13       		.uleb128 0x13
 2564 0043 00       		.byte	0
 2565 0044 00       		.byte	0
ARM GAS  /var/folders/6q/x_mk5n_j3p7_c40r_2k_78980000gn/T//cc8CwihN.s 			page 46


 2566 0045 06       		.uleb128 0x6
 2567 0046 0D       		.uleb128 0xd
 2568 0047 00       		.byte	0
 2569 0048 03       		.uleb128 0x3
 2570 0049 0E       		.uleb128 0xe
 2571 004a 3A       		.uleb128 0x3a
 2572 004b 0B       		.uleb128 0xb
 2573 004c 3B       		.uleb128 0x3b
 2574 004d 0B       		.uleb128 0xb
 2575 004e 49       		.uleb128 0x49
 2576 004f 13       		.uleb128 0x13
 2577 0050 38       		.uleb128 0x38
 2578 0051 0B       		.uleb128 0xb
 2579 0052 00       		.byte	0
 2580 0053 00       		.byte	0
 2581 0054 07       		.uleb128 0x7
 2582 0055 0D       		.uleb128 0xd
 2583 0056 00       		.byte	0
 2584 0057 03       		.uleb128 0x3
 2585 0058 08       		.uleb128 0x8
 2586 0059 3A       		.uleb128 0x3a
 2587 005a 0B       		.uleb128 0xb
 2588 005b 3B       		.uleb128 0x3b
 2589 005c 0B       		.uleb128 0xb
 2590 005d 49       		.uleb128 0x49
 2591 005e 13       		.uleb128 0x13
 2592 005f 38       		.uleb128 0x38
 2593 0060 0B       		.uleb128 0xb
 2594 0061 00       		.byte	0
 2595 0062 00       		.byte	0
 2596 0063 08       		.uleb128 0x8
 2597 0064 13       		.uleb128 0x13
 2598 0065 01       		.byte	0x1
 2599 0066 0B       		.uleb128 0xb
 2600 0067 0B       		.uleb128 0xb
 2601 0068 3A       		.uleb128 0x3a
 2602 0069 0B       		.uleb128 0xb
 2603 006a 3B       		.uleb128 0x3b
 2604 006b 0B       		.uleb128 0xb
 2605 006c 01       		.uleb128 0x1
 2606 006d 13       		.uleb128 0x13
 2607 006e 00       		.byte	0
 2608 006f 00       		.byte	0
 2609 0070 09       		.uleb128 0x9
 2610 0071 0F       		.uleb128 0xf
 2611 0072 00       		.byte	0
 2612 0073 0B       		.uleb128 0xb
 2613 0074 0B       		.uleb128 0xb
 2614 0075 49       		.uleb128 0x49
 2615 0076 13       		.uleb128 0x13
 2616 0077 00       		.byte	0
 2617 0078 00       		.byte	0
 2618 0079 0A       		.uleb128 0xa
 2619 007a 0F       		.uleb128 0xf
 2620 007b 00       		.byte	0
 2621 007c 0B       		.uleb128 0xb
 2622 007d 0B       		.uleb128 0xb
ARM GAS  /var/folders/6q/x_mk5n_j3p7_c40r_2k_78980000gn/T//cc8CwihN.s 			page 47


 2623 007e 00       		.byte	0
 2624 007f 00       		.byte	0
 2625 0080 0B       		.uleb128 0xb
 2626 0081 13       		.uleb128 0x13
 2627 0082 01       		.byte	0x1
 2628 0083 03       		.uleb128 0x3
 2629 0084 0E       		.uleb128 0xe
 2630 0085 0B       		.uleb128 0xb
 2631 0086 0B       		.uleb128 0xb
 2632 0087 3A       		.uleb128 0x3a
 2633 0088 0B       		.uleb128 0xb
 2634 0089 3B       		.uleb128 0x3b
 2635 008a 05       		.uleb128 0x5
 2636 008b 01       		.uleb128 0x1
 2637 008c 13       		.uleb128 0x13
 2638 008d 00       		.byte	0
 2639 008e 00       		.byte	0
 2640 008f 0C       		.uleb128 0xc
 2641 0090 0D       		.uleb128 0xd
 2642 0091 00       		.byte	0
 2643 0092 03       		.uleb128 0x3
 2644 0093 08       		.uleb128 0x8
 2645 0094 3A       		.uleb128 0x3a
 2646 0095 0B       		.uleb128 0xb
 2647 0096 3B       		.uleb128 0x3b
 2648 0097 05       		.uleb128 0x5
 2649 0098 49       		.uleb128 0x49
 2650 0099 13       		.uleb128 0x13
 2651 009a 38       		.uleb128 0x38
 2652 009b 0B       		.uleb128 0xb
 2653 009c 00       		.byte	0
 2654 009d 00       		.byte	0
 2655 009e 0D       		.uleb128 0xd
 2656 009f 35       		.uleb128 0x35
 2657 00a0 00       		.byte	0
 2658 00a1 49       		.uleb128 0x49
 2659 00a2 13       		.uleb128 0x13
 2660 00a3 00       		.byte	0
 2661 00a4 00       		.byte	0
 2662 00a5 0E       		.uleb128 0xe
 2663 00a6 17       		.uleb128 0x17
 2664 00a7 01       		.byte	0x1
 2665 00a8 0B       		.uleb128 0xb
 2666 00a9 0B       		.uleb128 0xb
 2667 00aa 3A       		.uleb128 0x3a
 2668 00ab 0B       		.uleb128 0xb
 2669 00ac 3B       		.uleb128 0x3b
 2670 00ad 0B       		.uleb128 0xb
 2671 00ae 01       		.uleb128 0x1
 2672 00af 13       		.uleb128 0x13
 2673 00b0 00       		.byte	0
 2674 00b1 00       		.byte	0
 2675 00b2 0F       		.uleb128 0xf
 2676 00b3 0D       		.uleb128 0xd
 2677 00b4 00       		.byte	0
 2678 00b5 03       		.uleb128 0x3
 2679 00b6 0E       		.uleb128 0xe
ARM GAS  /var/folders/6q/x_mk5n_j3p7_c40r_2k_78980000gn/T//cc8CwihN.s 			page 48


 2680 00b7 3A       		.uleb128 0x3a
 2681 00b8 0B       		.uleb128 0xb
 2682 00b9 3B       		.uleb128 0x3b
 2683 00ba 0B       		.uleb128 0xb
 2684 00bb 49       		.uleb128 0x49
 2685 00bc 13       		.uleb128 0x13
 2686 00bd 00       		.byte	0
 2687 00be 00       		.byte	0
 2688 00bf 10       		.uleb128 0x10
 2689 00c0 26       		.uleb128 0x26
 2690 00c1 00       		.byte	0
 2691 00c2 49       		.uleb128 0x49
 2692 00c3 13       		.uleb128 0x13
 2693 00c4 00       		.byte	0
 2694 00c5 00       		.byte	0
 2695 00c6 11       		.uleb128 0x11
 2696 00c7 15       		.uleb128 0x15
 2697 00c8 01       		.byte	0x1
 2698 00c9 27       		.uleb128 0x27
 2699 00ca 19       		.uleb128 0x19
 2700 00cb 49       		.uleb128 0x49
 2701 00cc 13       		.uleb128 0x13
 2702 00cd 01       		.uleb128 0x1
 2703 00ce 13       		.uleb128 0x13
 2704 00cf 00       		.byte	0
 2705 00d0 00       		.byte	0
 2706 00d1 12       		.uleb128 0x12
 2707 00d2 05       		.uleb128 0x5
 2708 00d3 00       		.byte	0
 2709 00d4 49       		.uleb128 0x49
 2710 00d5 13       		.uleb128 0x13
 2711 00d6 00       		.byte	0
 2712 00d7 00       		.byte	0
 2713 00d8 13       		.uleb128 0x13
 2714 00d9 15       		.uleb128 0x15
 2715 00da 01       		.byte	0x1
 2716 00db 27       		.uleb128 0x27
 2717 00dc 19       		.uleb128 0x19
 2718 00dd 01       		.uleb128 0x1
 2719 00de 13       		.uleb128 0x13
 2720 00df 00       		.byte	0
 2721 00e0 00       		.byte	0
 2722 00e1 14       		.uleb128 0x14
 2723 00e2 13       		.uleb128 0x13
 2724 00e3 01       		.byte	0x1
 2725 00e4 0B       		.uleb128 0xb
 2726 00e5 0B       		.uleb128 0xb
 2727 00e6 3A       		.uleb128 0x3a
 2728 00e7 0B       		.uleb128 0xb
 2729 00e8 3B       		.uleb128 0x3b
 2730 00e9 05       		.uleb128 0x5
 2731 00ea 01       		.uleb128 0x1
 2732 00eb 13       		.uleb128 0x13
 2733 00ec 00       		.byte	0
 2734 00ed 00       		.byte	0
 2735 00ee 15       		.uleb128 0x15
 2736 00ef 0D       		.uleb128 0xd
ARM GAS  /var/folders/6q/x_mk5n_j3p7_c40r_2k_78980000gn/T//cc8CwihN.s 			page 49


 2737 00f0 00       		.byte	0
 2738 00f1 03       		.uleb128 0x3
 2739 00f2 0E       		.uleb128 0xe
 2740 00f3 3A       		.uleb128 0x3a
 2741 00f4 0B       		.uleb128 0xb
 2742 00f5 3B       		.uleb128 0x3b
 2743 00f6 05       		.uleb128 0x5
 2744 00f7 49       		.uleb128 0x49
 2745 00f8 13       		.uleb128 0x13
 2746 00f9 38       		.uleb128 0x38
 2747 00fa 0B       		.uleb128 0xb
 2748 00fb 00       		.byte	0
 2749 00fc 00       		.byte	0
 2750 00fd 16       		.uleb128 0x16
 2751 00fe 16       		.uleb128 0x16
 2752 00ff 00       		.byte	0
 2753 0100 03       		.uleb128 0x3
 2754 0101 0E       		.uleb128 0xe
 2755 0102 3A       		.uleb128 0x3a
 2756 0103 0B       		.uleb128 0xb
 2757 0104 3B       		.uleb128 0x3b
 2758 0105 05       		.uleb128 0x5
 2759 0106 49       		.uleb128 0x49
 2760 0107 13       		.uleb128 0x13
 2761 0108 00       		.byte	0
 2762 0109 00       		.byte	0
 2763 010a 17       		.uleb128 0x17
 2764 010b 04       		.uleb128 0x4
 2765 010c 01       		.byte	0x1
 2766 010d 0B       		.uleb128 0xb
 2767 010e 0B       		.uleb128 0xb
 2768 010f 49       		.uleb128 0x49
 2769 0110 13       		.uleb128 0x13
 2770 0111 3A       		.uleb128 0x3a
 2771 0112 0B       		.uleb128 0xb
 2772 0113 3B       		.uleb128 0x3b
 2773 0114 0B       		.uleb128 0xb
 2774 0115 01       		.uleb128 0x1
 2775 0116 13       		.uleb128 0x13
 2776 0117 00       		.byte	0
 2777 0118 00       		.byte	0
 2778 0119 18       		.uleb128 0x18
 2779 011a 28       		.uleb128 0x28
 2780 011b 00       		.byte	0
 2781 011c 03       		.uleb128 0x3
 2782 011d 0E       		.uleb128 0xe
 2783 011e 1C       		.uleb128 0x1c
 2784 011f 0B       		.uleb128 0xb
 2785 0120 00       		.byte	0
 2786 0121 00       		.byte	0
 2787 0122 19       		.uleb128 0x19
 2788 0123 01       		.uleb128 0x1
 2789 0124 01       		.byte	0x1
 2790 0125 49       		.uleb128 0x49
 2791 0126 13       		.uleb128 0x13
 2792 0127 01       		.uleb128 0x1
 2793 0128 13       		.uleb128 0x13
ARM GAS  /var/folders/6q/x_mk5n_j3p7_c40r_2k_78980000gn/T//cc8CwihN.s 			page 50


 2794 0129 00       		.byte	0
 2795 012a 00       		.byte	0
 2796 012b 1A       		.uleb128 0x1a
 2797 012c 21       		.uleb128 0x21
 2798 012d 00       		.byte	0
 2799 012e 49       		.uleb128 0x49
 2800 012f 13       		.uleb128 0x13
 2801 0130 2F       		.uleb128 0x2f
 2802 0131 0B       		.uleb128 0xb
 2803 0132 00       		.byte	0
 2804 0133 00       		.byte	0
 2805 0134 1B       		.uleb128 0x1b
 2806 0135 2E       		.uleb128 0x2e
 2807 0136 01       		.byte	0x1
 2808 0137 03       		.uleb128 0x3
 2809 0138 0E       		.uleb128 0xe
 2810 0139 3A       		.uleb128 0x3a
 2811 013a 0B       		.uleb128 0xb
 2812 013b 3B       		.uleb128 0x3b
 2813 013c 0B       		.uleb128 0xb
 2814 013d 27       		.uleb128 0x27
 2815 013e 19       		.uleb128 0x19
 2816 013f 49       		.uleb128 0x49
 2817 0140 13       		.uleb128 0x13
 2818 0141 11       		.uleb128 0x11
 2819 0142 01       		.uleb128 0x1
 2820 0143 12       		.uleb128 0x12
 2821 0144 06       		.uleb128 0x6
 2822 0145 40       		.uleb128 0x40
 2823 0146 18       		.uleb128 0x18
 2824 0147 9742     		.uleb128 0x2117
 2825 0149 19       		.uleb128 0x19
 2826 014a 01       		.uleb128 0x1
 2827 014b 13       		.uleb128 0x13
 2828 014c 00       		.byte	0
 2829 014d 00       		.byte	0
 2830 014e 1C       		.uleb128 0x1c
 2831 014f 05       		.uleb128 0x5
 2832 0150 00       		.byte	0
 2833 0151 03       		.uleb128 0x3
 2834 0152 08       		.uleb128 0x8
 2835 0153 3A       		.uleb128 0x3a
 2836 0154 0B       		.uleb128 0xb
 2837 0155 3B       		.uleb128 0x3b
 2838 0156 0B       		.uleb128 0xb
 2839 0157 49       		.uleb128 0x49
 2840 0158 13       		.uleb128 0x13
 2841 0159 02       		.uleb128 0x2
 2842 015a 17       		.uleb128 0x17
 2843 015b 00       		.byte	0
 2844 015c 00       		.byte	0
 2845 015d 1D       		.uleb128 0x1d
 2846 015e 05       		.uleb128 0x5
 2847 015f 00       		.byte	0
 2848 0160 03       		.uleb128 0x3
 2849 0161 0E       		.uleb128 0xe
 2850 0162 3A       		.uleb128 0x3a
ARM GAS  /var/folders/6q/x_mk5n_j3p7_c40r_2k_78980000gn/T//cc8CwihN.s 			page 51


 2851 0163 0B       		.uleb128 0xb
 2852 0164 3B       		.uleb128 0x3b
 2853 0165 0B       		.uleb128 0xb
 2854 0166 49       		.uleb128 0x49
 2855 0167 13       		.uleb128 0x13
 2856 0168 02       		.uleb128 0x2
 2857 0169 17       		.uleb128 0x17
 2858 016a 00       		.byte	0
 2859 016b 00       		.byte	0
 2860 016c 1E       		.uleb128 0x1e
 2861 016d 898201   		.uleb128 0x4109
 2862 0170 01       		.byte	0x1
 2863 0171 11       		.uleb128 0x11
 2864 0172 01       		.uleb128 0x1
 2865 0173 9542     		.uleb128 0x2115
 2866 0175 19       		.uleb128 0x19
 2867 0176 31       		.uleb128 0x31
 2868 0177 13       		.uleb128 0x13
 2869 0178 00       		.byte	0
 2870 0179 00       		.byte	0
 2871 017a 1F       		.uleb128 0x1f
 2872 017b 8A8201   		.uleb128 0x410a
 2873 017e 00       		.byte	0
 2874 017f 02       		.uleb128 0x2
 2875 0180 18       		.uleb128 0x18
 2876 0181 9142     		.uleb128 0x2111
 2877 0183 18       		.uleb128 0x18
 2878 0184 00       		.byte	0
 2879 0185 00       		.byte	0
 2880 0186 20       		.uleb128 0x20
 2881 0187 2E       		.uleb128 0x2e
 2882 0188 01       		.byte	0x1
 2883 0189 03       		.uleb128 0x3
 2884 018a 08       		.uleb128 0x8
 2885 018b 3A       		.uleb128 0x3a
 2886 018c 0B       		.uleb128 0xb
 2887 018d 3B       		.uleb128 0x3b
 2888 018e 0B       		.uleb128 0xb
 2889 018f 27       		.uleb128 0x27
 2890 0190 19       		.uleb128 0x19
 2891 0191 49       		.uleb128 0x49
 2892 0192 13       		.uleb128 0x13
 2893 0193 11       		.uleb128 0x11
 2894 0194 01       		.uleb128 0x1
 2895 0195 12       		.uleb128 0x12
 2896 0196 06       		.uleb128 0x6
 2897 0197 40       		.uleb128 0x40
 2898 0198 18       		.uleb128 0x18
 2899 0199 9742     		.uleb128 0x2117
 2900 019b 19       		.uleb128 0x19
 2901 019c 01       		.uleb128 0x1
 2902 019d 13       		.uleb128 0x13
 2903 019e 00       		.byte	0
 2904 019f 00       		.byte	0
 2905 01a0 21       		.uleb128 0x21
 2906 01a1 2E       		.uleb128 0x2e
 2907 01a2 01       		.byte	0x1
ARM GAS  /var/folders/6q/x_mk5n_j3p7_c40r_2k_78980000gn/T//cc8CwihN.s 			page 52


 2908 01a3 3F       		.uleb128 0x3f
 2909 01a4 19       		.uleb128 0x19
 2910 01a5 03       		.uleb128 0x3
 2911 01a6 0E       		.uleb128 0xe
 2912 01a7 3A       		.uleb128 0x3a
 2913 01a8 0B       		.uleb128 0xb
 2914 01a9 3B       		.uleb128 0x3b
 2915 01aa 0B       		.uleb128 0xb
 2916 01ab 27       		.uleb128 0x27
 2917 01ac 19       		.uleb128 0x19
 2918 01ad 11       		.uleb128 0x11
 2919 01ae 01       		.uleb128 0x1
 2920 01af 12       		.uleb128 0x12
 2921 01b0 06       		.uleb128 0x6
 2922 01b1 40       		.uleb128 0x40
 2923 01b2 18       		.uleb128 0x18
 2924 01b3 9742     		.uleb128 0x2117
 2925 01b5 19       		.uleb128 0x19
 2926 01b6 01       		.uleb128 0x1
 2927 01b7 13       		.uleb128 0x13
 2928 01b8 00       		.byte	0
 2929 01b9 00       		.byte	0
 2930 01ba 22       		.uleb128 0x22
 2931 01bb 898201   		.uleb128 0x4109
 2932 01be 00       		.byte	0
 2933 01bf 11       		.uleb128 0x11
 2934 01c0 01       		.uleb128 0x1
 2935 01c1 9542     		.uleb128 0x2115
 2936 01c3 19       		.uleb128 0x19
 2937 01c4 31       		.uleb128 0x31
 2938 01c5 13       		.uleb128 0x13
 2939 01c6 00       		.byte	0
 2940 01c7 00       		.byte	0
 2941 01c8 23       		.uleb128 0x23
 2942 01c9 898201   		.uleb128 0x4109
 2943 01cc 01       		.byte	0x1
 2944 01cd 11       		.uleb128 0x11
 2945 01ce 01       		.uleb128 0x1
 2946 01cf 31       		.uleb128 0x31
 2947 01d0 13       		.uleb128 0x13
 2948 01d1 01       		.uleb128 0x1
 2949 01d2 13       		.uleb128 0x13
 2950 01d3 00       		.byte	0
 2951 01d4 00       		.byte	0
 2952 01d5 24       		.uleb128 0x24
 2953 01d6 898201   		.uleb128 0x4109
 2954 01d9 01       		.byte	0x1
 2955 01da 11       		.uleb128 0x11
 2956 01db 01       		.uleb128 0x1
 2957 01dc 31       		.uleb128 0x31
 2958 01dd 13       		.uleb128 0x13
 2959 01de 00       		.byte	0
 2960 01df 00       		.byte	0
 2961 01e0 25       		.uleb128 0x25
 2962 01e1 0B       		.uleb128 0xb
 2963 01e2 01       		.byte	0x1
 2964 01e3 55       		.uleb128 0x55
ARM GAS  /var/folders/6q/x_mk5n_j3p7_c40r_2k_78980000gn/T//cc8CwihN.s 			page 53


 2965 01e4 17       		.uleb128 0x17
 2966 01e5 01       		.uleb128 0x1
 2967 01e6 13       		.uleb128 0x13
 2968 01e7 00       		.byte	0
 2969 01e8 00       		.byte	0
 2970 01e9 26       		.uleb128 0x26
 2971 01ea 34       		.uleb128 0x34
 2972 01eb 00       		.byte	0
 2973 01ec 03       		.uleb128 0x3
 2974 01ed 08       		.uleb128 0x8
 2975 01ee 3A       		.uleb128 0x3a
 2976 01ef 0B       		.uleb128 0xb
 2977 01f0 3B       		.uleb128 0x3b
 2978 01f1 0B       		.uleb128 0xb
 2979 01f2 49       		.uleb128 0x49
 2980 01f3 13       		.uleb128 0x13
 2981 01f4 02       		.uleb128 0x2
 2982 01f5 18       		.uleb128 0x18
 2983 01f6 00       		.byte	0
 2984 01f7 00       		.byte	0
 2985 01f8 27       		.uleb128 0x27
 2986 01f9 0B       		.uleb128 0xb
 2987 01fa 01       		.byte	0x1
 2988 01fb 11       		.uleb128 0x11
 2989 01fc 01       		.uleb128 0x1
 2990 01fd 12       		.uleb128 0x12
 2991 01fe 06       		.uleb128 0x6
 2992 01ff 01       		.uleb128 0x1
 2993 0200 13       		.uleb128 0x13
 2994 0201 00       		.byte	0
 2995 0202 00       		.byte	0
 2996 0203 28       		.uleb128 0x28
 2997 0204 898201   		.uleb128 0x4109
 2998 0207 00       		.byte	0
 2999 0208 11       		.uleb128 0x11
 3000 0209 01       		.uleb128 0x1
 3001 020a 31       		.uleb128 0x31
 3002 020b 13       		.uleb128 0x13
 3003 020c 00       		.byte	0
 3004 020d 00       		.byte	0
 3005 020e 29       		.uleb128 0x29
 3006 020f 2E       		.uleb128 0x2e
 3007 0210 01       		.byte	0x1
 3008 0211 3F       		.uleb128 0x3f
 3009 0212 19       		.uleb128 0x19
 3010 0213 03       		.uleb128 0x3
 3011 0214 0E       		.uleb128 0xe
 3012 0215 3A       		.uleb128 0x3a
 3013 0216 0B       		.uleb128 0xb
 3014 0217 3B       		.uleb128 0x3b
 3015 0218 0B       		.uleb128 0xb
 3016 0219 27       		.uleb128 0x27
 3017 021a 19       		.uleb128 0x19
 3018 021b 49       		.uleb128 0x49
 3019 021c 13       		.uleb128 0x13
 3020 021d 11       		.uleb128 0x11
 3021 021e 01       		.uleb128 0x1
ARM GAS  /var/folders/6q/x_mk5n_j3p7_c40r_2k_78980000gn/T//cc8CwihN.s 			page 54


 3022 021f 12       		.uleb128 0x12
 3023 0220 06       		.uleb128 0x6
 3024 0221 40       		.uleb128 0x40
 3025 0222 18       		.uleb128 0x18
 3026 0223 9742     		.uleb128 0x2117
 3027 0225 19       		.uleb128 0x19
 3028 0226 01       		.uleb128 0x1
 3029 0227 13       		.uleb128 0x13
 3030 0228 00       		.byte	0
 3031 0229 00       		.byte	0
 3032 022a 2A       		.uleb128 0x2a
 3033 022b 34       		.uleb128 0x34
 3034 022c 00       		.byte	0
 3035 022d 03       		.uleb128 0x3
 3036 022e 08       		.uleb128 0x8
 3037 022f 3A       		.uleb128 0x3a
 3038 0230 0B       		.uleb128 0xb
 3039 0231 3B       		.uleb128 0x3b
 3040 0232 0B       		.uleb128 0xb
 3041 0233 49       		.uleb128 0x49
 3042 0234 13       		.uleb128 0x13
 3043 0235 02       		.uleb128 0x2
 3044 0236 17       		.uleb128 0x17
 3045 0237 00       		.byte	0
 3046 0238 00       		.byte	0
 3047 0239 2B       		.uleb128 0x2b
 3048 023a 34       		.uleb128 0x34
 3049 023b 00       		.byte	0
 3050 023c 03       		.uleb128 0x3
 3051 023d 0E       		.uleb128 0xe
 3052 023e 3A       		.uleb128 0x3a
 3053 023f 0B       		.uleb128 0xb
 3054 0240 3B       		.uleb128 0x3b
 3055 0241 05       		.uleb128 0x5
 3056 0242 49       		.uleb128 0x49
 3057 0243 13       		.uleb128 0x13
 3058 0244 3F       		.uleb128 0x3f
 3059 0245 19       		.uleb128 0x19
 3060 0246 3C       		.uleb128 0x3c
 3061 0247 19       		.uleb128 0x19
 3062 0248 00       		.byte	0
 3063 0249 00       		.byte	0
 3064 024a 2C       		.uleb128 0x2c
 3065 024b 2E       		.uleb128 0x2e
 3066 024c 00       		.byte	0
 3067 024d 3F       		.uleb128 0x3f
 3068 024e 19       		.uleb128 0x19
 3069 024f 3C       		.uleb128 0x3c
 3070 0250 19       		.uleb128 0x19
 3071 0251 6E       		.uleb128 0x6e
 3072 0252 0E       		.uleb128 0xe
 3073 0253 03       		.uleb128 0x3
 3074 0254 0E       		.uleb128 0xe
 3075 0255 3A       		.uleb128 0x3a
 3076 0256 0B       		.uleb128 0xb
 3077 0257 3B       		.uleb128 0x3b
 3078 0258 05       		.uleb128 0x5
ARM GAS  /var/folders/6q/x_mk5n_j3p7_c40r_2k_78980000gn/T//cc8CwihN.s 			page 55


 3079 0259 00       		.byte	0
 3080 025a 00       		.byte	0
 3081 025b 2D       		.uleb128 0x2d
 3082 025c 2E       		.uleb128 0x2e
 3083 025d 00       		.byte	0
 3084 025e 3F       		.uleb128 0x3f
 3085 025f 19       		.uleb128 0x19
 3086 0260 3C       		.uleb128 0x3c
 3087 0261 19       		.uleb128 0x19
 3088 0262 6E       		.uleb128 0x6e
 3089 0263 0E       		.uleb128 0xe
 3090 0264 03       		.uleb128 0x3
 3091 0265 0E       		.uleb128 0xe
 3092 0266 3A       		.uleb128 0x3a
 3093 0267 0B       		.uleb128 0xb
 3094 0268 3B       		.uleb128 0x3b
 3095 0269 0B       		.uleb128 0xb
 3096 026a 00       		.byte	0
 3097 026b 00       		.byte	0
 3098 026c 00       		.byte	0
 3099              		.section	.debug_loc,"",%progbits
 3100              	.Ldebug_loc0:
 3101              	.LLST0:
 3102 0000 00000000 		.4byte	.LVL0
 3103 0004 02000000 		.4byte	.LVL1
 3104 0008 0100     		.2byte	0x1
 3105 000a 50       		.byte	0x50
 3106 000b 02000000 		.4byte	.LVL1
 3107 000f 05000000 		.4byte	.LVL2-1
 3108 0013 0300     		.2byte	0x3
 3109 0015 70       		.byte	0x70
 3110 0016 74       		.sleb128 -12
 3111 0017 9F       		.byte	0x9f
 3112 0018 05000000 		.4byte	.LVL2-1
 3113 001c 06000000 		.4byte	.LFE70
 3114 0020 0400     		.2byte	0x4
 3115 0022 F3       		.byte	0xf3
 3116 0023 01       		.uleb128 0x1
 3117 0024 50       		.byte	0x50
 3118 0025 9F       		.byte	0x9f
 3119 0026 00000000 		.4byte	0
 3120 002a 00000000 		.4byte	0
 3121              	.LLST1:
 3122 002e 00000000 		.4byte	.LVL0
 3123 0032 05000000 		.4byte	.LVL2-1
 3124 0036 0100     		.2byte	0x1
 3125 0038 51       		.byte	0x51
 3126 0039 05000000 		.4byte	.LVL2-1
 3127 003d 06000000 		.4byte	.LFE70
 3128 0041 0400     		.2byte	0x4
 3129 0043 F3       		.byte	0xf3
 3130 0044 01       		.uleb128 0x1
 3131 0045 51       		.byte	0x51
 3132 0046 9F       		.byte	0x9f
 3133 0047 00000000 		.4byte	0
 3134 004b 00000000 		.4byte	0
 3135              	.LLST2:
ARM GAS  /var/folders/6q/x_mk5n_j3p7_c40r_2k_78980000gn/T//cc8CwihN.s 			page 56


 3136 004f 00000000 		.4byte	.LVL0
 3137 0053 05000000 		.4byte	.LVL2-1
 3138 0057 0100     		.2byte	0x1
 3139 0059 52       		.byte	0x52
 3140 005a 05000000 		.4byte	.LVL2-1
 3141 005e 06000000 		.4byte	.LFE70
 3142 0062 0400     		.2byte	0x4
 3143 0064 F3       		.byte	0xf3
 3144 0065 01       		.uleb128 0x1
 3145 0066 52       		.byte	0x52
 3146 0067 9F       		.byte	0x9f
 3147 0068 00000000 		.4byte	0
 3148 006c 00000000 		.4byte	0
 3149              	.LLST3:
 3150 0070 00000000 		.4byte	.LVL0
 3151 0074 05000000 		.4byte	.LVL2-1
 3152 0078 0100     		.2byte	0x1
 3153 007a 53       		.byte	0x53
 3154 007b 05000000 		.4byte	.LVL2-1
 3155 007f 06000000 		.4byte	.LFE70
 3156 0083 0400     		.2byte	0x4
 3157 0085 F3       		.byte	0xf3
 3158 0086 01       		.uleb128 0x1
 3159 0087 53       		.byte	0x53
 3160 0088 9F       		.byte	0x9f
 3161 0089 00000000 		.4byte	0
 3162 008d 00000000 		.4byte	0
 3163              	.LLST4:
 3164 0091 00000000 		.4byte	.LVL3
 3165 0095 02000000 		.4byte	.LVL4
 3166 0099 0100     		.2byte	0x1
 3167 009b 50       		.byte	0x50
 3168 009c 02000000 		.4byte	.LVL4
 3169 00a0 09000000 		.4byte	.LVL5-1
 3170 00a4 0300     		.2byte	0x3
 3171 00a6 70       		.byte	0x70
 3172 00a7 74       		.sleb128 -12
 3173 00a8 9F       		.byte	0x9f
 3174 00a9 09000000 		.4byte	.LVL5-1
 3175 00ad 0A000000 		.4byte	.LFE64
 3176 00b1 0400     		.2byte	0x4
 3177 00b3 F3       		.byte	0xf3
 3178 00b4 01       		.uleb128 0x1
 3179 00b5 50       		.byte	0x50
 3180 00b6 9F       		.byte	0x9f
 3181 00b7 00000000 		.4byte	0
 3182 00bb 00000000 		.4byte	0
 3183              	.LLST5:
 3184 00bf 00000000 		.4byte	.LVL3
 3185 00c3 09000000 		.4byte	.LVL5-1
 3186 00c7 0100     		.2byte	0x1
 3187 00c9 51       		.byte	0x51
 3188 00ca 09000000 		.4byte	.LVL5-1
 3189 00ce 0A000000 		.4byte	.LFE64
 3190 00d2 0400     		.2byte	0x4
 3191 00d4 F3       		.byte	0xf3
 3192 00d5 01       		.uleb128 0x1
ARM GAS  /var/folders/6q/x_mk5n_j3p7_c40r_2k_78980000gn/T//cc8CwihN.s 			page 57


 3193 00d6 51       		.byte	0x51
 3194 00d7 9F       		.byte	0x9f
 3195 00d8 00000000 		.4byte	0
 3196 00dc 00000000 		.4byte	0
 3197              	.LLST6:
 3198 00e0 00000000 		.4byte	.LVL3
 3199 00e4 09000000 		.4byte	.LVL5-1
 3200 00e8 0100     		.2byte	0x1
 3201 00ea 52       		.byte	0x52
 3202 00eb 09000000 		.4byte	.LVL5-1
 3203 00ef 0A000000 		.4byte	.LFE64
 3204 00f3 0400     		.2byte	0x4
 3205 00f5 F3       		.byte	0xf3
 3206 00f6 01       		.uleb128 0x1
 3207 00f7 52       		.byte	0x52
 3208 00f8 9F       		.byte	0x9f
 3209 00f9 00000000 		.4byte	0
 3210 00fd 00000000 		.4byte	0
 3211              	.LLST7:
 3212 0101 00000000 		.4byte	.LVL6
 3213 0105 02000000 		.4byte	.LVL7
 3214 0109 0100     		.2byte	0x1
 3215 010b 50       		.byte	0x50
 3216 010c 02000000 		.4byte	.LVL7
 3217 0110 05000000 		.4byte	.LVL8-1
 3218 0114 0300     		.2byte	0x3
 3219 0116 70       		.byte	0x70
 3220 0117 50       		.sleb128 -48
 3221 0118 9F       		.byte	0x9f
 3222 0119 05000000 		.4byte	.LVL8-1
 3223 011d 06000000 		.4byte	.LFE69
 3224 0121 0400     		.2byte	0x4
 3225 0123 F3       		.byte	0xf3
 3226 0124 01       		.uleb128 0x1
 3227 0125 50       		.byte	0x50
 3228 0126 9F       		.byte	0x9f
 3229 0127 00000000 		.4byte	0
 3230 012b 00000000 		.4byte	0
 3231              	.LLST8:
 3232 012f 00000000 		.4byte	.LVL6
 3233 0133 05000000 		.4byte	.LVL8-1
 3234 0137 0100     		.2byte	0x1
 3235 0139 51       		.byte	0x51
 3236 013a 05000000 		.4byte	.LVL8-1
 3237 013e 06000000 		.4byte	.LFE69
 3238 0142 0400     		.2byte	0x4
 3239 0144 F3       		.byte	0xf3
 3240 0145 01       		.uleb128 0x1
 3241 0146 51       		.byte	0x51
 3242 0147 9F       		.byte	0x9f
 3243 0148 00000000 		.4byte	0
 3244 014c 00000000 		.4byte	0
 3245              	.LLST9:
 3246 0150 00000000 		.4byte	.LVL6
 3247 0154 05000000 		.4byte	.LVL8-1
 3248 0158 0100     		.2byte	0x1
 3249 015a 52       		.byte	0x52
ARM GAS  /var/folders/6q/x_mk5n_j3p7_c40r_2k_78980000gn/T//cc8CwihN.s 			page 58


 3250 015b 05000000 		.4byte	.LVL8-1
 3251 015f 06000000 		.4byte	.LFE69
 3252 0163 0400     		.2byte	0x4
 3253 0165 F3       		.byte	0xf3
 3254 0166 01       		.uleb128 0x1
 3255 0167 52       		.byte	0x52
 3256 0168 9F       		.byte	0x9f
 3257 0169 00000000 		.4byte	0
 3258 016d 00000000 		.4byte	0
 3259              	.LLST10:
 3260 0171 00000000 		.4byte	.LVL6
 3261 0175 05000000 		.4byte	.LVL8-1
 3262 0179 0100     		.2byte	0x1
 3263 017b 53       		.byte	0x53
 3264 017c 05000000 		.4byte	.LVL8-1
 3265 0180 06000000 		.4byte	.LFE69
 3266 0184 0400     		.2byte	0x4
 3267 0186 F3       		.byte	0xf3
 3268 0187 01       		.uleb128 0x1
 3269 0188 53       		.byte	0x53
 3270 0189 9F       		.byte	0x9f
 3271 018a 00000000 		.4byte	0
 3272 018e 00000000 		.4byte	0
 3273              	.LLST11:
 3274 0192 00000000 		.4byte	.LVL9
 3275 0196 02000000 		.4byte	.LVL10
 3276 019a 0100     		.2byte	0x1
 3277 019c 50       		.byte	0x50
 3278 019d 02000000 		.4byte	.LVL10
 3279 01a1 09000000 		.4byte	.LVL11-1
 3280 01a5 0300     		.2byte	0x3
 3281 01a7 70       		.byte	0x70
 3282 01a8 50       		.sleb128 -48
 3283 01a9 9F       		.byte	0x9f
 3284 01aa 09000000 		.4byte	.LVL11-1
 3285 01ae 0A000000 		.4byte	.LFE63
 3286 01b2 0400     		.2byte	0x4
 3287 01b4 F3       		.byte	0xf3
 3288 01b5 01       		.uleb128 0x1
 3289 01b6 50       		.byte	0x50
 3290 01b7 9F       		.byte	0x9f
 3291 01b8 00000000 		.4byte	0
 3292 01bc 00000000 		.4byte	0
 3293              	.LLST12:
 3294 01c0 00000000 		.4byte	.LVL9
 3295 01c4 09000000 		.4byte	.LVL11-1
 3296 01c8 0100     		.2byte	0x1
 3297 01ca 51       		.byte	0x51
 3298 01cb 09000000 		.4byte	.LVL11-1
 3299 01cf 0A000000 		.4byte	.LFE63
 3300 01d3 0400     		.2byte	0x4
 3301 01d5 F3       		.byte	0xf3
 3302 01d6 01       		.uleb128 0x1
 3303 01d7 51       		.byte	0x51
 3304 01d8 9F       		.byte	0x9f
 3305 01d9 00000000 		.4byte	0
 3306 01dd 00000000 		.4byte	0
ARM GAS  /var/folders/6q/x_mk5n_j3p7_c40r_2k_78980000gn/T//cc8CwihN.s 			page 59


 3307              	.LLST13:
 3308 01e1 00000000 		.4byte	.LVL9
 3309 01e5 09000000 		.4byte	.LVL11-1
 3310 01e9 0100     		.2byte	0x1
 3311 01eb 52       		.byte	0x52
 3312 01ec 09000000 		.4byte	.LVL11-1
 3313 01f0 0A000000 		.4byte	.LFE63
 3314 01f4 0400     		.2byte	0x4
 3315 01f6 F3       		.byte	0xf3
 3316 01f7 01       		.uleb128 0x1
 3317 01f8 52       		.byte	0x52
 3318 01f9 9F       		.byte	0x9f
 3319 01fa 00000000 		.4byte	0
 3320 01fe 00000000 		.4byte	0
 3321              	.LLST14:
 3322 0202 00000000 		.4byte	.LVL12
 3323 0206 02000000 		.4byte	.LVL13
 3324 020a 0100     		.2byte	0x1
 3325 020c 50       		.byte	0x50
 3326 020d 02000000 		.4byte	.LVL13
 3327 0211 05000000 		.4byte	.LVL14-1
 3328 0215 0300     		.2byte	0x3
 3329 0217 70       		.byte	0x70
 3330 0218 74       		.sleb128 -12
 3331 0219 9F       		.byte	0x9f
 3332 021a 05000000 		.4byte	.LVL14-1
 3333 021e 06000000 		.4byte	.LFE68
 3334 0222 0400     		.2byte	0x4
 3335 0224 F3       		.byte	0xf3
 3336 0225 01       		.uleb128 0x1
 3337 0226 50       		.byte	0x50
 3338 0227 9F       		.byte	0x9f
 3339 0228 00000000 		.4byte	0
 3340 022c 00000000 		.4byte	0
 3341              	.LLST15:
 3342 0230 00000000 		.4byte	.LVL12
 3343 0234 05000000 		.4byte	.LVL14-1
 3344 0238 0100     		.2byte	0x1
 3345 023a 51       		.byte	0x51
 3346 023b 05000000 		.4byte	.LVL14-1
 3347 023f 06000000 		.4byte	.LFE68
 3348 0243 0400     		.2byte	0x4
 3349 0245 F3       		.byte	0xf3
 3350 0246 01       		.uleb128 0x1
 3351 0247 51       		.byte	0x51
 3352 0248 9F       		.byte	0x9f
 3353 0249 00000000 		.4byte	0
 3354 024d 00000000 		.4byte	0
 3355              	.LLST16:
 3356 0251 00000000 		.4byte	.LVL15
 3357 0255 02000000 		.4byte	.LVL16
 3358 0259 0100     		.2byte	0x1
 3359 025b 50       		.byte	0x50
 3360 025c 02000000 		.4byte	.LVL16
 3361 0260 09000000 		.4byte	.LVL17-1
 3362 0264 0300     		.2byte	0x3
 3363 0266 70       		.byte	0x70
ARM GAS  /var/folders/6q/x_mk5n_j3p7_c40r_2k_78980000gn/T//cc8CwihN.s 			page 60


 3364 0267 74       		.sleb128 -12
 3365 0268 9F       		.byte	0x9f
 3366 0269 09000000 		.4byte	.LVL17-1
 3367 026d 0A000000 		.4byte	.LFE66
 3368 0271 0400     		.2byte	0x4
 3369 0273 F3       		.byte	0xf3
 3370 0274 01       		.uleb128 0x1
 3371 0275 50       		.byte	0x50
 3372 0276 9F       		.byte	0x9f
 3373 0277 00000000 		.4byte	0
 3374 027b 00000000 		.4byte	0
 3375              	.LLST17:
 3376 027f 00000000 		.4byte	.LVL18
 3377 0283 02000000 		.4byte	.LVL19
 3378 0287 0100     		.2byte	0x1
 3379 0289 50       		.byte	0x50
 3380 028a 02000000 		.4byte	.LVL19
 3381 028e 05000000 		.4byte	.LVL20-1
 3382 0292 0300     		.2byte	0x3
 3383 0294 70       		.byte	0x70
 3384 0295 50       		.sleb128 -48
 3385 0296 9F       		.byte	0x9f
 3386 0297 05000000 		.4byte	.LVL20-1
 3387 029b 06000000 		.4byte	.LFE67
 3388 029f 0400     		.2byte	0x4
 3389 02a1 F3       		.byte	0xf3
 3390 02a2 01       		.uleb128 0x1
 3391 02a3 50       		.byte	0x50
 3392 02a4 9F       		.byte	0x9f
 3393 02a5 00000000 		.4byte	0
 3394 02a9 00000000 		.4byte	0
 3395              	.LLST18:
 3396 02ad 00000000 		.4byte	.LVL18
 3397 02b1 05000000 		.4byte	.LVL20-1
 3398 02b5 0100     		.2byte	0x1
 3399 02b7 51       		.byte	0x51
 3400 02b8 05000000 		.4byte	.LVL20-1
 3401 02bc 06000000 		.4byte	.LFE67
 3402 02c0 0400     		.2byte	0x4
 3403 02c2 F3       		.byte	0xf3
 3404 02c3 01       		.uleb128 0x1
 3405 02c4 51       		.byte	0x51
 3406 02c5 9F       		.byte	0x9f
 3407 02c6 00000000 		.4byte	0
 3408 02ca 00000000 		.4byte	0
 3409              	.LLST19:
 3410 02ce 00000000 		.4byte	.LVL18
 3411 02d2 05000000 		.4byte	.LVL20-1
 3412 02d6 0100     		.2byte	0x1
 3413 02d8 52       		.byte	0x52
 3414 02d9 05000000 		.4byte	.LVL20-1
 3415 02dd 06000000 		.4byte	.LFE67
 3416 02e1 0400     		.2byte	0x4
 3417 02e3 F3       		.byte	0xf3
 3418 02e4 01       		.uleb128 0x1
 3419 02e5 52       		.byte	0x52
 3420 02e6 9F       		.byte	0x9f
ARM GAS  /var/folders/6q/x_mk5n_j3p7_c40r_2k_78980000gn/T//cc8CwihN.s 			page 61


 3421 02e7 00000000 		.4byte	0
 3422 02eb 00000000 		.4byte	0
 3423              	.LLST20:
 3424 02ef 00000000 		.4byte	.LVL21
 3425 02f3 02000000 		.4byte	.LVL22
 3426 02f7 0100     		.2byte	0x1
 3427 02f9 50       		.byte	0x50
 3428 02fa 02000000 		.4byte	.LVL22
 3429 02fe 09000000 		.4byte	.LVL23-1
 3430 0302 0300     		.2byte	0x3
 3431 0304 70       		.byte	0x70
 3432 0305 50       		.sleb128 -48
 3433 0306 9F       		.byte	0x9f
 3434 0307 09000000 		.4byte	.LVL23-1
 3435 030b 0A000000 		.4byte	.LFE65
 3436 030f 0400     		.2byte	0x4
 3437 0311 F3       		.byte	0xf3
 3438 0312 01       		.uleb128 0x1
 3439 0313 50       		.byte	0x50
 3440 0314 9F       		.byte	0x9f
 3441 0315 00000000 		.4byte	0
 3442 0319 00000000 		.4byte	0
 3443              	.LLST21:
 3444 031d 00000000 		.4byte	.LVL21
 3445 0321 09000000 		.4byte	.LVL23-1
 3446 0325 0100     		.2byte	0x1
 3447 0327 51       		.byte	0x51
 3448 0328 09000000 		.4byte	.LVL23-1
 3449 032c 0A000000 		.4byte	.LFE65
 3450 0330 0400     		.2byte	0x4
 3451 0332 F3       		.byte	0xf3
 3452 0333 01       		.uleb128 0x1
 3453 0334 51       		.byte	0x51
 3454 0335 9F       		.byte	0x9f
 3455 0336 00000000 		.4byte	0
 3456 033a 00000000 		.4byte	0
 3457              	.LLST22:
 3458 033e 00000000 		.4byte	.LVL25
 3459 0342 0E000000 		.4byte	.LVL26
 3460 0346 0100     		.2byte	0x1
 3461 0348 50       		.byte	0x50
 3462 0349 0E000000 		.4byte	.LVL26
 3463 034d 3C000000 		.4byte	.LVL31
 3464 0351 0100     		.2byte	0x1
 3465 0353 54       		.byte	0x54
 3466 0354 3C000000 		.4byte	.LVL31
 3467 0358 40000000 		.4byte	.LFE72
 3468 035c 0400     		.2byte	0x4
 3469 035e F3       		.byte	0xf3
 3470 035f 01       		.uleb128 0x1
 3471 0360 50       		.byte	0x50
 3472 0361 9F       		.byte	0x9f
 3473 0362 00000000 		.4byte	0
 3474 0366 00000000 		.4byte	0
 3475              	.LLST23:
 3476 036a 00000000 		.4byte	.LVL25
 3477 036e 1C000000 		.4byte	.LVL28
ARM GAS  /var/folders/6q/x_mk5n_j3p7_c40r_2k_78980000gn/T//cc8CwihN.s 			page 62


 3478 0372 0100     		.2byte	0x1
 3479 0374 51       		.byte	0x51
 3480 0375 1C000000 		.4byte	.LVL28
 3481 0379 25000000 		.4byte	.LVL29-1
 3482 037d 0100     		.2byte	0x1
 3483 037f 53       		.byte	0x53
 3484 0380 25000000 		.4byte	.LVL29-1
 3485 0384 40000000 		.4byte	.LFE72
 3486 0388 0400     		.2byte	0x4
 3487 038a F3       		.byte	0xf3
 3488 038b 01       		.uleb128 0x1
 3489 038c 51       		.byte	0x51
 3490 038d 9F       		.byte	0x9f
 3491 038e 00000000 		.4byte	0
 3492 0392 00000000 		.4byte	0
 3493              	.LLST24:
 3494 0396 00000000 		.4byte	.LVL25
 3495 039a 10000000 		.4byte	.LVL27
 3496 039e 0100     		.2byte	0x1
 3497 03a0 52       		.byte	0x52
 3498 03a1 10000000 		.4byte	.LVL27
 3499 03a5 3C000000 		.4byte	.LVL31
 3500 03a9 0100     		.2byte	0x1
 3501 03ab 55       		.byte	0x55
 3502 03ac 3C000000 		.4byte	.LVL31
 3503 03b0 40000000 		.4byte	.LFE72
 3504 03b4 0400     		.2byte	0x4
 3505 03b6 F3       		.byte	0xf3
 3506 03b7 01       		.uleb128 0x1
 3507 03b8 52       		.byte	0x52
 3508 03b9 9F       		.byte	0x9f
 3509 03ba 00000000 		.4byte	0
 3510 03be 00000000 		.4byte	0
 3511              	.LLST25:
 3512 03c2 00000000 		.4byte	.LVL32
 3513 03c6 0D000000 		.4byte	.LVL33-1
 3514 03ca 0100     		.2byte	0x1
 3515 03cc 50       		.byte	0x50
 3516 03cd 0D000000 		.4byte	.LVL33-1
 3517 03d1 1A000000 		.4byte	.LFE73
 3518 03d5 0100     		.2byte	0x1
 3519 03d7 54       		.byte	0x54
 3520 03d8 00000000 		.4byte	0
 3521 03dc 00000000 		.4byte	0
 3522              	.LLST26:
 3523 03e0 00000000 		.4byte	.LVL32
 3524 03e4 0D000000 		.4byte	.LVL33-1
 3525 03e8 0100     		.2byte	0x1
 3526 03ea 51       		.byte	0x51
 3527 03eb 0D000000 		.4byte	.LVL33-1
 3528 03ef 1A000000 		.4byte	.LFE73
 3529 03f3 0400     		.2byte	0x4
 3530 03f5 F3       		.byte	0xf3
 3531 03f6 01       		.uleb128 0x1
 3532 03f7 51       		.byte	0x51
 3533 03f8 9F       		.byte	0x9f
 3534 03f9 00000000 		.4byte	0
ARM GAS  /var/folders/6q/x_mk5n_j3p7_c40r_2k_78980000gn/T//cc8CwihN.s 			page 63


 3535 03fd 00000000 		.4byte	0
 3536              	.LLST27:
 3537 0401 00000000 		.4byte	.LVL34
 3538 0405 0D000000 		.4byte	.LVL35-1
 3539 0409 0100     		.2byte	0x1
 3540 040b 50       		.byte	0x50
 3541 040c 0D000000 		.4byte	.LVL35-1
 3542 0410 2E000000 		.4byte	.LFE74
 3543 0414 0100     		.2byte	0x1
 3544 0416 54       		.byte	0x54
 3545 0417 00000000 		.4byte	0
 3546 041b 00000000 		.4byte	0
 3547              	.LLST28:
 3548 041f 00000000 		.4byte	.LVL39
 3549 0423 10000000 		.4byte	.LVL41
 3550 0427 0100     		.2byte	0x1
 3551 0429 50       		.byte	0x50
 3552 042a 10000000 		.4byte	.LVL41
 3553 042e 1A000000 		.4byte	.LVL43
 3554 0432 0100     		.2byte	0x1
 3555 0434 54       		.byte	0x54
 3556 0435 1A000000 		.4byte	.LVL43
 3557 0439 1E000000 		.4byte	.LVL45
 3558 043d 0100     		.2byte	0x1
 3559 043f 50       		.byte	0x50
 3560 0440 1E000000 		.4byte	.LVL45
 3561 0444 38000000 		.4byte	.LVL48
 3562 0448 0100     		.2byte	0x1
 3563 044a 54       		.byte	0x54
 3564 044b 38000000 		.4byte	.LVL48
 3565 044f 3B000000 		.4byte	.LVL49-1
 3566 0453 0300     		.2byte	0x3
 3567 0455 70       		.byte	0x70
 3568 0456 7C       		.sleb128 -4
 3569 0457 9F       		.byte	0x9f
 3570 0458 3B000000 		.4byte	.LVL49-1
 3571 045c 3C000000 		.4byte	.LFE75
 3572 0460 0400     		.2byte	0x4
 3573 0462 F3       		.byte	0xf3
 3574 0463 01       		.uleb128 0x1
 3575 0464 50       		.byte	0x50
 3576 0465 9F       		.byte	0x9f
 3577 0466 00000000 		.4byte	0
 3578 046a 00000000 		.4byte	0
 3579              	.LLST29:
 3580 046e 00000000 		.4byte	.LVL39
 3581 0472 0C000000 		.4byte	.LVL40
 3582 0476 0100     		.2byte	0x1
 3583 0478 51       		.byte	0x51
 3584 0479 0C000000 		.4byte	.LVL40
 3585 047d 1A000000 		.4byte	.LVL43
 3586 0481 0400     		.2byte	0x4
 3587 0483 F3       		.byte	0xf3
 3588 0484 01       		.uleb128 0x1
 3589 0485 51       		.byte	0x51
 3590 0486 9F       		.byte	0x9f
 3591 0487 1A000000 		.4byte	.LVL43
ARM GAS  /var/folders/6q/x_mk5n_j3p7_c40r_2k_78980000gn/T//cc8CwihN.s 			page 64


 3592 048b 1C000000 		.4byte	.LVL44
 3593 048f 0100     		.2byte	0x1
 3594 0491 51       		.byte	0x51
 3595 0492 1C000000 		.4byte	.LVL44
 3596 0496 3C000000 		.4byte	.LFE75
 3597 049a 0400     		.2byte	0x4
 3598 049c F3       		.byte	0xf3
 3599 049d 01       		.uleb128 0x1
 3600 049e 51       		.byte	0x51
 3601 049f 9F       		.byte	0x9f
 3602 04a0 00000000 		.4byte	0
 3603 04a4 00000000 		.4byte	0
 3604              	.LLST30:
 3605 04a8 00000000 		.4byte	.LVL50
 3606 04ac 06000000 		.4byte	.LVL51
 3607 04b0 0100     		.2byte	0x1
 3608 04b2 50       		.byte	0x50
 3609 04b3 06000000 		.4byte	.LVL51
 3610 04b7 1E000000 		.4byte	.LFE76
 3611 04bb 0100     		.2byte	0x1
 3612 04bd 54       		.byte	0x54
 3613 04be 00000000 		.4byte	0
 3614 04c2 00000000 		.4byte	0
 3615              	.LLST31:
 3616 04c6 0A000000 		.4byte	.LVL52
 3617 04ca 14000000 		.4byte	.LVL54
 3618 04ce 0100     		.2byte	0x1
 3619 04d0 50       		.byte	0x50
 3620 04d1 14000000 		.4byte	.LVL54
 3621 04d5 1E000000 		.4byte	.LFE76
 3622 04d9 0100     		.2byte	0x1
 3623 04db 55       		.byte	0x55
 3624 04dc 00000000 		.4byte	0
 3625 04e0 00000000 		.4byte	0
 3626              		.section	.debug_aranges,"",%progbits
 3627 0000 84000000 		.4byte	0x84
 3628 0004 0200     		.2byte	0x2
 3629 0006 00000000 		.4byte	.Ldebug_info0
 3630 000a 04       		.byte	0x4
 3631 000b 00       		.byte	0
 3632 000c 0000     		.2byte	0
 3633 000e 0000     		.2byte	0
 3634 0010 00000000 		.4byte	.LFB70
 3635 0014 06000000 		.4byte	.LFE70-.LFB70
 3636 0018 00000000 		.4byte	.LFB64
 3637 001c 0A000000 		.4byte	.LFE64-.LFB64
 3638 0020 00000000 		.4byte	.LFB69
 3639 0024 06000000 		.4byte	.LFE69-.LFB69
 3640 0028 00000000 		.4byte	.LFB63
 3641 002c 0A000000 		.4byte	.LFE63-.LFB63
 3642 0030 00000000 		.4byte	.LFB68
 3643 0034 06000000 		.4byte	.LFE68-.LFB68
 3644 0038 00000000 		.4byte	.LFB66
 3645 003c 0A000000 		.4byte	.LFE66-.LFB66
 3646 0040 00000000 		.4byte	.LFB67
 3647 0044 06000000 		.4byte	.LFE67-.LFB67
 3648 0048 00000000 		.4byte	.LFB65
ARM GAS  /var/folders/6q/x_mk5n_j3p7_c40r_2k_78980000gn/T//cc8CwihN.s 			page 65


 3649 004c 0A000000 		.4byte	.LFE65-.LFB65
 3650 0050 00000000 		.4byte	.LFB71
 3651 0054 04000000 		.4byte	.LFE71-.LFB71
 3652 0058 00000000 		.4byte	.LFB72
 3653 005c 40000000 		.4byte	.LFE72-.LFB72
 3654 0060 00000000 		.4byte	.LFB73
 3655 0064 1A000000 		.4byte	.LFE73-.LFB73
 3656 0068 00000000 		.4byte	.LFB74
 3657 006c 2E000000 		.4byte	.LFE74-.LFB74
 3658 0070 00000000 		.4byte	.LFB75
 3659 0074 3C000000 		.4byte	.LFE75-.LFB75
 3660 0078 00000000 		.4byte	.LFB76
 3661 007c 1E000000 		.4byte	.LFE76-.LFB76
 3662 0080 00000000 		.4byte	0
 3663 0084 00000000 		.4byte	0
 3664              		.section	.debug_ranges,"",%progbits
 3665              	.Ldebug_ranges0:
 3666 0000 02000000 		.4byte	.LBB2
 3667 0004 04000000 		.4byte	.LBE2
 3668 0008 06000000 		.4byte	.LBB3
 3669 000c 0A000000 		.4byte	.LBE3
 3670 0010 00000000 		.4byte	0
 3671 0014 00000000 		.4byte	0
 3672 0018 02000000 		.4byte	.LBB5
 3673 001c 04000000 		.4byte	.LBE5
 3674 0020 06000000 		.4byte	.LBB6
 3675 0024 0A000000 		.4byte	.LBE6
 3676 0028 00000000 		.4byte	0
 3677 002c 00000000 		.4byte	0
 3678 0030 00000000 		.4byte	.LFB70
 3679 0034 06000000 		.4byte	.LFE70
 3680 0038 00000000 		.4byte	.LFB64
 3681 003c 0A000000 		.4byte	.LFE64
 3682 0040 00000000 		.4byte	.LFB69
 3683 0044 06000000 		.4byte	.LFE69
 3684 0048 00000000 		.4byte	.LFB63
 3685 004c 0A000000 		.4byte	.LFE63
 3686 0050 00000000 		.4byte	.LFB68
 3687 0054 06000000 		.4byte	.LFE68
 3688 0058 00000000 		.4byte	.LFB66
 3689 005c 0A000000 		.4byte	.LFE66
 3690 0060 00000000 		.4byte	.LFB67
 3691 0064 06000000 		.4byte	.LFE67
 3692 0068 00000000 		.4byte	.LFB65
 3693 006c 0A000000 		.4byte	.LFE65
 3694 0070 00000000 		.4byte	.LFB71
 3695 0074 04000000 		.4byte	.LFE71
 3696 0078 00000000 		.4byte	.LFB72
 3697 007c 40000000 		.4byte	.LFE72
 3698 0080 00000000 		.4byte	.LFB73
 3699 0084 1A000000 		.4byte	.LFE73
 3700 0088 00000000 		.4byte	.LFB74
 3701 008c 2E000000 		.4byte	.LFE74
 3702 0090 00000000 		.4byte	.LFB75
 3703 0094 3C000000 		.4byte	.LFE75
 3704 0098 00000000 		.4byte	.LFB76
 3705 009c 1E000000 		.4byte	.LFE76
ARM GAS  /var/folders/6q/x_mk5n_j3p7_c40r_2k_78980000gn/T//cc8CwihN.s 			page 66


 3706 00a0 00000000 		.4byte	0
 3707 00a4 00000000 		.4byte	0
 3708              		.section	.debug_line,"",%progbits
 3709              	.Ldebug_line0:
 3710 0000 FA030000 		.section	.debug_str,"MS",%progbits,1
 3710      0200E402 
 3710      00000201 
 3710      FB0E0D00 
 3710      01010101 
 3711              	.LASF125:
 3712 0000 63684F51 		.ascii	"chOQPutTimeout\000"
 3712      50757454 
 3712      696D656F 
 3712      757400
 3713              	.LASF4:
 3714 000f 73697A65 		.ascii	"size_t\000"
 3714      5F7400
 3715              	.LASF67:
 3716 0016 7264796D 		.ascii	"rdymsg\000"
 3716      736700
 3717              	.LASF83:
 3718 001d 4F757470 		.ascii	"OutputQueue\000"
 3718      75745175 
 3718      65756500 
 3719              	.LASF5:
 3720 0029 5F5F7569 		.ascii	"__uint8_t\000"
 3720      6E74385F 
 3720      7400
 3721              	.LASF122:
 3722 0033 63684951 		.ascii	"chIQReadTimeout\000"
 3722      52656164 
 3722      54696D65 
 3722      6F757400 
 3723              	.LASF14:
 3724 0043 6C6F6E67 		.ascii	"long long unsigned int\000"
 3724      206C6F6E 
 3724      6720756E 
 3724      7369676E 
 3724      65642069 
 3725              	.LASF132:
 3726 005a 63684951 		.ascii	"chIQResetI\000"
 3726      52657365 
 3726      744900
 3727              	.LASF128:
 3728 0065 63684F51 		.ascii	"chOQInit\000"
 3728      496E6974 
 3728      00
 3729              	.LASF68:
 3730 006e 65786974 		.ascii	"exitcode\000"
 3730      636F6465 
 3730      00
 3731              	.LASF141:
 3732 0077 49544D5F 		.ascii	"ITM_RxBuffer\000"
 3732      52784275 
 3732      66666572 
 3732      00
 3733              	.LASF115:
ARM GAS  /var/folders/6q/x_mk5n_j3p7_c40r_2k_78980000gn/T//cc8CwihN.s 			page 67


 3734 0084 73644F62 		.ascii	"sdObjectInit\000"
 3734      6A656374 
 3734      496E6974 
 3734      00
 3735              	.LASF111:
 3736 0091 72656164 		.ascii	"readt\000"
 3736      7400
 3737              	.LASF73:
 3738 0097 715F7761 		.ascii	"q_waiting\000"
 3738      6974696E 
 3738      6700
 3739              	.LASF1:
 3740 00a1 6C6F6E67 		.ascii	"long long int\000"
 3740      206C6F6E 
 3740      6720696E 
 3740      7400
 3741              	.LASF3:
 3742 00af 7369676E 		.ascii	"signed char\000"
 3742      65642063 
 3742      68617200 
 3743              	.LASF90:
 3744 00bb 47545052 		.ascii	"GTPR\000"
 3744      00
 3745              	.LASF49:
 3746 00c0 705F6D70 		.ascii	"p_mpool\000"
 3746      6F6F6C00 
 3747              	.LASF19:
 3748 00c8 626F6F6C 		.ascii	"bool_t\000"
 3748      5F7400
 3749              	.LASF57:
 3750 00cf 6D5F7175 		.ascii	"m_queue\000"
 3750      65756500 
 3751              	.LASF24:
 3752 00d7 74736C69 		.ascii	"tslices_t\000"
 3752      6365735F 
 3752      7400
 3753              	.LASF99:
 3754 00e1 73746174 		.ascii	"state\000"
 3754      6500
 3755              	.LASF11:
 3756 00e7 6C6F6E67 		.ascii	"long int\000"
 3756      20696E74 
 3756      00
 3757              	.LASF22:
 3758 00f0 74737461 		.ascii	"tstate_t\000"
 3758      74655F74 
 3758      00
 3759              	.LASF136:
 3760 00f9 63684F51 		.ascii	"chOQGetI\000"
 3760      47657449 
 3760      00
 3761              	.LASF40:
 3762 0102 705F7265 		.ascii	"p_refs\000"
 3762      667300
 3763              	.LASF75:
 3764 0109 715F6275 		.ascii	"q_buffer\000"
 3764      66666572 
ARM GAS  /var/folders/6q/x_mk5n_j3p7_c40r_2k_78980000gn/T//cc8CwihN.s 			page 68


 3764      00
 3765              	.LASF77:
 3766 0112 715F7772 		.ascii	"q_wrptr\000"
 3766      70747200 
 3767              	.LASF80:
 3768 011a 715F6C69 		.ascii	"q_link\000"
 3768      6E6B00
 3769              	.LASF135:
 3770 0121 63684576 		.ascii	"chEvtBroadcastFlagsI\000"
 3770      7442726F 
 3770      61646361 
 3770      7374466C 
 3770      61677349 
 3771              	.LASF35:
 3772 0136 705F6E65 		.ascii	"p_newer\000"
 3772      77657200 
 3773              	.LASF133:
 3774 013e 63685363 		.ascii	"chSchRescheduleS\000"
 3774      68526573 
 3774      63686564 
 3774      756C6553 
 3774      00
 3775              	.LASF12:
 3776 014f 5F5F7569 		.ascii	"__uint32_t\000"
 3776      6E743332 
 3776      5F7400
 3777              	.LASF52:
 3778 015a 72656761 		.ascii	"regarm_t\000"
 3778      726D5F74 
 3778      00
 3779              	.LASF134:
 3780 0163 63684951 		.ascii	"chIQPutI\000"
 3780      50757449 
 3780      00
 3781              	.LASF65:
 3782 016c 4576656E 		.ascii	"EventSource\000"
 3782      74536F75 
 3782      72636500 
 3783              	.LASF102:
 3784 0178 75736172 		.ascii	"usart\000"
 3784      7400
 3785              	.LASF0:
 3786 017e 756E7369 		.ascii	"unsigned int\000"
 3786      676E6564 
 3786      20696E74 
 3786      00
 3787              	.LASF16:
 3788 018b 75696E74 		.ascii	"uint16_t\000"
 3788      31365F74 
 3788      00
 3789              	.LASF105:
 3790 0194 53657269 		.ascii	"SerialDriverVMT\000"
 3790      616C4472 
 3790      69766572 
 3790      564D5400 
 3791              	.LASF42:
 3792 01a4 705F7469 		.ascii	"p_time\000"
ARM GAS  /var/folders/6q/x_mk5n_j3p7_c40r_2k_78980000gn/T//cc8CwihN.s 			page 69


 3792      6D6500
 3793              	.LASF116:
 3794 01ab 696E6F74 		.ascii	"inotify\000"
 3794      69667900 
 3795              	.LASF100:
 3796 01b3 69717565 		.ascii	"iqueue\000"
 3796      756500
 3797              	.LASF44:
 3798 01ba 705F6D73 		.ascii	"p_msgqueue\000"
 3798      67717565 
 3798      756500
 3799              	.LASF126:
 3800 01c5 73645F6C 		.ascii	"sd_lld_init\000"
 3800      6C645F69 
 3800      6E697400 
 3801              	.LASF109:
 3802 01d1 67657474 		.ascii	"gett\000"
 3802      00
 3803              	.LASF137:
 3804 01d6 474E5520 		.ascii	"GNU C11 5.4.1 20160919 (release) [ARM/embedded-5-br"
 3804      43313120 
 3804      352E342E 
 3804      31203230 
 3804      31363039 
 3805 0209 616E6368 		.ascii	"anch revision 240496] -mcpu=cortex-m3 -mno-thumb-in"
 3805      20726576 
 3805      6973696F 
 3805      6E203234 
 3805      30343936 
 3806 023c 74657277 		.ascii	"terwork -mthumb -ggdb -O2 -fomit-frame-pointer -fal"
 3806      6F726B20 
 3806      2D6D7468 
 3806      756D6220 
 3806      2D676764 
 3807 026f 69676E2D 		.ascii	"ign-functions=16 -ffunction-sections -fdata-section"
 3807      66756E63 
 3807      74696F6E 
 3807      733D3136 
 3807      202D6666 
 3808 02a2 73202D66 		.ascii	"s -fno-common\000"
 3808      6E6F2D63 
 3808      6F6D6D6F 
 3808      6E00
 3809              	.LASF98:
 3810 02b0 6576656E 		.ascii	"event\000"
 3810      7400
 3811              	.LASF9:
 3812 02b6 73686F72 		.ascii	"short unsigned int\000"
 3812      7420756E 
 3812      7369676E 
 3812      65642069 
 3812      6E7400
 3813              	.LASF26:
 3814 02c9 6D73675F 		.ascii	"msg_t\000"
 3814      7400
 3815              	.LASF101:
 3816 02cf 6F717565 		.ascii	"oqueue\000"
ARM GAS  /var/folders/6q/x_mk5n_j3p7_c40r_2k_78980000gn/T//cc8CwihN.s 			page 70


 3816      756500
 3817              	.LASF92:
 3818 02d6 55534152 		.ascii	"USART_TypeDef\000"
 3818      545F5479 
 3818      70654465 
 3818      6600
 3819              	.LASF110:
 3820 02e4 77726974 		.ascii	"writet\000"
 3820      657400
 3821              	.LASF21:
 3822 02eb 746D6F64 		.ascii	"tmode_t\000"
 3822      655F7400 
 3823              	.LASF51:
 3824 02f3 54687265 		.ascii	"ThreadsList\000"
 3824      6164734C 
 3824      69737400 
 3825              	.LASF27:
 3826 02ff 6576656E 		.ascii	"eventmask_t\000"
 3826      746D6173 
 3826      6B5F7400 
 3827              	.LASF82:
 3828 030b 496E7075 		.ascii	"InputQueue\000"
 3828      74517565 
 3828      756500
 3829              	.LASF103:
 3830 0316 73706565 		.ascii	"speed\000"
 3830      6400
 3831              	.LASF81:
 3832 031c 716E6F74 		.ascii	"qnotify_t\000"
 3832      6966795F 
 3832      7400
 3833              	.LASF72:
 3834 0326 47656E65 		.ascii	"GenericQueue\000"
 3834      72696351 
 3834      75657565 
 3834      00
 3835              	.LASF123:
 3836 0333 63684F51 		.ascii	"chOQWriteTimeout\000"
 3836      57726974 
 3836      6554696D 
 3836      656F7574 
 3836      00
 3837              	.LASF106:
 3838 0344 77726974 		.ascii	"write\000"
 3838      6500
 3839              	.LASF108:
 3840 034a 70757474 		.ascii	"putt\000"
 3840      00
 3841              	.LASF55:
 3842 034f 73697A65 		.ascii	"sizetype\000"
 3842      74797065 
 3842      00
 3843              	.LASF74:
 3844 0358 715F636F 		.ascii	"q_counter\000"
 3844      756E7465 
 3844      7200
 3845              	.LASF2:
ARM GAS  /var/folders/6q/x_mk5n_j3p7_c40r_2k_78980000gn/T//cc8CwihN.s 			page 71


 3846 0362 6C6F6E67 		.ascii	"long double\000"
 3846      20646F75 
 3846      626C6500 
 3847              	.LASF56:
 3848 036e 4D757465 		.ascii	"Mutex\000"
 3848      7800
 3849              	.LASF33:
 3850 0374 705F7072 		.ascii	"p_prio\000"
 3850      696F00
 3851              	.LASF63:
 3852 037b 656C5F6D 		.ascii	"el_mask\000"
 3852      61736B00 
 3853              	.LASF36:
 3854 0383 705F6F6C 		.ascii	"p_older\000"
 3854      64657200 
 3855              	.LASF50:
 3856 038b 54687265 		.ascii	"ThreadsQueue\000"
 3856      61647351 
 3856      75657565 
 3856      00
 3857              	.LASF120:
 3858 0398 73645374 		.ascii	"sdStop\000"
 3858      6F7000
 3859              	.LASF112:
 3860 039f 74696D65 		.ascii	"time\000"
 3860      00
 3861              	.LASF104:
 3862 03a4 53657269 		.ascii	"SerialConfig\000"
 3862      616C436F 
 3862      6E666967 
 3862      00
 3863              	.LASF23:
 3864 03b1 74726566 		.ascii	"trefs_t\000"
 3864      735F7400 
 3865              	.LASF84:
 3866 03b9 52455345 		.ascii	"RESERVED0\000"
 3866      52564544 
 3866      3000
 3867              	.LASF85:
 3868 03c3 52455345 		.ascii	"RESERVED1\000"
 3868      52564544 
 3868      3100
 3869              	.LASF86:
 3870 03cd 52455345 		.ascii	"RESERVED2\000"
 3870      52564544 
 3870      3200
 3871              	.LASF87:
 3872 03d7 52455345 		.ascii	"RESERVED3\000"
 3872      52564544 
 3872      3300
 3873              	.LASF88:
 3874 03e1 52455345 		.ascii	"RESERVED4\000"
 3874      52564544 
 3874      3400
 3875              	.LASF32:
 3876 03eb 705F7072 		.ascii	"p_prev\000"
 3876      657600
ARM GAS  /var/folders/6q/x_mk5n_j3p7_c40r_2k_78980000gn/T//cc8CwihN.s 			page 72


 3877              	.LASF91:
 3878 03f2 52455345 		.ascii	"RESERVED6\000"
 3878      52564544 
 3878      3600
 3879              	.LASF25:
 3880 03fc 74707269 		.ascii	"tprio_t\000"
 3880      6F5F7400 
 3881              	.LASF78:
 3882 0404 715F7264 		.ascii	"q_rdptr\000"
 3882      70747200 
 3883              	.LASF20:
 3884 040c 5F426F6F 		.ascii	"_Bool\000"
 3884      6C00
 3885              	.LASF17:
 3886 0412 696E7433 		.ascii	"int32_t\000"
 3886      325F7400 
 3887              	.LASF6:
 3888 041a 756E7369 		.ascii	"unsigned char\000"
 3888      676E6564 
 3888      20636861 
 3888      7200
 3889              	.LASF129:
 3890 0428 73645F6C 		.ascii	"sd_lld_start\000"
 3890      6C645F73 
 3890      74617274 
 3890      00
 3891              	.LASF62:
 3892 0435 656C5F6C 		.ascii	"el_listener\000"
 3892      69737465 
 3892      6E657200 
 3893              	.LASF64:
 3894 0441 656C5F66 		.ascii	"el_flags\000"
 3894      6C616773 
 3894      00
 3895              	.LASF38:
 3896 044a 705F7374 		.ascii	"p_state\000"
 3896      61746500 
 3897              	.LASF47:
 3898 0452 705F6D74 		.ascii	"p_mtxlist\000"
 3898      786C6973 
 3898      7400
 3899              	.LASF7:
 3900 045c 73686F72 		.ascii	"short int\000"
 3900      7420696E 
 3900      7400
 3901              	.LASF41:
 3902 0466 705F7072 		.ascii	"p_preempt\000"
 3902      65656D70 
 3902      7400
 3903              	.LASF70:
 3904 0470 65776D61 		.ascii	"ewmask\000"
 3904      736B00
 3905              	.LASF31:
 3906 0477 705F6E65 		.ascii	"p_next\000"
 3906      787400
 3907              	.LASF39:
 3908 047e 705F666C 		.ascii	"p_flags\000"
ARM GAS  /var/folders/6q/x_mk5n_j3p7_c40r_2k_78980000gn/T//cc8CwihN.s 			page 73


 3908      61677300 
 3909              	.LASF61:
 3910 0486 656C5F6E 		.ascii	"el_next\000"
 3910      65787400 
 3911              	.LASF94:
 3912 048e 53445F53 		.ascii	"SD_STOP\000"
 3912      544F5000 
 3913              	.LASF30:
 3914 0496 54687265 		.ascii	"Thread\000"
 3914      616400
 3915              	.LASF46:
 3916 049d 705F6570 		.ascii	"p_epending\000"
 3916      656E6469 
 3916      6E6700
 3917              	.LASF93:
 3918 04a8 53445F55 		.ascii	"SD_UNINIT\000"
 3918      4E494E49 
 3918      5400
 3919              	.LASF89:
 3920 04b2 52455345 		.ascii	"RESERVED5\000"
 3920      52564544 
 3920      3500
 3921              	.LASF18:
 3922 04bc 75696E74 		.ascii	"uint32_t\000"
 3922      33325F74 
 3922      00
 3923              	.LASF96:
 3924 04c5 73647374 		.ascii	"sdstate_t\000"
 3924      6174655F 
 3924      7400
 3925              	.LASF97:
 3926 04cf 53657269 		.ascii	"SerialDriver\000"
 3926      616C4472 
 3926      69766572 
 3926      00
 3927              	.LASF13:
 3928 04dc 6C6F6E67 		.ascii	"long unsigned int\000"
 3928      20756E73 
 3928      69676E65 
 3928      6420696E 
 3928      7400
 3929              	.LASF107:
 3930 04ee 72656164 		.ascii	"read\000"
 3930      00
 3931              	.LASF71:
 3932 04f3 63686172 		.ascii	"char\000"
 3932      00
 3933              	.LASF121:
 3934 04f8 7364496E 		.ascii	"sdIncomingDataI\000"
 3934      636F6D69 
 3934      6E674461 
 3934      74614900 
 3935              	.LASF119:
 3936 0508 636F6E66 		.ascii	"config\000"
 3936      696700
 3937              	.LASF118:
 3938 050f 73645374 		.ascii	"sdStart\000"
ARM GAS  /var/folders/6q/x_mk5n_j3p7_c40r_2k_78980000gn/T//cc8CwihN.s 			page 74


 3938      61727400 
 3939              	.LASF8:
 3940 0517 5F5F7569 		.ascii	"__uint16_t\000"
 3940      6E743136 
 3940      5F7400
 3941              	.LASF59:
 3942 0522 6D5F6E65 		.ascii	"m_next\000"
 3942      787400
 3943              	.LASF29:
 3944 0529 73797374 		.ascii	"systime_t\000"
 3944      696D655F 
 3944      7400
 3945              	.LASF48:
 3946 0533 705F7265 		.ascii	"p_realprio\000"
 3946      616C7072 
 3946      696F00
 3947              	.LASF10:
 3948 053e 5F5F696E 		.ascii	"__int32_t\000"
 3948      7433325F 
 3948      7400
 3949              	.LASF138:
 3950 0548 2E2E2F43 		.ascii	"../ChibiOS/os/hal/src/serial.c\000"
 3950      68696269 
 3950      4F532F6F 
 3950      732F6861 
 3950      6C2F7372 
 3951              	.LASF37:
 3952 0567 705F6E61 		.ascii	"p_name\000"
 3952      6D6500
 3953              	.LASF131:
 3954 056e 63684F51 		.ascii	"chOQResetI\000"
 3954      52657365 
 3954      744900
 3955              	.LASF54:
 3956 0579 636F6E74 		.ascii	"context\000"
 3956      65787400 
 3957              	.LASF53:
 3958 0581 696E7463 		.ascii	"intctx\000"
 3958      747800
 3959              	.LASF95:
 3960 0588 53445F52 		.ascii	"SD_READY\000"
 3960      45414459 
 3960      00
 3961              	.LASF28:
 3962 0591 666C6167 		.ascii	"flagsmask_t\000"
 3962      736D6173 
 3962      6B5F7400 
 3963              	.LASF76:
 3964 059d 715F746F 		.ascii	"q_top\000"
 3964      7000
 3965              	.LASF139:
 3966 05a3 2F557365 		.ascii	"/Users/Luca/src/vexilla/src/teamA\000"
 3966      72732F4C 
 3966      7563612F 
 3966      7372632F 
 3966      76657869 
 3967              	.LASF66:
ARM GAS  /var/folders/6q/x_mk5n_j3p7_c40r_2k_78980000gn/T//cc8CwihN.s 			page 75


 3968 05c5 65735F6E 		.ascii	"es_next\000"
 3968      65787400 
 3969              	.LASF79:
 3970 05cd 715F6E6F 		.ascii	"q_notify\000"
 3970      74696679 
 3970      00
 3971              	.LASF140:
 3972 05d6 73645265 		.ascii	"sdRequestDataI\000"
 3972      71756573 
 3972      74446174 
 3972      614900
 3973              	.LASF15:
 3974 05e5 75696E74 		.ascii	"uint8_t\000"
 3974      385F7400 
 3975              	.LASF117:
 3976 05ed 6F6E6F74 		.ascii	"onotify\000"
 3976      69667900 
 3977              	.LASF60:
 3978 05f5 4576656E 		.ascii	"EventListener\000"
 3978      744C6973 
 3978      74656E65 
 3978      7200
 3979              	.LASF69:
 3980 0603 77746F62 		.ascii	"wtobjp\000"
 3980      6A7000
 3981              	.LASF45:
 3982 060a 705F6D73 		.ascii	"p_msg\000"
 3982      6700
 3983              	.LASF130:
 3984 0610 73645F6C 		.ascii	"sd_lld_stop\000"
 3984      6C645F73 
 3984      746F7000 
 3985              	.LASF113:
 3986 061c 74696D65 		.ascii	"timeout\000"
 3986      6F757400 
 3987              	.LASF114:
 3988 0624 7364496E 		.ascii	"sdInit\000"
 3988      697400
 3989              	.LASF127:
 3990 062b 63684951 		.ascii	"chIQInit\000"
 3990      496E6974 
 3990      00
 3991              	.LASF58:
 3992 0634 6D5F6F77 		.ascii	"m_owner\000"
 3992      6E657200 
 3993              	.LASF34:
 3994 063c 705F6374 		.ascii	"p_ctx\000"
 3994      7800
 3995              	.LASF43:
 3996 0642 705F7761 		.ascii	"p_waiting\000"
 3996      6974696E 
 3996      6700
 3997              	.LASF124:
 3998 064c 63684951 		.ascii	"chIQGetTimeout\000"
 3998      47657454 
 3998      696D656F 
 3998      757400
ARM GAS  /var/folders/6q/x_mk5n_j3p7_c40r_2k_78980000gn/T//cc8CwihN.s 			page 76


 3999              		.ident	"GCC: (GNU Tools for ARM Embedded Processors) 5.4.1 20160919 (release) [ARM/embedded-5-bran
ARM GAS  /var/folders/6q/x_mk5n_j3p7_c40r_2k_78980000gn/T//cc8CwihN.s 			page 77


DEFINED SYMBOLS
                            *ABS*:0000000000000000 serial.c
/var/folders/6q/x_mk5n_j3p7_c40r_2k_78980000gn/T//cc8CwihN.s:20     .text.readt:0000000000000000 $t
/var/folders/6q/x_mk5n_j3p7_c40r_2k_78980000gn/T//cc8CwihN.s:25     .text.readt:0000000000000000 readt
/var/folders/6q/x_mk5n_j3p7_c40r_2k_78980000gn/T//cc8CwihN.s:43     .text.read:0000000000000000 $t
/var/folders/6q/x_mk5n_j3p7_c40r_2k_78980000gn/T//cc8CwihN.s:48     .text.read:0000000000000000 read
/var/folders/6q/x_mk5n_j3p7_c40r_2k_78980000gn/T//cc8CwihN.s:66     .text.writet:0000000000000000 $t
/var/folders/6q/x_mk5n_j3p7_c40r_2k_78980000gn/T//cc8CwihN.s:71     .text.writet:0000000000000000 writet
/var/folders/6q/x_mk5n_j3p7_c40r_2k_78980000gn/T//cc8CwihN.s:88     .text.write:0000000000000000 $t
/var/folders/6q/x_mk5n_j3p7_c40r_2k_78980000gn/T//cc8CwihN.s:93     .text.write:0000000000000000 write
/var/folders/6q/x_mk5n_j3p7_c40r_2k_78980000gn/T//cc8CwihN.s:111    .text.gett:0000000000000000 $t
/var/folders/6q/x_mk5n_j3p7_c40r_2k_78980000gn/T//cc8CwihN.s:116    .text.gett:0000000000000000 gett
/var/folders/6q/x_mk5n_j3p7_c40r_2k_78980000gn/T//cc8CwihN.s:133    .text.get:0000000000000000 $t
/var/folders/6q/x_mk5n_j3p7_c40r_2k_78980000gn/T//cc8CwihN.s:138    .text.get:0000000000000000 get
/var/folders/6q/x_mk5n_j3p7_c40r_2k_78980000gn/T//cc8CwihN.s:156    .text.putt:0000000000000000 $t
/var/folders/6q/x_mk5n_j3p7_c40r_2k_78980000gn/T//cc8CwihN.s:161    .text.putt:0000000000000000 putt
/var/folders/6q/x_mk5n_j3p7_c40r_2k_78980000gn/T//cc8CwihN.s:178    .text.put:0000000000000000 $t
/var/folders/6q/x_mk5n_j3p7_c40r_2k_78980000gn/T//cc8CwihN.s:183    .text.put:0000000000000000 put
/var/folders/6q/x_mk5n_j3p7_c40r_2k_78980000gn/T//cc8CwihN.s:201    .text.sdInit:0000000000000000 $t
/var/folders/6q/x_mk5n_j3p7_c40r_2k_78980000gn/T//cc8CwihN.s:207    .text.sdInit:0000000000000000 sdInit
/var/folders/6q/x_mk5n_j3p7_c40r_2k_78980000gn/T//cc8CwihN.s:221    .text.sdObjectInit:0000000000000000 $t
/var/folders/6q/x_mk5n_j3p7_c40r_2k_78980000gn/T//cc8CwihN.s:227    .text.sdObjectInit:0000000000000000 sdObjectInit
/var/folders/6q/x_mk5n_j3p7_c40r_2k_78980000gn/T//cc8CwihN.s:283    .text.sdObjectInit:000000000000003c $d
/var/folders/6q/x_mk5n_j3p7_c40r_2k_78980000gn/T//cc8CwihN.s:288    .text.sdStart:0000000000000000 $t
/var/folders/6q/x_mk5n_j3p7_c40r_2k_78980000gn/T//cc8CwihN.s:294    .text.sdStart:0000000000000000 sdStart
/var/folders/6q/x_mk5n_j3p7_c40r_2k_78980000gn/T//cc8CwihN.s:341    .text.sdStop:0000000000000000 $t
/var/folders/6q/x_mk5n_j3p7_c40r_2k_78980000gn/T//cc8CwihN.s:347    .text.sdStop:0000000000000000 sdStop
/var/folders/6q/x_mk5n_j3p7_c40r_2k_78980000gn/T//cc8CwihN.s:405    .text.sdIncomingDataI:0000000000000000 $t
/var/folders/6q/x_mk5n_j3p7_c40r_2k_78980000gn/T//cc8CwihN.s:411    .text.sdIncomingDataI:0000000000000000 sdIncomingDataI
/var/folders/6q/x_mk5n_j3p7_c40r_2k_78980000gn/T//cc8CwihN.s:477    .text.sdRequestDataI:0000000000000000 $t
/var/folders/6q/x_mk5n_j3p7_c40r_2k_78980000gn/T//cc8CwihN.s:483    .text.sdRequestDataI:0000000000000000 sdRequestDataI
/var/folders/6q/x_mk5n_j3p7_c40r_2k_78980000gn/T//cc8CwihN.s:524    .rodata.vmt:0000000000000000 $d
/var/folders/6q/x_mk5n_j3p7_c40r_2k_78980000gn/T//cc8CwihN.s:528    .rodata.vmt:0000000000000000 vmt
                     .debug_frame:0000000000000010 $d

UNDEFINED SYMBOLS
chIQReadTimeout
chOQWriteTimeout
chIQGetTimeout
chOQPutTimeout
sd_lld_init
chIQInit
chOQInit
sd_lld_start
sd_lld_stop
chOQResetI
chIQResetI
chSchRescheduleS
chIQPutI
chEvtBroadcastFlagsI
chOQGetI
