ARM GAS  /var/folders/6q/x_mk5n_j3p7_c40r_2k_78980000gn/T//ccu43oO2.s 			page 1


   1              		.syntax unified
   2              		.cpu cortex-m3
   3              		.fpu softvfp
   4              		.eabi_attribute 20, 1
   5              		.eabi_attribute 21, 1
   6              		.eabi_attribute 23, 3
   7              		.eabi_attribute 24, 1
   8              		.eabi_attribute 25, 1
   9              		.eabi_attribute 26, 1
  10              		.eabi_attribute 30, 2
  11              		.eabi_attribute 34, 1
  12              		.eabi_attribute 18, 4
  13              		.thumb
  14              		.syntax unified
  15              		.file	"smartmotor.c"
  16              		.text
  17              	.Ltext0:
  18              		.cfi_sections	.debug_frame
  19              		.global	__aeabi_i2f
  20              		.global	__aeabi_fcmpeq
  21              		.global	__aeabi_fcmpgt
  22              		.section	.text.SmartMotorSlewRateTask,"ax",%progbits
  23              		.align	2
  24              		.p2align 4,,15
  25              		.global	SmartMotorSlewRateTask
  26              		.thumb
  27              		.thumb_func
  28              		.type	SmartMotorSlewRateTask, %function
  29              	SmartMotorSlewRateTask:
  30              	.LFB108:
  31              		.file 1 "../convex-vexilla/cortex/opt/smartmotor.c"
  32              		.loc 1 1609 0
  33              		.cfi_startproc
  34              		@ args = 0, pretend = 0, frame = 8
  35              		@ frame_needed = 0, uses_anonymous_args = 0
  36              	.LVL0:
  37 0000 2DE9F04F 		push	{r4, r5, r6, r7, r8, r9, r10, fp, lr}
  38              		.cfi_def_cfa_offset 36
  39              		.cfi_offset 4, -36
  40              		.cfi_offset 5, -32
  41              		.cfi_offset 6, -28
  42              		.cfi_offset 7, -24
  43              		.cfi_offset 8, -20
  44              		.cfi_offset 9, -16
  45              		.cfi_offset 10, -12
  46              		.cfi_offset 11, -8
  47              		.cfi_offset 14, -4
  48              		.loc 1 1618 0
  49 0004 0121     		movs	r1, #1
  50 0006 5548     		ldr	r0, .L45
  51              	.LVL1:
  52              		.loc 1 1609 0
  53 0008 83B0     		sub	sp, sp, #12
  54              		.cfi_def_cfa_offset 48
  55              		.loc 1 1618 0
  56 000a FFF7FEFF 		bl	vexTaskRegisterPersistant
  57              	.LVL2:
ARM GAS  /var/folders/6q/x_mk5n_j3p7_c40r_2k_78980000gn/T//ccu43oO2.s 			page 2


  58 000e 544B     		ldr	r3, .L45+4
  59              		.loc 1 1624 0
  60 0010 0022     		movs	r2, #0
  61 0012 03F59B60 		add	r0, r3, #1240
  62              		.loc 1 1626 0
  63 0016 0A21     		movs	r1, #10
  64              	.LVL3:
  65              	.L2:
  66              		.loc 1 1624 0 discriminator 3
  67 0018 DA81     		strh	r2, [r3, #14]	@ movhi
  68              		.loc 1 1625 0 discriminator 3
  69 001a 9A81     		strh	r2, [r3, #12]	@ movhi
  70              		.loc 1 1626 0 discriminator 3
  71 001c 1982     		strh	r1, [r3, #16]	@ movhi
  72 001e 7C33     		adds	r3, r3, #124
  73              		.loc 1 1621 0 discriminator 3
  74 0020 8342     		cmp	r3, r0
  75 0022 F9D1     		bne	.L2
  76              		.loc 1 1630 0
  77 0024 4F4B     		ldr	r3, .L45+8
  78 0026 9B69     		ldr	r3, [r3, #24]
  79 0028 5B7F     		ldrb	r3, [r3, #29]	@ zero_extendqisi2
  80 002a 5A07     		lsls	r2, r3, #29
  81 002c 00F18580 		bmi	.L35
  82 0030 DFF83C91 		ldr	r9, .L45+20
  83              	.L3:
  84 0034 DFF83C81 		ldr	r8, .L45+24
  85 0038 08F59B67 		add	r7, r8, #1240
  86 003c 1BE0     		b	.L17
  87              	.LVL4:
  88              	.L42:
  89              		.loc 1 1645 0 discriminator 2
  90 003e 4A4B     		ldr	r3, .L45+12
  91 0040 B3F90030 		ldrsh	r3, [r3]
  92 0044 0BBB     		cbnz	r3, .L4
  93              	.L5:
  94              		.loc 1 1658 0
  95 0046 38F9083C 		ldrsh	r3, [r8, #-8]
  96 004a 1E46     		mov	r6, r3
  97 004c 28F8063C 		strh	r3, [r8, #-6]	@ movhi
  98              	.LVL5:
  99              	.L13:
 100              		.loc 1 1661 0
 101 0050 B245     		cmp	r10, r6
 102 0052 0CD0     		beq	.L14
 103              		.loc 1 1664 0
 104 0054 45DA     		bge	.L15
 105              		.loc 1 1666 0
 106 0056 38F9043C 		ldrsh	r3, [r8, #-4]
 107 005a 03EB0A04 		add	r4, r3, r10
 108              	.LVL6:
 109 005e B442     		cmp	r4, r6
 110 0060 A8BF     		it	ge
 111 0062 3446     		movge	r4, r6
 112              	.LVL7:
 113              	.L16:
 114              		.loc 1 1682 0
ARM GAS  /var/folders/6q/x_mk5n_j3p7_c40r_2k_78980000gn/T//ccu43oO2.s 			page 3


 115 0064 21B2     		sxth	r1, r4
 116 0066 18F9140C 		ldrsb	r0, [r8, #-20]
 117 006a FFF7FEFF 		bl	vexMotorSet
 118              	.LVL8:
 119              	.L14:
 120 006e 08F17C08 		add	r8, r8, #124
 121              		.loc 1 1637 0 discriminator 2
 122 0072 4745     		cmp	r7, r8
 123 0074 58D0     		beq	.L41
 124              	.LVL9:
 125              	.L17:
 126              		.loc 1 1642 0
 127 0076 18F9140C 		ldrsb	r0, [r8, #-20]
 128 007a FFF7FEFF 		bl	vexMotorGet
 129              	.LVL10:
 130              		.loc 1 1645 0
 131 007e B9F90030 		ldrsh	r3, [r9]
 132              		.loc 1 1642 0
 133 0082 8246     		mov	r10, r0
 134 0084 0446     		mov	r4, r0
 135              	.LVL11:
 136              		.loc 1 1645 0
 137 0086 002B     		cmp	r3, #0
 138 0088 D9D0     		beq	.L42
 139              	.L4:
 140              		.loc 1 1645 0 is_stmt 0 discriminator 3
 141 008a B8F90050 		ldrsh	r5, [r8]
 142 008e FF2D     		cmp	r5, #255
 143 0090 D9D0     		beq	.L5
 144              		.loc 1 1647 0 is_stmt 1
 145 0092 38F9086C 		ldrsh	r6, [r8, #-8]
 146 0096 85EAE573 		eor	r3, r5, r5, asr #31
 147 009a 86EAE672 		eor	r2, r6, r6, asr #31
 148 009e A3EBE573 		sub	r3, r3, r5, asr #31
 149 00a2 A2EBE672 		sub	r2, r2, r6, asr #31
 150 00a6 9A42     		cmp	r2, r3
 151 00a8 18DD     		ble	.L6
 152              		.loc 1 1649 0
 153 00aa 3046     		mov	r0, r6
 154              	.LVL12:
 155 00ac FFF7FEFF 		bl	__aeabi_i2f
 156              	.LVL13:
 157              	.LBB46:
 158              	.LBB47:
 159              		.loc 1 142 0
 160 00b0 0021     		movs	r1, #0
 161              	.LBE47:
 162              	.LBE46:
 163              		.loc 1 1649 0
 164 00b2 8346     		mov	fp, r0
 165              	.LVL14:
 166              	.LBB51:
 167              	.LBB48:
 168              		.loc 1 142 0
 169 00b4 FFF7FEFF 		bl	__aeabi_fcmpeq
 170              	.LVL15:
 171 00b8 E0B9     		cbnz	r0, .L7
ARM GAS  /var/folders/6q/x_mk5n_j3p7_c40r_2k_78980000gn/T//ccu43oO2.s 			page 4


 172              		.loc 1 143 0
 173 00ba 5846     		mov	r0, fp
 174 00bc 0021     		movs	r1, #0
 175 00be FFF7FEFF 		bl	__aeabi_fcmpgt
 176              	.LVL16:
 177 00c2 0028     		cmp	r0, #0
 178 00c4 3DD0     		beq	.L43
 179 00c6 4FF07E5B 		mov	fp, #1065353216
 180              	.LVL17:
 181              	.L9:
 182              	.LBE48:
 183              	.LBE51:
 184              		.loc 1 1649 0
 185 00ca 2846     		mov	r0, r5
 186 00cc FFF7FEFF 		bl	__aeabi_i2f
 187              	.LVL18:
 188              	.LBB52:
 189              	.LBB53:
 190              		.loc 1 142 0
 191 00d0 0021     		movs	r1, #0
 192              	.LBE53:
 193              	.LBE52:
 194              		.loc 1 1649 0
 195 00d2 0190     		str	r0, [sp, #4]	@ float
 196              	.LVL19:
 197              	.LBB59:
 198              	.LBB54:
 199              		.loc 1 142 0
 200 00d4 FFF7FEFF 		bl	__aeabi_fcmpeq
 201              	.LVL20:
 202 00d8 0028     		cmp	r0, #0
 203 00da 35D0     		beq	.L44
 204              	.LVL21:
 205              	.L6:
 206              	.LBE54:
 207              	.LBE59:
 208              		.loc 1 1655 0
 209 00dc 28F8066C 		strh	r6, [r8, #-6]	@ movhi
 210 00e0 B6E7     		b	.L13
 211              	.L15:
 212              		.loc 1 1673 0
 213 00e2 BFDD     		ble	.L16
 214              		.loc 1 1675 0
 215 00e4 38F9043C 		ldrsh	r3, [r8, #-4]
 216 00e8 C3EB0A04 		rsb	r4, r3, r10
 217              	.LVL22:
 218 00ec B442     		cmp	r4, r6
 219 00ee B8BF     		it	lt
 220 00f0 3446     		movlt	r4, r6
 221              	.LVL23:
 222 00f2 B7E7     		b	.L16
 223              	.LVL24:
 224              	.L7:
 225              		.loc 1 1649 0
 226 00f4 2846     		mov	r0, r5
 227 00f6 FFF7FEFF 		bl	__aeabi_i2f
 228              	.LVL25:
ARM GAS  /var/folders/6q/x_mk5n_j3p7_c40r_2k_78980000gn/T//ccu43oO2.s 			page 5


 229              	.LBB60:
 230              	.LBB55:
 231              		.loc 1 142 0
 232 00fa 0021     		movs	r1, #0
 233              	.LBE55:
 234              	.LBE60:
 235              		.loc 1 1649 0
 236 00fc 8346     		mov	fp, r0
 237              	.LVL26:
 238              	.LBB61:
 239              	.LBB56:
 240              		.loc 1 142 0
 241 00fe FFF7FEFF 		bl	__aeabi_fcmpeq
 242              	.LVL27:
 243 0102 68B9     		cbnz	r0, .L19
 244              		.loc 1 143 0
 245 0104 5846     		mov	r0, fp
 246 0106 0021     		movs	r1, #0
 247 0108 FFF7FEFF 		bl	__aeabi_fcmpgt
 248              	.LVL28:
 249 010c 0028     		cmp	r0, #0
 250 010e E5D1     		bne	.L6
 251              	.LBE56:
 252              	.LBE61:
 253              	.LBB62:
 254              	.LBB49:
 255              		.loc 1 142 0
 256 0110 4FF0000B 		mov	fp, #0
 257              	.LVL29:
 258              	.L22:
 259              	.LBE49:
 260              	.LBE62:
 261              	.LBB63:
 262              	.LBB57:
 263              		.loc 1 143 0
 264 0114 1548     		ldr	r0, .L45+16
 265              	.L10:
 266              	.LBE57:
 267              	.LBE63:
 268              		.loc 1 1649 0
 269 0116 5946     		mov	r1, fp
 270 0118 FFF7FEFF 		bl	__aeabi_fcmpeq
 271              	.LVL30:
 272 011c 0028     		cmp	r0, #0
 273 011e DDD0     		beq	.L6
 274              	.L19:
 275              		.loc 1 1650 0
 276 0120 28F8065C 		strh	r5, [r8, #-6]	@ movhi
 277 0124 2E46     		mov	r6, r5
 278 0126 93E7     		b	.L13
 279              	.L41:
 280              		.loc 1 1691 0
 281 0128 0F20     		movs	r0, #15
 282 012a FFF7FEFF 		bl	vexSleep
 283              	.LVL31:
 284              		.loc 1 1630 0
 285 012e 0D4B     		ldr	r3, .L45+8
ARM GAS  /var/folders/6q/x_mk5n_j3p7_c40r_2k_78980000gn/T//ccu43oO2.s 			page 6


 286 0130 9B69     		ldr	r3, [r3, #24]
 287 0132 5B7F     		ldrb	r3, [r3, #29]	@ zero_extendqisi2
 288 0134 5B07     		lsls	r3, r3, #29
 289 0136 7FF57DAF 		bpl	.L3
 290              	.LVL32:
 291              	.L35:
 292              		.loc 1 1695 0
 293 013a 0020     		movs	r0, #0
 294 013c 03B0     		add	sp, sp, #12
 295              		.cfi_remember_state
 296              		.cfi_def_cfa_offset 36
 297              		@ sp needed
 298 013e BDE8F08F 		pop	{r4, r5, r6, r7, r8, r9, r10, fp, pc}
 299              	.LVL33:
 300              	.L43:
 301              		.cfi_restore_state
 302              	.LBB64:
 303              	.LBB50:
 304              		.loc 1 143 0
 305 0142 DFF828B0 		ldr	fp, .L45+16
 306              	.LVL34:
 307 0146 C0E7     		b	.L9
 308              	.LVL35:
 309              	.L44:
 310              	.LBE50:
 311              	.LBE64:
 312              	.LBB65:
 313              	.LBB58:
 314 0148 0198     		ldr	r0, [sp, #4]	@ float
 315 014a 0021     		movs	r1, #0
 316 014c FFF7FEFF 		bl	__aeabi_fcmpgt
 317              	.LVL36:
 318 0150 0028     		cmp	r0, #0
 319 0152 DFD0     		beq	.L22
 320 0154 4FF07E50 		mov	r0, #1065353216
 321 0158 DDE7     		b	.L10
 322              	.L46:
 323 015a 00BF     		.align	2
 324              	.L45:
 325 015c 00000000 		.word	.LC0
 326 0160 00000000 		.word	.LANCHOR0
 327 0164 00000000 		.word	rlist
 328 0168 00000000 		.word	.LANCHOR2
 329 016c 000080BF 		.word	-1082130432
 330 0170 00000000 		.word	.LANCHOR1
 331 0174 14000000 		.word	.LANCHOR0+20
 332              	.LBE58:
 333              	.LBE65:
 334              		.cfi_endproc
 335              	.LFE108:
 336              		.size	SmartMotorSlewRateTask, .-SmartMotorSlewRateTask
 337              		.section	.text.SmartMotorGetPtr,"ax",%progbits
 338              		.align	2
 339              		.p2align 4,,15
 340              		.global	SmartMotorGetPtr
 341              		.thumb
 342              		.thumb_func
ARM GAS  /var/folders/6q/x_mk5n_j3p7_c40r_2k_78980000gn/T//ccu43oO2.s 			page 7


 343              		.type	SmartMotorGetPtr, %function
 344              	SmartMotorGetPtr:
 345              	.LFB69:
 346              		.loc 1 167 0
 347              		.cfi_startproc
 348              		@ args = 0, pretend = 0, frame = 0
 349              		@ frame_needed = 0, uses_anonymous_args = 0
 350              		@ link register save eliminated.
 351              	.LVL37:
 352              		.loc 1 169 0
 353 0000 C3B2     		uxtb	r3, r0
 354 0002 092B     		cmp	r3, #9
 355              		.loc 1 172 0
 356 0004 9DBF     		ittte	ls
 357 0006 034B     		ldrls	r3, .L50
 358 0008 C0EB4010 		rsbls	r0, r0, r0, lsl #5
 359              	.LVL38:
 360 000c 03EB8000 		addls	r0, r3, r0, lsl #2
 361              		.loc 1 170 0
 362 0010 0020     		movhi	r0, #0
 363              		.loc 1 173 0
 364 0012 7047     		bx	lr
 365              	.L51:
 366              		.align	2
 367              	.L50:
 368 0014 00000000 		.word	.LANCHOR0
 369              		.cfi_endproc
 370              	.LFE69:
 371              		.size	SmartMotorGetPtr, .-SmartMotorGetPtr
 372              		.section	.text.SmartMotorControllerGetPtr,"ax",%progbits
 373              		.align	2
 374              		.p2align 4,,15
 375              		.global	SmartMotorControllerGetPtr
 376              		.thumb
 377              		.thumb_func
 378              		.type	SmartMotorControllerGetPtr, %function
 379              	SmartMotorControllerGetPtr:
 380              	.LFB70:
 381              		.loc 1 183 0
 382              		.cfi_startproc
 383              		@ args = 0, pretend = 0, frame = 0
 384              		@ frame_needed = 0, uses_anonymous_args = 0
 385              		@ link register save eliminated.
 386              	.LVL39:
 387              		.loc 1 185 0
 388 0000 83B2     		uxth	r3, r0
 389 0002 092B     		cmp	r3, #9
 390              		.loc 1 188 0
 391 0004 9DBF     		ittte	ls
 392 0006 034B     		ldrls	r3, .L55
 393 0008 3422     		movls	r2, #52
 394 000a 02FB0030 		mlals	r0, r2, r0, r3
 395              	.LVL40:
 396              		.loc 1 186 0
 397 000e 0020     		movhi	r0, #0
 398              		.loc 1 189 0
 399 0010 7047     		bx	lr
ARM GAS  /var/folders/6q/x_mk5n_j3p7_c40r_2k_78980000gn/T//ccu43oO2.s 			page 8


 400              	.L56:
 401 0012 00BF     		.align	2
 402              	.L55:
 403 0014 00000000 		.word	.LANCHOR3
 404              		.cfi_endproc
 405              	.LFE70:
 406              		.size	SmartMotorControllerGetPtr, .-SmartMotorControllerGetPtr
 407              		.section	.text.SmartMotorGetSpeed,"ax",%progbits
 408              		.align	2
 409              		.p2align 4,,15
 410              		.global	SmartMotorGetSpeed
 411              		.thumb
 412              		.thumb_func
 413              		.type	SmartMotorGetSpeed, %function
 414              	SmartMotorGetSpeed:
 415              	.LFB71:
 416              		.loc 1 199 0
 417              		.cfi_startproc
 418              		@ args = 0, pretend = 0, frame = 0
 419              		@ frame_needed = 0, uses_anonymous_args = 0
 420              		@ link register save eliminated.
 421              	.LVL41:
 422              		.loc 1 201 0
 423 0000 C3B2     		uxtb	r3, r0
 424 0002 092B     		cmp	r3, #9
 425 0004 06D8     		bhi	.L59
 426              		.loc 1 204 0
 427 0006 044B     		ldr	r3, .L60
 428 0008 C0EB4010 		rsb	r0, r0, r0, lsl #5
 429              	.LVL42:
 430 000c 03EB8000 		add	r0, r3, r0, lsl #2
 431 0010 006B     		ldr	r0, [r0, #48]	@ float
 432 0012 7047     		bx	lr
 433              	.LVL43:
 434              	.L59:
 435              		.loc 1 202 0
 436 0014 0020     		movs	r0, #0
 437              	.LVL44:
 438              		.loc 1 205 0
 439 0016 7047     		bx	lr
 440              	.L61:
 441              		.align	2
 442              	.L60:
 443 0018 00000000 		.word	.LANCHOR0
 444              		.cfi_endproc
 445              	.LFE71:
 446              		.size	SmartMotorGetSpeed, .-SmartMotorGetSpeed
 447              		.section	.text._SmartMotorGetCurrent,"ax",%progbits
 448              		.align	2
 449              		.p2align 4,,15
 450              		.global	_SmartMotorGetCurrent
 451              		.thumb
 452              		.thumb_func
 453              		.type	_SmartMotorGetCurrent, %function
 454              	_SmartMotorGetCurrent:
 455              	.LFB72:
 456              		.loc 1 217 0
ARM GAS  /var/folders/6q/x_mk5n_j3p7_c40r_2k_78980000gn/T//ccu43oO2.s 			page 9


 457              		.cfi_startproc
 458              		@ args = 4, pretend = 12, frame = 0
 459              		@ frame_needed = 0, uses_anonymous_args = 1
 460              		@ link register save eliminated.
 461              	.LVL45:
 462 0000 0EB4     		push	{r1, r2, r3}
 463              		.cfi_def_cfa_offset 12
 464              		.cfi_offset 1, -12
 465              		.cfi_offset 2, -8
 466              		.cfi_offset 3, -4
 467              		.loc 1 219 0
 468 0002 C3B2     		uxtb	r3, r0
 469 0004 092B     		cmp	r3, #9
 470 0006 13D8     		bhi	.L65
 471              		.loc 1 223 0
 472 0008 009B     		ldr	r3, [sp]
 473 000a 4BB9     		cbnz	r3, .L67
 474              		.loc 1 226 0
 475 000c 0A4B     		ldr	r3, .L68
 476 000e C0EB4010 		rsb	r0, r0, r0, lsl #5
 477              	.LVL46:
 478 0012 03EB8000 		add	r0, r3, r0, lsl #2
 479 0016 006D     		ldr	r0, [r0, #80]
 480              		.loc 1 227 0
 481 0018 03B0     		add	sp, sp, #12
 482              		.cfi_remember_state
 483              		.cfi_restore 3
 484              		.cfi_restore 2
 485              		.cfi_restore 1
 486              		.cfi_def_cfa_offset 0
 487              		.loc 1 226 0
 488 001a 20F00040 		bic	r0, r0, #-2147483648
 489              		.loc 1 227 0
 490 001e 7047     		bx	lr
 491              	.LVL47:
 492              	.L67:
 493              		.cfi_restore_state
 494              		.loc 1 224 0
 495 0020 054B     		ldr	r3, .L68
 496 0022 C0EB4010 		rsb	r0, r0, r0, lsl #5
 497              	.LVL48:
 498 0026 03EB8000 		add	r0, r3, r0, lsl #2
 499 002a 006D     		ldr	r0, [r0, #80]	@ float
 500              		.loc 1 227 0
 501 002c 03B0     		add	sp, sp, #12
 502              		.cfi_remember_state
 503              		.cfi_restore 1
 504              		.cfi_restore 2
 505              		.cfi_restore 3
 506              		.cfi_def_cfa_offset 0
 507 002e 7047     		bx	lr
 508              	.LVL49:
 509              	.L65:
 510              		.cfi_restore_state
 511              		.loc 1 220 0
 512 0030 0020     		movs	r0, #0
 513              	.LVL50:
ARM GAS  /var/folders/6q/x_mk5n_j3p7_c40r_2k_78980000gn/T//ccu43oO2.s 			page 10


 514              		.loc 1 227 0
 515 0032 03B0     		add	sp, sp, #12
 516              		.cfi_restore 1
 517              		.cfi_restore 2
 518              		.cfi_restore 3
 519              		.cfi_def_cfa_offset 0
 520 0034 7047     		bx	lr
 521              	.L69:
 522 0036 00BF     		.align	2
 523              	.L68:
 524 0038 00000000 		.word	.LANCHOR0
 525              		.cfi_endproc
 526              	.LFE72:
 527              		.size	_SmartMotorGetCurrent, .-_SmartMotorGetCurrent
 528              		.section	.text.SmartMotorGetTemperature,"ax",%progbits
 529              		.align	2
 530              		.p2align 4,,15
 531              		.global	SmartMotorGetTemperature
 532              		.thumb
 533              		.thumb_func
 534              		.type	SmartMotorGetTemperature, %function
 535              	SmartMotorGetTemperature:
 536              	.LFB73:
 537              		.loc 1 237 0
 538              		.cfi_startproc
 539              		@ args = 0, pretend = 0, frame = 0
 540              		@ frame_needed = 0, uses_anonymous_args = 0
 541              		@ link register save eliminated.
 542              	.LVL51:
 543              		.loc 1 239 0
 544 0000 C3B2     		uxtb	r3, r0
 545 0002 092B     		cmp	r3, #9
 546 0004 06D8     		bhi	.L72
 547              		.loc 1 242 0
 548 0006 044B     		ldr	r3, .L73
 549 0008 C0EB4010 		rsb	r0, r0, r0, lsl #5
 550              	.LVL52:
 551 000c 03EB8000 		add	r0, r3, r0, lsl #2
 552 0010 406E     		ldr	r0, [r0, #100]	@ float
 553 0012 7047     		bx	lr
 554              	.LVL53:
 555              	.L72:
 556              		.loc 1 240 0
 557 0014 0020     		movs	r0, #0
 558              	.LVL54:
 559              		.loc 1 243 0
 560 0016 7047     		bx	lr
 561              	.L74:
 562              		.align	2
 563              	.L73:
 564 0018 00000000 		.word	.LANCHOR0
 565              		.cfi_endproc
 566              	.LFE73:
 567              		.size	SmartMotorGetTemperature, .-SmartMotorGetTemperature
 568              		.section	.text.SmartMotorGetLimitCmd,"ax",%progbits
 569              		.align	2
 570              		.p2align 4,,15
ARM GAS  /var/folders/6q/x_mk5n_j3p7_c40r_2k_78980000gn/T//ccu43oO2.s 			page 11


 571              		.global	SmartMotorGetLimitCmd
 572              		.thumb
 573              		.thumb_func
 574              		.type	SmartMotorGetLimitCmd, %function
 575              	SmartMotorGetLimitCmd:
 576              	.LFB74:
 577              		.loc 1 253 0
 578              		.cfi_startproc
 579              		@ args = 0, pretend = 0, frame = 0
 580              		@ frame_needed = 0, uses_anonymous_args = 0
 581              		@ link register save eliminated.
 582              	.LVL55:
 583              		.loc 1 255 0
 584 0000 C3B2     		uxtb	r3, r0
 585 0002 092B     		cmp	r3, #9
 586 0004 07D8     		bhi	.L77
 587              		.loc 1 258 0
 588 0006 054B     		ldr	r3, .L78
 589 0008 C0EB4010 		rsb	r0, r0, r0, lsl #5
 590              	.LVL56:
 591 000c 03EB8000 		add	r0, r3, r0, lsl #2
 592 0010 B0F91400 		ldrsh	r0, [r0, #20]
 593 0014 7047     		bx	lr
 594              	.LVL57:
 595              	.L77:
 596              		.loc 1 256 0
 597 0016 0020     		movs	r0, #0
 598              	.LVL58:
 599              		.loc 1 259 0
 600 0018 7047     		bx	lr
 601              	.L79:
 602 001a 00BF     		.align	2
 603              	.L78:
 604 001c 00000000 		.word	.LANCHOR0
 605              		.cfi_endproc
 606              	.LFE74:
 607              		.size	SmartMotorGetLimitCmd, .-SmartMotorGetLimitCmd
 608              		.section	.text._SmartMotorSetLimitCurent,"ax",%progbits
 609              		.align	2
 610              		.p2align 4,,15
 611              		.global	_SmartMotorSetLimitCurent
 612              		.thumb
 613              		.thumb_func
 614              		.type	_SmartMotorSetLimitCurent, %function
 615              	_SmartMotorSetLimitCurent:
 616              	.LFB75:
 617              		.loc 1 273 0
 618              		.cfi_startproc
 619              		@ args = 4, pretend = 12, frame = 0
 620              		@ frame_needed = 0, uses_anonymous_args = 1
 621              		@ link register save eliminated.
 622              	.LVL59:
 623 0000 0EB4     		push	{r1, r2, r3}
 624              		.cfi_def_cfa_offset 12
 625              		.cfi_offset 1, -12
 626              		.cfi_offset 2, -8
 627              		.cfi_offset 3, -4
ARM GAS  /var/folders/6q/x_mk5n_j3p7_c40r_2k_78980000gn/T//ccu43oO2.s 			page 12


 628              		.loc 1 275 0
 629 0002 C3B2     		uxtb	r3, r0
 630 0004 092B     		cmp	r3, #9
 631 0006 06D8     		bhi	.L80
 632              		.loc 1 278 0
 633 0008 044B     		ldr	r3, .L83
 634 000a C0EB4010 		rsb	r0, r0, r0, lsl #5
 635              	.LVL60:
 636 000e 03EB8000 		add	r0, r3, r0, lsl #2
 637 0012 009B     		ldr	r3, [sp]	@ float
 638 0014 8361     		str	r3, [r0, #24]	@ float
 639              	.L80:
 640              		.loc 1 279 0
 641 0016 03B0     		add	sp, sp, #12
 642              		.cfi_restore 3
 643              		.cfi_restore 2
 644              		.cfi_restore 1
 645              		.cfi_def_cfa_offset 0
 646 0018 7047     		bx	lr
 647              	.L84:
 648 001a 00BF     		.align	2
 649              	.L83:
 650 001c 00000000 		.word	.LANCHOR0
 651              		.cfi_endproc
 652              	.LFE75:
 653              		.size	_SmartMotorSetLimitCurent, .-_SmartMotorSetLimitCurent
 654              		.global	__aeabi_fdiv
 655              		.global	__aeabi_fsub
 656              		.global	__aeabi_f2d
 657              		.global	__aeabi_dmul
 658              		.global	__aeabi_ddiv
 659              		.global	__aeabi_d2f
 660              		.global	__aeabi_fmul
 661              		.section	.text.SmartMotorSetFreeRpm,"ax",%progbits
 662              		.align	2
 663              		.p2align 4,,15
 664              		.global	SmartMotorSetFreeRpm
 665              		.thumb
 666              		.thumb_func
 667              		.type	SmartMotorSetFreeRpm, %function
 668              	SmartMotorSetFreeRpm:
 669              	.LFB76:
 670              		.loc 1 289 0
 671              		.cfi_startproc
 672              		@ args = 0, pretend = 0, frame = 0
 673              		@ frame_needed = 0, uses_anonymous_args = 0
 674              	.LVL61:
 675 0000 F8B5     		push	{r3, r4, r5, r6, r7, lr}
 676              		.cfi_def_cfa_offset 24
 677              		.cfi_offset 3, -24
 678              		.cfi_offset 4, -20
 679              		.cfi_offset 5, -16
 680              		.cfi_offset 6, -12
 681              		.cfi_offset 7, -8
 682              		.cfi_offset 14, -4
 683              		.loc 1 291 0
 684 0002 C3B2     		uxtb	r3, r0
ARM GAS  /var/folders/6q/x_mk5n_j3p7_c40r_2k_78980000gn/T//ccu43oO2.s 			page 13


 685 0004 092B     		cmp	r3, #9
 686 0006 2ED8     		bhi	.L85
 687 0008 0446     		mov	r4, r0
 688              	.LVL62:
 689              		.loc 1 297 0
 690 000a 0846     		mov	r0, r1
 691              	.LVL63:
 692 000c FFF7FEFF 		bl	__aeabi_i2f
 693              	.LVL64:
 694 0010 0546     		mov	r5, r0
 695 0012 174B     		ldr	r3, .L88+8
 696 0014 C4EB4410 		rsb	r0, r4, r4, lsl #5
 697 0018 03EB8004 		add	r4, r3, r0, lsl #2
 698              	.LVL65:
 699              		.loc 1 300 0
 700 001c A16B     		ldr	r1, [r4, #56]	@ float
 701 001e 606B     		ldr	r0, [r4, #52]	@ float
 702              		.loc 1 297 0
 703 0020 A564     		str	r5, [r4, #72]	@ float
 704              		.loc 1 300 0
 705 0022 FFF7FEFF 		bl	__aeabi_fdiv
 706              	.LVL66:
 707 0026 0146     		mov	r1, r0
 708 0028 4FF07E50 		mov	r0, #1065353216
 709 002c FFF7FEFF 		bl	__aeabi_fsub
 710              	.LVL67:
 711 0030 FFF7FEFF 		bl	__aeabi_f2d
 712              	.LVL68:
 713 0034 0CA3     		adr	r3, .L88
 714 0036 D3E90023 		ldrd	r2, [r3]
 715 003a FFF7FEFF 		bl	__aeabi_dmul
 716              	.LVL69:
 717 003e 0646     		mov	r6, r0
 718 0040 2846     		mov	r0, r5
 719 0042 0F46     		mov	r7, r1
 720 0044 FFF7FEFF 		bl	__aeabi_f2d
 721              	.LVL70:
 722 0048 0246     		mov	r2, r0
 723 004a 0B46     		mov	r3, r1
 724 004c 3046     		mov	r0, r6
 725 004e 3946     		mov	r1, r7
 726 0050 FFF7FEFF 		bl	__aeabi_ddiv
 727              	.LVL71:
 728 0054 FFF7FEFF 		bl	__aeabi_d2f
 729              	.LVL72:
 730 0058 0346     		mov	r3, r0
 731              		.loc 1 303 0
 732 005a 2846     		mov	r0, r5
 733 005c 1946     		mov	r1, r3
 734              		.loc 1 300 0
 735 005e 6364     		str	r3, [r4, #68]	@ float
 736              		.loc 1 303 0
 737 0060 FFF7FEFF 		bl	__aeabi_fmul
 738              	.LVL73:
 739 0064 E064     		str	r0, [r4, #76]	@ float
 740              	.L85:
 741 0066 F8BD     		pop	{r3, r4, r5, r6, r7, pc}
ARM GAS  /var/folders/6q/x_mk5n_j3p7_c40r_2k_78980000gn/T//ccu43oO2.s 			page 14


 742              	.L89:
 743              		.align	3
 744              	.L88:
 745 0068 CDCCCCCC 		.word	3435973837
 746 006c CCCC1C40 		.word	1075629260
 747 0070 00000000 		.word	.LANCHOR0
 748              		.cfi_endproc
 749              	.LFE76:
 750              		.size	SmartMotorSetFreeRpm, .-SmartMotorSetFreeRpm
 751              		.section	.text.SmartMotorSetSlewRate,"ax",%progbits
 752              		.align	2
 753              		.p2align 4,,15
 754              		.global	SmartMotorSetSlewRate
 755              		.thumb
 756              		.thumb_func
 757              		.type	SmartMotorSetSlewRate, %function
 758              	SmartMotorSetSlewRate:
 759              	.LFB77:
 760              		.loc 1 315 0
 761              		.cfi_startproc
 762              		@ args = 0, pretend = 0, frame = 0
 763              		@ frame_needed = 0, uses_anonymous_args = 0
 764              		@ link register save eliminated.
 765              	.LVL74:
 766              		.loc 1 317 0
 767 0000 C3B2     		uxtb	r3, r0
 768 0002 092B     		cmp	r3, #9
 769 0004 07D8     		bhi	.L90
 770              		.loc 1 321 0
 771 0006 0029     		cmp	r1, #0
 772 0008 05DD     		ble	.L90
 773              		.loc 1 324 0
 774 000a 034B     		ldr	r3, .L92
 775 000c C0EB4010 		rsb	r0, r0, r0, lsl #5
 776              	.LVL75:
 777 0010 03EB8000 		add	r0, r3, r0, lsl #2
 778 0014 0182     		strh	r1, [r0, #16]	@ movhi
 779              	.L90:
 780 0016 7047     		bx	lr
 781              	.L93:
 782              		.align	2
 783              	.L92:
 784 0018 00000000 		.word	.LANCHOR0
 785              		.cfi_endproc
 786              	.LFE77:
 787              		.size	SmartMotorSetSlewRate, .-SmartMotorSetSlewRate
 788              		.section	.text.SmartMotorGetControllerCurrent,"ax",%progbits
 789              		.align	2
 790              		.p2align 4,,15
 791              		.global	SmartMotorGetControllerCurrent
 792              		.thumb
 793              		.thumb_func
 794              		.type	SmartMotorGetControllerCurrent, %function
 795              	SmartMotorGetControllerCurrent:
 796              	.LFB78:
 797              		.loc 1 335 0
 798              		.cfi_startproc
ARM GAS  /var/folders/6q/x_mk5n_j3p7_c40r_2k_78980000gn/T//ccu43oO2.s 			page 15


 799              		@ args = 0, pretend = 0, frame = 0
 800              		@ frame_needed = 0, uses_anonymous_args = 0
 801              		@ link register save eliminated.
 802              	.LVL76:
 803              		.loc 1 337 0
 804 0000 83B2     		uxth	r3, r0
 805 0002 022B     		cmp	r3, #2
 806 0004 05D8     		bhi	.L96
 807              		.loc 1 340 0
 808 0006 044B     		ldr	r3, .L97
 809 0008 3422     		movs	r2, #52
 810 000a 02FB0030 		mla	r0, r2, r0, r3
 811              	.LVL77:
 812 000e 4069     		ldr	r0, [r0, #20]	@ float
 813 0010 7047     		bx	lr
 814              	.LVL78:
 815              	.L96:
 816              		.loc 1 338 0
 817 0012 0020     		movs	r0, #0
 818              	.LVL79:
 819              		.loc 1 341 0
 820 0014 7047     		bx	lr
 821              	.L98:
 822 0016 00BF     		.align	2
 823              	.L97:
 824 0018 00000000 		.word	.LANCHOR3
 825              		.cfi_endproc
 826              	.LFE78:
 827              		.size	SmartMotorGetControllerCurrent, .-SmartMotorGetControllerCurrent
 828              		.section	.text.SmartMotorGetControllerTemperature,"ax",%progbits
 829              		.align	2
 830              		.p2align 4,,15
 831              		.global	SmartMotorGetControllerTemperature
 832              		.thumb
 833              		.thumb_func
 834              		.type	SmartMotorGetControllerTemperature, %function
 835              	SmartMotorGetControllerTemperature:
 836              	.LFB79:
 837              		.loc 1 350 0
 838              		.cfi_startproc
 839              		@ args = 0, pretend = 0, frame = 0
 840              		@ frame_needed = 0, uses_anonymous_args = 0
 841              		@ link register save eliminated.
 842              	.LVL80:
 843              		.loc 1 352 0
 844 0000 83B2     		uxth	r3, r0
 845 0002 022B     		cmp	r3, #2
 846 0004 05D8     		bhi	.L101
 847              		.loc 1 355 0
 848 0006 044B     		ldr	r3, .L102
 849 0008 3422     		movs	r2, #52
 850 000a 02FB0030 		mla	r0, r2, r0, r3
 851              	.LVL81:
 852 000e 006A     		ldr	r0, [r0, #32]	@ float
 853 0010 7047     		bx	lr
 854              	.LVL82:
 855              	.L101:
ARM GAS  /var/folders/6q/x_mk5n_j3p7_c40r_2k_78980000gn/T//ccu43oO2.s 			page 16


 856              		.loc 1 353 0
 857 0012 0020     		movs	r0, #0
 858              	.LVL83:
 859              		.loc 1 356 0
 860 0014 7047     		bx	lr
 861              	.L103:
 862 0016 00BF     		.align	2
 863              	.L102:
 864 0018 00000000 		.word	.LANCHOR3
 865              		.cfi_endproc
 866              	.LFE79:
 867              		.size	SmartMotorGetControllerTemperature, .-SmartMotorGetControllerTemperature
 868              		.section	.text.SmartMotorSetControllerStatusLed,"ax",%progbits
 869              		.align	2
 870              		.p2align 4,,15
 871              		.global	SmartMotorSetControllerStatusLed
 872              		.thumb
 873              		.thumb_func
 874              		.type	SmartMotorSetControllerStatusLed, %function
 875              	SmartMotorSetControllerStatusLed:
 876              	.LFB80:
 877              		.loc 1 370 0
 878              		.cfi_startproc
 879              		@ args = 0, pretend = 0, frame = 0
 880              		@ frame_needed = 0, uses_anonymous_args = 0
 881              		@ link register save eliminated.
 882              	.LVL84:
 883              		.loc 1 372 0
 884 0000 0228     		cmp	r0, #2
 885 0002 08D8     		bhi	.L104
 886              		.loc 1 375 0
 887 0004 CBB2     		uxtb	r3, r1
 888 0006 0B2B     		cmp	r3, #11
 889 0008 05D8     		bhi	.L104
 890              		.loc 1 378 0
 891 000a 034B     		ldr	r3, .L106
 892 000c 3422     		movs	r2, #52
 893 000e 02FB0030 		mla	r0, r2, r0, r3
 894              	.LVL85:
 895 0012 80F83210 		strb	r1, [r0, #50]
 896              	.L104:
 897 0016 7047     		bx	lr
 898              	.L107:
 899              		.align	2
 900              	.L106:
 901 0018 00000000 		.word	.LANCHOR3
 902              		.cfi_endproc
 903              	.LFE80:
 904              		.size	SmartMotorSetControllerStatusLed, .-SmartMotorSetControllerStatusLed
 905              		.section	.text.SmartMotorSetPowerExpanderStatusPort,"ax",%progbits
 906              		.align	2
 907              		.p2align 4,,15
 908              		.global	SmartMotorSetPowerExpanderStatusPort
 909              		.thumb
 910              		.thumb_func
 911              		.type	SmartMotorSetPowerExpanderStatusPort, %function
 912              	SmartMotorSetPowerExpanderStatusPort:
ARM GAS  /var/folders/6q/x_mk5n_j3p7_c40r_2k_78980000gn/T//ccu43oO2.s 			page 17


 913              	.LFB81:
 914              		.loc 1 392 0
 915              		.cfi_startproc
 916              		@ args = 0, pretend = 0, frame = 0
 917              		@ frame_needed = 0, uses_anonymous_args = 0
 918              		@ link register save eliminated.
 919              	.LVL86:
 920              		.loc 1 393 0
 921 0000 C3B2     		uxtb	r3, r0
 922 0002 072B     		cmp	r3, #7
 923              		.loc 1 396 0
 924 0004 9CBF     		itt	ls
 925 0006 024B     		ldrls	r3, .L110
 926 0008 83F89B00 		strbls	r0, [r3, #155]
 927 000c 7047     		bx	lr
 928              	.L111:
 929 000e 00BF     		.align	2
 930              	.L110:
 931 0010 00000000 		.word	.LANCHOR3
 932              		.cfi_endproc
 933              	.LFE81:
 934              		.size	SmartMotorSetPowerExpanderStatusPort, .-SmartMotorSetPowerExpanderStatusPort
 935              		.section	.text.SmartMotorPtcMonitorEnable,"ax",%progbits
 936              		.align	2
 937              		.p2align 4,,15
 938              		.global	SmartMotorPtcMonitorEnable
 939              		.thumb
 940              		.thumb_func
 941              		.type	SmartMotorPtcMonitorEnable, %function
 942              	SmartMotorPtcMonitorEnable:
 943              	.LFB82:
 944              		.loc 1 405 0
 945              		.cfi_startproc
 946              		@ args = 0, pretend = 0, frame = 0
 947              		@ frame_needed = 0, uses_anonymous_args = 0
 948              		@ link register save eliminated.
 949              		.loc 1 406 0
 950 0000 0349     		ldr	r1, .L113
 951              		.loc 1 407 0
 952 0002 044B     		ldr	r3, .L113+4
 953              		.loc 1 406 0
 954 0004 0020     		movs	r0, #0
 955              		.loc 1 407 0
 956 0006 0122     		movs	r2, #1
 957              		.loc 1 406 0
 958 0008 0880     		strh	r0, [r1]	@ movhi
 959              		.loc 1 407 0
 960 000a 1A80     		strh	r2, [r3]	@ movhi
 961 000c 7047     		bx	lr
 962              	.L114:
 963 000e 00BF     		.align	2
 964              	.L113:
 965 0010 00000000 		.word	.LANCHOR2
 966 0014 00000000 		.word	.LANCHOR1
 967              		.cfi_endproc
 968              	.LFE82:
 969              		.size	SmartMotorPtcMonitorEnable, .-SmartMotorPtcMonitorEnable
ARM GAS  /var/folders/6q/x_mk5n_j3p7_c40r_2k_78980000gn/T//ccu43oO2.s 			page 18


 970              		.section	.text.SmartMotorPtcMonitorDisable,"ax",%progbits
 971              		.align	2
 972              		.p2align 4,,15
 973              		.global	SmartMotorPtcMonitorDisable
 974              		.thumb
 975              		.thumb_func
 976              		.type	SmartMotorPtcMonitorDisable, %function
 977              	SmartMotorPtcMonitorDisable:
 978              	.LFB83:
 979              		.loc 1 416 0
 980              		.cfi_startproc
 981              		@ args = 0, pretend = 0, frame = 0
 982              		@ frame_needed = 0, uses_anonymous_args = 0
 983              		@ link register save eliminated.
 984              		.loc 1 417 0
 985 0000 014B     		ldr	r3, .L116
 986 0002 0022     		movs	r2, #0
 987 0004 1A80     		strh	r2, [r3]	@ movhi
 988 0006 7047     		bx	lr
 989              	.L117:
 990              		.align	2
 991              	.L116:
 992 0008 00000000 		.word	.LANCHOR1
 993              		.cfi_endproc
 994              	.LFE83:
 995              		.size	SmartMotorPtcMonitorDisable, .-SmartMotorPtcMonitorDisable
 996              		.section	.text.SmartMotorCurrentMonitorEnable,"ax",%progbits
 997              		.align	2
 998              		.p2align 4,,15
 999              		.global	SmartMotorCurrentMonitorEnable
 1000              		.thumb
 1001              		.thumb_func
 1002              		.type	SmartMotorCurrentMonitorEnable, %function
 1003              	SmartMotorCurrentMonitorEnable:
 1004              	.LFB84:
 1005              		.loc 1 426 0
 1006              		.cfi_startproc
 1007              		@ args = 0, pretend = 0, frame = 0
 1008              		@ frame_needed = 0, uses_anonymous_args = 0
 1009              		@ link register save eliminated.
 1010              		.loc 1 427 0
 1011 0000 0349     		ldr	r1, .L119
 1012              		.loc 1 428 0
 1013 0002 044B     		ldr	r3, .L119+4
 1014              		.loc 1 427 0
 1015 0004 0020     		movs	r0, #0
 1016              		.loc 1 428 0
 1017 0006 0122     		movs	r2, #1
 1018              		.loc 1 427 0
 1019 0008 0880     		strh	r0, [r1]	@ movhi
 1020              		.loc 1 428 0
 1021 000a 1A80     		strh	r2, [r3]	@ movhi
 1022 000c 7047     		bx	lr
 1023              	.L120:
 1024 000e 00BF     		.align	2
 1025              	.L119:
 1026 0010 00000000 		.word	.LANCHOR1
ARM GAS  /var/folders/6q/x_mk5n_j3p7_c40r_2k_78980000gn/T//ccu43oO2.s 			page 19


 1027 0014 00000000 		.word	.LANCHOR2
 1028              		.cfi_endproc
 1029              	.LFE84:
 1030              		.size	SmartMotorCurrentMonitorEnable, .-SmartMotorCurrentMonitorEnable
 1031              		.section	.text.SmartMotorCurrentMonitorDisable,"ax",%progbits
 1032              		.align	2
 1033              		.p2align 4,,15
 1034              		.global	SmartMotorCurrentMonitorDisable
 1035              		.thumb
 1036              		.thumb_func
 1037              		.type	SmartMotorCurrentMonitorDisable, %function
 1038              	SmartMotorCurrentMonitorDisable:
 1039              	.LFB85:
 1040              		.loc 1 437 0
 1041              		.cfi_startproc
 1042              		@ args = 0, pretend = 0, frame = 0
 1043              		@ frame_needed = 0, uses_anonymous_args = 0
 1044              		@ link register save eliminated.
 1045              		.loc 1 438 0
 1046 0000 014B     		ldr	r3, .L122
 1047 0002 0022     		movs	r2, #0
 1048 0004 1A80     		strh	r2, [r3]	@ movhi
 1049 0006 7047     		bx	lr
 1050              	.L123:
 1051              		.align	2
 1052              	.L122:
 1053 0008 00000000 		.word	.LANCHOR2
 1054              		.cfi_endproc
 1055              	.LFE85:
 1056              		.size	SmartMotorCurrentMonitorDisable, .-SmartMotorCurrentMonitorDisable
 1057              		.section	.text.SmartMotorRun,"ax",%progbits
 1058              		.align	2
 1059              		.p2align 4,,15
 1060              		.global	SmartMotorRun
 1061              		.thumb
 1062              		.thumb_func
 1063              		.type	SmartMotorRun, %function
 1064              	SmartMotorRun:
 1065              	.LFB86:
 1066              		.loc 1 448 0
 1067              		.cfi_startproc
 1068              		@ args = 0, pretend = 0, frame = 0
 1069              		@ frame_needed = 0, uses_anonymous_args = 0
 1070 0000 08B5     		push	{r3, lr}
 1071              		.cfi_def_cfa_offset 8
 1072              		.cfi_offset 3, -8
 1073              		.cfi_offset 14, -4
 1074              		.loc 1 450 0
 1075 0002 4022     		movs	r2, #64
 1076 0004 4521     		movs	r1, #69
 1077 0006 0548     		ldr	r0, .L126
 1078 0008 FFF7FEFF 		bl	StartTaskWithPriority
 1079              	.LVL87:
 1080              		.loc 1 453 0
 1081 000c BDE80840 		pop	{r3, lr}
 1082              		.cfi_restore 14
 1083              		.cfi_restore 3
ARM GAS  /var/folders/6q/x_mk5n_j3p7_c40r_2k_78980000gn/T//ccu43oO2.s 			page 20


 1084              		.cfi_def_cfa_offset 0
 1085              		.loc 1 452 0
 1086 0010 4022     		movs	r2, #64
 1087 0012 4421     		movs	r1, #68
 1088 0014 0248     		ldr	r0, .L126+4
 1089 0016 FFF7FEBF 		b	StartTaskWithPriority
 1090              	.LVL88:
 1091              	.L127:
 1092 001a 00BF     		.align	2
 1093              	.L126:
 1094 001c 00000000 		.word	SmartMotorTask
 1095 0020 00000000 		.word	SmartMotorSlewRateTask
 1096              		.cfi_endproc
 1097              	.LFE86:
 1098              		.size	SmartMotorRun, .-SmartMotorRun
 1099              		.section	.text.SmartMotorStop,"ax",%progbits
 1100              		.align	2
 1101              		.p2align 4,,15
 1102              		.global	SmartMotorStop
 1103              		.thumb
 1104              		.thumb_func
 1105              		.type	SmartMotorStop, %function
 1106              	SmartMotorStop:
 1107              	.LFB87:
 1108              		.loc 1 461 0
 1109              		.cfi_startproc
 1110              		@ args = 0, pretend = 0, frame = 0
 1111              		@ frame_needed = 0, uses_anonymous_args = 0
 1112 0000 08B5     		push	{r3, lr}
 1113              		.cfi_def_cfa_offset 8
 1114              		.cfi_offset 3, -8
 1115              		.cfi_offset 14, -4
 1116              	.LBB66:
 1117              	.LBB67:
 1118              		.loc 1 417 0
 1119 0002 0649     		ldr	r1, .L130
 1120              	.LBE67:
 1121              	.LBE66:
 1122              	.LBB70:
 1123              	.LBB71:
 1124              		.loc 1 438 0
 1125 0004 064A     		ldr	r2, .L130+4
 1126              	.LBE71:
 1127              	.LBE70:
 1128              	.LBB73:
 1129              	.LBB68:
 1130              		.loc 1 417 0
 1131 0006 0023     		movs	r3, #0
 1132              	.LBE68:
 1133              	.LBE73:
 1134              		.loc 1 465 0
 1135 0008 0648     		ldr	r0, .L130+8
 1136              	.LBB74:
 1137              	.LBB69:
 1138              		.loc 1 417 0
 1139 000a 0B80     		strh	r3, [r1]	@ movhi
 1140              	.LBE69:
ARM GAS  /var/folders/6q/x_mk5n_j3p7_c40r_2k_78980000gn/T//ccu43oO2.s 			page 21


 1141              	.LBE74:
 1142              	.LBB75:
 1143              	.LBB72:
 1144              		.loc 1 438 0
 1145 000c 1380     		strh	r3, [r2]	@ movhi
 1146              	.LBE72:
 1147              	.LBE75:
 1148              		.loc 1 465 0
 1149 000e FFF7FEFF 		bl	StopTask
 1150              	.LVL89:
 1151              		.loc 1 467 0
 1152 0012 BDE80840 		pop	{r3, lr}
 1153              		.cfi_restore 14
 1154              		.cfi_restore 3
 1155              		.cfi_def_cfa_offset 0
 1156              		.loc 1 466 0
 1157 0016 0448     		ldr	r0, .L130+12
 1158 0018 FFF7FEBF 		b	StopTask
 1159              	.LVL90:
 1160              	.L131:
 1161              		.align	2
 1162              	.L130:
 1163 001c 00000000 		.word	.LANCHOR1
 1164 0020 00000000 		.word	.LANCHOR2
 1165 0024 00000000 		.word	SmartMotorTask
 1166 0028 00000000 		.word	SmartMotorSlewRateTask
 1167              		.cfi_endproc
 1168              	.LFE87:
 1169              		.size	SmartMotorStop, .-SmartMotorStop
 1170              		.section	.text.SmartMotorDebugStatus,"ax",%progbits
 1171              		.align	2
 1172              		.p2align 4,,15
 1173              		.global	SmartMotorDebugStatus
 1174              		.thumb
 1175              		.thumb_func
 1176              		.type	SmartMotorDebugStatus, %function
 1177              	SmartMotorDebugStatus:
 1178              	.LFB88:
 1179              		.loc 1 475 0
 1180              		.cfi_startproc
 1181              		@ args = 0, pretend = 0, frame = 0
 1182              		@ frame_needed = 0, uses_anonymous_args = 0
 1183              	.LVL91:
 1184 0000 F8B5     		push	{r3, r4, r5, r6, r7, lr}
 1185              		.cfi_def_cfa_offset 24
 1186              		.cfi_offset 3, -24
 1187              		.cfi_offset 4, -20
 1188              		.cfi_offset 5, -16
 1189              		.cfi_offset 6, -12
 1190              		.cfi_offset 7, -8
 1191              		.cfi_offset 14, -4
 1192 0002 2C4E     		ldr	r6, .L146
 1193              		.loc 1 475 0
 1194 0004 0027     		movs	r7, #0
 1195              	.LVL92:
 1196              	.L138:
 1197 0006 3BB2     		sxth	r3, r7
ARM GAS  /var/folders/6q/x_mk5n_j3p7_c40r_2k_78980000gn/T//ccu43oO2.s 			page 22


 1198              		.loc 1 485 0
 1199 0008 002F     		cmp	r7, #0
 1200 000a 4ED0     		beq	.L145
 1201              		.loc 1 487 0
 1202 000c 012B     		cmp	r3, #1
 1203              		.loc 1 488 0
 1204 000e 0CBF     		ite	eq
 1205 0010 2948     		ldreq	r0, .L146+4
 1206              		.loc 1 490 0
 1207 0012 2A48     		ldrne	r0, .L146+8
 1208 0014 FFF7FEFF 		bl	vex_printf
 1209              	.LVL93:
 1210              	.L134:
 1211              		.loc 1 492 0
 1212 0018 7068     		ldr	r0, [r6, #4]	@ float
 1213 001a FFF7FEFF 		bl	__aeabi_f2d
 1214              	.LVL94:
 1215 001e 0246     		mov	r2, r0
 1216 0020 0B46     		mov	r3, r1
 1217 0022 2748     		ldr	r0, .L146+12
 1218 0024 FFF7FEFF 		bl	vex_printf
 1219              	.LVL95:
 1220              		.loc 1 493 0
 1221 0028 3069     		ldr	r0, [r6, #16]	@ float
 1222 002a FFF7FEFF 		bl	__aeabi_f2d
 1223              	.LVL96:
 1224 002e 0246     		mov	r2, r0
 1225 0030 0B46     		mov	r3, r1
 1226 0032 2448     		ldr	r0, .L146+16
 1227 0034 FFF7FEFF 		bl	vex_printf
 1228              	.LVL97:
 1229              		.loc 1 494 0
 1230 0038 B6F92010 		ldrsh	r1, [r6, #32]
 1231 003c 2248     		ldr	r0, .L146+20
 1232 003e FFF7FEFF 		bl	vex_printf
 1233              	.LVL98:
 1234              		.loc 1 495 0
 1235 0042 2248     		ldr	r0, .L146+24
 1236 0044 FFF7FEFF 		bl	vex_printf
 1237              	.LVL99:
 1238 0048 A6F11405 		sub	r5, r6, #20
 1239              	.LVL100:
 1240              	.L137:
 1241              		.loc 1 499 0
 1242 004c 55F8044F 		ldr	r4, [r5, #4]!
 1243              	.LVL101:
 1244              		.loc 1 502 0
 1245 0050 1F48     		ldr	r0, .L146+28
 1246              		.loc 1 499 0
 1247 0052 FCB1     		cbz	r4, .L136
 1248              		.loc 1 502 0
 1249 0054 94F90010 		ldrsb	r1, [r4]
 1250 0058 FFF7FEFF 		bl	vex_printf
 1251              	.LVL102:
 1252              		.loc 1 503 0
 1253 005c 206D     		ldr	r0, [r4, #80]	@ float
 1254 005e FFF7FEFF 		bl	__aeabi_f2d
ARM GAS  /var/folders/6q/x_mk5n_j3p7_c40r_2k_78980000gn/T//ccu43oO2.s 			page 23


 1255              	.LVL103:
 1256 0062 0246     		mov	r2, r0
 1257 0064 0B46     		mov	r3, r1
 1258 0066 1648     		ldr	r0, .L146+12
 1259 0068 FFF7FEFF 		bl	vex_printf
 1260              	.LVL104:
 1261              		.loc 1 504 0
 1262 006c 606E     		ldr	r0, [r4, #100]	@ float
 1263 006e FFF7FEFF 		bl	__aeabi_f2d
 1264              	.LVL105:
 1265 0072 0246     		mov	r2, r0
 1266 0074 0B46     		mov	r3, r1
 1267 0076 1348     		ldr	r0, .L146+16
 1268 0078 FFF7FEFF 		bl	vex_printf
 1269              	.LVL106:
 1270              		.loc 1 505 0
 1271 007c B4F91210 		ldrsh	r1, [r4, #18]
 1272 0080 B4F97430 		ldrsh	r3, [r4, #116]
 1273 0084 1048     		ldr	r0, .L146+20
 1274 0086 03EB4101 		add	r1, r3, r1, lsl #1
 1275 008a FFF7FEFF 		bl	vex_printf
 1276              	.LVL107:
 1277              		.loc 1 506 0
 1278 008e 0F48     		ldr	r0, .L146+24
 1279 0090 FFF7FEFF 		bl	vex_printf
 1280              	.LVL108:
 1281              	.L136:
 1282              		.loc 1 497 0 discriminator 2
 1283 0094 AE42     		cmp	r6, r5
 1284 0096 D9D1     		bne	.L137
 1285 0098 0137     		adds	r7, r7, #1
 1286              	.LVL109:
 1287              		.loc 1 509 0 discriminator 2
 1288 009a 0C48     		ldr	r0, .L146+24
 1289 009c FFF7FEFF 		bl	vex_printf
 1290              	.LVL110:
 1291              		.loc 1 482 0 discriminator 2
 1292 00a0 032F     		cmp	r7, #3
 1293 00a2 06F13406 		add	r6, r6, #52
 1294 00a6 AED1     		bne	.L138
 1295              		.loc 1 511 0
 1296 00a8 F8BD     		pop	{r3, r4, r5, r6, r7, pc}
 1297              	.LVL111:
 1298              	.L145:
 1299              		.loc 1 486 0
 1300 00aa 0A48     		ldr	r0, .L146+32
 1301 00ac FFF7FEFF 		bl	vex_printf
 1302              	.LVL112:
 1303 00b0 B2E7     		b	.L134
 1304              	.L147:
 1305 00b2 00BF     		.align	2
 1306              	.L146:
 1307 00b4 10000000 		.word	.LANCHOR3+16
 1308 00b8 24000000 		.word	.LC2
 1309 00bc 3C000000 		.word	.LC3
 1310 00c0 54000000 		.word	.LC4
 1311 00c4 64000000 		.word	.LC5
ARM GAS  /var/folders/6q/x_mk5n_j3p7_c40r_2k_78980000gn/T//ccu43oO2.s 			page 24


 1312 00c8 70000000 		.word	.LC6
 1313 00cc 7C000000 		.word	.LC7
 1314 00d0 80000000 		.word	.LC8
 1315 00d4 0C000000 		.word	.LC1
 1316              		.cfi_endproc
 1317              	.LFE88:
 1318              		.size	SmartMotorDebugStatus, .-SmartMotorDebugStatus
 1319              		.section	.text._SetMotor,"ax",%progbits
 1320              		.align	2
 1321              		.p2align 4,,15
 1322              		.global	_SetMotor
 1323              		.thumb
 1324              		.thumb_func
 1325              		.type	_SetMotor, %function
 1326              	_SetMotor:
 1327              	.LFB89:
 1328              		.loc 1 532 0
 1329              		.cfi_startproc
 1330              		@ args = 4, pretend = 8, frame = 0
 1331              		@ frame_needed = 0, uses_anonymous_args = 1
 1332              	.LVL113:
 1333 0000 0CB4     		push	{r2, r3}
 1334              		.cfi_def_cfa_offset 8
 1335              		.cfi_offset 2, -8
 1336              		.cfi_offset 3, -4
 1337 0002 38B5     		push	{r3, r4, r5, lr}
 1338              		.cfi_def_cfa_offset 24
 1339              		.cfi_offset 3, -24
 1340              		.cfi_offset 4, -20
 1341              		.cfi_offset 5, -16
 1342              		.cfi_offset 14, -12
 1343              		.loc 1 536 0
 1344 0004 0928     		cmp	r0, #9
 1345              		.loc 1 532 0
 1346 0006 9DF81030 		ldrb	r3, [sp, #16]	@ zero_extendqisi2
 1347              		.loc 1 536 0
 1348 000a 0DD8     		bhi	.L148
 1349              	.LVL114:
 1350              		.loc 1 543 0
 1351 000c 7F29     		cmp	r1, #127
 1352 000e 0FDD     		ble	.L151
 1353              		.loc 1 544 0
 1354 0010 154A     		ldr	r2, .L160
 1355 0012 C0EB4014 		rsb	r4, r0, r0, lsl #5
 1356 0016 02EB8402 		add	r2, r2, r4, lsl #2
 1357 001a 7F24     		movs	r4, #127
 1358 001c 9481     		strh	r4, [r2, #12]	@ movhi
 1359              	.L152:
 1360              		.loc 1 555 0
 1361 001e 1BB1     		cbz	r3, .L148
 1362              		.loc 1 556 0
 1363 0020 09B2     		sxth	r1, r1
 1364              	.LVL115:
 1365 0022 00B2     		sxth	r0, r0
 1366              	.LVL116:
 1367 0024 FFF7FEFF 		bl	vexMotorSet
 1368              	.LVL117:
ARM GAS  /var/folders/6q/x_mk5n_j3p7_c40r_2k_78980000gn/T//ccu43oO2.s 			page 25


 1369              	.L148:
 1370              		.loc 1 557 0
 1371 0028 BDE83840 		pop	{r3, r4, r5, lr}
 1372              		.cfi_remember_state
 1373              		.cfi_restore 14
 1374              		.cfi_restore 5
 1375              		.cfi_restore 4
 1376              		.cfi_restore 3
 1377              		.cfi_def_cfa_offset 8
 1378 002c 02B0     		add	sp, sp, #8
 1379              		.cfi_restore 3
 1380              		.cfi_restore 2
 1381              		.cfi_def_cfa_offset 0
 1382 002e 7047     		bx	lr
 1383              	.LVL118:
 1384              	.L151:
 1385              		.cfi_restore_state
 1386              		.loc 1 546 0
 1387 0030 11F17F0F 		cmn	r1, #127
 1388 0034 08DA     		bge	.L153
 1389              		.loc 1 547 0
 1390 0036 4FF68174 		movw	r4, #65409
 1391 003a 0B4A     		ldr	r2, .L160
 1392 003c C0EB4015 		rsb	r5, r0, r0, lsl #5
 1393 0040 02EB8502 		add	r2, r2, r5, lsl #2
 1394 0044 9481     		strh	r4, [r2, #12]	@ movhi
 1395 0046 EAE7     		b	.L152
 1396              	.L153:
 1397              		.loc 1 549 0
 1398 0048 81EAE172 		eor	r2, r1, r1, asr #31
 1399 004c A2EBE172 		sub	r2, r2, r1, asr #31
 1400 0050 092A     		cmp	r2, #9
 1401              		.loc 1 550 0
 1402 0052 054A     		ldr	r2, .L160
 1403 0054 C0EB4014 		rsb	r4, r0, r0, lsl #5
 1404 0058 02EB8402 		add	r2, r2, r4, lsl #2
 1405              		.loc 1 552 0
 1406 005c D6BF     		itet	le
 1407 005e 0024     		movle	r4, #0
 1408              		.loc 1 550 0
 1409 0060 9181     		strhgt	r1, [r2, #12]	@ movhi
 1410              		.loc 1 552 0
 1411 0062 9481     		strhle	r4, [r2, #12]	@ movhi
 1412 0064 DBE7     		b	.L152
 1413              	.L161:
 1414 0066 00BF     		.align	2
 1415              	.L160:
 1416 0068 00000000 		.word	.LANCHOR0
 1417              		.cfi_endproc
 1418              	.LFE89:
 1419              		.size	_SetMotor, .-_SetMotor
 1420              		.section	.text.SmartMotorsInit,"ax",%progbits
 1421              		.align	2
 1422              		.p2align 4,,15
 1423              		.global	SmartMotorsInit
 1424              		.thumb
 1425              		.thumb_func
ARM GAS  /var/folders/6q/x_mk5n_j3p7_c40r_2k_78980000gn/T//ccu43oO2.s 			page 26


 1426              		.type	SmartMotorsInit, %function
 1427              	SmartMotorsInit:
 1428              	.LFB90:
 1429              		.loc 1 573 0
 1430              		.cfi_startproc
 1431              		@ args = 0, pretend = 0, frame = 0
 1432              		@ frame_needed = 0, uses_anonymous_args = 0
 1433              	.LVL119:
 1434 0000 2DE9F84F 		push	{r3, r4, r5, r6, r7, r8, r9, r10, fp, lr}
 1435              		.cfi_def_cfa_offset 40
 1436              		.cfi_offset 3, -40
 1437              		.cfi_offset 4, -36
 1438              		.cfi_offset 5, -32
 1439              		.cfi_offset 6, -28
 1440              		.cfi_offset 7, -24
 1441              		.cfi_offset 8, -20
 1442              		.cfi_offset 9, -16
 1443              		.cfi_offset 10, -12
 1444              		.cfi_offset 11, -8
 1445              		.cfi_offset 14, -4
 1446 0004 9C4C     		ldr	r4, .L186
 1447              		.loc 1 583 0
 1448 0006 DFF8D882 		ldr	r8, .L186+104
 1449              		.loc 1 573 0
 1450 000a 2746     		mov	r7, r4
 1451 000c 2346     		mov	r3, r4
 1452              		.loc 1 584 0
 1453 000e DFF8D4C2 		ldr	ip, .L186+108
 1454              		.loc 1 585 0
 1455 0012 9A4D     		ldr	r5, .L186+4
 1456              		.loc 1 589 0
 1457 0014 DFF8D0E2 		ldr	lr, .L186+112
 1458              		.loc 1 587 0
 1459 0018 0020     		movs	r0, #0
 1460 001a 04F19C06 		add	r6, r4, #156
 1461              		.loc 1 581 0
 1462 001e 0022     		movs	r2, #0
 1463              		.loc 1 590 0
 1464 0020 FF21     		movs	r1, #255
 1465              	.LVL120:
 1466              	.L163:
 1467              		.loc 1 581 0
 1468 0022 1A60     		str	r2, [r3]
 1469              	.LVL121:
 1470 0024 5A60     		str	r2, [r3, #4]
 1471              	.LVL122:
 1472 0026 9A60     		str	r2, [r3, #8]
 1473              	.LVL123:
 1474 0028 DA60     		str	r2, [r3, #12]
 1475              	.LVL124:
 1476 002a 1A61     		str	r2, [r3, #16]
 1477              	.LVL125:
 1478              		.loc 1 583 0
 1479 002c C3F82480 		str	r8, [r3, #36]	@ float
 1480              		.loc 1 584 0
 1481 0030 C3F828C0 		str	ip, [r3, #40]	@ float
 1482              		.loc 1 585 0
ARM GAS  /var/folders/6q/x_mk5n_j3p7_c40r_2k_78980000gn/T//ccu43oO2.s 			page 27


 1483 0034 DD62     		str	r5, [r3, #44]	@ float
 1484              		.loc 1 586 0
 1485 0036 1D62     		str	r5, [r3, #32]	@ float
 1486              		.loc 1 587 0
 1487 0038 5861     		str	r0, [r3, #20]	@ float
 1488              		.loc 1 588 0
 1489 003a 9861     		str	r0, [r3, #24]	@ float
 1490              		.loc 1 589 0
 1491 003c C3F81CE0 		str	lr, [r3, #28]	@ float
 1492              		.loc 1 590 0
 1493 0040 83F83210 		strb	r1, [r3, #50]
 1494              		.loc 1 591 0
 1495 0044 83F83310 		strb	r1, [r3, #51]
 1496 0048 3433     		adds	r3, r3, #52
 1497              		.loc 1 578 0
 1498 004a B342     		cmp	r3, r6
 1499 004c E9D1     		bne	.L163
 1500              		.loc 1 597 0
 1501 004e 0020     		movs	r0, #0
 1502 0050 FFF7FEFF 		bl	vexMotorEncoderIdGet
 1503              	.LVL126:
 1504 0054 8A4D     		ldr	r5, .L186+8
 1505              		.loc 1 670 0
 1506 0056 DFF894B2 		ldr	fp, .L186+116
 1507              		.loc 1 597 0
 1508 005a A883     		strh	r0, [r5, #28]	@ movhi
 1509              		.loc 1 598 0
 1510 005c 0120     		movs	r0, #1
 1511 005e FFF7FEFF 		bl	vexMotorEncoderIdGet
 1512              	.LVL127:
 1513 0062 A5F89800 		strh	r0, [r5, #152]	@ movhi
 1514              		.loc 1 599 0
 1515 0066 0220     		movs	r0, #2
 1516 0068 FFF7FEFF 		bl	vexMotorEncoderIdGet
 1517              	.LVL128:
 1518 006c A5F81401 		strh	r0, [r5, #276]	@ movhi
 1519              		.loc 1 600 0
 1520 0070 0320     		movs	r0, #3
 1521 0072 FFF7FEFF 		bl	vexMotorEncoderIdGet
 1522              	.LVL129:
 1523 0076 A5F89001 		strh	r0, [r5, #400]	@ movhi
 1524              		.loc 1 601 0
 1525 007a 0420     		movs	r0, #4
 1526 007c FFF7FEFF 		bl	vexMotorEncoderIdGet
 1527              	.LVL130:
 1528 0080 A5F80C02 		strh	r0, [r5, #524]	@ movhi
 1529              		.loc 1 602 0
 1530 0084 0520     		movs	r0, #5
 1531 0086 FFF7FEFF 		bl	vexMotorEncoderIdGet
 1532              	.LVL131:
 1533 008a A5F88802 		strh	r0, [r5, #648]	@ movhi
 1534              		.loc 1 603 0
 1535 008e 0620     		movs	r0, #6
 1536 0090 FFF7FEFF 		bl	vexMotorEncoderIdGet
 1537              	.LVL132:
 1538 0094 A5F80403 		strh	r0, [r5, #772]	@ movhi
 1539              		.loc 1 604 0
ARM GAS  /var/folders/6q/x_mk5n_j3p7_c40r_2k_78980000gn/T//ccu43oO2.s 			page 28


 1540 0098 0720     		movs	r0, #7
 1541 009a FFF7FEFF 		bl	vexMotorEncoderIdGet
 1542              	.LVL133:
 1543 009e A5F88003 		strh	r0, [r5, #896]	@ movhi
 1544              		.loc 1 605 0
 1545 00a2 0820     		movs	r0, #8
 1546 00a4 FFF7FEFF 		bl	vexMotorEncoderIdGet
 1547              	.LVL134:
 1548 00a8 A5F8FC03 		strh	r0, [r5, #1020]	@ movhi
 1549              		.loc 1 606 0
 1550 00ac 0920     		movs	r0, #9
 1551 00ae FFF7FEFF 		bl	vexMotorEncoderIdGet
 1552              	.LVL135:
 1553              		.loc 1 671 0
 1554 00b2 DFF83CA2 		ldr	r10, .L186+120
 1555              		.loc 1 672 0
 1556 00b6 DFF83C92 		ldr	r9, .L186+124
 1557              		.loc 1 673 0
 1558 00ba 724E     		ldr	r6, .L186+12
 1559 00bc A846     		mov	r8, r5
 1560              		.loc 1 606 0
 1561 00be A5F87804 		strh	r0, [r5, #1144]	@ movhi
 1562              	.LVL136:
 1563              		.loc 1 608 0
 1564 00c2 0025     		movs	r5, #0
 1565              	.LVL137:
 1566              	.L179:
 1567              		.loc 1 611 0
 1568 00c4 6AB2     		sxtb	r2, r5
 1569 00c6 88F80020 		strb	r2, [r8]
 1570              		.loc 1 612 0
 1571 00ca 88F80120 		strb	r2, [r8, #1]
 1572              		.loc 1 613 0
 1573 00ce 28B2     		sxth	r0, r5
 1574 00d0 FFF7FEFF 		bl	vexMotorTypeGet
 1575              	.LVL138:
 1576              		.loc 1 615 0
 1577 00d4 421E     		subs	r2, r0, #1
 1578              		.loc 1 613 0
 1579 00d6 88F80200 		strb	r0, [r8, #2]
 1580              		.loc 1 615 0
 1581 00da 032A     		cmp	r2, #3
 1582 00dc 00F2C780 		bhi	.L164
 1583 00e0 DFE802F0 		tbb	[pc, r2]
 1584              	.L166:
 1585 00e4 93       		.byte	(.L165-.L166)/2
 1586 00e5 81       		.byte	(.L167-.L166)/2
 1587 00e6 6F       		.byte	(.L168-.L166)/2
 1588 00e7 02       		.byte	(.L169-.L166)/2
 1589              		.p2align 1
 1590              	.L169:
 1591              		.loc 1 654 0
 1592 00e8 6749     		ldr	r1, .L186+16
 1593              		.loc 1 653 0
 1594 00ea 684A     		ldr	r2, .L186+20
 1595              		.loc 1 654 0
 1596 00ec C8F83810 		str	r1, [r8, #56]	@ float
ARM GAS  /var/folders/6q/x_mk5n_j3p7_c40r_2k_78980000gn/T//ccu43oO2.s 			page 29


 1597              		.loc 1 657 0
 1598 00f0 6749     		ldr	r1, .L186+24
 1599              		.loc 1 653 0
 1600 00f2 C8F83420 		str	r2, [r8, #52]	@ float
 1601              		.loc 1 655 0
 1602 00f6 4FF07F52 		mov	r2, #1069547520
 1603 00fa C8F83C20 		str	r2, [r8, #60]	@ float
 1604              		.loc 1 657 0
 1605 00fe C8F84410 		str	r1, [r8, #68]	@ float
 1606              		.loc 1 658 0
 1607 0102 644A     		ldr	r2, .L186+28
 1608              		.loc 1 660 0
 1609 0104 6449     		ldr	r1, .L186+32
 1610              		.loc 1 656 0
 1611 0106 C8F84060 		str	r6, [r8, #64]	@ float
 1612              	.L183:
 1613              		.loc 1 641 0
 1614 010a C8F84820 		str	r2, [r8, #72]	@ float
 1615              		.loc 1 645 0
 1616 010e 634A     		ldr	r2, .L186+36
 1617              		.loc 1 643 0
 1618 0110 C8F82010 		str	r1, [r8, #32]	@ float
 1619              		.loc 1 645 0
 1620 0114 C8F85C20 		str	r2, [r8, #92]	@ float
 1621              		.loc 1 647 0
 1622 0118 6149     		ldr	r1, .L186+40
 1623              		.loc 1 648 0
 1624 011a 624A     		ldr	r2, .L186+44
 1625              		.loc 1 647 0
 1626 011c C8F86810 		str	r1, [r8, #104]	@ float
 1627              		.loc 1 648 0
 1628 0120 C8F86C20 		str	r2, [r8, #108]	@ float
 1629              	.L170:
 1630              		.loc 1 693 0
 1631 0124 B8F91C20 		ldrsh	r2, [r8, #28]
 1632 0128 002A     		cmp	r2, #0
 1633 012a C0F28E80 		blt	.L185
 1634              	.L171:
 1635              		.loc 1 701 0
 1636 012e 132A     		cmp	r2, #19
 1637              		.loc 1 703 0
 1638 0130 DDBF     		ittte	le
 1639 0132 5D4A     		ldrle	r2, .L186+48
 1640              		.loc 1 704 0
 1641 0134 98F90100 		ldrsble	r0, [r8, #1]
 1642              		.loc 1 703 0
 1643 0138 C8F82020 		strle	r2, [r8, #32]	@ float
 1644              		.loc 1 709 0
 1645 013c 98F90100 		ldrsbgt	r0, [r8, #1]
 1646 0140 FFF7FEFF 		bl	vexMotorPositionGet
 1647              	.LVL139:
 1648 0144 C8F82400 		str	r0, [r8, #36]
 1649              		.loc 1 710 0
 1650 0148 98F90100 		ldrsb	r0, [r8, #1]
 1651 014c FFF7FEFF 		bl	vexMotorPositionGet
 1652              	.LVL140:
 1653 0150 C8F82800 		str	r0, [r8, #40]
ARM GAS  /var/folders/6q/x_mk5n_j3p7_c40r_2k_78980000gn/T//ccu43oO2.s 			page 30


 1654              	.L172:
 1655              		.loc 1 714 0
 1656 0154 DFF824E1 		ldr	lr, .L186+4
 1657              		.loc 1 718 0
 1658 0158 D8F85C10 		ldr	r1, [r8, #92]	@ float
 1659              		.loc 1 726 0
 1660 015c 0022     		movs	r2, #0
 1661              		.loc 1 723 0
 1662 015e 0020     		movs	r0, #0
 1663              		.loc 1 714 0
 1664 0160 C8F870E0 		str	lr, [r8, #112]	@ float
 1665              		.loc 1 715 0
 1666 0164 C8F864E0 		str	lr, [r8, #100]	@ float
 1667              		.loc 1 728 0
 1668 0168 4FF0FF0E 		mov	lr, #255
 1669              		.loc 1 718 0
 1670 016c C8F86010 		str	r1, [r8, #96]	@ float
 1671              		.loc 1 720 0
 1672 0170 C8F81810 		str	r1, [r8, #24]	@ float
 1673              		.loc 1 723 0
 1674 0174 C8F85800 		str	r0, [r8, #88]	@ float
 1675              		.loc 1 726 0
 1676 0178 A8F81220 		strh	r2, [r8, #18]	@ movhi
 1677              		.loc 1 727 0
 1678 017c A8F87420 		strh	r2, [r8, #116]	@ movhi
 1679              		.loc 1 731 0
 1680 0180 D8F84810 		ldr	r1, [r8, #72]	@ float
 1681 0184 D8F84400 		ldr	r0, [r8, #68]	@ float
 1682              		.loc 1 728 0
 1683 0188 A8F814E0 		strh	lr, [r8, #20]	@ movhi
 1684              		.loc 1 731 0
 1685 018c FFF7FEFF 		bl	__aeabi_fmul
 1686              	.LVL141:
 1687              		.loc 1 734 0
 1688 0190 98F80220 		ldrb	r2, [r8, #2]	@ zero_extendqisi2
 1689              		.loc 1 731 0
 1690 0194 C8F84C00 		str	r0, [r8, #76]	@ float
 1691              		.loc 1 734 0
 1692 0198 002A     		cmp	r2, #0
 1693 019a 5FD0     		beq	.L174
 1694              		.loc 1 736 0
 1695 019c 042D     		cmp	r5, #4
 1696 019e 63DC     		bgt	.L175
 1697              		.loc 1 737 0
 1698 01a0 C4F80080 		str	r8, [r4]
 1699              	.L176:
 1700              		.loc 1 744 0
 1701 01a4 C8F80870 		str	r7, [r8, #8]
 1702              	.L178:
 1703              		.loc 1 608 0 discriminator 2
 1704 01a8 0135     		adds	r5, r5, #1
 1705              	.LVL142:
 1706              		.loc 1 749 0 discriminator 2
 1707 01aa 4FF0FF32 		mov	r2, #-1
 1708              		.loc 1 608 0 discriminator 2
 1709 01ae 0A2D     		cmp	r5, #10
 1710              		.loc 1 749 0 discriminator 2
ARM GAS  /var/folders/6q/x_mk5n_j3p7_c40r_2k_78980000gn/T//ccu43oO2.s 			page 31


 1711 01b0 C8F87820 		str	r2, [r8, #120]
 1712 01b4 04F10404 		add	r4, r4, #4
 1713 01b8 08F17C08 		add	r8, r8, #124
 1714              		.loc 1 608 0 discriminator 2
 1715 01bc 82D1     		bne	.L179
 1716              		.loc 1 751 0
 1717 01be BDE8F88F 		pop	{r3, r4, r5, r6, r7, r8, r9, r10, fp, pc}
 1718              	.LVL143:
 1719              	.L168:
 1720              		.loc 1 637 0
 1721 01c2 3149     		ldr	r1, .L186+16
 1722              		.loc 1 636 0
 1723 01c4 314A     		ldr	r2, .L186+20
 1724              		.loc 1 637 0
 1725 01c6 C8F83810 		str	r1, [r8, #56]	@ float
 1726              		.loc 1 640 0
 1727 01ca 3849     		ldr	r1, .L186+52
 1728              		.loc 1 636 0
 1729 01cc C8F83420 		str	r2, [r8, #52]	@ float
 1730              		.loc 1 638 0
 1731 01d0 4FF07F52 		mov	r2, #1069547520
 1732 01d4 C8F83C20 		str	r2, [r8, #60]	@ float
 1733              		.loc 1 640 0
 1734 01d8 C8F84410 		str	r1, [r8, #68]	@ float
 1735              		.loc 1 639 0
 1736 01dc C8F84060 		str	r6, [r8, #64]	@ float
 1737              		.loc 1 641 0
 1738 01e0 334A     		ldr	r2, .L186+56
 1739              		.loc 1 643 0
 1740 01e2 3449     		ldr	r1, .L186+60
 1741 01e4 91E7     		b	.L183
 1742              	.L167:
 1743              		.loc 1 620 0
 1744 01e6 2849     		ldr	r1, .L186+16
 1745              		.loc 1 619 0
 1746 01e8 284A     		ldr	r2, .L186+20
 1747              		.loc 1 620 0
 1748 01ea C8F83810 		str	r1, [r8, #56]	@ float
 1749              		.loc 1 623 0
 1750 01ee 3249     		ldr	r1, .L186+64
 1751              		.loc 1 619 0
 1752 01f0 C8F83420 		str	r2, [r8, #52]	@ float
 1753              		.loc 1 621 0
 1754 01f4 4FF07F52 		mov	r2, #1069547520
 1755 01f8 C8F83C20 		str	r2, [r8, #60]	@ float
 1756              		.loc 1 623 0
 1757 01fc C8F84410 		str	r1, [r8, #68]	@ float
 1758              		.loc 1 622 0
 1759 0200 C8F84060 		str	r6, [r8, #64]	@ float
 1760              		.loc 1 624 0
 1761 0204 2D4A     		ldr	r2, .L186+68
 1762              		.loc 1 626 0
 1763 0206 2E49     		ldr	r1, .L186+72
 1764 0208 7FE7     		b	.L183
 1765              	.L165:
 1766              		.loc 1 679 0
 1767 020a 4FF07D52 		mov	r2, #1061158912
ARM GAS  /var/folders/6q/x_mk5n_j3p7_c40r_2k_78980000gn/T//ccu43oO2.s 			page 32


 1768 020e C8F85C20 		str	r2, [r8, #92]	@ float
 1769              		.loc 1 682 0
 1770 0212 2C4A     		ldr	r2, .L186+76
 1771              		.loc 1 677 0
 1772 0214 2C49     		ldr	r1, .L186+80
 1773              		.loc 1 674 0
 1774 0216 2D4B     		ldr	r3, .L186+84
 1775              		.loc 1 682 0
 1776 0218 C8F86C20 		str	r2, [r8, #108]	@ float
 1777              		.loc 1 693 0
 1778 021c B8F91C20 		ldrsh	r2, [r8, #28]
 1779              		.loc 1 674 0
 1780 0220 C8F84430 		str	r3, [r8, #68]	@ float
 1781              		.loc 1 677 0
 1782 0224 C8F82010 		str	r1, [r8, #32]	@ float
 1783              		.loc 1 675 0
 1784 0228 294B     		ldr	r3, .L186+88
 1785              		.loc 1 681 0
 1786 022a 2A49     		ldr	r1, .L186+92
 1787              		.loc 1 693 0
 1788 022c 002A     		cmp	r2, #0
 1789              		.loc 1 670 0
 1790 022e C8F834B0 		str	fp, [r8, #52]	@ float
 1791              		.loc 1 671 0
 1792 0232 C8F838A0 		str	r10, [r8, #56]	@ float
 1793              		.loc 1 672 0
 1794 0236 C8F83C90 		str	r9, [r8, #60]	@ float
 1795              		.loc 1 673 0
 1796 023a C8F84060 		str	r6, [r8, #64]	@ float
 1797              		.loc 1 675 0
 1798 023e C8F84830 		str	r3, [r8, #72]	@ float
 1799              		.loc 1 681 0
 1800 0242 C8F86810 		str	r1, [r8, #104]	@ float
 1801              		.loc 1 693 0
 1802 0246 BFF672AF 		bge	.L171
 1803              	.L185:
 1804              		.loc 1 696 0
 1805 024a 2349     		ldr	r1, .L186+96
 1806              		.loc 1 697 0
 1807 024c 0022     		movs	r2, #0
 1808              		.loc 1 696 0
 1809 024e C8F82010 		str	r1, [r8, #32]	@ float
 1810              		.loc 1 697 0
 1811 0252 C8F82420 		str	r2, [r8, #36]
 1812              		.loc 1 698 0
 1813 0256 C8F82820 		str	r2, [r8, #40]
 1814 025a 7BE7     		b	.L172
 1815              	.L174:
 1816              		.loc 1 743 0
 1817 025c 042D     		cmp	r5, #4
 1818 025e A1DD     		ble	.L176
 1819              	.L177:
 1820              		.loc 1 746 0
 1821 0260 1E4A     		ldr	r2, .L186+100
 1822 0262 C8F80820 		str	r2, [r8, #8]
 1823 0266 9FE7     		b	.L178
 1824              	.L175:
ARM GAS  /var/folders/6q/x_mk5n_j3p7_c40r_2k_78980000gn/T//ccu43oO2.s 			page 33


 1825              		.loc 1 739 0
 1826 0268 C4F82080 		str	r8, [r4, #32]
 1827 026c F8E7     		b	.L177
 1828              	.L164:
 1829              		.loc 1 688 0
 1830 026e 0022     		movs	r2, #0
 1831 0270 88F80220 		strb	r2, [r8, #2]
 1832              		.loc 1 689 0
 1833 0274 56E7     		b	.L170
 1834              	.L187:
 1835 0276 00BF     		.align	2
 1836              	.L186:
 1837 0278 00000000 		.word	.LANCHOR3
 1838 027c 1CC7B141 		.word	1102169884
 1839 0280 00000000 		.word	.LANCHOR0
 1840 0284 C3642A3A 		.word	975856835
 1841 0288 9A999940 		.word	1083808154
 1842 028c CDCC4C3E 		.word	1045220557
 1843 0290 ED1BD63C 		.word	1020664813
 1844 0294 00008443 		.word	1132724224
 1845 0298 A0AA8243 		.word	1132636832
 1846 029c 6666663F 		.word	1063675494
 1847 02a0 00009642 		.word	1117126656
 1848 02a4 FF093D37 		.word	926747135
 1849 02a8 0000B443 		.word	1135869952
 1850 02ac F294203D 		.word	1025545458
 1851 02b0 00003043 		.word	1127219200
 1852 02b4 0000C443 		.word	1136918528
 1853 02b8 2877803D 		.word	1031829288
 1854 02bc 0000DC42 		.word	1121714176
 1855 02c0 CDCC1C44 		.word	1142738125
 1856 02c4 ACC52738 		.word	942130604
 1857 02c8 B0727043 		.word	1131442864
 1858 02cc 6666663D 		.word	1030121062
 1859 02d0 0000F042 		.word	1123024896
 1860 02d4 55550543 		.word	1124422997
 1861 02d8 000080BF 		.word	-1082130432
 1862 02dc 34000000 		.word	.LANCHOR3+52
 1863 02e0 55550541 		.word	1090868565
 1864 02e4 07614538 		.word	944070919
 1865 02e8 00004040 		.word	1077936128
 1866 02ec EC51383E 		.word	1043878380
 1867 02f0 EC513840 		.word	1077432812
 1868 02f4 00002040 		.word	1075838976
 1869              		.cfi_endproc
 1870              	.LFE90:
 1871              		.size	SmartMotorsInit, .-SmartMotorsInit
 1872              		.section	.text.SmartMotorLinkMotors,"ax",%progbits
 1873              		.align	2
 1874              		.p2align 4,,15
 1875              		.global	SmartMotorLinkMotors
 1876              		.thumb
 1877              		.thumb_func
 1878              		.type	SmartMotorLinkMotors, %function
 1879              	SmartMotorLinkMotors:
 1880              	.LFB91:
 1881              		.loc 1 764 0
ARM GAS  /var/folders/6q/x_mk5n_j3p7_c40r_2k_78980000gn/T//ccu43oO2.s 			page 34


 1882              		.cfi_startproc
 1883              		@ args = 0, pretend = 0, frame = 0
 1884              		@ frame_needed = 0, uses_anonymous_args = 0
 1885              		@ link register save eliminated.
 1886              	.LVL144:
 1887              		.loc 1 766 0
 1888 0000 C3B2     		uxtb	r3, r0
 1889 0002 092B     		cmp	r3, #9
 1890 0004 1AD8     		bhi	.L195
 1891              		.loc 1 770 0
 1892 0006 CBB2     		uxtb	r3, r1
 1893 0008 092B     		cmp	r3, #9
 1894 000a 17D8     		bhi	.L195
 1895              	.LVL145:
 1896              		.loc 1 778 0
 1897 000c C0EB4010 		rsb	r0, r0, r0, lsl #5
 1898              	.LVL146:
 1899 0010 0B4B     		ldr	r3, .L196
 1900 0012 8000     		lsls	r0, r0, #2
 1901 0014 1A18     		adds	r2, r3, r0
 1902              		.loc 1 764 0
 1903 0016 70B4     		push	{r4, r5, r6}
 1904              		.cfi_def_cfa_offset 12
 1905              		.cfi_offset 4, -12
 1906              		.cfi_offset 5, -8
 1907              		.cfi_offset 6, -4
 1908              		.loc 1 778 0
 1909 0018 B2F91C40 		ldrsh	r4, [r2, #28]
 1910 001c 651C     		adds	r5, r4, #1
 1911 001e 0CD0     		beq	.L188
 1912              		.loc 1 782 0
 1913 0020 1E5C     		ldrb	r6, [r3, r0]	@ zero_extendqisi2
 1914              		.loc 1 785 0
 1915 0022 156A     		ldr	r5, [r2, #32]	@ float
 1916              		.loc 1 787 0
 1917 0024 506A     		ldr	r0, [r2, #36]
 1918              		.loc 1 782 0
 1919 0026 C1EB4111 		rsb	r1, r1, r1, lsl #5
 1920              	.LVL147:
 1921              		.loc 1 788 0
 1922 002a 926A     		ldr	r2, [r2, #40]
 1923              		.loc 1 782 0
 1924 002c 03EB8101 		add	r1, r3, r1, lsl #2
 1925              		.loc 1 786 0
 1926 0030 8C83     		strh	r4, [r1, #28]	@ movhi
 1927              		.loc 1 782 0
 1928 0032 4E70     		strb	r6, [r1, #1]
 1929              		.loc 1 785 0
 1930 0034 0D62     		str	r5, [r1, #32]	@ float
 1931              		.loc 1 787 0
 1932 0036 4862     		str	r0, [r1, #36]
 1933              		.loc 1 788 0
 1934 0038 8A62     		str	r2, [r1, #40]
 1935              	.L188:
 1936              		.loc 1 789 0
 1937 003a 70BC     		pop	{r4, r5, r6}
 1938              		.cfi_restore 6
ARM GAS  /var/folders/6q/x_mk5n_j3p7_c40r_2k_78980000gn/T//ccu43oO2.s 			page 35


 1939              		.cfi_restore 5
 1940              		.cfi_restore 4
 1941              		.cfi_def_cfa_offset 0
 1942              	.L195:
 1943 003c 7047     		bx	lr
 1944              	.L197:
 1945 003e 00BF     		.align	2
 1946              	.L196:
 1947 0040 00000000 		.word	.LANCHOR0
 1948              		.cfi_endproc
 1949              	.LFE91:
 1950              		.size	SmartMotorLinkMotors, .-SmartMotorLinkMotors
 1951              		.section	.text.SmartMotorsSetEncoderGearing,"ax",%progbits
 1952              		.align	2
 1953              		.p2align 4,,15
 1954              		.global	SmartMotorsSetEncoderGearing
 1955              		.thumb
 1956              		.thumb_func
 1957              		.type	SmartMotorsSetEncoderGearing, %function
 1958              	SmartMotorsSetEncoderGearing:
 1959              	.LFB92:
 1960              		.loc 1 805 0
 1961              		.cfi_startproc
 1962              		@ args = 0, pretend = 0, frame = 0
 1963              		@ frame_needed = 0, uses_anonymous_args = 0
 1964              	.LVL148:
 1965              		.loc 1 807 0
 1966 0000 C3B2     		uxtb	r3, r0
 1967 0002 092B     		cmp	r3, #9
 1968 0004 0DD8     		bhi	.L201
 1969              	.LVL149:
 1970              		.loc 1 805 0
 1971 0006 10B5     		push	{r4, lr}
 1972              		.cfi_def_cfa_offset 8
 1973              		.cfi_offset 4, -8
 1974              		.cfi_offset 14, -4
 1975              		.loc 1 813 0
 1976 0008 064C     		ldr	r4, .L202
 1977 000a C0EB4010 		rsb	r0, r0, r0, lsl #5
 1978              	.LVL150:
 1979 000e 04EB8004 		add	r4, r4, r0, lsl #2
 1980 0012 A38B     		ldrh	r3, [r4, #28]
 1981              	.LVL151:
 1982 0014 132B     		cmp	r3, #19
 1983 0016 03D8     		bhi	.L198
 1984              		.loc 1 814 0
 1985 0018 206A     		ldr	r0, [r4, #32]	@ float
 1986 001a FFF7FEFF 		bl	__aeabi_fmul
 1987              	.LVL152:
 1988 001e 2062     		str	r0, [r4, #32]	@ float
 1989              	.L198:
 1990 0020 10BD     		pop	{r4, pc}
 1991              	.LVL153:
 1992              	.L201:
 1993              		.cfi_def_cfa_offset 0
 1994              		.cfi_restore 4
 1995              		.cfi_restore 14
ARM GAS  /var/folders/6q/x_mk5n_j3p7_c40r_2k_78980000gn/T//ccu43oO2.s 			page 36


 1996 0022 7047     		bx	lr
 1997              	.L203:
 1998              		.align	2
 1999              	.L202:
 2000 0024 00000000 		.word	.LANCHOR0
 2001              		.cfi_endproc
 2002              	.LFE92:
 2003              		.size	SmartMotorsSetEncoderGearing, .-SmartMotorsSetEncoderGearing
 2004              		.section	.text._SmartMotorsAddPowerExtender,"ax",%progbits
 2005              		.align	2
 2006              		.p2align 4,,15
 2007              		.global	_SmartMotorsAddPowerExtender
 2008              		.thumb
 2009              		.thumb_func
 2010              		.type	_SmartMotorsAddPowerExtender, %function
 2011              	_SmartMotorsAddPowerExtender:
 2012              	.LFB93:
 2013              		.loc 1 845 0
 2014              		.cfi_startproc
 2015              		@ args = 4, pretend = 4, frame = 0
 2016              		@ frame_needed = 0, uses_anonymous_args = 1
 2017              	.LVL154:
 2018 0000 08B4     		push	{r3}
 2019              		.cfi_def_cfa_offset 4
 2020              		.cfi_offset 3, -4
 2021 0002 2DE9F043 		push	{r4, r5, r6, r7, r8, r9, lr}
 2022              		.cfi_def_cfa_offset 32
 2023              		.cfi_offset 4, -32
 2024              		.cfi_offset 5, -28
 2025              		.cfi_offset 6, -24
 2026              		.cfi_offset 7, -20
 2027              		.cfi_offset 8, -16
 2028              		.cfi_offset 9, -12
 2029              		.cfi_offset 14, -8
 2030 0006 DFF868E0 		ldr	lr, .L214+4
 2031              		.loc 1 847 0
 2032 000a 0027     		movs	r7, #0
 2033 000c 7546     		mov	r5, lr
 2034              		.loc 1 850 0
 2035 000e 3B46     		mov	r3, r7
 2036              		.loc 1 870 0
 2037 0010 B846     		mov	r8, r7
 2038              		.loc 1 845 0
 2039 0012 DDF81CC0 		ldr	ip, [sp, #28]
 2040 0016 154C     		ldr	r4, .L214
 2041              		.loc 1 863 0
 2042 0018 0EF16809 		add	r9, lr, #104
 2043              	.LVL155:
 2044              	.L208:
 2045              		.loc 1 856 0
 2046 001c A678     		ldrb	r6, [r4, #2]	@ zero_extendqisi2
 2047 001e 5EB1     		cbz	r6, .L205
 2048              		.loc 1 856 0 is_stmt 0 discriminator 1
 2049 0020 2678     		ldrb	r6, [r4]	@ zero_extendqisi2
 2050 0022 013E     		subs	r6, r6, #1
 2051 0024 072E     		cmp	r6, #7
 2052 0026 07D8     		bhi	.L205
ARM GAS  /var/folders/6q/x_mk5n_j3p7_c40r_2k_78980000gn/T//ccu43oO2.s 			page 37


 2053              		.loc 1 859 0 is_stmt 1
 2054 0028 9842     		cmp	r0, r3
 2055 002a 10D0     		beq	.L206
 2056              		.loc 1 859 0 is_stmt 0 discriminator 1
 2057 002c 9942     		cmp	r1, r3
 2058 002e 0ED0     		beq	.L206
 2059              		.loc 1 859 0 discriminator 2
 2060 0030 9A42     		cmp	r2, r3
 2061 0032 0CD0     		beq	.L206
 2062              		.loc 1 859 0 discriminator 3
 2063 0034 9C45     		cmp	ip, r3
 2064 0036 0AD0     		beq	.L206
 2065              	.L205:
 2066              		.loc 1 850 0 is_stmt 1 discriminator 2
 2067 0038 0133     		adds	r3, r3, #1
 2068              	.LVL156:
 2069 003a 0A2B     		cmp	r3, #10
 2070 003c 04F17C04 		add	r4, r4, #124
 2071 0040 05F10405 		add	r5, r5, #4
 2072 0044 EAD1     		bne	.L208
 2073              		.loc 1 874 0
 2074 0046 BDE8F043 		pop	{r4, r5, r6, r7, r8, r9, lr}
 2075              		.cfi_remember_state
 2076              		.cfi_restore 14
 2077              		.cfi_restore 9
 2078              		.cfi_restore 8
 2079              		.cfi_restore 7
 2080              		.cfi_restore 6
 2081              		.cfi_restore 5
 2082              		.cfi_restore 4
 2083              		.cfi_def_cfa_offset 4
 2084              	.LVL157:
 2085 004a 01B0     		add	sp, sp, #4
 2086              		.cfi_restore 3
 2087              		.cfi_def_cfa_offset 0
 2088 004c 7047     		bx	lr
 2089              	.LVL158:
 2090              	.L206:
 2091              		.cfi_restore_state
 2092              		.loc 1 862 0
 2093 004e 07F11A06 		add	r6, r7, #26
 2094              		.loc 1 867 0
 2095 0052 042B     		cmp	r3, #4
 2096              		.loc 1 862 0
 2097 0054 4EF82640 		str	r4, [lr, r6, lsl #2]
 2098              		.loc 1 863 0
 2099 0058 C4F80890 		str	r9, [r4, #8]
 2100              		.loc 1 864 0
 2101 005c 07F10107 		add	r7, r7, #1
 2102              	.LVL159:
 2103              		.loc 1 868 0
 2104 0060 D4BF     		ite	le
 2105 0062 C5F80080 		strle	r8, [r5]
 2106              		.loc 1 870 0
 2107 0066 C5F82080 		strgt	r8, [r5, #32]
 2108 006a E5E7     		b	.L205
 2109              	.L215:
ARM GAS  /var/folders/6q/x_mk5n_j3p7_c40r_2k_78980000gn/T//ccu43oO2.s 			page 38


 2110              		.align	2
 2111              	.L214:
 2112 006c 00000000 		.word	.LANCHOR0
 2113 0070 00000000 		.word	.LANCHOR3
 2114              		.cfi_endproc
 2115              	.LFE93:
 2116              		.size	_SmartMotorsAddPowerExtender, .-_SmartMotorsAddPowerExtender
 2117              		.section	.text._SmartMotorSetRpmSensor,"ax",%progbits
 2118              		.align	2
 2119              		.p2align 4,,15
 2120              		.global	_SmartMotorSetRpmSensor
 2121              		.thumb
 2122              		.thumb_func
 2123              		.type	_SmartMotorSetRpmSensor, %function
 2124              	_SmartMotorSetRpmSensor:
 2125              	.LFB94:
 2126              		.loc 1 905 0
 2127              		.cfi_startproc
 2128              		@ args = 4, pretend = 4, frame = 0
 2129              		@ frame_needed = 0, uses_anonymous_args = 1
 2130              		@ link register save eliminated.
 2131              	.LVL160:
 2132 0000 08B4     		push	{r3}
 2133              		.cfi_def_cfa_offset 4
 2134              		.cfi_offset 3, -4
 2135 0002 10B4     		push	{r4}
 2136              		.cfi_def_cfa_offset 8
 2137              		.cfi_offset 4, -8
 2138              		.loc 1 907 0
 2139 0004 C3B2     		uxtb	r3, r0
 2140 0006 092B     		cmp	r3, #9
 2141              		.loc 1 905 0
 2142 0008 9DF80440 		ldrb	r4, [sp, #4]	@ zero_extendqisi2
 2143              		.loc 1 907 0
 2144 000c 0ED8     		bhi	.L216
 2145              	.LVL161:
 2146              		.loc 1 915 0
 2147 000e CBB2     		uxtb	r3, r1
 2148 0010 072B     		cmp	r3, #7
 2149 0012 0BD8     		bhi	.L216
 2150              		.loc 1 917 0
 2151 0014 074B     		ldr	r3, .L223
 2152 0016 C0EB4010 		rsb	r0, r0, r0, lsl #5
 2153              	.LVL162:
 2154 001a 01F50061 		add	r1, r1, #2048
 2155              	.LVL163:
 2156 001e 03EB8000 		add	r0, r3, r0, lsl #2
 2157 0022 8183     		strh	r1, [r0, #28]	@ movhi
 2158              		.loc 1 920 0
 2159 0024 0CB1     		cbz	r4, .L222
 2160              		.loc 1 921 0
 2161 0026 02F10042 		add	r2, r2, #-2147483648
 2162              	.LVL164:
 2163              	.L222:
 2164 002a 0262     		str	r2, [r0, #32]	@ float
 2165              	.LVL165:
 2166              	.L216:
ARM GAS  /var/folders/6q/x_mk5n_j3p7_c40r_2k_78980000gn/T//ccu43oO2.s 			page 39


 2167              		.loc 1 923 0
 2168 002c 10BC     		pop	{r4}
 2169              		.cfi_restore 4
 2170              		.cfi_def_cfa_offset 4
 2171 002e 01B0     		add	sp, sp, #4
 2172              		.cfi_restore 3
 2173              		.cfi_def_cfa_offset 0
 2174 0030 7047     		bx	lr
 2175              	.L224:
 2176 0032 00BF     		.align	2
 2177              	.L223:
 2178 0034 00000000 		.word	.LANCHOR0
 2179              		.cfi_endproc
 2180              	.LFE94:
 2181              		.size	_SmartMotorSetRpmSensor, .-_SmartMotorSetRpmSensor
 2182              		.global	__aeabi_i2d
 2183              		.section	.text.SmartMotorSpeed,"ax",%progbits
 2184              		.align	2
 2185              		.p2align 4,,15
 2186              		.global	SmartMotorSpeed
 2187              		.thumb
 2188              		.thumb_func
 2189              		.type	SmartMotorSpeed, %function
 2190              	SmartMotorSpeed:
 2191              	.LFB95:
 2192              		.loc 1 947 0
 2193              		.cfi_startproc
 2194              		@ args = 0, pretend = 0, frame = 0
 2195              		@ frame_needed = 0, uses_anonymous_args = 0
 2196              	.LVL166:
 2197 0000 2DE9F843 		push	{r3, r4, r5, r6, r7, r8, r9, lr}
 2198              		.cfi_def_cfa_offset 32
 2199              		.cfi_offset 3, -32
 2200              		.cfi_offset 4, -28
 2201              		.cfi_offset 5, -24
 2202              		.cfi_offset 6, -20
 2203              		.cfi_offset 7, -16
 2204              		.cfi_offset 8, -12
 2205              		.cfi_offset 9, -8
 2206              		.cfi_offset 14, -4
 2207              		.loc 1 947 0
 2208 0004 0446     		mov	r4, r0
 2209              		.loc 1 958 0
 2210 0006 90F90100 		ldrsb	r0, [r0, #1]
 2211              	.LVL167:
 2212              		.loc 1 947 0
 2213 000a 0F46     		mov	r7, r1
 2214              		.loc 1 958 0
 2215 000c FFF7FEFF 		bl	vexMotorPositionGet
 2216              	.LVL168:
 2217 0010 0546     		mov	r5, r0
 2218              		.loc 1 962 0
 2219 0012 A06A     		ldr	r0, [r4, #40]
 2220              		.loc 1 958 0
 2221 0014 6562     		str	r5, [r4, #36]
 2222              		.loc 1 962 0
 2223 0016 281A     		subs	r0, r5, r0
ARM GAS  /var/folders/6q/x_mk5n_j3p7_c40r_2k_78980000gn/T//ccu43oO2.s 			page 40


 2224 0018 FFF7FEFF 		bl	__aeabi_i2f
 2225              	.LVL169:
 2226              		.loc 1 963 0
 2227 001c A562     		str	r5, [r4, #40]
 2228              		.loc 1 962 0
 2229 001e 0646     		mov	r6, r0
 2230 0020 E062     		str	r0, [r4, #44]	@ float
 2231              		.loc 1 966 0
 2232 0022 3846     		mov	r0, r7
 2233 0024 FFF7FEFF 		bl	__aeabi_i2d
 2234              	.LVL170:
 2235 0028 0246     		mov	r2, r0
 2236 002a 0B46     		mov	r3, r1
 2237 002c 0020     		movs	r0, #0
 2238 002e 1149     		ldr	r1, .L227
 2239 0030 FFF7FEFF 		bl	__aeabi_ddiv
 2240              	.LVL171:
 2241 0034 8046     		mov	r8, r0
 2242 0036 3046     		mov	r0, r6
 2243 0038 8946     		mov	r9, r1
 2244 003a FFF7FEFF 		bl	__aeabi_f2d
 2245              	.LVL172:
 2246 003e 0246     		mov	r2, r0
 2247 0040 0B46     		mov	r3, r1
 2248 0042 4046     		mov	r0, r8
 2249 0044 4946     		mov	r1, r9
 2250 0046 FFF7FEFF 		bl	__aeabi_dmul
 2251              	.LVL173:
 2252 004a 0022     		movs	r2, #0
 2253 004c 0A4B     		ldr	r3, .L227+4
 2254 004e FFF7FEFF 		bl	__aeabi_dmul
 2255              	.LVL174:
 2256 0052 0646     		mov	r6, r0
 2257 0054 206A     		ldr	r0, [r4, #32]	@ float
 2258 0056 0F46     		mov	r7, r1
 2259              	.LVL175:
 2260 0058 FFF7FEFF 		bl	__aeabi_f2d
 2261              	.LVL176:
 2262 005c 0246     		mov	r2, r0
 2263 005e 0B46     		mov	r3, r1
 2264 0060 3046     		mov	r0, r6
 2265 0062 3946     		mov	r1, r7
 2266 0064 FFF7FEFF 		bl	__aeabi_ddiv
 2267              	.LVL177:
 2268 0068 FFF7FEFF 		bl	__aeabi_d2f
 2269              	.LVL178:
 2270 006c 2063     		str	r0, [r4, #48]	@ float
 2271 006e BDE8F883 		pop	{r3, r4, r5, r6, r7, r8, r9, pc}
 2272              	.LVL179:
 2273              	.L228:
 2274 0072 00BF     		.align	2
 2275              	.L227:
 2276 0074 00408F40 		.word	1083129856
 2277 0078 00004E40 		.word	1078853632
 2278              		.cfi_endproc
 2279              	.LFE95:
 2280              		.size	SmartMotorSpeed, .-SmartMotorSpeed
ARM GAS  /var/folders/6q/x_mk5n_j3p7_c40r_2k_78980000gn/T//ccu43oO2.s 			page 41


 2281              		.global	__aeabi_fadd
 2282              		.section	.text.SmartMotorSimulateSpeed,"ax",%progbits
 2283              		.align	2
 2284              		.p2align 4,,15
 2285              		.global	SmartMotorSimulateSpeed
 2286              		.thumb
 2287              		.thumb_func
 2288              		.type	SmartMotorSimulateSpeed, %function
 2289              	SmartMotorSimulateSpeed:
 2290              	.LFB96:
 2291              		.loc 1 981 0
 2292              		.cfi_startproc
 2293              		@ args = 0, pretend = 0, frame = 0
 2294              		@ frame_needed = 0, uses_anonymous_args = 0
 2295              	.LVL180:
 2296 0000 2DE9F843 		push	{r3, r4, r5, r6, r7, r8, r9, lr}
 2297              		.cfi_def_cfa_offset 32
 2298              		.cfi_offset 3, -32
 2299              		.cfi_offset 4, -28
 2300              		.cfi_offset 5, -24
 2301              		.cfi_offset 6, -20
 2302              		.cfi_offset 7, -16
 2303              		.cfi_offset 8, -12
 2304              		.cfi_offset 9, -8
 2305              		.cfi_offset 14, -4
 2306              		.loc 1 981 0
 2307 0004 0446     		mov	r4, r0
 2308              		.loc 1 989 0
 2309 0006 90F90000 		ldrsb	r0, [r0]
 2310              	.LVL181:
 2311 000a FFF7FEFF 		bl	vexMotorGet
 2312              	.LVL182:
 2313              		.loc 1 991 0
 2314 000e 80EAE077 		eor	r7, r0, r0, asr #31
 2315 0012 A7EBE077 		sub	r7, r7, r0, asr #31
 2316              		.loc 1 989 0
 2317 0016 0646     		mov	r6, r0
 2318              	.LVL183:
 2319              		.loc 1 998 0
 2320 0018 A06C     		ldr	r0, [r4, #72]	@ float
 2321              	.LVL184:
 2322 001a FFF7FEFF 		bl	__aeabi_f2d
 2323              	.LVL185:
 2324 001e 0022     		movs	r2, #0
 2325 0020 274B     		ldr	r3, .L235+8
 2326 0022 FFF7FEFF 		bl	__aeabi_ddiv
 2327              	.LVL186:
 2328 0026 24A3     		adr	r3, .L235
 2329 0028 D3E90023 		ldrd	r2, [r3]
 2330 002c FFF7FEFF 		bl	__aeabi_dmul
 2331              	.LVL187:
 2332 0030 FFF7FEFF 		bl	__aeabi_d2f
 2333              	.LVL188:
 2334              		.loc 1 991 0
 2335 0034 3D11     		asrs	r5, r7, #4
 2336              	.LVL189:
 2337              		.loc 1 998 0
ARM GAS  /var/folders/6q/x_mk5n_j3p7_c40r_2k_78980000gn/T//ccu43oO2.s 			page 42


 2338 0036 8046     		mov	r8, r0
 2339              	.LVL190:
 2340              		.loc 1 999 0
 2341 0038 A7EB0510 		sub	r0, r7, r5, lsl #4
 2342              	.LVL191:
 2343 003c FFF7FEFF 		bl	__aeabi_i2d
 2344              	.LVL192:
 2345 0040 0022     		movs	r2, #0
 2346 0042 204B     		ldr	r3, .L235+12
 2347 0044 FFF7FEFF 		bl	__aeabi_dmul
 2348              	.LVL193:
 2349 0048 FFF7FEFF 		bl	__aeabi_d2f
 2350              	.LVL194:
 2351 004c 1E4F     		ldr	r7, .L235+16
 2352              	.LVL195:
 2353 004e 6B1C     		adds	r3, r5, #1
 2354 0050 8146     		mov	r9, r0
 2355 0052 37F91550 		ldrsh	r5, [r7, r5, lsl #1]
 2356              	.LVL196:
 2357 0056 37F91300 		ldrsh	r0, [r7, r3, lsl #1]
 2358 005a 401B     		subs	r0, r0, r5
 2359 005c FFF7FEFF 		bl	__aeabi_i2f
 2360              	.LVL197:
 2361 0060 0146     		mov	r1, r0
 2362 0062 4846     		mov	r0, r9
 2363 0064 FFF7FEFF 		bl	__aeabi_fmul
 2364              	.LVL198:
 2365 0068 0746     		mov	r7, r0
 2366 006a 2846     		mov	r0, r5
 2367 006c FFF7FEFF 		bl	__aeabi_i2f
 2368              	.LVL199:
 2369 0070 0146     		mov	r1, r0
 2370 0072 3846     		mov	r0, r7
 2371 0074 FFF7FEFF 		bl	__aeabi_fadd
 2372              	.LVL200:
 2373 0078 0546     		mov	r5, r0
 2374              	.LVL201:
 2375              		.loc 1 1001 0
 2376 007a 3046     		mov	r0, r6
 2377              	.LVL202:
 2378 007c FFF7FEFF 		bl	__aeabi_i2f
 2379              	.LVL203:
 2380              	.LBB76:
 2381              	.LBB77:
 2382              		.loc 1 142 0
 2383 0080 0021     		movs	r1, #0
 2384              	.LBE77:
 2385              	.LBE76:
 2386              		.loc 1 1001 0
 2387 0082 0646     		mov	r6, r0
 2388              	.LVL204:
 2389              	.LBB80:
 2390              	.LBB78:
 2391              		.loc 1 142 0
 2392 0084 FFF7FEFF 		bl	__aeabi_fcmpeq
 2393              	.LVL205:
 2394 0088 90B9     		cbnz	r0, .L231
ARM GAS  /var/folders/6q/x_mk5n_j3p7_c40r_2k_78980000gn/T//ccu43oO2.s 			page 43


 2395              		.loc 1 143 0
 2396 008a 3046     		mov	r0, r6
 2397 008c 0021     		movs	r1, #0
 2398 008e FFF7FEFF 		bl	__aeabi_fcmpgt
 2399              	.LVL206:
 2400 0092 58B1     		cbz	r0, .L234
 2401 0094 4FF07E56 		mov	r6, #1065353216
 2402              	.LVL207:
 2403              	.L230:
 2404              	.LBE78:
 2405              	.LBE80:
 2406              		.loc 1 1001 0
 2407 0098 2946     		mov	r1, r5
 2408 009a 4046     		mov	r0, r8
 2409 009c FFF7FEFF 		bl	__aeabi_fmul
 2410              	.LVL208:
 2411 00a0 3146     		mov	r1, r6
 2412 00a2 FFF7FEFF 		bl	__aeabi_fmul
 2413              	.LVL209:
 2414 00a6 2063     		str	r0, [r4, #48]	@ float
 2415 00a8 BDE8F883 		pop	{r3, r4, r5, r6, r7, r8, r9, pc}
 2416              	.LVL210:
 2417              	.L234:
 2418              	.LBB81:
 2419              	.LBB79:
 2420              		.loc 1 143 0
 2421 00ac 074E     		ldr	r6, .L235+20
 2422              	.LVL211:
 2423 00ae F3E7     		b	.L230
 2424              	.LVL212:
 2425              	.L231:
 2426              		.loc 1 142 0
 2427 00b0 0026     		movs	r6, #0
 2428              	.LVL213:
 2429 00b2 F1E7     		b	.L230
 2430              	.L236:
 2431 00b4 AFF30080 		.align	3
 2432              	.L235:
 2433 00b8 CDCCCCCC 		.word	3435973837
 2434 00bc CCCCEC3F 		.word	1072483532
 2435 00c0 00005940 		.word	1079574528
 2436 00c4 0000B03F 		.word	1068498944
 2437 00c8 00000000 		.word	.LANCHOR4
 2438 00cc 000080BF 		.word	-1082130432
 2439              	.LBE79:
 2440              	.LBE81:
 2441              		.cfi_endproc
 2442              	.LFE96:
 2443              		.size	SmartMotorSimulateSpeed, .-SmartMotorSimulateSpeed
 2444              		.global	__aeabi_fcmplt
 2445              		.global	__aeabi_f2iz
 2446              		.global	__aeabi_f2uiz
 2447              		.global	__aeabi_dadd
 2448              		.global	__aeabi_ui2f
 2449              		.section	.text.SmartMotorCurrent,"ax",%progbits
 2450              		.align	2
 2451              		.p2align 4,,15
ARM GAS  /var/folders/6q/x_mk5n_j3p7_c40r_2k_78980000gn/T//ccu43oO2.s 			page 44


 2452              		.global	SmartMotorCurrent
 2453              		.thumb
 2454              		.thumb_func
 2455              		.type	SmartMotorCurrent, %function
 2456              	SmartMotorCurrent:
 2457              	.LFB98:
 2458              		.loc 1 1052 0
 2459              		.cfi_startproc
 2460              		@ args = 0, pretend = 0, frame = 32
 2461              		@ frame_needed = 0, uses_anonymous_args = 0
 2462              	.LVL214:
 2463 0000 2DE9F04F 		push	{r4, r5, r6, r7, r8, r9, r10, fp, lr}
 2464              		.cfi_def_cfa_offset 36
 2465              		.cfi_offset 4, -36
 2466              		.cfi_offset 5, -32
 2467              		.cfi_offset 6, -28
 2468              		.cfi_offset 7, -24
 2469              		.cfi_offset 8, -20
 2470              		.cfi_offset 9, -16
 2471              		.cfi_offset 10, -12
 2472              		.cfi_offset 11, -8
 2473              		.cfi_offset 14, -4
 2474 0004 0446     		mov	r4, r0
 2475 0006 89B0     		sub	sp, sp, #36
 2476              		.cfi_def_cfa_offset 72
 2477              		.loc 1 1065 0
 2478 0008 90F90000 		ldrsb	r0, [r0]
 2479              	.LVL215:
 2480              		.loc 1 1052 0
 2481 000c 0691     		str	r1, [sp, #24]	@ float
 2482              		.loc 1 1065 0
 2483 000e FFF7FEFF 		bl	vexMotorGet
 2484              	.LVL216:
 2485              		.loc 1 1069 0
 2486 0012 2378     		ldrb	r3, [r4]	@ zero_extendqisi2
 2487              		.loc 1 1065 0
 2488 0014 0546     		mov	r5, r0
 2489              	.LVL217:
 2490              		.loc 1 1069 0
 2491 0016 013B     		subs	r3, r3, #1
 2492 0018 072B     		cmp	r3, #7
 2493 001a 07D8     		bhi	.L238
 2494              		.loc 1 1070 0
 2495 001c B04A     		ldr	r2, .L295+16
 2496 001e C301     		lsls	r3, r0, #7
 2497 0020 82FB0325 		smull	r2, r5, r2, r3
 2498 0024 DA17     		asrs	r2, r3, #31
 2499 0026 1D44     		add	r5, r5, r3
 2500 0028 C2EBA515 		rsb	r5, r2, r5, asr #6
 2501              	.LVL218:
 2502              	.L238:
 2503              		.loc 1 1073 0
 2504 002c 85EAE576 		eor	r6, r5, r5, asr #31
 2505 0030 A6EBE576 		sub	r6, r6, r5, asr #31
 2506 0034 7F2E     		cmp	r6, #127
 2507 0036 00F39981 		bgt	.L239
 2508 003a 3046     		mov	r0, r6
ARM GAS  /var/folders/6q/x_mk5n_j3p7_c40r_2k_78980000gn/T//ccu43oO2.s 			page 45


 2509 003c FFF7FEFF 		bl	__aeabi_i2d
 2510              	.LVL219:
 2511 0040 A3A3     		adr	r3, .L295
 2512 0042 D3E90023 		ldrd	r2, [r3]
 2513 0046 FFF7FEFF 		bl	__aeabi_ddiv
 2514              	.LVL220:
 2515 004a FFF7FEFF 		bl	__aeabi_d2f
 2516              	.LVL221:
 2517 004e 0146     		mov	r1, r0
 2518 0050 8346     		mov	fp, r0
 2519 0052 4FF07E50 		mov	r0, #1065353216
 2520 0056 FFF7FEFF 		bl	__aeabi_fsub
 2521              	.LVL222:
 2522              		.loc 1 1078 0
 2523 005a 0A2E     		cmp	r6, #10
 2524 005c 8146     		mov	r9, r0
 2525 005e 40F39181 		ble	.L241
 2526              	.L240:
 2527              		.loc 1 1079 0
 2528 0062 2846     		mov	r0, r5
 2529 0064 FFF7FEFF 		bl	__aeabi_i2f
 2530              	.LVL223:
 2531              	.LBB82:
 2532              	.LBB83:
 2533              		.loc 1 142 0
 2534 0068 0021     		movs	r1, #0
 2535              	.LBE83:
 2536              	.LBE82:
 2537              		.loc 1 1079 0
 2538 006a 0546     		mov	r5, r0
 2539              	.LVL224:
 2540              	.LBB87:
 2541              	.LBB84:
 2542              		.loc 1 142 0
 2543 006c FFF7FEFF 		bl	__aeabi_fcmpeq
 2544              	.LVL225:
 2545 0070 0028     		cmp	r0, #0
 2546 0072 00F0A581 		beq	.L289
 2547 0076 0023     		movs	r3, #0
 2548 0078 0022     		movs	r2, #0
 2549 007a CDE90423 		strd	r2, [sp, #16]
 2550 007e 0023     		movs	r3, #0
 2551 0080 0293     		str	r3, [sp, #8]	@ float
 2552              	.L244:
 2553              	.LVL226:
 2554 0082 D4F83080 		ldr	r8, [r4, #48]	@ float
 2555              	.LBE84:
 2556              	.LBE87:
 2557 0086 CDF80C90 		str	r9, [sp, #12]	@ float
 2558              	.LVL227:
 2559              	.L246:
 2560              		.loc 1 1087 0
 2561 008a 9649     		ldr	r1, .L295+20
 2562 008c 206C     		ldr	r0, [r4, #64]	@ float
 2563 008e FFF7FEFF 		bl	__aeabi_fmul
 2564              	.LVL228:
 2565 0092 E76B     		ldr	r7, [r4, #60]	@ float
ARM GAS  /var/folders/6q/x_mk5n_j3p7_c40r_2k_78980000gn/T//ccu43oO2.s 			page 46


 2566 0094 0146     		mov	r1, r0
 2567 0096 3846     		mov	r0, r7
 2568 0098 FFF7FEFF 		bl	__aeabi_fdiv
 2569              	.LVL229:
 2570              		.loc 1 1088 0
 2571 009c 00F10046 		add	r6, r0, #-2147483648
 2572              		.loc 1 1087 0
 2573 00a0 0790     		str	r0, [sp, #28]	@ float
 2574              	.LVL230:
 2575              	.LBB88:
 2576              	.LBB89:
 2577              		.file 2 "../convex-vexilla/cortex/opt/fastmath.c"
 2578              		.loc 2 86 0
 2579 00a2 5946     		mov	r1, fp
 2580 00a4 3046     		mov	r0, r6
 2581              	.LVL231:
 2582 00a6 FFF7FEFF 		bl	__aeabi_fmul
 2583              	.LVL232:
 2584 00aa 8F49     		ldr	r1, .L295+24
 2585 00ac FFF7FEFF 		bl	__aeabi_fmul
 2586              	.LVL233:
 2587              	.LBB90:
 2588              	.LBB91:
 2589              		.loc 2 61 0
 2590 00b0 0021     		movs	r1, #0
 2591              	.LBE91:
 2592              	.LBE90:
 2593              		.loc 2 86 0
 2594 00b2 0546     		mov	r5, r0
 2595              	.LVL234:
 2596              	.LBB96:
 2597              	.LBB92:
 2598              		.loc 2 61 0
 2599 00b4 FFF7FEFF 		bl	__aeabi_fcmplt
 2600              	.LVL235:
 2601 00b8 0028     		cmp	r0, #0
 2602 00ba 40F0A781 		bne	.L290
 2603 00be 4FF0000A 		mov	r10, #0
 2604              	.L249:
 2605              	.LVL236:
 2606              		.loc 2 62 0
 2607 00c2 8A49     		ldr	r1, .L295+28
 2608 00c4 2846     		mov	r0, r5
 2609 00c6 FFF7FEFF 		bl	__aeabi_fcmplt
 2610              	.LVL237:
 2611 00ca 0028     		cmp	r0, #0
 2612 00cc 40F09881 		bne	.L269
 2613 00d0 2846     		mov	r0, r5
 2614 00d2 FFF7FEFF 		bl	__aeabi_f2iz
 2615              	.LVL238:
 2616 00d6 FFF7FEFF 		bl	__aeabi_i2f
 2617              	.LVL239:
 2618 00da 0146     		mov	r1, r0
 2619 00dc 2846     		mov	r0, r5
 2620 00de FFF7FEFF 		bl	__aeabi_fsub
 2621              	.LVL240:
 2622 00e2 8349     		ldr	r1, .L295+32
ARM GAS  /var/folders/6q/x_mk5n_j3p7_c40r_2k_78980000gn/T//ccu43oO2.s 			page 47


 2623 00e4 0090     		str	r0, [sp]
 2624 00e6 2846     		mov	r0, r5
 2625 00e8 FFF7FEFF 		bl	__aeabi_fadd
 2626              	.LVL241:
 2627 00ec 0346     		mov	r3, r0
 2628 00ee 009A     		ldr	r2, [sp]
 2629              	.L251:
 2630              		.loc 2 64 0
 2631 00f0 1146     		mov	r1, r2
 2632 00f2 5046     		mov	r0, r10
 2633 00f4 0093     		str	r3, [sp]
 2634 00f6 FFF7FEFF 		bl	__aeabi_fadd
 2635              	.LVL242:
 2636 00fa 0546     		mov	r5, r0
 2637              	.LVL243:
 2638              		.loc 2 65 0
 2639 00fc 0146     		mov	r1, r0
 2640 00fe 7D48     		ldr	r0, .L295+36
 2641              	.LVL244:
 2642 0100 FFF7FEFF 		bl	__aeabi_fsub
 2643              	.LVL245:
 2644 0104 0146     		mov	r1, r0
 2645 0106 7C48     		ldr	r0, .L295+40
 2646 0108 FFF7FEFF 		bl	__aeabi_fdiv
 2647              	.LVL246:
 2648 010c 009B     		ldr	r3, [sp]
 2649 010e 1946     		mov	r1, r3
 2650 0110 FFF7FEFF 		bl	__aeabi_fadd
 2651              	.LVL247:
 2652 0114 7949     		ldr	r1, .L295+44
 2653 0116 8246     		mov	r10, r0
 2654              	.LVL248:
 2655 0118 2846     		mov	r0, r5
 2656 011a FFF7FEFF 		bl	__aeabi_fmul
 2657              	.LVL249:
 2658 011e 0146     		mov	r1, r0
 2659 0120 5046     		mov	r0, r10
 2660 0122 FFF7FEFF 		bl	__aeabi_fsub
 2661              	.LVL250:
 2662 0126 4FF09641 		mov	r1, #1258291200
 2663 012a FFF7FEFF 		bl	__aeabi_fmul
 2664              	.LVL251:
 2665 012e FFF7FEFF 		bl	__aeabi_f2uiz
 2666              	.LVL252:
 2667              	.LBE92:
 2668              	.LBE96:
 2669              	.LBE89:
 2670              	.LBE88:
 2671              	.LBB103:
 2672              	.LBB104:
 2673              		.loc 2 86 0
 2674 0132 4946     		mov	r1, r9
 2675              	.LBE104:
 2676              	.LBE103:
 2677              	.LBB119:
 2678              	.LBB100:
 2679              	.LBB97:
ARM GAS  /var/folders/6q/x_mk5n_j3p7_c40r_2k_78980000gn/T//ccu43oO2.s 			page 48


 2680              	.LBB93:
 2681              		.loc 2 65 0
 2682 0134 8246     		mov	r10, r0
 2683              	.LVL253:
 2684              	.LBE93:
 2685              	.LBE97:
 2686              	.LBE100:
 2687              	.LBE119:
 2688              	.LBB120:
 2689              	.LBB115:
 2690              		.loc 2 86 0
 2691 0136 3046     		mov	r0, r6
 2692 0138 FFF7FEFF 		bl	__aeabi_fmul
 2693              	.LVL254:
 2694 013c 6A49     		ldr	r1, .L295+24
 2695 013e FFF7FEFF 		bl	__aeabi_fmul
 2696              	.LVL255:
 2697              	.LBB105:
 2698              	.LBB106:
 2699              		.loc 2 61 0
 2700 0142 0021     		movs	r1, #0
 2701              	.LBE106:
 2702              	.LBE105:
 2703              		.loc 2 86 0
 2704 0144 0546     		mov	r5, r0
 2705              	.LVL256:
 2706              	.LBB111:
 2707              	.LBB107:
 2708              		.loc 2 61 0
 2709 0146 FFF7FEFF 		bl	__aeabi_fcmplt
 2710              	.LVL257:
 2711 014a 0028     		cmp	r0, #0
 2712 014c 40F05B81 		bne	.L291
 2713 0150 0026     		movs	r6, #0
 2714              	.LVL258:
 2715              	.L252:
 2716              		.loc 2 62 0
 2717 0152 6649     		ldr	r1, .L295+28
 2718 0154 2846     		mov	r0, r5
 2719 0156 FFF7FEFF 		bl	__aeabi_fcmplt
 2720              	.LVL259:
 2721 015a 0028     		cmp	r0, #0
 2722 015c 40F04C81 		bne	.L271
 2723 0160 2846     		mov	r0, r5
 2724 0162 FFF7FEFF 		bl	__aeabi_f2iz
 2725              	.LVL260:
 2726 0166 FFF7FEFF 		bl	__aeabi_i2f
 2727              	.LVL261:
 2728 016a 0146     		mov	r1, r0
 2729 016c 2846     		mov	r0, r5
 2730 016e FFF7FEFF 		bl	__aeabi_fsub
 2731              	.LVL262:
 2732 0172 5F49     		ldr	r1, .L295+32
 2733 0174 0090     		str	r0, [sp]
 2734 0176 2846     		mov	r0, r5
 2735 0178 FFF7FEFF 		bl	__aeabi_fadd
 2736              	.LVL263:
ARM GAS  /var/folders/6q/x_mk5n_j3p7_c40r_2k_78980000gn/T//ccu43oO2.s 			page 49


 2737 017c 8146     		mov	r9, r0
 2738 017e 009B     		ldr	r3, [sp]
 2739              	.L254:
 2740              		.loc 2 64 0
 2741 0180 1946     		mov	r1, r3
 2742 0182 3046     		mov	r0, r6
 2743 0184 FFF7FEFF 		bl	__aeabi_fadd
 2744              	.LVL264:
 2745 0188 0546     		mov	r5, r0
 2746              	.LVL265:
 2747              		.loc 2 65 0
 2748 018a 0146     		mov	r1, r0
 2749 018c 5948     		ldr	r0, .L295+36
 2750              	.LVL266:
 2751 018e FFF7FEFF 		bl	__aeabi_fsub
 2752              	.LVL267:
 2753 0192 0146     		mov	r1, r0
 2754 0194 5848     		ldr	r0, .L295+40
 2755 0196 FFF7FEFF 		bl	__aeabi_fdiv
 2756              	.LVL268:
 2757 019a 4946     		mov	r1, r9
 2758 019c FFF7FEFF 		bl	__aeabi_fadd
 2759              	.LVL269:
 2760 01a0 5649     		ldr	r1, .L295+44
 2761 01a2 0646     		mov	r6, r0
 2762              	.LVL270:
 2763 01a4 2846     		mov	r0, r5
 2764 01a6 FFF7FEFF 		bl	__aeabi_fmul
 2765              	.LVL271:
 2766 01aa 0146     		mov	r1, r0
 2767 01ac 3046     		mov	r0, r6
 2768 01ae FFF7FEFF 		bl	__aeabi_fsub
 2769              	.LVL272:
 2770 01b2 4FF09641 		mov	r1, #1258291200
 2771 01b6 FFF7FEFF 		bl	__aeabi_fmul
 2772              	.LVL273:
 2773 01ba FFF7FEFF 		bl	__aeabi_f2uiz
 2774              	.LVL274:
 2775              	.LBE107:
 2776              	.LBE111:
 2777              	.LBE115:
 2778              	.LBE120:
 2779              		.loc 1 1092 0
 2780 01be 616C     		ldr	r1, [r4, #68]	@ float
 2781              	.LBB121:
 2782              	.LBB116:
 2783              	.LBB112:
 2784              	.LBB108:
 2785              		.loc 2 65 0
 2786 01c0 0546     		mov	r5, r0
 2787              	.LVL275:
 2788              	.LBE108:
 2789              	.LBE112:
 2790              	.LBE116:
 2791              	.LBE121:
 2792              		.loc 1 1092 0
 2793 01c2 4046     		mov	r0, r8
ARM GAS  /var/folders/6q/x_mk5n_j3p7_c40r_2k_78980000gn/T//ccu43oO2.s 			page 50


 2794 01c4 FFF7FEFF 		bl	__aeabi_fmul
 2795              	.LVL276:
 2796 01c8 8146     		mov	r9, r0
 2797              		.loc 1 1095 0
 2798 01ca D4F84C80 		ldr	r8, [r4, #76]	@ float
 2799 01ce 20F00040 		bic	r0, r0, #-2147483648
 2800 01d2 4146     		mov	r1, r8
 2801              		.loc 1 1092 0
 2802 01d4 4E46     		mov	r6, r9
 2803              	.LVL277:
 2804              		.loc 1 1095 0
 2805 01d6 FFF7FEFF 		bl	__aeabi_fcmpgt
 2806              	.LVL278:
 2807 01da 98B1     		cbz	r0, .L255
 2808              	.LVL279:
 2809              	.LBB122:
 2810              	.LBB123:
 2811              		.loc 1 142 0
 2812 01dc 0021     		movs	r1, #0
 2813 01de 4846     		mov	r0, r9
 2814 01e0 FFF7FEFF 		bl	__aeabi_fcmpeq
 2815              	.LVL280:
 2816 01e4 0028     		cmp	r0, #0
 2817 01e6 40F04B81 		bne	.L272
 2818              		.loc 1 143 0
 2819 01ea 4846     		mov	r0, r9
 2820 01ec 0021     		movs	r1, #0
 2821 01ee FFF7FEFF 		bl	__aeabi_fcmpgt
 2822              	.LVL281:
 2823 01f2 0028     		cmp	r0, #0
 2824 01f4 00F05081 		beq	.L286
 2825 01f8 4FF07E51 		mov	r1, #1065353216
 2826              	.LVL282:
 2827              	.LBE123:
 2828              	.LBE122:
 2829              		.loc 1 1096 0
 2830 01fc 4046     		mov	r0, r8
 2831 01fe FFF7FEFF 		bl	__aeabi_fmul
 2832              	.LVL283:
 2833 0202 0646     		mov	r6, r0
 2834              	.LVL284:
 2835              	.L255:
 2836              		.loc 1 1099 0
 2837 0204 3846     		mov	r0, r7
 2838 0206 FFF7FEFF 		bl	__aeabi_f2d
 2839              	.LVL285:
 2840 020a CDE90001 		strd	r0, [sp]
 2841 020e 0299     		ldr	r1, [sp, #8]	@ float
 2842 0210 0698     		ldr	r0, [sp, #24]	@ float
 2843 0212 FFF7FEFF 		bl	__aeabi_fmul
 2844              	.LVL286:
 2845 0216 3146     		mov	r1, r6
 2846 0218 FFF7FEFF 		bl	__aeabi_fsub
 2847              	.LVL287:
 2848 021c FFF7FEFF 		bl	__aeabi_f2d
 2849              	.LVL288:
 2850 0220 2DA3     		adr	r3, .L295+8
ARM GAS  /var/folders/6q/x_mk5n_j3p7_c40r_2k_78980000gn/T//ccu43oO2.s 			page 51


 2851 0222 D3E90023 		ldrd	r2, [r3]
 2852 0226 8046     		mov	r8, r0
 2853 0228 8946     		mov	r9, r1
 2854 022a DDE90001 		ldrd	r0, [sp]
 2855 022e FFF7FEFF 		bl	__aeabi_dadd
 2856              	.LVL289:
 2857 0232 0246     		mov	r2, r0
 2858 0234 0B46     		mov	r3, r1
 2859 0236 4046     		mov	r0, r8
 2860 0238 4946     		mov	r1, r9
 2861 023a FFF7FEFF 		bl	__aeabi_ddiv
 2862              	.LVL290:
 2863 023e FFF7FEFF 		bl	__aeabi_d2f
 2864              	.LVL291:
 2865 0242 8046     		mov	r8, r0
 2866              	.LVL292:
 2867              		.loc 1 1100 0
 2868 0244 3046     		mov	r0, r6
 2869              	.LVL293:
 2870 0246 FFF7FEFF 		bl	__aeabi_f2d
 2871              	.LVL294:
 2872 024a DDE90423 		ldrd	r2, [sp, #16]
 2873 024e FFF7FEFF 		bl	__aeabi_dadd
 2874              	.LVL295:
 2875 0252 DDE90023 		ldrd	r2, [sp]
 2876 0256 01F10047 		add	r7, r1, #-2147483648
 2877 025a 3946     		mov	r1, r7
 2878 025c FFF7FEFF 		bl	__aeabi_ddiv
 2879              	.LVL296:
 2880 0260 FFF7FEFF 		bl	__aeabi_d2f
 2881              	.LVL297:
 2882              		.loc 1 1103 0
 2883 0264 5146     		mov	r1, r10
 2884              		.loc 1 1100 0
 2885 0266 0646     		mov	r6, r0
 2886              	.LVL298:
 2887              		.loc 1 1103 0
 2888 0268 4FF07E50 		mov	r0, #1065353216
 2889              	.LVL299:
 2890 026c FFF7FEFF 		bl	__aeabi_fsub
 2891              	.LVL300:
 2892 0270 4146     		mov	r1, r8
 2893 0272 FFF7FEFF 		bl	__aeabi_fmul
 2894              	.LVL301:
 2895              		.loc 1 1106 0
 2896 0276 2946     		mov	r1, r5
 2897              		.loc 1 1103 0
 2898 0278 0746     		mov	r7, r0
 2899              	.LVL302:
 2900              		.loc 1 1106 0
 2901 027a 4FF07E50 		mov	r0, #1065353216
 2902 027e FFF7FEFF 		bl	__aeabi_fsub
 2903              	.LVL303:
 2904 0282 3146     		mov	r1, r6
 2905 0284 FFF7FEFF 		bl	__aeabi_fmul
 2906              	.LVL304:
 2907 0288 2946     		mov	r1, r5
ARM GAS  /var/folders/6q/x_mk5n_j3p7_c40r_2k_78980000gn/T//ccu43oO2.s 			page 52


 2908 028a 8146     		mov	r9, r0
 2909 028c 3846     		mov	r0, r7
 2910 028e FFF7FEFF 		bl	__aeabi_fmul
 2911              	.LVL305:
 2912 0292 0146     		mov	r1, r0
 2913 0294 4846     		mov	r0, r9
 2914 0296 FFF7FEFF 		bl	__aeabi_fadd
 2915              	.LVL306:
 2916 029a 5146     		mov	r1, r10
 2917 029c 8146     		mov	r9, r0
 2918 029e 2846     		mov	r0, r5
 2919 02a0 FFF7FEFF 		bl	__aeabi_fmul
 2920              	.LVL307:
 2921 02a4 0146     		mov	r1, r0
 2922 02a6 4FF07E50 		mov	r0, #1065353216
 2923 02aa FFF7FEFF 		bl	__aeabi_fsub
 2924              	.LVL308:
 2925 02ae 0146     		mov	r1, r0
 2926 02b0 4846     		mov	r0, r9
 2927 02b2 FFF7FEFF 		bl	__aeabi_fdiv
 2928              	.LVL309:
 2929 02b6 0299     		ldr	r1, [sp, #8]	@ float
 2930 02b8 FFF7FEFF 		bl	__aeabi_fmul
 2931              	.LVL310:
 2932 02bc 0021     		movs	r1, #0
 2933 02be FFF7FEFF 		bl	__aeabi_fcmplt
 2934              	.LVL311:
 2935 02c2 0028     		cmp	r0, #0
 2936 02c4 40F0A580 		bne	.L292
 2937 02c8 1AE0     		b	.L296
 2938              	.L297:
 2939 02ca 00BFAFF3 		.align	3
 2939      0080
 2940              	.L295:
 2941 02d0 00000000 		.word	0
 2942 02d4 00C05F40 		.word	1080016896
 2943 02d8 33333333 		.word	858993459
 2944 02dc 3333D33F 		.word	1070805811
 2945 02e0 B7600BB6 		.word	-1240768329
 2946 02e4 00C08F44 		.word	1150271488
 2947 02e8 3BAAB83F 		.word	1069066811
 2948 02ec 0000FCC2 		.word	-1023672320
 2949 02f0 518CF242 		.word	1123191889
 2950 02f4 F8F59A40 		.word	1083897336
 2951 02f8 FED2DD41 		.word	1105056510
 2952 02fc 8DBCBE3F 		.word	1069464717
 2953              	.L296:
 2954              	.L259:
 2955              	.LVL312:
 2956              		.loc 1 1129 0
 2957 0300 5946     		mov	r1, fp
 2958 0302 4046     		mov	r0, r8
 2959 0304 FFF7FEFF 		bl	__aeabi_fmul
 2960              	.LVL313:
 2961 0308 3146     		mov	r1, r6
 2962 030a 0546     		mov	r5, r0
 2963 030c 0398     		ldr	r0, [sp, #12]	@ float
ARM GAS  /var/folders/6q/x_mk5n_j3p7_c40r_2k_78980000gn/T//ccu43oO2.s 			page 53


 2964 030e FFF7FEFF 		bl	__aeabi_fmul
 2965              	.LVL314:
 2966 0312 0146     		mov	r1, r0
 2967 0314 2846     		mov	r0, r5
 2968 0316 FFF7FEFF 		bl	__aeabi_fadd
 2969              	.LVL315:
 2970 031a 0546     		mov	r5, r0
 2971              	.LVL316:
 2972              		.loc 1 1135 0
 2973 031c 606D     		ldr	r0, [r4, #84]	@ float
 2974              	.LVL317:
 2975              		.loc 1 1132 0
 2976 031e 2565     		str	r5, [r4, #80]	@ float
 2977              		.loc 1 1135 0
 2978 0320 FFF7FEFF 		bl	__aeabi_f2d
 2979              	.LVL318:
 2980 0324 60A3     		adr	r3, .L298
 2981 0326 D3E90023 		ldrd	r2, [r3]
 2982 032a FFF7FEFF 		bl	__aeabi_dmul
 2983              	.LVL319:
 2984 032e 0646     		mov	r6, r0
 2985              	.LVL320:
 2986 0330 2846     		mov	r0, r5
 2987 0332 0F46     		mov	r7, r1
 2988 0334 FFF7FEFF 		bl	__aeabi_f2d
 2989              	.LVL321:
 2990 0338 5DA3     		adr	r3, .L298+8
 2991 033a D3E90023 		ldrd	r2, [r3]
 2992 033e FFF7FEFF 		bl	__aeabi_dmul
 2993              	.LVL322:
 2994 0342 0246     		mov	r2, r0
 2995 0344 0B46     		mov	r3, r1
 2996 0346 3046     		mov	r0, r6
 2997 0348 3946     		mov	r1, r7
 2998 034a FFF7FEFF 		bl	__aeabi_dadd
 2999              	.LVL323:
 3000 034e FFF7FEFF 		bl	__aeabi_d2f
 3001              	.LVL324:
 3002              		.loc 1 1138 0
 3003 0352 25F00046 		bic	r6, r5, #-2147483648
 3004              		.loc 1 1135 0
 3005 0356 6065     		str	r0, [r4, #84]	@ float
 3006              		.loc 1 1138 0
 3007 0358 A16D     		ldr	r1, [r4, #88]	@ float
 3008 035a 3046     		mov	r0, r6
 3009 035c FFF7FEFF 		bl	__aeabi_fcmpgt
 3010              	.LVL325:
 3011 0360 00B1     		cbz	r0, .L287
 3012              		.loc 1 1139 0
 3013 0362 A665     		str	r6, [r4, #88]	@ float
 3014              	.L287:
 3015              		.loc 1 1142 0
 3016 0364 2846     		mov	r0, r5
 3017 0366 09B0     		add	sp, sp, #36
 3018              		.cfi_remember_state
 3019              		.cfi_def_cfa_offset 36
 3020              		@ sp needed
ARM GAS  /var/folders/6q/x_mk5n_j3p7_c40r_2k_78980000gn/T//ccu43oO2.s 			page 54


 3021 0368 BDE8F08F 		pop	{r4, r5, r6, r7, r8, r9, r10, fp, pc}
 3022              	.LVL326:
 3023              	.L239:
 3024              		.cfi_restore_state
 3025              		.loc 1 1074 0
 3026 036c 2846     		mov	r0, r5
 3027 036e FFF7FEFF 		bl	__aeabi_i2f
 3028              	.LVL327:
 3029              	.LBB126:
 3030              	.LBB127:
 3031              		.loc 1 142 0
 3032 0372 0021     		movs	r1, #0
 3033              	.LBE127:
 3034              	.LBE126:
 3035              		.loc 1 1074 0
 3036 0374 0546     		mov	r5, r0
 3037              	.LVL328:
 3038              	.LBB130:
 3039              	.LBB128:
 3040              		.loc 1 142 0
 3041 0376 FFF7FEFF 		bl	__aeabi_fcmpeq
 3042              	.LVL329:
 3043 037a 98B1     		cbz	r0, .L293
 3044 037c 4FF07E59 		mov	r9, #1065353216
 3045 0380 4FF0000B 		mov	fp, #0
 3046              	.LVL330:
 3047              	.L241:
 3048              	.LBE128:
 3049              	.LBE130:
 3050              		.loc 1 1081 0
 3051 0384 D4F83080 		ldr	r8, [r4, #48]	@ float
 3052              	.LVL331:
 3053              	.LBB131:
 3054              	.LBB132:
 3055              		.loc 1 142 0
 3056 0388 0021     		movs	r1, #0
 3057 038a 4046     		mov	r0, r8
 3058 038c FFF7FEFF 		bl	__aeabi_fcmpeq
 3059              	.LVL332:
 3060 0390 20B3     		cbz	r0, .L294
 3061 0392 0023     		movs	r3, #0
 3062 0394 0022     		movs	r2, #0
 3063 0396 CDE90423 		strd	r2, [sp, #16]
 3064 039a 0023     		movs	r3, #0
 3065 039c 0293     		str	r3, [sp, #8]	@ float
 3066              	.L247:
 3067              	.LVL333:
 3068              	.LBE132:
 3069              	.LBE131:
 3070 039e CDF80C90 		str	r9, [sp, #12]	@ float
 3071 03a2 72E6     		b	.L246
 3072              	.LVL334:
 3073              	.L293:
 3074              	.LBB135:
 3075              	.LBB129:
 3076              		.loc 1 143 0
 3077 03a4 2846     		mov	r0, r5
ARM GAS  /var/folders/6q/x_mk5n_j3p7_c40r_2k_78980000gn/T//ccu43oO2.s 			page 55


 3078 03a6 0021     		movs	r1, #0
 3079 03a8 FFF7FEFF 		bl	__aeabi_fcmpgt
 3080              	.LVL335:
 3081 03ac 0028     		cmp	r0, #0
 3082 03ae 14BF     		ite	ne
 3083 03b0 7F25     		movne	r5, #127
 3084              	.LVL336:
 3085 03b2 6FF07E05 		mvneq	r5, #126
 3086              	.LVL337:
 3087              	.LBE129:
 3088              	.LBE135:
 3089              		.loc 1 1052 0
 3090 03b6 4FF00009 		mov	r9, #0
 3091 03ba 4FF07E5B 		mov	fp, #1065353216
 3092 03be 50E6     		b	.L240
 3093              	.LVL338:
 3094              	.L289:
 3095              	.LBB136:
 3096              	.LBB85:
 3097              		.loc 1 143 0
 3098 03c0 2846     		mov	r0, r5
 3099 03c2 0021     		movs	r1, #0
 3100 03c4 FFF7FEFF 		bl	__aeabi_fcmpgt
 3101              	.LVL339:
 3102 03c8 0022     		movs	r2, #0
 3103 03ca 0028     		cmp	r0, #0
 3104 03cc 66D0     		beq	.L282
 3105 03ce 3A4B     		ldr	r3, .L298+16
 3106 03d0 CDE90423 		strd	r2, [sp, #16]
 3107 03d4 4FF07E53 		mov	r3, #1065353216
 3108 03d8 0293     		str	r3, [sp, #8]	@ float
 3109 03da 52E6     		b	.L244
 3110              	.LVL340:
 3111              	.L294:
 3112              	.LBE85:
 3113              	.LBE136:
 3114              	.LBB137:
 3115              	.LBB133:
 3116 03dc 0021     		movs	r1, #0
 3117 03de 4046     		mov	r0, r8
 3118 03e0 FFF7FEFF 		bl	__aeabi_fcmpgt
 3119              	.LVL341:
 3120 03e4 0022     		movs	r2, #0
 3121 03e6 0028     		cmp	r0, #0
 3122 03e8 50D0     		beq	.L283
 3123 03ea 334B     		ldr	r3, .L298+16
 3124 03ec CDE90423 		strd	r2, [sp, #16]
 3125 03f0 4FF07E53 		mov	r3, #1065353216
 3126 03f4 0293     		str	r3, [sp, #8]	@ float
 3127 03f6 D2E7     		b	.L247
 3128              	.LVL342:
 3129              	.L271:
 3130              	.LBE133:
 3131              	.LBE137:
 3132              	.LBB138:
 3133              	.LBB117:
 3134              	.LBB113:
ARM GAS  /var/folders/6q/x_mk5n_j3p7_c40r_2k_78980000gn/T//ccu43oO2.s 			page 56


 3135              	.LBB109:
 3136              		.loc 2 62 0
 3137 03f8 DFF8C090 		ldr	r9, .L298+20
 3138 03fc 0023     		movs	r3, #0
 3139 03fe BFE6     		b	.L254
 3140              	.LVL343:
 3141              	.L269:
 3142              	.LBE109:
 3143              	.LBE113:
 3144              	.LBE117:
 3145              	.LBE138:
 3146              	.LBB139:
 3147              	.LBB101:
 3148              	.LBB98:
 3149              	.LBB94:
 3150 0400 2E4B     		ldr	r3, .L298+20
 3151 0402 0022     		movs	r2, #0
 3152 0404 74E6     		b	.L251
 3153              	.LVL344:
 3154              	.L291:
 3155              	.LBE94:
 3156              	.LBE98:
 3157              	.LBE101:
 3158              	.LBE139:
 3159              	.LBB140:
 3160              	.LBB118:
 3161              	.LBB114:
 3162              	.LBB110:
 3163              		.loc 2 61 0
 3164 0406 4FF07E56 		mov	r6, #1065353216
 3165              	.LVL345:
 3166 040a A2E6     		b	.L252
 3167              	.LVL346:
 3168              	.L290:
 3169              	.LBE110:
 3170              	.LBE114:
 3171              	.LBE118:
 3172              	.LBE140:
 3173              	.LBB141:
 3174              	.LBB102:
 3175              	.LBB99:
 3176              	.LBB95:
 3177 040c 4FF07E5A 		mov	r10, #1065353216
 3178 0410 57E6     		b	.L249
 3179              	.LVL347:
 3180              	.L292:
 3181              	.LBE95:
 3182              	.LBE99:
 3183              	.LBE102:
 3184              	.LBE141:
 3185              	.LBB142:
 3186              	.LBB143:
 3187              	.LBB144:
 3188              	.LBB145:
 3189              		.loc 2 74 0
 3190 0412 3846     		mov	r0, r7
 3191 0414 3146     		mov	r1, r6
ARM GAS  /var/folders/6q/x_mk5n_j3p7_c40r_2k_78980000gn/T//ccu43oO2.s 			page 57


 3192 0416 FFF7FEFF 		bl	__aeabi_fsub
 3193              	.LVL348:
 3194 041a 06F10045 		add	r5, r6, #-2147483648
 3195 041e 0146     		mov	r1, r0
 3196 0420 2846     		mov	r0, r5
 3197 0422 FFF7FEFF 		bl	__aeabi_fdiv
 3198              	.LVL349:
 3199 0426 C0F31605 		ubfx	r5, r0, #0, #23
 3200              		.loc 2 75 0
 3201 042a FFF7FEFF 		bl	__aeabi_ui2f
 3202              	.LVL350:
 3203              	.LBE145:
 3204              	.LBE144:
 3205              	.LBE143:
 3206              	.LBE142:
 3207              		.loc 1 1117 0
 3208 042e 4FF05051 		mov	r1, #872415232
 3209 0432 FFF7FEFF 		bl	__aeabi_fmul
 3210              	.LVL351:
 3211 0436 2249     		ldr	r1, .L298+24
 3212 0438 FFF7FEFF 		bl	__aeabi_fsub
 3213              	.LVL352:
 3214              	.LBB149:
 3215              	.LBB148:
 3216              	.LBB147:
 3217              	.LBB146:
 3218              		.loc 2 74 0
 3219 043c 45F07C55 		orr	r5, r5, #1056964608
 3220              	.LVL353:
 3221              	.LBE146:
 3222              	.LBE147:
 3223              	.LBE148:
 3224              	.LBE149:
 3225              		.loc 1 1117 0
 3226 0440 0746     		mov	r7, r0
 3227              	.LVL354:
 3228 0442 2049     		ldr	r1, .L298+28
 3229 0444 2846     		mov	r0, r5
 3230 0446 FFF7FEFF 		bl	__aeabi_fmul
 3231              	.LVL355:
 3232 044a 0146     		mov	r1, r0
 3233 044c 3846     		mov	r0, r7
 3234 044e FFF7FEFF 		bl	__aeabi_fsub
 3235              	.LVL356:
 3236 0452 1D49     		ldr	r1, .L298+32
 3237 0454 0746     		mov	r7, r0
 3238 0456 2846     		mov	r0, r5
 3239 0458 FFF7FEFF 		bl	__aeabi_fadd
 3240              	.LVL357:
 3241 045c 0146     		mov	r1, r0
 3242 045e 1B48     		ldr	r0, .L298+36
 3243 0460 FFF7FEFF 		bl	__aeabi_fdiv
 3244              	.LVL358:
 3245 0464 0146     		mov	r1, r0
 3246 0466 3846     		mov	r0, r7
 3247 0468 FFF7FEFF 		bl	__aeabi_fsub
 3248              	.LVL359:
ARM GAS  /var/folders/6q/x_mk5n_j3p7_c40r_2k_78980000gn/T//ccu43oO2.s 			page 58


 3249 046c 1849     		ldr	r1, .L298+40
 3250 046e FFF7FEFF 		bl	__aeabi_fmul
 3251              	.LVL360:
 3252 0472 0799     		ldr	r1, [sp, #28]	@ float
 3253 0474 00F10040 		add	r0, r0, #-2147483648
 3254 0478 FFF7FEFF 		bl	__aeabi_fdiv
 3255              	.LVL361:
 3256 047c 0390     		str	r0, [sp, #12]	@ float
 3257              	.LVL362:
 3258 047e 3FE7     		b	.L259
 3259              	.LVL363:
 3260              	.L272:
 3261              	.LBB150:
 3262              	.LBB124:
 3263              		.loc 1 142 0
 3264 0480 0021     		movs	r1, #0
 3265              	.L257:
 3266              	.LVL364:
 3267              	.LBE124:
 3268              	.LBE150:
 3269              		.loc 1 1096 0
 3270 0482 4046     		mov	r0, r8
 3271 0484 FFF7FEFF 		bl	__aeabi_fmul
 3272              	.LVL365:
 3273 0488 0646     		mov	r6, r0
 3274              	.LVL366:
 3275 048a BBE6     		b	.L255
 3276              	.LVL367:
 3277              	.L283:
 3278              	.LBB151:
 3279              	.LBB134:
 3280              		.loc 1 143 0
 3281 048c 114B     		ldr	r3, .L298+44
 3282 048e CDE90423 		strd	r2, [sp, #16]
 3283 0492 114B     		ldr	r3, .L298+48
 3284 0494 0293     		str	r3, [sp, #8]	@ float
 3285 0496 82E7     		b	.L247
 3286              	.LVL368:
 3287              	.L286:
 3288              	.LBE134:
 3289              	.LBE151:
 3290              	.LBB152:
 3291              	.LBB125:
 3292 0498 0F49     		ldr	r1, .L298+48
 3293 049a F2E7     		b	.L257
 3294              	.LVL369:
 3295              	.L282:
 3296              	.LBE125:
 3297              	.LBE152:
 3298              	.LBB153:
 3299              	.LBB86:
 3300 049c 0D4B     		ldr	r3, .L298+44
 3301 049e CDE90423 		strd	r2, [sp, #16]
 3302 04a2 0D4B     		ldr	r3, .L298+48
 3303 04a4 0293     		str	r3, [sp, #8]	@ float
 3304 04a6 ECE5     		b	.L244
 3305              	.L299:
ARM GAS  /var/folders/6q/x_mk5n_j3p7_c40r_2k_78980000gn/T//ccu43oO2.s 			page 59


 3306              		.align	3
 3307              	.L298:
 3308 04a8 9A999999 		.word	2576980378
 3309 04ac 9999E93F 		.word	1072273817
 3310 04b0 9A999999 		.word	2576980378
 3311 04b4 9999C93F 		.word	1070176665
 3312 04b8 0000E83F 		.word	1072168960
 3313 04bc F03A97C0 		.word	-1063830800
 3314 04c0 7773F842 		.word	1123578743
 3315 04c4 75BFBF3F 		.word	1069530997
 3316 04c8 F944B43E 		.word	1052001529
 3317 04cc A3E9DC3F 		.word	1071442339
 3318 04d0 1872313F 		.word	1060205080
 3319 04d4 0000E8BF 		.word	-1075314688
 3320 04d8 000080BF 		.word	-1082130432
 3321              	.LBE86:
 3322              	.LBE153:
 3323              		.cfi_endproc
 3324              	.LFE98:
 3325              		.size	SmartMotorCurrent, .-SmartMotorCurrent
 3326              		.section	.text.SmartMotorControllerCurrent,"ax",%progbits
 3327              		.align	2
 3328              		.p2align 4,,15
 3329              		.global	SmartMotorControllerCurrent
 3330              		.thumb
 3331              		.thumb_func
 3332              		.type	SmartMotorControllerCurrent, %function
 3333              	SmartMotorControllerCurrent:
 3334              	.LFB99:
 3335              		.loc 1 1154 0
 3336              		.cfi_startproc
 3337              		@ args = 0, pretend = 0, frame = 0
 3338              		@ frame_needed = 0, uses_anonymous_args = 0
 3339              	.LVL370:
 3340 0000 F8B5     		push	{r3, r4, r5, r6, r7, lr}
 3341              		.cfi_def_cfa_offset 24
 3342              		.cfi_offset 3, -24
 3343              		.cfi_offset 4, -20
 3344              		.cfi_offset 5, -16
 3345              		.cfi_offset 6, -12
 3346              		.cfi_offset 7, -8
 3347              		.cfi_offset 14, -4
 3348              		.loc 1 1157 0
 3349 0002 0023     		movs	r3, #0
 3350              		.loc 1 1154 0
 3351 0004 0646     		mov	r6, r0
 3352              		.loc 1 1157 0
 3353 0006 1D46     		mov	r5, r3
 3354 0008 4361     		str	r3, [r0, #20]	@ float
 3355              	.LVL371:
 3356 000a 041F     		subs	r4, r0, #4
 3357 000c 00F11007 		add	r7, r0, #16
 3358              	.LVL372:
 3359              	.L302:
 3360              		.loc 1 1163 0
 3361 0010 54F8043F 		ldr	r3, [r4, #4]!
 3362 0014 4BB1     		cbz	r3, .L301
ARM GAS  /var/folders/6q/x_mk5n_j3p7_c40r_2k_78980000gn/T//ccu43oO2.s 			page 60


 3363              		.loc 1 1165 0
 3364 0016 9A78     		ldrb	r2, [r3, #2]	@ zero_extendqisi2
 3365 0018 3AB1     		cbz	r2, .L301
 3366              		.loc 1 1166 0
 3367 001a 196D     		ldr	r1, [r3, #80]
 3368 001c 2846     		mov	r0, r5
 3369 001e 21F00041 		bic	r1, r1, #-2147483648
 3370 0022 FFF7FEFF 		bl	__aeabi_fadd
 3371              	.LVL373:
 3372 0026 0546     		mov	r5, r0
 3373 0028 7061     		str	r0, [r6, #20]	@ float
 3374              	.L301:
 3375              		.loc 1 1161 0 discriminator 2
 3376 002a BC42     		cmp	r4, r7
 3377 002c F0D1     		bne	.L302
 3378              		.loc 1 1171 0
 3379 002e 2946     		mov	r1, r5
 3380 0030 B069     		ldr	r0, [r6, #24]	@ float
 3381 0032 FFF7FEFF 		bl	__aeabi_fcmplt
 3382              	.LVL374:
 3383 0036 00B1     		cbz	r0, .L303
 3384              		.loc 1 1172 0
 3385 0038 B561     		str	r5, [r6, #24]	@ float
 3386              	.L303:
 3387              		.loc 1 1175 0
 3388 003a 2846     		mov	r0, r5
 3389 003c F8BD     		pop	{r3, r4, r5, r6, r7, pc}
 3390              		.cfi_endproc
 3391              	.LFE99:
 3392              		.size	SmartMotorControllerCurrent, .-SmartMotorControllerCurrent
 3393              		.global	__aeabi_fcmpge
 3394              		.global	__aeabi_d2iz
 3395              		.global	__aeabi_fcmple
 3396              		.global	__aeabi_dsub
 3397 003e 00BF     		.section	.text.SmartMotorSafeCommand,"ax",%progbits
 3398              		.align	2
 3399              		.p2align 4,,15
 3400              		.global	SmartMotorSafeCommand
 3401              		.thumb
 3402              		.thumb_func
 3403              		.type	SmartMotorSafeCommand, %function
 3404              	SmartMotorSafeCommand:
 3405              	.LFB100:
 3406              		.loc 1 1200 0
 3407              		.cfi_startproc
 3408              		@ args = 0, pretend = 0, frame = 0
 3409              		@ frame_needed = 0, uses_anonymous_args = 0
 3410              	.LVL375:
 3411 0000 2DE9F047 		push	{r4, r5, r6, r7, r8, r9, r10, lr}
 3412              		.cfi_def_cfa_offset 32
 3413              		.cfi_offset 4, -32
 3414              		.cfi_offset 5, -28
 3415              		.cfi_offset 6, -24
 3416              		.cfi_offset 7, -20
 3417              		.cfi_offset 8, -16
 3418              		.cfi_offset 9, -12
 3419              		.cfi_offset 10, -8
ARM GAS  /var/folders/6q/x_mk5n_j3p7_c40r_2k_78980000gn/T//ccu43oO2.s 			page 61


 3420              		.cfi_offset 14, -4
 3421              		.loc 1 1200 0
 3422 0004 0546     		mov	r5, r0
 3423              		.loc 1 1202 0
 3424 0006 90F90000 		ldrsb	r0, [r0]
 3425              	.LVL376:
 3426              		.loc 1 1200 0
 3427 000a 0C46     		mov	r4, r1
 3428              		.loc 1 1202 0
 3429 000c FFF7FEFF 		bl	vexMotorGet
 3430              	.LVL377:
 3431              		.loc 1 1206 0
 3432 0010 0028     		cmp	r0, #0
 3433 0012 5FDB     		blt	.L315
 3434              		.loc 1 1208 0
 3435 0014 D5F83080 		ldr	r8, [r5, #48]	@ float
 3436 0018 0021     		movs	r1, #0
 3437 001a 4046     		mov	r0, r8
 3438              	.LVL378:
 3439 001c FFF7FEFF 		bl	__aeabi_fcmpge
 3440              	.LVL379:
 3441 0020 0028     		cmp	r0, #0
 3442 0022 00F0A880 		beq	.L331
 3443              		.loc 1 1209 0
 3444 0026 E86B     		ldr	r0, [r5, #60]	@ float
 3445 0028 FFF7FEFF 		bl	__aeabi_f2d
 3446              	.LVL380:
 3447 002c 54A3     		adr	r3, .L333
 3448 002e D3E90023 		ldrd	r2, [r3]
 3449 0032 FFF7FEFF 		bl	__aeabi_dadd
 3450              	.LVL381:
 3451 0036 D5F860A0 		ldr	r10, [r5, #96]	@ float
 3452 003a 0646     		mov	r6, r0
 3453 003c 5046     		mov	r0, r10
 3454 003e 0F46     		mov	r7, r1
 3455 0040 FFF7FEFF 		bl	__aeabi_f2d
 3456              	.LVL382:
 3457 0044 0246     		mov	r2, r0
 3458 0046 0B46     		mov	r3, r1
 3459 0048 3046     		mov	r0, r6
 3460 004a 3946     		mov	r1, r7
 3461 004c FFF7FEFF 		bl	__aeabi_dmul
 3462              	.LVL383:
 3463 0050 0646     		mov	r6, r0
 3464 0052 0F46     		mov	r7, r1
 3465 0054 4046     		mov	r0, r8
 3466 0056 696C     		ldr	r1, [r5, #68]	@ float
 3467 0058 FFF7FEFF 		bl	__aeabi_fmul
 3468              	.LVL384:
 3469 005c FFF7FEFF 		bl	__aeabi_f2d
 3470              	.LVL385:
 3471 0060 0246     		mov	r2, r0
 3472 0062 0B46     		mov	r3, r1
 3473 0064 3046     		mov	r0, r6
 3474 0066 3946     		mov	r1, r7
 3475 0068 FFF7FEFF 		bl	__aeabi_dadd
 3476              	.LVL386:
ARM GAS  /var/folders/6q/x_mk5n_j3p7_c40r_2k_78980000gn/T//ccu43oO2.s 			page 62


 3477 006c 0022     		movs	r2, #0
 3478 006e 484B     		ldr	r3, .L333+16
 3479 0070 FFF7FEFF 		bl	__aeabi_dadd
 3480              	.LVL387:
 3481 0074 44A3     		adr	r3, .L333+8
 3482 0076 D3E90023 		ldrd	r2, [r3]
 3483 007a FFF7FEFF 		bl	__aeabi_dmul
 3484              	.LVL388:
 3485 007e 0646     		mov	r6, r0
 3486 0080 2046     		mov	r0, r4
 3487 0082 0F46     		mov	r7, r1
 3488 0084 FFF7FEFF 		bl	__aeabi_f2d
 3489              	.LVL389:
 3490 0088 0022     		movs	r2, #0
 3491 008a 414B     		ldr	r3, .L333+16
 3492 008c FFF7FEFF 		bl	__aeabi_dadd
 3493              	.LVL390:
 3494 0090 0246     		mov	r2, r0
 3495 0092 0B46     		mov	r3, r1
 3496 0094 3046     		mov	r0, r6
 3497 0096 3946     		mov	r1, r7
 3498 0098 FFF7FEFF 		bl	__aeabi_ddiv
 3499              	.LVL391:
 3500 009c FFF7FEFF 		bl	__aeabi_d2iz
 3501              	.LVL392:
 3502              		.loc 1 1215 0
 3503 00a0 7F28     		cmp	r0, #127
 3504 00a2 A8BF     		it	ge
 3505 00a4 7F20     		movge	r0, #127
 3506              	.LVL393:
 3507 00a6 0446     		mov	r4, r0
 3508              	.LVL394:
 3509              	.L318:
 3510              		.loc 1 1230 0
 3511 00a8 5046     		mov	r0, r10
 3512 00aa 0021     		movs	r1, #0
 3513 00ac FFF7FEFF 		bl	__aeabi_fcmpeq
 3514              	.LVL395:
 3515              		.loc 1 1234 0
 3516 00b0 2B78     		ldrb	r3, [r5]	@ zero_extendqisi2
 3517              		.loc 1 1230 0
 3518 00b2 0028     		cmp	r0, #0
 3519              		.loc 1 1234 0
 3520 00b4 03F1FF33 		add	r3, r3, #-1
 3521              		.loc 1 1231 0
 3522 00b8 18BF     		it	ne
 3523 00ba 0024     		movne	r4, #0
 3524              	.LVL396:
 3525              		.loc 1 1234 0
 3526 00bc 072B     		cmp	r3, #7
 3527 00be 06D8     		bhi	.L322
 3528              		.loc 1 1235 0
 3529 00c0 5A23     		movs	r3, #90
 3530 00c2 03FB04F4 		mul	r4, r3, r4
 3531              	.LVL397:
 3532 00c6 002C     		cmp	r4, #0
 3533 00c8 B8BF     		it	lt
ARM GAS  /var/folders/6q/x_mk5n_j3p7_c40r_2k_78980000gn/T//ccu43oO2.s 			page 63


 3534 00ca 7F34     		addlt	r4, r4, #127
 3535 00cc E411     		asrs	r4, r4, #7
 3536              	.LVL398:
 3537              	.L322:
 3538              		.loc 1 1238 0
 3539 00ce 2046     		mov	r0, r4
 3540 00d0 BDE8F087 		pop	{r4, r5, r6, r7, r8, r9, r10, pc}
 3541              	.LVL399:
 3542              	.L315:
 3543              		.loc 1 1219 0
 3544 00d4 2E6B     		ldr	r6, [r5, #48]	@ float
 3545 00d6 0021     		movs	r1, #0
 3546 00d8 3046     		mov	r0, r6
 3547              	.LVL400:
 3548 00da FFF7FEFF 		bl	__aeabi_fcmple
 3549              	.LVL401:
 3550 00de 20B9     		cbnz	r0, .L332
 3551 00e0 2B6E     		ldr	r3, [r5, #96]	@ float
 3552              		.loc 1 1222 0
 3553 00e2 6FF07E04 		mvn	r4, #126
 3554              	.LVL402:
 3555              	.L319:
 3556 00e6 9A46     		mov	r10, r3
 3557 00e8 DEE7     		b	.L318
 3558              	.LVL403:
 3559              	.L332:
 3560              		.loc 1 1220 0
 3561 00ea 3046     		mov	r0, r6
 3562 00ec 696C     		ldr	r1, [r5, #68]	@ float
 3563 00ee FFF7FEFF 		bl	__aeabi_fmul
 3564              	.LVL404:
 3565 00f2 FFF7FEFF 		bl	__aeabi_f2d
 3566              	.LVL405:
 3567 00f6 0646     		mov	r6, r0
 3568 00f8 E86B     		ldr	r0, [r5, #60]	@ float
 3569 00fa 0F46     		mov	r7, r1
 3570 00fc FFF7FEFF 		bl	__aeabi_f2d
 3571              	.LVL406:
 3572 0100 1FA3     		adr	r3, .L333
 3573 0102 D3E90023 		ldrd	r2, [r3]
 3574 0106 FFF7FEFF 		bl	__aeabi_dadd
 3575              	.LVL407:
 3576 010a D5F860A0 		ldr	r10, [r5, #96]	@ float
 3577 010e 8046     		mov	r8, r0
 3578 0110 5046     		mov	r0, r10
 3579 0112 8946     		mov	r9, r1
 3580 0114 FFF7FEFF 		bl	__aeabi_f2d
 3581              	.LVL408:
 3582 0118 0246     		mov	r2, r0
 3583 011a 0B46     		mov	r3, r1
 3584 011c 4046     		mov	r0, r8
 3585 011e 4946     		mov	r1, r9
 3586 0120 FFF7FEFF 		bl	__aeabi_dmul
 3587              	.LVL409:
 3588 0124 0246     		mov	r2, r0
 3589 0126 0B46     		mov	r3, r1
 3590 0128 3046     		mov	r0, r6
ARM GAS  /var/folders/6q/x_mk5n_j3p7_c40r_2k_78980000gn/T//ccu43oO2.s 			page 64


 3591 012a 3946     		mov	r1, r7
 3592 012c FFF7FEFF 		bl	__aeabi_dsub
 3593              	.LVL410:
 3594 0130 0022     		movs	r2, #0
 3595 0132 174B     		ldr	r3, .L333+16
 3596 0134 FFF7FEFF 		bl	__aeabi_dsub
 3597              	.LVL411:
 3598 0138 13A3     		adr	r3, .L333+8
 3599 013a D3E90023 		ldrd	r2, [r3]
 3600 013e FFF7FEFF 		bl	__aeabi_dmul
 3601              	.LVL412:
 3602 0142 0646     		mov	r6, r0
 3603 0144 2046     		mov	r0, r4
 3604 0146 0F46     		mov	r7, r1
 3605 0148 FFF7FEFF 		bl	__aeabi_f2d
 3606              	.LVL413:
 3607 014c 0022     		movs	r2, #0
 3608 014e 104B     		ldr	r3, .L333+16
 3609 0150 FFF7FEFF 		bl	__aeabi_dadd
 3610              	.LVL414:
 3611 0154 0B46     		mov	r3, r1
 3612 0156 0246     		mov	r2, r0
 3613 0158 3946     		mov	r1, r7
 3614 015a 3046     		mov	r0, r6
 3615 015c FFF7FEFF 		bl	__aeabi_ddiv
 3616              	.LVL415:
 3617 0160 FFF7FEFF 		bl	__aeabi_d2iz
 3618              	.LVL416:
 3619              		.loc 1 1225 0
 3620 0164 10F17F0F 		cmn	r0, #127
 3621              		.loc 1 1220 0
 3622 0168 0446     		mov	r4, r0
 3623              	.LVL417:
 3624 016a 5346     		mov	r3, r10
 3625              		.loc 1 1226 0
 3626 016c B8BF     		it	lt
 3627 016e 6FF07E04 		mvnlt	r4, #126
 3628              		.loc 1 1225 0
 3629 0172 99DB     		blt	.L318
 3630 0174 B7E7     		b	.L319
 3631              	.LVL418:
 3632              	.L331:
 3633 0176 D5F860A0 		ldr	r10, [r5, #96]	@ float
 3634              		.loc 1 1211 0
 3635 017a 7F24     		movs	r4, #127
 3636              	.LVL419:
 3637 017c 94E7     		b	.L318
 3638              	.L334:
 3639 017e 00BF     		.align	3
 3640              	.L333:
 3641 0180 33333333 		.word	858993459
 3642 0184 3333D33F 		.word	1070805811
 3643 0188 00000000 		.word	0
 3644 018c 00C05F40 		.word	1080016896
 3645 0190 0000E83F 		.word	1072168960
 3646              		.cfi_endproc
 3647              	.LFE100:
ARM GAS  /var/folders/6q/x_mk5n_j3p7_c40r_2k_78980000gn/T//ccu43oO2.s 			page 65


 3648              		.size	SmartMotorSafeCommand, .-SmartMotorSafeCommand
 3649              		.section	.text.SmartMotorTemperature,"ax",%progbits
 3650              		.align	2
 3651              		.p2align 4,,15
 3652              		.global	SmartMotorTemperature
 3653              		.thumb
 3654              		.thumb_func
 3655              		.type	SmartMotorTemperature, %function
 3656              	SmartMotorTemperature:
 3657              	.LFB101:
 3658              		.loc 1 1251 0
 3659              		.cfi_startproc
 3660              		@ args = 0, pretend = 0, frame = 0
 3661              		@ frame_needed = 0, uses_anonymous_args = 0
 3662              	.LVL420:
 3663 0000 F8B5     		push	{r3, r4, r5, r6, r7, lr}
 3664              		.cfi_def_cfa_offset 24
 3665              		.cfi_offset 3, -24
 3666              		.cfi_offset 4, -20
 3667              		.cfi_offset 5, -16
 3668              		.cfi_offset 6, -12
 3669              		.cfi_offset 7, -8
 3670              		.cfi_offset 14, -4
 3671              		.loc 1 1251 0
 3672 0002 0446     		mov	r4, r0
 3673              		.loc 1 1254 0
 3674 0004 036D     		ldr	r3, [r0, #80]	@ float
 3675              		.loc 1 1251 0
 3676 0006 0F46     		mov	r7, r1
 3677              		.loc 1 1256 0
 3678 0008 1846     		mov	r0, r3
 3679              	.LVL421:
 3680 000a 1946     		mov	r1, r3
 3681              	.LVL422:
 3682 000c FFF7FEFF 		bl	__aeabi_fmul
 3683              	.LVL423:
 3684 0010 A16E     		ldr	r1, [r4, #104]	@ float
 3685 0012 FFF7FEFF 		bl	__aeabi_fmul
 3686              	.LVL424:
 3687              		.loc 1 1254 0
 3688 0016 656E     		ldr	r5, [r4, #100]	@ float
 3689              	.LVL425:
 3690              		.loc 1 1256 0
 3691 0018 0646     		mov	r6, r0
 3692 001a 216F     		ldr	r1, [r4, #112]	@ float
 3693 001c 2846     		mov	r0, r5
 3694 001e FFF7FEFF 		bl	__aeabi_fsub
 3695              	.LVL426:
 3696 0022 0146     		mov	r1, r0
 3697 0024 3046     		mov	r0, r6
 3698 0026 FFF7FEFF 		bl	__aeabi_fsub
 3699              	.LVL427:
 3700 002a E16E     		ldr	r1, [r4, #108]	@ float
 3701 002c FFF7FEFF 		bl	__aeabi_fmul
 3702              	.LVL428:
 3703 0030 0646     		mov	r6, r0
 3704 0032 3846     		mov	r0, r7
ARM GAS  /var/folders/6q/x_mk5n_j3p7_c40r_2k_78980000gn/T//ccu43oO2.s 			page 66


 3705 0034 FFF7FEFF 		bl	__aeabi_i2f
 3706              	.LVL429:
 3707 0038 0146     		mov	r1, r0
 3708 003a 3046     		mov	r0, r6
 3709 003c FFF7FEFF 		bl	__aeabi_fmul
 3710              	.LVL430:
 3711 0040 2946     		mov	r1, r5
 3712 0042 FFF7FEFF 		bl	__aeabi_fadd
 3713              	.LVL431:
 3714 0046 6066     		str	r0, [r4, #100]	@ float
 3715              		.loc 1 1259 0
 3716 0048 F8BD     		pop	{r3, r4, r5, r6, r7, pc}
 3717              		.cfi_endproc
 3718              	.LFE101:
 3719              		.size	SmartMotorTemperature, .-SmartMotorTemperature
 3720 004a 00BF     		.section	.text.SmartMotorControllerTemperature,"ax",%progbits
 3721              		.align	2
 3722              		.p2align 4,,15
 3723              		.global	SmartMotorControllerTemperature
 3724              		.thumb
 3725              		.thumb_func
 3726              		.type	SmartMotorControllerTemperature, %function
 3727              	SmartMotorControllerTemperature:
 3728              	.LFB102:
 3729              		.loc 1 1272 0
 3730              		.cfi_startproc
 3731              		@ args = 0, pretend = 0, frame = 0
 3732              		@ frame_needed = 0, uses_anonymous_args = 0
 3733              	.LVL432:
 3734 0000 F8B5     		push	{r3, r4, r5, r6, r7, lr}
 3735              		.cfi_def_cfa_offset 24
 3736              		.cfi_offset 3, -24
 3737              		.cfi_offset 4, -20
 3738              		.cfi_offset 5, -16
 3739              		.cfi_offset 6, -12
 3740              		.cfi_offset 7, -8
 3741              		.cfi_offset 14, -4
 3742              		.loc 1 1272 0
 3743 0002 0446     		mov	r4, r0
 3744              		.loc 1 1275 0
 3745 0004 4369     		ldr	r3, [r0, #20]	@ float
 3746              		.loc 1 1272 0
 3747 0006 0F46     		mov	r7, r1
 3748              		.loc 1 1277 0
 3749 0008 1846     		mov	r0, r3
 3750              	.LVL433:
 3751 000a 1946     		mov	r1, r3
 3752              	.LVL434:
 3753 000c FFF7FEFF 		bl	__aeabi_fmul
 3754              	.LVL435:
 3755 0010 616A     		ldr	r1, [r4, #36]	@ float
 3756 0012 FFF7FEFF 		bl	__aeabi_fmul
 3757              	.LVL436:
 3758              		.loc 1 1275 0
 3759 0016 256A     		ldr	r5, [r4, #32]	@ float
 3760              	.LVL437:
 3761              		.loc 1 1277 0
ARM GAS  /var/folders/6q/x_mk5n_j3p7_c40r_2k_78980000gn/T//ccu43oO2.s 			page 67


 3762 0018 0646     		mov	r6, r0
 3763 001a E16A     		ldr	r1, [r4, #44]	@ float
 3764 001c 2846     		mov	r0, r5
 3765 001e FFF7FEFF 		bl	__aeabi_fsub
 3766              	.LVL438:
 3767 0022 0146     		mov	r1, r0
 3768 0024 3046     		mov	r0, r6
 3769 0026 FFF7FEFF 		bl	__aeabi_fsub
 3770              	.LVL439:
 3771 002a A16A     		ldr	r1, [r4, #40]	@ float
 3772 002c FFF7FEFF 		bl	__aeabi_fmul
 3773              	.LVL440:
 3774 0030 0646     		mov	r6, r0
 3775 0032 3846     		mov	r0, r7
 3776 0034 FFF7FEFF 		bl	__aeabi_i2f
 3777              	.LVL441:
 3778 0038 0146     		mov	r1, r0
 3779 003a 3046     		mov	r0, r6
 3780 003c FFF7FEFF 		bl	__aeabi_fmul
 3781              	.LVL442:
 3782 0040 2946     		mov	r1, r5
 3783 0042 FFF7FEFF 		bl	__aeabi_fadd
 3784              	.LVL443:
 3785 0046 2062     		str	r0, [r4, #32]	@ float
 3786              		.loc 1 1280 0
 3787 0048 F8BD     		pop	{r3, r4, r5, r6, r7, pc}
 3788              		.cfi_endproc
 3789              	.LFE102:
 3790              		.size	SmartMotorControllerTemperature, .-SmartMotorControllerTemperature
 3791 004a 00BF     		.section	.text.SmartMotorMonitorPtc,"ax",%progbits
 3792              		.align	2
 3793              		.p2align 4,,15
 3794              		.global	SmartMotorMonitorPtc
 3795              		.thumb
 3796              		.thumb_func
 3797              		.type	SmartMotorMonitorPtc, %function
 3798              	SmartMotorMonitorPtc:
 3799              	.LFB103:
 3800              		.loc 1 1295 0
 3801              		.cfi_startproc
 3802              		@ args = 0, pretend = 0, frame = 0
 3803              		@ frame_needed = 0, uses_anonymous_args = 0
 3804              	.LVL444:
 3805 0000 38B5     		push	{r3, r4, r5, lr}
 3806              		.cfi_def_cfa_offset 16
 3807              		.cfi_offset 3, -16
 3808              		.cfi_offset 4, -12
 3809              		.cfi_offset 5, -8
 3810              		.cfi_offset 14, -4
 3811              		.loc 1 1296 0
 3812 0002 B0F97430 		ldrsh	r3, [r0, #116]
 3813              		.loc 1 1295 0
 3814 0006 0446     		mov	r4, r0
 3815 0008 0D46     		mov	r5, r1
 3816              		.loc 1 1296 0
 3817 000a 93B9     		cbnz	r3, .L340
 3818              		.loc 1 1297 0
ARM GAS  /var/folders/6q/x_mk5n_j3p7_c40r_2k_78980000gn/T//ccu43oO2.s 			page 68


 3819 000c 1549     		ldr	r1, .L357
 3820              	.LVL445:
 3821 000e 406E     		ldr	r0, [r0, #100]	@ float
 3822              	.LVL446:
 3823 0010 FFF7FEFF 		bl	__aeabi_fcmpgt
 3824              	.LVL447:
 3825 0014 B0B1     		cbz	r0, .L341
 3826              		.loc 1 1298 0
 3827 0016 0123     		movs	r3, #1
 3828 0018 A4F87430 		strh	r3, [r4, #116]	@ movhi
 3829              	.L343:
 3830              		.loc 1 1308 0
 3831 001c A368     		ldr	r3, [r4, #8]
 3832 001e CBB1     		cbz	r3, .L348
 3833              		.loc 1 1310 0
 3834 0020 B3F93030 		ldrsh	r3, [r3, #48]
 3835 0024 ABB9     		cbnz	r3, .L339
 3836              	.L356:
 3837              		.loc 1 1315 0
 3838 0026 B4F97430 		ldrsh	r3, [r4, #116]
 3839 002a 9BB9     		cbnz	r3, .L348
 3840              	.L346:
 3841              		.loc 1 1326 0
 3842 002c FF23     		movs	r3, #255
 3843 002e A382     		strh	r3, [r4, #20]	@ movhi
 3844 0030 38BD     		pop	{r3, r4, r5, pc}
 3845              	.LVL448:
 3846              	.L340:
 3847              		.loc 1 1302 0
 3848 0032 0D49     		ldr	r1, .L357+4
 3849              	.LVL449:
 3850 0034 406E     		ldr	r0, [r0, #100]	@ float
 3851              	.LVL450:
 3852 0036 FFF7FEFF 		bl	__aeabi_fcmplt
 3853              	.LVL451:
 3854 003a 0028     		cmp	r0, #0
 3855 003c EED0     		beq	.L343
 3856              		.loc 1 1303 0
 3857 003e 0023     		movs	r3, #0
 3858 0040 A4F87430 		strh	r3, [r4, #116]	@ movhi
 3859              	.L341:
 3860              		.loc 1 1308 0
 3861 0044 A368     		ldr	r3, [r4, #8]
 3862 0046 002B     		cmp	r3, #0
 3863 0048 F0D0     		beq	.L346
 3864              		.loc 1 1310 0
 3865 004a B3F93030 		ldrsh	r3, [r3, #48]
 3866 004e 002B     		cmp	r3, #0
 3867 0050 E9D0     		beq	.L356
 3868              	.L339:
 3869 0052 38BD     		pop	{r3, r4, r5, pc}
 3870              	.LVL452:
 3871              	.L348:
 3872              	.LBB156:
 3873              	.LBB157:
 3874              		.loc 1 1319 0
 3875 0054 E36D     		ldr	r3, [r4, #92]	@ float
ARM GAS  /var/folders/6q/x_mk5n_j3p7_c40r_2k_78980000gn/T//ccu43oO2.s 			page 69


 3876              		.loc 1 1321 0
 3877 0056 2946     		mov	r1, r5
 3878              		.loc 1 1319 0
 3879 0058 2366     		str	r3, [r4, #96]	@ float
 3880              		.loc 1 1321 0
 3881 005a 2046     		mov	r0, r4
 3882 005c FFF7FEFF 		bl	SmartMotorSafeCommand
 3883              	.LVL453:
 3884 0060 A082     		strh	r0, [r4, #20]	@ movhi
 3885 0062 38BD     		pop	{r3, r4, r5, pc}
 3886              	.LVL454:
 3887              	.L358:
 3888              		.align	2
 3889              	.L357:
 3890 0064 0000C842 		.word	1120403456
 3891 0068 0000B442 		.word	1119092736
 3892              	.LBE157:
 3893              	.LBE156:
 3894              		.cfi_endproc
 3895              	.LFE103:
 3896              		.size	SmartMotorMonitorPtc, .-SmartMotorMonitorPtc
 3897              		.global	__aeabi_dcmpgt
 3898              		.section	.text.SmartMotorControllerMonitorPtc,"ax",%progbits
 3899              		.align	2
 3900              		.p2align 4,,15
 3901              		.global	SmartMotorControllerMonitorPtc
 3902              		.thumb
 3903              		.thumb_func
 3904              		.type	SmartMotorControllerMonitorPtc, %function
 3905              	SmartMotorControllerMonitorPtc:
 3906              	.LFB104:
 3907              		.loc 1 1344 0
 3908              		.cfi_startproc
 3909              		@ args = 0, pretend = 0, frame = 0
 3910              		@ frame_needed = 0, uses_anonymous_args = 0
 3911              	.LVL455:
 3912 0000 2DE9F843 		push	{r3, r4, r5, r6, r7, r8, r9, lr}
 3913              		.cfi_def_cfa_offset 32
 3914              		.cfi_offset 3, -32
 3915              		.cfi_offset 4, -28
 3916              		.cfi_offset 5, -24
 3917              		.cfi_offset 6, -20
 3918              		.cfi_offset 7, -16
 3919              		.cfi_offset 8, -12
 3920              		.cfi_offset 9, -8
 3921              		.cfi_offset 14, -4
 3922              		.loc 1 1348 0
 3923 0004 B0F93030 		ldrsh	r3, [r0, #48]
 3924              		.loc 1 1344 0
 3925 0008 0746     		mov	r7, r0
 3926 000a 8846     		mov	r8, r1
 3927              		.loc 1 1348 0
 3928 000c 002B     		cmp	r3, #0
 3929 000e 44D1     		bne	.L360
 3930              		.loc 1 1349 0
 3931 0010 2B49     		ldr	r1, .L391+8
 3932              	.LVL456:
ARM GAS  /var/folders/6q/x_mk5n_j3p7_c40r_2k_78980000gn/T//ccu43oO2.s 			page 70


 3933 0012 006A     		ldr	r0, [r0, #32]	@ float
 3934              	.LVL457:
 3935 0014 FFF7FEFF 		bl	__aeabi_fcmpgt
 3936              	.LVL458:
 3937 0018 0028     		cmp	r0, #0
 3938 001a 3CD0     		beq	.L359
 3939              		.loc 1 1350 0
 3940 001c 0123     		movs	r3, #1
 3941 001e 3B86     		strh	r3, [r7, #48]	@ movhi
 3942              	.L363:
 3943 0020 3D1F     		subs	r5, r7, #4
 3944              		.loc 1 1344 0
 3945 0022 2C46     		mov	r4, r5
 3946 0024 07F11006 		add	r6, r7, #16
 3947 0028 4FF00009 		mov	r9, #0
 3948              	.L367:
 3949              	.LVL459:
 3950              	.LBB162:
 3951              	.LBB163:
 3952              	.LBB164:
 3953              		.loc 1 1368 0
 3954 002c 54F8043F 		ldr	r3, [r4, #4]!
 3955              	.LVL460:
 3956              		.loc 1 1369 0
 3957 0030 63B1     		cbz	r3, .L365
 3958              		.loc 1 1371 0
 3959 0032 186D     		ldr	r0, [r3, #80]
 3960 0034 20F00040 		bic	r0, r0, #-2147483648
 3961 0038 FFF7FEFF 		bl	__aeabi_f2d
 3962              	.LVL461:
 3963 003c 1EA3     		adr	r3, .L391
 3964 003e D3E90023 		ldrd	r2, [r3]
 3965 0042 FFF7FEFF 		bl	__aeabi_dcmpgt
 3966              	.LVL462:
 3967 0046 08B1     		cbz	r0, .L365
 3968              		.loc 1 1372 0
 3969 0048 09F10109 		add	r9, r9, #1
 3970              	.LVL463:
 3971              	.L365:
 3972              		.loc 1 1366 0
 3973 004c B442     		cmp	r4, r6
 3974 004e EDD1     		bne	.L367
 3975              		.loc 1 1377 0
 3976 0050 B9F1000F 		cmp	r9, #0
 3977 0054 2BD0     		beq	.L374
 3978 0056 4846     		mov	r0, r9
 3979 0058 FFF7FEFF 		bl	__aeabi_i2f
 3980              	.LVL464:
 3981 005c 0146     		mov	r1, r0
 3982              	.L368:
 3983              	.LVL465:
 3984              		.loc 1 1381 0
 3985 005e F869     		ldr	r0, [r7, #28]	@ float
 3986 0060 FFF7FEFF 		bl	__aeabi_fdiv
 3987              	.LVL466:
 3988 0064 0746     		mov	r7, r0
 3989              	.LVL467:
ARM GAS  /var/folders/6q/x_mk5n_j3p7_c40r_2k_78980000gn/T//ccu43oO2.s 			page 71


 3990              	.L373:
 3991              		.loc 1 1385 0
 3992 0066 55F8044F 		ldr	r4, [r5, #4]!
 3993              	.LVL468:
 3994              		.loc 1 1386 0
 3995 006a 84B1     		cbz	r4, .L369
 3996              		.loc 1 1391 0
 3997 006c B4F97430 		ldrsh	r3, [r4, #116]
 3998 0070 03B3     		cbz	r3, .L370
 3999 0072 D4F85C90 		ldr	r9, [r4, #92]	@ float
 4000 0076 3846     		mov	r0, r7
 4001 0078 4946     		mov	r1, r9
 4002 007a FFF7FEFF 		bl	__aeabi_fcmpgt
 4003              	.LVL469:
 4004 007e C8B1     		cbz	r0, .L370
 4005              		.loc 1 1392 0
 4006 0080 C4F86090 		str	r9, [r4, #96]	@ float
 4007              	.L372:
 4008              		.loc 1 1396 0
 4009 0084 4146     		mov	r1, r8
 4010 0086 2046     		mov	r0, r4
 4011 0088 FFF7FEFF 		bl	SmartMotorSafeCommand
 4012              	.LVL470:
 4013 008c A082     		strh	r0, [r4, #20]	@ movhi
 4014              	.L369:
 4015              		.loc 1 1383 0
 4016 008e B542     		cmp	r5, r6
 4017 0090 E9D1     		bne	.L373
 4018 0092 BDE8F883 		pop	{r3, r4, r5, r6, r7, r8, r9, pc}
 4019              	.LVL471:
 4020              	.L359:
 4021 0096 BDE8F883 		pop	{r3, r4, r5, r6, r7, r8, r9, pc}
 4022              	.LVL472:
 4023              	.L360:
 4024              	.LBE164:
 4025              	.LBE163:
 4026              	.LBE162:
 4027              		.loc 1 1354 0
 4028 009a 0A49     		ldr	r1, .L391+12
 4029              	.LVL473:
 4030 009c 006A     		ldr	r0, [r0, #32]	@ float
 4031              	.LVL474:
 4032 009e FFF7FEFF 		bl	__aeabi_fcmplt
 4033              	.LVL475:
 4034 00a2 0028     		cmp	r0, #0
 4035 00a4 BCD0     		beq	.L363
 4036              		.loc 1 1355 0
 4037 00a6 0023     		movs	r3, #0
 4038 00a8 3B86     		strh	r3, [r7, #48]	@ movhi
 4039 00aa BDE8F883 		pop	{r3, r4, r5, r6, r7, r8, r9, pc}
 4040              	.LVL476:
 4041              	.L374:
 4042              	.LBB167:
 4043              	.LBB166:
 4044              	.LBB165:
 4045              		.loc 1 1377 0
 4046 00ae 4FF07E51 		mov	r1, #1065353216
ARM GAS  /var/folders/6q/x_mk5n_j3p7_c40r_2k_78980000gn/T//ccu43oO2.s 			page 72


 4047 00b2 D4E7     		b	.L368
 4048              	.LVL477:
 4049              	.L370:
 4050              		.loc 1 1394 0
 4051 00b4 2766     		str	r7, [r4, #96]	@ float
 4052 00b6 E5E7     		b	.L372
 4053              	.L392:
 4054              		.align	3
 4055              	.L391:
 4056 00b8 9A999999 		.word	2576980378
 4057 00bc 9999B93F 		.word	1069128089
 4058 00c0 0000C842 		.word	1120403456
 4059 00c4 0000B442 		.word	1119092736
 4060              	.LBE165:
 4061              	.LBE166:
 4062              	.LBE167:
 4063              		.cfi_endproc
 4064              	.LFE104:
 4065              		.size	SmartMotorControllerMonitorPtc, .-SmartMotorControllerMonitorPtc
 4066              		.global	__aeabi_dcmplt
 4067              		.section	.text.SmartMotorMonitorCurrent,"ax",%progbits
 4068              		.align	2
 4069              		.p2align 4,,15
 4070              		.global	SmartMotorMonitorCurrent
 4071              		.thumb
 4072              		.thumb_func
 4073              		.type	SmartMotorMonitorCurrent, %function
 4074              	SmartMotorMonitorCurrent:
 4075              	.LFB105:
 4076              		.loc 1 1411 0
 4077              		.cfi_startproc
 4078              		@ args = 0, pretend = 0, frame = 0
 4079              		@ frame_needed = 0, uses_anonymous_args = 0
 4080              	.LVL478:
 4081 0000 2DE97043 		push	{r4, r5, r6, r8, r9, lr}
 4082              		.cfi_def_cfa_offset 24
 4083              		.cfi_offset 4, -24
 4084              		.cfi_offset 5, -20
 4085              		.cfi_offset 6, -16
 4086              		.cfi_offset 8, -12
 4087              		.cfi_offset 9, -8
 4088              		.cfi_offset 14, -4
 4089              		.loc 1 1418 0
 4090 0004 B0F91230 		ldrsh	r3, [r0, #18]
 4091              		.loc 1 1412 0
 4092 0008 8569     		ldr	r5, [r0, #24]	@ float
 4093              		.loc 1 1411 0
 4094 000a 0446     		mov	r4, r0
 4095 000c 0E46     		mov	r6, r1
 4096              		.loc 1 1412 0
 4097 000e 0566     		str	r5, [r0, #96]	@ float
 4098              		.loc 1 1418 0
 4099 0010 7BB9     		cbnz	r3, .L394
 4100              		.loc 1 1419 0
 4101 0012 416D     		ldr	r1, [r0, #84]
 4102              	.LVL479:
 4103 0014 2846     		mov	r0, r5
ARM GAS  /var/folders/6q/x_mk5n_j3p7_c40r_2k_78980000gn/T//ccu43oO2.s 			page 73


 4104              	.LVL480:
 4105 0016 21F00041 		bic	r1, r1, #-2147483648
 4106 001a FFF7FEFF 		bl	__aeabi_fcmplt
 4107              	.LVL481:
 4108 001e 08B3     		cbz	r0, .L395
 4109              		.loc 1 1420 0
 4110 0020 0123     		movs	r3, #1
 4111 0022 6382     		strh	r3, [r4, #18]	@ movhi
 4112              	.L397:
 4113              	.LVL482:
 4114              	.LBB170:
 4115              	.LBB171:
 4116              		.loc 1 1429 0
 4117 0024 3146     		mov	r1, r6
 4118 0026 2046     		mov	r0, r4
 4119 0028 FFF7FEFF 		bl	SmartMotorSafeCommand
 4120              	.LVL483:
 4121 002c A082     		strh	r0, [r4, #20]	@ movhi
 4122 002e BDE87083 		pop	{r4, r5, r6, r8, r9, pc}
 4123              	.LVL484:
 4124              	.L394:
 4125              	.LBE171:
 4126              	.LBE170:
 4127              		.loc 1 1423 0
 4128 0032 406D     		ldr	r0, [r0, #84]
 4129              	.LVL485:
 4130 0034 20F00040 		bic	r0, r0, #-2147483648
 4131 0038 FFF7FEFF 		bl	__aeabi_f2d
 4132              	.LVL486:
 4133 003c 8046     		mov	r8, r0
 4134 003e 2846     		mov	r0, r5
 4135 0040 8946     		mov	r9, r1
 4136 0042 FFF7FEFF 		bl	__aeabi_f2d
 4137              	.LVL487:
 4138 0046 0AA3     		adr	r3, .L403
 4139 0048 D3E90023 		ldrd	r2, [r3]
 4140 004c FFF7FEFF 		bl	__aeabi_dmul
 4141              	.LVL488:
 4142 0050 0246     		mov	r2, r0
 4143 0052 0B46     		mov	r3, r1
 4144 0054 4046     		mov	r0, r8
 4145 0056 4946     		mov	r1, r9
 4146 0058 FFF7FEFF 		bl	__aeabi_dcmplt
 4147              	.LVL489:
 4148 005c 0028     		cmp	r0, #0
 4149 005e E1D0     		beq	.L397
 4150              		.loc 1 1424 0
 4151 0060 0023     		movs	r3, #0
 4152 0062 6382     		strh	r3, [r4, #18]	@ movhi
 4153              	.L395:
 4154              		.loc 1 1431 0
 4155 0064 FF23     		movs	r3, #255
 4156 0066 A382     		strh	r3, [r4, #20]	@ movhi
 4157 0068 BDE87083 		pop	{r4, r5, r6, r8, r9, pc}
 4158              	.LVL490:
 4159              	.L404:
 4160 006c AFF30080 		.align	3
ARM GAS  /var/folders/6q/x_mk5n_j3p7_c40r_2k_78980000gn/T//ccu43oO2.s 			page 74


 4161              	.L403:
 4162 0070 CDCCCCCC 		.word	3435973837
 4163 0074 CCCCEC3F 		.word	1072483532
 4164              		.cfi_endproc
 4165              	.LFE105:
 4166              		.size	SmartMotorMonitorCurrent, .-SmartMotorMonitorCurrent
 4167              		.section	.text.SmartMotorControllerSetLed,"ax",%progbits
 4168              		.align	2
 4169              		.p2align 4,,15
 4170              		.global	SmartMotorControllerSetLed
 4171              		.thumb
 4172              		.thumb_func
 4173              		.type	SmartMotorControllerSetLed, %function
 4174              	SmartMotorControllerSetLed:
 4175              	.LFB106:
 4176              		.loc 1 1450 0
 4177              		.cfi_startproc
 4178              		@ args = 0, pretend = 0, frame = 0
 4179              		@ frame_needed = 0, uses_anonymous_args = 0
 4180              		@ link register save eliminated.
 4181              	.LVL491:
 4182 0000 70B4     		push	{r4, r5, r6}
 4183              		.cfi_def_cfa_offset 12
 4184              		.cfi_offset 4, -12
 4185              		.cfi_offset 5, -8
 4186              		.cfi_offset 6, -4
 4187              		.loc 1 1455 0
 4188 0002 90F93260 		ldrsb	r6, [r0, #50]
 4189 0006 002E     		cmp	r6, #0
 4190 0008 10DB     		blt	.L405
 4191              		.loc 1 1458 0
 4192 000a B0F93040 		ldrsh	r4, [r0, #48]
 4193              	.LVL492:
 4194 000e 021F     		subs	r2, r0, #4
 4195 0010 00F11001 		add	r1, r0, #16
 4196              	.LVL493:
 4197              	.L408:
 4198              		.loc 1 1462 0
 4199 0014 52F8043F 		ldr	r3, [r2, #4]!
 4200              	.LVL494:
 4201              		.loc 1 1464 0
 4202 0018 2BB1     		cbz	r3, .L407
 4203              		.loc 1 1465 0
 4204 001a B3F97450 		ldrsh	r5, [r3, #116]
 4205 001e B3F91230 		ldrsh	r3, [r3, #18]
 4206              	.LVL495:
 4207 0022 2B44     		add	r3, r3, r5
 4208 0024 1C44     		add	r4, r4, r3
 4209              	.LVL496:
 4210              	.L407:
 4211              		.loc 1 1460 0 discriminator 2
 4212 0026 8A42     		cmp	r2, r1
 4213 0028 F4D1     		bne	.L408
 4214              		.loc 1 1468 0
 4215 002a 0CB9     		cbnz	r4, .L417
 4216              	.LVL497:
 4217              	.L405:
ARM GAS  /var/folders/6q/x_mk5n_j3p7_c40r_2k_78980000gn/T//ccu43oO2.s 			page 75


 4218              		.loc 1 1470 0
 4219 002c 70BC     		pop	{r4, r5, r6}
 4220              		.cfi_remember_state
 4221              		.cfi_restore 6
 4222              		.cfi_restore 5
 4223              		.cfi_restore 4
 4224              		.cfi_def_cfa_offset 0
 4225 002e 7047     		bx	lr
 4226              	.LVL498:
 4227              	.L417:
 4228              		.cfi_restore_state
 4229              		.loc 1 1469 0
 4230 0030 3046     		mov	r0, r6
 4231              	.LVL499:
 4232              		.loc 1 1470 0
 4233 0032 70BC     		pop	{r4, r5, r6}
 4234              		.cfi_restore 6
 4235              		.cfi_restore 5
 4236              		.cfi_restore 4
 4237              		.cfi_def_cfa_offset 0
 4238              	.LVL500:
 4239              		.loc 1 1469 0
 4240 0034 0021     		movs	r1, #0
 4241              	.LVL501:
 4242 0036 FFF7FEBF 		b	vexDigitalPinSet
 4243              	.LVL502:
 4244              		.cfi_endproc
 4245              	.LFE106:
 4246              		.size	SmartMotorControllerSetLed, .-SmartMotorControllerSetLed
 4247 003a 00BF     		.section	.text.SmartMotorTask,"ax",%progbits
 4248              		.align	2
 4249              		.p2align 4,,15
 4250              		.global	SmartMotorTask
 4251              		.thumb
 4252              		.thumb_func
 4253              		.type	SmartMotorTask, %function
 4254              	SmartMotorTask:
 4255              	.LFB107:
 4256              		.loc 1 1483 0
 4257              		.cfi_startproc
 4258              		@ args = 0, pretend = 0, frame = 8
 4259              		@ frame_needed = 0, uses_anonymous_args = 0
 4260              	.LVL503:
 4261 0000 2DE9F04F 		push	{r4, r5, r6, r7, r8, r9, r10, fp, lr}
 4262              		.cfi_def_cfa_offset 36
 4263              		.cfi_offset 4, -36
 4264              		.cfi_offset 5, -32
 4265              		.cfi_offset 6, -28
 4266              		.cfi_offset 7, -24
 4267              		.cfi_offset 8, -20
 4268              		.cfi_offset 9, -16
 4269              		.cfi_offset 10, -12
 4270              		.cfi_offset 11, -8
 4271              		.cfi_offset 14, -4
 4272              		.loc 1 1495 0
 4273 0004 9C4F     		ldr	r7, .L459+8
 4274              		.loc 1 1483 0
ARM GAS  /var/folders/6q/x_mk5n_j3p7_c40r_2k_78980000gn/T//ccu43oO2.s 			page 76


 4275 0006 83B0     		sub	sp, sp, #12
 4276              		.cfi_def_cfa_offset 48
 4277              		.loc 1 1493 0
 4278 0008 0121     		movs	r1, #1
 4279 000a 9C48     		ldr	r0, .L459+12
 4280              	.LVL504:
 4281 000c FFF7FEFF 		bl	vexTaskRegisterPersistant
 4282              	.LVL505:
 4283              		.loc 1 1495 0
 4284 0010 BB69     		ldr	r3, [r7, #24]
 4285 0012 5B7F     		ldrb	r3, [r3, #29]	@ zero_extendqisi2
 4286 0014 03F00403 		and	r3, r3, #4
 4287 0018 002B     		cmp	r3, #0
 4288 001a 40F01E81 		bne	.L453
 4289 001e 03F0FF06 		and	r6, r3, #255
 4290 0022 DFF87CA2 		ldr	r10, .L459+48
 4291 0026 07E0     		b	.L436
 4292              	.LVL506:
 4293              	.L427:
 4294              	.LBB183:
 4295              		.loc 1 1591 0
 4296 0028 0A20     		movs	r0, #10
 4297 002a FFF7FEFF 		bl	vexSleep
 4298              	.LVL507:
 4299              	.LBE183:
 4300              		.loc 1 1495 0
 4301 002e BB69     		ldr	r3, [r7, #24]
 4302 0030 5B7F     		ldrb	r3, [r3, #29]	@ zero_extendqisi2
 4303 0032 5B07     		lsls	r3, r3, #29
 4304 0034 00F11181 		bmi	.L453
 4305              	.LVL508:
 4306              	.L436:
 4307              	.LBB199:
 4308              		.loc 1 1502 0
 4309 0038 FFF7FEFF 		bl	vexSpiGetMainBattery
 4310              	.LVL509:
 4311 003c FFF7FEFF 		bl	__aeabi_i2d
 4312              	.LVL510:
 4313 0040 0022     		movs	r2, #0
 4314 0042 8F4B     		ldr	r3, .L459+16
 4315 0044 FFF7FEFF 		bl	__aeabi_ddiv
 4316              	.LVL511:
 4317 0048 FFF7FEFF 		bl	__aeabi_d2f
 4318              	.LVL512:
 4319              		.loc 1 1507 0
 4320 004c 7501     		lsls	r5, r6, #5
 4321 004e 8D4B     		ldr	r3, .L459+20
 4322 0050 AC1B     		subs	r4, r5, r6
 4323 0052 03EB8404 		add	r4, r3, r4, lsl #2
 4324 0056 8C4B     		ldr	r3, .L459+24
 4325              		.loc 1 1508 0
 4326 0058 8B4A     		ldr	r2, .L459+24
 4327              		.loc 1 1507 0
 4328 005a A16F     		ldr	r1, [r4, #120]
 4329              		.loc 1 1502 0
 4330 005c 8046     		mov	r8, r0
 4331              	.LVL513:
ARM GAS  /var/folders/6q/x_mk5n_j3p7_c40r_2k_78980000gn/T//ccu43oO2.s 			page 77


 4332              		.loc 1 1507 0
 4333 005e D868     		ldr	r0, [r3, #12]
 4334              	.LVL514:
 4335              		.loc 1 1508 0
 4336 0060 D268     		ldr	r2, [r2, #12]
 4337              		.loc 1 1512 0
 4338 0062 A378     		ldrb	r3, [r4, #2]	@ zero_extendqisi2
 4339              		.loc 1 1507 0
 4340 0064 411A     		subs	r1, r0, r1
 4341 0066 CAF80010 		str	r1, [r10]
 4342              		.loc 1 1509 0
 4343 006a A180     		strh	r1, [r4, #4]	@ movhi
 4344              		.loc 1 1508 0
 4345 006c A267     		str	r2, [r4, #120]
 4346              		.loc 1 1512 0
 4347 006e 002B     		cmp	r3, #0
 4348 0070 42D0     		beq	.L421
 4349              		.loc 1 1514 0
 4350 0072 B4F91C00 		ldrsh	r0, [r4, #28]
 4351 0076 0028     		cmp	r0, #0
 4352 0078 C0F2F380 		blt	.L422
 4353              		.loc 1 1516 0
 4354 007c B0F5006F 		cmp	r0, #2048
 4355 0080 80F2A480 		bge	.L423
 4356              		.loc 1 1517 0
 4357 0084 2046     		mov	r0, r4
 4358 0086 FFF7FEFF 		bl	SmartMotorSpeed
 4359              	.LVL515:
 4360              	.L424:
 4361              		.loc 1 1524 0
 4362 008a 4146     		mov	r1, r8
 4363 008c 2046     		mov	r0, r4
 4364 008e FFF7FEFF 		bl	SmartMotorCurrent
 4365              	.LVL516:
 4366              	.LBB184:
 4367              	.LBB185:
 4368              		.loc 1 1254 0
 4369 0092 7C4B     		ldr	r3, .L459+20
 4370 0094 AD1B     		subs	r5, r5, r6
 4371 0096 03EB8505 		add	r5, r3, r5, lsl #2
 4372 009a 296D     		ldr	r1, [r5, #80]	@ float
 4373 009c D5F86490 		ldr	r9, [r5, #100]	@ float
 4374              	.LVL517:
 4375              		.loc 1 1256 0
 4376 00a0 0846     		mov	r0, r1
 4377 00a2 FFF7FEFF 		bl	__aeabi_fmul
 4378              	.LVL518:
 4379 00a6 A96E     		ldr	r1, [r5, #104]	@ float
 4380 00a8 FFF7FEFF 		bl	__aeabi_fmul
 4381              	.LVL519:
 4382 00ac 296F     		ldr	r1, [r5, #112]	@ float
 4383 00ae 8346     		mov	fp, r0
 4384 00b0 4846     		mov	r0, r9
 4385 00b2 FFF7FEFF 		bl	__aeabi_fsub
 4386              	.LVL520:
 4387 00b6 0146     		mov	r1, r0
 4388 00b8 5846     		mov	r0, fp
ARM GAS  /var/folders/6q/x_mk5n_j3p7_c40r_2k_78980000gn/T//ccu43oO2.s 			page 78


 4389 00ba FFF7FEFF 		bl	__aeabi_fsub
 4390              	.LVL521:
 4391 00be E96E     		ldr	r1, [r5, #108]	@ float
 4392 00c0 FFF7FEFF 		bl	__aeabi_fmul
 4393              	.LVL522:
 4394 00c4 8346     		mov	fp, r0
 4395 00c6 DAF80000 		ldr	r0, [r10]
 4396              	.LVL523:
 4397 00ca FFF7FEFF 		bl	__aeabi_i2f
 4398              	.LVL524:
 4399 00ce 0146     		mov	r1, r0
 4400 00d0 5846     		mov	r0, fp
 4401 00d2 FFF7FEFF 		bl	__aeabi_fmul
 4402              	.LVL525:
 4403 00d6 4946     		mov	r1, r9
 4404 00d8 FFF7FEFF 		bl	__aeabi_fadd
 4405              	.LVL526:
 4406              	.LBE185:
 4407              	.LBE184:
 4408              		.loc 1 1526 0
 4409 00dc DFF8C491 		ldr	r9, .L459+52
 4410              	.LBB187:
 4411              	.LBB186:
 4412              		.loc 1 1256 0
 4413 00e0 6866     		str	r0, [r5, #100]	@ float
 4414              	.LVL527:
 4415              	.LBE186:
 4416              	.LBE187:
 4417              		.loc 1 1526 0
 4418 00e2 B9F90030 		ldrsh	r3, [r9]
 4419 00e6 002B     		cmp	r3, #0
 4420 00e8 40F0B280 		bne	.L456
 4421              	.L425:
 4422              		.loc 1 1528 0
 4423 00ec 674B     		ldr	r3, .L459+28
 4424 00ee B3F90030 		ldrsh	r3, [r3]
 4425 00f2 002B     		cmp	r3, #0
 4426 00f4 40F0A780 		bne	.L457
 4427              	.L421:
 4428              		.loc 1 1537 0
 4429 00f8 0136     		adds	r6, r6, #1
 4430              	.LVL528:
 4431 00fa 0A2E     		cmp	r6, #10
 4432 00fc 94D1     		bne	.L427
 4433 00fe 644E     		ldr	r6, .L459+32
 4434              	.LVL529:
 4435 0100 DFF8A091 		ldr	r9, .L459+52
 4436 0104 3446     		mov	r4, r6
 4437 0106 06F19C05 		add	r5, r6, #156
 4438 010a CDF80080 		str	r8, [sp]	@ float
 4439              	.LVL530:
 4440              	.L430:
 4441              	.LBB188:
 4442              	.LBB189:
 4443              		.loc 1 1548 0
 4444 010e 2046     		mov	r0, r4
 4445 0110 FFF7FEFF 		bl	SmartMotorControllerCurrent
ARM GAS  /var/folders/6q/x_mk5n_j3p7_c40r_2k_78980000gn/T//ccu43oO2.s 			page 79


 4446              	.LVL531:
 4447              	.LBB190:
 4448              	.LBB191:
 4449              		.loc 1 1275 0
 4450 0114 6169     		ldr	r1, [r4, #20]	@ float
 4451 0116 D4F820B0 		ldr	fp, [r4, #32]	@ float
 4452              	.LVL532:
 4453              		.loc 1 1277 0
 4454 011a 0846     		mov	r0, r1
 4455 011c FFF7FEFF 		bl	__aeabi_fmul
 4456              	.LVL533:
 4457 0120 616A     		ldr	r1, [r4, #36]	@ float
 4458 0122 FFF7FEFF 		bl	__aeabi_fmul
 4459              	.LVL534:
 4460 0126 E16A     		ldr	r1, [r4, #44]	@ float
 4461 0128 8046     		mov	r8, r0
 4462 012a 5846     		mov	r0, fp
 4463 012c FFF7FEFF 		bl	__aeabi_fsub
 4464              	.LVL535:
 4465 0130 0146     		mov	r1, r0
 4466 0132 4046     		mov	r0, r8
 4467 0134 FFF7FEFF 		bl	__aeabi_fsub
 4468              	.LVL536:
 4469 0138 A16A     		ldr	r1, [r4, #40]	@ float
 4470 013a FFF7FEFF 		bl	__aeabi_fmul
 4471              	.LVL537:
 4472 013e 8046     		mov	r8, r0
 4473 0140 DAF80000 		ldr	r0, [r10]
 4474              	.LVL538:
 4475 0144 FFF7FEFF 		bl	__aeabi_i2f
 4476              	.LVL539:
 4477 0148 0146     		mov	r1, r0
 4478 014a 4046     		mov	r0, r8
 4479 014c FFF7FEFF 		bl	__aeabi_fmul
 4480              	.LVL540:
 4481 0150 5946     		mov	r1, fp
 4482 0152 FFF7FEFF 		bl	__aeabi_fadd
 4483              	.LVL541:
 4484              	.LBE191:
 4485              	.LBE190:
 4486              		.loc 1 1551 0
 4487 0156 B9F90030 		ldrsh	r3, [r9]
 4488              	.LBB193:
 4489              	.LBB192:
 4490              		.loc 1 1277 0
 4491 015a 2062     		str	r0, [r4, #32]	@ float
 4492              	.LVL542:
 4493              	.LBE192:
 4494              	.LBE193:
 4495              		.loc 1 1551 0
 4496 015c 8BBB     		cbnz	r3, .L458
 4497              	.L428:
 4498              		.loc 1 1557 0
 4499 015e 94F93200 		ldrsb	r0, [r4, #50]
 4500              		.loc 1 1558 0
 4501 0162 0121     		movs	r1, #1
 4502              		.loc 1 1557 0
ARM GAS  /var/folders/6q/x_mk5n_j3p7_c40r_2k_78980000gn/T//ccu43oO2.s 			page 80


 4503 0164 0028     		cmp	r0, #0
 4504 0166 04F13404 		add	r4, r4, #52
 4505              	.LVL543:
 4506 016a 01DB     		blt	.L429
 4507              		.loc 1 1558 0
 4508 016c FFF7FEFF 		bl	vexDigitalPinSet
 4509              	.LVL544:
 4510              	.L429:
 4511              	.LBE189:
 4512              		.loc 1 1544 0 discriminator 2
 4513 0170 AC42     		cmp	r4, r5
 4514 0172 CCD1     		bne	.L430
 4515              	.L446:
 4516              	.LVL545:
 4517              	.LBB194:
 4518              		.loc 1 1565 0
 4519 0174 96F93230 		ldrsb	r3, [r6, #50]
 4520 0178 002B     		cmp	r3, #0
 4521 017a 02DB     		blt	.L431
 4522              		.loc 1 1566 0
 4523 017c 3046     		mov	r0, r6
 4524 017e FFF7FEFF 		bl	SmartMotorControllerSetLed
 4525              	.LVL546:
 4526              	.L431:
 4527 0182 3436     		adds	r6, r6, #52
 4528              	.LBE194:
 4529              		.loc 1 1562 0 discriminator 2
 4530 0184 AE42     		cmp	r6, r5
 4531 0186 F5D1     		bne	.L446
 4532              	.LVL547:
 4533              		.loc 1 1571 0
 4534 0188 414B     		ldr	r3, .L459+32
 4535 018a 93F99B00 		ldrsb	r0, [r3, #155]
 4536 018e 1C46     		mov	r4, r3
 4537              	.LVL548:
 4538 0190 0028     		cmp	r0, #0
 4539 0192 14DB     		blt	.L455
 4540              	.LBB195:
 4541              		.loc 1 1574 0
 4542 0194 FFF7FEFF 		bl	vexAdcGet
 4543              	.LVL549:
 4544              		.loc 1 1576 0
 4545 0198 FFF7FEFF 		bl	__aeabi_i2d
 4546              	.LVL550:
 4547 019c 34A3     		adr	r3, .L459
 4548 019e D3E90023 		ldrd	r2, [r3]
 4549 01a2 FFF7FEFF 		bl	__aeabi_ddiv
 4550              	.LVL551:
 4551 01a6 FFF7FEFF 		bl	__aeabi_d2f
 4552              	.LVL552:
 4553 01aa 3A49     		ldr	r1, .L459+36
 4554 01ac FFF7FEFF 		bl	__aeabi_fcmplt
 4555              	.LVL553:
 4556 01b0 28B1     		cbz	r0, .L455
 4557              		.loc 1 1579 0
 4558 01b2 394B     		ldr	r3, .L459+40
 4559 01b4 C4F88830 		str	r3, [r4, #136]	@ float
ARM GAS  /var/folders/6q/x_mk5n_j3p7_c40r_2k_78980000gn/T//ccu43oO2.s 			page 81


 4560              		.loc 1 1581 0
 4561 01b8 0023     		movs	r3, #0
 4562 01ba C4F88430 		str	r3, [r4, #132]	@ float
 4563              	.L455:
 4564              	.LBE195:
 4565              		.loc 1 1539 0
 4566 01be 0026     		movs	r6, #0
 4567 01c0 32E7     		b	.L427
 4568              	.LVL554:
 4569              	.L458:
 4570              	.LBB196:
 4571              		.loc 1 1552 0
 4572 01c2 0099     		ldr	r1, [sp]	@ float
 4573 01c4 2046     		mov	r0, r4
 4574 01c6 FFF7FEFF 		bl	SmartMotorControllerMonitorPtc
 4575              	.LVL555:
 4576 01ca C8E7     		b	.L428
 4577              	.LVL556:
 4578              	.L423:
 4579              	.LBE196:
 4580              	.LBE188:
 4581              	.LBB197:
 4582              	.LBB198:
 4583              		.loc 1 1018 0
 4584 01cc C3B2     		uxtb	r3, r0
 4585 01ce 072B     		cmp	r3, #7
 4586 01d0 3FF65BAF 		bhi	.L424
 4587              		.loc 1 1022 0
 4588 01d4 40B2     		sxtb	r0, r0
 4589 01d6 0091     		str	r1, [sp]
 4590 01d8 FFF7FEFF 		bl	vexAdcGet
 4591              	.LVL557:
 4592 01dc 8346     		mov	fp, r0
 4593              		.loc 1 1025 0
 4594 01de A06A     		ldr	r0, [r4, #40]
 4595              		.loc 1 1022 0
 4596 01e0 C4F824B0 		str	fp, [r4, #36]
 4597              		.loc 1 1025 0
 4598 01e4 C0EB0B00 		rsb	r0, r0, fp
 4599 01e8 FFF7FEFF 		bl	__aeabi_i2f
 4600              	.LVL558:
 4601 01ec 8146     		mov	r9, r0
 4602              		.loc 1 1029 0
 4603 01ee 0099     		ldr	r1, [sp]
 4604              		.loc 1 1026 0
 4605 01f0 C4F828B0 		str	fp, [r4, #40]
 4606              		.loc 1 1029 0
 4607 01f4 0846     		mov	r0, r1
 4608              		.loc 1 1025 0
 4609 01f6 C4F82C90 		str	r9, [r4, #44]	@ float
 4610              		.loc 1 1029 0
 4611 01fa FFF7FEFF 		bl	__aeabi_i2d
 4612              	.LVL559:
 4613 01fe 0246     		mov	r2, r0
 4614 0200 0B46     		mov	r3, r1
 4615 0202 0020     		movs	r0, #0
 4616 0204 1E49     		ldr	r1, .L459+16
ARM GAS  /var/folders/6q/x_mk5n_j3p7_c40r_2k_78980000gn/T//ccu43oO2.s 			page 82


 4617 0206 FFF7FEFF 		bl	__aeabi_ddiv
 4618              	.LVL560:
 4619 020a CDE90001 		strd	r0, [sp]
 4620              	.LVL561:
 4621 020e 4846     		mov	r0, r9
 4622 0210 FFF7FEFF 		bl	__aeabi_f2d
 4623              	.LVL562:
 4624 0214 0246     		mov	r2, r0
 4625 0216 0B46     		mov	r3, r1
 4626 0218 DDE90001 		ldrd	r0, [sp]
 4627 021c FFF7FEFF 		bl	__aeabi_dmul
 4628              	.LVL563:
 4629 0220 0022     		movs	r2, #0
 4630 0222 1E4B     		ldr	r3, .L459+44
 4631 0224 FFF7FEFF 		bl	__aeabi_dmul
 4632              	.LVL564:
 4633 0228 CDE90001 		strd	r0, [sp]
 4634 022c 206A     		ldr	r0, [r4, #32]	@ float
 4635 022e FFF7FEFF 		bl	__aeabi_f2d
 4636              	.LVL565:
 4637 0232 0246     		mov	r2, r0
 4638 0234 0B46     		mov	r3, r1
 4639 0236 DDE90001 		ldrd	r0, [sp]
 4640 023a FFF7FEFF 		bl	__aeabi_ddiv
 4641              	.LVL566:
 4642 023e FFF7FEFF 		bl	__aeabi_d2f
 4643              	.LVL567:
 4644 0242 2063     		str	r0, [r4, #48]	@ float
 4645 0244 21E7     		b	.L424
 4646              	.LVL568:
 4647              	.L457:
 4648              	.LBE198:
 4649              	.LBE197:
 4650              		.loc 1 1529 0
 4651 0246 2046     		mov	r0, r4
 4652 0248 4146     		mov	r1, r8
 4653 024a FFF7FEFF 		bl	SmartMotorMonitorCurrent
 4654              	.LVL569:
 4655 024e 53E7     		b	.L421
 4656              	.L456:
 4657              		.loc 1 1527 0
 4658 0250 4146     		mov	r1, r8
 4659 0252 2046     		mov	r0, r4
 4660 0254 FFF7FEFF 		bl	SmartMotorMonitorPtc
 4661              	.LVL570:
 4662 0258 48E7     		b	.L425
 4663              	.LVL571:
 4664              	.L453:
 4665              	.LBE199:
 4666              		.loc 1 1595 0
 4667 025a 0020     		movs	r0, #0
 4668 025c 03B0     		add	sp, sp, #12
 4669              		.cfi_remember_state
 4670              		.cfi_def_cfa_offset 36
 4671              		@ sp needed
 4672 025e BDE8F08F 		pop	{r4, r5, r6, r7, r8, r9, r10, fp, pc}
 4673              	.LVL572:
ARM GAS  /var/folders/6q/x_mk5n_j3p7_c40r_2k_78980000gn/T//ccu43oO2.s 			page 83


 4674              	.L422:
 4675              		.cfi_restore_state
 4676              	.LBB200:
 4677              		.loc 1 1522 0
 4678 0262 2046     		mov	r0, r4
 4679 0264 FFF7FEFF 		bl	SmartMotorSimulateSpeed
 4680              	.LVL573:
 4681 0268 0FE7     		b	.L424
 4682              	.L460:
 4683 026a 00BFAFF3 		.align	3
 4683      0080
 4684              	.L459:
 4685 0270 00000000 		.word	0
 4686 0274 00E07040 		.word	1081139200
 4687 0278 00000000 		.word	rlist
 4688 027c 98000000 		.word	.LC9
 4689 0280 00408F40 		.word	1083129856
 4690 0284 00000000 		.word	.LANCHOR0
 4691 0288 00000000 		.word	vtlist
 4692 028c 00000000 		.word	.LANCHOR2
 4693 0290 00000000 		.word	.LANCHOR3
 4694 0294 00004040 		.word	1077936128
 4695 0298 0000DC42 		.word	1121714176
 4696 029c 00004E40 		.word	1078853632
 4697 02a0 00000000 		.word	.LANCHOR5
 4698 02a4 00000000 		.word	.LANCHOR1
 4699              	.LBE200:
 4700              		.cfi_endproc
 4701              	.LFE107:
 4702              		.size	SmartMotorTask, .-SmartMotorTask
 4703              		.section	.bss.sMotors,"aw",%nobits
 4704              		.align	2
 4705              		.set	.LANCHOR0,. + 0
 4706              		.type	sMotors, %object
 4707              		.size	sMotors, 1240
 4708              	sMotors:
 4709 0000 00000000 		.space	1240
 4709      00000000 
 4709      00000000 
 4709      00000000 
 4709      00000000 
 4710              		.section	.bss.PtcLimitEnabled,"aw",%nobits
 4711              		.align	1
 4712              		.set	.LANCHOR1,. + 0
 4713              		.type	PtcLimitEnabled, %object
 4714              		.size	PtcLimitEnabled, 2
 4715              	PtcLimitEnabled:
 4716 0000 0000     		.space	2
 4717              		.section	.bss.CurrentLimitEnabled,"aw",%nobits
 4718              		.align	1
 4719              		.set	.LANCHOR2,. + 0
 4720              		.type	CurrentLimitEnabled, %object
 4721              		.size	CurrentLimitEnabled, 2
 4722              	CurrentLimitEnabled:
 4723 0000 0000     		.space	2
 4724              		.section	.data.delayTimeMs.8947,"aw",%progbits
 4725              		.align	2
ARM GAS  /var/folders/6q/x_mk5n_j3p7_c40r_2k_78980000gn/T//ccu43oO2.s 			page 84


 4726              		.set	.LANCHOR5,. + 0
 4727              		.type	delayTimeMs.8947, %object
 4728              		.size	delayTimeMs.8947, 4
 4729              	delayTimeMs.8947:
 4730 0000 64000000 		.word	100
 4731              		.section	.rodata.str1.4,"aMS",%progbits,1
 4732              		.align	2
 4733              	.LC0:
 4734 0000 736C6577 		.ascii	"slewMotor\000"
 4734      4D6F746F 
 4734      7200
 4735 000a 0000     		.space	2
 4736              	.LC1:
 4737 000c 436F7274 		.ascii	"Cortex ports 1 - 5  - \000"
 4737      65782070 
 4737      6F727473 
 4737      2031202D 
 4737      20352020 
 4738 0023 00       		.space	1
 4739              	.LC2:
 4740 0024 436F7274 		.ascii	"Cortex ports 6 - 10 - \000"
 4740      65782070 
 4740      6F727473 
 4740      2036202D 
 4740      20313020 
 4741 003b 00       		.space	1
 4742              	.LC3:
 4743 003c 506F7765 		.ascii	"Power Expander      - \000"
 4743      72204578 
 4743      70616E64 
 4743      65722020 
 4743      20202020 
 4744 0053 00       		.space	1
 4745              	.LC4:
 4746 0054 43757272 		.ascii	"Current:%5.2f \000"
 4746      656E743A 
 4746      25352E32 
 4746      662000
 4747 0063 00       		.space	1
 4748              	.LC5:
 4749 0064 54656D70 		.ascii	"Temp:%6.2f \000"
 4749      3A25362E 
 4749      32662000 
 4750              	.LC6:
 4751 0070 53746174 		.ascii	"Status:%2d \000"
 4751      75733A25 
 4751      32642000 
 4752              	.LC7:
 4753 007c 0D0A00   		.ascii	"\015\012\000"
 4754 007f 00       		.space	1
 4755              	.LC8:
 4756 0080 20202020 		.ascii	"      Motor Port: %d - \000"
 4756      20204D6F 
 4756      746F7220 
 4756      506F7274 
 4756      3A202564 
 4757              	.LC9:
ARM GAS  /var/folders/6q/x_mk5n_j3p7_c40r_2k_78980000gn/T//ccu43oO2.s 			page 85


 4758 0098 736D6172 		.ascii	"smartMotor\000"
 4758      744D6F74 
 4758      6F7200
 4759              		.section	.rodata.spd_table.8862,"a",%progbits
 4760              		.align	2
 4761              		.set	.LANCHOR4,. + 0
 4762              		.type	spd_table.8862, %object
 4763              		.size	spd_table.8862, 20
 4764              	spd_table.8862:
 4765 0000 0000     		.short	0
 4766 0002 1A00     		.short	26
 4767 0004 3A00     		.short	58
 4768 0006 4D00     		.short	77
 4769 0008 5500     		.short	85
 4770 000a 5C00     		.short	92
 4771 000c 5F00     		.short	95
 4772 000e 6200     		.short	98
 4773 0010 6400     		.short	100
 4774 0012 6400     		.short	100
 4775              		.section	.bss.sPorts,"aw",%nobits
 4776              		.align	2
 4777              		.set	.LANCHOR3,. + 0
 4778              		.type	sPorts, %object
 4779              		.size	sPorts, 156
 4780              	sPorts:
 4781 0000 00000000 		.space	156
 4781      00000000 
 4781      00000000 
 4781      00000000 
 4781      00000000 
 4782              		.text
 4783              	.Letext0:
 4784              		.file 3 "/Users/Luca/src/vexilla/src/gcc-arm-none-eabi-5_4-2016q3/arm-none-eabi/include/machine/_d
 4785              		.file 4 "/Users/Luca/src/vexilla/src/gcc-arm-none-eabi-5_4-2016q3/arm-none-eabi/include/sys/_stdin
 4786              		.file 5 "../ChibiOS/os/ports/GCC/ARMCMx/chtypes.h"
 4787              		.file 6 "../ChibiOS/os/kernel/include/chlists.h"
 4788              		.file 7 "../ChibiOS/os/kernel/include/chthreads.h"
 4789              		.file 8 "../ChibiOS/os/ports/GCC/ARMCMx/chcore_v7m.h"
 4790              		.file 9 "../ChibiOS/os/kernel/include/chvt.h"
 4791              		.file 10 "../ChibiOS/os/kernel/include/chschd.h"
 4792              		.file 11 "../ChibiOS/os/kernel/include/chmtx.h"
 4793              		.file 12 "../convex-vexilla/cortex/fw/vexanalog.h"
 4794              		.file 13 "../convex-vexilla/cortex/fw/vexdigital.h"
 4795              		.file 14 "../convex-vexilla/cortex/fw/vexmotor.h"
 4796              		.file 15 "../convex-vexilla/cortex/fw/vexime.h"
 4797              		.file 16 "../convex-vexilla/cortex/opt/smartmotor.h"
 4798              		.file 17 "../ChibiOS/os/ports/common/ARMCMx/CMSIS/include/core_cm3.h"
 4799              		.file 18 "../convex-vexilla/cortex/fw/vex.h"
 4800              		.file 19 "../convex-vexilla/cortex/opt/robotc_glue.h"
 4801              		.file 20 "../convex-vexilla/cortex/fw/vexprintf.h"
 4802              		.file 21 "../convex-vexilla/cortex/fw/vexspi.h"
 4803              		.section	.debug_info,"",%progbits
 4804              	.Ldebug_info0:
 4805 0000 CE1D0000 		.4byte	0x1dce
 4806 0004 0400     		.2byte	0x4
 4807 0006 00000000 		.4byte	.Ldebug_abbrev0
 4808 000a 04       		.byte	0x4
ARM GAS  /var/folders/6q/x_mk5n_j3p7_c40r_2k_78980000gn/T//ccu43oO2.s 			page 86


 4809 000b 01       		.uleb128 0x1
 4810 000c 81040000 		.4byte	.LASF271
 4811 0010 0C       		.byte	0xc
 4812 0011 D5020000 		.4byte	.LASF272
 4813 0015 5B050000 		.4byte	.LASF273
 4814 0019 C0020000 		.4byte	.Ldebug_ranges0+0x2c0
 4815 001d 00000000 		.4byte	0
 4816 0021 00000000 		.4byte	.Ldebug_line0
 4817 0025 02       		.uleb128 0x2
 4818 0026 04       		.byte	0x4
 4819 0027 04       		.byte	0x4
 4820 0028 B5010000 		.4byte	.LASF0
 4821 002c 02       		.uleb128 0x2
 4822 002d 08       		.byte	0x8
 4823 002e 04       		.byte	0x4
 4824 002f 060E0000 		.4byte	.LASF1
 4825 0033 03       		.uleb128 0x3
 4826 0034 04       		.byte	0x4
 4827 0035 05       		.byte	0x5
 4828 0036 696E7400 		.ascii	"int\000"
 4829 003a 02       		.uleb128 0x2
 4830 003b 02       		.byte	0x2
 4831 003c 05       		.byte	0x5
 4832 003d 380A0000 		.4byte	.LASF2
 4833 0041 02       		.uleb128 0x2
 4834 0042 04       		.byte	0x4
 4835 0043 07       		.byte	0x7
 4836 0044 B9000000 		.4byte	.LASF3
 4837 0048 02       		.uleb128 0x2
 4838 0049 08       		.byte	0x8
 4839 004a 05       		.byte	0x5
 4840 004b C7050000 		.4byte	.LASF4
 4841 004f 02       		.uleb128 0x2
 4842 0050 08       		.byte	0x8
 4843 0051 04       		.byte	0x4
 4844 0052 64090000 		.4byte	.LASF5
 4845 0056 02       		.uleb128 0x2
 4846 0057 01       		.byte	0x1
 4847 0058 06       		.byte	0x6
 4848 0059 8E0D0000 		.4byte	.LASF6
 4849 005d 04       		.uleb128 0x4
 4850 005e 190B0000 		.4byte	.LASF9
 4851 0062 03       		.byte	0x3
 4852 0063 1D       		.byte	0x1d
 4853 0064 68000000 		.4byte	0x68
 4854 0068 02       		.uleb128 0x2
 4855 0069 01       		.byte	0x1
 4856 006a 08       		.byte	0x8
 4857 006b 3D0C0000 		.4byte	.LASF7
 4858 006f 02       		.uleb128 0x2
 4859 0070 02       		.byte	0x2
 4860 0071 07       		.byte	0x7
 4861 0072 A80D0000 		.4byte	.LASF8
 4862 0076 04       		.uleb128 0x4
 4863 0077 6F040000 		.4byte	.LASF10
 4864 007b 03       		.byte	0x3
 4865 007c 3F       		.byte	0x3f
ARM GAS  /var/folders/6q/x_mk5n_j3p7_c40r_2k_78980000gn/T//ccu43oO2.s 			page 87


 4866 007d 81000000 		.4byte	0x81
 4867 0081 02       		.uleb128 0x2
 4868 0082 04       		.byte	0x4
 4869 0083 05       		.byte	0x5
 4870 0084 610A0000 		.4byte	.LASF11
 4871 0088 04       		.uleb128 0x4
 4872 0089 4B0C0000 		.4byte	.LASF12
 4873 008d 03       		.byte	0x3
 4874 008e 41       		.byte	0x41
 4875 008f 93000000 		.4byte	0x93
 4876 0093 02       		.uleb128 0x2
 4877 0094 04       		.byte	0x4
 4878 0095 07       		.byte	0x7
 4879 0096 890B0000 		.4byte	.LASF13
 4880 009a 02       		.uleb128 0x2
 4881 009b 08       		.byte	0x8
 4882 009c 07       		.byte	0x7
 4883 009d 9E010000 		.4byte	.LASF14
 4884 00a1 02       		.uleb128 0x2
 4885 00a2 04       		.byte	0x4
 4886 00a3 07       		.byte	0x7
 4887 00a4 780B0000 		.4byte	.LASF15
 4888 00a8 05       		.uleb128 0x5
 4889 00a9 04       		.byte	0x4
 4890 00aa 02       		.uleb128 0x2
 4891 00ab 01       		.byte	0x1
 4892 00ac 08       		.byte	0x8
 4893 00ad 65040000 		.4byte	.LASF16
 4894 00b1 06       		.uleb128 0x6
 4895 00b2 04       		.byte	0x4
 4896 00b3 B7000000 		.4byte	0xb7
 4897 00b7 07       		.uleb128 0x7
 4898 00b8 AA000000 		.4byte	0xaa
 4899 00bc 04       		.uleb128 0x4
 4900 00bd EF050000 		.4byte	.LASF17
 4901 00c1 04       		.byte	0x4
 4902 00c2 18       		.byte	0x18
 4903 00c3 5D000000 		.4byte	0x5d
 4904 00c7 04       		.uleb128 0x4
 4905 00c8 DF0B0000 		.4byte	.LASF18
 4906 00cc 04       		.byte	0x4
 4907 00cd 2C       		.byte	0x2c
 4908 00ce 76000000 		.4byte	0x76
 4909 00d2 04       		.uleb128 0x4
 4910 00d3 7B010000 		.4byte	.LASF19
 4911 00d7 04       		.byte	0x4
 4912 00d8 30       		.byte	0x30
 4913 00d9 88000000 		.4byte	0x88
 4914 00dd 04       		.uleb128 0x4
 4915 00de 54030000 		.4byte	.LASF20
 4916 00e2 05       		.byte	0x5
 4917 00e3 2B       		.byte	0x2b
 4918 00e4 E8000000 		.4byte	0xe8
 4919 00e8 02       		.uleb128 0x2
 4920 00e9 01       		.byte	0x1
 4921 00ea 02       		.byte	0x2
 4922 00eb 85030000 		.4byte	.LASF21
ARM GAS  /var/folders/6q/x_mk5n_j3p7_c40r_2k_78980000gn/T//ccu43oO2.s 			page 88


 4923 00ef 04       		.uleb128 0x4
 4924 00f0 3D090000 		.4byte	.LASF22
 4925 00f4 05       		.byte	0x5
 4926 00f5 2C       		.byte	0x2c
 4927 00f6 BC000000 		.4byte	0xbc
 4928 00fa 04       		.uleb128 0x4
 4929 00fb 0E0C0000 		.4byte	.LASF23
 4930 00ff 05       		.byte	0x5
 4931 0100 2D       		.byte	0x2d
 4932 0101 BC000000 		.4byte	0xbc
 4933 0105 04       		.uleb128 0x4
 4934 0106 810B0000 		.4byte	.LASF24
 4935 010a 05       		.byte	0x5
 4936 010b 2E       		.byte	0x2e
 4937 010c BC000000 		.4byte	0xbc
 4938 0110 04       		.uleb128 0x4
 4939 0111 5E080000 		.4byte	.LASF25
 4940 0115 05       		.byte	0x5
 4941 0116 2F       		.byte	0x2f
 4942 0117 BC000000 		.4byte	0xbc
 4943 011b 04       		.uleb128 0x4
 4944 011c E0010000 		.4byte	.LASF26
 4945 0120 05       		.byte	0x5
 4946 0121 30       		.byte	0x30
 4947 0122 D2000000 		.4byte	0xd2
 4948 0126 04       		.uleb128 0x4
 4949 0127 A1070000 		.4byte	.LASF27
 4950 012b 05       		.byte	0x5
 4951 012c 31       		.byte	0x31
 4952 012d C7000000 		.4byte	0xc7
 4953 0131 04       		.uleb128 0x4
 4954 0132 84010000 		.4byte	.LASF28
 4955 0136 05       		.byte	0x5
 4956 0137 33       		.byte	0x33
 4957 0138 D2000000 		.4byte	0xd2
 4958 013c 04       		.uleb128 0x4
 4959 013d 78000000 		.4byte	.LASF29
 4960 0141 05       		.byte	0x5
 4961 0142 35       		.byte	0x35
 4962 0143 D2000000 		.4byte	0xd2
 4963 0147 04       		.uleb128 0x4
 4964 0148 7D050000 		.4byte	.LASF30
 4965 014c 06       		.byte	0x6
 4966 014d 2A       		.byte	0x2a
 4967 014e 52010000 		.4byte	0x152
 4968 0152 08       		.uleb128 0x8
 4969 0153 7D050000 		.4byte	.LASF30
 4970 0157 48       		.byte	0x48
 4971 0158 07       		.byte	0x7
 4972 0159 5E       		.byte	0x5e
 4973 015a 4F020000 		.4byte	0x24f
 4974 015e 09       		.uleb128 0x9
 4975 015f B80A0000 		.4byte	.LASF31
 4976 0163 07       		.byte	0x7
 4977 0164 5F       		.byte	0x5f
 4978 0165 70020000 		.4byte	0x270
 4979 0169 00       		.byte	0
ARM GAS  /var/folders/6q/x_mk5n_j3p7_c40r_2k_78980000gn/T//ccu43oO2.s 			page 89


 4980 016a 09       		.uleb128 0x9
 4981 016b 710B0000 		.4byte	.LASF32
 4982 016f 07       		.byte	0x7
 4983 0170 61       		.byte	0x61
 4984 0171 70020000 		.4byte	0x270
 4985 0175 04       		.byte	0x4
 4986 0176 09       		.uleb128 0x9
 4987 0177 52000000 		.4byte	.LASF33
 4988 017b 07       		.byte	0x7
 4989 017c 63       		.byte	0x63
 4990 017d 1B010000 		.4byte	0x11b
 4991 0181 08       		.byte	0x8
 4992 0182 09       		.uleb128 0x9
 4993 0183 D50A0000 		.4byte	.LASF34
 4994 0187 07       		.byte	0x7
 4995 0188 64       		.byte	0x64
 4996 0189 28030000 		.4byte	0x328
 4997 018d 0C       		.byte	0xc
 4998 018e 09       		.uleb128 0x9
 4999 018f FF020000 		.4byte	.LASF35
 5000 0193 07       		.byte	0x7
 5001 0194 66       		.byte	0x66
 5002 0195 70020000 		.4byte	0x270
 5003 0199 10       		.byte	0x10
 5004 019a 09       		.uleb128 0x9
 5005 019b D5050000 		.4byte	.LASF36
 5006 019f 07       		.byte	0x7
 5007 01a0 67       		.byte	0x67
 5008 01a1 70020000 		.4byte	0x270
 5009 01a5 14       		.byte	0x14
 5010 01a6 09       		.uleb128 0x9
 5011 01a7 FE030000 		.4byte	.LASF37
 5012 01ab 07       		.byte	0x7
 5013 01ac 6E       		.byte	0x6e
 5014 01ad B1000000 		.4byte	0xb1
 5015 01b1 18       		.byte	0x18
 5016 01b2 09       		.uleb128 0x9
 5017 01b3 DD050000 		.4byte	.LASF38
 5018 01b7 07       		.byte	0x7
 5019 01b8 79       		.byte	0x79
 5020 01b9 FA000000 		.4byte	0xfa
 5021 01bd 1C       		.byte	0x1c
 5022 01be 09       		.uleb128 0x9
 5023 01bf C7070000 		.4byte	.LASF39
 5024 01c3 07       		.byte	0x7
 5025 01c4 7D       		.byte	0x7d
 5026 01c5 EF000000 		.4byte	0xef
 5027 01c9 1D       		.byte	0x1d
 5028 01ca 09       		.uleb128 0x9
 5029 01cb 670C0000 		.4byte	.LASF40
 5030 01cf 07       		.byte	0x7
 5031 01d0 82       		.byte	0x82
 5032 01d1 05010000 		.4byte	0x105
 5033 01d5 1E       		.byte	0x1e
 5034 01d6 09       		.uleb128 0x9
 5035 01d7 BD0C0000 		.4byte	.LASF41
 5036 01db 07       		.byte	0x7
ARM GAS  /var/folders/6q/x_mk5n_j3p7_c40r_2k_78980000gn/T//ccu43oO2.s 			page 90


 5037 01dc 88       		.byte	0x88
 5038 01dd 10010000 		.4byte	0x110
 5039 01e1 1F       		.byte	0x1f
 5040 01e2 09       		.uleb128 0x9
 5041 01e3 28000000 		.4byte	.LASF42
 5042 01e7 07       		.byte	0x7
 5043 01e8 8F       		.byte	0x8f
 5044 01e9 F8030000 		.4byte	0x3f8
 5045 01ed 20       		.byte	0x20
 5046 01ee 0A       		.uleb128 0xa
 5047 01ef 705F7500 		.ascii	"p_u\000"
 5048 01f3 07       		.byte	0x7
 5049 01f4 B4       		.byte	0xb4
 5050 01f5 A6040000 		.4byte	0x4a6
 5051 01f9 24       		.byte	0x24
 5052 01fa 09       		.uleb128 0x9
 5053 01fb EB000000 		.4byte	.LASF43
 5054 01ff 07       		.byte	0x7
 5055 0200 B9       		.byte	0xb9
 5056 0201 96020000 		.4byte	0x296
 5057 0205 28       		.byte	0x28
 5058 0206 09       		.uleb128 0x9
 5059 0207 9B0B0000 		.4byte	.LASF44
 5060 020b 07       		.byte	0x7
 5061 020c BF       		.byte	0xbf
 5062 020d 76020000 		.4byte	0x276
 5063 0211 2C       		.byte	0x2c
 5064 0212 09       		.uleb128 0x9
 5065 0213 20090000 		.4byte	.LASF45
 5066 0217 07       		.byte	0x7
 5067 0218 C3       		.byte	0xc3
 5068 0219 26010000 		.4byte	0x126
 5069 021d 34       		.byte	0x34
 5070 021e 09       		.uleb128 0x9
 5071 021f 490A0000 		.4byte	.LASF46
 5072 0223 07       		.byte	0x7
 5073 0224 C9       		.byte	0xc9
 5074 0225 31010000 		.4byte	0x131
 5075 0229 38       		.byte	0x38
 5076 022a 09       		.uleb128 0x9
 5077 022b 26060000 		.4byte	.LASF47
 5078 022f 07       		.byte	0x7
 5079 0230 D0       		.byte	0xd0
 5080 0231 DB040000 		.4byte	0x4db
 5081 0235 3C       		.byte	0x3c
 5082 0236 09       		.uleb128 0x9
 5083 0237 45090000 		.4byte	.LASF48
 5084 023b 07       		.byte	0x7
 5085 023c D4       		.byte	0xd4
 5086 023d 1B010000 		.4byte	0x11b
 5087 0241 40       		.byte	0x40
 5088 0242 09       		.uleb128 0x9
 5089 0243 1E060000 		.4byte	.LASF49
 5090 0247 07       		.byte	0x7
 5091 0248 DA       		.byte	0xda
 5092 0249 A8000000 		.4byte	0xa8
 5093 024d 44       		.byte	0x44
ARM GAS  /var/folders/6q/x_mk5n_j3p7_c40r_2k_78980000gn/T//ccu43oO2.s 			page 91


 5094 024e 00       		.byte	0
 5095 024f 0B       		.uleb128 0xb
 5096 0250 08       		.byte	0x8
 5097 0251 06       		.byte	0x6
 5098 0252 61       		.byte	0x61
 5099 0253 70020000 		.4byte	0x270
 5100 0257 09       		.uleb128 0x9
 5101 0258 B80A0000 		.4byte	.LASF31
 5102 025c 06       		.byte	0x6
 5103 025d 62       		.byte	0x62
 5104 025e 70020000 		.4byte	0x270
 5105 0262 00       		.byte	0
 5106 0263 09       		.uleb128 0x9
 5107 0264 710B0000 		.4byte	.LASF32
 5108 0268 06       		.byte	0x6
 5109 0269 64       		.byte	0x64
 5110 026a 70020000 		.4byte	0x270
 5111 026e 04       		.byte	0x4
 5112 026f 00       		.byte	0
 5113 0270 06       		.uleb128 0x6
 5114 0271 04       		.byte	0x4
 5115 0272 47010000 		.4byte	0x147
 5116 0276 04       		.uleb128 0x4
 5117 0277 32040000 		.4byte	.LASF50
 5118 027b 06       		.byte	0x6
 5119 027c 66       		.byte	0x66
 5120 027d 4F020000 		.4byte	0x24f
 5121 0281 0B       		.uleb128 0xb
 5122 0282 04       		.byte	0x4
 5123 0283 06       		.byte	0x6
 5124 0284 6B       		.byte	0x6b
 5125 0285 96020000 		.4byte	0x296
 5126 0289 09       		.uleb128 0x9
 5127 028a B80A0000 		.4byte	.LASF31
 5128 028e 06       		.byte	0x6
 5129 028f 6D       		.byte	0x6d
 5130 0290 70020000 		.4byte	0x270
 5131 0294 00       		.byte	0
 5132 0295 00       		.byte	0
 5133 0296 04       		.uleb128 0x4
 5134 0297 00000000 		.4byte	.LASF51
 5135 029b 06       		.byte	0x6
 5136 029c 70       		.byte	0x70
 5137 029d 81020000 		.4byte	0x281
 5138 02a1 04       		.uleb128 0x4
 5139 02a2 49000000 		.4byte	.LASF52
 5140 02a6 08       		.byte	0x8
 5141 02a7 E5       		.byte	0xe5
 5142 02a8 A8000000 		.4byte	0xa8
 5143 02ac 0C       		.uleb128 0xc
 5144 02ad 9C090000 		.4byte	.LASF53
 5145 02b1 24       		.byte	0x24
 5146 02b2 08       		.byte	0x8
 5147 02b3 0C01     		.2byte	0x10c
 5148 02b5 28030000 		.4byte	0x328
 5149 02b9 0D       		.uleb128 0xd
 5150 02ba 723400   		.ascii	"r4\000"
ARM GAS  /var/folders/6q/x_mk5n_j3p7_c40r_2k_78980000gn/T//ccu43oO2.s 			page 92


 5151 02bd 08       		.byte	0x8
 5152 02be 1F01     		.2byte	0x11f
 5153 02c0 A1020000 		.4byte	0x2a1
 5154 02c4 00       		.byte	0
 5155 02c5 0D       		.uleb128 0xd
 5156 02c6 723500   		.ascii	"r5\000"
 5157 02c9 08       		.byte	0x8
 5158 02ca 2001     		.2byte	0x120
 5159 02cc A1020000 		.4byte	0x2a1
 5160 02d0 04       		.byte	0x4
 5161 02d1 0D       		.uleb128 0xd
 5162 02d2 723600   		.ascii	"r6\000"
 5163 02d5 08       		.byte	0x8
 5164 02d6 2101     		.2byte	0x121
 5165 02d8 A1020000 		.4byte	0x2a1
 5166 02dc 08       		.byte	0x8
 5167 02dd 0D       		.uleb128 0xd
 5168 02de 723700   		.ascii	"r7\000"
 5169 02e1 08       		.byte	0x8
 5170 02e2 2201     		.2byte	0x122
 5171 02e4 A1020000 		.4byte	0x2a1
 5172 02e8 0C       		.byte	0xc
 5173 02e9 0D       		.uleb128 0xd
 5174 02ea 723800   		.ascii	"r8\000"
 5175 02ed 08       		.byte	0x8
 5176 02ee 2301     		.2byte	0x123
 5177 02f0 A1020000 		.4byte	0x2a1
 5178 02f4 10       		.byte	0x10
 5179 02f5 0D       		.uleb128 0xd
 5180 02f6 723900   		.ascii	"r9\000"
 5181 02f9 08       		.byte	0x8
 5182 02fa 2401     		.2byte	0x124
 5183 02fc A1020000 		.4byte	0x2a1
 5184 0300 14       		.byte	0x14
 5185 0301 0D       		.uleb128 0xd
 5186 0302 72313000 		.ascii	"r10\000"
 5187 0306 08       		.byte	0x8
 5188 0307 2501     		.2byte	0x125
 5189 0309 A1020000 		.4byte	0x2a1
 5190 030d 18       		.byte	0x18
 5191 030e 0D       		.uleb128 0xd
 5192 030f 72313100 		.ascii	"r11\000"
 5193 0313 08       		.byte	0x8
 5194 0314 2601     		.2byte	0x126
 5195 0316 A1020000 		.4byte	0x2a1
 5196 031a 1C       		.byte	0x1c
 5197 031b 0D       		.uleb128 0xd
 5198 031c 6C7200   		.ascii	"lr\000"
 5199 031f 08       		.byte	0x8
 5200 0320 2701     		.2byte	0x127
 5201 0322 A1020000 		.4byte	0x2a1
 5202 0326 20       		.byte	0x20
 5203 0327 00       		.byte	0
 5204 0328 0C       		.uleb128 0xc
 5205 0329 18090000 		.4byte	.LASF54
 5206 032d 04       		.byte	0x4
 5207 032e 08       		.byte	0x8
ARM GAS  /var/folders/6q/x_mk5n_j3p7_c40r_2k_78980000gn/T//ccu43oO2.s 			page 93


 5208 032f 3101     		.2byte	0x131
 5209 0331 43030000 		.4byte	0x343
 5210 0335 0D       		.uleb128 0xd
 5211 0336 72313300 		.ascii	"r13\000"
 5212 033a 08       		.byte	0x8
 5213 033b 3201     		.2byte	0x132
 5214 033d 43030000 		.4byte	0x343
 5215 0341 00       		.byte	0
 5216 0342 00       		.byte	0
 5217 0343 06       		.uleb128 0x6
 5218 0344 04       		.byte	0x4
 5219 0345 AC020000 		.4byte	0x2ac
 5220 0349 04       		.uleb128 0x4
 5221 034a 0C000000 		.4byte	.LASF55
 5222 034e 09       		.byte	0x9
 5223 034f 58       		.byte	0x58
 5224 0350 54030000 		.4byte	0x354
 5225 0354 06       		.uleb128 0x6
 5226 0355 04       		.byte	0x4
 5227 0356 5A030000 		.4byte	0x35a
 5228 035a 0E       		.uleb128 0xe
 5229 035b 65030000 		.4byte	0x365
 5230 035f 0F       		.uleb128 0xf
 5231 0360 A8000000 		.4byte	0xa8
 5232 0364 00       		.byte	0
 5233 0365 04       		.uleb128 0x4
 5234 0366 FA0A0000 		.4byte	.LASF56
 5235 036a 09       		.byte	0x9
 5236 036b 5D       		.byte	0x5d
 5237 036c 70030000 		.4byte	0x370
 5238 0370 08       		.uleb128 0x8
 5239 0371 FA0A0000 		.4byte	.LASF56
 5240 0375 14       		.byte	0x14
 5241 0376 09       		.byte	0x9
 5242 0377 64       		.byte	0x64
 5243 0378 B9030000 		.4byte	0x3b9
 5244 037c 09       		.uleb128 0x9
 5245 037d F70C0000 		.4byte	.LASF57
 5246 0381 09       		.byte	0x9
 5247 0382 65       		.byte	0x65
 5248 0383 B9030000 		.4byte	0x3b9
 5249 0387 00       		.byte	0
 5250 0388 09       		.uleb128 0x9
 5251 0389 150E0000 		.4byte	.LASF58
 5252 038d 09       		.byte	0x9
 5253 038e 67       		.byte	0x67
 5254 038f B9030000 		.4byte	0x3b9
 5255 0393 04       		.byte	0x4
 5256 0394 09       		.uleb128 0x9
 5257 0395 73010000 		.4byte	.LASF59
 5258 0399 09       		.byte	0x9
 5259 039a 69       		.byte	0x69
 5260 039b 3C010000 		.4byte	0x13c
 5261 039f 08       		.byte	0x8
 5262 03a0 09       		.uleb128 0x9
 5263 03a1 FE0D0000 		.4byte	.LASF60
 5264 03a5 09       		.byte	0x9
ARM GAS  /var/folders/6q/x_mk5n_j3p7_c40r_2k_78980000gn/T//ccu43oO2.s 			page 94


 5265 03a6 6A       		.byte	0x6a
 5266 03a7 49030000 		.4byte	0x349
 5267 03ab 0C       		.byte	0xc
 5268 03ac 09       		.uleb128 0x9
 5269 03ad 97010000 		.4byte	.LASF61
 5270 03b1 09       		.byte	0x9
 5271 03b2 6C       		.byte	0x6c
 5272 03b3 A8000000 		.4byte	0xa8
 5273 03b7 10       		.byte	0x10
 5274 03b8 00       		.byte	0
 5275 03b9 06       		.uleb128 0x6
 5276 03ba 04       		.byte	0x4
 5277 03bb 65030000 		.4byte	0x365
 5278 03bf 0B       		.uleb128 0xb
 5279 03c0 10       		.byte	0x10
 5280 03c1 09       		.byte	0x9
 5281 03c2 76       		.byte	0x76
 5282 03c3 F8030000 		.4byte	0x3f8
 5283 03c7 09       		.uleb128 0x9
 5284 03c8 F70C0000 		.4byte	.LASF57
 5285 03cc 09       		.byte	0x9
 5286 03cd 77       		.byte	0x77
 5287 03ce B9030000 		.4byte	0x3b9
 5288 03d2 00       		.byte	0
 5289 03d3 09       		.uleb128 0x9
 5290 03d4 150E0000 		.4byte	.LASF58
 5291 03d8 09       		.byte	0x9
 5292 03d9 79       		.byte	0x79
 5293 03da B9030000 		.4byte	0x3b9
 5294 03de 04       		.byte	0x4
 5295 03df 09       		.uleb128 0x9
 5296 03e0 73010000 		.4byte	.LASF59
 5297 03e4 09       		.byte	0x9
 5298 03e5 7B       		.byte	0x7b
 5299 03e6 3C010000 		.4byte	0x13c
 5300 03ea 08       		.byte	0x8
 5301 03eb 09       		.uleb128 0x9
 5302 03ec 9E000000 		.4byte	.LASF62
 5303 03f0 09       		.byte	0x9
 5304 03f1 7C       		.byte	0x7c
 5305 03f2 F8030000 		.4byte	0x3f8
 5306 03f6 0C       		.byte	0xc
 5307 03f7 00       		.byte	0
 5308 03f8 10       		.uleb128 0x10
 5309 03f9 3C010000 		.4byte	0x13c
 5310 03fd 04       		.uleb128 0x4
 5311 03fe AC050000 		.4byte	.LASF63
 5312 0402 09       		.byte	0x9
 5313 0403 7D       		.byte	0x7d
 5314 0404 BF030000 		.4byte	0x3bf
 5315 0408 0B       		.uleb128 0xb
 5316 0409 1C       		.byte	0x1c
 5317 040a 0A       		.byte	0xa
 5318 040b 5E       		.byte	0x5e
 5319 040c 59040000 		.4byte	0x459
 5320 0410 09       		.uleb128 0x9
 5321 0411 65070000 		.4byte	.LASF64
ARM GAS  /var/folders/6q/x_mk5n_j3p7_c40r_2k_78980000gn/T//ccu43oO2.s 			page 95


 5322 0415 0A       		.byte	0xa
 5323 0416 5F       		.byte	0x5f
 5324 0417 76020000 		.4byte	0x276
 5325 041b 00       		.byte	0
 5326 041c 09       		.uleb128 0x9
 5327 041d 90010000 		.4byte	.LASF65
 5328 0421 0A       		.byte	0xa
 5329 0422 60       		.byte	0x60
 5330 0423 1B010000 		.4byte	0x11b
 5331 0427 08       		.byte	0x8
 5332 0428 09       		.uleb128 0x9
 5333 0429 BB0D0000 		.4byte	.LASF66
 5334 042d 0A       		.byte	0xa
 5335 042e 62       		.byte	0x62
 5336 042f 28030000 		.4byte	0x328
 5337 0433 0C       		.byte	0xc
 5338 0434 09       		.uleb128 0x9
 5339 0435 79040000 		.4byte	.LASF67
 5340 0439 0A       		.byte	0xa
 5341 043a 65       		.byte	0x65
 5342 043b 70020000 		.4byte	0x270
 5343 043f 10       		.byte	0x10
 5344 0440 09       		.uleb128 0x9
 5345 0441 68080000 		.4byte	.LASF68
 5346 0445 0A       		.byte	0xa
 5347 0446 66       		.byte	0x66
 5348 0447 70020000 		.4byte	0x270
 5349 044b 14       		.byte	0x14
 5350 044c 09       		.uleb128 0x9
 5351 044d F4030000 		.4byte	.LASF69
 5352 0451 0A       		.byte	0xa
 5353 0452 69       		.byte	0x69
 5354 0453 70020000 		.4byte	0x270
 5355 0457 18       		.byte	0x18
 5356 0458 00       		.byte	0
 5357 0459 04       		.uleb128 0x4
 5358 045a 6E0C0000 		.4byte	.LASF70
 5359 045e 0A       		.byte	0xa
 5360 045f 6B       		.byte	0x6b
 5361 0460 08040000 		.4byte	0x408
 5362 0464 08       		.uleb128 0x8
 5363 0465 DD030000 		.4byte	.LASF71
 5364 0469 10       		.byte	0x10
 5365 046a 0B       		.byte	0xb
 5366 046b 2C       		.byte	0x2c
 5367 046c 95040000 		.4byte	0x495
 5368 0470 09       		.uleb128 0x9
 5369 0471 5C010000 		.4byte	.LASF72
 5370 0475 0B       		.byte	0xb
 5371 0476 2D       		.byte	0x2d
 5372 0477 76020000 		.4byte	0x276
 5373 047b 00       		.byte	0
 5374 047c 09       		.uleb128 0x9
 5375 047d 8C000000 		.4byte	.LASF73
 5376 0481 0B       		.byte	0xb
 5377 0482 2F       		.byte	0x2f
 5378 0483 70020000 		.4byte	0x270
ARM GAS  /var/folders/6q/x_mk5n_j3p7_c40r_2k_78980000gn/T//ccu43oO2.s 			page 96


 5379 0487 08       		.byte	0x8
 5380 0488 09       		.uleb128 0x9
 5381 0489 630D0000 		.4byte	.LASF74
 5382 048d 0B       		.byte	0xb
 5383 048e 31       		.byte	0x31
 5384 048f 95040000 		.4byte	0x495
 5385 0493 0C       		.byte	0xc
 5386 0494 00       		.byte	0
 5387 0495 06       		.uleb128 0x6
 5388 0496 04       		.byte	0x4
 5389 0497 64040000 		.4byte	0x464
 5390 049b 04       		.uleb128 0x4
 5391 049c DD030000 		.4byte	.LASF71
 5392 04a0 0B       		.byte	0xb
 5393 04a1 33       		.byte	0x33
 5394 04a2 64040000 		.4byte	0x464
 5395 04a6 11       		.uleb128 0x11
 5396 04a7 04       		.byte	0x4
 5397 04a8 07       		.byte	0x7
 5398 04a9 96       		.byte	0x96
 5399 04aa DB040000 		.4byte	0x4db
 5400 04ae 12       		.uleb128 0x12
 5401 04af 4D030000 		.4byte	.LASF75
 5402 04b3 07       		.byte	0x7
 5403 04b4 9D       		.byte	0x9d
 5404 04b5 26010000 		.4byte	0x126
 5405 04b9 12       		.uleb128 0x12
 5406 04ba 570E0000 		.4byte	.LASF76
 5407 04be 07       		.byte	0x7
 5408 04bf A4       		.byte	0xa4
 5409 04c0 26010000 		.4byte	0x126
 5410 04c4 12       		.uleb128 0x12
 5411 04c5 1B010000 		.4byte	.LASF77
 5412 04c9 07       		.byte	0x7
 5413 04ca AB       		.byte	0xab
 5414 04cb A8000000 		.4byte	0xa8
 5415 04cf 12       		.uleb128 0x12
 5416 04d0 3A010000 		.4byte	.LASF78
 5417 04d4 07       		.byte	0x7
 5418 04d5 B2       		.byte	0xb2
 5419 04d6 31010000 		.4byte	0x131
 5420 04da 00       		.byte	0
 5421 04db 06       		.uleb128 0x6
 5422 04dc 04       		.byte	0x4
 5423 04dd 9B040000 		.4byte	0x49b
 5424 04e1 10       		.uleb128 0x10
 5425 04e2 C7000000 		.4byte	0xc7
 5426 04e6 13       		.uleb128 0x13
 5427 04e7 01       		.byte	0x1
 5428 04e8 56000000 		.4byte	0x56
 5429 04ec 0C       		.byte	0xc
 5430 04ed 3C       		.byte	0x3c
 5431 04ee 2F050000 		.4byte	0x52f
 5432 04f2 14       		.uleb128 0x14
 5433 04f3 04080000 		.4byte	.LASF79
 5434 04f7 7F       		.sleb128 -1
 5435 04f8 15       		.uleb128 0x15
ARM GAS  /var/folders/6q/x_mk5n_j3p7_c40r_2k_78980000gn/T//ccu43oO2.s 			page 97


 5436 04f9 9C060000 		.4byte	.LASF80
 5437 04fd 00       		.byte	0
 5438 04fe 15       		.uleb128 0x15
 5439 04ff A9060000 		.4byte	.LASF81
 5440 0503 01       		.byte	0x1
 5441 0504 15       		.uleb128 0x15
 5442 0505 B6060000 		.4byte	.LASF82
 5443 0509 02       		.byte	0x2
 5444 050a 15       		.uleb128 0x15
 5445 050b C3060000 		.4byte	.LASF83
 5446 050f 03       		.byte	0x3
 5447 0510 15       		.uleb128 0x15
 5448 0511 D0060000 		.4byte	.LASF84
 5449 0515 04       		.byte	0x4
 5450 0516 15       		.uleb128 0x15
 5451 0517 DD060000 		.4byte	.LASF85
 5452 051b 05       		.byte	0x5
 5453 051c 15       		.uleb128 0x15
 5454 051d EA060000 		.4byte	.LASF86
 5455 0521 06       		.byte	0x6
 5456 0522 15       		.uleb128 0x15
 5457 0523 F7060000 		.4byte	.LASF87
 5458 0527 07       		.byte	0x7
 5459 0528 15       		.uleb128 0x15
 5460 0529 7F0D0000 		.4byte	.LASF88
 5461 052d 08       		.byte	0x8
 5462 052e 00       		.byte	0
 5463 052f 04       		.uleb128 0x4
 5464 0530 AD020000 		.4byte	.LASF89
 5465 0534 0C       		.byte	0xc
 5466 0535 48       		.byte	0x48
 5467 0536 E6040000 		.4byte	0x4e6
 5468 053a 13       		.uleb128 0x13
 5469 053b 01       		.byte	0x1
 5470 053c 56000000 		.4byte	0x56
 5471 0540 0D       		.byte	0xd
 5472 0541 8D       		.byte	0x8d
 5473 0542 9B050000 		.4byte	0x59b
 5474 0546 14       		.uleb128 0x14
 5475 0547 230B0000 		.4byte	.LASF90
 5476 054b 7F       		.sleb128 -1
 5477 054c 15       		.uleb128 0x15
 5478 054d 9A080000 		.4byte	.LASF91
 5479 0551 00       		.byte	0
 5480 0552 15       		.uleb128 0x15
 5481 0553 A8080000 		.4byte	.LASF92
 5482 0557 01       		.byte	0x1
 5483 0558 15       		.uleb128 0x15
 5484 0559 B6080000 		.4byte	.LASF93
 5485 055d 02       		.byte	0x2
 5486 055e 15       		.uleb128 0x15
 5487 055f C4080000 		.4byte	.LASF94
 5488 0563 03       		.byte	0x3
 5489 0564 15       		.uleb128 0x15
 5490 0565 D2080000 		.4byte	.LASF95
 5491 0569 04       		.byte	0x4
 5492 056a 15       		.uleb128 0x15
ARM GAS  /var/folders/6q/x_mk5n_j3p7_c40r_2k_78980000gn/T//ccu43oO2.s 			page 98


 5493 056b E0080000 		.4byte	.LASF96
 5494 056f 05       		.byte	0x5
 5495 0570 15       		.uleb128 0x15
 5496 0571 EE080000 		.4byte	.LASF97
 5497 0575 06       		.byte	0x6
 5498 0576 15       		.uleb128 0x15
 5499 0577 FC080000 		.4byte	.LASF98
 5500 057b 07       		.byte	0x7
 5501 057c 15       		.uleb128 0x15
 5502 057d 0A090000 		.4byte	.LASF99
 5503 0581 08       		.byte	0x8
 5504 0582 15       		.uleb128 0x15
 5505 0583 83070000 		.4byte	.LASF100
 5506 0587 09       		.byte	0x9
 5507 0588 15       		.uleb128 0x15
 5508 0589 92070000 		.4byte	.LASF101
 5509 058d 0A       		.byte	0xa
 5510 058e 15       		.uleb128 0x15
 5511 058f 64010000 		.4byte	.LASF102
 5512 0593 0B       		.byte	0xb
 5513 0594 15       		.uleb128 0x15
 5514 0595 D0010000 		.4byte	.LASF103
 5515 0599 0C       		.byte	0xc
 5516 059a 00       		.byte	0
 5517 059b 04       		.uleb128 0x4
 5518 059c 4D010000 		.4byte	.LASF104
 5519 05a0 0D       		.byte	0xd
 5520 05a1 9D       		.byte	0x9d
 5521 05a2 3A050000 		.4byte	0x53a
 5522 05a6 13       		.uleb128 0x13
 5523 05a7 01       		.byte	0x1
 5524 05a8 68000000 		.4byte	0x68
 5525 05ac 0D       		.byte	0xd
 5526 05ad A2       		.byte	0xa2
 5527 05ae BF050000 		.4byte	0x5bf
 5528 05b2 15       		.uleb128 0x15
 5529 05b3 C10D0000 		.4byte	.LASF105
 5530 05b7 00       		.byte	0
 5531 05b8 15       		.uleb128 0x15
 5532 05b9 05040000 		.4byte	.LASF106
 5533 05bd 01       		.byte	0x1
 5534 05be 00       		.byte	0
 5535 05bf 13       		.uleb128 0x13
 5536 05c0 01       		.byte	0x1
 5537 05c1 68000000 		.4byte	0x68
 5538 05c5 0E       		.byte	0xe
 5539 05c6 63       		.byte	0x63
 5540 05c7 EA050000 		.4byte	0x5ea
 5541 05cb 15       		.uleb128 0x15
 5542 05cc 9A020000 		.4byte	.LASF107
 5543 05d0 00       		.byte	0
 5544 05d1 15       		.uleb128 0x15
 5545 05d2 010C0000 		.4byte	.LASF108
 5546 05d6 01       		.byte	0x1
 5547 05d7 15       		.uleb128 0x15
 5548 05d8 77030000 		.4byte	.LASF109
 5549 05dc 02       		.byte	0x2
ARM GAS  /var/folders/6q/x_mk5n_j3p7_c40r_2k_78980000gn/T//ccu43oO2.s 			page 99


 5550 05dd 15       		.uleb128 0x15
 5551 05de 69030000 		.4byte	.LASF110
 5552 05e2 03       		.byte	0x3
 5553 05e3 15       		.uleb128 0x15
 5554 05e4 5B030000 		.4byte	.LASF111
 5555 05e8 04       		.byte	0x4
 5556 05e9 00       		.byte	0
 5557 05ea 04       		.uleb128 0x4
 5558 05eb 1D020000 		.4byte	.LASF112
 5559 05ef 0E       		.byte	0xe
 5560 05f0 69       		.byte	0x69
 5561 05f1 BF050000 		.4byte	0x5bf
 5562 05f5 13       		.uleb128 0x13
 5563 05f6 01       		.byte	0x1
 5564 05f7 56000000 		.4byte	0x56
 5565 05fb 0E       		.byte	0xe
 5566 05fc 6E       		.byte	0x6e
 5567 05fd 4A060000 		.4byte	0x64a
 5568 0601 14       		.uleb128 0x14
 5569 0602 63000000 		.4byte	.LASF113
 5570 0606 7F       		.sleb128 -1
 5571 0607 15       		.uleb128 0x15
 5572 0608 30060000 		.4byte	.LASF114
 5573 060c 00       		.byte	0
 5574 060d 15       		.uleb128 0x15
 5575 060e 3C060000 		.4byte	.LASF115
 5576 0612 01       		.byte	0x1
 5577 0613 15       		.uleb128 0x15
 5578 0614 48060000 		.4byte	.LASF116
 5579 0618 02       		.byte	0x2
 5580 0619 15       		.uleb128 0x15
 5581 061a 54060000 		.4byte	.LASF117
 5582 061e 03       		.byte	0x3
 5583 061f 15       		.uleb128 0x15
 5584 0620 60060000 		.4byte	.LASF118
 5585 0624 04       		.byte	0x4
 5586 0625 15       		.uleb128 0x15
 5587 0626 6C060000 		.4byte	.LASF119
 5588 062a 05       		.byte	0x5
 5589 062b 15       		.uleb128 0x15
 5590 062c 78060000 		.4byte	.LASF120
 5591 0630 06       		.byte	0x6
 5592 0631 15       		.uleb128 0x15
 5593 0632 84060000 		.4byte	.LASF121
 5594 0636 07       		.byte	0x7
 5595 0637 15       		.uleb128 0x15
 5596 0638 90060000 		.4byte	.LASF122
 5597 063c 08       		.byte	0x8
 5598 063d 15       		.uleb128 0x15
 5599 063e F5010000 		.4byte	.LASF123
 5600 0642 09       		.byte	0x9
 5601 0643 15       		.uleb128 0x15
 5602 0644 06010000 		.4byte	.LASF124
 5603 0648 0A       		.byte	0xa
 5604 0649 00       		.byte	0
 5605 064a 04       		.uleb128 0x4
 5606 064b FC000000 		.4byte	.LASF125
ARM GAS  /var/folders/6q/x_mk5n_j3p7_c40r_2k_78980000gn/T//ccu43oO2.s 			page 100


 5607 064f 0E       		.byte	0xe
 5608 0650 7C       		.byte	0x7c
 5609 0651 F5050000 		.4byte	0x5f5
 5610 0655 13       		.uleb128 0x13
 5611 0656 01       		.byte	0x1
 5612 0657 68000000 		.4byte	0x68
 5613 065b 0F       		.byte	0xf
 5614 065c 46       		.byte	0x46
 5615 065d 9E060000 		.4byte	0x69e
 5616 0661 15       		.uleb128 0x15
 5617 0662 C8090000 		.4byte	.LASF126
 5618 0666 00       		.byte	0
 5619 0667 15       		.uleb128 0x15
 5620 0668 D6090000 		.4byte	.LASF127
 5621 066c 01       		.byte	0x1
 5622 066d 15       		.uleb128 0x15
 5623 066e E4090000 		.4byte	.LASF128
 5624 0672 02       		.byte	0x2
 5625 0673 15       		.uleb128 0x15
 5626 0674 F2090000 		.4byte	.LASF129
 5627 0678 03       		.byte	0x3
 5628 0679 15       		.uleb128 0x15
 5629 067a 000A0000 		.4byte	.LASF130
 5630 067e 04       		.byte	0x4
 5631 067f 15       		.uleb128 0x15
 5632 0680 0E0A0000 		.4byte	.LASF131
 5633 0684 05       		.byte	0x5
 5634 0685 15       		.uleb128 0x15
 5635 0686 1C0A0000 		.4byte	.LASF132
 5636 068a 06       		.byte	0x6
 5637 068b 15       		.uleb128 0x15
 5638 068c 2A0A0000 		.4byte	.LASF133
 5639 0690 07       		.byte	0x7
 5640 0691 15       		.uleb128 0x15
 5641 0692 28040000 		.4byte	.LASF134
 5642 0696 08       		.byte	0x8
 5643 0697 15       		.uleb128 0x15
 5644 0698 6A0A0000 		.4byte	.LASF135
 5645 069c 63       		.byte	0x63
 5646 069d 00       		.byte	0
 5647 069e 0B       		.uleb128 0xb
 5648 069f 7C       		.byte	0x7c
 5649 06a0 10       		.byte	0x10
 5650 06a1 9D       		.byte	0x9d
 5651 06a2 4B080000 		.4byte	0x84b
 5652 06a6 09       		.uleb128 0x9
 5653 06a7 E70B0000 		.4byte	.LASF136
 5654 06ab 10       		.byte	0x10
 5655 06ac 9F       		.byte	0x9f
 5656 06ad 4A060000 		.4byte	0x64a
 5657 06b1 00       		.byte	0
 5658 06b2 09       		.uleb128 0x9
 5659 06b3 830E0000 		.4byte	.LASF137
 5660 06b7 10       		.byte	0x10
 5661 06b8 A2       		.byte	0xa2
 5662 06b9 4A060000 		.4byte	0x64a
 5663 06bd 01       		.byte	0x1
ARM GAS  /var/folders/6q/x_mk5n_j3p7_c40r_2k_78980000gn/T//ccu43oO2.s 			page 101


 5664 06be 09       		.uleb128 0x9
 5665 06bf 380C0000 		.4byte	.LASF138
 5666 06c3 10       		.byte	0x10
 5667 06c4 A5       		.byte	0xa5
 5668 06c5 EA050000 		.4byte	0x5ea
 5669 06c9 02       		.byte	0x2
 5670 06ca 09       		.uleb128 0x9
 5671 06cb 77070000 		.4byte	.LASF139
 5672 06cf 10       		.byte	0x10
 5673 06d0 A9       		.byte	0xa9
 5674 06d1 3A000000 		.4byte	0x3a
 5675 06d5 04       		.byte	0x4
 5676 06d6 09       		.uleb128 0x9
 5677 06d7 5E0D0000 		.4byte	.LASF140
 5678 06db 10       		.byte	0x10
 5679 06dc AC       		.byte	0xac
 5680 06dd E8080000 		.4byte	0x8e8
 5681 06e1 08       		.byte	0x8
 5682 06e2 09       		.uleb128 0x9
 5683 06e3 82000000 		.4byte	.LASF141
 5684 06e7 10       		.byte	0x10
 5685 06e8 B1       		.byte	0xb1
 5686 06e9 3A000000 		.4byte	0x3a
 5687 06ed 0C       		.byte	0xc
 5688 06ee 09       		.uleb128 0x9
 5689 06ef 0D030000 		.4byte	.LASF142
 5690 06f3 10       		.byte	0x10
 5691 06f4 B2       		.byte	0xb2
 5692 06f5 3A000000 		.4byte	0x3a
 5693 06f9 0E       		.byte	0xe
 5694 06fa 09       		.uleb128 0x9
 5695 06fb 170C0000 		.4byte	.LASF143
 5696 06ff 10       		.byte	0x10
 5697 0700 B3       		.byte	0xb3
 5698 0701 3A000000 		.4byte	0x3a
 5699 0705 10       		.byte	0x10
 5700 0706 09       		.uleb128 0x9
 5701 0707 39020000 		.4byte	.LASF144
 5702 070b 10       		.byte	0x10
 5703 070c B6       		.byte	0xb6
 5704 070d 3A000000 		.4byte	0x3a
 5705 0711 12       		.byte	0x12
 5706 0712 09       		.uleb128 0x9
 5707 0713 C8030000 		.4byte	.LASF145
 5708 0717 10       		.byte	0x10
 5709 0718 B7       		.byte	0xb7
 5710 0719 3A000000 		.4byte	0x3a
 5711 071d 14       		.byte	0x14
 5712 071e 09       		.uleb128 0x9
 5713 071f 47020000 		.4byte	.LASF146
 5714 0723 10       		.byte	0x10
 5715 0724 B8       		.byte	0xb8
 5716 0725 25000000 		.4byte	0x25
 5717 0729 18       		.byte	0x18
 5718 072a 09       		.uleb128 0x9
 5719 072b A0030000 		.4byte	.LASF147
 5720 072f 10       		.byte	0x10
ARM GAS  /var/folders/6q/x_mk5n_j3p7_c40r_2k_78980000gn/T//ccu43oO2.s 			page 102


 5721 0730 BB       		.byte	0xbb
 5722 0731 3A000000 		.4byte	0x3a
 5723 0735 1C       		.byte	0x1c
 5724 0736 09       		.uleb128 0x9
 5725 0737 240D0000 		.4byte	.LASF148
 5726 073b 10       		.byte	0x10
 5727 073c BD       		.byte	0xbd
 5728 073d 25000000 		.4byte	0x25
 5729 0741 20       		.byte	0x20
 5730 0742 0A       		.uleb128 0xa
 5731 0743 656E6300 		.ascii	"enc\000"
 5732 0747 10       		.byte	0x10
 5733 0748 C0       		.byte	0xc0
 5734 0749 81000000 		.4byte	0x81
 5735 074d 24       		.byte	0x24
 5736 074e 09       		.uleb128 0x9
 5737 074f F5000000 		.4byte	.LASF149
 5738 0753 10       		.byte	0x10
 5739 0754 C1       		.byte	0xc1
 5740 0755 81000000 		.4byte	0x81
 5741 0759 28       		.byte	0x28
 5742 075a 09       		.uleb128 0x9
 5743 075b 9A0D0000 		.4byte	.LASF150
 5744 075f 10       		.byte	0x10
 5745 0760 C2       		.byte	0xc2
 5746 0761 25000000 		.4byte	0x25
 5747 0765 2C       		.byte	0x2c
 5748 0766 0A       		.uleb128 0xa
 5749 0767 72706D00 		.ascii	"rpm\000"
 5750 076b 10       		.byte	0x10
 5751 076c C3       		.byte	0xc3
 5752 076d 25000000 		.4byte	0x25
 5753 0771 30       		.byte	0x30
 5754 0772 09       		.uleb128 0x9
 5755 0773 070B0000 		.4byte	.LASF151
 5756 0777 10       		.byte	0x10
 5757 0778 C6       		.byte	0xc6
 5758 0779 25000000 		.4byte	0x25
 5759 077d 34       		.byte	0x34
 5760 077e 09       		.uleb128 0x9
 5761 077f CC000000 		.4byte	.LASF152
 5762 0783 10       		.byte	0x10
 5763 0784 C7       		.byte	0xc7
 5764 0785 25000000 		.4byte	0x25
 5765 0789 38       		.byte	0x38
 5766 078a 09       		.uleb128 0x9
 5767 078b 870A0000 		.4byte	.LASF153
 5768 078f 10       		.byte	0x10
 5769 0790 C8       		.byte	0xc8
 5770 0791 25000000 		.4byte	0x25
 5771 0795 3C       		.byte	0x3c
 5772 0796 09       		.uleb128 0x9
 5773 0797 5C090000 		.4byte	.LASF154
 5774 079b 10       		.byte	0x10
 5775 079c C9       		.byte	0xc9
 5776 079d 25000000 		.4byte	0x25
 5777 07a1 40       		.byte	0x40
ARM GAS  /var/folders/6q/x_mk5n_j3p7_c40r_2k_78980000gn/T//ccu43oO2.s 			page 103


 5778 07a2 09       		.uleb128 0x9
 5779 07a3 93090000 		.4byte	.LASF155
 5780 07a7 10       		.byte	0x10
 5781 07a8 CA       		.byte	0xca
 5782 07a9 25000000 		.4byte	0x25
 5783 07ad 44       		.byte	0x44
 5784 07ae 09       		.uleb128 0x9
 5785 07af A40E0000 		.4byte	.LASF156
 5786 07b3 10       		.byte	0x10
 5787 07b4 CB       		.byte	0xcb
 5788 07b5 25000000 		.4byte	0x25
 5789 07b9 48       		.byte	0x48
 5790 07ba 09       		.uleb128 0x9
 5791 07bb D2030000 		.4byte	.LASF157
 5792 07bf 10       		.byte	0x10
 5793 07c0 CC       		.byte	0xcc
 5794 07c1 25000000 		.4byte	0x25
 5795 07c5 4C       		.byte	0x4c
 5796 07c6 09       		.uleb128 0x9
 5797 07c7 780C0000 		.4byte	.LASF158
 5798 07cb 10       		.byte	0x10
 5799 07cc CF       		.byte	0xcf
 5800 07cd 25000000 		.4byte	0x25
 5801 07d1 50       		.byte	0x50
 5802 07d2 09       		.uleb128 0x9
 5803 07d3 560C0000 		.4byte	.LASF159
 5804 07d7 10       		.byte	0x10
 5805 07d8 D1       		.byte	0xd1
 5806 07d9 25000000 		.4byte	0x25
 5807 07dd 54       		.byte	0x54
 5808 07de 09       		.uleb128 0x9
 5809 07df 26090000 		.4byte	.LASF160
 5810 07e3 10       		.byte	0x10
 5811 07e4 D3       		.byte	0xd3
 5812 07e5 25000000 		.4byte	0x25
 5813 07e9 58       		.byte	0x58
 5814 07ea 09       		.uleb128 0x9
 5815 07eb 540A0000 		.4byte	.LASF161
 5816 07ef 10       		.byte	0x10
 5817 07f0 D6       		.byte	0xd6
 5818 07f1 25000000 		.4byte	0x25
 5819 07f5 5C       		.byte	0x5c
 5820 07f6 09       		.uleb128 0x9
 5821 07f7 70090000 		.4byte	.LASF162
 5822 07fb 10       		.byte	0x10
 5823 07fc D8       		.byte	0xd8
 5824 07fd 25000000 		.4byte	0x25
 5825 0801 60       		.byte	0x60
 5826 0802 09       		.uleb128 0x9
 5827 0803 340B0000 		.4byte	.LASF163
 5828 0807 10       		.byte	0x10
 5829 0808 DB       		.byte	0xdb
 5830 0809 25000000 		.4byte	0x25
 5831 080d 64       		.byte	0x64
 5832 080e 09       		.uleb128 0x9
 5833 080f 790E0000 		.4byte	.LASF164
 5834 0813 10       		.byte	0x10
ARM GAS  /var/folders/6q/x_mk5n_j3p7_c40r_2k_78980000gn/T//ccu43oO2.s 			page 104


 5835 0814 DC       		.byte	0xdc
 5836 0815 25000000 		.4byte	0x25
 5837 0819 68       		.byte	0x68
 5838 081a 09       		.uleb128 0x9
 5839 081b 6D070000 		.4byte	.LASF165
 5840 081f 10       		.byte	0x10
 5841 0820 DD       		.byte	0xdd
 5842 0821 25000000 		.4byte	0x25
 5843 0825 6C       		.byte	0x6c
 5844 0826 09       		.uleb128 0x9
 5845 0827 CB0A0000 		.4byte	.LASF166
 5846 082b 10       		.byte	0x10
 5847 082c DE       		.byte	0xde
 5848 082d 25000000 		.4byte	0x25
 5849 0831 70       		.byte	0x70
 5850 0832 09       		.uleb128 0x9
 5851 0833 BF0A0000 		.4byte	.LASF167
 5852 0837 10       		.byte	0x10
 5853 0838 DF       		.byte	0xdf
 5854 0839 3A000000 		.4byte	0x3a
 5855 083d 74       		.byte	0x74
 5856 083e 09       		.uleb128 0x9
 5857 083f 50090000 		.4byte	.LASF168
 5858 0843 10       		.byte	0x10
 5859 0844 E2       		.byte	0xe2
 5860 0845 81000000 		.4byte	0x81
 5861 0849 78       		.byte	0x78
 5862 084a 00       		.byte	0
 5863 084b 0C       		.uleb128 0xc
 5864 084c E3030000 		.4byte	.LASF169
 5865 0850 34       		.byte	0x34
 5866 0851 10       		.byte	0x10
 5867 0852 0501     		.2byte	0x105
 5868 0854 E8080000 		.4byte	0x8e8
 5869 0858 16       		.uleb128 0x16
 5870 0859 AB030000 		.4byte	.LASF170
 5871 085d 10       		.byte	0x10
 5872 085e 0701     		.2byte	0x107
 5873 0860 F9080000 		.4byte	0x8f9
 5874 0864 00       		.byte	0
 5875 0865 16       		.uleb128 0x16
 5876 0866 780C0000 		.4byte	.LASF158
 5877 086a 10       		.byte	0x10
 5878 086b 0A01     		.2byte	0x10a
 5879 086d 25000000 		.4byte	0x25
 5880 0871 14       		.byte	0x14
 5881 0872 16       		.uleb128 0x16
 5882 0873 26090000 		.4byte	.LASF160
 5883 0877 10       		.byte	0x10
 5884 0878 0C01     		.2byte	0x10c
 5885 087a 25000000 		.4byte	0x25
 5886 087e 18       		.byte	0x18
 5887 087f 16       		.uleb128 0x16
 5888 0880 540A0000 		.4byte	.LASF161
 5889 0884 10       		.byte	0x10
 5890 0885 0E01     		.2byte	0x10e
 5891 0887 25000000 		.4byte	0x25
ARM GAS  /var/folders/6q/x_mk5n_j3p7_c40r_2k_78980000gn/T//ccu43oO2.s 			page 105


 5892 088b 1C       		.byte	0x1c
 5893 088c 16       		.uleb128 0x16
 5894 088d 340B0000 		.4byte	.LASF163
 5895 0891 10       		.byte	0x10
 5896 0892 1101     		.2byte	0x111
 5897 0894 25000000 		.4byte	0x25
 5898 0898 20       		.byte	0x20
 5899 0899 16       		.uleb128 0x16
 5900 089a 790E0000 		.4byte	.LASF164
 5901 089e 10       		.byte	0x10
 5902 089f 1201     		.2byte	0x112
 5903 08a1 25000000 		.4byte	0x25
 5904 08a5 24       		.byte	0x24
 5905 08a6 16       		.uleb128 0x16
 5906 08a7 6D070000 		.4byte	.LASF165
 5907 08ab 10       		.byte	0x10
 5908 08ac 1301     		.2byte	0x113
 5909 08ae 25000000 		.4byte	0x25
 5910 08b2 28       		.byte	0x28
 5911 08b3 16       		.uleb128 0x16
 5912 08b4 CB0A0000 		.4byte	.LASF166
 5913 08b8 10       		.byte	0x10
 5914 08b9 1401     		.2byte	0x114
 5915 08bb 25000000 		.4byte	0x25
 5916 08bf 2C       		.byte	0x2c
 5917 08c0 16       		.uleb128 0x16
 5918 08c1 BF0A0000 		.4byte	.LASF167
 5919 08c5 10       		.byte	0x10
 5920 08c6 1701     		.2byte	0x117
 5921 08c8 3A000000 		.4byte	0x3a
 5922 08cc 30       		.byte	0x30
 5923 08cd 16       		.uleb128 0x16
 5924 08ce CD0C0000 		.4byte	.LASF171
 5925 08d2 10       		.byte	0x10
 5926 08d3 1A01     		.2byte	0x11a
 5927 08d5 9B050000 		.4byte	0x59b
 5928 08d9 32       		.byte	0x32
 5929 08da 16       		.uleb128 0x16
 5930 08db 2F000000 		.4byte	.LASF172
 5931 08df 10       		.byte	0x10
 5932 08e0 1D01     		.2byte	0x11d
 5933 08e2 2F050000 		.4byte	0x52f
 5934 08e6 33       		.byte	0x33
 5935 08e7 00       		.byte	0
 5936 08e8 06       		.uleb128 0x6
 5937 08e9 04       		.byte	0x4
 5938 08ea 4B080000 		.4byte	0x84b
 5939 08ee 04       		.uleb128 0x4
 5940 08ef F7050000 		.4byte	.LASF173
 5941 08f3 10       		.byte	0x10
 5942 08f4 E3       		.byte	0xe3
 5943 08f5 9E060000 		.4byte	0x69e
 5944 08f9 17       		.uleb128 0x17
 5945 08fa 09090000 		.4byte	0x909
 5946 08fe 09090000 		.4byte	0x909
 5947 0902 18       		.uleb128 0x18
 5948 0903 A1000000 		.4byte	0xa1
ARM GAS  /var/folders/6q/x_mk5n_j3p7_c40r_2k_78980000gn/T//ccu43oO2.s 			page 106


 5949 0907 04       		.byte	0x4
 5950 0908 00       		.byte	0
 5951 0909 06       		.uleb128 0x6
 5952 090a 04       		.byte	0x4
 5953 090b EE080000 		.4byte	0x8ee
 5954 090f 19       		.uleb128 0x19
 5955 0910 610B0000 		.4byte	.LASF174
 5956 0914 10       		.byte	0x10
 5957 0915 1E01     		.2byte	0x11e
 5958 0917 4B080000 		.4byte	0x84b
 5959 091b 1A       		.uleb128 0x1a
 5960 091c 5C020000 		.4byte	.LASF177
 5961 0920 02       		.byte	0x2
 5962 0921 3B       		.byte	0x3b
 5963 0922 25000000 		.4byte	0x25
 5964 0926 03       		.byte	0x3
 5965 0927 81090000 		.4byte	0x981
 5966 092b 1B       		.uleb128 0x1b
 5967 092c 7000     		.ascii	"p\000"
 5968 092e 02       		.byte	0x2
 5969 092f 3B       		.byte	0x3b
 5970 0930 25000000 		.4byte	0x25
 5971 0934 1C       		.uleb128 0x1c
 5972 0935 55020000 		.4byte	.LASF175
 5973 0939 02       		.byte	0x2
 5974 093a 3D       		.byte	0x3d
 5975 093b 25000000 		.4byte	0x25
 5976 093f 1C       		.uleb128 0x1c
 5977 0940 C70C0000 		.4byte	.LASF176
 5978 0944 02       		.byte	0x2
 5979 0945 3E       		.byte	0x3e
 5980 0946 25000000 		.4byte	0x25
 5981 094a 1D       		.uleb128 0x1d
 5982 094b 7700     		.ascii	"w\000"
 5983 094d 02       		.byte	0x2
 5984 094e 3F       		.byte	0x3f
 5985 094f 33000000 		.4byte	0x33
 5986 0953 1D       		.uleb128 0x1d
 5987 0954 7A00     		.ascii	"z\000"
 5988 0956 02       		.byte	0x2
 5989 0957 40       		.byte	0x40
 5990 0958 25000000 		.4byte	0x25
 5991 095c 11       		.uleb128 0x11
 5992 095d 04       		.byte	0x4
 5993 095e 02       		.byte	0x2
 5994 095f 41       		.byte	0x41
 5995 0960 77090000 		.4byte	0x977
 5996 0964 1E       		.uleb128 0x1e
 5997 0965 6900     		.ascii	"i\000"
 5998 0967 02       		.byte	0x2
 5999 0968 41       		.byte	0x41
 6000 0969 D2000000 		.4byte	0xd2
 6001 096d 1E       		.uleb128 0x1e
 6002 096e 6600     		.ascii	"f\000"
 6003 0970 02       		.byte	0x2
 6004 0971 41       		.byte	0x41
 6005 0972 25000000 		.4byte	0x25
ARM GAS  /var/folders/6q/x_mk5n_j3p7_c40r_2k_78980000gn/T//ccu43oO2.s 			page 107


 6006 0976 00       		.byte	0
 6007 0977 1D       		.uleb128 0x1d
 6008 0978 7600     		.ascii	"v\000"
 6009 097a 02       		.byte	0x2
 6010 097b 41       		.byte	0x41
 6011 097c 5C090000 		.4byte	0x95c
 6012 0980 00       		.byte	0
 6013 0981 1A       		.uleb128 0x1a
 6014 0982 320D0000 		.4byte	.LASF178
 6015 0986 02       		.byte	0x2
 6016 0987 47       		.byte	0x47
 6017 0988 25000000 		.4byte	0x25
 6018 098c 03       		.byte	0x3
 6019 098d EE090000 		.4byte	0x9ee
 6020 0991 1B       		.uleb128 0x1b
 6021 0992 7800     		.ascii	"x\000"
 6022 0994 02       		.byte	0x2
 6023 0995 47       		.byte	0x47
 6024 0996 25000000 		.4byte	0x25
 6025 099a 11       		.uleb128 0x11
 6026 099b 04       		.byte	0x4
 6027 099c 02       		.byte	0x2
 6028 099d 49       		.byte	0x49
 6029 099e B5090000 		.4byte	0x9b5
 6030 09a2 1E       		.uleb128 0x1e
 6031 09a3 6600     		.ascii	"f\000"
 6032 09a5 02       		.byte	0x2
 6033 09a6 49       		.byte	0x49
 6034 09a7 25000000 		.4byte	0x25
 6035 09ab 1E       		.uleb128 0x1e
 6036 09ac 6900     		.ascii	"i\000"
 6037 09ae 02       		.byte	0x2
 6038 09af 49       		.byte	0x49
 6039 09b0 D2000000 		.4byte	0xd2
 6040 09b4 00       		.byte	0
 6041 09b5 1D       		.uleb128 0x1d
 6042 09b6 767800   		.ascii	"vx\000"
 6043 09b9 02       		.byte	0x2
 6044 09ba 49       		.byte	0x49
 6045 09bb 9A090000 		.4byte	0x99a
 6046 09bf 11       		.uleb128 0x11
 6047 09c0 04       		.byte	0x4
 6048 09c1 02       		.byte	0x2
 6049 09c2 4A       		.byte	0x4a
 6050 09c3 DA090000 		.4byte	0x9da
 6051 09c7 1E       		.uleb128 0x1e
 6052 09c8 6900     		.ascii	"i\000"
 6053 09ca 02       		.byte	0x2
 6054 09cb 4A       		.byte	0x4a
 6055 09cc D2000000 		.4byte	0xd2
 6056 09d0 1E       		.uleb128 0x1e
 6057 09d1 6600     		.ascii	"f\000"
 6058 09d3 02       		.byte	0x2
 6059 09d4 4A       		.byte	0x4a
 6060 09d5 25000000 		.4byte	0x25
 6061 09d9 00       		.byte	0
 6062 09da 1D       		.uleb128 0x1d
ARM GAS  /var/folders/6q/x_mk5n_j3p7_c40r_2k_78980000gn/T//ccu43oO2.s 			page 108


 6063 09db 6D7800   		.ascii	"mx\000"
 6064 09de 02       		.byte	0x2
 6065 09df 4A       		.byte	0x4a
 6066 09e0 BF090000 		.4byte	0x9bf
 6067 09e4 1D       		.uleb128 0x1d
 6068 09e5 7900     		.ascii	"y\000"
 6069 09e7 02       		.byte	0x2
 6070 09e8 4B       		.byte	0x4b
 6071 09e9 25000000 		.4byte	0x25
 6072 09ed 00       		.byte	0
 6073 09ee 1F       		.uleb128 0x1f
 6074 09ef 73676E00 		.ascii	"sgn\000"
 6075 09f3 01       		.byte	0x1
 6076 09f4 8C       		.byte	0x8c
 6077 09f5 25000000 		.4byte	0x25
 6078 09f9 03       		.byte	0x3
 6079 09fa 080A0000 		.4byte	0xa08
 6080 09fe 1B       		.uleb128 0x1b
 6081 09ff 7800     		.ascii	"x\000"
 6082 0a01 01       		.byte	0x1
 6083 0a02 8C       		.byte	0x8c
 6084 0a03 25000000 		.4byte	0x25
 6085 0a07 00       		.byte	0
 6086 0a08 20       		.uleb128 0x20
 6087 0a09 D70C0000 		.4byte	.LASF179
 6088 0a0d 01       		.byte	0x1
 6089 0a0e B401     		.2byte	0x1b4
 6090 0a10 01       		.byte	0x1
 6091 0a11 20       		.uleb128 0x20
 6092 0a12 3F040000 		.4byte	.LASF180
 6093 0a16 01       		.byte	0x1
 6094 0a17 9F01     		.2byte	0x19f
 6095 0a19 01       		.byte	0x1
 6096 0a1a 1A       		.uleb128 0x1a
 6097 0a1b 0D0E0000 		.4byte	.LASF181
 6098 0a1f 02       		.byte	0x2
 6099 0a20 54       		.byte	0x54
 6100 0a21 25000000 		.4byte	0x25
 6101 0a25 03       		.byte	0x3
 6102 0a26 340A0000 		.4byte	0xa34
 6103 0a2a 1B       		.uleb128 0x1b
 6104 0a2b 7000     		.ascii	"p\000"
 6105 0a2d 02       		.byte	0x2
 6106 0a2e 54       		.byte	0x54
 6107 0a2f 25000000 		.4byte	0x25
 6108 0a33 00       		.byte	0
 6109 0a34 1A       		.uleb128 0x1a
 6110 0a35 29010000 		.4byte	.LASF182
 6111 0a39 02       		.byte	0x2
 6112 0a3a 61       		.byte	0x61
 6113 0a3b 25000000 		.4byte	0x25
 6114 0a3f 03       		.byte	0x3
 6115 0a40 4E0A0000 		.4byte	0xa4e
 6116 0a44 1B       		.uleb128 0x1b
 6117 0a45 7800     		.ascii	"x\000"
 6118 0a47 02       		.byte	0x2
 6119 0a48 61       		.byte	0x61
ARM GAS  /var/folders/6q/x_mk5n_j3p7_c40r_2k_78980000gn/T//ccu43oO2.s 			page 109


 6120 0a49 25000000 		.4byte	0x25
 6121 0a4d 00       		.byte	0
 6122 0a4e 21       		.uleb128 0x21
 6123 0a4f 8B030000 		.4byte	.LASF184
 6124 0a53 01       		.byte	0x1
 6125 0a54 0E05     		.2byte	0x50e
 6126 0a56 01       		.byte	0x1
 6127 0a57 720A0000 		.4byte	0xa72
 6128 0a5b 22       		.uleb128 0x22
 6129 0a5c 6D00     		.ascii	"m\000"
 6130 0a5e 01       		.byte	0x1
 6131 0a5f 0E05     		.2byte	0x50e
 6132 0a61 09090000 		.4byte	0x909
 6133 0a65 23       		.uleb128 0x23
 6134 0a66 1D0E0000 		.4byte	.LASF183
 6135 0a6a 01       		.byte	0x1
 6136 0a6b 0E05     		.2byte	0x50e
 6137 0a6d 25000000 		.4byte	0x25
 6138 0a71 00       		.byte	0
 6139 0a72 21       		.uleb128 0x21
 6140 0a73 CF070000 		.4byte	.LASF185
 6141 0a77 01       		.byte	0x1
 6142 0a78 3F05     		.2byte	0x53f
 6143 0a7a 01       		.byte	0x1
 6144 0a7b C40A0000 		.4byte	0xac4
 6145 0a7f 22       		.uleb128 0x22
 6146 0a80 7300     		.ascii	"s\000"
 6147 0a82 01       		.byte	0x1
 6148 0a83 3F05     		.2byte	0x53f
 6149 0a85 C40A0000 		.4byte	0xac4
 6150 0a89 23       		.uleb128 0x23
 6151 0a8a 1D0E0000 		.4byte	.LASF183
 6152 0a8e 01       		.byte	0x1
 6153 0a8f 3F05     		.2byte	0x53f
 6154 0a91 25000000 		.4byte	0x25
 6155 0a95 24       		.uleb128 0x24
 6156 0a96 6D00     		.ascii	"m\000"
 6157 0a98 01       		.byte	0x1
 6158 0a99 4105     		.2byte	0x541
 6159 0a9b 09090000 		.4byte	0x909
 6160 0a9f 24       		.uleb128 0x24
 6161 0aa0 6900     		.ascii	"i\000"
 6162 0aa2 01       		.byte	0x1
 6163 0aa3 4205     		.2byte	0x542
 6164 0aa5 33000000 		.4byte	0x33
 6165 0aa9 25       		.uleb128 0x25
 6166 0aaa 26       		.uleb128 0x26
 6167 0aab 2B020000 		.4byte	.LASF186
 6168 0aaf 01       		.byte	0x1
 6169 0ab0 5505     		.2byte	0x555
 6170 0ab2 33000000 		.4byte	0x33
 6171 0ab6 26       		.uleb128 0x26
 6172 0ab7 3A000000 		.4byte	.LASF187
 6173 0abb 01       		.byte	0x1
 6174 0abc 6505     		.2byte	0x565
 6175 0abe 25000000 		.4byte	0x25
 6176 0ac2 00       		.byte	0
ARM GAS  /var/folders/6q/x_mk5n_j3p7_c40r_2k_78980000gn/T//ccu43oO2.s 			page 110


 6177 0ac3 00       		.byte	0
 6178 0ac4 06       		.uleb128 0x6
 6179 0ac5 04       		.byte	0x4
 6180 0ac6 0F090000 		.4byte	0x90f
 6181 0aca 21       		.uleb128 0x21
 6182 0acb 600E0000 		.4byte	.LASF188
 6183 0acf 01       		.byte	0x1
 6184 0ad0 8205     		.2byte	0x582
 6185 0ad2 01       		.byte	0x1
 6186 0ad3 EE0A0000 		.4byte	0xaee
 6187 0ad7 22       		.uleb128 0x22
 6188 0ad8 6D00     		.ascii	"m\000"
 6189 0ada 01       		.byte	0x1
 6190 0adb 8205     		.2byte	0x582
 6191 0add 09090000 		.4byte	0x909
 6192 0ae1 23       		.uleb128 0x23
 6193 0ae2 1D0E0000 		.4byte	.LASF183
 6194 0ae6 01       		.byte	0x1
 6195 0ae7 8205     		.2byte	0x582
 6196 0ae9 25000000 		.4byte	0x25
 6197 0aed 00       		.byte	0
 6198 0aee 27       		.uleb128 0x27
 6199 0aef 65020000 		.4byte	.LASF191
 6200 0af3 01       		.byte	0x1
 6201 0af4 E204     		.2byte	0x4e2
 6202 0af6 25000000 		.4byte	0x25
 6203 0afa 01       		.byte	0x1
 6204 0afb 220B0000 		.4byte	0xb22
 6205 0aff 22       		.uleb128 0x22
 6206 0b00 6D00     		.ascii	"m\000"
 6207 0b02 01       		.byte	0x1
 6208 0b03 E204     		.2byte	0x4e2
 6209 0b05 09090000 		.4byte	0x909
 6210 0b09 23       		.uleb128 0x23
 6211 0b0a 5B040000 		.4byte	.LASF189
 6212 0b0e 01       		.byte	0x1
 6213 0b0f E204     		.2byte	0x4e2
 6214 0b11 33000000 		.4byte	0x33
 6215 0b15 26       		.uleb128 0x26
 6216 0b16 6A040000 		.4byte	.LASF190
 6217 0b1a 01       		.byte	0x1
 6218 0b1b E404     		.2byte	0x4e4
 6219 0b1d 25000000 		.4byte	0x25
 6220 0b21 00       		.byte	0
 6221 0b22 27       		.uleb128 0x27
 6222 0b23 980A0000 		.4byte	.LASF192
 6223 0b27 01       		.byte	0x1
 6224 0b28 F704     		.2byte	0x4f7
 6225 0b2a 25000000 		.4byte	0x25
 6226 0b2e 01       		.byte	0x1
 6227 0b2f 560B0000 		.4byte	0xb56
 6228 0b33 22       		.uleb128 0x22
 6229 0b34 7300     		.ascii	"s\000"
 6230 0b36 01       		.byte	0x1
 6231 0b37 F704     		.2byte	0x4f7
 6232 0b39 C40A0000 		.4byte	0xac4
 6233 0b3d 23       		.uleb128 0x23
ARM GAS  /var/folders/6q/x_mk5n_j3p7_c40r_2k_78980000gn/T//ccu43oO2.s 			page 111


 6234 0b3e 5B040000 		.4byte	.LASF189
 6235 0b42 01       		.byte	0x1
 6236 0b43 F704     		.2byte	0x4f7
 6237 0b45 33000000 		.4byte	0x33
 6238 0b49 26       		.uleb128 0x26
 6239 0b4a 6A040000 		.4byte	.LASF190
 6240 0b4e 01       		.byte	0x1
 6241 0b4f F904     		.2byte	0x4f9
 6242 0b51 25000000 		.4byte	0x25
 6243 0b55 00       		.byte	0
 6244 0b56 28       		.uleb128 0x28
 6245 0b57 36030000 		.4byte	.LASF195
 6246 0b5b 01       		.byte	0x1
 6247 0b5c 4806     		.2byte	0x648
 6248 0b5e 26010000 		.4byte	0x126
 6249 0b62 00000000 		.4byte	.LFB108
 6250 0b66 78010000 		.4byte	.LFE108-.LFB108
 6251 0b6a 01       		.uleb128 0x1
 6252 0b6b 9C       		.byte	0x9c
 6253 0b6c 3C0C0000 		.4byte	0xc3c
 6254 0b70 29       		.uleb128 0x29
 6255 0b71 61726700 		.ascii	"arg\000"
 6256 0b75 01       		.byte	0x1
 6257 0b76 4806     		.2byte	0x648
 6258 0b78 A8000000 		.4byte	0xa8
 6259 0b7c 00000000 		.4byte	.LLST0
 6260 0b80 2A       		.uleb128 0x2a
 6261 0b81 77070000 		.4byte	.LASF139
 6262 0b85 01       		.byte	0x1
 6263 0b86 4A06     		.2byte	0x64a
 6264 0b88 3C0C0000 		.4byte	0xc3c
 6265 0b8c 0F       		.byte	0xf
 6266 0b8d 2B       		.uleb128 0x2b
 6267 0b8e 84050000 		.4byte	.LASF193
 6268 0b92 01       		.byte	0x1
 6269 0b93 4B06     		.2byte	0x64b
 6270 0b95 33000000 		.4byte	0x33
 6271 0b99 21000000 		.4byte	.LLST1
 6272 0b9d 2B       		.uleb128 0x2b
 6273 0b9e AD0B0000 		.4byte	.LASF194
 6274 0ba2 01       		.byte	0x1
 6275 0ba3 4C06     		.2byte	0x64c
 6276 0ba5 33000000 		.4byte	0x33
 6277 0ba9 35000000 		.4byte	.LLST2
 6278 0bad 24       		.uleb128 0x24
 6279 0bae 6D00     		.ascii	"m\000"
 6280 0bb0 01       		.byte	0x1
 6281 0bb1 4D06     		.2byte	0x64d
 6282 0bb3 09090000 		.4byte	0x909
 6283 0bb7 2C       		.uleb128 0x2c
 6284 0bb8 EE090000 		.4byte	0x9ee
 6285 0bbc B0000000 		.4byte	.LBB46
 6286 0bc0 00000000 		.4byte	.Ldebug_ranges0+0
 6287 0bc4 01       		.byte	0x1
 6288 0bc5 7106     		.2byte	0x671
 6289 0bc7 D50B0000 		.4byte	0xbd5
 6290 0bcb 2D       		.uleb128 0x2d
ARM GAS  /var/folders/6q/x_mk5n_j3p7_c40r_2k_78980000gn/T//ccu43oO2.s 			page 112


 6291 0bcc FE090000 		.4byte	0x9fe
 6292 0bd0 8F000000 		.4byte	.LLST3
 6293 0bd4 00       		.byte	0
 6294 0bd5 2C       		.uleb128 0x2c
 6295 0bd6 EE090000 		.4byte	0x9ee
 6296 0bda D0000000 		.4byte	.LBB52
 6297 0bde 28000000 		.4byte	.Ldebug_ranges0+0x28
 6298 0be2 01       		.byte	0x1
 6299 0be3 7106     		.2byte	0x671
 6300 0be5 F30B0000 		.4byte	0xbf3
 6301 0be9 2D       		.uleb128 0x2d
 6302 0bea FE090000 		.4byte	0x9fe
 6303 0bee B8000000 		.4byte	.LLST4
 6304 0bf2 00       		.byte	0
 6305 0bf3 2E       		.uleb128 0x2e
 6306 0bf4 0E000000 		.4byte	.LVL2
 6307 0bf8 421D0000 		.4byte	0x1d42
 6308 0bfc 0F0C0000 		.4byte	0xc0f
 6309 0c00 2F       		.uleb128 0x2f
 6310 0c01 01       		.uleb128 0x1
 6311 0c02 50       		.byte	0x50
 6312 0c03 05       		.uleb128 0x5
 6313 0c04 03       		.byte	0x3
 6314 0c05 00000000 		.4byte	.LC0
 6315 0c09 2F       		.uleb128 0x2f
 6316 0c0a 01       		.uleb128 0x1
 6317 0c0b 51       		.byte	0x51
 6318 0c0c 01       		.uleb128 0x1
 6319 0c0d 31       		.byte	0x31
 6320 0c0e 00       		.byte	0
 6321 0c0f 2E       		.uleb128 0x2e
 6322 0c10 6E000000 		.4byte	.LVL8
 6323 0c14 4D1D0000 		.4byte	0x1d4d
 6324 0c18 230C0000 		.4byte	0xc23
 6325 0c1c 2F       		.uleb128 0x2f
 6326 0c1d 01       		.uleb128 0x1
 6327 0c1e 51       		.byte	0x51
 6328 0c1f 02       		.uleb128 0x2
 6329 0c20 74       		.byte	0x74
 6330 0c21 00       		.sleb128 0
 6331 0c22 00       		.byte	0
 6332 0c23 30       		.uleb128 0x30
 6333 0c24 7E000000 		.4byte	.LVL10
 6334 0c28 581D0000 		.4byte	0x1d58
 6335 0c2c 31       		.uleb128 0x31
 6336 0c2d 2E010000 		.4byte	.LVL31
 6337 0c31 631D0000 		.4byte	0x1d63
 6338 0c35 2F       		.uleb128 0x2f
 6339 0c36 01       		.uleb128 0x1
 6340 0c37 50       		.byte	0x50
 6341 0c38 01       		.uleb128 0x1
 6342 0c39 3F       		.byte	0x3f
 6343 0c3a 00       		.byte	0
 6344 0c3b 00       		.byte	0
 6345 0c3c 07       		.uleb128 0x7
 6346 0c3d 33000000 		.4byte	0x33
 6347 0c41 32       		.uleb128 0x32
ARM GAS  /var/folders/6q/x_mk5n_j3p7_c40r_2k_78980000gn/T//ccu43oO2.s 			page 113


 6348 0c42 960C0000 		.4byte	.LASF196
 6349 0c46 01       		.byte	0x1
 6350 0c47 A6       		.byte	0xa6
 6351 0c48 09090000 		.4byte	0x909
 6352 0c4c 00000000 		.4byte	.LFB69
 6353 0c50 18000000 		.4byte	.LFE69-.LFB69
 6354 0c54 01       		.uleb128 0x1
 6355 0c55 9C       		.byte	0x9c
 6356 0c56 6A0C0000 		.4byte	0xc6a
 6357 0c5a 33       		.uleb128 0x33
 6358 0c5b EF010000 		.4byte	.LASF197
 6359 0c5f 01       		.byte	0x1
 6360 0c60 A6       		.byte	0xa6
 6361 0c61 4A060000 		.4byte	0x64a
 6362 0c65 F9000000 		.4byte	.LLST5
 6363 0c69 00       		.byte	0
 6364 0c6a 32       		.uleb128 0x32
 6365 0c6b 70080000 		.4byte	.LASF198
 6366 0c6f 01       		.byte	0x1
 6367 0c70 B6       		.byte	0xb6
 6368 0c71 C40A0000 		.4byte	0xac4
 6369 0c75 00000000 		.4byte	.LFB70
 6370 0c79 18000000 		.4byte	.LFE70-.LFB70
 6371 0c7d 01       		.uleb128 0x1
 6372 0c7e 9C       		.byte	0x9c
 6373 0c7f 930C0000 		.4byte	0xc93
 6374 0c83 33       		.uleb128 0x33
 6375 0c84 EF010000 		.4byte	.LASF197
 6376 0c88 01       		.byte	0x1
 6377 0c89 B6       		.byte	0xb6
 6378 0c8a 3A000000 		.4byte	0x3a
 6379 0c8e 1A010000 		.4byte	.LLST6
 6380 0c92 00       		.byte	0
 6381 0c93 32       		.uleb128 0x32
 6382 0c94 15000000 		.4byte	.LASF199
 6383 0c98 01       		.byte	0x1
 6384 0c99 C6       		.byte	0xc6
 6385 0c9a 25000000 		.4byte	0x25
 6386 0c9e 00000000 		.4byte	.LFB71
 6387 0ca2 1C000000 		.4byte	.LFE71-.LFB71
 6388 0ca6 01       		.uleb128 0x1
 6389 0ca7 9C       		.byte	0x9c
 6390 0ca8 BC0C0000 		.4byte	0xcbc
 6391 0cac 33       		.uleb128 0x33
 6392 0cad EF010000 		.4byte	.LASF197
 6393 0cb1 01       		.byte	0x1
 6394 0cb2 C6       		.byte	0xc6
 6395 0cb3 4A060000 		.4byte	0x64a
 6396 0cb7 3B010000 		.4byte	.LLST7
 6397 0cbb 00       		.byte	0
 6398 0cbc 32       		.uleb128 0x32
 6399 0cbd E80D0000 		.4byte	.LASF200
 6400 0cc1 01       		.byte	0x1
 6401 0cc2 D8       		.byte	0xd8
 6402 0cc3 25000000 		.4byte	0x25
 6403 0cc7 00000000 		.4byte	.LFB72
 6404 0ccb 3C000000 		.4byte	.LFE72-.LFB72
ARM GAS  /var/folders/6q/x_mk5n_j3p7_c40r_2k_78980000gn/T//ccu43oO2.s 			page 114


 6405 0ccf 01       		.uleb128 0x1
 6406 0cd0 9C       		.byte	0x9c
 6407 0cd1 F20C0000 		.4byte	0xcf2
 6408 0cd5 33       		.uleb128 0x33
 6409 0cd6 EF010000 		.4byte	.LASF197
 6410 0cda 01       		.byte	0x1
 6411 0cdb D8       		.byte	0xd8
 6412 0cdc 4A060000 		.4byte	0x64a
 6413 0ce0 72010000 		.4byte	.LLST8
 6414 0ce4 34       		.uleb128 0x34
 6415 0ce5 7300     		.ascii	"s\000"
 6416 0ce7 01       		.byte	0x1
 6417 0ce8 D8       		.byte	0xd8
 6418 0ce9 33000000 		.4byte	0x33
 6419 0ced 02       		.uleb128 0x2
 6420 0cee 91       		.byte	0x91
 6421 0cef 74       		.sleb128 -12
 6422 0cf0 35       		.uleb128 0x35
 6423 0cf1 00       		.byte	0
 6424 0cf2 32       		.uleb128 0x32
 6425 0cf3 450D0000 		.4byte	.LASF201
 6426 0cf7 01       		.byte	0x1
 6427 0cf8 EC       		.byte	0xec
 6428 0cf9 25000000 		.4byte	0x25
 6429 0cfd 00000000 		.4byte	.LFB73
 6430 0d01 1C000000 		.4byte	.LFE73-.LFB73
 6431 0d05 01       		.uleb128 0x1
 6432 0d06 9C       		.byte	0x9c
 6433 0d07 1B0D0000 		.4byte	0xd1b
 6434 0d0b 33       		.uleb128 0x33
 6435 0d0c EF010000 		.4byte	.LASF197
 6436 0d10 01       		.byte	0x1
 6437 0d11 EC       		.byte	0xec
 6438 0d12 4A060000 		.4byte	0x64a
 6439 0d16 C2010000 		.4byte	.LLST9
 6440 0d1a 00       		.byte	0
 6441 0d1b 32       		.uleb128 0x32
 6442 0d1c 4B0B0000 		.4byte	.LASF202
 6443 0d20 01       		.byte	0x1
 6444 0d21 FC       		.byte	0xfc
 6445 0d22 33000000 		.4byte	0x33
 6446 0d26 00000000 		.4byte	.LFB74
 6447 0d2a 20000000 		.4byte	.LFE74-.LFB74
 6448 0d2e 01       		.uleb128 0x1
 6449 0d2f 9C       		.byte	0x9c
 6450 0d30 440D0000 		.4byte	0xd44
 6451 0d34 33       		.uleb128 0x33
 6452 0d35 EF010000 		.4byte	.LASF197
 6453 0d39 01       		.byte	0x1
 6454 0d3a FC       		.byte	0xfc
 6455 0d3b 4A060000 		.4byte	0x64a
 6456 0d3f F9010000 		.4byte	.LLST10
 6457 0d43 00       		.byte	0
 6458 0d44 36       		.uleb128 0x36
 6459 0d45 BB020000 		.4byte	.LASF203
 6460 0d49 01       		.byte	0x1
 6461 0d4a 1001     		.2byte	0x110
ARM GAS  /var/folders/6q/x_mk5n_j3p7_c40r_2k_78980000gn/T//ccu43oO2.s 			page 115


 6462 0d4c 00000000 		.4byte	.LFB75
 6463 0d50 20000000 		.4byte	.LFE75-.LFB75
 6464 0d54 01       		.uleb128 0x1
 6465 0d55 9C       		.byte	0x9c
 6466 0d56 7B0D0000 		.4byte	0xd7b
 6467 0d5a 37       		.uleb128 0x37
 6468 0d5b EF010000 		.4byte	.LASF197
 6469 0d5f 01       		.byte	0x1
 6470 0d60 1001     		.2byte	0x110
 6471 0d62 4A060000 		.4byte	0x64a
 6472 0d66 30020000 		.4byte	.LLST11
 6473 0d6a 38       		.uleb128 0x38
 6474 0d6b 780C0000 		.4byte	.LASF158
 6475 0d6f 01       		.byte	0x1
 6476 0d70 1001     		.2byte	0x110
 6477 0d72 25000000 		.4byte	0x25
 6478 0d76 02       		.uleb128 0x2
 6479 0d77 91       		.byte	0x91
 6480 0d78 74       		.sleb128 -12
 6481 0d79 35       		.uleb128 0x35
 6482 0d7a 00       		.byte	0
 6483 0d7b 39       		.uleb128 0x39
 6484 0d7c 6A0D0000 		.4byte	.LASF204
 6485 0d80 01       		.byte	0x1
 6486 0d81 2001     		.2byte	0x120
 6487 0d83 00000000 		.4byte	.LFB76
 6488 0d87 74000000 		.4byte	.LFE76-.LFB76
 6489 0d8b 01       		.uleb128 0x1
 6490 0d8c 9C       		.byte	0x9c
 6491 0d8d C00D0000 		.4byte	0xdc0
 6492 0d91 37       		.uleb128 0x37
 6493 0d92 EF010000 		.4byte	.LASF197
 6494 0d96 01       		.byte	0x1
 6495 0d97 2001     		.2byte	0x120
 6496 0d99 4A060000 		.4byte	0x64a
 6497 0d9d 51020000 		.4byte	.LLST12
 6498 0da1 37       		.uleb128 0x37
 6499 0da2 3A070000 		.4byte	.LASF205
 6500 0da6 01       		.byte	0x1
 6501 0da7 2001     		.2byte	0x120
 6502 0da9 3A000000 		.4byte	0x3a
 6503 0dad 7D020000 		.4byte	.LLST13
 6504 0db1 3A       		.uleb128 0x3a
 6505 0db2 6D00     		.ascii	"m\000"
 6506 0db4 01       		.byte	0x1
 6507 0db5 2601     		.2byte	0x126
 6508 0db7 09090000 		.4byte	0x909
 6509 0dbb 9E020000 		.4byte	.LLST14
 6510 0dbf 00       		.byte	0
 6511 0dc0 36       		.uleb128 0x36
 6512 0dc1 D20D0000 		.4byte	.LASF206
 6513 0dc5 01       		.byte	0x1
 6514 0dc6 3A01     		.2byte	0x13a
 6515 0dc8 00000000 		.4byte	.LFB77
 6516 0dcc 1C000000 		.4byte	.LFE77-.LFB77
 6517 0dd0 01       		.uleb128 0x1
 6518 0dd1 9C       		.byte	0x9c
ARM GAS  /var/folders/6q/x_mk5n_j3p7_c40r_2k_78980000gn/T//ccu43oO2.s 			page 116


 6519 0dd2 F50D0000 		.4byte	0xdf5
 6520 0dd6 37       		.uleb128 0x37
 6521 0dd7 EF010000 		.4byte	.LASF197
 6522 0ddb 01       		.byte	0x1
 6523 0ddc 3A01     		.2byte	0x13a
 6524 0dde 4A060000 		.4byte	0x64a
 6525 0de2 D2020000 		.4byte	.LLST15
 6526 0de6 38       		.uleb128 0x38
 6527 0de7 E5050000 		.4byte	.LASF207
 6528 0deb 01       		.byte	0x1
 6529 0dec 3A01     		.2byte	0x13a
 6530 0dee 33000000 		.4byte	0x33
 6531 0df2 01       		.uleb128 0x1
 6532 0df3 51       		.byte	0x51
 6533 0df4 00       		.byte	0
 6534 0df5 3B       		.uleb128 0x3b
 6535 0df6 050D0000 		.4byte	.LASF208
 6536 0dfa 01       		.byte	0x1
 6537 0dfb 4E01     		.2byte	0x14e
 6538 0dfd 25000000 		.4byte	0x25
 6539 0e01 00000000 		.4byte	.LFB78
 6540 0e05 1C000000 		.4byte	.LFE78-.LFB78
 6541 0e09 01       		.uleb128 0x1
 6542 0e0a 9C       		.byte	0x9c
 6543 0e0b 200E0000 		.4byte	0xe20
 6544 0e0f 37       		.uleb128 0x37
 6545 0e10 EF010000 		.4byte	.LASF197
 6546 0e14 01       		.byte	0x1
 6547 0e15 4E01     		.2byte	0x14e
 6548 0e17 3A000000 		.4byte	0x3a
 6549 0e1b F3020000 		.4byte	.LLST16
 6550 0e1f 00       		.byte	0
 6551 0e20 3B       		.uleb128 0x3b
 6552 0e21 42070000 		.4byte	.LASF209
 6553 0e25 01       		.byte	0x1
 6554 0e26 5D01     		.2byte	0x15d
 6555 0e28 25000000 		.4byte	0x25
 6556 0e2c 00000000 		.4byte	.LFB79
 6557 0e30 1C000000 		.4byte	.LFE79-.LFB79
 6558 0e34 01       		.uleb128 0x1
 6559 0e35 9C       		.byte	0x9c
 6560 0e36 4B0E0000 		.4byte	0xe4b
 6561 0e3a 37       		.uleb128 0x37
 6562 0e3b EF010000 		.4byte	.LASF197
 6563 0e3f 01       		.byte	0x1
 6564 0e40 5D01     		.2byte	0x15d
 6565 0e42 3A000000 		.4byte	0x3a
 6566 0e46 2A030000 		.4byte	.LLST17
 6567 0e4a 00       		.byte	0
 6568 0e4b 36       		.uleb128 0x36
 6569 0e4c 33080000 		.4byte	.LASF210
 6570 0e50 01       		.byte	0x1
 6571 0e51 7101     		.2byte	0x171
 6572 0e53 00000000 		.4byte	.LFB80
 6573 0e57 1C000000 		.4byte	.LFE80-.LFB80
 6574 0e5b 01       		.uleb128 0x1
 6575 0e5c 9C       		.byte	0x9c
ARM GAS  /var/folders/6q/x_mk5n_j3p7_c40r_2k_78980000gn/T//ccu43oO2.s 			page 117


 6576 0e5d 800E0000 		.4byte	0xe80
 6577 0e61 37       		.uleb128 0x37
 6578 0e62 EF010000 		.4byte	.LASF197
 6579 0e66 01       		.byte	0x1
 6580 0e67 7101     		.2byte	0x171
 6581 0e69 33000000 		.4byte	0x33
 6582 0e6d 61030000 		.4byte	.LLST18
 6583 0e71 38       		.uleb128 0x38
 6584 0e72 E70B0000 		.4byte	.LASF136
 6585 0e76 01       		.byte	0x1
 6586 0e77 7101     		.2byte	0x171
 6587 0e79 9B050000 		.4byte	0x59b
 6588 0e7d 01       		.uleb128 0x1
 6589 0e7e 51       		.byte	0x51
 6590 0e7f 00       		.byte	0
 6591 0e80 36       		.uleb128 0x36
 6592 0e81 A3090000 		.4byte	.LASF211
 6593 0e85 01       		.byte	0x1
 6594 0e86 8701     		.2byte	0x187
 6595 0e88 00000000 		.4byte	.LFB81
 6596 0e8c 14000000 		.4byte	.LFE81-.LFB81
 6597 0e90 01       		.uleb128 0x1
 6598 0e91 9C       		.byte	0x9c
 6599 0e92 A50E0000 		.4byte	0xea5
 6600 0e96 38       		.uleb128 0x38
 6601 0e97 E70B0000 		.4byte	.LASF136
 6602 0e9b 01       		.byte	0x1
 6603 0e9c 8701     		.2byte	0x187
 6604 0e9e 2F050000 		.4byte	0x52f
 6605 0ea2 01       		.uleb128 0x1
 6606 0ea3 50       		.byte	0x50
 6607 0ea4 00       		.byte	0
 6608 0ea5 3C       		.uleb128 0x3c
 6609 0ea6 890E0000 		.4byte	.LASF212
 6610 0eaa 01       		.byte	0x1
 6611 0eab 9401     		.2byte	0x194
 6612 0ead 00000000 		.4byte	.LFB82
 6613 0eb1 18000000 		.4byte	.LFE82-.LFB82
 6614 0eb5 01       		.uleb128 0x1
 6615 0eb6 9C       		.byte	0x9c
 6616 0eb7 3D       		.uleb128 0x3d
 6617 0eb8 110A0000 		.4byte	0xa11
 6618 0ebc 00000000 		.4byte	.LFB83
 6619 0ec0 0C000000 		.4byte	.LFE83-.LFB83
 6620 0ec4 01       		.uleb128 0x1
 6621 0ec5 9C       		.byte	0x9c
 6622 0ec6 3C       		.uleb128 0x3c
 6623 0ec7 17030000 		.4byte	.LASF213
 6624 0ecb 01       		.byte	0x1
 6625 0ecc A901     		.2byte	0x1a9
 6626 0ece 00000000 		.4byte	.LFB84
 6627 0ed2 18000000 		.4byte	.LFE84-.LFB84
 6628 0ed6 01       		.uleb128 0x1
 6629 0ed7 9C       		.byte	0x9c
 6630 0ed8 3D       		.uleb128 0x3d
 6631 0ed9 080A0000 		.4byte	0xa08
 6632 0edd 00000000 		.4byte	.LFB85
ARM GAS  /var/folders/6q/x_mk5n_j3p7_c40r_2k_78980000gn/T//ccu43oO2.s 			page 118


 6633 0ee1 0C000000 		.4byte	.LFE85-.LFB85
 6634 0ee5 01       		.uleb128 0x1
 6635 0ee6 9C       		.byte	0x9c
 6636 0ee7 36       		.uleb128 0x36
 6637 0ee8 DD000000 		.4byte	.LASF214
 6638 0eec 01       		.byte	0x1
 6639 0eed BF01     		.2byte	0x1bf
 6640 0eef 00000000 		.4byte	.LFB86
 6641 0ef3 24000000 		.4byte	.LFE86-.LFB86
 6642 0ef7 01       		.uleb128 0x1
 6643 0ef8 9C       		.byte	0x9c
 6644 0ef9 400F0000 		.4byte	0xf40
 6645 0efd 2E       		.uleb128 0x2e
 6646 0efe 0C000000 		.4byte	.LVL87
 6647 0f02 6E1D0000 		.4byte	0x1d6e
 6648 0f06 200F0000 		.4byte	0xf20
 6649 0f0a 2F       		.uleb128 0x2f
 6650 0f0b 01       		.uleb128 0x1
 6651 0f0c 50       		.byte	0x50
 6652 0f0d 05       		.uleb128 0x5
 6653 0f0e 03       		.byte	0x3
 6654 0f0f 00000000 		.4byte	SmartMotorTask
 6655 0f13 2F       		.uleb128 0x2f
 6656 0f14 01       		.uleb128 0x1
 6657 0f15 51       		.byte	0x51
 6658 0f16 02       		.uleb128 0x2
 6659 0f17 08       		.byte	0x8
 6660 0f18 45       		.byte	0x45
 6661 0f19 2F       		.uleb128 0x2f
 6662 0f1a 01       		.uleb128 0x1
 6663 0f1b 52       		.byte	0x52
 6664 0f1c 02       		.uleb128 0x2
 6665 0f1d 08       		.byte	0x8
 6666 0f1e 40       		.byte	0x40
 6667 0f1f 00       		.byte	0
 6668 0f20 3E       		.uleb128 0x3e
 6669 0f21 1A000000 		.4byte	.LVL88
 6670 0f25 6E1D0000 		.4byte	0x1d6e
 6671 0f29 2F       		.uleb128 0x2f
 6672 0f2a 01       		.uleb128 0x1
 6673 0f2b 50       		.byte	0x50
 6674 0f2c 05       		.uleb128 0x5
 6675 0f2d 03       		.byte	0x3
 6676 0f2e 00000000 		.4byte	SmartMotorSlewRateTask
 6677 0f32 2F       		.uleb128 0x2f
 6678 0f33 01       		.uleb128 0x1
 6679 0f34 51       		.byte	0x51
 6680 0f35 02       		.uleb128 0x2
 6681 0f36 08       		.byte	0x8
 6682 0f37 44       		.byte	0x44
 6683 0f38 2F       		.uleb128 0x2f
 6684 0f39 01       		.uleb128 0x1
 6685 0f3a 52       		.byte	0x52
 6686 0f3b 02       		.uleb128 0x2
 6687 0f3c 08       		.byte	0x8
 6688 0f3d 40       		.byte	0x40
 6689 0f3e 00       		.byte	0
ARM GAS  /var/folders/6q/x_mk5n_j3p7_c40r_2k_78980000gn/T//ccu43oO2.s 			page 119


 6690 0f3f 00       		.byte	0
 6691 0f40 36       		.uleb128 0x36
 6692 0f41 8B020000 		.4byte	.LASF215
 6693 0f45 01       		.byte	0x1
 6694 0f46 CC01     		.2byte	0x1cc
 6695 0f48 00000000 		.4byte	.LFB87
 6696 0f4c 2C000000 		.4byte	.LFE87-.LFB87
 6697 0f50 01       		.uleb128 0x1
 6698 0f51 9C       		.byte	0x9c
 6699 0f52 A10F0000 		.4byte	0xfa1
 6700 0f56 3F       		.uleb128 0x3f
 6701 0f57 110A0000 		.4byte	0xa11
 6702 0f5b 02000000 		.4byte	.LBB66
 6703 0f5f 60000000 		.4byte	.Ldebug_ranges0+0x60
 6704 0f63 01       		.byte	0x1
 6705 0f64 CE01     		.2byte	0x1ce
 6706 0f66 3F       		.uleb128 0x3f
 6707 0f67 080A0000 		.4byte	0xa08
 6708 0f6b 04000000 		.4byte	.LBB70
 6709 0f6f 80000000 		.4byte	.Ldebug_ranges0+0x80
 6710 0f73 01       		.byte	0x1
 6711 0f74 CF01     		.2byte	0x1cf
 6712 0f76 2E       		.uleb128 0x2e
 6713 0f77 12000000 		.4byte	.LVL89
 6714 0f7b 791D0000 		.4byte	0x1d79
 6715 0f7f 8D0F0000 		.4byte	0xf8d
 6716 0f83 2F       		.uleb128 0x2f
 6717 0f84 01       		.uleb128 0x1
 6718 0f85 50       		.byte	0x50
 6719 0f86 05       		.uleb128 0x5
 6720 0f87 03       		.byte	0x3
 6721 0f88 00000000 		.4byte	SmartMotorTask
 6722 0f8c 00       		.byte	0
 6723 0f8d 3E       		.uleb128 0x3e
 6724 0f8e 1C000000 		.4byte	.LVL90
 6725 0f92 791D0000 		.4byte	0x1d79
 6726 0f96 2F       		.uleb128 0x2f
 6727 0f97 01       		.uleb128 0x1
 6728 0f98 50       		.byte	0x50
 6729 0f99 05       		.uleb128 0x5
 6730 0f9a 03       		.byte	0x3
 6731 0f9b 00000000 		.4byte	SmartMotorSlewRateTask
 6732 0f9f 00       		.byte	0
 6733 0fa0 00       		.byte	0
 6734 0fa1 39       		.uleb128 0x39
 6735 0fa2 A70C0000 		.4byte	.LASF216
 6736 0fa6 01       		.byte	0x1
 6737 0fa7 DA01     		.2byte	0x1da
 6738 0fa9 00000000 		.4byte	.LFB88
 6739 0fad D8000000 		.4byte	.LFE88-.LFB88
 6740 0fb1 01       		.uleb128 0x1
 6741 0fb2 9C       		.byte	0x9c
 6742 0fb3 F2100000 		.4byte	0x10f2
 6743 0fb7 3A       		.uleb128 0x3a
 6744 0fb8 6900     		.ascii	"i\000"
 6745 0fba 01       		.byte	0x1
 6746 0fbb DC01     		.2byte	0x1dc
ARM GAS  /var/folders/6q/x_mk5n_j3p7_c40r_2k_78980000gn/T//ccu43oO2.s 			page 120


 6747 0fbd 3A000000 		.4byte	0x3a
 6748 0fc1 82030000 		.4byte	.LLST19
 6749 0fc5 3A       		.uleb128 0x3a
 6750 0fc6 6A00     		.ascii	"j\000"
 6751 0fc8 01       		.byte	0x1
 6752 0fc9 DC01     		.2byte	0x1dc
 6753 0fcb 3A000000 		.4byte	0x3a
 6754 0fcf 96030000 		.4byte	.LLST20
 6755 0fd3 3A       		.uleb128 0x3a
 6756 0fd4 6D00     		.ascii	"m\000"
 6757 0fd6 01       		.byte	0x1
 6758 0fd7 DD01     		.2byte	0x1dd
 6759 0fd9 09090000 		.4byte	0x909
 6760 0fdd C0030000 		.4byte	.LLST21
 6761 0fe1 3A       		.uleb128 0x3a
 6762 0fe2 7300     		.ascii	"s\000"
 6763 0fe4 01       		.byte	0x1
 6764 0fe5 DE01     		.2byte	0x1de
 6765 0fe7 C40A0000 		.4byte	0xac4
 6766 0feb D3030000 		.4byte	.LLST22
 6767 0fef 30       		.uleb128 0x30
 6768 0ff0 18000000 		.4byte	.LVL93
 6769 0ff4 841D0000 		.4byte	0x1d84
 6770 0ff8 2E       		.uleb128 0x2e
 6771 0ff9 28000000 		.4byte	.LVL95
 6772 0ffd 841D0000 		.4byte	0x1d84
 6773 1001 0F100000 		.4byte	0x100f
 6774 1005 2F       		.uleb128 0x2f
 6775 1006 01       		.uleb128 0x1
 6776 1007 50       		.byte	0x50
 6777 1008 05       		.uleb128 0x5
 6778 1009 03       		.byte	0x3
 6779 100a 54000000 		.4byte	.LC4
 6780 100e 00       		.byte	0
 6781 100f 2E       		.uleb128 0x2e
 6782 1010 38000000 		.4byte	.LVL97
 6783 1014 841D0000 		.4byte	0x1d84
 6784 1018 26100000 		.4byte	0x1026
 6785 101c 2F       		.uleb128 0x2f
 6786 101d 01       		.uleb128 0x1
 6787 101e 50       		.byte	0x50
 6788 101f 05       		.uleb128 0x5
 6789 1020 03       		.byte	0x3
 6790 1021 64000000 		.4byte	.LC5
 6791 1025 00       		.byte	0
 6792 1026 2E       		.uleb128 0x2e
 6793 1027 42000000 		.4byte	.LVL98
 6794 102b 841D0000 		.4byte	0x1d84
 6795 102f 3D100000 		.4byte	0x103d
 6796 1033 2F       		.uleb128 0x2f
 6797 1034 01       		.uleb128 0x1
 6798 1035 50       		.byte	0x50
 6799 1036 05       		.uleb128 0x5
 6800 1037 03       		.byte	0x3
 6801 1038 70000000 		.4byte	.LC6
 6802 103c 00       		.byte	0
 6803 103d 2E       		.uleb128 0x2e
ARM GAS  /var/folders/6q/x_mk5n_j3p7_c40r_2k_78980000gn/T//ccu43oO2.s 			page 121


 6804 103e 48000000 		.4byte	.LVL99
 6805 1042 841D0000 		.4byte	0x1d84
 6806 1046 54100000 		.4byte	0x1054
 6807 104a 2F       		.uleb128 0x2f
 6808 104b 01       		.uleb128 0x1
 6809 104c 50       		.byte	0x50
 6810 104d 05       		.uleb128 0x5
 6811 104e 03       		.byte	0x3
 6812 104f 7C000000 		.4byte	.LC7
 6813 1053 00       		.byte	0
 6814 1054 2E       		.uleb128 0x2e
 6815 1055 5C000000 		.4byte	.LVL102
 6816 1059 841D0000 		.4byte	0x1d84
 6817 105d 6B100000 		.4byte	0x106b
 6818 1061 2F       		.uleb128 0x2f
 6819 1062 01       		.uleb128 0x1
 6820 1063 50       		.byte	0x50
 6821 1064 05       		.uleb128 0x5
 6822 1065 03       		.byte	0x3
 6823 1066 80000000 		.4byte	.LC8
 6824 106a 00       		.byte	0
 6825 106b 2E       		.uleb128 0x2e
 6826 106c 6C000000 		.4byte	.LVL104
 6827 1070 841D0000 		.4byte	0x1d84
 6828 1074 82100000 		.4byte	0x1082
 6829 1078 2F       		.uleb128 0x2f
 6830 1079 01       		.uleb128 0x1
 6831 107a 50       		.byte	0x50
 6832 107b 05       		.uleb128 0x5
 6833 107c 03       		.byte	0x3
 6834 107d 54000000 		.4byte	.LC4
 6835 1081 00       		.byte	0
 6836 1082 2E       		.uleb128 0x2e
 6837 1083 7C000000 		.4byte	.LVL106
 6838 1087 841D0000 		.4byte	0x1d84
 6839 108b 99100000 		.4byte	0x1099
 6840 108f 2F       		.uleb128 0x2f
 6841 1090 01       		.uleb128 0x1
 6842 1091 50       		.byte	0x50
 6843 1092 05       		.uleb128 0x5
 6844 1093 03       		.byte	0x3
 6845 1094 64000000 		.4byte	.LC5
 6846 1098 00       		.byte	0
 6847 1099 2E       		.uleb128 0x2e
 6848 109a 8E000000 		.4byte	.LVL107
 6849 109e 841D0000 		.4byte	0x1d84
 6850 10a2 B0100000 		.4byte	0x10b0
 6851 10a6 2F       		.uleb128 0x2f
 6852 10a7 01       		.uleb128 0x1
 6853 10a8 50       		.byte	0x50
 6854 10a9 05       		.uleb128 0x5
 6855 10aa 03       		.byte	0x3
 6856 10ab 70000000 		.4byte	.LC6
 6857 10af 00       		.byte	0
 6858 10b0 2E       		.uleb128 0x2e
 6859 10b1 94000000 		.4byte	.LVL108
 6860 10b5 841D0000 		.4byte	0x1d84
ARM GAS  /var/folders/6q/x_mk5n_j3p7_c40r_2k_78980000gn/T//ccu43oO2.s 			page 122


 6861 10b9 C7100000 		.4byte	0x10c7
 6862 10bd 2F       		.uleb128 0x2f
 6863 10be 01       		.uleb128 0x1
 6864 10bf 50       		.byte	0x50
 6865 10c0 05       		.uleb128 0x5
 6866 10c1 03       		.byte	0x3
 6867 10c2 7C000000 		.4byte	.LC7
 6868 10c6 00       		.byte	0
 6869 10c7 2E       		.uleb128 0x2e
 6870 10c8 A0000000 		.4byte	.LVL110
 6871 10cc 841D0000 		.4byte	0x1d84
 6872 10d0 DE100000 		.4byte	0x10de
 6873 10d4 2F       		.uleb128 0x2f
 6874 10d5 01       		.uleb128 0x1
 6875 10d6 50       		.byte	0x50
 6876 10d7 05       		.uleb128 0x5
 6877 10d8 03       		.byte	0x3
 6878 10d9 7C000000 		.4byte	.LC7
 6879 10dd 00       		.byte	0
 6880 10de 31       		.uleb128 0x31
 6881 10df B0000000 		.4byte	.LVL112
 6882 10e3 841D0000 		.4byte	0x1d84
 6883 10e7 2F       		.uleb128 0x2f
 6884 10e8 01       		.uleb128 0x1
 6885 10e9 50       		.byte	0x50
 6886 10ea 05       		.uleb128 0x5
 6887 10eb 03       		.byte	0x3
 6888 10ec 0C000000 		.4byte	.LC1
 6889 10f0 00       		.byte	0
 6890 10f1 00       		.byte	0
 6891 10f2 36       		.uleb128 0x36
 6892 10f3 33090000 		.4byte	.LASF217
 6893 10f7 01       		.byte	0x1
 6894 10f8 1302     		.2byte	0x213
 6895 10fa 00000000 		.4byte	.LFB89
 6896 10fe 6C000000 		.4byte	.LFE89-.LFB89
 6897 1102 01       		.uleb128 0x1
 6898 1103 9C       		.byte	0x9c
 6899 1104 50110000 		.4byte	0x1150
 6900 1108 37       		.uleb128 0x37
 6901 1109 EF010000 		.4byte	.LASF197
 6902 110d 01       		.byte	0x1
 6903 110e 1302     		.2byte	0x213
 6904 1110 33000000 		.4byte	0x33
 6905 1114 07040000 		.4byte	.LLST23
 6906 1118 37       		.uleb128 0x37
 6907 1119 07030000 		.4byte	.LASF218
 6908 111d 01       		.byte	0x1
 6909 111e 1302     		.2byte	0x213
 6910 1120 33000000 		.4byte	0x33
 6911 1124 33040000 		.4byte	.LLST24
 6912 1128 38       		.uleb128 0x38
 6913 1129 54080000 		.4byte	.LASF219
 6914 112d 01       		.byte	0x1
 6915 112e 1302     		.2byte	0x213
 6916 1130 DD000000 		.4byte	0xdd
 6917 1134 02       		.uleb128 0x2
ARM GAS  /var/folders/6q/x_mk5n_j3p7_c40r_2k_78980000gn/T//ccu43oO2.s 			page 123


 6918 1135 91       		.byte	0x91
 6919 1136 78       		.sleb128 -8
 6920 1137 35       		.uleb128 0x35
 6921 1138 3A       		.uleb128 0x3a
 6922 1139 6D00     		.ascii	"m\000"
 6923 113b 01       		.byte	0x1
 6924 113c 1502     		.2byte	0x215
 6925 113e 09090000 		.4byte	0x909
 6926 1142 5F040000 		.4byte	.LLST25
 6927 1146 30       		.uleb128 0x30
 6928 1147 28000000 		.4byte	.LVL117
 6929 114b 4D1D0000 		.4byte	0x1d4d
 6930 114f 00       		.byte	0
 6931 1150 39       		.uleb128 0x39
 6932 1151 EA0A0000 		.4byte	.LASF220
 6933 1155 01       		.byte	0x1
 6934 1156 3C02     		.2byte	0x23c
 6935 1158 00000000 		.4byte	.LFB90
 6936 115c F8020000 		.4byte	.LFE90-.LFB90
 6937 1160 01       		.uleb128 0x1
 6938 1161 9C       		.byte	0x9c
 6939 1162 75120000 		.4byte	0x1275
 6940 1166 3A       		.uleb128 0x3a
 6941 1167 6900     		.ascii	"i\000"
 6942 1169 01       		.byte	0x1
 6943 116a 3E02     		.2byte	0x23e
 6944 116c 33000000 		.4byte	0x33
 6945 1170 AA040000 		.4byte	.LLST26
 6946 1174 3A       		.uleb128 0x3a
 6947 1175 6A00     		.ascii	"j\000"
 6948 1177 01       		.byte	0x1
 6949 1178 3E02     		.2byte	0x23e
 6950 117a 33000000 		.4byte	0x33
 6951 117e 11050000 		.4byte	.LLST27
 6952 1182 3A       		.uleb128 0x3a
 6953 1183 6D00     		.ascii	"m\000"
 6954 1185 01       		.byte	0x1
 6955 1186 3F02     		.2byte	0x23f
 6956 1188 09090000 		.4byte	0x909
 6957 118c 25050000 		.4byte	.LLST28
 6958 1190 2E       		.uleb128 0x2e
 6959 1191 54000000 		.4byte	.LVL126
 6960 1195 8F1D0000 		.4byte	0x1d8f
 6961 1199 A3110000 		.4byte	0x11a3
 6962 119d 2F       		.uleb128 0x2f
 6963 119e 01       		.uleb128 0x1
 6964 119f 50       		.byte	0x50
 6965 11a0 01       		.uleb128 0x1
 6966 11a1 30       		.byte	0x30
 6967 11a2 00       		.byte	0
 6968 11a3 2E       		.uleb128 0x2e
 6969 11a4 62000000 		.4byte	.LVL127
 6970 11a8 8F1D0000 		.4byte	0x1d8f
 6971 11ac B6110000 		.4byte	0x11b6
 6972 11b0 2F       		.uleb128 0x2f
 6973 11b1 01       		.uleb128 0x1
 6974 11b2 50       		.byte	0x50
ARM GAS  /var/folders/6q/x_mk5n_j3p7_c40r_2k_78980000gn/T//ccu43oO2.s 			page 124


 6975 11b3 01       		.uleb128 0x1
 6976 11b4 31       		.byte	0x31
 6977 11b5 00       		.byte	0
 6978 11b6 2E       		.uleb128 0x2e
 6979 11b7 6C000000 		.4byte	.LVL128
 6980 11bb 8F1D0000 		.4byte	0x1d8f
 6981 11bf C9110000 		.4byte	0x11c9
 6982 11c3 2F       		.uleb128 0x2f
 6983 11c4 01       		.uleb128 0x1
 6984 11c5 50       		.byte	0x50
 6985 11c6 01       		.uleb128 0x1
 6986 11c7 32       		.byte	0x32
 6987 11c8 00       		.byte	0
 6988 11c9 2E       		.uleb128 0x2e
 6989 11ca 76000000 		.4byte	.LVL129
 6990 11ce 8F1D0000 		.4byte	0x1d8f
 6991 11d2 DC110000 		.4byte	0x11dc
 6992 11d6 2F       		.uleb128 0x2f
 6993 11d7 01       		.uleb128 0x1
 6994 11d8 50       		.byte	0x50
 6995 11d9 01       		.uleb128 0x1
 6996 11da 33       		.byte	0x33
 6997 11db 00       		.byte	0
 6998 11dc 2E       		.uleb128 0x2e
 6999 11dd 80000000 		.4byte	.LVL130
 7000 11e1 8F1D0000 		.4byte	0x1d8f
 7001 11e5 EF110000 		.4byte	0x11ef
 7002 11e9 2F       		.uleb128 0x2f
 7003 11ea 01       		.uleb128 0x1
 7004 11eb 50       		.byte	0x50
 7005 11ec 01       		.uleb128 0x1
 7006 11ed 34       		.byte	0x34
 7007 11ee 00       		.byte	0
 7008 11ef 2E       		.uleb128 0x2e
 7009 11f0 8A000000 		.4byte	.LVL131
 7010 11f4 8F1D0000 		.4byte	0x1d8f
 7011 11f8 02120000 		.4byte	0x1202
 7012 11fc 2F       		.uleb128 0x2f
 7013 11fd 01       		.uleb128 0x1
 7014 11fe 50       		.byte	0x50
 7015 11ff 01       		.uleb128 0x1
 7016 1200 35       		.byte	0x35
 7017 1201 00       		.byte	0
 7018 1202 2E       		.uleb128 0x2e
 7019 1203 94000000 		.4byte	.LVL132
 7020 1207 8F1D0000 		.4byte	0x1d8f
 7021 120b 15120000 		.4byte	0x1215
 7022 120f 2F       		.uleb128 0x2f
 7023 1210 01       		.uleb128 0x1
 7024 1211 50       		.byte	0x50
 7025 1212 01       		.uleb128 0x1
 7026 1213 36       		.byte	0x36
 7027 1214 00       		.byte	0
 7028 1215 2E       		.uleb128 0x2e
 7029 1216 9E000000 		.4byte	.LVL133
 7030 121a 8F1D0000 		.4byte	0x1d8f
 7031 121e 28120000 		.4byte	0x1228
ARM GAS  /var/folders/6q/x_mk5n_j3p7_c40r_2k_78980000gn/T//ccu43oO2.s 			page 125


 7032 1222 2F       		.uleb128 0x2f
 7033 1223 01       		.uleb128 0x1
 7034 1224 50       		.byte	0x50
 7035 1225 01       		.uleb128 0x1
 7036 1226 37       		.byte	0x37
 7037 1227 00       		.byte	0
 7038 1228 2E       		.uleb128 0x2e
 7039 1229 A8000000 		.4byte	.LVL134
 7040 122d 8F1D0000 		.4byte	0x1d8f
 7041 1231 3B120000 		.4byte	0x123b
 7042 1235 2F       		.uleb128 0x2f
 7043 1236 01       		.uleb128 0x1
 7044 1237 50       		.byte	0x50
 7045 1238 01       		.uleb128 0x1
 7046 1239 38       		.byte	0x38
 7047 123a 00       		.byte	0
 7048 123b 2E       		.uleb128 0x2e
 7049 123c B2000000 		.4byte	.LVL135
 7050 1240 8F1D0000 		.4byte	0x1d8f
 7051 1244 4E120000 		.4byte	0x124e
 7052 1248 2F       		.uleb128 0x2f
 7053 1249 01       		.uleb128 0x1
 7054 124a 50       		.byte	0x50
 7055 124b 01       		.uleb128 0x1
 7056 124c 39       		.byte	0x39
 7057 124d 00       		.byte	0
 7058 124e 2E       		.uleb128 0x2e
 7059 124f D4000000 		.4byte	.LVL138
 7060 1253 9A1D0000 		.4byte	0x1d9a
 7061 1257 62120000 		.4byte	0x1262
 7062 125b 2F       		.uleb128 0x2f
 7063 125c 01       		.uleb128 0x1
 7064 125d 50       		.byte	0x50
 7065 125e 02       		.uleb128 0x2
 7066 125f 75       		.byte	0x75
 7067 1260 00       		.sleb128 0
 7068 1261 00       		.byte	0
 7069 1262 30       		.uleb128 0x30
 7070 1263 44010000 		.4byte	.LVL139
 7071 1267 A51D0000 		.4byte	0x1da5
 7072 126b 30       		.uleb128 0x30
 7073 126c 50010000 		.4byte	.LVL140
 7074 1270 A51D0000 		.4byte	0x1da5
 7075 1274 00       		.byte	0
 7076 1275 36       		.uleb128 0x36
 7077 1276 BB010000 		.4byte	.LASF221
 7078 127a 01       		.byte	0x1
 7079 127b FB02     		.2byte	0x2fb
 7080 127d 00000000 		.4byte	.LFB91
 7081 1281 44000000 		.4byte	.LFE91-.LFB91
 7082 1285 01       		.uleb128 0x1
 7083 1286 9C       		.byte	0x9c
 7084 1287 C8120000 		.4byte	0x12c8
 7085 128b 37       		.uleb128 0x37
 7086 128c A60B0000 		.4byte	.LASF222
 7087 1290 01       		.byte	0x1
 7088 1291 FB02     		.2byte	0x2fb
ARM GAS  /var/folders/6q/x_mk5n_j3p7_c40r_2k_78980000gn/T//ccu43oO2.s 			page 126


 7089 1293 4A060000 		.4byte	0x64a
 7090 1297 6F050000 		.4byte	.LLST29
 7091 129b 37       		.uleb128 0x37
 7092 129c 72000000 		.4byte	.LASF223
 7093 12a0 01       		.byte	0x1
 7094 12a1 FB02     		.2byte	0x2fb
 7095 12a3 4A060000 		.4byte	0x64a
 7096 12a7 90050000 		.4byte	.LLST30
 7097 12ab 3A       		.uleb128 0x3a
 7098 12ac 6D00     		.ascii	"m\000"
 7099 12ae 01       		.byte	0x1
 7100 12af 0603     		.2byte	0x306
 7101 12b1 09090000 		.4byte	0x909
 7102 12b5 B1050000 		.4byte	.LLST31
 7103 12b9 3A       		.uleb128 0x3a
 7104 12ba 7300     		.ascii	"s\000"
 7105 12bc 01       		.byte	0x1
 7106 12bd 0703     		.2byte	0x307
 7107 12bf 09090000 		.4byte	0x909
 7108 12c3 CF050000 		.4byte	.LLST32
 7109 12c7 00       		.byte	0
 7110 12c8 39       		.uleb128 0x39
 7111 12c9 C20B0000 		.4byte	.LASF224
 7112 12cd 01       		.byte	0x1
 7113 12ce 2403     		.2byte	0x324
 7114 12d0 00000000 		.4byte	.LFB92
 7115 12d4 28000000 		.4byte	.LFE92-.LFB92
 7116 12d8 01       		.uleb128 0x1
 7117 12d9 9C       		.byte	0x9c
 7118 12da 0D130000 		.4byte	0x130d
 7119 12de 37       		.uleb128 0x37
 7120 12df EF010000 		.4byte	.LASF197
 7121 12e3 01       		.byte	0x1
 7122 12e4 2403     		.2byte	0x324
 7123 12e6 4A060000 		.4byte	0x64a
 7124 12ea ED050000 		.4byte	.LLST33
 7125 12ee 37       		.uleb128 0x37
 7126 12ef C6000000 		.4byte	.LASF225
 7127 12f3 01       		.byte	0x1
 7128 12f4 2403     		.2byte	0x324
 7129 12f6 25000000 		.4byte	0x25
 7130 12fa 24060000 		.4byte	.LLST34
 7131 12fe 3A       		.uleb128 0x3a
 7132 12ff 6D00     		.ascii	"m\000"
 7133 1301 01       		.byte	0x1
 7134 1302 2A03     		.2byte	0x32a
 7135 1304 09090000 		.4byte	0x909
 7136 1308 52060000 		.4byte	.LLST35
 7137 130c 00       		.byte	0
 7138 130d 36       		.uleb128 0x36
 7139 130e 8F050000 		.4byte	.LASF226
 7140 1312 01       		.byte	0x1
 7141 1313 4C03     		.2byte	0x34c
 7142 1315 00000000 		.4byte	.LFB93
 7143 1319 74000000 		.4byte	.LFE93-.LFB93
 7144 131d 01       		.uleb128 0x1
 7145 131e 9C       		.byte	0x9c
ARM GAS  /var/folders/6q/x_mk5n_j3p7_c40r_2k_78980000gn/T//ccu43oO2.s 			page 127


 7146 131f 84130000 		.4byte	0x1384
 7147 1323 40       		.uleb128 0x40
 7148 1324 703000   		.ascii	"p0\000"
 7149 1327 01       		.byte	0x1
 7150 1328 4C03     		.2byte	0x34c
 7151 132a 33000000 		.4byte	0x33
 7152 132e 01       		.uleb128 0x1
 7153 132f 50       		.byte	0x50
 7154 1330 40       		.uleb128 0x40
 7155 1331 703100   		.ascii	"p1\000"
 7156 1334 01       		.byte	0x1
 7157 1335 4C03     		.2byte	0x34c
 7158 1337 33000000 		.4byte	0x33
 7159 133b 01       		.uleb128 0x1
 7160 133c 51       		.byte	0x51
 7161 133d 40       		.uleb128 0x40
 7162 133e 703200   		.ascii	"p2\000"
 7163 1341 01       		.byte	0x1
 7164 1342 4C03     		.2byte	0x34c
 7165 1344 33000000 		.4byte	0x33
 7166 1348 01       		.uleb128 0x1
 7167 1349 52       		.byte	0x52
 7168 134a 40       		.uleb128 0x40
 7169 134b 703300   		.ascii	"p3\000"
 7170 134e 01       		.byte	0x1
 7171 134f 4C03     		.2byte	0x34c
 7172 1351 33000000 		.4byte	0x33
 7173 1355 02       		.uleb128 0x2
 7174 1356 91       		.byte	0x91
 7175 1357 7C       		.sleb128 -4
 7176 1358 35       		.uleb128 0x35
 7177 1359 3A       		.uleb128 0x3a
 7178 135a 6900     		.ascii	"i\000"
 7179 135c 01       		.byte	0x1
 7180 135d 4E03     		.2byte	0x34e
 7181 135f 33000000 		.4byte	0x33
 7182 1363 70060000 		.4byte	.LLST36
 7183 1367 3A       		.uleb128 0x3a
 7184 1368 7000     		.ascii	"p\000"
 7185 136a 01       		.byte	0x1
 7186 136b 4F03     		.2byte	0x34f
 7187 136d 33000000 		.4byte	0x33
 7188 1371 8F060000 		.4byte	.LLST37
 7189 1375 3A       		.uleb128 0x3a
 7190 1376 6D00     		.ascii	"m\000"
 7191 1378 01       		.byte	0x1
 7192 1379 5003     		.2byte	0x350
 7193 137b 09090000 		.4byte	0x909
 7194 137f B9060000 		.4byte	.LLST38
 7195 1383 00       		.byte	0
 7196 1384 36       		.uleb128 0x36
 7197 1385 270E0000 		.4byte	.LASF227
 7198 1389 01       		.byte	0x1
 7199 138a 8803     		.2byte	0x388
 7200 138c 00000000 		.4byte	.LFB94
 7201 1390 38000000 		.4byte	.LFE94-.LFB94
 7202 1394 01       		.uleb128 0x1
ARM GAS  /var/folders/6q/x_mk5n_j3p7_c40r_2k_78980000gn/T//ccu43oO2.s 			page 128


 7203 1395 9C       		.byte	0x9c
 7204 1396 E9130000 		.4byte	0x13e9
 7205 139a 37       		.uleb128 0x37
 7206 139b EF010000 		.4byte	.LASF197
 7207 139f 01       		.byte	0x1
 7208 13a0 8803     		.2byte	0x388
 7209 13a2 4A060000 		.4byte	0x64a
 7210 13a6 03070000 		.4byte	.LLST39
 7211 13aa 37       		.uleb128 0x37
 7212 13ab E70B0000 		.4byte	.LASF136
 7213 13af 01       		.byte	0x1
 7214 13b0 8803     		.2byte	0x388
 7215 13b2 2F050000 		.4byte	0x52f
 7216 13b6 24070000 		.4byte	.LLST40
 7217 13ba 37       		.uleb128 0x37
 7218 13bb 240D0000 		.4byte	.LASF148
 7219 13bf 01       		.byte	0x1
 7220 13c0 8803     		.2byte	0x388
 7221 13c2 25000000 		.4byte	0x25
 7222 13c6 45070000 		.4byte	.LLST41
 7223 13ca 38       		.uleb128 0x38
 7224 13cb 1E080000 		.4byte	.LASF228
 7225 13cf 01       		.byte	0x1
 7226 13d0 8803     		.2byte	0x388
 7227 13d2 DD000000 		.4byte	0xdd
 7228 13d6 02       		.uleb128 0x2
 7229 13d7 91       		.byte	0x91
 7230 13d8 7C       		.sleb128 -4
 7231 13d9 35       		.uleb128 0x35
 7232 13da 3A       		.uleb128 0x3a
 7233 13db 6D00     		.ascii	"m\000"
 7234 13dd 01       		.byte	0x1
 7235 13de 8E03     		.2byte	0x38e
 7236 13e0 09090000 		.4byte	0x909
 7237 13e4 68070000 		.4byte	.LLST42
 7238 13e8 00       		.byte	0
 7239 13e9 39       		.uleb128 0x39
 7240 13ea EE070000 		.4byte	.LASF229
 7241 13ee 01       		.byte	0x1
 7242 13ef B203     		.2byte	0x3b2
 7243 13f1 00000000 		.4byte	.LFB95
 7244 13f5 7C000000 		.4byte	.LFE95-.LFB95
 7245 13f9 01       		.uleb128 0x1
 7246 13fa 9C       		.byte	0x9c
 7247 13fb 27140000 		.4byte	0x1427
 7248 13ff 29       		.uleb128 0x29
 7249 1400 6D00     		.ascii	"m\000"
 7250 1402 01       		.byte	0x1
 7251 1403 B203     		.2byte	0x3b2
 7252 1405 09090000 		.4byte	0x909
 7253 1409 A5070000 		.4byte	.LLST43
 7254 140d 37       		.uleb128 0x37
 7255 140e 5B040000 		.4byte	.LASF189
 7256 1412 01       		.byte	0x1
 7257 1413 B203     		.2byte	0x3b2
 7258 1415 33000000 		.4byte	0x33
 7259 1419 D1070000 		.4byte	.LLST44
ARM GAS  /var/folders/6q/x_mk5n_j3p7_c40r_2k_78980000gn/T//ccu43oO2.s 			page 129


 7260 141d 30       		.uleb128 0x30
 7261 141e 10000000 		.4byte	.LVL168
 7262 1422 A51D0000 		.4byte	0x1da5
 7263 1426 00       		.byte	0
 7264 1427 39       		.uleb128 0x39
 7265 1428 3F0E0000 		.4byte	.LASF230
 7266 142c 01       		.byte	0x1
 7267 142d D403     		.2byte	0x3d4
 7268 142f 00000000 		.4byte	.LFB96
 7269 1433 D0000000 		.4byte	.LFE96-.LFB96
 7270 1437 01       		.uleb128 0x1
 7271 1438 9C       		.byte	0x9c
 7272 1439 D3140000 		.4byte	0x14d3
 7273 143d 29       		.uleb128 0x29
 7274 143e 6D00     		.ascii	"m\000"
 7275 1440 01       		.byte	0x1
 7276 1441 D403     		.2byte	0x3d4
 7277 1443 09090000 		.4byte	0x909
 7278 1447 FD070000 		.4byte	.LLST45
 7279 144b 41       		.uleb128 0x41
 7280 144c 14080000 		.4byte	.LASF231
 7281 1450 01       		.byte	0x1
 7282 1451 D603     		.2byte	0x3d6
 7283 1453 E3140000 		.4byte	0x14e3
 7284 1457 05       		.uleb128 0x5
 7285 1458 03       		.byte	0x3
 7286 1459 00000000 		.4byte	spd_table.8862
 7287 145d 3A       		.uleb128 0x3a
 7288 145e 636D6400 		.ascii	"cmd\000"
 7289 1462 01       		.byte	0x1
 7290 1463 D703     		.2byte	0x3d7
 7291 1465 3A000000 		.4byte	0x3a
 7292 1469 1B080000 		.4byte	.LLST46
 7293 146d 2B       		.uleb128 0x2b
 7294 146e EF010000 		.4byte	.LASF197
 7295 1472 01       		.byte	0x1
 7296 1473 D803     		.2byte	0x3d8
 7297 1475 3A000000 		.4byte	0x3a
 7298 1479 2E080000 		.4byte	.LLST47
 7299 147d 3A       		.uleb128 0x3a
 7300 147e 6600     		.ascii	"f\000"
 7301 1480 01       		.byte	0x1
 7302 1481 D903     		.2byte	0x3d9
 7303 1483 25000000 		.4byte	0x25
 7304 1487 67080000 		.4byte	.LLST48
 7305 148b 2B       		.uleb128 0x2b
 7306 148c FE070000 		.4byte	.LASF232
 7307 1490 01       		.byte	0x1
 7308 1491 D903     		.2byte	0x3d9
 7309 1493 25000000 		.4byte	0x25
 7310 1497 29090000 		.4byte	.LLST49
 7311 149b 2B       		.uleb128 0x2b
 7312 149c 47010000 		.4byte	.LASF233
 7313 14a0 01       		.byte	0x1
 7314 14a1 D903     		.2byte	0x3d9
 7315 14a3 25000000 		.4byte	0x25
 7316 14a7 47090000 		.4byte	.LLST50
ARM GAS  /var/folders/6q/x_mk5n_j3p7_c40r_2k_78980000gn/T//ccu43oO2.s 			page 130


 7317 14ab 2C       		.uleb128 0x2c
 7318 14ac EE090000 		.4byte	0x9ee
 7319 14b0 80000000 		.4byte	.LBB76
 7320 14b4 98000000 		.4byte	.Ldebug_ranges0+0x98
 7321 14b8 01       		.byte	0x1
 7322 14b9 E903     		.2byte	0x3e9
 7323 14bb C9140000 		.4byte	0x14c9
 7324 14bf 2D       		.uleb128 0x2d
 7325 14c0 FE090000 		.4byte	0x9fe
 7326 14c4 65090000 		.4byte	.LLST51
 7327 14c8 00       		.byte	0
 7328 14c9 30       		.uleb128 0x30
 7329 14ca 0E000000 		.4byte	.LVL182
 7330 14ce 581D0000 		.4byte	0x1d58
 7331 14d2 00       		.byte	0
 7332 14d3 17       		.uleb128 0x17
 7333 14d4 3A000000 		.4byte	0x3a
 7334 14d8 E3140000 		.4byte	0x14e3
 7335 14dc 18       		.uleb128 0x18
 7336 14dd A1000000 		.4byte	0xa1
 7337 14e1 09       		.byte	0x9
 7338 14e2 00       		.byte	0
 7339 14e3 07       		.uleb128 0x7
 7340 14e4 D3140000 		.4byte	0x14d3
 7341 14e8 28       		.uleb128 0x28
 7342 14e9 B5070000 		.4byte	.LASF234
 7343 14ed 01       		.byte	0x1
 7344 14ee 1B04     		.2byte	0x41b
 7345 14f0 25000000 		.4byte	0x25
 7346 14f4 00000000 		.4byte	.LFB98
 7347 14f8 DC040000 		.4byte	.LFE98-.LFB98
 7348 14fc 01       		.uleb128 0x1
 7349 14fd 9C       		.byte	0x9c
 7350 14fe 70170000 		.4byte	0x1770
 7351 1502 29       		.uleb128 0x29
 7352 1503 6D00     		.ascii	"m\000"
 7353 1505 01       		.byte	0x1
 7354 1506 1B04     		.2byte	0x41b
 7355 1508 09090000 		.4byte	0x909
 7356 150c 99090000 		.4byte	.LLST52
 7357 1510 37       		.uleb128 0x37
 7358 1511 1D0E0000 		.4byte	.LASF183
 7359 1515 01       		.byte	0x1
 7360 1516 1B04     		.2byte	0x41b
 7361 1518 25000000 		.4byte	0x25
 7362 151c B7090000 		.4byte	.LLST53
 7363 1520 2B       		.uleb128 0x2b
 7364 1521 420A0000 		.4byte	.LASF235
 7365 1525 01       		.byte	0x1
 7366 1526 1D04     		.2byte	0x41d
 7367 1528 25000000 		.4byte	0x25
 7368 152c D6090000 		.4byte	.LLST54
 7369 1530 24       		.uleb128 0x24
 7370 1531 633100   		.ascii	"c1\000"
 7371 1534 01       		.byte	0x1
 7372 1535 1E04     		.2byte	0x41e
 7373 1537 25000000 		.4byte	0x25
ARM GAS  /var/folders/6q/x_mk5n_j3p7_c40r_2k_78980000gn/T//ccu43oO2.s 			page 131


 7374 153b 24       		.uleb128 0x24
 7375 153c 633200   		.ascii	"c2\000"
 7376 153f 01       		.byte	0x1
 7377 1540 1E04     		.2byte	0x41e
 7378 1542 25000000 		.4byte	0x25
 7379 1546 2B       		.uleb128 0x2b
 7380 1547 41010000 		.4byte	.LASF236
 7381 154b 01       		.byte	0x1
 7382 154c 1F04     		.2byte	0x41f
 7383 154e 25000000 		.4byte	0x25
 7384 1552 0A0A0000 		.4byte	.LLST55
 7385 1556 26       		.uleb128 0x26
 7386 1557 AD070000 		.4byte	.LASF237
 7387 155b 01       		.byte	0x1
 7388 155c 2104     		.2byte	0x421
 7389 155e 25000000 		.4byte	0x25
 7390 1562 2B       		.uleb128 0x2b
 7391 1563 8F0A0000 		.4byte	.LASF238
 7392 1567 01       		.byte	0x1
 7393 1568 2104     		.2byte	0x421
 7394 156a 25000000 		.4byte	0x25
 7395 156e 410A0000 		.4byte	.LLST56
 7396 1572 2B       		.uleb128 0x2b
 7397 1573 FF0C0000 		.4byte	.LASF239
 7398 1577 01       		.byte	0x1
 7399 1578 2304     		.2byte	0x423
 7400 157a 25000000 		.4byte	0x25
 7401 157e 600A0000 		.4byte	.LLST57
 7402 1582 2B       		.uleb128 0x2b
 7403 1583 A7070000 		.4byte	.LASF240
 7404 1587 01       		.byte	0x1
 7405 1588 2304     		.2byte	0x423
 7406 158a 25000000 		.4byte	0x25
 7407 158e 730A0000 		.4byte	.LLST58
 7408 1592 3A       		.uleb128 0x3a
 7409 1593 695F3000 		.ascii	"i_0\000"
 7410 1597 01       		.byte	0x1
 7411 1598 2304     		.2byte	0x423
 7412 159a 25000000 		.4byte	0x25
 7413 159e 910A0000 		.4byte	.LLST59
 7414 15a2 2B       		.uleb128 0x2b
 7415 15a3 A00D0000 		.4byte	.LASF241
 7416 15a7 01       		.byte	0x1
 7417 15a8 2404     		.2byte	0x424
 7418 15aa 25000000 		.4byte	0x25
 7419 15ae A90A0000 		.4byte	.LLST60
 7420 15b2 2B       		.uleb128 0x2b
 7421 15b3 DB0A0000 		.4byte	.LASF242
 7422 15b7 01       		.byte	0x1
 7423 15b8 2404     		.2byte	0x424
 7424 15ba 25000000 		.4byte	0x25
 7425 15be D20A0000 		.4byte	.LLST61
 7426 15c2 3A       		.uleb128 0x3a
 7427 15c3 64697200 		.ascii	"dir\000"
 7428 15c7 01       		.byte	0x1
 7429 15c8 2604     		.2byte	0x426
 7430 15ca 33000000 		.4byte	0x33
ARM GAS  /var/folders/6q/x_mk5n_j3p7_c40r_2k_78980000gn/T//ccu43oO2.s 			page 132


 7431 15ce FB0A0000 		.4byte	.LLST62
 7432 15d2 3A       		.uleb128 0x3a
 7433 15d3 636D6400 		.ascii	"cmd\000"
 7434 15d7 01       		.byte	0x1
 7435 15d8 2904     		.2byte	0x429
 7436 15da 33000000 		.4byte	0x33
 7437 15de 2B0B0000 		.4byte	.LLST63
 7438 15e2 2C       		.uleb128 0x2c
 7439 15e3 EE090000 		.4byte	0x9ee
 7440 15e7 68000000 		.4byte	.LBB82
 7441 15eb B8000000 		.4byte	.Ldebug_ranges0+0xb8
 7442 15ef 01       		.byte	0x1
 7443 15f0 3704     		.2byte	0x437
 7444 15f2 00160000 		.4byte	0x1600
 7445 15f6 2D       		.uleb128 0x2d
 7446 15f7 FE090000 		.4byte	0x9fe
 7447 15fb 5F0B0000 		.4byte	.LLST64
 7448 15ff 00       		.byte	0
 7449 1600 2C       		.uleb128 0x2c
 7450 1601 1A0A0000 		.4byte	0xa1a
 7451 1605 A2000000 		.4byte	.LBB88
 7452 1609 E0000000 		.4byte	.Ldebug_ranges0+0xe0
 7453 160d 01       		.byte	0x1
 7454 160e 4004     		.2byte	0x440
 7455 1610 60160000 		.4byte	0x1660
 7456 1614 2D       		.uleb128 0x2d
 7457 1615 2A0A0000 		.4byte	0xa2a
 7458 1619 930B0000 		.4byte	.LLST65
 7459 161d 42       		.uleb128 0x42
 7460 161e 1B090000 		.4byte	0x91b
 7461 1622 B0000000 		.4byte	.LBB90
 7462 1626 08010000 		.4byte	.Ldebug_ranges0+0x108
 7463 162a 02       		.byte	0x2
 7464 162b 56       		.byte	0x56
 7465 162c 2D       		.uleb128 0x2d
 7466 162d 2B090000 		.4byte	0x92b
 7467 1631 D10B0000 		.4byte	.LLST66
 7468 1635 43       		.uleb128 0x43
 7469 1636 08010000 		.4byte	.Ldebug_ranges0+0x108
 7470 163a 44       		.uleb128 0x44
 7471 163b 34090000 		.4byte	0x934
 7472 163f 050C0000 		.4byte	.LLST67
 7473 1643 45       		.uleb128 0x45
 7474 1644 3F090000 		.4byte	0x93f
 7475 1648 01       		.uleb128 0x1
 7476 1649 55       		.byte	0x55
 7477 164a 46       		.uleb128 0x46
 7478 164b 4A090000 		.4byte	0x94a
 7479 164f 44       		.uleb128 0x44
 7480 1650 53090000 		.4byte	0x953
 7481 1654 230C0000 		.4byte	.LLST68
 7482 1658 46       		.uleb128 0x46
 7483 1659 77090000 		.4byte	0x977
 7484 165d 00       		.byte	0
 7485 165e 00       		.byte	0
 7486 165f 00       		.byte	0
 7487 1660 2C       		.uleb128 0x2c
ARM GAS  /var/folders/6q/x_mk5n_j3p7_c40r_2k_78980000gn/T//ccu43oO2.s 			page 133


 7488 1661 1A0A0000 		.4byte	0xa1a
 7489 1665 32010000 		.4byte	.LBB103
 7490 1669 38010000 		.4byte	.Ldebug_ranges0+0x138
 7491 166d 01       		.byte	0x1
 7492 166e 4104     		.2byte	0x441
 7493 1670 C0160000 		.4byte	0x16c0
 7494 1674 2D       		.uleb128 0x2d
 7495 1675 2A0A0000 		.4byte	0xa2a
 7496 1679 4C0C0000 		.4byte	.LLST69
 7497 167d 42       		.uleb128 0x42
 7498 167e 1B090000 		.4byte	0x91b
 7499 1682 42010000 		.4byte	.LBB105
 7500 1686 68010000 		.4byte	.Ldebug_ranges0+0x168
 7501 168a 02       		.byte	0x2
 7502 168b 56       		.byte	0x56
 7503 168c 2D       		.uleb128 0x2d
 7504 168d 2B090000 		.4byte	0x92b
 7505 1691 8A0C0000 		.4byte	.LLST70
 7506 1695 43       		.uleb128 0x43
 7507 1696 68010000 		.4byte	.Ldebug_ranges0+0x168
 7508 169a 44       		.uleb128 0x44
 7509 169b 34090000 		.4byte	0x934
 7510 169f BE0C0000 		.4byte	.LLST71
 7511 16a3 45       		.uleb128 0x45
 7512 16a4 3F090000 		.4byte	0x93f
 7513 16a8 01       		.uleb128 0x1
 7514 16a9 55       		.byte	0x55
 7515 16aa 46       		.uleb128 0x46
 7516 16ab 4A090000 		.4byte	0x94a
 7517 16af 44       		.uleb128 0x44
 7518 16b0 53090000 		.4byte	0x953
 7519 16b4 DC0C0000 		.4byte	.LLST72
 7520 16b8 46       		.uleb128 0x46
 7521 16b9 77090000 		.4byte	0x977
 7522 16bd 00       		.byte	0
 7523 16be 00       		.byte	0
 7524 16bf 00       		.byte	0
 7525 16c0 2C       		.uleb128 0x2c
 7526 16c1 EE090000 		.4byte	0x9ee
 7527 16c5 DC010000 		.4byte	.LBB122
 7528 16c9 98010000 		.4byte	.Ldebug_ranges0+0x198
 7529 16cd 01       		.byte	0x1
 7530 16ce 4804     		.2byte	0x448
 7531 16d0 DE160000 		.4byte	0x16de
 7532 16d4 2D       		.uleb128 0x2d
 7533 16d5 FE090000 		.4byte	0x9fe
 7534 16d9 050D0000 		.4byte	.LLST73
 7535 16dd 00       		.byte	0
 7536 16de 2C       		.uleb128 0x2c
 7537 16df EE090000 		.4byte	0x9ee
 7538 16e3 72030000 		.4byte	.LBB126
 7539 16e7 B8010000 		.4byte	.Ldebug_ranges0+0x1b8
 7540 16eb 01       		.byte	0x1
 7541 16ec 3204     		.2byte	0x432
 7542 16ee FC160000 		.4byte	0x16fc
 7543 16f2 2D       		.uleb128 0x2d
 7544 16f3 FE090000 		.4byte	0x9fe
ARM GAS  /var/folders/6q/x_mk5n_j3p7_c40r_2k_78980000gn/T//ccu43oO2.s 			page 134


 7545 16f7 2E0D0000 		.4byte	.LLST74
 7546 16fb 00       		.byte	0
 7547 16fc 2C       		.uleb128 0x2c
 7548 16fd EE090000 		.4byte	0x9ee
 7549 1701 88030000 		.4byte	.LBB131
 7550 1705 D8010000 		.4byte	.Ldebug_ranges0+0x1d8
 7551 1709 01       		.byte	0x1
 7552 170a 3904     		.2byte	0x439
 7553 170c 1A170000 		.4byte	0x171a
 7554 1710 2D       		.uleb128 0x2d
 7555 1711 FE090000 		.4byte	0x9fe
 7556 1715 570D0000 		.4byte	.LLST75
 7557 1719 00       		.byte	0
 7558 171a 2C       		.uleb128 0x2c
 7559 171b 340A0000 		.4byte	0xa34
 7560 171f 12040000 		.4byte	.LBB142
 7561 1723 F8010000 		.4byte	.Ldebug_ranges0+0x1f8
 7562 1727 01       		.byte	0x1
 7563 1728 5D04     		.2byte	0x45d
 7564 172a 66170000 		.4byte	0x1766
 7565 172e 2D       		.uleb128 0x2d
 7566 172f 440A0000 		.4byte	0xa44
 7567 1733 800D0000 		.4byte	.LLST76
 7568 1737 42       		.uleb128 0x42
 7569 1738 81090000 		.4byte	0x981
 7570 173c 12040000 		.4byte	.LBB144
 7571 1740 10020000 		.4byte	.Ldebug_ranges0+0x210
 7572 1744 02       		.byte	0x2
 7573 1745 63       		.byte	0x63
 7574 1746 2D       		.uleb128 0x2d
 7575 1747 91090000 		.4byte	0x991
 7576 174b 800D0000 		.4byte	.LLST76
 7577 174f 43       		.uleb128 0x43
 7578 1750 28020000 		.4byte	.Ldebug_ranges0+0x228
 7579 1754 46       		.uleb128 0x46
 7580 1755 B5090000 		.4byte	0x9b5
 7581 1759 46       		.uleb128 0x46
 7582 175a DA090000 		.4byte	0x9da
 7583 175e 46       		.uleb128 0x46
 7584 175f E4090000 		.4byte	0x9e4
 7585 1763 00       		.byte	0
 7586 1764 00       		.byte	0
 7587 1765 00       		.byte	0
 7588 1766 30       		.uleb128 0x30
 7589 1767 12000000 		.4byte	.LVL216
 7590 176b 581D0000 		.4byte	0x1d58
 7591 176f 00       		.byte	0
 7592 1770 28       		.uleb128 0x28
 7593 1771 1E070000 		.4byte	.LASF243
 7594 1775 01       		.byte	0x1
 7595 1776 8104     		.2byte	0x481
 7596 1778 25000000 		.4byte	0x25
 7597 177c 00000000 		.4byte	.LFB99
 7598 1780 3E000000 		.4byte	.LFE99-.LFB99
 7599 1784 01       		.uleb128 0x1
 7600 1785 9C       		.byte	0x9c
 7601 1786 A7170000 		.4byte	0x17a7
ARM GAS  /var/folders/6q/x_mk5n_j3p7_c40r_2k_78980000gn/T//ccu43oO2.s 			page 135


 7602 178a 29       		.uleb128 0x29
 7603 178b 7300     		.ascii	"s\000"
 7604 178d 01       		.byte	0x1
 7605 178e 8104     		.2byte	0x481
 7606 1790 C40A0000 		.4byte	0xac4
 7607 1794 9F0D0000 		.4byte	.LLST78
 7608 1798 3A       		.uleb128 0x3a
 7609 1799 6900     		.ascii	"i\000"
 7610 179b 01       		.byte	0x1
 7611 179c 8304     		.2byte	0x483
 7612 179e 33000000 		.4byte	0x33
 7613 17a2 BD0D0000 		.4byte	.LLST79
 7614 17a6 00       		.byte	0
 7615 17a7 28       		.uleb128 0x28
 7616 17a8 B2030000 		.4byte	.LASF244
 7617 17ac 01       		.byte	0x1
 7618 17ad AF04     		.2byte	0x4af
 7619 17af 33000000 		.4byte	0x33
 7620 17b3 00000000 		.4byte	.LFB100
 7621 17b7 94010000 		.4byte	.LFE100-.LFB100
 7622 17bb 01       		.uleb128 0x1
 7623 17bc 9C       		.byte	0x9c
 7624 17bd F9170000 		.4byte	0x17f9
 7625 17c1 29       		.uleb128 0x29
 7626 17c2 6D00     		.ascii	"m\000"
 7627 17c4 01       		.byte	0x1
 7628 17c5 AF04     		.2byte	0x4af
 7629 17c7 09090000 		.4byte	0x909
 7630 17cb D10D0000 		.4byte	.LLST80
 7631 17cf 37       		.uleb128 0x37
 7632 17d0 1D0E0000 		.4byte	.LASF183
 7633 17d4 01       		.byte	0x1
 7634 17d5 AF04     		.2byte	0x4af
 7635 17d7 25000000 		.4byte	0x25
 7636 17db EF0D0000 		.4byte	.LLST81
 7637 17df 3A       		.uleb128 0x3a
 7638 17e0 636D6400 		.ascii	"cmd\000"
 7639 17e4 01       		.byte	0x1
 7640 17e5 B204     		.2byte	0x4b2
 7641 17e7 33000000 		.4byte	0x33
 7642 17eb 6E0E0000 		.4byte	.LLST82
 7643 17ef 30       		.uleb128 0x30
 7644 17f0 10000000 		.4byte	.LVL377
 7645 17f4 581D0000 		.4byte	0x1d58
 7646 17f8 00       		.byte	0
 7647 17f9 47       		.uleb128 0x47
 7648 17fa EE0A0000 		.4byte	0xaee
 7649 17fe 00000000 		.4byte	.LFB101
 7650 1802 4A000000 		.4byte	.LFE101-.LFB101
 7651 1806 01       		.uleb128 0x1
 7652 1807 9C       		.byte	0x9c
 7653 1808 24180000 		.4byte	0x1824
 7654 180c 2D       		.uleb128 0x2d
 7655 180d FF0A0000 		.4byte	0xaff
 7656 1811 CF0E0000 		.4byte	.LLST83
 7657 1815 2D       		.uleb128 0x2d
 7658 1816 090B0000 		.4byte	0xb09
ARM GAS  /var/folders/6q/x_mk5n_j3p7_c40r_2k_78980000gn/T//ccu43oO2.s 			page 136


 7659 181a ED0E0000 		.4byte	.LLST84
 7660 181e 46       		.uleb128 0x46
 7661 181f 150B0000 		.4byte	0xb15
 7662 1823 00       		.byte	0
 7663 1824 47       		.uleb128 0x47
 7664 1825 220B0000 		.4byte	0xb22
 7665 1829 00000000 		.4byte	.LFB102
 7666 182d 4A000000 		.4byte	.LFE102-.LFB102
 7667 1831 01       		.uleb128 0x1
 7668 1832 9C       		.byte	0x9c
 7669 1833 4F180000 		.4byte	0x184f
 7670 1837 2D       		.uleb128 0x2d
 7671 1838 330B0000 		.4byte	0xb33
 7672 183c 0B0F0000 		.4byte	.LLST85
 7673 1840 2D       		.uleb128 0x2d
 7674 1841 3D0B0000 		.4byte	0xb3d
 7675 1845 290F0000 		.4byte	.LLST86
 7676 1849 46       		.uleb128 0x46
 7677 184a 490B0000 		.4byte	0xb49
 7678 184e 00       		.byte	0
 7679 184f 47       		.uleb128 0x47
 7680 1850 4E0A0000 		.4byte	0xa4e
 7681 1854 00000000 		.4byte	.LFB103
 7682 1858 6C000000 		.4byte	.LFE103-.LFB103
 7683 185c 01       		.uleb128 0x1
 7684 185d 9C       		.byte	0x9c
 7685 185e A8180000 		.4byte	0x18a8
 7686 1862 2D       		.uleb128 0x2d
 7687 1863 5B0A0000 		.4byte	0xa5b
 7688 1867 470F0000 		.4byte	.LLST87
 7689 186b 2D       		.uleb128 0x2d
 7690 186c 650A0000 		.4byte	0xa65
 7691 1870 890F0000 		.4byte	.LLST88
 7692 1874 48       		.uleb128 0x48
 7693 1875 54000000 		.4byte	.LBB156
 7694 1879 18000000 		.4byte	.LBE156-.LBB156
 7695 187d 2D       		.uleb128 0x2d
 7696 187e 650A0000 		.4byte	0xa65
 7697 1882 CD0F0000 		.4byte	.LLST89
 7698 1886 2D       		.uleb128 0x2d
 7699 1887 5B0A0000 		.4byte	0xa5b
 7700 188b F00F0000 		.4byte	.LLST90
 7701 188f 31       		.uleb128 0x31
 7702 1890 60000000 		.4byte	.LVL453
 7703 1894 A7170000 		.4byte	0x17a7
 7704 1898 2F       		.uleb128 0x2f
 7705 1899 01       		.uleb128 0x1
 7706 189a 50       		.byte	0x50
 7707 189b 02       		.uleb128 0x2
 7708 189c 74       		.byte	0x74
 7709 189d 00       		.sleb128 0
 7710 189e 2F       		.uleb128 0x2f
 7711 189f 01       		.uleb128 0x1
 7712 18a0 51       		.byte	0x51
 7713 18a1 03       		.uleb128 0x3
 7714 18a2 F5       		.byte	0xf5
 7715 18a3 05       		.uleb128 0x5
ARM GAS  /var/folders/6q/x_mk5n_j3p7_c40r_2k_78980000gn/T//ccu43oO2.s 			page 137


 7716 18a4 25       		.uleb128 0x25
 7717 18a5 00       		.byte	0
 7718 18a6 00       		.byte	0
 7719 18a7 00       		.byte	0
 7720 18a8 47       		.uleb128 0x47
 7721 18a9 720A0000 		.4byte	0xa72
 7722 18ad 00000000 		.4byte	.LFB104
 7723 18b1 C8000000 		.4byte	.LFE104-.LFB104
 7724 18b5 01       		.uleb128 0x1
 7725 18b6 9C       		.byte	0x9c
 7726 18b7 2B190000 		.4byte	0x192b
 7727 18bb 2D       		.uleb128 0x2d
 7728 18bc 7F0A0000 		.4byte	0xa7f
 7729 18c0 11100000 		.4byte	.LLST91
 7730 18c4 2D       		.uleb128 0x2d
 7731 18c5 890A0000 		.4byte	0xa89
 7732 18c9 6A100000 		.4byte	.LLST92
 7733 18cd 46       		.uleb128 0x46
 7734 18ce 950A0000 		.4byte	0xa95
 7735 18d2 46       		.uleb128 0x46
 7736 18d3 9F0A0000 		.4byte	0xa9f
 7737 18d7 43       		.uleb128 0x43
 7738 18d8 40020000 		.4byte	.Ldebug_ranges0+0x240
 7739 18dc 49       		.uleb128 0x49
 7740 18dd 890A0000 		.4byte	0xa89
 7741 18e1 49       		.uleb128 0x49
 7742 18e2 7F0A0000 		.4byte	0xa7f
 7743 18e6 43       		.uleb128 0x43
 7744 18e7 40020000 		.4byte	.Ldebug_ranges0+0x240
 7745 18eb 44       		.uleb128 0x44
 7746 18ec 950A0000 		.4byte	0xa95
 7747 18f0 9E100000 		.4byte	.LLST93
 7748 18f4 46       		.uleb128 0x46
 7749 18f5 9F0A0000 		.4byte	0xa9f
 7750 18f9 43       		.uleb128 0x43
 7751 18fa 40020000 		.4byte	.Ldebug_ranges0+0x240
 7752 18fe 44       		.uleb128 0x44
 7753 18ff AA0A0000 		.4byte	0xaaa
 7754 1903 C7100000 		.4byte	.LLST94
 7755 1907 44       		.uleb128 0x44
 7756 1908 B60A0000 		.4byte	0xab6
 7757 190c E5100000 		.4byte	.LLST95
 7758 1910 31       		.uleb128 0x31
 7759 1911 8C000000 		.4byte	.LVL470
 7760 1915 A7170000 		.4byte	0x17a7
 7761 1919 2F       		.uleb128 0x2f
 7762 191a 01       		.uleb128 0x1
 7763 191b 50       		.byte	0x50
 7764 191c 02       		.uleb128 0x2
 7765 191d 74       		.byte	0x74
 7766 191e 00       		.sleb128 0
 7767 191f 2F       		.uleb128 0x2f
 7768 1920 01       		.uleb128 0x1
 7769 1921 51       		.byte	0x51
 7770 1922 03       		.uleb128 0x3
 7771 1923 F5       		.byte	0xf5
 7772 1924 08       		.uleb128 0x8
ARM GAS  /var/folders/6q/x_mk5n_j3p7_c40r_2k_78980000gn/T//ccu43oO2.s 			page 138


 7773 1925 25       		.uleb128 0x25
 7774 1926 00       		.byte	0
 7775 1927 00       		.byte	0
 7776 1928 00       		.byte	0
 7777 1929 00       		.byte	0
 7778 192a 00       		.byte	0
 7779 192b 47       		.uleb128 0x47
 7780 192c CA0A0000 		.4byte	0xaca
 7781 1930 00000000 		.4byte	.LFB105
 7782 1934 78000000 		.4byte	.LFE105-.LFB105
 7783 1938 01       		.uleb128 0x1
 7784 1939 9C       		.byte	0x9c
 7785 193a 84190000 		.4byte	0x1984
 7786 193e 2D       		.uleb128 0x2d
 7787 193f D70A0000 		.4byte	0xad7
 7788 1943 03110000 		.4byte	.LLST96
 7789 1947 2D       		.uleb128 0x2d
 7790 1948 E10A0000 		.4byte	0xae1
 7791 194c 45110000 		.4byte	.LLST97
 7792 1950 48       		.uleb128 0x48
 7793 1951 24000000 		.4byte	.LBB170
 7794 1955 0E000000 		.4byte	.LBE170-.LBB170
 7795 1959 2D       		.uleb128 0x2d
 7796 195a E10A0000 		.4byte	0xae1
 7797 195e 89110000 		.4byte	.LLST98
 7798 1962 2D       		.uleb128 0x2d
 7799 1963 D70A0000 		.4byte	0xad7
 7800 1967 9C110000 		.4byte	.LLST99
 7801 196b 31       		.uleb128 0x31
 7802 196c 2C000000 		.4byte	.LVL483
 7803 1970 A7170000 		.4byte	0x17a7
 7804 1974 2F       		.uleb128 0x2f
 7805 1975 01       		.uleb128 0x1
 7806 1976 50       		.byte	0x50
 7807 1977 02       		.uleb128 0x2
 7808 1978 74       		.byte	0x74
 7809 1979 00       		.sleb128 0
 7810 197a 2F       		.uleb128 0x2f
 7811 197b 01       		.uleb128 0x1
 7812 197c 51       		.byte	0x51
 7813 197d 03       		.uleb128 0x3
 7814 197e F5       		.byte	0xf5
 7815 197f 06       		.uleb128 0x6
 7816 1980 25       		.uleb128 0x25
 7817 1981 00       		.byte	0
 7818 1982 00       		.byte	0
 7819 1983 00       		.byte	0
 7820 1984 36       		.uleb128 0x36
 7821 1985 02020000 		.4byte	.LASF245
 7822 1989 01       		.byte	0x1
 7823 198a A905     		.2byte	0x5a9
 7824 198c 00000000 		.4byte	.LFB106
 7825 1990 3A000000 		.4byte	.LFE106-.LFB106
 7826 1994 01       		.uleb128 0x1
 7827 1995 9C       		.byte	0x9c
 7828 1996 E4190000 		.4byte	0x19e4
 7829 199a 29       		.uleb128 0x29
ARM GAS  /var/folders/6q/x_mk5n_j3p7_c40r_2k_78980000gn/T//ccu43oO2.s 			page 139


 7830 199b 7300     		.ascii	"s\000"
 7831 199d 01       		.byte	0x1
 7832 199e A905     		.2byte	0x5a9
 7833 19a0 C40A0000 		.4byte	0xac4
 7834 19a4 AF110000 		.4byte	.LLST100
 7835 19a8 3A       		.uleb128 0x3a
 7836 19a9 6900     		.ascii	"i\000"
 7837 19ab 01       		.byte	0x1
 7838 19ac AB05     		.2byte	0x5ab
 7839 19ae 33000000 		.4byte	0x33
 7840 19b2 DD110000 		.4byte	.LLST101
 7841 19b6 3A       		.uleb128 0x3a
 7842 19b7 6D00     		.ascii	"m\000"
 7843 19b9 01       		.byte	0x1
 7844 19ba AC05     		.2byte	0x5ac
 7845 19bc 09090000 		.4byte	0x909
 7846 19c0 F1110000 		.4byte	.LLST102
 7847 19c4 2B       		.uleb128 0x2b
 7848 19c5 02060000 		.4byte	.LASF246
 7849 19c9 01       		.byte	0x1
 7850 19ca AD05     		.2byte	0x5ad
 7851 19cc 33000000 		.4byte	0x33
 7852 19d0 1C120000 		.4byte	.LLST103
 7853 19d4 3E       		.uleb128 0x3e
 7854 19d5 3A000000 		.4byte	.LVL502
 7855 19d9 B01D0000 		.4byte	0x1db0
 7856 19dd 2F       		.uleb128 0x2f
 7857 19de 01       		.uleb128 0x1
 7858 19df 51       		.byte	0x51
 7859 19e0 01       		.uleb128 0x1
 7860 19e1 30       		.byte	0x30
 7861 19e2 00       		.byte	0
 7862 19e3 00       		.byte	0
 7863 19e4 4A       		.uleb128 0x4a
 7864 19e5 220C0000 		.4byte	.LASF274
 7865 19e9 01       		.byte	0x1
 7866 19ea F403     		.2byte	0x3f4
 7867 19ec 01       		.byte	0x1
 7868 19ed 141A0000 		.4byte	0x1a14
 7869 19f1 22       		.uleb128 0x22
 7870 19f2 6D00     		.ascii	"m\000"
 7871 19f4 01       		.byte	0x1
 7872 19f5 F403     		.2byte	0x3f4
 7873 19f7 09090000 		.4byte	0x909
 7874 19fb 23       		.uleb128 0x23
 7875 19fc 5B040000 		.4byte	.LASF189
 7876 1a00 01       		.byte	0x1
 7877 1a01 F403     		.2byte	0x3f4
 7878 1a03 33000000 		.4byte	0x33
 7879 1a07 26       		.uleb128 0x26
 7880 1a08 E70B0000 		.4byte	.LASF136
 7881 1a0c 01       		.byte	0x1
 7882 1a0d F603     		.2byte	0x3f6
 7883 1a0f 2F050000 		.4byte	0x52f
 7884 1a13 00       		.byte	0
 7885 1a14 28       		.uleb128 0x28
 7886 1a15 8B080000 		.4byte	.LASF247
ARM GAS  /var/folders/6q/x_mk5n_j3p7_c40r_2k_78980000gn/T//ccu43oO2.s 			page 140


 7887 1a19 01       		.byte	0x1
 7888 1a1a CA05     		.2byte	0x5ca
 7889 1a1c 26010000 		.4byte	0x126
 7890 1a20 00000000 		.4byte	.LFB107
 7891 1a24 A8020000 		.4byte	.LFE107-.LFB107
 7892 1a28 01       		.uleb128 0x1
 7893 1a29 9C       		.byte	0x9c
 7894 1a2a B71C0000 		.4byte	0x1cb7
 7895 1a2e 29       		.uleb128 0x29
 7896 1a2f 61726700 		.ascii	"arg\000"
 7897 1a33 01       		.byte	0x1
 7898 1a34 CA05     		.2byte	0x5ca
 7899 1a36 A8000000 		.4byte	0xa8
 7900 1a3a 3A120000 		.4byte	.LLST104
 7901 1a3e 2A       		.uleb128 0x2a
 7902 1a3f 3B0D0000 		.4byte	.LASF248
 7903 1a43 01       		.byte	0x1
 7904 1a44 CC05     		.2byte	0x5cc
 7905 1a46 B71C0000 		.4byte	0x1cb7
 7906 1a4a 0A       		.byte	0xa
 7907 1a4b 41       		.uleb128 0x41
 7908 1a4c 77070000 		.4byte	.LASF139
 7909 1a50 01       		.byte	0x1
 7910 1a51 CD05     		.2byte	0x5cd
 7911 1a53 33000000 		.4byte	0x33
 7912 1a57 05       		.uleb128 0x5
 7913 1a58 03       		.byte	0x3
 7914 1a59 00000000 		.4byte	delayTimeMs.8947
 7915 1a5d 24       		.uleb128 0x24
 7916 1a5e 6900     		.ascii	"i\000"
 7917 1a60 01       		.byte	0x1
 7918 1a61 CE05     		.2byte	0x5ce
 7919 1a63 33000000 		.4byte	0x33
 7920 1a67 2B       		.uleb128 0x2b
 7921 1a68 94000000 		.4byte	.LASF249
 7922 1a6c 01       		.byte	0x1
 7923 1a6d CF05     		.2byte	0x5cf
 7924 1a6f 33000000 		.4byte	0x33
 7925 1a73 5B120000 		.4byte	.LLST105
 7926 1a77 2B       		.uleb128 0x2b
 7927 1a78 1D0E0000 		.4byte	.LASF183
 7928 1a7c 01       		.byte	0x1
 7929 1a7d D005     		.2byte	0x5d0
 7930 1a7f 25000000 		.4byte	0x25
 7931 1a83 90120000 		.4byte	.LLST106
 7932 1a87 4B       		.uleb128 0x4b
 7933 1a88 58020000 		.4byte	.Ldebug_ranges0+0x258
 7934 1a8c 9E1C0000 		.4byte	0x1c9e
 7935 1a90 3A       		.uleb128 0x3a
 7936 1a91 6D00     		.ascii	"m\000"
 7937 1a93 01       		.byte	0x1
 7938 1a94 E005     		.2byte	0x5e0
 7939 1a96 09090000 		.4byte	0x909
 7940 1a9a D0120000 		.4byte	.LLST107
 7941 1a9e 2C       		.uleb128 0x2c
 7942 1a9f EE0A0000 		.4byte	0xaee
 7943 1aa3 92000000 		.4byte	.LBB184
ARM GAS  /var/folders/6q/x_mk5n_j3p7_c40r_2k_78980000gn/T//ccu43oO2.s 			page 141


 7944 1aa7 78020000 		.4byte	.Ldebug_ranges0+0x278
 7945 1aab 01       		.byte	0x1
 7946 1aac F505     		.2byte	0x5f5
 7947 1aae D41A0000 		.4byte	0x1ad4
 7948 1ab2 2D       		.uleb128 0x2d
 7949 1ab3 090B0000 		.4byte	0xb09
 7950 1ab7 30130000 		.4byte	.LLST108
 7951 1abb 2D       		.uleb128 0x2d
 7952 1abc FF0A0000 		.4byte	0xaff
 7953 1ac0 52130000 		.4byte	.LLST109
 7954 1ac4 43       		.uleb128 0x43
 7955 1ac5 78020000 		.4byte	.Ldebug_ranges0+0x278
 7956 1ac9 44       		.uleb128 0x44
 7957 1aca 150B0000 		.4byte	0xb15
 7958 1ace 70130000 		.4byte	.LLST110
 7959 1ad2 00       		.byte	0
 7960 1ad3 00       		.byte	0
 7961 1ad4 4C       		.uleb128 0x4c
 7962 1ad5 0E010000 		.4byte	.LBB188
 7963 1ad9 BE000000 		.4byte	.LBE188-.LBB188
 7964 1add C91B0000 		.4byte	0x1bc9
 7965 1ae1 3A       		.uleb128 0x3a
 7966 1ae2 7300     		.ascii	"s\000"
 7967 1ae4 01       		.byte	0x1
 7968 1ae5 2206     		.2byte	0x622
 7969 1ae7 C40A0000 		.4byte	0xac4
 7970 1aeb BB130000 		.4byte	.LLST111
 7971 1aef 4B       		.uleb128 0x4b
 7972 1af0 90020000 		.4byte	.Ldebug_ranges0+0x290
 7973 1af4 7D1B0000 		.4byte	0x1b7d
 7974 1af8 3A       		.uleb128 0x3a
 7975 1af9 7300     		.ascii	"s\000"
 7976 1afb 01       		.byte	0x1
 7977 1afc 0A06     		.2byte	0x60a
 7978 1afe C40A0000 		.4byte	0xac4
 7979 1b02 D3130000 		.4byte	.LLST112
 7980 1b06 2C       		.uleb128 0x2c
 7981 1b07 220B0000 		.4byte	0xb22
 7982 1b0b 14010000 		.4byte	.LBB190
 7983 1b0f A8020000 		.4byte	.Ldebug_ranges0+0x2a8
 7984 1b13 01       		.byte	0x1
 7985 1b14 0D06     		.2byte	0x60d
 7986 1b16 3C1B0000 		.4byte	0x1b3c
 7987 1b1a 2D       		.uleb128 0x2d
 7988 1b1b 3D0B0000 		.4byte	0xb3d
 7989 1b1f FE130000 		.4byte	.LLST113
 7990 1b23 2D       		.uleb128 0x2d
 7991 1b24 330B0000 		.4byte	0xb33
 7992 1b28 20140000 		.4byte	.LLST114
 7993 1b2c 43       		.uleb128 0x43
 7994 1b2d A8020000 		.4byte	.Ldebug_ranges0+0x2a8
 7995 1b31 44       		.uleb128 0x44
 7996 1b32 490B0000 		.4byte	0xb49
 7997 1b36 33140000 		.4byte	.LLST115
 7998 1b3a 00       		.byte	0
 7999 1b3b 00       		.byte	0
 8000 1b3c 2E       		.uleb128 0x2e
ARM GAS  /var/folders/6q/x_mk5n_j3p7_c40r_2k_78980000gn/T//ccu43oO2.s 			page 142


 8001 1b3d 14010000 		.4byte	.LVL531
 8002 1b41 70170000 		.4byte	0x1770
 8003 1b45 501B0000 		.4byte	0x1b50
 8004 1b49 2F       		.uleb128 0x2f
 8005 1b4a 01       		.uleb128 0x1
 8006 1b4b 50       		.byte	0x50
 8007 1b4c 02       		.uleb128 0x2
 8008 1b4d 74       		.byte	0x74
 8009 1b4e 00       		.sleb128 0
 8010 1b4f 00       		.byte	0
 8011 1b50 2E       		.uleb128 0x2e
 8012 1b51 70010000 		.4byte	.LVL544
 8013 1b55 B01D0000 		.4byte	0x1db0
 8014 1b59 631B0000 		.4byte	0x1b63
 8015 1b5d 2F       		.uleb128 0x2f
 8016 1b5e 01       		.uleb128 0x1
 8017 1b5f 51       		.byte	0x51
 8018 1b60 01       		.uleb128 0x1
 8019 1b61 31       		.byte	0x31
 8020 1b62 00       		.byte	0
 8021 1b63 31       		.uleb128 0x31
 8022 1b64 CA010000 		.4byte	.LVL555
 8023 1b68 720A0000 		.4byte	0xa72
 8024 1b6c 2F       		.uleb128 0x2f
 8025 1b6d 01       		.uleb128 0x1
 8026 1b6e 50       		.byte	0x50
 8027 1b6f 02       		.uleb128 0x2
 8028 1b70 74       		.byte	0x74
 8029 1b71 00       		.sleb128 0
 8030 1b72 2F       		.uleb128 0x2f
 8031 1b73 01       		.uleb128 0x1
 8032 1b74 51       		.byte	0x51
 8033 1b75 05       		.uleb128 0x5
 8034 1b76 7D       		.byte	0x7d
 8035 1b77 00       		.sleb128 0
 8036 1b78 F6       		.byte	0xf6
 8037 1b79 04       		.byte	0x4
 8038 1b7a 25       		.uleb128 0x25
 8039 1b7b 00       		.byte	0
 8040 1b7c 00       		.byte	0
 8041 1b7d 4C       		.uleb128 0x4c
 8042 1b7e 74010000 		.4byte	.LBB194
 8043 1b82 10000000 		.4byte	.LBE194-.LBB194
 8044 1b86 A51B0000 		.4byte	0x1ba5
 8045 1b8a 24       		.uleb128 0x24
 8046 1b8b 7300     		.ascii	"s\000"
 8047 1b8d 01       		.byte	0x1
 8048 1b8e 1C06     		.2byte	0x61c
 8049 1b90 C40A0000 		.4byte	0xac4
 8050 1b94 31       		.uleb128 0x31
 8051 1b95 82010000 		.4byte	.LVL546
 8052 1b99 84190000 		.4byte	0x1984
 8053 1b9d 2F       		.uleb128 0x2f
 8054 1b9e 01       		.uleb128 0x1
 8055 1b9f 50       		.byte	0x50
 8056 1ba0 02       		.uleb128 0x2
 8057 1ba1 76       		.byte	0x76
ARM GAS  /var/folders/6q/x_mk5n_j3p7_c40r_2k_78980000gn/T//ccu43oO2.s 			page 143


 8058 1ba2 00       		.sleb128 0
 8059 1ba3 00       		.byte	0
 8060 1ba4 00       		.byte	0
 8061 1ba5 48       		.uleb128 0x48
 8062 1ba6 94010000 		.4byte	.LBB195
 8063 1baa 2A000000 		.4byte	.LBE195-.LBB195
 8064 1bae 2B       		.uleb128 0x2b
 8065 1baf 0E0B0000 		.4byte	.LASF250
 8066 1bb3 01       		.byte	0x1
 8067 1bb4 2606     		.2byte	0x626
 8068 1bb6 25000000 		.4byte	0x25
 8069 1bba 63140000 		.4byte	.LLST116
 8070 1bbe 30       		.uleb128 0x30
 8071 1bbf 98010000 		.4byte	.LVL549
 8072 1bc3 BB1D0000 		.4byte	0x1dbb
 8073 1bc7 00       		.byte	0
 8074 1bc8 00       		.byte	0
 8075 1bc9 4D       		.uleb128 0x4d
 8076 1bca E4190000 		.4byte	0x19e4
 8077 1bce CC010000 		.4byte	.LBB197
 8078 1bd2 7A000000 		.4byte	.LBE197-.LBB197
 8079 1bd6 01       		.byte	0x1
 8080 1bd7 EF05     		.2byte	0x5ef
 8081 1bd9 0C1C0000 		.4byte	0x1c0c
 8082 1bdd 2D       		.uleb128 0x2d
 8083 1bde FB190000 		.4byte	0x19fb
 8084 1be2 8A140000 		.4byte	.LLST117
 8085 1be6 2D       		.uleb128 0x2d
 8086 1be7 F1190000 		.4byte	0x19f1
 8087 1beb A9140000 		.4byte	.LLST118
 8088 1bef 48       		.uleb128 0x48
 8089 1bf0 CC010000 		.4byte	.LBB198
 8090 1bf4 7A000000 		.4byte	.LBE198-.LBB198
 8091 1bf8 44       		.uleb128 0x44
 8092 1bf9 071A0000 		.4byte	0x1a07
 8093 1bfd C7140000 		.4byte	.LLST119
 8094 1c01 30       		.uleb128 0x30
 8095 1c02 DC010000 		.4byte	.LVL557
 8096 1c06 BB1D0000 		.4byte	0x1dbb
 8097 1c0a 00       		.byte	0
 8098 1c0b 00       		.byte	0
 8099 1c0c 2E       		.uleb128 0x2e
 8100 1c0d 2E000000 		.4byte	.LVL507
 8101 1c11 631D0000 		.4byte	0x1d63
 8102 1c15 1F1C0000 		.4byte	0x1c1f
 8103 1c19 2F       		.uleb128 0x2f
 8104 1c1a 01       		.uleb128 0x1
 8105 1c1b 50       		.byte	0x50
 8106 1c1c 01       		.uleb128 0x1
 8107 1c1d 3A       		.byte	0x3a
 8108 1c1e 00       		.byte	0
 8109 1c1f 30       		.uleb128 0x30
 8110 1c20 3C000000 		.4byte	.LVL509
 8111 1c24 C61D0000 		.4byte	0x1dc6
 8112 1c28 2E       		.uleb128 0x2e
 8113 1c29 8A000000 		.4byte	.LVL515
 8114 1c2d E9130000 		.4byte	0x13e9
ARM GAS  /var/folders/6q/x_mk5n_j3p7_c40r_2k_78980000gn/T//ccu43oO2.s 			page 144


 8115 1c31 3C1C0000 		.4byte	0x1c3c
 8116 1c35 2F       		.uleb128 0x2f
 8117 1c36 01       		.uleb128 0x1
 8118 1c37 50       		.byte	0x50
 8119 1c38 02       		.uleb128 0x2
 8120 1c39 74       		.byte	0x74
 8121 1c3a 00       		.sleb128 0
 8122 1c3b 00       		.byte	0
 8123 1c3c 2E       		.uleb128 0x2e
 8124 1c3d 92000000 		.4byte	.LVL516
 8125 1c41 E8140000 		.4byte	0x14e8
 8126 1c45 571C0000 		.4byte	0x1c57
 8127 1c49 2F       		.uleb128 0x2f
 8128 1c4a 01       		.uleb128 0x1
 8129 1c4b 50       		.byte	0x50
 8130 1c4c 02       		.uleb128 0x2
 8131 1c4d 74       		.byte	0x74
 8132 1c4e 00       		.sleb128 0
 8133 1c4f 2F       		.uleb128 0x2f
 8134 1c50 01       		.uleb128 0x1
 8135 1c51 51       		.byte	0x51
 8136 1c52 03       		.uleb128 0x3
 8137 1c53 F5       		.byte	0xf5
 8138 1c54 08       		.uleb128 0x8
 8139 1c55 25       		.uleb128 0x25
 8140 1c56 00       		.byte	0
 8141 1c57 2E       		.uleb128 0x2e
 8142 1c58 4E020000 		.4byte	.LVL569
 8143 1c5c CA0A0000 		.4byte	0xaca
 8144 1c60 721C0000 		.4byte	0x1c72
 8145 1c64 2F       		.uleb128 0x2f
 8146 1c65 01       		.uleb128 0x1
 8147 1c66 50       		.byte	0x50
 8148 1c67 02       		.uleb128 0x2
 8149 1c68 74       		.byte	0x74
 8150 1c69 00       		.sleb128 0
 8151 1c6a 2F       		.uleb128 0x2f
 8152 1c6b 01       		.uleb128 0x1
 8153 1c6c 51       		.byte	0x51
 8154 1c6d 03       		.uleb128 0x3
 8155 1c6e F5       		.byte	0xf5
 8156 1c6f 08       		.uleb128 0x8
 8157 1c70 25       		.uleb128 0x25
 8158 1c71 00       		.byte	0
 8159 1c72 2E       		.uleb128 0x2e
 8160 1c73 58020000 		.4byte	.LVL570
 8161 1c77 4E0A0000 		.4byte	0xa4e
 8162 1c7b 8D1C0000 		.4byte	0x1c8d
 8163 1c7f 2F       		.uleb128 0x2f
 8164 1c80 01       		.uleb128 0x1
 8165 1c81 50       		.byte	0x50
 8166 1c82 02       		.uleb128 0x2
 8167 1c83 74       		.byte	0x74
 8168 1c84 00       		.sleb128 0
 8169 1c85 2F       		.uleb128 0x2f
 8170 1c86 01       		.uleb128 0x1
 8171 1c87 51       		.byte	0x51
ARM GAS  /var/folders/6q/x_mk5n_j3p7_c40r_2k_78980000gn/T//ccu43oO2.s 			page 145


 8172 1c88 03       		.uleb128 0x3
 8173 1c89 F5       		.byte	0xf5
 8174 1c8a 08       		.uleb128 0x8
 8175 1c8b 25       		.uleb128 0x25
 8176 1c8c 00       		.byte	0
 8177 1c8d 31       		.uleb128 0x31
 8178 1c8e 68020000 		.4byte	.LVL573
 8179 1c92 27140000 		.4byte	0x1427
 8180 1c96 2F       		.uleb128 0x2f
 8181 1c97 01       		.uleb128 0x1
 8182 1c98 50       		.byte	0x50
 8183 1c99 02       		.uleb128 0x2
 8184 1c9a 74       		.byte	0x74
 8185 1c9b 00       		.sleb128 0
 8186 1c9c 00       		.byte	0
 8187 1c9d 00       		.byte	0
 8188 1c9e 31       		.uleb128 0x31
 8189 1c9f 10000000 		.4byte	.LVL505
 8190 1ca3 421D0000 		.4byte	0x1d42
 8191 1ca7 2F       		.uleb128 0x2f
 8192 1ca8 01       		.uleb128 0x1
 8193 1ca9 50       		.byte	0x50
 8194 1caa 05       		.uleb128 0x5
 8195 1cab 03       		.byte	0x3
 8196 1cac 98000000 		.4byte	.LC9
 8197 1cb0 2F       		.uleb128 0x2f
 8198 1cb1 01       		.uleb128 0x1
 8199 1cb2 51       		.byte	0x51
 8200 1cb3 01       		.uleb128 0x1
 8201 1cb4 31       		.byte	0x31
 8202 1cb5 00       		.byte	0
 8203 1cb6 00       		.byte	0
 8204 1cb7 07       		.uleb128 0x7
 8205 1cb8 33000000 		.4byte	0x33
 8206 1cbc 17       		.uleb128 0x17
 8207 1cbd EE080000 		.4byte	0x8ee
 8208 1cc1 CC1C0000 		.4byte	0x1ccc
 8209 1cc5 18       		.uleb128 0x18
 8210 1cc6 A1000000 		.4byte	0xa1
 8211 1cca 09       		.byte	0x9
 8212 1ccb 00       		.byte	0
 8213 1ccc 4E       		.uleb128 0x4e
 8214 1ccd 13010000 		.4byte	.LASF251
 8215 1cd1 01       		.byte	0x1
 8216 1cd2 7C       		.byte	0x7c
 8217 1cd3 BC1C0000 		.4byte	0x1cbc
 8218 1cd7 05       		.uleb128 0x5
 8219 1cd8 03       		.byte	0x3
 8220 1cd9 00000000 		.4byte	sMotors
 8221 1cdd 17       		.uleb128 0x17
 8222 1cde 0F090000 		.4byte	0x90f
 8223 1ce2 ED1C0000 		.4byte	0x1ced
 8224 1ce6 18       		.uleb128 0x18
 8225 1ce7 A1000000 		.4byte	0xa1
 8226 1ceb 02       		.byte	0x2
 8227 1cec 00       		.byte	0
 8228 1ced 4E       		.uleb128 0x4e
ARM GAS  /var/folders/6q/x_mk5n_j3p7_c40r_2k_78980000gn/T//ccu43oO2.s 			page 146


 8229 1cee E8010000 		.4byte	.LASF252
 8230 1cf2 01       		.byte	0x1
 8231 1cf3 7D       		.byte	0x7d
 8232 1cf4 DD1C0000 		.4byte	0x1cdd
 8233 1cf8 05       		.uleb128 0x5
 8234 1cf9 03       		.byte	0x3
 8235 1cfa 00000000 		.4byte	sPorts
 8236 1cfe 4E       		.uleb128 0x4e
 8237 1cff A9000000 		.4byte	.LASF253
 8238 1d03 01       		.byte	0x1
 8239 1d04 85       		.byte	0x85
 8240 1d05 3A000000 		.4byte	0x3a
 8241 1d09 05       		.uleb128 0x5
 8242 1d0a 03       		.byte	0x3
 8243 1d0b 00000000 		.4byte	PtcLimitEnabled
 8244 1d0f 4E       		.uleb128 0x4e
 8245 1d10 7F090000 		.4byte	.LASF254
 8246 1d14 01       		.byte	0x1
 8247 1d15 89       		.byte	0x89
 8248 1d16 3A000000 		.4byte	0x3a
 8249 1d1a 05       		.uleb128 0x5
 8250 1d1b 03       		.byte	0x3
 8251 1d1c 00000000 		.4byte	CurrentLimitEnabled
 8252 1d20 4F       		.uleb128 0x4f
 8253 1d21 22010000 		.4byte	.LASF255
 8254 1d25 09       		.byte	0x9
 8255 1d26 F5       		.byte	0xf5
 8256 1d27 FD030000 		.4byte	0x3fd
 8257 1d2b 4F       		.uleb128 0x4f
 8258 1d2c E40A0000 		.4byte	.LASF256
 8259 1d30 0A       		.byte	0xa
 8260 1d31 6F       		.byte	0x6f
 8261 1d32 59040000 		.4byte	0x459
 8262 1d36 50       		.uleb128 0x50
 8263 1d37 7A0A0000 		.4byte	.LASF257
 8264 1d3b 11       		.byte	0x11
 8265 1d3c 0706     		.2byte	0x607
 8266 1d3e E1040000 		.4byte	0x4e1
 8267 1d42 51       		.uleb128 0x51
 8268 1d43 04070000 		.4byte	.LASF258
 8269 1d47 04070000 		.4byte	.LASF258
 8270 1d4b 12       		.byte	0x12
 8271 1d4c 9F       		.byte	0x9f
 8272 1d4d 51       		.uleb128 0x51
 8273 1d4e 27080000 		.4byte	.LASF259
 8274 1d52 27080000 		.4byte	.LASF259
 8275 1d56 0E       		.byte	0xe
 8276 1d57 92       		.byte	0x92
 8277 1d58 51       		.uleb128 0x51
 8278 1d59 B60B0000 		.4byte	.LASF260
 8279 1d5d B60B0000 		.4byte	.LASF260
 8280 1d61 0E       		.byte	0xe
 8281 1d62 93       		.byte	0x93
 8282 1d63 51       		.uleb128 0x51
 8283 1d64 31010000 		.4byte	.LASF261
 8284 1d68 31010000 		.4byte	.LASF261
 8285 1d6c 12       		.byte	0x12
ARM GAS  /var/folders/6q/x_mk5n_j3p7_c40r_2k_78980000gn/T//ccu43oO2.s 			page 147


 8286 1d6d A5       		.byte	0xa5
 8287 1d6e 51       		.uleb128 0x51
 8288 1d6f 800C0000 		.4byte	.LASF262
 8289 1d73 800C0000 		.4byte	.LASF262
 8290 1d77 13       		.byte	0x13
 8291 1d78 47       		.byte	0x47
 8292 1d79 51       		.uleb128 0x51
 8293 1d7a D4000000 		.4byte	.LASF263
 8294 1d7e D4000000 		.4byte	.LASF263
 8295 1d82 13       		.byte	0x13
 8296 1d83 48       		.byte	0x48
 8297 1d84 51       		.uleb128 0x51
 8298 1d85 400B0000 		.4byte	.LASF264
 8299 1d89 400B0000 		.4byte	.LASF264
 8300 1d8d 14       		.byte	0x14
 8301 1d8e 3A       		.byte	0x3a
 8302 1d8f 51       		.uleb128 0x51
 8303 1d90 09060000 		.4byte	.LASF265
 8304 1d94 09060000 		.4byte	.LASF265
 8305 1d98 0E       		.byte	0xe
 8306 1d99 A0       		.byte	0xa0
 8307 1d9a 51       		.uleb128 0x51
 8308 1d9b 7B020000 		.4byte	.LASF266
 8309 1d9f 7B020000 		.4byte	.LASF266
 8310 1da3 0E       		.byte	0xe
 8311 1da4 97       		.byte	0x97
 8312 1da5 51       		.uleb128 0x51
 8313 1da6 B3050000 		.4byte	.LASF267
 8314 1daa B3050000 		.4byte	.LASF267
 8315 1dae 0E       		.byte	0xe
 8316 1daf 9C       		.byte	0x9c
 8317 1db0 51       		.uleb128 0x51
 8318 1db1 17040000 		.4byte	.LASF268
 8319 1db5 17040000 		.4byte	.LASF268
 8320 1db9 0D       		.byte	0xd
 8321 1dba C3       		.byte	0xc3
 8322 1dbb 51       		.uleb128 0x51
 8323 1dbc 59000000 		.4byte	.LASF269
 8324 1dc0 59000000 		.4byte	.LASF269
 8325 1dc4 0C       		.byte	0xc
 8326 1dc5 4F       		.byte	0x4f
 8327 1dc6 51       		.uleb128 0x51
 8328 1dc7 EC0B0000 		.4byte	.LASF270
 8329 1dcb EC0B0000 		.4byte	.LASF270
 8330 1dcf 15       		.byte	0x15
 8331 1dd0 B1       		.byte	0xb1
 8332 1dd1 00       		.byte	0
 8333              		.section	.debug_abbrev,"",%progbits
 8334              	.Ldebug_abbrev0:
 8335 0000 01       		.uleb128 0x1
 8336 0001 11       		.uleb128 0x11
 8337 0002 01       		.byte	0x1
 8338 0003 25       		.uleb128 0x25
 8339 0004 0E       		.uleb128 0xe
 8340 0005 13       		.uleb128 0x13
 8341 0006 0B       		.uleb128 0xb
 8342 0007 03       		.uleb128 0x3
ARM GAS  /var/folders/6q/x_mk5n_j3p7_c40r_2k_78980000gn/T//ccu43oO2.s 			page 148


 8343 0008 0E       		.uleb128 0xe
 8344 0009 1B       		.uleb128 0x1b
 8345 000a 0E       		.uleb128 0xe
 8346 000b 55       		.uleb128 0x55
 8347 000c 17       		.uleb128 0x17
 8348 000d 11       		.uleb128 0x11
 8349 000e 01       		.uleb128 0x1
 8350 000f 10       		.uleb128 0x10
 8351 0010 17       		.uleb128 0x17
 8352 0011 00       		.byte	0
 8353 0012 00       		.byte	0
 8354 0013 02       		.uleb128 0x2
 8355 0014 24       		.uleb128 0x24
 8356 0015 00       		.byte	0
 8357 0016 0B       		.uleb128 0xb
 8358 0017 0B       		.uleb128 0xb
 8359 0018 3E       		.uleb128 0x3e
 8360 0019 0B       		.uleb128 0xb
 8361 001a 03       		.uleb128 0x3
 8362 001b 0E       		.uleb128 0xe
 8363 001c 00       		.byte	0
 8364 001d 00       		.byte	0
 8365 001e 03       		.uleb128 0x3
 8366 001f 24       		.uleb128 0x24
 8367 0020 00       		.byte	0
 8368 0021 0B       		.uleb128 0xb
 8369 0022 0B       		.uleb128 0xb
 8370 0023 3E       		.uleb128 0x3e
 8371 0024 0B       		.uleb128 0xb
 8372 0025 03       		.uleb128 0x3
 8373 0026 08       		.uleb128 0x8
 8374 0027 00       		.byte	0
 8375 0028 00       		.byte	0
 8376 0029 04       		.uleb128 0x4
 8377 002a 16       		.uleb128 0x16
 8378 002b 00       		.byte	0
 8379 002c 03       		.uleb128 0x3
 8380 002d 0E       		.uleb128 0xe
 8381 002e 3A       		.uleb128 0x3a
 8382 002f 0B       		.uleb128 0xb
 8383 0030 3B       		.uleb128 0x3b
 8384 0031 0B       		.uleb128 0xb
 8385 0032 49       		.uleb128 0x49
 8386 0033 13       		.uleb128 0x13
 8387 0034 00       		.byte	0
 8388 0035 00       		.byte	0
 8389 0036 05       		.uleb128 0x5
 8390 0037 0F       		.uleb128 0xf
 8391 0038 00       		.byte	0
 8392 0039 0B       		.uleb128 0xb
 8393 003a 0B       		.uleb128 0xb
 8394 003b 00       		.byte	0
 8395 003c 00       		.byte	0
 8396 003d 06       		.uleb128 0x6
 8397 003e 0F       		.uleb128 0xf
 8398 003f 00       		.byte	0
 8399 0040 0B       		.uleb128 0xb
ARM GAS  /var/folders/6q/x_mk5n_j3p7_c40r_2k_78980000gn/T//ccu43oO2.s 			page 149


 8400 0041 0B       		.uleb128 0xb
 8401 0042 49       		.uleb128 0x49
 8402 0043 13       		.uleb128 0x13
 8403 0044 00       		.byte	0
 8404 0045 00       		.byte	0
 8405 0046 07       		.uleb128 0x7
 8406 0047 26       		.uleb128 0x26
 8407 0048 00       		.byte	0
 8408 0049 49       		.uleb128 0x49
 8409 004a 13       		.uleb128 0x13
 8410 004b 00       		.byte	0
 8411 004c 00       		.byte	0
 8412 004d 08       		.uleb128 0x8
 8413 004e 13       		.uleb128 0x13
 8414 004f 01       		.byte	0x1
 8415 0050 03       		.uleb128 0x3
 8416 0051 0E       		.uleb128 0xe
 8417 0052 0B       		.uleb128 0xb
 8418 0053 0B       		.uleb128 0xb
 8419 0054 3A       		.uleb128 0x3a
 8420 0055 0B       		.uleb128 0xb
 8421 0056 3B       		.uleb128 0x3b
 8422 0057 0B       		.uleb128 0xb
 8423 0058 01       		.uleb128 0x1
 8424 0059 13       		.uleb128 0x13
 8425 005a 00       		.byte	0
 8426 005b 00       		.byte	0
 8427 005c 09       		.uleb128 0x9
 8428 005d 0D       		.uleb128 0xd
 8429 005e 00       		.byte	0
 8430 005f 03       		.uleb128 0x3
 8431 0060 0E       		.uleb128 0xe
 8432 0061 3A       		.uleb128 0x3a
 8433 0062 0B       		.uleb128 0xb
 8434 0063 3B       		.uleb128 0x3b
 8435 0064 0B       		.uleb128 0xb
 8436 0065 49       		.uleb128 0x49
 8437 0066 13       		.uleb128 0x13
 8438 0067 38       		.uleb128 0x38
 8439 0068 0B       		.uleb128 0xb
 8440 0069 00       		.byte	0
 8441 006a 00       		.byte	0
 8442 006b 0A       		.uleb128 0xa
 8443 006c 0D       		.uleb128 0xd
 8444 006d 00       		.byte	0
 8445 006e 03       		.uleb128 0x3
 8446 006f 08       		.uleb128 0x8
 8447 0070 3A       		.uleb128 0x3a
 8448 0071 0B       		.uleb128 0xb
 8449 0072 3B       		.uleb128 0x3b
 8450 0073 0B       		.uleb128 0xb
 8451 0074 49       		.uleb128 0x49
 8452 0075 13       		.uleb128 0x13
 8453 0076 38       		.uleb128 0x38
 8454 0077 0B       		.uleb128 0xb
 8455 0078 00       		.byte	0
 8456 0079 00       		.byte	0
ARM GAS  /var/folders/6q/x_mk5n_j3p7_c40r_2k_78980000gn/T//ccu43oO2.s 			page 150


 8457 007a 0B       		.uleb128 0xb
 8458 007b 13       		.uleb128 0x13
 8459 007c 01       		.byte	0x1
 8460 007d 0B       		.uleb128 0xb
 8461 007e 0B       		.uleb128 0xb
 8462 007f 3A       		.uleb128 0x3a
 8463 0080 0B       		.uleb128 0xb
 8464 0081 3B       		.uleb128 0x3b
 8465 0082 0B       		.uleb128 0xb
 8466 0083 01       		.uleb128 0x1
 8467 0084 13       		.uleb128 0x13
 8468 0085 00       		.byte	0
 8469 0086 00       		.byte	0
 8470 0087 0C       		.uleb128 0xc
 8471 0088 13       		.uleb128 0x13
 8472 0089 01       		.byte	0x1
 8473 008a 03       		.uleb128 0x3
 8474 008b 0E       		.uleb128 0xe
 8475 008c 0B       		.uleb128 0xb
 8476 008d 0B       		.uleb128 0xb
 8477 008e 3A       		.uleb128 0x3a
 8478 008f 0B       		.uleb128 0xb
 8479 0090 3B       		.uleb128 0x3b
 8480 0091 05       		.uleb128 0x5
 8481 0092 01       		.uleb128 0x1
 8482 0093 13       		.uleb128 0x13
 8483 0094 00       		.byte	0
 8484 0095 00       		.byte	0
 8485 0096 0D       		.uleb128 0xd
 8486 0097 0D       		.uleb128 0xd
 8487 0098 00       		.byte	0
 8488 0099 03       		.uleb128 0x3
 8489 009a 08       		.uleb128 0x8
 8490 009b 3A       		.uleb128 0x3a
 8491 009c 0B       		.uleb128 0xb
 8492 009d 3B       		.uleb128 0x3b
 8493 009e 05       		.uleb128 0x5
 8494 009f 49       		.uleb128 0x49
 8495 00a0 13       		.uleb128 0x13
 8496 00a1 38       		.uleb128 0x38
 8497 00a2 0B       		.uleb128 0xb
 8498 00a3 00       		.byte	0
 8499 00a4 00       		.byte	0
 8500 00a5 0E       		.uleb128 0xe
 8501 00a6 15       		.uleb128 0x15
 8502 00a7 01       		.byte	0x1
 8503 00a8 27       		.uleb128 0x27
 8504 00a9 19       		.uleb128 0x19
 8505 00aa 01       		.uleb128 0x1
 8506 00ab 13       		.uleb128 0x13
 8507 00ac 00       		.byte	0
 8508 00ad 00       		.byte	0
 8509 00ae 0F       		.uleb128 0xf
 8510 00af 05       		.uleb128 0x5
 8511 00b0 00       		.byte	0
 8512 00b1 49       		.uleb128 0x49
 8513 00b2 13       		.uleb128 0x13
ARM GAS  /var/folders/6q/x_mk5n_j3p7_c40r_2k_78980000gn/T//ccu43oO2.s 			page 151


 8514 00b3 00       		.byte	0
 8515 00b4 00       		.byte	0
 8516 00b5 10       		.uleb128 0x10
 8517 00b6 35       		.uleb128 0x35
 8518 00b7 00       		.byte	0
 8519 00b8 49       		.uleb128 0x49
 8520 00b9 13       		.uleb128 0x13
 8521 00ba 00       		.byte	0
 8522 00bb 00       		.byte	0
 8523 00bc 11       		.uleb128 0x11
 8524 00bd 17       		.uleb128 0x17
 8525 00be 01       		.byte	0x1
 8526 00bf 0B       		.uleb128 0xb
 8527 00c0 0B       		.uleb128 0xb
 8528 00c1 3A       		.uleb128 0x3a
 8529 00c2 0B       		.uleb128 0xb
 8530 00c3 3B       		.uleb128 0x3b
 8531 00c4 0B       		.uleb128 0xb
 8532 00c5 01       		.uleb128 0x1
 8533 00c6 13       		.uleb128 0x13
 8534 00c7 00       		.byte	0
 8535 00c8 00       		.byte	0
 8536 00c9 12       		.uleb128 0x12
 8537 00ca 0D       		.uleb128 0xd
 8538 00cb 00       		.byte	0
 8539 00cc 03       		.uleb128 0x3
 8540 00cd 0E       		.uleb128 0xe
 8541 00ce 3A       		.uleb128 0x3a
 8542 00cf 0B       		.uleb128 0xb
 8543 00d0 3B       		.uleb128 0x3b
 8544 00d1 0B       		.uleb128 0xb
 8545 00d2 49       		.uleb128 0x49
 8546 00d3 13       		.uleb128 0x13
 8547 00d4 00       		.byte	0
 8548 00d5 00       		.byte	0
 8549 00d6 13       		.uleb128 0x13
 8550 00d7 04       		.uleb128 0x4
 8551 00d8 01       		.byte	0x1
 8552 00d9 0B       		.uleb128 0xb
 8553 00da 0B       		.uleb128 0xb
 8554 00db 49       		.uleb128 0x49
 8555 00dc 13       		.uleb128 0x13
 8556 00dd 3A       		.uleb128 0x3a
 8557 00de 0B       		.uleb128 0xb
 8558 00df 3B       		.uleb128 0x3b
 8559 00e0 0B       		.uleb128 0xb
 8560 00e1 01       		.uleb128 0x1
 8561 00e2 13       		.uleb128 0x13
 8562 00e3 00       		.byte	0
 8563 00e4 00       		.byte	0
 8564 00e5 14       		.uleb128 0x14
 8565 00e6 28       		.uleb128 0x28
 8566 00e7 00       		.byte	0
 8567 00e8 03       		.uleb128 0x3
 8568 00e9 0E       		.uleb128 0xe
 8569 00ea 1C       		.uleb128 0x1c
 8570 00eb 0D       		.uleb128 0xd
ARM GAS  /var/folders/6q/x_mk5n_j3p7_c40r_2k_78980000gn/T//ccu43oO2.s 			page 152


 8571 00ec 00       		.byte	0
 8572 00ed 00       		.byte	0
 8573 00ee 15       		.uleb128 0x15
 8574 00ef 28       		.uleb128 0x28
 8575 00f0 00       		.byte	0
 8576 00f1 03       		.uleb128 0x3
 8577 00f2 0E       		.uleb128 0xe
 8578 00f3 1C       		.uleb128 0x1c
 8579 00f4 0B       		.uleb128 0xb
 8580 00f5 00       		.byte	0
 8581 00f6 00       		.byte	0
 8582 00f7 16       		.uleb128 0x16
 8583 00f8 0D       		.uleb128 0xd
 8584 00f9 00       		.byte	0
 8585 00fa 03       		.uleb128 0x3
 8586 00fb 0E       		.uleb128 0xe
 8587 00fc 3A       		.uleb128 0x3a
 8588 00fd 0B       		.uleb128 0xb
 8589 00fe 3B       		.uleb128 0x3b
 8590 00ff 05       		.uleb128 0x5
 8591 0100 49       		.uleb128 0x49
 8592 0101 13       		.uleb128 0x13
 8593 0102 38       		.uleb128 0x38
 8594 0103 0B       		.uleb128 0xb
 8595 0104 00       		.byte	0
 8596 0105 00       		.byte	0
 8597 0106 17       		.uleb128 0x17
 8598 0107 01       		.uleb128 0x1
 8599 0108 01       		.byte	0x1
 8600 0109 49       		.uleb128 0x49
 8601 010a 13       		.uleb128 0x13
 8602 010b 01       		.uleb128 0x1
 8603 010c 13       		.uleb128 0x13
 8604 010d 00       		.byte	0
 8605 010e 00       		.byte	0
 8606 010f 18       		.uleb128 0x18
 8607 0110 21       		.uleb128 0x21
 8608 0111 00       		.byte	0
 8609 0112 49       		.uleb128 0x49
 8610 0113 13       		.uleb128 0x13
 8611 0114 2F       		.uleb128 0x2f
 8612 0115 0B       		.uleb128 0xb
 8613 0116 00       		.byte	0
 8614 0117 00       		.byte	0
 8615 0118 19       		.uleb128 0x19
 8616 0119 16       		.uleb128 0x16
 8617 011a 00       		.byte	0
 8618 011b 03       		.uleb128 0x3
 8619 011c 0E       		.uleb128 0xe
 8620 011d 3A       		.uleb128 0x3a
 8621 011e 0B       		.uleb128 0xb
 8622 011f 3B       		.uleb128 0x3b
 8623 0120 05       		.uleb128 0x5
 8624 0121 49       		.uleb128 0x49
 8625 0122 13       		.uleb128 0x13
 8626 0123 00       		.byte	0
 8627 0124 00       		.byte	0
ARM GAS  /var/folders/6q/x_mk5n_j3p7_c40r_2k_78980000gn/T//ccu43oO2.s 			page 153


 8628 0125 1A       		.uleb128 0x1a
 8629 0126 2E       		.uleb128 0x2e
 8630 0127 01       		.byte	0x1
 8631 0128 03       		.uleb128 0x3
 8632 0129 0E       		.uleb128 0xe
 8633 012a 3A       		.uleb128 0x3a
 8634 012b 0B       		.uleb128 0xb
 8635 012c 3B       		.uleb128 0x3b
 8636 012d 0B       		.uleb128 0xb
 8637 012e 27       		.uleb128 0x27
 8638 012f 19       		.uleb128 0x19
 8639 0130 49       		.uleb128 0x49
 8640 0131 13       		.uleb128 0x13
 8641 0132 20       		.uleb128 0x20
 8642 0133 0B       		.uleb128 0xb
 8643 0134 01       		.uleb128 0x1
 8644 0135 13       		.uleb128 0x13
 8645 0136 00       		.byte	0
 8646 0137 00       		.byte	0
 8647 0138 1B       		.uleb128 0x1b
 8648 0139 05       		.uleb128 0x5
 8649 013a 00       		.byte	0
 8650 013b 03       		.uleb128 0x3
 8651 013c 08       		.uleb128 0x8
 8652 013d 3A       		.uleb128 0x3a
 8653 013e 0B       		.uleb128 0xb
 8654 013f 3B       		.uleb128 0x3b
 8655 0140 0B       		.uleb128 0xb
 8656 0141 49       		.uleb128 0x49
 8657 0142 13       		.uleb128 0x13
 8658 0143 00       		.byte	0
 8659 0144 00       		.byte	0
 8660 0145 1C       		.uleb128 0x1c
 8661 0146 34       		.uleb128 0x34
 8662 0147 00       		.byte	0
 8663 0148 03       		.uleb128 0x3
 8664 0149 0E       		.uleb128 0xe
 8665 014a 3A       		.uleb128 0x3a
 8666 014b 0B       		.uleb128 0xb
 8667 014c 3B       		.uleb128 0x3b
 8668 014d 0B       		.uleb128 0xb
 8669 014e 49       		.uleb128 0x49
 8670 014f 13       		.uleb128 0x13
 8671 0150 00       		.byte	0
 8672 0151 00       		.byte	0
 8673 0152 1D       		.uleb128 0x1d
 8674 0153 34       		.uleb128 0x34
 8675 0154 00       		.byte	0
 8676 0155 03       		.uleb128 0x3
 8677 0156 08       		.uleb128 0x8
 8678 0157 3A       		.uleb128 0x3a
 8679 0158 0B       		.uleb128 0xb
 8680 0159 3B       		.uleb128 0x3b
 8681 015a 0B       		.uleb128 0xb
 8682 015b 49       		.uleb128 0x49
 8683 015c 13       		.uleb128 0x13
 8684 015d 00       		.byte	0
ARM GAS  /var/folders/6q/x_mk5n_j3p7_c40r_2k_78980000gn/T//ccu43oO2.s 			page 154


 8685 015e 00       		.byte	0
 8686 015f 1E       		.uleb128 0x1e
 8687 0160 0D       		.uleb128 0xd
 8688 0161 00       		.byte	0
 8689 0162 03       		.uleb128 0x3
 8690 0163 08       		.uleb128 0x8
 8691 0164 3A       		.uleb128 0x3a
 8692 0165 0B       		.uleb128 0xb
 8693 0166 3B       		.uleb128 0x3b
 8694 0167 0B       		.uleb128 0xb
 8695 0168 49       		.uleb128 0x49
 8696 0169 13       		.uleb128 0x13
 8697 016a 00       		.byte	0
 8698 016b 00       		.byte	0
 8699 016c 1F       		.uleb128 0x1f
 8700 016d 2E       		.uleb128 0x2e
 8701 016e 01       		.byte	0x1
 8702 016f 03       		.uleb128 0x3
 8703 0170 08       		.uleb128 0x8
 8704 0171 3A       		.uleb128 0x3a
 8705 0172 0B       		.uleb128 0xb
 8706 0173 3B       		.uleb128 0x3b
 8707 0174 0B       		.uleb128 0xb
 8708 0175 27       		.uleb128 0x27
 8709 0176 19       		.uleb128 0x19
 8710 0177 49       		.uleb128 0x49
 8711 0178 13       		.uleb128 0x13
 8712 0179 20       		.uleb128 0x20
 8713 017a 0B       		.uleb128 0xb
 8714 017b 01       		.uleb128 0x1
 8715 017c 13       		.uleb128 0x13
 8716 017d 00       		.byte	0
 8717 017e 00       		.byte	0
 8718 017f 20       		.uleb128 0x20
 8719 0180 2E       		.uleb128 0x2e
 8720 0181 00       		.byte	0
 8721 0182 3F       		.uleb128 0x3f
 8722 0183 19       		.uleb128 0x19
 8723 0184 03       		.uleb128 0x3
 8724 0185 0E       		.uleb128 0xe
 8725 0186 3A       		.uleb128 0x3a
 8726 0187 0B       		.uleb128 0xb
 8727 0188 3B       		.uleb128 0x3b
 8728 0189 05       		.uleb128 0x5
 8729 018a 27       		.uleb128 0x27
 8730 018b 19       		.uleb128 0x19
 8731 018c 20       		.uleb128 0x20
 8732 018d 0B       		.uleb128 0xb
 8733 018e 00       		.byte	0
 8734 018f 00       		.byte	0
 8735 0190 21       		.uleb128 0x21
 8736 0191 2E       		.uleb128 0x2e
 8737 0192 01       		.byte	0x1
 8738 0193 3F       		.uleb128 0x3f
 8739 0194 19       		.uleb128 0x19
 8740 0195 03       		.uleb128 0x3
 8741 0196 0E       		.uleb128 0xe
ARM GAS  /var/folders/6q/x_mk5n_j3p7_c40r_2k_78980000gn/T//ccu43oO2.s 			page 155


 8742 0197 3A       		.uleb128 0x3a
 8743 0198 0B       		.uleb128 0xb
 8744 0199 3B       		.uleb128 0x3b
 8745 019a 05       		.uleb128 0x5
 8746 019b 27       		.uleb128 0x27
 8747 019c 19       		.uleb128 0x19
 8748 019d 20       		.uleb128 0x20
 8749 019e 0B       		.uleb128 0xb
 8750 019f 01       		.uleb128 0x1
 8751 01a0 13       		.uleb128 0x13
 8752 01a1 00       		.byte	0
 8753 01a2 00       		.byte	0
 8754 01a3 22       		.uleb128 0x22
 8755 01a4 05       		.uleb128 0x5
 8756 01a5 00       		.byte	0
 8757 01a6 03       		.uleb128 0x3
 8758 01a7 08       		.uleb128 0x8
 8759 01a8 3A       		.uleb128 0x3a
 8760 01a9 0B       		.uleb128 0xb
 8761 01aa 3B       		.uleb128 0x3b
 8762 01ab 05       		.uleb128 0x5
 8763 01ac 49       		.uleb128 0x49
 8764 01ad 13       		.uleb128 0x13
 8765 01ae 00       		.byte	0
 8766 01af 00       		.byte	0
 8767 01b0 23       		.uleb128 0x23
 8768 01b1 05       		.uleb128 0x5
 8769 01b2 00       		.byte	0
 8770 01b3 03       		.uleb128 0x3
 8771 01b4 0E       		.uleb128 0xe
 8772 01b5 3A       		.uleb128 0x3a
 8773 01b6 0B       		.uleb128 0xb
 8774 01b7 3B       		.uleb128 0x3b
 8775 01b8 05       		.uleb128 0x5
 8776 01b9 49       		.uleb128 0x49
 8777 01ba 13       		.uleb128 0x13
 8778 01bb 00       		.byte	0
 8779 01bc 00       		.byte	0
 8780 01bd 24       		.uleb128 0x24
 8781 01be 34       		.uleb128 0x34
 8782 01bf 00       		.byte	0
 8783 01c0 03       		.uleb128 0x3
 8784 01c1 08       		.uleb128 0x8
 8785 01c2 3A       		.uleb128 0x3a
 8786 01c3 0B       		.uleb128 0xb
 8787 01c4 3B       		.uleb128 0x3b
 8788 01c5 05       		.uleb128 0x5
 8789 01c6 49       		.uleb128 0x49
 8790 01c7 13       		.uleb128 0x13
 8791 01c8 00       		.byte	0
 8792 01c9 00       		.byte	0
 8793 01ca 25       		.uleb128 0x25
 8794 01cb 0B       		.uleb128 0xb
 8795 01cc 01       		.byte	0x1
 8796 01cd 00       		.byte	0
 8797 01ce 00       		.byte	0
 8798 01cf 26       		.uleb128 0x26
ARM GAS  /var/folders/6q/x_mk5n_j3p7_c40r_2k_78980000gn/T//ccu43oO2.s 			page 156


 8799 01d0 34       		.uleb128 0x34
 8800 01d1 00       		.byte	0
 8801 01d2 03       		.uleb128 0x3
 8802 01d3 0E       		.uleb128 0xe
 8803 01d4 3A       		.uleb128 0x3a
 8804 01d5 0B       		.uleb128 0xb
 8805 01d6 3B       		.uleb128 0x3b
 8806 01d7 05       		.uleb128 0x5
 8807 01d8 49       		.uleb128 0x49
 8808 01d9 13       		.uleb128 0x13
 8809 01da 00       		.byte	0
 8810 01db 00       		.byte	0
 8811 01dc 27       		.uleb128 0x27
 8812 01dd 2E       		.uleb128 0x2e
 8813 01de 01       		.byte	0x1
 8814 01df 3F       		.uleb128 0x3f
 8815 01e0 19       		.uleb128 0x19
 8816 01e1 03       		.uleb128 0x3
 8817 01e2 0E       		.uleb128 0xe
 8818 01e3 3A       		.uleb128 0x3a
 8819 01e4 0B       		.uleb128 0xb
 8820 01e5 3B       		.uleb128 0x3b
 8821 01e6 05       		.uleb128 0x5
 8822 01e7 27       		.uleb128 0x27
 8823 01e8 19       		.uleb128 0x19
 8824 01e9 49       		.uleb128 0x49
 8825 01ea 13       		.uleb128 0x13
 8826 01eb 20       		.uleb128 0x20
 8827 01ec 0B       		.uleb128 0xb
 8828 01ed 01       		.uleb128 0x1
 8829 01ee 13       		.uleb128 0x13
 8830 01ef 00       		.byte	0
 8831 01f0 00       		.byte	0
 8832 01f1 28       		.uleb128 0x28
 8833 01f2 2E       		.uleb128 0x2e
 8834 01f3 01       		.byte	0x1
 8835 01f4 3F       		.uleb128 0x3f
 8836 01f5 19       		.uleb128 0x19
 8837 01f6 03       		.uleb128 0x3
 8838 01f7 0E       		.uleb128 0xe
 8839 01f8 3A       		.uleb128 0x3a
 8840 01f9 0B       		.uleb128 0xb
 8841 01fa 3B       		.uleb128 0x3b
 8842 01fb 05       		.uleb128 0x5
 8843 01fc 27       		.uleb128 0x27
 8844 01fd 19       		.uleb128 0x19
 8845 01fe 49       		.uleb128 0x49
 8846 01ff 13       		.uleb128 0x13
 8847 0200 11       		.uleb128 0x11
 8848 0201 01       		.uleb128 0x1
 8849 0202 12       		.uleb128 0x12
 8850 0203 06       		.uleb128 0x6
 8851 0204 40       		.uleb128 0x40
 8852 0205 18       		.uleb128 0x18
 8853 0206 9642     		.uleb128 0x2116
 8854 0208 19       		.uleb128 0x19
 8855 0209 01       		.uleb128 0x1
ARM GAS  /var/folders/6q/x_mk5n_j3p7_c40r_2k_78980000gn/T//ccu43oO2.s 			page 157


 8856 020a 13       		.uleb128 0x13
 8857 020b 00       		.byte	0
 8858 020c 00       		.byte	0
 8859 020d 29       		.uleb128 0x29
 8860 020e 05       		.uleb128 0x5
 8861 020f 00       		.byte	0
 8862 0210 03       		.uleb128 0x3
 8863 0211 08       		.uleb128 0x8
 8864 0212 3A       		.uleb128 0x3a
 8865 0213 0B       		.uleb128 0xb
 8866 0214 3B       		.uleb128 0x3b
 8867 0215 05       		.uleb128 0x5
 8868 0216 49       		.uleb128 0x49
 8869 0217 13       		.uleb128 0x13
 8870 0218 02       		.uleb128 0x2
 8871 0219 17       		.uleb128 0x17
 8872 021a 00       		.byte	0
 8873 021b 00       		.byte	0
 8874 021c 2A       		.uleb128 0x2a
 8875 021d 34       		.uleb128 0x34
 8876 021e 00       		.byte	0
 8877 021f 03       		.uleb128 0x3
 8878 0220 0E       		.uleb128 0xe
 8879 0221 3A       		.uleb128 0x3a
 8880 0222 0B       		.uleb128 0xb
 8881 0223 3B       		.uleb128 0x3b
 8882 0224 05       		.uleb128 0x5
 8883 0225 49       		.uleb128 0x49
 8884 0226 13       		.uleb128 0x13
 8885 0227 1C       		.uleb128 0x1c
 8886 0228 0B       		.uleb128 0xb
 8887 0229 00       		.byte	0
 8888 022a 00       		.byte	0
 8889 022b 2B       		.uleb128 0x2b
 8890 022c 34       		.uleb128 0x34
 8891 022d 00       		.byte	0
 8892 022e 03       		.uleb128 0x3
 8893 022f 0E       		.uleb128 0xe
 8894 0230 3A       		.uleb128 0x3a
 8895 0231 0B       		.uleb128 0xb
 8896 0232 3B       		.uleb128 0x3b
 8897 0233 05       		.uleb128 0x5
 8898 0234 49       		.uleb128 0x49
 8899 0235 13       		.uleb128 0x13
 8900 0236 02       		.uleb128 0x2
 8901 0237 17       		.uleb128 0x17
 8902 0238 00       		.byte	0
 8903 0239 00       		.byte	0
 8904 023a 2C       		.uleb128 0x2c
 8905 023b 1D       		.uleb128 0x1d
 8906 023c 01       		.byte	0x1
 8907 023d 31       		.uleb128 0x31
 8908 023e 13       		.uleb128 0x13
 8909 023f 52       		.uleb128 0x52
 8910 0240 01       		.uleb128 0x1
 8911 0241 55       		.uleb128 0x55
 8912 0242 17       		.uleb128 0x17
ARM GAS  /var/folders/6q/x_mk5n_j3p7_c40r_2k_78980000gn/T//ccu43oO2.s 			page 158


 8913 0243 58       		.uleb128 0x58
 8914 0244 0B       		.uleb128 0xb
 8915 0245 59       		.uleb128 0x59
 8916 0246 05       		.uleb128 0x5
 8917 0247 01       		.uleb128 0x1
 8918 0248 13       		.uleb128 0x13
 8919 0249 00       		.byte	0
 8920 024a 00       		.byte	0
 8921 024b 2D       		.uleb128 0x2d
 8922 024c 05       		.uleb128 0x5
 8923 024d 00       		.byte	0
 8924 024e 31       		.uleb128 0x31
 8925 024f 13       		.uleb128 0x13
 8926 0250 02       		.uleb128 0x2
 8927 0251 17       		.uleb128 0x17
 8928 0252 00       		.byte	0
 8929 0253 00       		.byte	0
 8930 0254 2E       		.uleb128 0x2e
 8931 0255 898201   		.uleb128 0x4109
 8932 0258 01       		.byte	0x1
 8933 0259 11       		.uleb128 0x11
 8934 025a 01       		.uleb128 0x1
 8935 025b 31       		.uleb128 0x31
 8936 025c 13       		.uleb128 0x13
 8937 025d 01       		.uleb128 0x1
 8938 025e 13       		.uleb128 0x13
 8939 025f 00       		.byte	0
 8940 0260 00       		.byte	0
 8941 0261 2F       		.uleb128 0x2f
 8942 0262 8A8201   		.uleb128 0x410a
 8943 0265 00       		.byte	0
 8944 0266 02       		.uleb128 0x2
 8945 0267 18       		.uleb128 0x18
 8946 0268 9142     		.uleb128 0x2111
 8947 026a 18       		.uleb128 0x18
 8948 026b 00       		.byte	0
 8949 026c 00       		.byte	0
 8950 026d 30       		.uleb128 0x30
 8951 026e 898201   		.uleb128 0x4109
 8952 0271 00       		.byte	0
 8953 0272 11       		.uleb128 0x11
 8954 0273 01       		.uleb128 0x1
 8955 0274 31       		.uleb128 0x31
 8956 0275 13       		.uleb128 0x13
 8957 0276 00       		.byte	0
 8958 0277 00       		.byte	0
 8959 0278 31       		.uleb128 0x31
 8960 0279 898201   		.uleb128 0x4109
 8961 027c 01       		.byte	0x1
 8962 027d 11       		.uleb128 0x11
 8963 027e 01       		.uleb128 0x1
 8964 027f 31       		.uleb128 0x31
 8965 0280 13       		.uleb128 0x13
 8966 0281 00       		.byte	0
 8967 0282 00       		.byte	0
 8968 0283 32       		.uleb128 0x32
 8969 0284 2E       		.uleb128 0x2e
ARM GAS  /var/folders/6q/x_mk5n_j3p7_c40r_2k_78980000gn/T//ccu43oO2.s 			page 159


 8970 0285 01       		.byte	0x1
 8971 0286 3F       		.uleb128 0x3f
 8972 0287 19       		.uleb128 0x19
 8973 0288 03       		.uleb128 0x3
 8974 0289 0E       		.uleb128 0xe
 8975 028a 3A       		.uleb128 0x3a
 8976 028b 0B       		.uleb128 0xb
 8977 028c 3B       		.uleb128 0x3b
 8978 028d 0B       		.uleb128 0xb
 8979 028e 27       		.uleb128 0x27
 8980 028f 19       		.uleb128 0x19
 8981 0290 49       		.uleb128 0x49
 8982 0291 13       		.uleb128 0x13
 8983 0292 11       		.uleb128 0x11
 8984 0293 01       		.uleb128 0x1
 8985 0294 12       		.uleb128 0x12
 8986 0295 06       		.uleb128 0x6
 8987 0296 40       		.uleb128 0x40
 8988 0297 18       		.uleb128 0x18
 8989 0298 9742     		.uleb128 0x2117
 8990 029a 19       		.uleb128 0x19
 8991 029b 01       		.uleb128 0x1
 8992 029c 13       		.uleb128 0x13
 8993 029d 00       		.byte	0
 8994 029e 00       		.byte	0
 8995 029f 33       		.uleb128 0x33
 8996 02a0 05       		.uleb128 0x5
 8997 02a1 00       		.byte	0
 8998 02a2 03       		.uleb128 0x3
 8999 02a3 0E       		.uleb128 0xe
 9000 02a4 3A       		.uleb128 0x3a
 9001 02a5 0B       		.uleb128 0xb
 9002 02a6 3B       		.uleb128 0x3b
 9003 02a7 0B       		.uleb128 0xb
 9004 02a8 49       		.uleb128 0x49
 9005 02a9 13       		.uleb128 0x13
 9006 02aa 02       		.uleb128 0x2
 9007 02ab 17       		.uleb128 0x17
 9008 02ac 00       		.byte	0
 9009 02ad 00       		.byte	0
 9010 02ae 34       		.uleb128 0x34
 9011 02af 05       		.uleb128 0x5
 9012 02b0 00       		.byte	0
 9013 02b1 03       		.uleb128 0x3
 9014 02b2 08       		.uleb128 0x8
 9015 02b3 3A       		.uleb128 0x3a
 9016 02b4 0B       		.uleb128 0xb
 9017 02b5 3B       		.uleb128 0x3b
 9018 02b6 0B       		.uleb128 0xb
 9019 02b7 49       		.uleb128 0x49
 9020 02b8 13       		.uleb128 0x13
 9021 02b9 02       		.uleb128 0x2
 9022 02ba 18       		.uleb128 0x18
 9023 02bb 00       		.byte	0
 9024 02bc 00       		.byte	0
 9025 02bd 35       		.uleb128 0x35
 9026 02be 18       		.uleb128 0x18
ARM GAS  /var/folders/6q/x_mk5n_j3p7_c40r_2k_78980000gn/T//ccu43oO2.s 			page 160


 9027 02bf 00       		.byte	0
 9028 02c0 00       		.byte	0
 9029 02c1 00       		.byte	0
 9030 02c2 36       		.uleb128 0x36
 9031 02c3 2E       		.uleb128 0x2e
 9032 02c4 01       		.byte	0x1
 9033 02c5 3F       		.uleb128 0x3f
 9034 02c6 19       		.uleb128 0x19
 9035 02c7 03       		.uleb128 0x3
 9036 02c8 0E       		.uleb128 0xe
 9037 02c9 3A       		.uleb128 0x3a
 9038 02ca 0B       		.uleb128 0xb
 9039 02cb 3B       		.uleb128 0x3b
 9040 02cc 05       		.uleb128 0x5
 9041 02cd 27       		.uleb128 0x27
 9042 02ce 19       		.uleb128 0x19
 9043 02cf 11       		.uleb128 0x11
 9044 02d0 01       		.uleb128 0x1
 9045 02d1 12       		.uleb128 0x12
 9046 02d2 06       		.uleb128 0x6
 9047 02d3 40       		.uleb128 0x40
 9048 02d4 18       		.uleb128 0x18
 9049 02d5 9742     		.uleb128 0x2117
 9050 02d7 19       		.uleb128 0x19
 9051 02d8 01       		.uleb128 0x1
 9052 02d9 13       		.uleb128 0x13
 9053 02da 00       		.byte	0
 9054 02db 00       		.byte	0
 9055 02dc 37       		.uleb128 0x37
 9056 02dd 05       		.uleb128 0x5
 9057 02de 00       		.byte	0
 9058 02df 03       		.uleb128 0x3
 9059 02e0 0E       		.uleb128 0xe
 9060 02e1 3A       		.uleb128 0x3a
 9061 02e2 0B       		.uleb128 0xb
 9062 02e3 3B       		.uleb128 0x3b
 9063 02e4 05       		.uleb128 0x5
 9064 02e5 49       		.uleb128 0x49
 9065 02e6 13       		.uleb128 0x13
 9066 02e7 02       		.uleb128 0x2
 9067 02e8 17       		.uleb128 0x17
 9068 02e9 00       		.byte	0
 9069 02ea 00       		.byte	0
 9070 02eb 38       		.uleb128 0x38
 9071 02ec 05       		.uleb128 0x5
 9072 02ed 00       		.byte	0
 9073 02ee 03       		.uleb128 0x3
 9074 02ef 0E       		.uleb128 0xe
 9075 02f0 3A       		.uleb128 0x3a
 9076 02f1 0B       		.uleb128 0xb
 9077 02f2 3B       		.uleb128 0x3b
 9078 02f3 05       		.uleb128 0x5
 9079 02f4 49       		.uleb128 0x49
 9080 02f5 13       		.uleb128 0x13
 9081 02f6 02       		.uleb128 0x2
 9082 02f7 18       		.uleb128 0x18
 9083 02f8 00       		.byte	0
ARM GAS  /var/folders/6q/x_mk5n_j3p7_c40r_2k_78980000gn/T//ccu43oO2.s 			page 161


 9084 02f9 00       		.byte	0
 9085 02fa 39       		.uleb128 0x39
 9086 02fb 2E       		.uleb128 0x2e
 9087 02fc 01       		.byte	0x1
 9088 02fd 3F       		.uleb128 0x3f
 9089 02fe 19       		.uleb128 0x19
 9090 02ff 03       		.uleb128 0x3
 9091 0300 0E       		.uleb128 0xe
 9092 0301 3A       		.uleb128 0x3a
 9093 0302 0B       		.uleb128 0xb
 9094 0303 3B       		.uleb128 0x3b
 9095 0304 05       		.uleb128 0x5
 9096 0305 27       		.uleb128 0x27
 9097 0306 19       		.uleb128 0x19
 9098 0307 11       		.uleb128 0x11
 9099 0308 01       		.uleb128 0x1
 9100 0309 12       		.uleb128 0x12
 9101 030a 06       		.uleb128 0x6
 9102 030b 40       		.uleb128 0x40
 9103 030c 18       		.uleb128 0x18
 9104 030d 9642     		.uleb128 0x2116
 9105 030f 19       		.uleb128 0x19
 9106 0310 01       		.uleb128 0x1
 9107 0311 13       		.uleb128 0x13
 9108 0312 00       		.byte	0
 9109 0313 00       		.byte	0
 9110 0314 3A       		.uleb128 0x3a
 9111 0315 34       		.uleb128 0x34
 9112 0316 00       		.byte	0
 9113 0317 03       		.uleb128 0x3
 9114 0318 08       		.uleb128 0x8
 9115 0319 3A       		.uleb128 0x3a
 9116 031a 0B       		.uleb128 0xb
 9117 031b 3B       		.uleb128 0x3b
 9118 031c 05       		.uleb128 0x5
 9119 031d 49       		.uleb128 0x49
 9120 031e 13       		.uleb128 0x13
 9121 031f 02       		.uleb128 0x2
 9122 0320 17       		.uleb128 0x17
 9123 0321 00       		.byte	0
 9124 0322 00       		.byte	0
 9125 0323 3B       		.uleb128 0x3b
 9126 0324 2E       		.uleb128 0x2e
 9127 0325 01       		.byte	0x1
 9128 0326 3F       		.uleb128 0x3f
 9129 0327 19       		.uleb128 0x19
 9130 0328 03       		.uleb128 0x3
 9131 0329 0E       		.uleb128 0xe
 9132 032a 3A       		.uleb128 0x3a
 9133 032b 0B       		.uleb128 0xb
 9134 032c 3B       		.uleb128 0x3b
 9135 032d 05       		.uleb128 0x5
 9136 032e 27       		.uleb128 0x27
 9137 032f 19       		.uleb128 0x19
 9138 0330 49       		.uleb128 0x49
 9139 0331 13       		.uleb128 0x13
 9140 0332 11       		.uleb128 0x11
ARM GAS  /var/folders/6q/x_mk5n_j3p7_c40r_2k_78980000gn/T//ccu43oO2.s 			page 162


 9141 0333 01       		.uleb128 0x1
 9142 0334 12       		.uleb128 0x12
 9143 0335 06       		.uleb128 0x6
 9144 0336 40       		.uleb128 0x40
 9145 0337 18       		.uleb128 0x18
 9146 0338 9742     		.uleb128 0x2117
 9147 033a 19       		.uleb128 0x19
 9148 033b 01       		.uleb128 0x1
 9149 033c 13       		.uleb128 0x13
 9150 033d 00       		.byte	0
 9151 033e 00       		.byte	0
 9152 033f 3C       		.uleb128 0x3c
 9153 0340 2E       		.uleb128 0x2e
 9154 0341 00       		.byte	0
 9155 0342 3F       		.uleb128 0x3f
 9156 0343 19       		.uleb128 0x19
 9157 0344 03       		.uleb128 0x3
 9158 0345 0E       		.uleb128 0xe
 9159 0346 3A       		.uleb128 0x3a
 9160 0347 0B       		.uleb128 0xb
 9161 0348 3B       		.uleb128 0x3b
 9162 0349 05       		.uleb128 0x5
 9163 034a 27       		.uleb128 0x27
 9164 034b 19       		.uleb128 0x19
 9165 034c 11       		.uleb128 0x11
 9166 034d 01       		.uleb128 0x1
 9167 034e 12       		.uleb128 0x12
 9168 034f 06       		.uleb128 0x6
 9169 0350 40       		.uleb128 0x40
 9170 0351 18       		.uleb128 0x18
 9171 0352 9742     		.uleb128 0x2117
 9172 0354 19       		.uleb128 0x19
 9173 0355 00       		.byte	0
 9174 0356 00       		.byte	0
 9175 0357 3D       		.uleb128 0x3d
 9176 0358 2E       		.uleb128 0x2e
 9177 0359 00       		.byte	0
 9178 035a 31       		.uleb128 0x31
 9179 035b 13       		.uleb128 0x13
 9180 035c 11       		.uleb128 0x11
 9181 035d 01       		.uleb128 0x1
 9182 035e 12       		.uleb128 0x12
 9183 035f 06       		.uleb128 0x6
 9184 0360 40       		.uleb128 0x40
 9185 0361 18       		.uleb128 0x18
 9186 0362 9742     		.uleb128 0x2117
 9187 0364 19       		.uleb128 0x19
 9188 0365 00       		.byte	0
 9189 0366 00       		.byte	0
 9190 0367 3E       		.uleb128 0x3e
 9191 0368 898201   		.uleb128 0x4109
 9192 036b 01       		.byte	0x1
 9193 036c 11       		.uleb128 0x11
 9194 036d 01       		.uleb128 0x1
 9195 036e 9542     		.uleb128 0x2115
 9196 0370 19       		.uleb128 0x19
 9197 0371 31       		.uleb128 0x31
ARM GAS  /var/folders/6q/x_mk5n_j3p7_c40r_2k_78980000gn/T//ccu43oO2.s 			page 163


 9198 0372 13       		.uleb128 0x13
 9199 0373 00       		.byte	0
 9200 0374 00       		.byte	0
 9201 0375 3F       		.uleb128 0x3f
 9202 0376 1D       		.uleb128 0x1d
 9203 0377 00       		.byte	0
 9204 0378 31       		.uleb128 0x31
 9205 0379 13       		.uleb128 0x13
 9206 037a 52       		.uleb128 0x52
 9207 037b 01       		.uleb128 0x1
 9208 037c 55       		.uleb128 0x55
 9209 037d 17       		.uleb128 0x17
 9210 037e 58       		.uleb128 0x58
 9211 037f 0B       		.uleb128 0xb
 9212 0380 59       		.uleb128 0x59
 9213 0381 05       		.uleb128 0x5
 9214 0382 00       		.byte	0
 9215 0383 00       		.byte	0
 9216 0384 40       		.uleb128 0x40
 9217 0385 05       		.uleb128 0x5
 9218 0386 00       		.byte	0
 9219 0387 03       		.uleb128 0x3
 9220 0388 08       		.uleb128 0x8
 9221 0389 3A       		.uleb128 0x3a
 9222 038a 0B       		.uleb128 0xb
 9223 038b 3B       		.uleb128 0x3b
 9224 038c 05       		.uleb128 0x5
 9225 038d 49       		.uleb128 0x49
 9226 038e 13       		.uleb128 0x13
 9227 038f 02       		.uleb128 0x2
 9228 0390 18       		.uleb128 0x18
 9229 0391 00       		.byte	0
 9230 0392 00       		.byte	0
 9231 0393 41       		.uleb128 0x41
 9232 0394 34       		.uleb128 0x34
 9233 0395 00       		.byte	0
 9234 0396 03       		.uleb128 0x3
 9235 0397 0E       		.uleb128 0xe
 9236 0398 3A       		.uleb128 0x3a
 9237 0399 0B       		.uleb128 0xb
 9238 039a 3B       		.uleb128 0x3b
 9239 039b 05       		.uleb128 0x5
 9240 039c 49       		.uleb128 0x49
 9241 039d 13       		.uleb128 0x13
 9242 039e 02       		.uleb128 0x2
 9243 039f 18       		.uleb128 0x18
 9244 03a0 00       		.byte	0
 9245 03a1 00       		.byte	0
 9246 03a2 42       		.uleb128 0x42
 9247 03a3 1D       		.uleb128 0x1d
 9248 03a4 01       		.byte	0x1
 9249 03a5 31       		.uleb128 0x31
 9250 03a6 13       		.uleb128 0x13
 9251 03a7 52       		.uleb128 0x52
 9252 03a8 01       		.uleb128 0x1
 9253 03a9 55       		.uleb128 0x55
 9254 03aa 17       		.uleb128 0x17
ARM GAS  /var/folders/6q/x_mk5n_j3p7_c40r_2k_78980000gn/T//ccu43oO2.s 			page 164


 9255 03ab 58       		.uleb128 0x58
 9256 03ac 0B       		.uleb128 0xb
 9257 03ad 59       		.uleb128 0x59
 9258 03ae 0B       		.uleb128 0xb
 9259 03af 00       		.byte	0
 9260 03b0 00       		.byte	0
 9261 03b1 43       		.uleb128 0x43
 9262 03b2 0B       		.uleb128 0xb
 9263 03b3 01       		.byte	0x1
 9264 03b4 55       		.uleb128 0x55
 9265 03b5 17       		.uleb128 0x17
 9266 03b6 00       		.byte	0
 9267 03b7 00       		.byte	0
 9268 03b8 44       		.uleb128 0x44
 9269 03b9 34       		.uleb128 0x34
 9270 03ba 00       		.byte	0
 9271 03bb 31       		.uleb128 0x31
 9272 03bc 13       		.uleb128 0x13
 9273 03bd 02       		.uleb128 0x2
 9274 03be 17       		.uleb128 0x17
 9275 03bf 00       		.byte	0
 9276 03c0 00       		.byte	0
 9277 03c1 45       		.uleb128 0x45
 9278 03c2 34       		.uleb128 0x34
 9279 03c3 00       		.byte	0
 9280 03c4 31       		.uleb128 0x31
 9281 03c5 13       		.uleb128 0x13
 9282 03c6 02       		.uleb128 0x2
 9283 03c7 18       		.uleb128 0x18
 9284 03c8 00       		.byte	0
 9285 03c9 00       		.byte	0
 9286 03ca 46       		.uleb128 0x46
 9287 03cb 34       		.uleb128 0x34
 9288 03cc 00       		.byte	0
 9289 03cd 31       		.uleb128 0x31
 9290 03ce 13       		.uleb128 0x13
 9291 03cf 00       		.byte	0
 9292 03d0 00       		.byte	0
 9293 03d1 47       		.uleb128 0x47
 9294 03d2 2E       		.uleb128 0x2e
 9295 03d3 01       		.byte	0x1
 9296 03d4 31       		.uleb128 0x31
 9297 03d5 13       		.uleb128 0x13
 9298 03d6 11       		.uleb128 0x11
 9299 03d7 01       		.uleb128 0x1
 9300 03d8 12       		.uleb128 0x12
 9301 03d9 06       		.uleb128 0x6
 9302 03da 40       		.uleb128 0x40
 9303 03db 18       		.uleb128 0x18
 9304 03dc 9642     		.uleb128 0x2116
 9305 03de 19       		.uleb128 0x19
 9306 03df 01       		.uleb128 0x1
 9307 03e0 13       		.uleb128 0x13
 9308 03e1 00       		.byte	0
 9309 03e2 00       		.byte	0
 9310 03e3 48       		.uleb128 0x48
 9311 03e4 0B       		.uleb128 0xb
ARM GAS  /var/folders/6q/x_mk5n_j3p7_c40r_2k_78980000gn/T//ccu43oO2.s 			page 165


 9312 03e5 01       		.byte	0x1
 9313 03e6 11       		.uleb128 0x11
 9314 03e7 01       		.uleb128 0x1
 9315 03e8 12       		.uleb128 0x12
 9316 03e9 06       		.uleb128 0x6
 9317 03ea 00       		.byte	0
 9318 03eb 00       		.byte	0
 9319 03ec 49       		.uleb128 0x49
 9320 03ed 05       		.uleb128 0x5
 9321 03ee 00       		.byte	0
 9322 03ef 31       		.uleb128 0x31
 9323 03f0 13       		.uleb128 0x13
 9324 03f1 00       		.byte	0
 9325 03f2 00       		.byte	0
 9326 03f3 4A       		.uleb128 0x4a
 9327 03f4 2E       		.uleb128 0x2e
 9328 03f5 01       		.byte	0x1
 9329 03f6 03       		.uleb128 0x3
 9330 03f7 0E       		.uleb128 0xe
 9331 03f8 3A       		.uleb128 0x3a
 9332 03f9 0B       		.uleb128 0xb
 9333 03fa 3B       		.uleb128 0x3b
 9334 03fb 05       		.uleb128 0x5
 9335 03fc 27       		.uleb128 0x27
 9336 03fd 19       		.uleb128 0x19
 9337 03fe 20       		.uleb128 0x20
 9338 03ff 0B       		.uleb128 0xb
 9339 0400 01       		.uleb128 0x1
 9340 0401 13       		.uleb128 0x13
 9341 0402 00       		.byte	0
 9342 0403 00       		.byte	0
 9343 0404 4B       		.uleb128 0x4b
 9344 0405 0B       		.uleb128 0xb
 9345 0406 01       		.byte	0x1
 9346 0407 55       		.uleb128 0x55
 9347 0408 17       		.uleb128 0x17
 9348 0409 01       		.uleb128 0x1
 9349 040a 13       		.uleb128 0x13
 9350 040b 00       		.byte	0
 9351 040c 00       		.byte	0
 9352 040d 4C       		.uleb128 0x4c
 9353 040e 0B       		.uleb128 0xb
 9354 040f 01       		.byte	0x1
 9355 0410 11       		.uleb128 0x11
 9356 0411 01       		.uleb128 0x1
 9357 0412 12       		.uleb128 0x12
 9358 0413 06       		.uleb128 0x6
 9359 0414 01       		.uleb128 0x1
 9360 0415 13       		.uleb128 0x13
 9361 0416 00       		.byte	0
 9362 0417 00       		.byte	0
 9363 0418 4D       		.uleb128 0x4d
 9364 0419 1D       		.uleb128 0x1d
 9365 041a 01       		.byte	0x1
 9366 041b 31       		.uleb128 0x31
 9367 041c 13       		.uleb128 0x13
 9368 041d 11       		.uleb128 0x11
ARM GAS  /var/folders/6q/x_mk5n_j3p7_c40r_2k_78980000gn/T//ccu43oO2.s 			page 166


 9369 041e 01       		.uleb128 0x1
 9370 041f 12       		.uleb128 0x12
 9371 0420 06       		.uleb128 0x6
 9372 0421 58       		.uleb128 0x58
 9373 0422 0B       		.uleb128 0xb
 9374 0423 59       		.uleb128 0x59
 9375 0424 05       		.uleb128 0x5
 9376 0425 01       		.uleb128 0x1
 9377 0426 13       		.uleb128 0x13
 9378 0427 00       		.byte	0
 9379 0428 00       		.byte	0
 9380 0429 4E       		.uleb128 0x4e
 9381 042a 34       		.uleb128 0x34
 9382 042b 00       		.byte	0
 9383 042c 03       		.uleb128 0x3
 9384 042d 0E       		.uleb128 0xe
 9385 042e 3A       		.uleb128 0x3a
 9386 042f 0B       		.uleb128 0xb
 9387 0430 3B       		.uleb128 0x3b
 9388 0431 0B       		.uleb128 0xb
 9389 0432 49       		.uleb128 0x49
 9390 0433 13       		.uleb128 0x13
 9391 0434 02       		.uleb128 0x2
 9392 0435 18       		.uleb128 0x18
 9393 0436 00       		.byte	0
 9394 0437 00       		.byte	0
 9395 0438 4F       		.uleb128 0x4f
 9396 0439 34       		.uleb128 0x34
 9397 043a 00       		.byte	0
 9398 043b 03       		.uleb128 0x3
 9399 043c 0E       		.uleb128 0xe
 9400 043d 3A       		.uleb128 0x3a
 9401 043e 0B       		.uleb128 0xb
 9402 043f 3B       		.uleb128 0x3b
 9403 0440 0B       		.uleb128 0xb
 9404 0441 49       		.uleb128 0x49
 9405 0442 13       		.uleb128 0x13
 9406 0443 3F       		.uleb128 0x3f
 9407 0444 19       		.uleb128 0x19
 9408 0445 3C       		.uleb128 0x3c
 9409 0446 19       		.uleb128 0x19
 9410 0447 00       		.byte	0
 9411 0448 00       		.byte	0
 9412 0449 50       		.uleb128 0x50
 9413 044a 34       		.uleb128 0x34
 9414 044b 00       		.byte	0
 9415 044c 03       		.uleb128 0x3
 9416 044d 0E       		.uleb128 0xe
 9417 044e 3A       		.uleb128 0x3a
 9418 044f 0B       		.uleb128 0xb
 9419 0450 3B       		.uleb128 0x3b
 9420 0451 05       		.uleb128 0x5
 9421 0452 49       		.uleb128 0x49
 9422 0453 13       		.uleb128 0x13
 9423 0454 3F       		.uleb128 0x3f
 9424 0455 19       		.uleb128 0x19
 9425 0456 3C       		.uleb128 0x3c
ARM GAS  /var/folders/6q/x_mk5n_j3p7_c40r_2k_78980000gn/T//ccu43oO2.s 			page 167


 9426 0457 19       		.uleb128 0x19
 9427 0458 00       		.byte	0
 9428 0459 00       		.byte	0
 9429 045a 51       		.uleb128 0x51
 9430 045b 2E       		.uleb128 0x2e
 9431 045c 00       		.byte	0
 9432 045d 3F       		.uleb128 0x3f
 9433 045e 19       		.uleb128 0x19
 9434 045f 3C       		.uleb128 0x3c
 9435 0460 19       		.uleb128 0x19
 9436 0461 6E       		.uleb128 0x6e
 9437 0462 0E       		.uleb128 0xe
 9438 0463 03       		.uleb128 0x3
 9439 0464 0E       		.uleb128 0xe
 9440 0465 3A       		.uleb128 0x3a
 9441 0466 0B       		.uleb128 0xb
 9442 0467 3B       		.uleb128 0x3b
 9443 0468 0B       		.uleb128 0xb
 9444 0469 00       		.byte	0
 9445 046a 00       		.byte	0
 9446 046b 00       		.byte	0
 9447              		.section	.debug_loc,"",%progbits
 9448              	.Ldebug_loc0:
 9449              	.LLST0:
 9450 0000 00000000 		.4byte	.LVL0
 9451 0004 08000000 		.4byte	.LVL1
 9452 0008 0100     		.2byte	0x1
 9453 000a 50       		.byte	0x50
 9454 000b 08000000 		.4byte	.LVL1
 9455 000f 78010000 		.4byte	.LFE108
 9456 0013 0400     		.2byte	0x4
 9457 0015 F3       		.byte	0xf3
 9458 0016 01       		.uleb128 0x1
 9459 0017 50       		.byte	0x50
 9460 0018 9F       		.byte	0x9f
 9461 0019 00000000 		.4byte	0
 9462 001d 00000000 		.4byte	0
 9463              	.LLST1:
 9464 0021 0E000000 		.4byte	.LVL2
 9465 0025 18000000 		.4byte	.LVL3
 9466 0029 0200     		.2byte	0x2
 9467 002b 30       		.byte	0x30
 9468 002c 9F       		.byte	0x9f
 9469 002d 00000000 		.4byte	0
 9470 0031 00000000 		.4byte	0
 9471              	.LLST2:
 9472 0035 3E000000 		.4byte	.LVL4
 9473 0039 50000000 		.4byte	.LVL5
 9474 003d 0100     		.2byte	0x1
 9475 003f 50       		.byte	0x50
 9476 0040 50000000 		.4byte	.LVL5
 9477 0044 76000000 		.4byte	.LVL9
 9478 0048 0100     		.2byte	0x1
 9479 004a 54       		.byte	0x54
 9480 004b 86000000 		.4byte	.LVL11
 9481 004f AC000000 		.4byte	.LVL12
 9482 0053 0100     		.2byte	0x1
ARM GAS  /var/folders/6q/x_mk5n_j3p7_c40r_2k_78980000gn/T//ccu43oO2.s 			page 168


 9483 0055 50       		.byte	0x50
 9484 0056 AC000000 		.4byte	.LVL12
 9485 005a F2000000 		.4byte	.LVL23
 9486 005e 0100     		.2byte	0x1
 9487 0060 54       		.byte	0x54
 9488 0061 F2000000 		.4byte	.LVL23
 9489 0065 F4000000 		.4byte	.LVL24
 9490 0069 0600     		.2byte	0x6
 9491 006b 7A       		.byte	0x7a
 9492 006c 00       		.sleb128 0
 9493 006d 73       		.byte	0x73
 9494 006e 00       		.sleb128 0
 9495 006f 1C       		.byte	0x1c
 9496 0070 9F       		.byte	0x9f
 9497 0071 F4000000 		.4byte	.LVL24
 9498 0075 3A010000 		.4byte	.LVL32
 9499 0079 0100     		.2byte	0x1
 9500 007b 54       		.byte	0x54
 9501 007c 42010000 		.4byte	.LVL33
 9502 0080 78010000 		.4byte	.LFE108
 9503 0084 0100     		.2byte	0x1
 9504 0086 54       		.byte	0x54
 9505 0087 00000000 		.4byte	0
 9506 008b 00000000 		.4byte	0
 9507              	.LLST3:
 9508 008f B4000000 		.4byte	.LVL14
 9509 0093 B7000000 		.4byte	.LVL15-1
 9510 0097 0100     		.2byte	0x1
 9511 0099 50       		.byte	0x50
 9512 009a B7000000 		.4byte	.LVL15-1
 9513 009e CA000000 		.4byte	.LVL17
 9514 00a2 0100     		.2byte	0x1
 9515 00a4 5B       		.byte	0x5b
 9516 00a5 42010000 		.4byte	.LVL33
 9517 00a9 46010000 		.4byte	.LVL34
 9518 00ad 0100     		.2byte	0x1
 9519 00af 5B       		.byte	0x5b
 9520 00b0 00000000 		.4byte	0
 9521 00b4 00000000 		.4byte	0
 9522              	.LLST4:
 9523 00b8 D4000000 		.4byte	.LVL19
 9524 00bc D7000000 		.4byte	.LVL20-1
 9525 00c0 0100     		.2byte	0x1
 9526 00c2 50       		.byte	0x50
 9527 00c3 D7000000 		.4byte	.LVL20-1
 9528 00c7 DC000000 		.4byte	.LVL21
 9529 00cb 0200     		.2byte	0x2
 9530 00cd 91       		.byte	0x91
 9531 00ce 54       		.sleb128 -44
 9532 00cf FE000000 		.4byte	.LVL26
 9533 00d3 01010000 		.4byte	.LVL27-1
 9534 00d7 0100     		.2byte	0x1
 9535 00d9 50       		.byte	0x50
 9536 00da 01010000 		.4byte	.LVL27-1
 9537 00de 14010000 		.4byte	.LVL29
 9538 00e2 0100     		.2byte	0x1
 9539 00e4 5B       		.byte	0x5b
ARM GAS  /var/folders/6q/x_mk5n_j3p7_c40r_2k_78980000gn/T//ccu43oO2.s 			page 169


 9540 00e5 48010000 		.4byte	.LVL35
 9541 00e9 78010000 		.4byte	.LFE108
 9542 00ed 0200     		.2byte	0x2
 9543 00ef 91       		.byte	0x91
 9544 00f0 54       		.sleb128 -44
 9545 00f1 00000000 		.4byte	0
 9546 00f5 00000000 		.4byte	0
 9547              	.LLST5:
 9548 00f9 00000000 		.4byte	.LVL37
 9549 00fd 0C000000 		.4byte	.LVL38
 9550 0101 0100     		.2byte	0x1
 9551 0103 50       		.byte	0x50
 9552 0104 0C000000 		.4byte	.LVL38
 9553 0108 18000000 		.4byte	.LFE69
 9554 010c 0400     		.2byte	0x4
 9555 010e F3       		.byte	0xf3
 9556 010f 01       		.uleb128 0x1
 9557 0110 50       		.byte	0x50
 9558 0111 9F       		.byte	0x9f
 9559 0112 00000000 		.4byte	0
 9560 0116 00000000 		.4byte	0
 9561              	.LLST6:
 9562 011a 00000000 		.4byte	.LVL39
 9563 011e 0E000000 		.4byte	.LVL40
 9564 0122 0100     		.2byte	0x1
 9565 0124 50       		.byte	0x50
 9566 0125 0E000000 		.4byte	.LVL40
 9567 0129 18000000 		.4byte	.LFE70
 9568 012d 0400     		.2byte	0x4
 9569 012f F3       		.byte	0xf3
 9570 0130 01       		.uleb128 0x1
 9571 0131 50       		.byte	0x50
 9572 0132 9F       		.byte	0x9f
 9573 0133 00000000 		.4byte	0
 9574 0137 00000000 		.4byte	0
 9575              	.LLST7:
 9576 013b 00000000 		.4byte	.LVL41
 9577 013f 0C000000 		.4byte	.LVL42
 9578 0143 0100     		.2byte	0x1
 9579 0145 50       		.byte	0x50
 9580 0146 0C000000 		.4byte	.LVL42
 9581 014a 14000000 		.4byte	.LVL43
 9582 014e 0400     		.2byte	0x4
 9583 0150 F3       		.byte	0xf3
 9584 0151 01       		.uleb128 0x1
 9585 0152 50       		.byte	0x50
 9586 0153 9F       		.byte	0x9f
 9587 0154 14000000 		.4byte	.LVL43
 9588 0158 16000000 		.4byte	.LVL44
 9589 015c 0100     		.2byte	0x1
 9590 015e 50       		.byte	0x50
 9591 015f 16000000 		.4byte	.LVL44
 9592 0163 1C000000 		.4byte	.LFE71
 9593 0167 0100     		.2byte	0x1
 9594 0169 53       		.byte	0x53
 9595 016a 00000000 		.4byte	0
 9596 016e 00000000 		.4byte	0
ARM GAS  /var/folders/6q/x_mk5n_j3p7_c40r_2k_78980000gn/T//ccu43oO2.s 			page 170


 9597              	.LLST8:
 9598 0172 00000000 		.4byte	.LVL45
 9599 0176 12000000 		.4byte	.LVL46
 9600 017a 0100     		.2byte	0x1
 9601 017c 50       		.byte	0x50
 9602 017d 12000000 		.4byte	.LVL46
 9603 0181 20000000 		.4byte	.LVL47
 9604 0185 0400     		.2byte	0x4
 9605 0187 F3       		.byte	0xf3
 9606 0188 01       		.uleb128 0x1
 9607 0189 50       		.byte	0x50
 9608 018a 9F       		.byte	0x9f
 9609 018b 20000000 		.4byte	.LVL47
 9610 018f 26000000 		.4byte	.LVL48
 9611 0193 0100     		.2byte	0x1
 9612 0195 50       		.byte	0x50
 9613 0196 26000000 		.4byte	.LVL48
 9614 019a 30000000 		.4byte	.LVL49
 9615 019e 0400     		.2byte	0x4
 9616 01a0 F3       		.byte	0xf3
 9617 01a1 01       		.uleb128 0x1
 9618 01a2 50       		.byte	0x50
 9619 01a3 9F       		.byte	0x9f
 9620 01a4 30000000 		.4byte	.LVL49
 9621 01a8 32000000 		.4byte	.LVL50
 9622 01ac 0100     		.2byte	0x1
 9623 01ae 50       		.byte	0x50
 9624 01af 32000000 		.4byte	.LVL50
 9625 01b3 3C000000 		.4byte	.LFE72
 9626 01b7 0100     		.2byte	0x1
 9627 01b9 53       		.byte	0x53
 9628 01ba 00000000 		.4byte	0
 9629 01be 00000000 		.4byte	0
 9630              	.LLST9:
 9631 01c2 00000000 		.4byte	.LVL51
 9632 01c6 0C000000 		.4byte	.LVL52
 9633 01ca 0100     		.2byte	0x1
 9634 01cc 50       		.byte	0x50
 9635 01cd 0C000000 		.4byte	.LVL52
 9636 01d1 14000000 		.4byte	.LVL53
 9637 01d5 0400     		.2byte	0x4
 9638 01d7 F3       		.byte	0xf3
 9639 01d8 01       		.uleb128 0x1
 9640 01d9 50       		.byte	0x50
 9641 01da 9F       		.byte	0x9f
 9642 01db 14000000 		.4byte	.LVL53
 9643 01df 16000000 		.4byte	.LVL54
 9644 01e3 0100     		.2byte	0x1
 9645 01e5 50       		.byte	0x50
 9646 01e6 16000000 		.4byte	.LVL54
 9647 01ea 1C000000 		.4byte	.LFE73
 9648 01ee 0100     		.2byte	0x1
 9649 01f0 53       		.byte	0x53
 9650 01f1 00000000 		.4byte	0
 9651 01f5 00000000 		.4byte	0
 9652              	.LLST10:
 9653 01f9 00000000 		.4byte	.LVL55
ARM GAS  /var/folders/6q/x_mk5n_j3p7_c40r_2k_78980000gn/T//ccu43oO2.s 			page 171


 9654 01fd 0C000000 		.4byte	.LVL56
 9655 0201 0100     		.2byte	0x1
 9656 0203 50       		.byte	0x50
 9657 0204 0C000000 		.4byte	.LVL56
 9658 0208 16000000 		.4byte	.LVL57
 9659 020c 0400     		.2byte	0x4
 9660 020e F3       		.byte	0xf3
 9661 020f 01       		.uleb128 0x1
 9662 0210 50       		.byte	0x50
 9663 0211 9F       		.byte	0x9f
 9664 0212 16000000 		.4byte	.LVL57
 9665 0216 18000000 		.4byte	.LVL58
 9666 021a 0100     		.2byte	0x1
 9667 021c 50       		.byte	0x50
 9668 021d 18000000 		.4byte	.LVL58
 9669 0221 20000000 		.4byte	.LFE74
 9670 0225 0100     		.2byte	0x1
 9671 0227 53       		.byte	0x53
 9672 0228 00000000 		.4byte	0
 9673 022c 00000000 		.4byte	0
 9674              	.LLST11:
 9675 0230 00000000 		.4byte	.LVL59
 9676 0234 0E000000 		.4byte	.LVL60
 9677 0238 0100     		.2byte	0x1
 9678 023a 50       		.byte	0x50
 9679 023b 0E000000 		.4byte	.LVL60
 9680 023f 20000000 		.4byte	.LFE75
 9681 0243 0400     		.2byte	0x4
 9682 0245 F3       		.byte	0xf3
 9683 0246 01       		.uleb128 0x1
 9684 0247 50       		.byte	0x50
 9685 0248 9F       		.byte	0x9f
 9686 0249 00000000 		.4byte	0
 9687 024d 00000000 		.4byte	0
 9688              	.LLST12:
 9689 0251 00000000 		.4byte	.LVL61
 9690 0255 0C000000 		.4byte	.LVL63
 9691 0259 0100     		.2byte	0x1
 9692 025b 50       		.byte	0x50
 9693 025c 0C000000 		.4byte	.LVL63
 9694 0260 0F000000 		.4byte	.LVL64-1
 9695 0264 0100     		.2byte	0x1
 9696 0266 53       		.byte	0x53
 9697 0267 0F000000 		.4byte	.LVL64-1
 9698 026b 74000000 		.4byte	.LFE76
 9699 026f 0400     		.2byte	0x4
 9700 0271 F3       		.byte	0xf3
 9701 0272 01       		.uleb128 0x1
 9702 0273 50       		.byte	0x50
 9703 0274 9F       		.byte	0x9f
 9704 0275 00000000 		.4byte	0
 9705 0279 00000000 		.4byte	0
 9706              	.LLST13:
 9707 027d 00000000 		.4byte	.LVL61
 9708 0281 0F000000 		.4byte	.LVL64-1
 9709 0285 0100     		.2byte	0x1
 9710 0287 51       		.byte	0x51
ARM GAS  /var/folders/6q/x_mk5n_j3p7_c40r_2k_78980000gn/T//ccu43oO2.s 			page 172


 9711 0288 0F000000 		.4byte	.LVL64-1
 9712 028c 74000000 		.4byte	.LFE76
 9713 0290 0400     		.2byte	0x4
 9714 0292 F3       		.byte	0xf3
 9715 0293 01       		.uleb128 0x1
 9716 0294 51       		.byte	0x51
 9717 0295 9F       		.byte	0x9f
 9718 0296 00000000 		.4byte	0
 9719 029a 00000000 		.4byte	0
 9720              	.LLST14:
 9721 029e 0A000000 		.4byte	.LVL62
 9722 02a2 0C000000 		.4byte	.LVL63
 9723 02a6 0C00     		.2byte	0xc
 9724 02a8 70       		.byte	0x70
 9725 02a9 00       		.sleb128 0
 9726 02aa 08       		.byte	0x8
 9727 02ab 7C       		.byte	0x7c
 9728 02ac 1E       		.byte	0x1e
 9729 02ad 03       		.byte	0x3
 9730 02ae 00000000 		.4byte	sMotors
 9731 02b2 22       		.byte	0x22
 9732 02b3 9F       		.byte	0x9f
 9733 02b4 0C000000 		.4byte	.LVL63
 9734 02b8 1C000000 		.4byte	.LVL65
 9735 02bc 0C00     		.2byte	0xc
 9736 02be 74       		.byte	0x74
 9737 02bf 00       		.sleb128 0
 9738 02c0 08       		.byte	0x8
 9739 02c1 7C       		.byte	0x7c
 9740 02c2 1E       		.byte	0x1e
 9741 02c3 03       		.byte	0x3
 9742 02c4 00000000 		.4byte	sMotors
 9743 02c8 22       		.byte	0x22
 9744 02c9 9F       		.byte	0x9f
 9745 02ca 00000000 		.4byte	0
 9746 02ce 00000000 		.4byte	0
 9747              	.LLST15:
 9748 02d2 00000000 		.4byte	.LVL74
 9749 02d6 10000000 		.4byte	.LVL75
 9750 02da 0100     		.2byte	0x1
 9751 02dc 50       		.byte	0x50
 9752 02dd 10000000 		.4byte	.LVL75
 9753 02e1 1C000000 		.4byte	.LFE77
 9754 02e5 0400     		.2byte	0x4
 9755 02e7 F3       		.byte	0xf3
 9756 02e8 01       		.uleb128 0x1
 9757 02e9 50       		.byte	0x50
 9758 02ea 9F       		.byte	0x9f
 9759 02eb 00000000 		.4byte	0
 9760 02ef 00000000 		.4byte	0
 9761              	.LLST16:
 9762 02f3 00000000 		.4byte	.LVL76
 9763 02f7 0E000000 		.4byte	.LVL77
 9764 02fb 0100     		.2byte	0x1
 9765 02fd 50       		.byte	0x50
 9766 02fe 0E000000 		.4byte	.LVL77
 9767 0302 12000000 		.4byte	.LVL78
ARM GAS  /var/folders/6q/x_mk5n_j3p7_c40r_2k_78980000gn/T//ccu43oO2.s 			page 173


 9768 0306 0400     		.2byte	0x4
 9769 0308 F3       		.byte	0xf3
 9770 0309 01       		.uleb128 0x1
 9771 030a 50       		.byte	0x50
 9772 030b 9F       		.byte	0x9f
 9773 030c 12000000 		.4byte	.LVL78
 9774 0310 14000000 		.4byte	.LVL79
 9775 0314 0100     		.2byte	0x1
 9776 0316 50       		.byte	0x50
 9777 0317 14000000 		.4byte	.LVL79
 9778 031b 1C000000 		.4byte	.LFE78
 9779 031f 0100     		.2byte	0x1
 9780 0321 53       		.byte	0x53
 9781 0322 00000000 		.4byte	0
 9782 0326 00000000 		.4byte	0
 9783              	.LLST17:
 9784 032a 00000000 		.4byte	.LVL80
 9785 032e 0E000000 		.4byte	.LVL81
 9786 0332 0100     		.2byte	0x1
 9787 0334 50       		.byte	0x50
 9788 0335 0E000000 		.4byte	.LVL81
 9789 0339 12000000 		.4byte	.LVL82
 9790 033d 0400     		.2byte	0x4
 9791 033f F3       		.byte	0xf3
 9792 0340 01       		.uleb128 0x1
 9793 0341 50       		.byte	0x50
 9794 0342 9F       		.byte	0x9f
 9795 0343 12000000 		.4byte	.LVL82
 9796 0347 14000000 		.4byte	.LVL83
 9797 034b 0100     		.2byte	0x1
 9798 034d 50       		.byte	0x50
 9799 034e 14000000 		.4byte	.LVL83
 9800 0352 1C000000 		.4byte	.LFE79
 9801 0356 0100     		.2byte	0x1
 9802 0358 53       		.byte	0x53
 9803 0359 00000000 		.4byte	0
 9804 035d 00000000 		.4byte	0
 9805              	.LLST18:
 9806 0361 00000000 		.4byte	.LVL84
 9807 0365 12000000 		.4byte	.LVL85
 9808 0369 0100     		.2byte	0x1
 9809 036b 50       		.byte	0x50
 9810 036c 12000000 		.4byte	.LVL85
 9811 0370 1C000000 		.4byte	.LFE80
 9812 0374 0400     		.2byte	0x4
 9813 0376 F3       		.byte	0xf3
 9814 0377 01       		.uleb128 0x1
 9815 0378 50       		.byte	0x50
 9816 0379 9F       		.byte	0x9f
 9817 037a 00000000 		.4byte	0
 9818 037e 00000000 		.4byte	0
 9819              	.LLST19:
 9820 0382 48000000 		.4byte	.LVL99
 9821 0386 4C000000 		.4byte	.LVL100
 9822 038a 0200     		.2byte	0x2
 9823 038c 30       		.byte	0x30
 9824 038d 9F       		.byte	0x9f
ARM GAS  /var/folders/6q/x_mk5n_j3p7_c40r_2k_78980000gn/T//ccu43oO2.s 			page 174


 9825 038e 00000000 		.4byte	0
 9826 0392 00000000 		.4byte	0
 9827              	.LLST20:
 9828 0396 00000000 		.4byte	.LVL91
 9829 039a 06000000 		.4byte	.LVL92
 9830 039e 0200     		.2byte	0x2
 9831 03a0 30       		.byte	0x30
 9832 03a1 9F       		.byte	0x9f
 9833 03a2 06000000 		.4byte	.LVL92
 9834 03a6 9A000000 		.4byte	.LVL109
 9835 03aa 0100     		.2byte	0x1
 9836 03ac 57       		.byte	0x57
 9837 03ad AA000000 		.4byte	.LVL111
 9838 03b1 D8000000 		.4byte	.LFE88
 9839 03b5 0100     		.2byte	0x1
 9840 03b7 57       		.byte	0x57
 9841 03b8 00000000 		.4byte	0
 9842 03bc 00000000 		.4byte	0
 9843              	.LLST21:
 9844 03c0 50000000 		.4byte	.LVL101
 9845 03c4 AA000000 		.4byte	.LVL111
 9846 03c8 0100     		.2byte	0x1
 9847 03ca 54       		.byte	0x54
 9848 03cb 00000000 		.4byte	0
 9849 03cf 00000000 		.4byte	0
 9850              	.LLST22:
 9851 03d3 06000000 		.4byte	.LVL92
 9852 03d7 18000000 		.4byte	.LVL93
 9853 03db 0C00     		.2byte	0xc
 9854 03dd 77       		.byte	0x77
 9855 03de 00       		.sleb128 0
 9856 03df 08       		.byte	0x8
 9857 03e0 34       		.byte	0x34
 9858 03e1 1E       		.byte	0x1e
 9859 03e2 03       		.byte	0x3
 9860 03e3 00000000 		.4byte	sPorts
 9861 03e7 22       		.byte	0x22
 9862 03e8 9F       		.byte	0x9f
 9863 03e9 AA000000 		.4byte	.LVL111
 9864 03ed D8000000 		.4byte	.LFE88
 9865 03f1 0C00     		.2byte	0xc
 9866 03f3 77       		.byte	0x77
 9867 03f4 00       		.sleb128 0
 9868 03f5 08       		.byte	0x8
 9869 03f6 34       		.byte	0x34
 9870 03f7 1E       		.byte	0x1e
 9871 03f8 03       		.byte	0x3
 9872 03f9 00000000 		.4byte	sPorts
 9873 03fd 22       		.byte	0x22
 9874 03fe 9F       		.byte	0x9f
 9875 03ff 00000000 		.4byte	0
 9876 0403 00000000 		.4byte	0
 9877              	.LLST23:
 9878 0407 00000000 		.4byte	.LVL113
 9879 040b 24000000 		.4byte	.LVL116
 9880 040f 0100     		.2byte	0x1
 9881 0411 50       		.byte	0x50
ARM GAS  /var/folders/6q/x_mk5n_j3p7_c40r_2k_78980000gn/T//ccu43oO2.s 			page 175


 9882 0412 24000000 		.4byte	.LVL116
 9883 0416 30000000 		.4byte	.LVL118
 9884 041a 0400     		.2byte	0x4
 9885 041c F3       		.byte	0xf3
 9886 041d 01       		.uleb128 0x1
 9887 041e 50       		.byte	0x50
 9888 041f 9F       		.byte	0x9f
 9889 0420 30000000 		.4byte	.LVL118
 9890 0424 6C000000 		.4byte	.LFE89
 9891 0428 0100     		.2byte	0x1
 9892 042a 50       		.byte	0x50
 9893 042b 00000000 		.4byte	0
 9894 042f 00000000 		.4byte	0
 9895              	.LLST24:
 9896 0433 00000000 		.4byte	.LVL113
 9897 0437 22000000 		.4byte	.LVL115
 9898 043b 0100     		.2byte	0x1
 9899 043d 51       		.byte	0x51
 9900 043e 22000000 		.4byte	.LVL115
 9901 0442 30000000 		.4byte	.LVL118
 9902 0446 0400     		.2byte	0x4
 9903 0448 F3       		.byte	0xf3
 9904 0449 01       		.uleb128 0x1
 9905 044a 51       		.byte	0x51
 9906 044b 9F       		.byte	0x9f
 9907 044c 30000000 		.4byte	.LVL118
 9908 0450 6C000000 		.4byte	.LFE89
 9909 0454 0100     		.2byte	0x1
 9910 0456 51       		.byte	0x51
 9911 0457 00000000 		.4byte	0
 9912 045b 00000000 		.4byte	0
 9913              	.LLST25:
 9914 045f 0C000000 		.4byte	.LVL114
 9915 0463 24000000 		.4byte	.LVL116
 9916 0467 0C00     		.2byte	0xc
 9917 0469 70       		.byte	0x70
 9918 046a 00       		.sleb128 0
 9919 046b 08       		.byte	0x8
 9920 046c 7C       		.byte	0x7c
 9921 046d 1E       		.byte	0x1e
 9922 046e 03       		.byte	0x3
 9923 046f 00000000 		.4byte	sMotors
 9924 0473 22       		.byte	0x22
 9925 0474 9F       		.byte	0x9f
 9926 0475 24000000 		.4byte	.LVL116
 9927 0479 28000000 		.4byte	.LVL117
 9928 047d 0D00     		.2byte	0xd
 9929 047f F3       		.byte	0xf3
 9930 0480 01       		.uleb128 0x1
 9931 0481 50       		.byte	0x50
 9932 0482 08       		.byte	0x8
 9933 0483 7C       		.byte	0x7c
 9934 0484 1E       		.byte	0x1e
 9935 0485 03       		.byte	0x3
 9936 0486 00000000 		.4byte	sMotors
 9937 048a 22       		.byte	0x22
 9938 048b 9F       		.byte	0x9f
ARM GAS  /var/folders/6q/x_mk5n_j3p7_c40r_2k_78980000gn/T//ccu43oO2.s 			page 176


 9939 048c 30000000 		.4byte	.LVL118
 9940 0490 6C000000 		.4byte	.LFE89
 9941 0494 0C00     		.2byte	0xc
 9942 0496 70       		.byte	0x70
 9943 0497 00       		.sleb128 0
 9944 0498 08       		.byte	0x8
 9945 0499 7C       		.byte	0x7c
 9946 049a 1E       		.byte	0x1e
 9947 049b 03       		.byte	0x3
 9948 049c 00000000 		.4byte	sMotors
 9949 04a0 22       		.byte	0x22
 9950 04a1 9F       		.byte	0x9f
 9951 04a2 00000000 		.4byte	0
 9952 04a6 00000000 		.4byte	0
 9953              	.LLST26:
 9954 04aa 22000000 		.4byte	.LVL120
 9955 04ae 24000000 		.4byte	.LVL121
 9956 04b2 0200     		.2byte	0x2
 9957 04b4 30       		.byte	0x30
 9958 04b5 9F       		.byte	0x9f
 9959 04b6 24000000 		.4byte	.LVL121
 9960 04ba 26000000 		.4byte	.LVL122
 9961 04be 0200     		.2byte	0x2
 9962 04c0 31       		.byte	0x31
 9963 04c1 9F       		.byte	0x9f
 9964 04c2 26000000 		.4byte	.LVL122
 9965 04c6 28000000 		.4byte	.LVL123
 9966 04ca 0200     		.2byte	0x2
 9967 04cc 32       		.byte	0x32
 9968 04cd 9F       		.byte	0x9f
 9969 04ce 28000000 		.4byte	.LVL123
 9970 04d2 2A000000 		.4byte	.LVL124
 9971 04d6 0200     		.2byte	0x2
 9972 04d8 33       		.byte	0x33
 9973 04d9 9F       		.byte	0x9f
 9974 04da 2A000000 		.4byte	.LVL124
 9975 04de 2C000000 		.4byte	.LVL125
 9976 04e2 0200     		.2byte	0x2
 9977 04e4 34       		.byte	0x34
 9978 04e5 9F       		.byte	0x9f
 9979 04e6 2C000000 		.4byte	.LVL125
 9980 04ea C2000000 		.4byte	.LVL136
 9981 04ee 0200     		.2byte	0x2
 9982 04f0 35       		.byte	0x35
 9983 04f1 9F       		.byte	0x9f
 9984 04f2 C2000000 		.4byte	.LVL136
 9985 04f6 C4000000 		.4byte	.LVL137
 9986 04fa 0200     		.2byte	0x2
 9987 04fc 30       		.byte	0x30
 9988 04fd 9F       		.byte	0x9f
 9989 04fe C4000000 		.4byte	.LVL137
 9990 0502 F8020000 		.4byte	.LFE90
 9991 0506 0100     		.2byte	0x1
 9992 0508 55       		.byte	0x55
 9993 0509 00000000 		.4byte	0
 9994 050d 00000000 		.4byte	0
 9995              	.LLST27:
ARM GAS  /var/folders/6q/x_mk5n_j3p7_c40r_2k_78980000gn/T//ccu43oO2.s 			page 177


 9996 0511 00000000 		.4byte	.LVL119
 9997 0515 22000000 		.4byte	.LVL120
 9998 0519 0200     		.2byte	0x2
 9999 051b 30       		.byte	0x30
 10000 051c 9F       		.byte	0x9f
 10001 051d 00000000 		.4byte	0
 10002 0521 00000000 		.4byte	0
 10003              	.LLST28:
 10004 0525 C4000000 		.4byte	.LVL137
 10005 0529 AA010000 		.4byte	.LVL142
 10006 052d 0C00     		.2byte	0xc
 10007 052f 75       		.byte	0x75
 10008 0530 00       		.sleb128 0
 10009 0531 08       		.byte	0x8
 10010 0532 7C       		.byte	0x7c
 10011 0533 1E       		.byte	0x1e
 10012 0534 03       		.byte	0x3
 10013 0535 00000000 		.4byte	sMotors
 10014 0539 22       		.byte	0x22
 10015 053a 9F       		.byte	0x9f
 10016 053b AA010000 		.4byte	.LVL142
 10017 053f C2010000 		.4byte	.LVL143
 10018 0543 0C00     		.2byte	0xc
 10019 0545 75       		.byte	0x75
 10020 0546 7F       		.sleb128 -1
 10021 0547 08       		.byte	0x8
 10022 0548 7C       		.byte	0x7c
 10023 0549 1E       		.byte	0x1e
 10024 054a 03       		.byte	0x3
 10025 054b 00000000 		.4byte	sMotors
 10026 054f 22       		.byte	0x22
 10027 0550 9F       		.byte	0x9f
 10028 0551 C2010000 		.4byte	.LVL143
 10029 0555 F8020000 		.4byte	.LFE90
 10030 0559 0C00     		.2byte	0xc
 10031 055b 75       		.byte	0x75
 10032 055c 00       		.sleb128 0
 10033 055d 08       		.byte	0x8
 10034 055e 7C       		.byte	0x7c
 10035 055f 1E       		.byte	0x1e
 10036 0560 03       		.byte	0x3
 10037 0561 00000000 		.4byte	sMotors
 10038 0565 22       		.byte	0x22
 10039 0566 9F       		.byte	0x9f
 10040 0567 00000000 		.4byte	0
 10041 056b 00000000 		.4byte	0
 10042              	.LLST29:
 10043 056f 00000000 		.4byte	.LVL144
 10044 0573 10000000 		.4byte	.LVL146
 10045 0577 0100     		.2byte	0x1
 10046 0579 50       		.byte	0x50
 10047 057a 10000000 		.4byte	.LVL146
 10048 057e 44000000 		.4byte	.LFE91
 10049 0582 0400     		.2byte	0x4
 10050 0584 F3       		.byte	0xf3
 10051 0585 01       		.uleb128 0x1
 10052 0586 50       		.byte	0x50
ARM GAS  /var/folders/6q/x_mk5n_j3p7_c40r_2k_78980000gn/T//ccu43oO2.s 			page 178


 10053 0587 9F       		.byte	0x9f
 10054 0588 00000000 		.4byte	0
 10055 058c 00000000 		.4byte	0
 10056              	.LLST30:
 10057 0590 00000000 		.4byte	.LVL144
 10058 0594 2A000000 		.4byte	.LVL147
 10059 0598 0100     		.2byte	0x1
 10060 059a 51       		.byte	0x51
 10061 059b 2A000000 		.4byte	.LVL147
 10062 059f 44000000 		.4byte	.LFE91
 10063 05a3 0400     		.2byte	0x4
 10064 05a5 F3       		.byte	0xf3
 10065 05a6 01       		.uleb128 0x1
 10066 05a7 51       		.byte	0x51
 10067 05a8 9F       		.byte	0x9f
 10068 05a9 00000000 		.4byte	0
 10069 05ad 00000000 		.4byte	0
 10070              	.LLST31:
 10071 05b1 0C000000 		.4byte	.LVL145
 10072 05b5 10000000 		.4byte	.LVL146
 10073 05b9 0C00     		.2byte	0xc
 10074 05bb 70       		.byte	0x70
 10075 05bc 00       		.sleb128 0
 10076 05bd 08       		.byte	0x8
 10077 05be 7C       		.byte	0x7c
 10078 05bf 1E       		.byte	0x1e
 10079 05c0 03       		.byte	0x3
 10080 05c1 00000000 		.4byte	sMotors
 10081 05c5 22       		.byte	0x22
 10082 05c6 9F       		.byte	0x9f
 10083 05c7 00000000 		.4byte	0
 10084 05cb 00000000 		.4byte	0
 10085              	.LLST32:
 10086 05cf 0C000000 		.4byte	.LVL145
 10087 05d3 2A000000 		.4byte	.LVL147
 10088 05d7 0C00     		.2byte	0xc
 10089 05d9 71       		.byte	0x71
 10090 05da 00       		.sleb128 0
 10091 05db 08       		.byte	0x8
 10092 05dc 7C       		.byte	0x7c
 10093 05dd 1E       		.byte	0x1e
 10094 05de 03       		.byte	0x3
 10095 05df 00000000 		.4byte	sMotors
 10096 05e3 22       		.byte	0x22
 10097 05e4 9F       		.byte	0x9f
 10098 05e5 00000000 		.4byte	0
 10099 05e9 00000000 		.4byte	0
 10100              	.LLST33:
 10101 05ed 00000000 		.4byte	.LVL148
 10102 05f1 0E000000 		.4byte	.LVL150
 10103 05f5 0100     		.2byte	0x1
 10104 05f7 50       		.byte	0x50
 10105 05f8 0E000000 		.4byte	.LVL150
 10106 05fc 14000000 		.4byte	.LVL151
 10107 0600 0100     		.2byte	0x1
 10108 0602 53       		.byte	0x53
 10109 0603 14000000 		.4byte	.LVL151
ARM GAS  /var/folders/6q/x_mk5n_j3p7_c40r_2k_78980000gn/T//ccu43oO2.s 			page 179


 10110 0607 22000000 		.4byte	.LVL153
 10111 060b 0400     		.2byte	0x4
 10112 060d F3       		.byte	0xf3
 10113 060e 01       		.uleb128 0x1
 10114 060f 50       		.byte	0x50
 10115 0610 9F       		.byte	0x9f
 10116 0611 22000000 		.4byte	.LVL153
 10117 0615 28000000 		.4byte	.LFE92
 10118 0619 0100     		.2byte	0x1
 10119 061b 50       		.byte	0x50
 10120 061c 00000000 		.4byte	0
 10121 0620 00000000 		.4byte	0
 10122              	.LLST34:
 10123 0624 00000000 		.4byte	.LVL148
 10124 0628 1D000000 		.4byte	.LVL152-1
 10125 062c 0100     		.2byte	0x1
 10126 062e 51       		.byte	0x51
 10127 062f 1D000000 		.4byte	.LVL152-1
 10128 0633 22000000 		.4byte	.LVL153
 10129 0637 0600     		.2byte	0x6
 10130 0639 F3       		.byte	0xf3
 10131 063a 03       		.uleb128 0x3
 10132 063b F5       		.byte	0xf5
 10133 063c 01       		.uleb128 0x1
 10134 063d 25       		.uleb128 0x25
 10135 063e 9F       		.byte	0x9f
 10136 063f 22000000 		.4byte	.LVL153
 10137 0643 28000000 		.4byte	.LFE92
 10138 0647 0100     		.2byte	0x1
 10139 0649 51       		.byte	0x51
 10140 064a 00000000 		.4byte	0
 10141 064e 00000000 		.4byte	0
 10142              	.LLST35:
 10143 0652 06000000 		.4byte	.LVL149
 10144 0656 0E000000 		.4byte	.LVL150
 10145 065a 0C00     		.2byte	0xc
 10146 065c 70       		.byte	0x70
 10147 065d 00       		.sleb128 0
 10148 065e 08       		.byte	0x8
 10149 065f 7C       		.byte	0x7c
 10150 0660 1E       		.byte	0x1e
 10151 0661 03       		.byte	0x3
 10152 0662 00000000 		.4byte	sMotors
 10153 0666 22       		.byte	0x22
 10154 0667 9F       		.byte	0x9f
 10155 0668 00000000 		.4byte	0
 10156 066c 00000000 		.4byte	0
 10157              	.LLST36:
 10158 0670 00000000 		.4byte	.LVL154
 10159 0674 1C000000 		.4byte	.LVL155
 10160 0678 0200     		.2byte	0x2
 10161 067a 30       		.byte	0x30
 10162 067b 9F       		.byte	0x9f
 10163 067c 1C000000 		.4byte	.LVL155
 10164 0680 74000000 		.4byte	.LFE93
 10165 0684 0100     		.2byte	0x1
 10166 0686 53       		.byte	0x53
ARM GAS  /var/folders/6q/x_mk5n_j3p7_c40r_2k_78980000gn/T//ccu43oO2.s 			page 180


 10167 0687 00000000 		.4byte	0
 10168 068b 00000000 		.4byte	0
 10169              	.LLST37:
 10170 068f 00000000 		.4byte	.LVL154
 10171 0693 1C000000 		.4byte	.LVL155
 10172 0697 0200     		.2byte	0x2
 10173 0699 30       		.byte	0x30
 10174 069a 9F       		.byte	0x9f
 10175 069b 1C000000 		.4byte	.LVL155
 10176 069f 4A000000 		.4byte	.LVL157
 10177 06a3 0100     		.2byte	0x1
 10178 06a5 57       		.byte	0x57
 10179 06a6 4E000000 		.4byte	.LVL158
 10180 06aa 74000000 		.4byte	.LFE93
 10181 06ae 0100     		.2byte	0x1
 10182 06b0 57       		.byte	0x57
 10183 06b1 00000000 		.4byte	0
 10184 06b5 00000000 		.4byte	0
 10185              	.LLST38:
 10186 06b9 1C000000 		.4byte	.LVL155
 10187 06bd 3A000000 		.4byte	.LVL156
 10188 06c1 0C00     		.2byte	0xc
 10189 06c3 73       		.byte	0x73
 10190 06c4 00       		.sleb128 0
 10191 06c5 08       		.byte	0x8
 10192 06c6 7C       		.byte	0x7c
 10193 06c7 1E       		.byte	0x1e
 10194 06c8 03       		.byte	0x3
 10195 06c9 00000000 		.4byte	sMotors
 10196 06cd 22       		.byte	0x22
 10197 06ce 9F       		.byte	0x9f
 10198 06cf 3A000000 		.4byte	.LVL156
 10199 06d3 4E000000 		.4byte	.LVL158
 10200 06d7 0C00     		.2byte	0xc
 10201 06d9 73       		.byte	0x73
 10202 06da 7F       		.sleb128 -1
 10203 06db 08       		.byte	0x8
 10204 06dc 7C       		.byte	0x7c
 10205 06dd 1E       		.byte	0x1e
 10206 06de 03       		.byte	0x3
 10207 06df 00000000 		.4byte	sMotors
 10208 06e3 22       		.byte	0x22
 10209 06e4 9F       		.byte	0x9f
 10210 06e5 4E000000 		.4byte	.LVL158
 10211 06e9 74000000 		.4byte	.LFE93
 10212 06ed 0C00     		.2byte	0xc
 10213 06ef 73       		.byte	0x73
 10214 06f0 00       		.sleb128 0
 10215 06f1 08       		.byte	0x8
 10216 06f2 7C       		.byte	0x7c
 10217 06f3 1E       		.byte	0x1e
 10218 06f4 03       		.byte	0x3
 10219 06f5 00000000 		.4byte	sMotors
 10220 06f9 22       		.byte	0x22
 10221 06fa 9F       		.byte	0x9f
 10222 06fb 00000000 		.4byte	0
 10223 06ff 00000000 		.4byte	0
ARM GAS  /var/folders/6q/x_mk5n_j3p7_c40r_2k_78980000gn/T//ccu43oO2.s 			page 181


 10224              	.LLST39:
 10225 0703 00000000 		.4byte	.LVL160
 10226 0707 1A000000 		.4byte	.LVL162
 10227 070b 0100     		.2byte	0x1
 10228 070d 50       		.byte	0x50
 10229 070e 1A000000 		.4byte	.LVL162
 10230 0712 38000000 		.4byte	.LFE94
 10231 0716 0400     		.2byte	0x4
 10232 0718 F3       		.byte	0xf3
 10233 0719 01       		.uleb128 0x1
 10234 071a 50       		.byte	0x50
 10235 071b 9F       		.byte	0x9f
 10236 071c 00000000 		.4byte	0
 10237 0720 00000000 		.4byte	0
 10238              	.LLST40:
 10239 0724 00000000 		.4byte	.LVL160
 10240 0728 1E000000 		.4byte	.LVL163
 10241 072c 0100     		.2byte	0x1
 10242 072e 51       		.byte	0x51
 10243 072f 1E000000 		.4byte	.LVL163
 10244 0733 38000000 		.4byte	.LFE94
 10245 0737 0400     		.2byte	0x4
 10246 0739 F3       		.byte	0xf3
 10247 073a 01       		.uleb128 0x1
 10248 073b 51       		.byte	0x51
 10249 073c 9F       		.byte	0x9f
 10250 073d 00000000 		.4byte	0
 10251 0741 00000000 		.4byte	0
 10252              	.LLST41:
 10253 0745 00000000 		.4byte	.LVL160
 10254 0749 2A000000 		.4byte	.LVL164
 10255 074d 0100     		.2byte	0x1
 10256 074f 52       		.byte	0x52
 10257 0750 2A000000 		.4byte	.LVL164
 10258 0754 38000000 		.4byte	.LFE94
 10259 0758 0600     		.2byte	0x6
 10260 075a F3       		.byte	0xf3
 10261 075b 03       		.uleb128 0x3
 10262 075c F5       		.byte	0xf5
 10263 075d 02       		.uleb128 0x2
 10264 075e 25       		.uleb128 0x25
 10265 075f 9F       		.byte	0x9f
 10266 0760 00000000 		.4byte	0
 10267 0764 00000000 		.4byte	0
 10268              	.LLST42:
 10269 0768 0E000000 		.4byte	.LVL161
 10270 076c 1A000000 		.4byte	.LVL162
 10271 0770 1000     		.2byte	0x10
 10272 0772 70       		.byte	0x70
 10273 0773 00       		.sleb128 0
 10274 0774 48       		.byte	0x48
 10275 0775 24       		.byte	0x24
 10276 0776 48       		.byte	0x48
 10277 0777 26       		.byte	0x26
 10278 0778 08       		.byte	0x8
 10279 0779 7C       		.byte	0x7c
 10280 077a 1E       		.byte	0x1e
ARM GAS  /var/folders/6q/x_mk5n_j3p7_c40r_2k_78980000gn/T//ccu43oO2.s 			page 182


 10281 077b 03       		.byte	0x3
 10282 077c 00000000 		.4byte	sMotors
 10283 0780 22       		.byte	0x22
 10284 0781 9F       		.byte	0x9f
 10285 0782 1A000000 		.4byte	.LVL162
 10286 0786 2C000000 		.4byte	.LVL165
 10287 078a 1100     		.2byte	0x11
 10288 078c F3       		.byte	0xf3
 10289 078d 01       		.uleb128 0x1
 10290 078e 50       		.byte	0x50
 10291 078f 48       		.byte	0x48
 10292 0790 24       		.byte	0x24
 10293 0791 48       		.byte	0x48
 10294 0792 26       		.byte	0x26
 10295 0793 08       		.byte	0x8
 10296 0794 7C       		.byte	0x7c
 10297 0795 1E       		.byte	0x1e
 10298 0796 03       		.byte	0x3
 10299 0797 00000000 		.4byte	sMotors
 10300 079b 22       		.byte	0x22
 10301 079c 9F       		.byte	0x9f
 10302 079d 00000000 		.4byte	0
 10303 07a1 00000000 		.4byte	0
 10304              	.LLST43:
 10305 07a5 00000000 		.4byte	.LVL166
 10306 07a9 0A000000 		.4byte	.LVL167
 10307 07ad 0100     		.2byte	0x1
 10308 07af 50       		.byte	0x50
 10309 07b0 0A000000 		.4byte	.LVL167
 10310 07b4 72000000 		.4byte	.LVL179
 10311 07b8 0100     		.2byte	0x1
 10312 07ba 54       		.byte	0x54
 10313 07bb 72000000 		.4byte	.LVL179
 10314 07bf 7C000000 		.4byte	.LFE95
 10315 07c3 0400     		.2byte	0x4
 10316 07c5 F3       		.byte	0xf3
 10317 07c6 01       		.uleb128 0x1
 10318 07c7 50       		.byte	0x50
 10319 07c8 9F       		.byte	0x9f
 10320 07c9 00000000 		.4byte	0
 10321 07cd 00000000 		.4byte	0
 10322              	.LLST44:
 10323 07d1 00000000 		.4byte	.LVL166
 10324 07d5 0F000000 		.4byte	.LVL168-1
 10325 07d9 0100     		.2byte	0x1
 10326 07db 51       		.byte	0x51
 10327 07dc 0F000000 		.4byte	.LVL168-1
 10328 07e0 58000000 		.4byte	.LVL175
 10329 07e4 0100     		.2byte	0x1
 10330 07e6 57       		.byte	0x57
 10331 07e7 58000000 		.4byte	.LVL175
 10332 07eb 7C000000 		.4byte	.LFE95
 10333 07ef 0400     		.2byte	0x4
 10334 07f1 F3       		.byte	0xf3
 10335 07f2 01       		.uleb128 0x1
 10336 07f3 51       		.byte	0x51
 10337 07f4 9F       		.byte	0x9f
ARM GAS  /var/folders/6q/x_mk5n_j3p7_c40r_2k_78980000gn/T//ccu43oO2.s 			page 183


 10338 07f5 00000000 		.4byte	0
 10339 07f9 00000000 		.4byte	0
 10340              	.LLST45:
 10341 07fd 00000000 		.4byte	.LVL180
 10342 0801 0A000000 		.4byte	.LVL181
 10343 0805 0100     		.2byte	0x1
 10344 0807 50       		.byte	0x50
 10345 0808 0A000000 		.4byte	.LVL181
 10346 080c D0000000 		.4byte	.LFE96
 10347 0810 0100     		.2byte	0x1
 10348 0812 54       		.byte	0x54
 10349 0813 00000000 		.4byte	0
 10350 0817 00000000 		.4byte	0
 10351              	.LLST46:
 10352 081b 18000000 		.4byte	.LVL183
 10353 081f 1A000000 		.4byte	.LVL184
 10354 0823 0100     		.2byte	0x1
 10355 0825 50       		.byte	0x50
 10356 0826 00000000 		.4byte	0
 10357 082a 00000000 		.4byte	0
 10358              	.LLST47:
 10359 082e 36000000 		.4byte	.LVL189
 10360 0832 56000000 		.4byte	.LVL196
 10361 0836 0100     		.2byte	0x1
 10362 0838 55       		.byte	0x55
 10363 0839 56000000 		.4byte	.LVL196
 10364 083d 5F000000 		.4byte	.LVL197-1
 10365 0841 0300     		.2byte	0x3
 10366 0843 73       		.byte	0x73
 10367 0844 7F       		.sleb128 -1
 10368 0845 9F       		.byte	0x9f
 10369 0846 5F000000 		.4byte	.LVL197-1
 10370 084a 84000000 		.4byte	.LVL204
 10371 084e 0F00     		.2byte	0xf
 10372 0850 76       		.byte	0x76
 10373 0851 00       		.sleb128 0
 10374 0852 4F       		.byte	0x4f
 10375 0853 26       		.byte	0x26
 10376 0854 76       		.byte	0x76
 10377 0855 00       		.sleb128 0
 10378 0856 27       		.byte	0x27
 10379 0857 76       		.byte	0x76
 10380 0858 00       		.sleb128 0
 10381 0859 4F       		.byte	0x4f
 10382 085a 26       		.byte	0x26
 10383 085b 1C       		.byte	0x1c
 10384 085c 34       		.byte	0x34
 10385 085d 26       		.byte	0x26
 10386 085e 9F       		.byte	0x9f
 10387 085f 00000000 		.4byte	0
 10388 0863 00000000 		.4byte	0
 10389              	.LLST48:
 10390 0867 36000000 		.4byte	.LVL189
 10391 086b 4E000000 		.4byte	.LVL195
 10392 086f 1A00     		.2byte	0x1a
 10393 0871 77       		.byte	0x77
 10394 0872 00       		.sleb128 0
ARM GAS  /var/folders/6q/x_mk5n_j3p7_c40r_2k_78980000gn/T//ccu43oO2.s 			page 184


 10395 0873 75       		.byte	0x75
 10396 0874 00       		.sleb128 0
 10397 0875 34       		.byte	0x34
 10398 0876 24       		.byte	0x24
 10399 0877 1C       		.byte	0x1c
 10400 0878 F7       		.byte	0xf7
 10401 0879 33       		.uleb128 0x33
 10402 087a F7       		.byte	0xf7
 10403 087b 2C       		.uleb128 0x2c
 10404 087c F4       		.byte	0xf4
 10405 087d 2C       		.uleb128 0x2c
 10406 087e 08       		.byte	0x8
 10407 087f 00000000 		.4byte	0
 10408 0883 0000B03F 		.4byte	0x3fb00000
 10409 0887 1E       		.byte	0x1e
 10410 0888 F7       		.byte	0xf7
 10411 0889 25       		.uleb128 0x25
 10412 088a 9F       		.byte	0x9f
 10413 088b 4E000000 		.4byte	.LVL195
 10414 088f 56000000 		.4byte	.LVL196
 10415 0893 2400     		.2byte	0x24
 10416 0895 76       		.byte	0x76
 10417 0896 00       		.sleb128 0
 10418 0897 4F       		.byte	0x4f
 10419 0898 26       		.byte	0x26
 10420 0899 76       		.byte	0x76
 10421 089a 00       		.sleb128 0
 10422 089b 27       		.byte	0x27
 10423 089c 75       		.byte	0x75
 10424 089d 00       		.sleb128 0
 10425 089e 34       		.byte	0x34
 10426 089f 24       		.byte	0x24
 10427 08a0 1C       		.byte	0x1c
 10428 08a1 76       		.byte	0x76
 10429 08a2 00       		.sleb128 0
 10430 08a3 4F       		.byte	0x4f
 10431 08a4 26       		.byte	0x26
 10432 08a5 1C       		.byte	0x1c
 10433 08a6 F7       		.byte	0xf7
 10434 08a7 33       		.uleb128 0x33
 10435 08a8 F7       		.byte	0xf7
 10436 08a9 2C       		.uleb128 0x2c
 10437 08aa F4       		.byte	0xf4
 10438 08ab 2C       		.uleb128 0x2c
 10439 08ac 08       		.byte	0x8
 10440 08ad 00000000 		.4byte	0
 10441 08b1 0000B03F 		.4byte	0x3fb00000
 10442 08b5 1E       		.byte	0x1e
 10443 08b6 F7       		.byte	0xf7
 10444 08b7 25       		.uleb128 0x25
 10445 08b8 9F       		.byte	0x9f
 10446 08b9 56000000 		.4byte	.LVL196
 10447 08bd 5F000000 		.4byte	.LVL197-1
 10448 08c1 2400     		.2byte	0x24
 10449 08c3 76       		.byte	0x76
 10450 08c4 00       		.sleb128 0
 10451 08c5 4F       		.byte	0x4f
ARM GAS  /var/folders/6q/x_mk5n_j3p7_c40r_2k_78980000gn/T//ccu43oO2.s 			page 185


 10452 08c6 26       		.byte	0x26
 10453 08c7 76       		.byte	0x76
 10454 08c8 00       		.sleb128 0
 10455 08c9 27       		.byte	0x27
 10456 08ca 73       		.byte	0x73
 10457 08cb 7F       		.sleb128 -1
 10458 08cc 34       		.byte	0x34
 10459 08cd 24       		.byte	0x24
 10460 08ce 1C       		.byte	0x1c
 10461 08cf 76       		.byte	0x76
 10462 08d0 00       		.sleb128 0
 10463 08d1 4F       		.byte	0x4f
 10464 08d2 26       		.byte	0x26
 10465 08d3 1C       		.byte	0x1c
 10466 08d4 F7       		.byte	0xf7
 10467 08d5 33       		.uleb128 0x33
 10468 08d6 F7       		.byte	0xf7
 10469 08d7 2C       		.uleb128 0x2c
 10470 08d8 F4       		.byte	0xf4
 10471 08d9 2C       		.uleb128 0x2c
 10472 08da 08       		.byte	0x8
 10473 08db 00000000 		.4byte	0
 10474 08df 0000B03F 		.4byte	0x3fb00000
 10475 08e3 1E       		.byte	0x1e
 10476 08e4 F7       		.byte	0xf7
 10477 08e5 25       		.uleb128 0x25
 10478 08e6 9F       		.byte	0x9f
 10479 08e7 5F000000 		.4byte	.LVL197-1
 10480 08eb 84000000 		.4byte	.LVL204
 10481 08ef 3000     		.2byte	0x30
 10482 08f1 76       		.byte	0x76
 10483 08f2 00       		.sleb128 0
 10484 08f3 4F       		.byte	0x4f
 10485 08f4 26       		.byte	0x26
 10486 08f5 76       		.byte	0x76
 10487 08f6 00       		.sleb128 0
 10488 08f7 27       		.byte	0x27
 10489 08f8 76       		.byte	0x76
 10490 08f9 00       		.sleb128 0
 10491 08fa 4F       		.byte	0x4f
 10492 08fb 26       		.byte	0x26
 10493 08fc 76       		.byte	0x76
 10494 08fd 00       		.sleb128 0
 10495 08fe 27       		.byte	0x27
 10496 08ff 76       		.byte	0x76
 10497 0900 00       		.sleb128 0
 10498 0901 4F       		.byte	0x4f
 10499 0902 26       		.byte	0x26
 10500 0903 1C       		.byte	0x1c
 10501 0904 34       		.byte	0x34
 10502 0905 26       		.byte	0x26
 10503 0906 34       		.byte	0x34
 10504 0907 24       		.byte	0x24
 10505 0908 1C       		.byte	0x1c
 10506 0909 76       		.byte	0x76
 10507 090a 00       		.sleb128 0
 10508 090b 4F       		.byte	0x4f
ARM GAS  /var/folders/6q/x_mk5n_j3p7_c40r_2k_78980000gn/T//ccu43oO2.s 			page 186


 10509 090c 26       		.byte	0x26
 10510 090d 1C       		.byte	0x1c
 10511 090e F7       		.byte	0xf7
 10512 090f 33       		.uleb128 0x33
 10513 0910 F7       		.byte	0xf7
 10514 0911 2C       		.uleb128 0x2c
 10515 0912 F4       		.byte	0xf4
 10516 0913 2C       		.uleb128 0x2c
 10517 0914 08       		.byte	0x8
 10518 0915 00000000 		.4byte	0
 10519 0919 0000B03F 		.4byte	0x3fb00000
 10520 091d 1E       		.byte	0x1e
 10521 091e F7       		.byte	0xf7
 10522 091f 25       		.uleb128 0x25
 10523 0920 9F       		.byte	0x9f
 10524 0921 00000000 		.4byte	0
 10525 0925 00000000 		.4byte	0
 10526              	.LLST49:
 10527 0929 38000000 		.4byte	.LVL190
 10528 092d 3C000000 		.4byte	.LVL191
 10529 0931 0100     		.2byte	0x1
 10530 0933 50       		.byte	0x50
 10531 0934 3C000000 		.4byte	.LVL191
 10532 0938 D0000000 		.4byte	.LFE96
 10533 093c 0100     		.2byte	0x1
 10534 093e 58       		.byte	0x58
 10535 093f 00000000 		.4byte	0
 10536 0943 00000000 		.4byte	0
 10537              	.LLST50:
 10538 0947 7A000000 		.4byte	.LVL201
 10539 094b 7C000000 		.4byte	.LVL202
 10540 094f 0100     		.2byte	0x1
 10541 0951 50       		.byte	0x50
 10542 0952 7C000000 		.4byte	.LVL202
 10543 0956 D0000000 		.4byte	.LFE96
 10544 095a 0100     		.2byte	0x1
 10545 095c 55       		.byte	0x55
 10546 095d 00000000 		.4byte	0
 10547 0961 00000000 		.4byte	0
 10548              	.LLST51:
 10549 0965 84000000 		.4byte	.LVL204
 10550 0969 87000000 		.4byte	.LVL205-1
 10551 096d 0100     		.2byte	0x1
 10552 096f 50       		.byte	0x50
 10553 0970 87000000 		.4byte	.LVL205-1
 10554 0974 98000000 		.4byte	.LVL207
 10555 0978 0100     		.2byte	0x1
 10556 097a 56       		.byte	0x56
 10557 097b AC000000 		.4byte	.LVL210
 10558 097f AE000000 		.4byte	.LVL211
 10559 0983 0100     		.2byte	0x1
 10560 0985 56       		.byte	0x56
 10561 0986 B0000000 		.4byte	.LVL212
 10562 098a B2000000 		.4byte	.LVL213
 10563 098e 0100     		.2byte	0x1
 10564 0990 56       		.byte	0x56
 10565 0991 00000000 		.4byte	0
ARM GAS  /var/folders/6q/x_mk5n_j3p7_c40r_2k_78980000gn/T//ccu43oO2.s 			page 187


 10566 0995 00000000 		.4byte	0
 10567              	.LLST52:
 10568 0999 00000000 		.4byte	.LVL214
 10569 099d 0C000000 		.4byte	.LVL215
 10570 09a1 0100     		.2byte	0x1
 10571 09a3 50       		.byte	0x50
 10572 09a4 0C000000 		.4byte	.LVL215
 10573 09a8 DC040000 		.4byte	.LFE98
 10574 09ac 0100     		.2byte	0x1
 10575 09ae 54       		.byte	0x54
 10576 09af 00000000 		.4byte	0
 10577 09b3 00000000 		.4byte	0
 10578              	.LLST53:
 10579 09b7 00000000 		.4byte	.LVL214
 10580 09bb 11000000 		.4byte	.LVL216-1
 10581 09bf 0100     		.2byte	0x1
 10582 09c1 51       		.byte	0x51
 10583 09c2 11000000 		.4byte	.LVL216-1
 10584 09c6 DC040000 		.4byte	.LFE98
 10585 09ca 0200     		.2byte	0x2
 10586 09cc 91       		.byte	0x91
 10587 09cd 50       		.sleb128 -48
 10588 09ce 00000000 		.4byte	0
 10589 09d2 00000000 		.4byte	0
 10590              	.LLST54:
 10591 09d6 D6010000 		.4byte	.LVL277
 10592 09da 68020000 		.4byte	.LVL298
 10593 09de 0100     		.2byte	0x1
 10594 09e0 56       		.byte	0x56
 10595 09e1 80040000 		.4byte	.LVL363
 10596 09e5 8A040000 		.4byte	.LVL366
 10597 09e9 0100     		.2byte	0x1
 10598 09eb 56       		.byte	0x56
 10599 09ec 8A040000 		.4byte	.LVL366
 10600 09f0 8C040000 		.4byte	.LVL367
 10601 09f4 0100     		.2byte	0x1
 10602 09f6 50       		.byte	0x50
 10603 09f7 98040000 		.4byte	.LVL368
 10604 09fb 9C040000 		.4byte	.LVL369
 10605 09ff 0100     		.2byte	0x1
 10606 0a01 56       		.byte	0x56
 10607 0a02 00000000 		.4byte	0
 10608 0a06 00000000 		.4byte	0
 10609              	.LLST55:
 10610 0a0a A2000000 		.4byte	.LVL230
 10611 0a0e A6000000 		.4byte	.LVL231
 10612 0a12 0100     		.2byte	0x1
 10613 0a14 50       		.byte	0x50
 10614 0a15 A6000000 		.4byte	.LVL231
 10615 0a19 6C030000 		.4byte	.LVL326
 10616 0a1d 0200     		.2byte	0x2
 10617 0a1f 91       		.byte	0x91
 10618 0a20 54       		.sleb128 -44
 10619 0a21 F8030000 		.4byte	.LVL342
 10620 0a25 8C040000 		.4byte	.LVL367
 10621 0a29 0200     		.2byte	0x2
 10622 0a2b 91       		.byte	0x91
ARM GAS  /var/folders/6q/x_mk5n_j3p7_c40r_2k_78980000gn/T//ccu43oO2.s 			page 188


 10623 0a2c 54       		.sleb128 -44
 10624 0a2d 98040000 		.4byte	.LVL368
 10625 0a31 9C040000 		.4byte	.LVL369
 10626 0a35 0200     		.2byte	0x2
 10627 0a37 91       		.byte	0x91
 10628 0a38 54       		.sleb128 -44
 10629 0a39 00000000 		.4byte	0
 10630 0a3d 00000000 		.4byte	0
 10631              	.LLST56:
 10632 0a41 00030000 		.4byte	.LVL312
 10633 0a45 6C030000 		.4byte	.LVL326
 10634 0a49 0200     		.2byte	0x2
 10635 0a4b 91       		.byte	0x91
 10636 0a4c 44       		.sleb128 -60
 10637 0a4d 7E040000 		.4byte	.LVL362
 10638 0a51 80040000 		.4byte	.LVL363
 10639 0a55 0100     		.2byte	0x1
 10640 0a57 50       		.byte	0x50
 10641 0a58 00000000 		.4byte	0
 10642 0a5c 00000000 		.4byte	0
 10643              	.LLST57:
 10644 0a60 12040000 		.4byte	.LVL347
 10645 0a64 42040000 		.4byte	.LVL354
 10646 0a68 0100     		.2byte	0x1
 10647 0a6a 57       		.byte	0x57
 10648 0a6b 00000000 		.4byte	0
 10649 0a6f 00000000 		.4byte	0
 10650              	.LLST58:
 10651 0a73 1C030000 		.4byte	.LVL316
 10652 0a77 1E030000 		.4byte	.LVL317
 10653 0a7b 0100     		.2byte	0x1
 10654 0a7d 50       		.byte	0x50
 10655 0a7e 1E030000 		.4byte	.LVL317
 10656 0a82 6C030000 		.4byte	.LVL326
 10657 0a86 0100     		.2byte	0x1
 10658 0a88 55       		.byte	0x55
 10659 0a89 00000000 		.4byte	0
 10660 0a8d 00000000 		.4byte	0
 10661              	.LLST59:
 10662 0a91 12040000 		.4byte	.LVL347
 10663 0a95 80040000 		.4byte	.LVL363
 10664 0a99 0600     		.2byte	0x6
 10665 0a9b 9E       		.byte	0x9e
 10666 0a9c 04       		.uleb128 0x4
 10667 0a9d 00000000 		.4byte	0
 10668 0aa1 00000000 		.4byte	0
 10669 0aa5 00000000 		.4byte	0
 10670              	.LLST60:
 10671 0aa9 44020000 		.4byte	.LVL292
 10672 0aad 46020000 		.4byte	.LVL293
 10673 0ab1 0100     		.2byte	0x1
 10674 0ab3 50       		.byte	0x50
 10675 0ab4 46020000 		.4byte	.LVL293
 10676 0ab8 6C030000 		.4byte	.LVL326
 10677 0abc 0100     		.2byte	0x1
 10678 0abe 58       		.byte	0x58
 10679 0abf 12040000 		.4byte	.LVL347
ARM GAS  /var/folders/6q/x_mk5n_j3p7_c40r_2k_78980000gn/T//ccu43oO2.s 			page 189


 10680 0ac3 80040000 		.4byte	.LVL363
 10681 0ac7 0100     		.2byte	0x1
 10682 0ac9 58       		.byte	0x58
 10683 0aca 00000000 		.4byte	0
 10684 0ace 00000000 		.4byte	0
 10685              	.LLST61:
 10686 0ad2 68020000 		.4byte	.LVL298
 10687 0ad6 6C020000 		.4byte	.LVL299
 10688 0ada 0100     		.2byte	0x1
 10689 0adc 50       		.byte	0x50
 10690 0add 6C020000 		.4byte	.LVL299
 10691 0ae1 30030000 		.4byte	.LVL320
 10692 0ae5 0100     		.2byte	0x1
 10693 0ae7 56       		.byte	0x56
 10694 0ae8 12040000 		.4byte	.LVL347
 10695 0aec 80040000 		.4byte	.LVL363
 10696 0af0 0100     		.2byte	0x1
 10697 0af2 56       		.byte	0x56
 10698 0af3 00000000 		.4byte	0
 10699 0af7 00000000 		.4byte	0
 10700              	.LLST62:
 10701 0afb 82000000 		.4byte	.LVL226
 10702 0aff 8A000000 		.4byte	.LVL227
 10703 0b03 0A00     		.2byte	0xa
 10704 0b05 91       		.byte	0x91
 10705 0b06 40       		.sleb128 -64
 10706 0b07 F6       		.byte	0xf6
 10707 0b08 04       		.byte	0x4
 10708 0b09 25       		.uleb128 0x25
 10709 0b0a F7       		.byte	0xf7
 10710 0b0b 33       		.uleb128 0x33
 10711 0b0c F7       		.byte	0xf7
 10712 0b0d 00       		.uleb128 0
 10713 0b0e 9F       		.byte	0x9f
 10714 0b0f 9E030000 		.4byte	.LVL333
 10715 0b13 A4030000 		.4byte	.LVL334
 10716 0b17 0A00     		.2byte	0xa
 10717 0b19 91       		.byte	0x91
 10718 0b1a 40       		.sleb128 -64
 10719 0b1b F6       		.byte	0xf6
 10720 0b1c 04       		.byte	0x4
 10721 0b1d 25       		.uleb128 0x25
 10722 0b1e F7       		.byte	0xf7
 10723 0b1f 33       		.uleb128 0x33
 10724 0b20 F7       		.byte	0xf7
 10725 0b21 00       		.uleb128 0
 10726 0b22 9F       		.byte	0x9f
 10727 0b23 00000000 		.4byte	0
 10728 0b27 00000000 		.4byte	0
 10729              	.LLST63:
 10730 0b2b 16000000 		.4byte	.LVL217
 10731 0b2f 2C000000 		.4byte	.LVL218
 10732 0b33 0100     		.2byte	0x1
 10733 0b35 50       		.byte	0x50
 10734 0b36 2C000000 		.4byte	.LVL218
 10735 0b3a 6C000000 		.4byte	.LVL224
 10736 0b3e 0100     		.2byte	0x1
ARM GAS  /var/folders/6q/x_mk5n_j3p7_c40r_2k_78980000gn/T//ccu43oO2.s 			page 190


 10737 0b40 55       		.byte	0x55
 10738 0b41 6C030000 		.4byte	.LVL326
 10739 0b45 76030000 		.4byte	.LVL328
 10740 0b49 0100     		.2byte	0x1
 10741 0b4b 55       		.byte	0x55
 10742 0b4c B6030000 		.4byte	.LVL337
 10743 0b50 C0030000 		.4byte	.LVL338
 10744 0b54 0100     		.2byte	0x1
 10745 0b56 55       		.byte	0x55
 10746 0b57 00000000 		.4byte	0
 10747 0b5b 00000000 		.4byte	0
 10748              	.LLST64:
 10749 0b5f 6C000000 		.4byte	.LVL224
 10750 0b63 6F000000 		.4byte	.LVL225-1
 10751 0b67 0100     		.2byte	0x1
 10752 0b69 50       		.byte	0x50
 10753 0b6a 6F000000 		.4byte	.LVL225-1
 10754 0b6e 82000000 		.4byte	.LVL226
 10755 0b72 0100     		.2byte	0x1
 10756 0b74 55       		.byte	0x55
 10757 0b75 C0030000 		.4byte	.LVL338
 10758 0b79 DC030000 		.4byte	.LVL340
 10759 0b7d 0100     		.2byte	0x1
 10760 0b7f 55       		.byte	0x55
 10761 0b80 9C040000 		.4byte	.LVL369
 10762 0b84 DC040000 		.4byte	.LFE98
 10763 0b88 0100     		.2byte	0x1
 10764 0b8a 55       		.byte	0x55
 10765 0b8b 00000000 		.4byte	0
 10766 0b8f 00000000 		.4byte	0
 10767              	.LLST65:
 10768 0b93 A2000000 		.4byte	.LVL230
 10769 0b97 36010000 		.4byte	.LVL253
 10770 0b9b 0800     		.2byte	0x8
 10771 0b9d F5       		.byte	0xf5
 10772 0b9e 06       		.uleb128 0x6
 10773 0b9f 25       		.uleb128 0x25
 10774 0ba0 F5       		.byte	0xf5
 10775 0ba1 0B       		.uleb128 0xb
 10776 0ba2 25       		.uleb128 0x25
 10777 0ba3 1E       		.byte	0x1e
 10778 0ba4 9F       		.byte	0x9f
 10779 0ba5 00040000 		.4byte	.LVL343
 10780 0ba9 06040000 		.4byte	.LVL344
 10781 0bad 0800     		.2byte	0x8
 10782 0baf F5       		.byte	0xf5
 10783 0bb0 06       		.uleb128 0x6
 10784 0bb1 25       		.uleb128 0x25
 10785 0bb2 F5       		.byte	0xf5
 10786 0bb3 0B       		.uleb128 0xb
 10787 0bb4 25       		.uleb128 0x25
 10788 0bb5 1E       		.byte	0x1e
 10789 0bb6 9F       		.byte	0x9f
 10790 0bb7 0C040000 		.4byte	.LVL346
 10791 0bbb 12040000 		.4byte	.LVL347
 10792 0bbf 0800     		.2byte	0x8
 10793 0bc1 F5       		.byte	0xf5
ARM GAS  /var/folders/6q/x_mk5n_j3p7_c40r_2k_78980000gn/T//ccu43oO2.s 			page 191


 10794 0bc2 06       		.uleb128 0x6
 10795 0bc3 25       		.uleb128 0x25
 10796 0bc4 F5       		.byte	0xf5
 10797 0bc5 0B       		.uleb128 0xb
 10798 0bc6 25       		.uleb128 0x25
 10799 0bc7 1E       		.byte	0x1e
 10800 0bc8 9F       		.byte	0x9f
 10801 0bc9 00000000 		.4byte	0
 10802 0bcd 00000000 		.4byte	0
 10803              	.LLST66:
 10804 0bd1 B4000000 		.4byte	.LVL234
 10805 0bd5 B7000000 		.4byte	.LVL235-1
 10806 0bd9 0100     		.2byte	0x1
 10807 0bdb 50       		.byte	0x50
 10808 0bdc B7000000 		.4byte	.LVL235-1
 10809 0be0 FC000000 		.4byte	.LVL243
 10810 0be4 0100     		.2byte	0x1
 10811 0be6 55       		.byte	0x55
 10812 0be7 00040000 		.4byte	.LVL343
 10813 0beb 06040000 		.4byte	.LVL344
 10814 0bef 0100     		.2byte	0x1
 10815 0bf1 55       		.byte	0x55
 10816 0bf2 0C040000 		.4byte	.LVL346
 10817 0bf6 12040000 		.4byte	.LVL347
 10818 0bfa 0100     		.2byte	0x1
 10819 0bfc 55       		.byte	0x55
 10820 0bfd 00000000 		.4byte	0
 10821 0c01 00000000 		.4byte	0
 10822              	.LLST67:
 10823 0c05 C2000000 		.4byte	.LVL236
 10824 0c09 18010000 		.4byte	.LVL248
 10825 0c0d 0100     		.2byte	0x1
 10826 0c0f 5A       		.byte	0x5a
 10827 0c10 00040000 		.4byte	.LVL343
 10828 0c14 06040000 		.4byte	.LVL344
 10829 0c18 0100     		.2byte	0x1
 10830 0c1a 5A       		.byte	0x5a
 10831 0c1b 00000000 		.4byte	0
 10832 0c1f 00000000 		.4byte	0
 10833              	.LLST68:
 10834 0c23 FC000000 		.4byte	.LVL243
 10835 0c27 00010000 		.4byte	.LVL244
 10836 0c2b 0100     		.2byte	0x1
 10837 0c2d 50       		.byte	0x50
 10838 0c2e 00010000 		.4byte	.LVL244
 10839 0c32 03010000 		.4byte	.LVL245-1
 10840 0c36 0100     		.2byte	0x1
 10841 0c38 51       		.byte	0x51
 10842 0c39 03010000 		.4byte	.LVL245-1
 10843 0c3d 36010000 		.4byte	.LVL253
 10844 0c41 0100     		.2byte	0x1
 10845 0c43 55       		.byte	0x55
 10846 0c44 00000000 		.4byte	0
 10847 0c48 00000000 		.4byte	0
 10848              	.LLST69:
 10849 0c4c 36010000 		.4byte	.LVL253
 10850 0c50 3B010000 		.4byte	.LVL254-1
ARM GAS  /var/folders/6q/x_mk5n_j3p7_c40r_2k_78980000gn/T//ccu43oO2.s 			page 192


 10851 0c54 0800     		.2byte	0x8
 10852 0c56 F5       		.byte	0xf5
 10853 0c57 06       		.uleb128 0x6
 10854 0c58 25       		.uleb128 0x25
 10855 0c59 F5       		.byte	0xf5
 10856 0c5a 01       		.uleb128 0x1
 10857 0c5b 25       		.uleb128 0x25
 10858 0c5c 1E       		.byte	0x1e
 10859 0c5d 9F       		.byte	0x9f
 10860 0c5e 3B010000 		.4byte	.LVL254-1
 10861 0c62 52010000 		.4byte	.LVL258
 10862 0c66 0800     		.2byte	0x8
 10863 0c68 F5       		.byte	0xf5
 10864 0c69 06       		.uleb128 0x6
 10865 0c6a 25       		.uleb128 0x25
 10866 0c6b F5       		.byte	0xf5
 10867 0c6c 09       		.uleb128 0x9
 10868 0c6d 25       		.uleb128 0x25
 10869 0c6e 1E       		.byte	0x1e
 10870 0c6f 9F       		.byte	0x9f
 10871 0c70 06040000 		.4byte	.LVL344
 10872 0c74 0A040000 		.4byte	.LVL345
 10873 0c78 0800     		.2byte	0x8
 10874 0c7a F5       		.byte	0xf5
 10875 0c7b 06       		.uleb128 0x6
 10876 0c7c 25       		.uleb128 0x25
 10877 0c7d F5       		.byte	0xf5
 10878 0c7e 09       		.uleb128 0x9
 10879 0c7f 25       		.uleb128 0x25
 10880 0c80 1E       		.byte	0x1e
 10881 0c81 9F       		.byte	0x9f
 10882 0c82 00000000 		.4byte	0
 10883 0c86 00000000 		.4byte	0
 10884              	.LLST70:
 10885 0c8a 46010000 		.4byte	.LVL256
 10886 0c8e 49010000 		.4byte	.LVL257-1
 10887 0c92 0100     		.2byte	0x1
 10888 0c94 50       		.byte	0x50
 10889 0c95 49010000 		.4byte	.LVL257-1
 10890 0c99 8A010000 		.4byte	.LVL265
 10891 0c9d 0100     		.2byte	0x1
 10892 0c9f 55       		.byte	0x55
 10893 0ca0 F8030000 		.4byte	.LVL342
 10894 0ca4 00040000 		.4byte	.LVL343
 10895 0ca8 0100     		.2byte	0x1
 10896 0caa 55       		.byte	0x55
 10897 0cab 06040000 		.4byte	.LVL344
 10898 0caf 0C040000 		.4byte	.LVL346
 10899 0cb3 0100     		.2byte	0x1
 10900 0cb5 55       		.byte	0x55
 10901 0cb6 00000000 		.4byte	0
 10902 0cba 00000000 		.4byte	0
 10903              	.LLST71:
 10904 0cbe 52010000 		.4byte	.LVL258
 10905 0cc2 A4010000 		.4byte	.LVL270
 10906 0cc6 0100     		.2byte	0x1
 10907 0cc8 56       		.byte	0x56
ARM GAS  /var/folders/6q/x_mk5n_j3p7_c40r_2k_78980000gn/T//ccu43oO2.s 			page 193


 10908 0cc9 F8030000 		.4byte	.LVL342
 10909 0ccd 00040000 		.4byte	.LVL343
 10910 0cd1 0100     		.2byte	0x1
 10911 0cd3 56       		.byte	0x56
 10912 0cd4 00000000 		.4byte	0
 10913 0cd8 00000000 		.4byte	0
 10914              	.LLST72:
 10915 0cdc 8A010000 		.4byte	.LVL265
 10916 0ce0 8E010000 		.4byte	.LVL266
 10917 0ce4 0100     		.2byte	0x1
 10918 0ce6 50       		.byte	0x50
 10919 0ce7 8E010000 		.4byte	.LVL266
 10920 0ceb 91010000 		.4byte	.LVL267-1
 10921 0cef 0100     		.2byte	0x1
 10922 0cf1 51       		.byte	0x51
 10923 0cf2 91010000 		.4byte	.LVL267-1
 10924 0cf6 C2010000 		.4byte	.LVL275
 10925 0cfa 0100     		.2byte	0x1
 10926 0cfc 55       		.byte	0x55
 10927 0cfd 00000000 		.4byte	0
 10928 0d01 00000000 		.4byte	0
 10929              	.LLST73:
 10930 0d05 DC010000 		.4byte	.LVL279
 10931 0d09 FC010000 		.4byte	.LVL282
 10932 0d0d 0100     		.2byte	0x1
 10933 0d0f 56       		.byte	0x56
 10934 0d10 80040000 		.4byte	.LVL363
 10935 0d14 82040000 		.4byte	.LVL364
 10936 0d18 0100     		.2byte	0x1
 10937 0d1a 56       		.byte	0x56
 10938 0d1b 98040000 		.4byte	.LVL368
 10939 0d1f 9C040000 		.4byte	.LVL369
 10940 0d23 0100     		.2byte	0x1
 10941 0d25 56       		.byte	0x56
 10942 0d26 00000000 		.4byte	0
 10943 0d2a 00000000 		.4byte	0
 10944              	.LLST74:
 10945 0d2e 76030000 		.4byte	.LVL328
 10946 0d32 79030000 		.4byte	.LVL329-1
 10947 0d36 0100     		.2byte	0x1
 10948 0d38 50       		.byte	0x50
 10949 0d39 79030000 		.4byte	.LVL329-1
 10950 0d3d 84030000 		.4byte	.LVL330
 10951 0d41 0100     		.2byte	0x1
 10952 0d43 55       		.byte	0x55
 10953 0d44 A4030000 		.4byte	.LVL334
 10954 0d48 B2030000 		.4byte	.LVL336
 10955 0d4c 0100     		.2byte	0x1
 10956 0d4e 55       		.byte	0x55
 10957 0d4f 00000000 		.4byte	0
 10958 0d53 00000000 		.4byte	0
 10959              	.LLST75:
 10960 0d57 88030000 		.4byte	.LVL331
 10961 0d5b 9E030000 		.4byte	.LVL333
 10962 0d5f 0100     		.2byte	0x1
 10963 0d61 58       		.byte	0x58
 10964 0d62 DC030000 		.4byte	.LVL340
ARM GAS  /var/folders/6q/x_mk5n_j3p7_c40r_2k_78980000gn/T//ccu43oO2.s 			page 194


 10965 0d66 F8030000 		.4byte	.LVL342
 10966 0d6a 0100     		.2byte	0x1
 10967 0d6c 58       		.byte	0x58
 10968 0d6d 8C040000 		.4byte	.LVL367
 10969 0d71 98040000 		.4byte	.LVL368
 10970 0d75 0100     		.2byte	0x1
 10971 0d77 58       		.byte	0x58
 10972 0d78 00000000 		.4byte	0
 10973 0d7c 00000000 		.4byte	0
 10974              	.LLST76:
 10975 0d80 12040000 		.4byte	.LVL347
 10976 0d84 40040000 		.4byte	.LVL353
 10977 0d88 0D00     		.2byte	0xd
 10978 0d8a F5       		.byte	0xf5
 10979 0d8b 06       		.uleb128 0x6
 10980 0d8c 25       		.uleb128 0x25
 10981 0d8d 1F       		.byte	0x1f
 10982 0d8e F5       		.byte	0xf5
 10983 0d8f 07       		.uleb128 0x7
 10984 0d90 25       		.uleb128 0x25
 10985 0d91 F5       		.byte	0xf5
 10986 0d92 06       		.uleb128 0x6
 10987 0d93 25       		.uleb128 0x25
 10988 0d94 1C       		.byte	0x1c
 10989 0d95 1B       		.byte	0x1b
 10990 0d96 9F       		.byte	0x9f
 10991 0d97 00000000 		.4byte	0
 10992 0d9b 00000000 		.4byte	0
 10993              	.LLST78:
 10994 0d9f 00000000 		.4byte	.LVL370
 10995 0da3 10000000 		.4byte	.LVL372
 10996 0da7 0100     		.2byte	0x1
 10997 0da9 50       		.byte	0x50
 10998 0daa 10000000 		.4byte	.LVL372
 10999 0dae 3E000000 		.4byte	.LFE99
 11000 0db2 0100     		.2byte	0x1
 11001 0db4 56       		.byte	0x56
 11002 0db5 00000000 		.4byte	0
 11003 0db9 00000000 		.4byte	0
 11004              	.LLST79:
 11005 0dbd 0A000000 		.4byte	.LVL371
 11006 0dc1 10000000 		.4byte	.LVL372
 11007 0dc5 0200     		.2byte	0x2
 11008 0dc7 30       		.byte	0x30
 11009 0dc8 9F       		.byte	0x9f
 11010 0dc9 00000000 		.4byte	0
 11011 0dcd 00000000 		.4byte	0
 11012              	.LLST80:
 11013 0dd1 00000000 		.4byte	.LVL375
 11014 0dd5 0A000000 		.4byte	.LVL376
 11015 0dd9 0100     		.2byte	0x1
 11016 0ddb 50       		.byte	0x50
 11017 0ddc 0A000000 		.4byte	.LVL376
 11018 0de0 94010000 		.4byte	.LFE100
 11019 0de4 0100     		.2byte	0x1
 11020 0de6 55       		.byte	0x55
 11021 0de7 00000000 		.4byte	0
ARM GAS  /var/folders/6q/x_mk5n_j3p7_c40r_2k_78980000gn/T//ccu43oO2.s 			page 195


 11022 0deb 00000000 		.4byte	0
 11023              	.LLST81:
 11024 0def 00000000 		.4byte	.LVL375
 11025 0df3 0F000000 		.4byte	.LVL377-1
 11026 0df7 0100     		.2byte	0x1
 11027 0df9 51       		.byte	0x51
 11028 0dfa 0F000000 		.4byte	.LVL377-1
 11029 0dfe A8000000 		.4byte	.LVL394
 11030 0e02 0100     		.2byte	0x1
 11031 0e04 54       		.byte	0x54
 11032 0e05 A8000000 		.4byte	.LVL394
 11033 0e09 D4000000 		.4byte	.LVL399
 11034 0e0d 0600     		.2byte	0x6
 11035 0e0f F3       		.byte	0xf3
 11036 0e10 03       		.uleb128 0x3
 11037 0e11 F5       		.byte	0xf5
 11038 0e12 01       		.uleb128 0x1
 11039 0e13 25       		.uleb128 0x25
 11040 0e14 9F       		.byte	0x9f
 11041 0e15 D4000000 		.4byte	.LVL399
 11042 0e19 E6000000 		.4byte	.LVL402
 11043 0e1d 0100     		.2byte	0x1
 11044 0e1f 54       		.byte	0x54
 11045 0e20 E6000000 		.4byte	.LVL402
 11046 0e24 EA000000 		.4byte	.LVL403
 11047 0e28 0600     		.2byte	0x6
 11048 0e2a F3       		.byte	0xf3
 11049 0e2b 03       		.uleb128 0x3
 11050 0e2c F5       		.byte	0xf5
 11051 0e2d 01       		.uleb128 0x1
 11052 0e2e 25       		.uleb128 0x25
 11053 0e2f 9F       		.byte	0x9f
 11054 0e30 EA000000 		.4byte	.LVL403
 11055 0e34 6A010000 		.4byte	.LVL417
 11056 0e38 0100     		.2byte	0x1
 11057 0e3a 54       		.byte	0x54
 11058 0e3b 6A010000 		.4byte	.LVL417
 11059 0e3f 76010000 		.4byte	.LVL418
 11060 0e43 0600     		.2byte	0x6
 11061 0e45 F3       		.byte	0xf3
 11062 0e46 03       		.uleb128 0x3
 11063 0e47 F5       		.byte	0xf5
 11064 0e48 01       		.uleb128 0x1
 11065 0e49 25       		.uleb128 0x25
 11066 0e4a 9F       		.byte	0x9f
 11067 0e4b 76010000 		.4byte	.LVL418
 11068 0e4f 7C010000 		.4byte	.LVL419
 11069 0e53 0100     		.2byte	0x1
 11070 0e55 54       		.byte	0x54
 11071 0e56 7C010000 		.4byte	.LVL419
 11072 0e5a 94010000 		.4byte	.LFE100
 11073 0e5e 0600     		.2byte	0x6
 11074 0e60 F3       		.byte	0xf3
 11075 0e61 03       		.uleb128 0x3
 11076 0e62 F5       		.byte	0xf5
 11077 0e63 01       		.uleb128 0x1
 11078 0e64 25       		.uleb128 0x25
ARM GAS  /var/folders/6q/x_mk5n_j3p7_c40r_2k_78980000gn/T//ccu43oO2.s 			page 196


 11079 0e65 9F       		.byte	0x9f
 11080 0e66 00000000 		.4byte	0
 11081 0e6a 00000000 		.4byte	0
 11082              	.LLST82:
 11083 0e6e 10000000 		.4byte	.LVL377
 11084 0e72 1C000000 		.4byte	.LVL378
 11085 0e76 0700     		.2byte	0x7
 11086 0e78 70       		.byte	0x70
 11087 0e79 00       		.sleb128 0
 11088 0e7a 40       		.byte	0x40
 11089 0e7b 24       		.byte	0x24
 11090 0e7c 40       		.byte	0x40
 11091 0e7d 26       		.byte	0x26
 11092 0e7e 9F       		.byte	0x9f
 11093 0e7f A0000000 		.4byte	.LVL392
 11094 0e83 A6000000 		.4byte	.LVL393
 11095 0e87 0100     		.2byte	0x1
 11096 0e89 50       		.byte	0x50
 11097 0e8a A8000000 		.4byte	.LVL394
 11098 0e8e C6000000 		.4byte	.LVL397
 11099 0e92 0100     		.2byte	0x1
 11100 0e94 54       		.byte	0x54
 11101 0e95 CE000000 		.4byte	.LVL398
 11102 0e99 D4000000 		.4byte	.LVL399
 11103 0e9d 0100     		.2byte	0x1
 11104 0e9f 54       		.byte	0x54
 11105 0ea0 D4000000 		.4byte	.LVL399
 11106 0ea4 DA000000 		.4byte	.LVL400
 11107 0ea8 0700     		.2byte	0x7
 11108 0eaa 70       		.byte	0x70
 11109 0eab 00       		.sleb128 0
 11110 0eac 40       		.byte	0x40
 11111 0ead 24       		.byte	0x24
 11112 0eae 40       		.byte	0x40
 11113 0eaf 26       		.byte	0x26
 11114 0eb0 9F       		.byte	0x9f
 11115 0eb1 E6000000 		.4byte	.LVL402
 11116 0eb5 EA000000 		.4byte	.LVL403
 11117 0eb9 0100     		.2byte	0x1
 11118 0ebb 54       		.byte	0x54
 11119 0ebc 6A010000 		.4byte	.LVL417
 11120 0ec0 76010000 		.4byte	.LVL418
 11121 0ec4 0100     		.2byte	0x1
 11122 0ec6 50       		.byte	0x50
 11123 0ec7 00000000 		.4byte	0
 11124 0ecb 00000000 		.4byte	0
 11125              	.LLST83:
 11126 0ecf 00000000 		.4byte	.LVL420
 11127 0ed3 0A000000 		.4byte	.LVL421
 11128 0ed7 0100     		.2byte	0x1
 11129 0ed9 50       		.byte	0x50
 11130 0eda 0A000000 		.4byte	.LVL421
 11131 0ede 4A000000 		.4byte	.LFE101
 11132 0ee2 0100     		.2byte	0x1
 11133 0ee4 54       		.byte	0x54
 11134 0ee5 00000000 		.4byte	0
 11135 0ee9 00000000 		.4byte	0
ARM GAS  /var/folders/6q/x_mk5n_j3p7_c40r_2k_78980000gn/T//ccu43oO2.s 			page 197


 11136              	.LLST84:
 11137 0eed 00000000 		.4byte	.LVL420
 11138 0ef1 0C000000 		.4byte	.LVL422
 11139 0ef5 0100     		.2byte	0x1
 11140 0ef7 51       		.byte	0x51
 11141 0ef8 0C000000 		.4byte	.LVL422
 11142 0efc 4A000000 		.4byte	.LFE101
 11143 0f00 0100     		.2byte	0x1
 11144 0f02 57       		.byte	0x57
 11145 0f03 00000000 		.4byte	0
 11146 0f07 00000000 		.4byte	0
 11147              	.LLST85:
 11148 0f0b 00000000 		.4byte	.LVL432
 11149 0f0f 0A000000 		.4byte	.LVL433
 11150 0f13 0100     		.2byte	0x1
 11151 0f15 50       		.byte	0x50
 11152 0f16 0A000000 		.4byte	.LVL433
 11153 0f1a 4A000000 		.4byte	.LFE102
 11154 0f1e 0100     		.2byte	0x1
 11155 0f20 54       		.byte	0x54
 11156 0f21 00000000 		.4byte	0
 11157 0f25 00000000 		.4byte	0
 11158              	.LLST86:
 11159 0f29 00000000 		.4byte	.LVL432
 11160 0f2d 0C000000 		.4byte	.LVL434
 11161 0f31 0100     		.2byte	0x1
 11162 0f33 51       		.byte	0x51
 11163 0f34 0C000000 		.4byte	.LVL434
 11164 0f38 4A000000 		.4byte	.LFE102
 11165 0f3c 0100     		.2byte	0x1
 11166 0f3e 57       		.byte	0x57
 11167 0f3f 00000000 		.4byte	0
 11168 0f43 00000000 		.4byte	0
 11169              	.LLST87:
 11170 0f47 00000000 		.4byte	.LVL444
 11171 0f4b 10000000 		.4byte	.LVL446
 11172 0f4f 0100     		.2byte	0x1
 11173 0f51 50       		.byte	0x50
 11174 0f52 10000000 		.4byte	.LVL446
 11175 0f56 32000000 		.4byte	.LVL448
 11176 0f5a 0100     		.2byte	0x1
 11177 0f5c 54       		.byte	0x54
 11178 0f5d 32000000 		.4byte	.LVL448
 11179 0f61 36000000 		.4byte	.LVL450
 11180 0f65 0100     		.2byte	0x1
 11181 0f67 50       		.byte	0x50
 11182 0f68 36000000 		.4byte	.LVL450
 11183 0f6c 64000000 		.4byte	.LVL454
 11184 0f70 0100     		.2byte	0x1
 11185 0f72 54       		.byte	0x54
 11186 0f73 64000000 		.4byte	.LVL454
 11187 0f77 6C000000 		.4byte	.LFE103
 11188 0f7b 0400     		.2byte	0x4
 11189 0f7d F3       		.byte	0xf3
 11190 0f7e 01       		.uleb128 0x1
 11191 0f7f 50       		.byte	0x50
 11192 0f80 9F       		.byte	0x9f
ARM GAS  /var/folders/6q/x_mk5n_j3p7_c40r_2k_78980000gn/T//ccu43oO2.s 			page 198


 11193 0f81 00000000 		.4byte	0
 11194 0f85 00000000 		.4byte	0
 11195              	.LLST88:
 11196 0f89 00000000 		.4byte	.LVL444
 11197 0f8d 0E000000 		.4byte	.LVL445
 11198 0f91 0100     		.2byte	0x1
 11199 0f93 51       		.byte	0x51
 11200 0f94 0E000000 		.4byte	.LVL445
 11201 0f98 32000000 		.4byte	.LVL448
 11202 0f9c 0100     		.2byte	0x1
 11203 0f9e 55       		.byte	0x55
 11204 0f9f 32000000 		.4byte	.LVL448
 11205 0fa3 34000000 		.4byte	.LVL449
 11206 0fa7 0100     		.2byte	0x1
 11207 0fa9 51       		.byte	0x51
 11208 0faa 34000000 		.4byte	.LVL449
 11209 0fae 64000000 		.4byte	.LVL454
 11210 0fb2 0100     		.2byte	0x1
 11211 0fb4 55       		.byte	0x55
 11212 0fb5 64000000 		.4byte	.LVL454
 11213 0fb9 6C000000 		.4byte	.LFE103
 11214 0fbd 0600     		.2byte	0x6
 11215 0fbf F3       		.byte	0xf3
 11216 0fc0 03       		.uleb128 0x3
 11217 0fc1 F5       		.byte	0xf5
 11218 0fc2 01       		.uleb128 0x1
 11219 0fc3 25       		.uleb128 0x25
 11220 0fc4 9F       		.byte	0x9f
 11221 0fc5 00000000 		.4byte	0
 11222 0fc9 00000000 		.4byte	0
 11223              	.LLST89:
 11224 0fcd 54000000 		.4byte	.LVL452
 11225 0fd1 64000000 		.4byte	.LVL454
 11226 0fd5 0100     		.2byte	0x1
 11227 0fd7 55       		.byte	0x55
 11228 0fd8 64000000 		.4byte	.LVL454
 11229 0fdc 6C000000 		.4byte	.LFE103
 11230 0fe0 0600     		.2byte	0x6
 11231 0fe2 F3       		.byte	0xf3
 11232 0fe3 03       		.uleb128 0x3
 11233 0fe4 F5       		.byte	0xf5
 11234 0fe5 01       		.uleb128 0x1
 11235 0fe6 25       		.uleb128 0x25
 11236 0fe7 9F       		.byte	0x9f
 11237 0fe8 00000000 		.4byte	0
 11238 0fec 00000000 		.4byte	0
 11239              	.LLST90:
 11240 0ff0 54000000 		.4byte	.LVL452
 11241 0ff4 64000000 		.4byte	.LVL454
 11242 0ff8 0100     		.2byte	0x1
 11243 0ffa 54       		.byte	0x54
 11244 0ffb 64000000 		.4byte	.LVL454
 11245 0fff 6C000000 		.4byte	.LFE103
 11246 1003 0400     		.2byte	0x4
 11247 1005 F3       		.byte	0xf3
 11248 1006 01       		.uleb128 0x1
 11249 1007 50       		.byte	0x50
ARM GAS  /var/folders/6q/x_mk5n_j3p7_c40r_2k_78980000gn/T//ccu43oO2.s 			page 199


 11250 1008 9F       		.byte	0x9f
 11251 1009 00000000 		.4byte	0
 11252 100d 00000000 		.4byte	0
 11253              	.LLST91:
 11254 1011 00000000 		.4byte	.LVL455
 11255 1015 14000000 		.4byte	.LVL457
 11256 1019 0100     		.2byte	0x1
 11257 101b 50       		.byte	0x50
 11258 101c 14000000 		.4byte	.LVL457
 11259 1020 66000000 		.4byte	.LVL467
 11260 1024 0100     		.2byte	0x1
 11261 1026 57       		.byte	0x57
 11262 1027 66000000 		.4byte	.LVL467
 11263 102b 96000000 		.4byte	.LVL471
 11264 102f 0300     		.2byte	0x3
 11265 1031 76       		.byte	0x76
 11266 1032 70       		.sleb128 -16
 11267 1033 9F       		.byte	0x9f
 11268 1034 96000000 		.4byte	.LVL471
 11269 1038 9A000000 		.4byte	.LVL472
 11270 103c 0100     		.2byte	0x1
 11271 103e 57       		.byte	0x57
 11272 103f 9A000000 		.4byte	.LVL472
 11273 1043 9E000000 		.4byte	.LVL474
 11274 1047 0100     		.2byte	0x1
 11275 1049 50       		.byte	0x50
 11276 104a 9E000000 		.4byte	.LVL474
 11277 104e B4000000 		.4byte	.LVL477
 11278 1052 0100     		.2byte	0x1
 11279 1054 57       		.byte	0x57
 11280 1055 B4000000 		.4byte	.LVL477
 11281 1059 C8000000 		.4byte	.LFE104
 11282 105d 0300     		.2byte	0x3
 11283 105f 76       		.byte	0x76
 11284 1060 70       		.sleb128 -16
 11285 1061 9F       		.byte	0x9f
 11286 1062 00000000 		.4byte	0
 11287 1066 00000000 		.4byte	0
 11288              	.LLST92:
 11289 106a 00000000 		.4byte	.LVL455
 11290 106e 12000000 		.4byte	.LVL456
 11291 1072 0100     		.2byte	0x1
 11292 1074 51       		.byte	0x51
 11293 1075 12000000 		.4byte	.LVL456
 11294 1079 9A000000 		.4byte	.LVL472
 11295 107d 0100     		.2byte	0x1
 11296 107f 58       		.byte	0x58
 11297 1080 9A000000 		.4byte	.LVL472
 11298 1084 9C000000 		.4byte	.LVL473
 11299 1088 0100     		.2byte	0x1
 11300 108a 51       		.byte	0x51
 11301 108b 9C000000 		.4byte	.LVL473
 11302 108f C8000000 		.4byte	.LFE104
 11303 1093 0100     		.2byte	0x1
 11304 1095 58       		.byte	0x58
 11305 1096 00000000 		.4byte	0
 11306 109a 00000000 		.4byte	0
ARM GAS  /var/folders/6q/x_mk5n_j3p7_c40r_2k_78980000gn/T//ccu43oO2.s 			page 200


 11307              	.LLST93:
 11308 109e 30000000 		.4byte	.LVL460
 11309 10a2 3B000000 		.4byte	.LVL461-1
 11310 10a6 0100     		.2byte	0x1
 11311 10a8 53       		.byte	0x53
 11312 10a9 6A000000 		.4byte	.LVL468
 11313 10ad 96000000 		.4byte	.LVL471
 11314 10b1 0100     		.2byte	0x1
 11315 10b3 54       		.byte	0x54
 11316 10b4 B4000000 		.4byte	.LVL477
 11317 10b8 C8000000 		.4byte	.LFE104
 11318 10bc 0100     		.2byte	0x1
 11319 10be 54       		.byte	0x54
 11320 10bf 00000000 		.4byte	0
 11321 10c3 00000000 		.4byte	0
 11322              	.LLST94:
 11323 10c7 2C000000 		.4byte	.LVL459
 11324 10cb 5E000000 		.4byte	.LVL465
 11325 10cf 0100     		.2byte	0x1
 11326 10d1 59       		.byte	0x59
 11327 10d2 AE000000 		.4byte	.LVL476
 11328 10d6 B4000000 		.4byte	.LVL477
 11329 10da 0100     		.2byte	0x1
 11330 10dc 59       		.byte	0x59
 11331 10dd 00000000 		.4byte	0
 11332 10e1 00000000 		.4byte	0
 11333              	.LLST95:
 11334 10e5 66000000 		.4byte	.LVL467
 11335 10e9 96000000 		.4byte	.LVL471
 11336 10ed 0100     		.2byte	0x1
 11337 10ef 57       		.byte	0x57
 11338 10f0 B4000000 		.4byte	.LVL477
 11339 10f4 C8000000 		.4byte	.LFE104
 11340 10f8 0100     		.2byte	0x1
 11341 10fa 57       		.byte	0x57
 11342 10fb 00000000 		.4byte	0
 11343 10ff 00000000 		.4byte	0
 11344              	.LLST96:
 11345 1103 00000000 		.4byte	.LVL478
 11346 1107 16000000 		.4byte	.LVL480
 11347 110b 0100     		.2byte	0x1
 11348 110d 50       		.byte	0x50
 11349 110e 16000000 		.4byte	.LVL480
 11350 1112 32000000 		.4byte	.LVL484
 11351 1116 0100     		.2byte	0x1
 11352 1118 54       		.byte	0x54
 11353 1119 32000000 		.4byte	.LVL484
 11354 111d 34000000 		.4byte	.LVL485
 11355 1121 0100     		.2byte	0x1
 11356 1123 50       		.byte	0x50
 11357 1124 34000000 		.4byte	.LVL485
 11358 1128 6C000000 		.4byte	.LVL490
 11359 112c 0100     		.2byte	0x1
 11360 112e 54       		.byte	0x54
 11361 112f 6C000000 		.4byte	.LVL490
 11362 1133 78000000 		.4byte	.LFE105
 11363 1137 0400     		.2byte	0x4
ARM GAS  /var/folders/6q/x_mk5n_j3p7_c40r_2k_78980000gn/T//ccu43oO2.s 			page 201


 11364 1139 F3       		.byte	0xf3
 11365 113a 01       		.uleb128 0x1
 11366 113b 50       		.byte	0x50
 11367 113c 9F       		.byte	0x9f
 11368 113d 00000000 		.4byte	0
 11369 1141 00000000 		.4byte	0
 11370              	.LLST97:
 11371 1145 00000000 		.4byte	.LVL478
 11372 1149 14000000 		.4byte	.LVL479
 11373 114d 0100     		.2byte	0x1
 11374 114f 51       		.byte	0x51
 11375 1150 14000000 		.4byte	.LVL479
 11376 1154 32000000 		.4byte	.LVL484
 11377 1158 0100     		.2byte	0x1
 11378 115a 56       		.byte	0x56
 11379 115b 32000000 		.4byte	.LVL484
 11380 115f 3B000000 		.4byte	.LVL486-1
 11381 1163 0100     		.2byte	0x1
 11382 1165 51       		.byte	0x51
 11383 1166 3B000000 		.4byte	.LVL486-1
 11384 116a 6C000000 		.4byte	.LVL490
 11385 116e 0100     		.2byte	0x1
 11386 1170 56       		.byte	0x56
 11387 1171 6C000000 		.4byte	.LVL490
 11388 1175 78000000 		.4byte	.LFE105
 11389 1179 0600     		.2byte	0x6
 11390 117b F3       		.byte	0xf3
 11391 117c 03       		.uleb128 0x3
 11392 117d F5       		.byte	0xf5
 11393 117e 01       		.uleb128 0x1
 11394 117f 25       		.uleb128 0x25
 11395 1180 9F       		.byte	0x9f
 11396 1181 00000000 		.4byte	0
 11397 1185 00000000 		.4byte	0
 11398              	.LLST98:
 11399 1189 24000000 		.4byte	.LVL482
 11400 118d 32000000 		.4byte	.LVL484
 11401 1191 0100     		.2byte	0x1
 11402 1193 56       		.byte	0x56
 11403 1194 00000000 		.4byte	0
 11404 1198 00000000 		.4byte	0
 11405              	.LLST99:
 11406 119c 24000000 		.4byte	.LVL482
 11407 11a0 32000000 		.4byte	.LVL484
 11408 11a4 0100     		.2byte	0x1
 11409 11a6 54       		.byte	0x54
 11410 11a7 00000000 		.4byte	0
 11411 11ab 00000000 		.4byte	0
 11412              	.LLST100:
 11413 11af 00000000 		.4byte	.LVL491
 11414 11b3 32000000 		.4byte	.LVL499
 11415 11b7 0100     		.2byte	0x1
 11416 11b9 50       		.byte	0x50
 11417 11ba 32000000 		.4byte	.LVL499
 11418 11be 36000000 		.4byte	.LVL501
 11419 11c2 0300     		.2byte	0x3
 11420 11c4 71       		.byte	0x71
ARM GAS  /var/folders/6q/x_mk5n_j3p7_c40r_2k_78980000gn/T//ccu43oO2.s 			page 202


 11421 11c5 70       		.sleb128 -16
 11422 11c6 9F       		.byte	0x9f
 11423 11c7 36000000 		.4byte	.LVL501
 11424 11cb 3A000000 		.4byte	.LFE106
 11425 11cf 0400     		.2byte	0x4
 11426 11d1 F3       		.byte	0xf3
 11427 11d2 01       		.uleb128 0x1
 11428 11d3 50       		.byte	0x50
 11429 11d4 9F       		.byte	0x9f
 11430 11d5 00000000 		.4byte	0
 11431 11d9 00000000 		.4byte	0
 11432              	.LLST101:
 11433 11dd 0E000000 		.4byte	.LVL492
 11434 11e1 14000000 		.4byte	.LVL493
 11435 11e5 0200     		.2byte	0x2
 11436 11e7 30       		.byte	0x30
 11437 11e8 9F       		.byte	0x9f
 11438 11e9 00000000 		.4byte	0
 11439 11ed 00000000 		.4byte	0
 11440              	.LLST102:
 11441 11f1 18000000 		.4byte	.LVL494
 11442 11f5 22000000 		.4byte	.LVL495
 11443 11f9 0100     		.2byte	0x1
 11444 11fb 53       		.byte	0x53
 11445 11fc 22000000 		.4byte	.LVL495
 11446 1200 2C000000 		.4byte	.LVL497
 11447 1204 0200     		.2byte	0x2
 11448 1206 72       		.byte	0x72
 11449 1207 00       		.sleb128 0
 11450 1208 30000000 		.4byte	.LVL498
 11451 120c 39000000 		.4byte	.LVL502-1
 11452 1210 0200     		.2byte	0x2
 11453 1212 72       		.byte	0x72
 11454 1213 00       		.sleb128 0
 11455 1214 00000000 		.4byte	0
 11456 1218 00000000 		.4byte	0
 11457              	.LLST103:
 11458 121c 0E000000 		.4byte	.LVL492
 11459 1220 2C000000 		.4byte	.LVL497
 11460 1224 0100     		.2byte	0x1
 11461 1226 54       		.byte	0x54
 11462 1227 30000000 		.4byte	.LVL498
 11463 122b 34000000 		.4byte	.LVL500
 11464 122f 0100     		.2byte	0x1
 11465 1231 54       		.byte	0x54
 11466 1232 00000000 		.4byte	0
 11467 1236 00000000 		.4byte	0
 11468              	.LLST104:
 11469 123a 00000000 		.4byte	.LVL503
 11470 123e 0C000000 		.4byte	.LVL504
 11471 1242 0100     		.2byte	0x1
 11472 1244 50       		.byte	0x50
 11473 1245 0C000000 		.4byte	.LVL504
 11474 1249 A8020000 		.4byte	.LFE107
 11475 124d 0400     		.2byte	0x4
 11476 124f F3       		.byte	0xf3
 11477 1250 01       		.uleb128 0x1
ARM GAS  /var/folders/6q/x_mk5n_j3p7_c40r_2k_78980000gn/T//ccu43oO2.s 			page 203


 11478 1251 50       		.byte	0x50
 11479 1252 9F       		.byte	0x9f
 11480 1253 00000000 		.4byte	0
 11481 1257 00000000 		.4byte	0
 11482              	.LLST105:
 11483 125b 00000000 		.4byte	.LVL503
 11484 125f 28000000 		.4byte	.LVL506
 11485 1263 0200     		.2byte	0x2
 11486 1265 30       		.byte	0x30
 11487 1266 9F       		.byte	0x9f
 11488 1267 28000000 		.4byte	.LVL506
 11489 126b 00010000 		.4byte	.LVL529
 11490 126f 0100     		.2byte	0x1
 11491 1271 56       		.byte	0x56
 11492 1272 CC010000 		.4byte	.LVL556
 11493 1276 5A020000 		.4byte	.LVL571
 11494 127a 0100     		.2byte	0x1
 11495 127c 56       		.byte	0x56
 11496 127d 62020000 		.4byte	.LVL572
 11497 1281 A8020000 		.4byte	.LFE107
 11498 1285 0100     		.2byte	0x1
 11499 1287 56       		.byte	0x56
 11500 1288 00000000 		.4byte	0
 11501 128c 00000000 		.4byte	0
 11502              	.LLST106:
 11503 1290 5E000000 		.4byte	.LVL513
 11504 1294 60000000 		.4byte	.LVL514
 11505 1298 0100     		.2byte	0x1
 11506 129a 50       		.byte	0x50
 11507 129b 60000000 		.4byte	.LVL514
 11508 129f 0E010000 		.4byte	.LVL530
 11509 12a3 0100     		.2byte	0x1
 11510 12a5 58       		.byte	0x58
 11511 12a6 0E010000 		.4byte	.LVL530
 11512 12aa CC010000 		.4byte	.LVL556
 11513 12ae 0200     		.2byte	0x2
 11514 12b0 7D       		.byte	0x7d
 11515 12b1 00       		.sleb128 0
 11516 12b2 CC010000 		.4byte	.LVL556
 11517 12b6 5A020000 		.4byte	.LVL571
 11518 12ba 0100     		.2byte	0x1
 11519 12bc 58       		.byte	0x58
 11520 12bd 62020000 		.4byte	.LVL572
 11521 12c1 A8020000 		.4byte	.LFE107
 11522 12c5 0100     		.2byte	0x1
 11523 12c7 58       		.byte	0x58
 11524 12c8 00000000 		.4byte	0
 11525 12cc 00000000 		.4byte	0
 11526              	.LLST107:
 11527 12d0 5E000000 		.4byte	.LVL513
 11528 12d4 FA000000 		.4byte	.LVL528
 11529 12d8 0C00     		.2byte	0xc
 11530 12da 76       		.byte	0x76
 11531 12db 00       		.sleb128 0
 11532 12dc 08       		.byte	0x8
 11533 12dd 7C       		.byte	0x7c
 11534 12de 1E       		.byte	0x1e
ARM GAS  /var/folders/6q/x_mk5n_j3p7_c40r_2k_78980000gn/T//ccu43oO2.s 			page 204


 11535 12df 03       		.byte	0x3
 11536 12e0 00000000 		.4byte	sMotors
 11537 12e4 22       		.byte	0x22
 11538 12e5 9F       		.byte	0x9f
 11539 12e6 FA000000 		.4byte	.LVL528
 11540 12ea 00010000 		.4byte	.LVL529
 11541 12ee 0C00     		.2byte	0xc
 11542 12f0 76       		.byte	0x76
 11543 12f1 7F       		.sleb128 -1
 11544 12f2 08       		.byte	0x8
 11545 12f3 7C       		.byte	0x7c
 11546 12f4 1E       		.byte	0x1e
 11547 12f5 03       		.byte	0x3
 11548 12f6 00000000 		.4byte	sMotors
 11549 12fa 22       		.byte	0x22
 11550 12fb 9F       		.byte	0x9f
 11551 12fc CC010000 		.4byte	.LVL556
 11552 1300 5A020000 		.4byte	.LVL571
 11553 1304 0C00     		.2byte	0xc
 11554 1306 76       		.byte	0x76
 11555 1307 00       		.sleb128 0
 11556 1308 08       		.byte	0x8
 11557 1309 7C       		.byte	0x7c
 11558 130a 1E       		.byte	0x1e
 11559 130b 03       		.byte	0x3
 11560 130c 00000000 		.4byte	sMotors
 11561 1310 22       		.byte	0x22
 11562 1311 9F       		.byte	0x9f
 11563 1312 62020000 		.4byte	.LVL572
 11564 1316 A8020000 		.4byte	.LFE107
 11565 131a 0C00     		.2byte	0xc
 11566 131c 76       		.byte	0x76
 11567 131d 00       		.sleb128 0
 11568 131e 08       		.byte	0x8
 11569 131f 7C       		.byte	0x7c
 11570 1320 1E       		.byte	0x1e
 11571 1321 03       		.byte	0x3
 11572 1322 00000000 		.4byte	sMotors
 11573 1326 22       		.byte	0x22
 11574 1327 9F       		.byte	0x9f
 11575 1328 00000000 		.4byte	0
 11576 132c 00000000 		.4byte	0
 11577              	.LLST108:
 11578 1330 92000000 		.4byte	.LVL516
 11579 1334 A5000000 		.4byte	.LVL518-1
 11580 1338 0500     		.2byte	0x5
 11581 133a 03       		.byte	0x3
 11582 133b 00000000 		.4byte	delayTimeMs.8947
 11583 133f CA000000 		.4byte	.LVL523
 11584 1343 CD000000 		.4byte	.LVL524-1
 11585 1347 0100     		.2byte	0x1
 11586 1349 50       		.byte	0x50
 11587 134a 00000000 		.4byte	0
 11588 134e 00000000 		.4byte	0
 11589              	.LLST109:
 11590 1352 92000000 		.4byte	.LVL516
 11591 1356 E2000000 		.4byte	.LVL527
ARM GAS  /var/folders/6q/x_mk5n_j3p7_c40r_2k_78980000gn/T//ccu43oO2.s 			page 205


 11592 135a 0C00     		.2byte	0xc
 11593 135c 76       		.byte	0x76
 11594 135d 00       		.sleb128 0
 11595 135e 08       		.byte	0x8
 11596 135f 7C       		.byte	0x7c
 11597 1360 1E       		.byte	0x1e
 11598 1361 03       		.byte	0x3
 11599 1362 00000000 		.4byte	sMotors
 11600 1366 22       		.byte	0x22
 11601 1367 9F       		.byte	0x9f
 11602 1368 00000000 		.4byte	0
 11603 136c 00000000 		.4byte	0
 11604              	.LLST110:
 11605 1370 A0000000 		.4byte	.LVL517
 11606 1374 A5000000 		.4byte	.LVL518-1
 11607 1378 3900     		.2byte	0x39
 11608 137a F5       		.byte	0xf5
 11609 137b 01       		.uleb128 0x1
 11610 137c 25       		.uleb128 0x25
 11611 137d F5       		.byte	0xf5
 11612 137e 01       		.uleb128 0x1
 11613 137f 25       		.uleb128 0x25
 11614 1380 1E       		.byte	0x1e
 11615 1381 76       		.byte	0x76
 11616 1382 00       		.sleb128 0
 11617 1383 08       		.byte	0x8
 11618 1384 7C       		.byte	0x7c
 11619 1385 1E       		.byte	0x1e
 11620 1386 03       		.byte	0x3
 11621 1387 68000000 		.4byte	sMotors+104
 11622 138b 22       		.byte	0x22
 11623 138c F6       		.byte	0xf6
 11624 138d 04       		.byte	0x4
 11625 138e 25       		.uleb128 0x25
 11626 138f 1E       		.byte	0x1e
 11627 1390 F5       		.byte	0xf5
 11628 1391 09       		.uleb128 0x9
 11629 1392 25       		.uleb128 0x25
 11630 1393 76       		.byte	0x76
 11631 1394 00       		.sleb128 0
 11632 1395 08       		.byte	0x8
 11633 1396 7C       		.byte	0x7c
 11634 1397 1E       		.byte	0x1e
 11635 1398 03       		.byte	0x3
 11636 1399 70000000 		.4byte	sMotors+112
 11637 139d 22       		.byte	0x22
 11638 139e F6       		.byte	0xf6
 11639 139f 04       		.byte	0x4
 11640 13a0 25       		.uleb128 0x25
 11641 13a1 1C       		.byte	0x1c
 11642 13a2 1C       		.byte	0x1c
 11643 13a3 76       		.byte	0x76
 11644 13a4 00       		.sleb128 0
 11645 13a5 08       		.byte	0x8
 11646 13a6 7C       		.byte	0x7c
 11647 13a7 1E       		.byte	0x1e
 11648 13a8 03       		.byte	0x3
ARM GAS  /var/folders/6q/x_mk5n_j3p7_c40r_2k_78980000gn/T//ccu43oO2.s 			page 206


 11649 13a9 6C000000 		.4byte	sMotors+108
 11650 13ad 22       		.byte	0x22
 11651 13ae F6       		.byte	0xf6
 11652 13af 04       		.byte	0x4
 11653 13b0 25       		.uleb128 0x25
 11654 13b1 1E       		.byte	0x1e
 11655 13b2 9F       		.byte	0x9f
 11656 13b3 00000000 		.4byte	0
 11657 13b7 00000000 		.4byte	0
 11658              	.LLST111:
 11659 13bb 88010000 		.4byte	.LVL547
 11660 13bf C2010000 		.4byte	.LVL554
 11661 13c3 0600     		.2byte	0x6
 11662 13c5 03       		.byte	0x3
 11663 13c6 68000000 		.4byte	sPorts+104
 11664 13ca 9F       		.byte	0x9f
 11665 13cb 00000000 		.4byte	0
 11666 13cf 00000000 		.4byte	0
 11667              	.LLST112:
 11668 13d3 0E010000 		.4byte	.LVL530
 11669 13d7 6A010000 		.4byte	.LVL543
 11670 13db 0100     		.2byte	0x1
 11671 13dd 54       		.byte	0x54
 11672 13de 6A010000 		.4byte	.LVL543
 11673 13e2 90010000 		.4byte	.LVL548
 11674 13e6 0300     		.2byte	0x3
 11675 13e8 74       		.byte	0x74
 11676 13e9 4C       		.sleb128 -52
 11677 13ea 9F       		.byte	0x9f
 11678 13eb C2010000 		.4byte	.LVL554
 11679 13ef CC010000 		.4byte	.LVL556
 11680 13f3 0100     		.2byte	0x1
 11681 13f5 54       		.byte	0x54
 11682 13f6 00000000 		.4byte	0
 11683 13fa 00000000 		.4byte	0
 11684              	.LLST113:
 11685 13fe 14010000 		.4byte	.LVL531
 11686 1402 1F010000 		.4byte	.LVL533-1
 11687 1406 0500     		.2byte	0x5
 11688 1408 03       		.byte	0x3
 11689 1409 00000000 		.4byte	delayTimeMs.8947
 11690 140d 44010000 		.4byte	.LVL538
 11691 1411 47010000 		.4byte	.LVL539-1
 11692 1415 0100     		.2byte	0x1
 11693 1417 50       		.byte	0x50
 11694 1418 00000000 		.4byte	0
 11695 141c 00000000 		.4byte	0
 11696              	.LLST114:
 11697 1420 14010000 		.4byte	.LVL531
 11698 1424 5C010000 		.4byte	.LVL542
 11699 1428 0100     		.2byte	0x1
 11700 142a 54       		.byte	0x54
 11701 142b 00000000 		.4byte	0
 11702 142f 00000000 		.4byte	0
 11703              	.LLST115:
 11704 1433 1A010000 		.4byte	.LVL532
 11705 1437 1F010000 		.4byte	.LVL533-1
ARM GAS  /var/folders/6q/x_mk5n_j3p7_c40r_2k_78980000gn/T//ccu43oO2.s 			page 207


 11706 143b 1E00     		.2byte	0x1e
 11707 143d F5       		.byte	0xf5
 11708 143e 01       		.uleb128 0x1
 11709 143f 25       		.uleb128 0x25
 11710 1440 F5       		.byte	0xf5
 11711 1441 01       		.uleb128 0x1
 11712 1442 25       		.uleb128 0x25
 11713 1443 1E       		.byte	0x1e
 11714 1444 74       		.byte	0x74
 11715 1445 24       		.sleb128 36
 11716 1446 F6       		.byte	0xf6
 11717 1447 04       		.byte	0x4
 11718 1448 25       		.uleb128 0x25
 11719 1449 1E       		.byte	0x1e
 11720 144a F5       		.byte	0xf5
 11721 144b 0B       		.uleb128 0xb
 11722 144c 25       		.uleb128 0x25
 11723 144d 74       		.byte	0x74
 11724 144e 2C       		.sleb128 44
 11725 144f F6       		.byte	0xf6
 11726 1450 04       		.byte	0x4
 11727 1451 25       		.uleb128 0x25
 11728 1452 1C       		.byte	0x1c
 11729 1453 1C       		.byte	0x1c
 11730 1454 74       		.byte	0x74
 11731 1455 28       		.sleb128 40
 11732 1456 F6       		.byte	0xf6
 11733 1457 04       		.byte	0x4
 11734 1458 25       		.uleb128 0x25
 11735 1459 1E       		.byte	0x1e
 11736 145a 9F       		.byte	0x9f
 11737 145b 00000000 		.4byte	0
 11738 145f 00000000 		.4byte	0
 11739              	.LLST116:
 11740 1463 98010000 		.4byte	.LVL549
 11741 1467 9B010000 		.4byte	.LVL550-1
 11742 146b 1500     		.2byte	0x15
 11743 146d 70       		.byte	0x70
 11744 146e 00       		.sleb128 0
 11745 146f F7       		.byte	0xf7
 11746 1470 3A       		.uleb128 0x3a
 11747 1471 F7       		.byte	0xf7
 11748 1472 2C       		.uleb128 0x2c
 11749 1473 F4       		.byte	0xf4
 11750 1474 2C       		.uleb128 0x2c
 11751 1475 08       		.byte	0x8
 11752 1476 00000000 		.4byte	0
 11753 147a 00E07040 		.4byte	0x4070e000
 11754 147e 1B       		.byte	0x1b
 11755 147f F7       		.byte	0xf7
 11756 1480 25       		.uleb128 0x25
 11757 1481 9F       		.byte	0x9f
 11758 1482 00000000 		.4byte	0
 11759 1486 00000000 		.4byte	0
 11760              	.LLST117:
 11761 148a CC010000 		.4byte	.LVL556
 11762 148e DB010000 		.4byte	.LVL557-1
ARM GAS  /var/folders/6q/x_mk5n_j3p7_c40r_2k_78980000gn/T//ccu43oO2.s 			page 208


 11763 1492 0100     		.2byte	0x1
 11764 1494 51       		.byte	0x51
 11765 1495 DB010000 		.4byte	.LVL557-1
 11766 1499 0E020000 		.4byte	.LVL561
 11767 149d 0200     		.2byte	0x2
 11768 149f 7D       		.byte	0x7d
 11769 14a0 00       		.sleb128 0
 11770 14a1 00000000 		.4byte	0
 11771 14a5 00000000 		.4byte	0
 11772              	.LLST118:
 11773 14a9 CC010000 		.4byte	.LVL556
 11774 14ad 46020000 		.4byte	.LVL568
 11775 14b1 0C00     		.2byte	0xc
 11776 14b3 76       		.byte	0x76
 11777 14b4 00       		.sleb128 0
 11778 14b5 08       		.byte	0x8
 11779 14b6 7C       		.byte	0x7c
 11780 14b7 1E       		.byte	0x1e
 11781 14b8 03       		.byte	0x3
 11782 14b9 00000000 		.4byte	sMotors
 11783 14bd 22       		.byte	0x22
 11784 14be 9F       		.byte	0x9f
 11785 14bf 00000000 		.4byte	0
 11786 14c3 00000000 		.4byte	0
 11787              	.LLST119:
 11788 14c7 CC010000 		.4byte	.LVL556
 11789 14cb DB010000 		.4byte	.LVL557-1
 11790 14cf 0100     		.2byte	0x1
 11791 14d1 50       		.byte	0x50
 11792 14d2 00000000 		.4byte	0
 11793 14d6 00000000 		.4byte	0
 11794              		.section	.debug_aranges,"",%progbits
 11795 0000 4C010000 		.4byte	0x14c
 11796 0004 0200     		.2byte	0x2
 11797 0006 00000000 		.4byte	.Ldebug_info0
 11798 000a 04       		.byte	0x4
 11799 000b 00       		.byte	0
 11800 000c 0000     		.2byte	0
 11801 000e 0000     		.2byte	0
 11802 0010 00000000 		.4byte	.LFB108
 11803 0014 78010000 		.4byte	.LFE108-.LFB108
 11804 0018 00000000 		.4byte	.LFB69
 11805 001c 18000000 		.4byte	.LFE69-.LFB69
 11806 0020 00000000 		.4byte	.LFB70
 11807 0024 18000000 		.4byte	.LFE70-.LFB70
 11808 0028 00000000 		.4byte	.LFB71
 11809 002c 1C000000 		.4byte	.LFE71-.LFB71
 11810 0030 00000000 		.4byte	.LFB72
 11811 0034 3C000000 		.4byte	.LFE72-.LFB72
 11812 0038 00000000 		.4byte	.LFB73
 11813 003c 1C000000 		.4byte	.LFE73-.LFB73
 11814 0040 00000000 		.4byte	.LFB74
 11815 0044 20000000 		.4byte	.LFE74-.LFB74
 11816 0048 00000000 		.4byte	.LFB75
 11817 004c 20000000 		.4byte	.LFE75-.LFB75
 11818 0050 00000000 		.4byte	.LFB76
 11819 0054 74000000 		.4byte	.LFE76-.LFB76
ARM GAS  /var/folders/6q/x_mk5n_j3p7_c40r_2k_78980000gn/T//ccu43oO2.s 			page 209


 11820 0058 00000000 		.4byte	.LFB77
 11821 005c 1C000000 		.4byte	.LFE77-.LFB77
 11822 0060 00000000 		.4byte	.LFB78
 11823 0064 1C000000 		.4byte	.LFE78-.LFB78
 11824 0068 00000000 		.4byte	.LFB79
 11825 006c 1C000000 		.4byte	.LFE79-.LFB79
 11826 0070 00000000 		.4byte	.LFB80
 11827 0074 1C000000 		.4byte	.LFE80-.LFB80
 11828 0078 00000000 		.4byte	.LFB81
 11829 007c 14000000 		.4byte	.LFE81-.LFB81
 11830 0080 00000000 		.4byte	.LFB82
 11831 0084 18000000 		.4byte	.LFE82-.LFB82
 11832 0088 00000000 		.4byte	.LFB83
 11833 008c 0C000000 		.4byte	.LFE83-.LFB83
 11834 0090 00000000 		.4byte	.LFB84
 11835 0094 18000000 		.4byte	.LFE84-.LFB84
 11836 0098 00000000 		.4byte	.LFB85
 11837 009c 0C000000 		.4byte	.LFE85-.LFB85
 11838 00a0 00000000 		.4byte	.LFB86
 11839 00a4 24000000 		.4byte	.LFE86-.LFB86
 11840 00a8 00000000 		.4byte	.LFB87
 11841 00ac 2C000000 		.4byte	.LFE87-.LFB87
 11842 00b0 00000000 		.4byte	.LFB88
 11843 00b4 D8000000 		.4byte	.LFE88-.LFB88
 11844 00b8 00000000 		.4byte	.LFB89
 11845 00bc 6C000000 		.4byte	.LFE89-.LFB89
 11846 00c0 00000000 		.4byte	.LFB90
 11847 00c4 F8020000 		.4byte	.LFE90-.LFB90
 11848 00c8 00000000 		.4byte	.LFB91
 11849 00cc 44000000 		.4byte	.LFE91-.LFB91
 11850 00d0 00000000 		.4byte	.LFB92
 11851 00d4 28000000 		.4byte	.LFE92-.LFB92
 11852 00d8 00000000 		.4byte	.LFB93
 11853 00dc 74000000 		.4byte	.LFE93-.LFB93
 11854 00e0 00000000 		.4byte	.LFB94
 11855 00e4 38000000 		.4byte	.LFE94-.LFB94
 11856 00e8 00000000 		.4byte	.LFB95
 11857 00ec 7C000000 		.4byte	.LFE95-.LFB95
 11858 00f0 00000000 		.4byte	.LFB96
 11859 00f4 D0000000 		.4byte	.LFE96-.LFB96
 11860 00f8 00000000 		.4byte	.LFB98
 11861 00fc DC040000 		.4byte	.LFE98-.LFB98
 11862 0100 00000000 		.4byte	.LFB99
 11863 0104 3E000000 		.4byte	.LFE99-.LFB99
 11864 0108 00000000 		.4byte	.LFB100
 11865 010c 94010000 		.4byte	.LFE100-.LFB100
 11866 0110 00000000 		.4byte	.LFB101
 11867 0114 4A000000 		.4byte	.LFE101-.LFB101
 11868 0118 00000000 		.4byte	.LFB102
 11869 011c 4A000000 		.4byte	.LFE102-.LFB102
 11870 0120 00000000 		.4byte	.LFB103
 11871 0124 6C000000 		.4byte	.LFE103-.LFB103
 11872 0128 00000000 		.4byte	.LFB104
 11873 012c C8000000 		.4byte	.LFE104-.LFB104
 11874 0130 00000000 		.4byte	.LFB105
 11875 0134 78000000 		.4byte	.LFE105-.LFB105
 11876 0138 00000000 		.4byte	.LFB106
ARM GAS  /var/folders/6q/x_mk5n_j3p7_c40r_2k_78980000gn/T//ccu43oO2.s 			page 210


 11877 013c 3A000000 		.4byte	.LFE106-.LFB106
 11878 0140 00000000 		.4byte	.LFB107
 11879 0144 A8020000 		.4byte	.LFE107-.LFB107
 11880 0148 00000000 		.4byte	0
 11881 014c 00000000 		.4byte	0
 11882              		.section	.debug_ranges,"",%progbits
 11883              	.Ldebug_ranges0:
 11884 0000 B0000000 		.4byte	.LBB46
 11885 0004 B2000000 		.4byte	.LBE46
 11886 0008 B4000000 		.4byte	.LBB51
 11887 000c CA000000 		.4byte	.LBE51
 11888 0010 10010000 		.4byte	.LBB62
 11889 0014 14010000 		.4byte	.LBE62
 11890 0018 42010000 		.4byte	.LBB64
 11891 001c 48010000 		.4byte	.LBE64
 11892 0020 00000000 		.4byte	0
 11893 0024 00000000 		.4byte	0
 11894 0028 D0000000 		.4byte	.LBB52
 11895 002c D2000000 		.4byte	.LBE52
 11896 0030 D4000000 		.4byte	.LBB59
 11897 0034 DC000000 		.4byte	.LBE59
 11898 0038 FA000000 		.4byte	.LBB60
 11899 003c FC000000 		.4byte	.LBE60
 11900 0040 FE000000 		.4byte	.LBB61
 11901 0044 10010000 		.4byte	.LBE61
 11902 0048 14010000 		.4byte	.LBB63
 11903 004c 16010000 		.4byte	.LBE63
 11904 0050 48010000 		.4byte	.LBB65
 11905 0054 78010000 		.4byte	.LBE65
 11906 0058 00000000 		.4byte	0
 11907 005c 00000000 		.4byte	0
 11908 0060 02000000 		.4byte	.LBB66
 11909 0064 04000000 		.4byte	.LBE66
 11910 0068 06000000 		.4byte	.LBB73
 11911 006c 08000000 		.4byte	.LBE73
 11912 0070 0A000000 		.4byte	.LBB74
 11913 0074 0C000000 		.4byte	.LBE74
 11914 0078 00000000 		.4byte	0
 11915 007c 00000000 		.4byte	0
 11916 0080 04000000 		.4byte	.LBB70
 11917 0084 06000000 		.4byte	.LBE70
 11918 0088 0C000000 		.4byte	.LBB75
 11919 008c 0E000000 		.4byte	.LBE75
 11920 0090 00000000 		.4byte	0
 11921 0094 00000000 		.4byte	0
 11922 0098 80000000 		.4byte	.LBB76
 11923 009c 82000000 		.4byte	.LBE76
 11924 00a0 84000000 		.4byte	.LBB80
 11925 00a4 98000000 		.4byte	.LBE80
 11926 00a8 AC000000 		.4byte	.LBB81
 11927 00ac D0000000 		.4byte	.LBE81
 11928 00b0 00000000 		.4byte	0
 11929 00b4 00000000 		.4byte	0
 11930 00b8 68000000 		.4byte	.LBB82
 11931 00bc 6A000000 		.4byte	.LBE82
 11932 00c0 6C000000 		.4byte	.LBB87
 11933 00c4 86000000 		.4byte	.LBE87
ARM GAS  /var/folders/6q/x_mk5n_j3p7_c40r_2k_78980000gn/T//ccu43oO2.s 			page 211


 11934 00c8 C0030000 		.4byte	.LBB136
 11935 00cc DC030000 		.4byte	.LBE136
 11936 00d0 9C040000 		.4byte	.LBB153
 11937 00d4 DC040000 		.4byte	.LBE153
 11938 00d8 00000000 		.4byte	0
 11939 00dc 00000000 		.4byte	0
 11940 00e0 A2000000 		.4byte	.LBB88
 11941 00e4 32010000 		.4byte	.LBE88
 11942 00e8 34010000 		.4byte	.LBB119
 11943 00ec 36010000 		.4byte	.LBE119
 11944 00f0 00040000 		.4byte	.LBB139
 11945 00f4 06040000 		.4byte	.LBE139
 11946 00f8 0C040000 		.4byte	.LBB141
 11947 00fc 12040000 		.4byte	.LBE141
 11948 0100 00000000 		.4byte	0
 11949 0104 00000000 		.4byte	0
 11950 0108 B0000000 		.4byte	.LBB90
 11951 010c B2000000 		.4byte	.LBE90
 11952 0110 B4000000 		.4byte	.LBB96
 11953 0114 32010000 		.4byte	.LBE96
 11954 0118 34010000 		.4byte	.LBB97
 11955 011c 36010000 		.4byte	.LBE97
 11956 0120 00040000 		.4byte	.LBB98
 11957 0124 06040000 		.4byte	.LBE98
 11958 0128 0C040000 		.4byte	.LBB99
 11959 012c 12040000 		.4byte	.LBE99
 11960 0130 00000000 		.4byte	0
 11961 0134 00000000 		.4byte	0
 11962 0138 32010000 		.4byte	.LBB103
 11963 013c 34010000 		.4byte	.LBE103
 11964 0140 36010000 		.4byte	.LBB120
 11965 0144 BE010000 		.4byte	.LBE120
 11966 0148 C0010000 		.4byte	.LBB121
 11967 014c C2010000 		.4byte	.LBE121
 11968 0150 F8030000 		.4byte	.LBB138
 11969 0154 00040000 		.4byte	.LBE138
 11970 0158 06040000 		.4byte	.LBB140
 11971 015c 0C040000 		.4byte	.LBE140
 11972 0160 00000000 		.4byte	0
 11973 0164 00000000 		.4byte	0
 11974 0168 42010000 		.4byte	.LBB105
 11975 016c 44010000 		.4byte	.LBE105
 11976 0170 46010000 		.4byte	.LBB111
 11977 0174 BE010000 		.4byte	.LBE111
 11978 0178 C0010000 		.4byte	.LBB112
 11979 017c C2010000 		.4byte	.LBE112
 11980 0180 F8030000 		.4byte	.LBB113
 11981 0184 00040000 		.4byte	.LBE113
 11982 0188 06040000 		.4byte	.LBB114
 11983 018c 0C040000 		.4byte	.LBE114
 11984 0190 00000000 		.4byte	0
 11985 0194 00000000 		.4byte	0
 11986 0198 DC010000 		.4byte	.LBB122
 11987 019c FC010000 		.4byte	.LBE122
 11988 01a0 80040000 		.4byte	.LBB150
 11989 01a4 82040000 		.4byte	.LBE150
 11990 01a8 98040000 		.4byte	.LBB152
ARM GAS  /var/folders/6q/x_mk5n_j3p7_c40r_2k_78980000gn/T//ccu43oO2.s 			page 212


 11991 01ac 9C040000 		.4byte	.LBE152
 11992 01b0 00000000 		.4byte	0
 11993 01b4 00000000 		.4byte	0
 11994 01b8 72030000 		.4byte	.LBB126
 11995 01bc 74030000 		.4byte	.LBE126
 11996 01c0 76030000 		.4byte	.LBB130
 11997 01c4 84030000 		.4byte	.LBE130
 11998 01c8 A4030000 		.4byte	.LBB135
 11999 01cc B6030000 		.4byte	.LBE135
 12000 01d0 00000000 		.4byte	0
 12001 01d4 00000000 		.4byte	0
 12002 01d8 88030000 		.4byte	.LBB131
 12003 01dc 9E030000 		.4byte	.LBE131
 12004 01e0 DC030000 		.4byte	.LBB137
 12005 01e4 F8030000 		.4byte	.LBE137
 12006 01e8 8C040000 		.4byte	.LBB151
 12007 01ec 98040000 		.4byte	.LBE151
 12008 01f0 00000000 		.4byte	0
 12009 01f4 00000000 		.4byte	0
 12010 01f8 12040000 		.4byte	.LBB142
 12011 01fc 2E040000 		.4byte	.LBE142
 12012 0200 3C040000 		.4byte	.LBB149
 12013 0204 40040000 		.4byte	.LBE149
 12014 0208 00000000 		.4byte	0
 12015 020c 00000000 		.4byte	0
 12016 0210 12040000 		.4byte	.LBB144
 12017 0214 2E040000 		.4byte	.LBE144
 12018 0218 3C040000 		.4byte	.LBB147
 12019 021c 40040000 		.4byte	.LBE147
 12020 0220 00000000 		.4byte	0
 12021 0224 00000000 		.4byte	0
 12022 0228 12040000 		.4byte	.LBB145
 12023 022c 2E040000 		.4byte	.LBE145
 12024 0230 3C040000 		.4byte	.LBB146
 12025 0234 40040000 		.4byte	.LBE146
 12026 0238 00000000 		.4byte	0
 12027 023c 00000000 		.4byte	0
 12028 0240 2C000000 		.4byte	.LBB162
 12029 0244 9A000000 		.4byte	.LBE162
 12030 0248 AE000000 		.4byte	.LBB167
 12031 024c C8000000 		.4byte	.LBE167
 12032 0250 00000000 		.4byte	0
 12033 0254 00000000 		.4byte	0
 12034 0258 28000000 		.4byte	.LBB183
 12035 025c 2E000000 		.4byte	.LBE183
 12036 0260 38000000 		.4byte	.LBB199
 12037 0264 5A020000 		.4byte	.LBE199
 12038 0268 62020000 		.4byte	.LBB200
 12039 026c A8020000 		.4byte	.LBE200
 12040 0270 00000000 		.4byte	0
 12041 0274 00000000 		.4byte	0
 12042 0278 92000000 		.4byte	.LBB184
 12043 027c DC000000 		.4byte	.LBE184
 12044 0280 E0000000 		.4byte	.LBB187
 12045 0284 E2000000 		.4byte	.LBE187
 12046 0288 00000000 		.4byte	0
 12047 028c 00000000 		.4byte	0
ARM GAS  /var/folders/6q/x_mk5n_j3p7_c40r_2k_78980000gn/T//ccu43oO2.s 			page 213


 12048 0290 0E010000 		.4byte	.LBB189
 12049 0294 70010000 		.4byte	.LBE189
 12050 0298 C2010000 		.4byte	.LBB196
 12051 029c CC010000 		.4byte	.LBE196
 12052 02a0 00000000 		.4byte	0
 12053 02a4 00000000 		.4byte	0
 12054 02a8 14010000 		.4byte	.LBB190
 12055 02ac 56010000 		.4byte	.LBE190
 12056 02b0 5A010000 		.4byte	.LBB193
 12057 02b4 5C010000 		.4byte	.LBE193
 12058 02b8 00000000 		.4byte	0
 12059 02bc 00000000 		.4byte	0
 12060 02c0 00000000 		.4byte	.LFB108
 12061 02c4 78010000 		.4byte	.LFE108
 12062 02c8 00000000 		.4byte	.LFB69
 12063 02cc 18000000 		.4byte	.LFE69
 12064 02d0 00000000 		.4byte	.LFB70
 12065 02d4 18000000 		.4byte	.LFE70
 12066 02d8 00000000 		.4byte	.LFB71
 12067 02dc 1C000000 		.4byte	.LFE71
 12068 02e0 00000000 		.4byte	.LFB72
 12069 02e4 3C000000 		.4byte	.LFE72
 12070 02e8 00000000 		.4byte	.LFB73
 12071 02ec 1C000000 		.4byte	.LFE73
 12072 02f0 00000000 		.4byte	.LFB74
 12073 02f4 20000000 		.4byte	.LFE74
 12074 02f8 00000000 		.4byte	.LFB75
 12075 02fc 20000000 		.4byte	.LFE75
 12076 0300 00000000 		.4byte	.LFB76
 12077 0304 74000000 		.4byte	.LFE76
 12078 0308 00000000 		.4byte	.LFB77
 12079 030c 1C000000 		.4byte	.LFE77
 12080 0310 00000000 		.4byte	.LFB78
 12081 0314 1C000000 		.4byte	.LFE78
 12082 0318 00000000 		.4byte	.LFB79
 12083 031c 1C000000 		.4byte	.LFE79
 12084 0320 00000000 		.4byte	.LFB80
 12085 0324 1C000000 		.4byte	.LFE80
 12086 0328 00000000 		.4byte	.LFB81
 12087 032c 14000000 		.4byte	.LFE81
 12088 0330 00000000 		.4byte	.LFB82
 12089 0334 18000000 		.4byte	.LFE82
 12090 0338 00000000 		.4byte	.LFB83
 12091 033c 0C000000 		.4byte	.LFE83
 12092 0340 00000000 		.4byte	.LFB84
 12093 0344 18000000 		.4byte	.LFE84
 12094 0348 00000000 		.4byte	.LFB85
 12095 034c 0C000000 		.4byte	.LFE85
 12096 0350 00000000 		.4byte	.LFB86
 12097 0354 24000000 		.4byte	.LFE86
 12098 0358 00000000 		.4byte	.LFB87
 12099 035c 2C000000 		.4byte	.LFE87
 12100 0360 00000000 		.4byte	.LFB88
 12101 0364 D8000000 		.4byte	.LFE88
 12102 0368 00000000 		.4byte	.LFB89
 12103 036c 6C000000 		.4byte	.LFE89
 12104 0370 00000000 		.4byte	.LFB90
ARM GAS  /var/folders/6q/x_mk5n_j3p7_c40r_2k_78980000gn/T//ccu43oO2.s 			page 214


 12105 0374 F8020000 		.4byte	.LFE90
 12106 0378 00000000 		.4byte	.LFB91
 12107 037c 44000000 		.4byte	.LFE91
 12108 0380 00000000 		.4byte	.LFB92
 12109 0384 28000000 		.4byte	.LFE92
 12110 0388 00000000 		.4byte	.LFB93
 12111 038c 74000000 		.4byte	.LFE93
 12112 0390 00000000 		.4byte	.LFB94
 12113 0394 38000000 		.4byte	.LFE94
 12114 0398 00000000 		.4byte	.LFB95
 12115 039c 7C000000 		.4byte	.LFE95
 12116 03a0 00000000 		.4byte	.LFB96
 12117 03a4 D0000000 		.4byte	.LFE96
 12118 03a8 00000000 		.4byte	.LFB98
 12119 03ac DC040000 		.4byte	.LFE98
 12120 03b0 00000000 		.4byte	.LFB99
 12121 03b4 3E000000 		.4byte	.LFE99
 12122 03b8 00000000 		.4byte	.LFB100
 12123 03bc 94010000 		.4byte	.LFE100
 12124 03c0 00000000 		.4byte	.LFB101
 12125 03c4 4A000000 		.4byte	.LFE101
 12126 03c8 00000000 		.4byte	.LFB102
 12127 03cc 4A000000 		.4byte	.LFE102
 12128 03d0 00000000 		.4byte	.LFB103
 12129 03d4 6C000000 		.4byte	.LFE103
 12130 03d8 00000000 		.4byte	.LFB104
 12131 03dc C8000000 		.4byte	.LFE104
 12132 03e0 00000000 		.4byte	.LFB105
 12133 03e4 78000000 		.4byte	.LFE105
 12134 03e8 00000000 		.4byte	.LFB106
 12135 03ec 3A000000 		.4byte	.LFE106
 12136 03f0 00000000 		.4byte	.LFB107
 12137 03f4 A8020000 		.4byte	.LFE107
 12138 03f8 00000000 		.4byte	0
 12139 03fc 00000000 		.4byte	0
 12140              		.section	.debug_line,"",%progbits
 12141              	.Ldebug_line0:
 12142 0000 B2090000 		.section	.debug_str,"MS",%progbits,1
 12142      02008702 
 12142      00000201 
 12142      FB0E0D00 
 12142      01010101 
 12143              	.LASF51:
 12144 0000 54687265 		.ascii	"ThreadsList\000"
 12144      6164734C 
 12144      69737400 
 12145              	.LASF55:
 12146 000c 76746675 		.ascii	"vtfunc_t\000"
 12146      6E635F74 
 12146      00
 12147              	.LASF199:
 12148 0015 536D6172 		.ascii	"SmartMotorGetSpeed\000"
 12148      744D6F74 
 12148      6F724765 
 12148      74537065 
 12148      656400
 12149              	.LASF42:
ARM GAS  /var/folders/6q/x_mk5n_j3p7_c40r_2k_78980000gn/T//ccu43oO2.s 			page 215


 12150 0028 705F7469 		.ascii	"p_time\000"
 12150      6D6500
 12151              	.LASF172:
 12152 002f 73746174 		.ascii	"statusPort\000"
 12152      7573506F 
 12152      727400
 12153              	.LASF187:
 12154 003a 6D5F7361 		.ascii	"m_safe_current\000"
 12154      66655F63 
 12154      75727265 
 12154      6E7400
 12155              	.LASF52:
 12156 0049 72656761 		.ascii	"regarm_t\000"
 12156      726D5F74 
 12156      00
 12157              	.LASF33:
 12158 0052 705F7072 		.ascii	"p_prio\000"
 12158      696F00
 12159              	.LASF269:
 12160 0059 76657841 		.ascii	"vexAdcGet\000"
 12160      64634765 
 12160      7400
 12161              	.LASF113:
 12162 0063 6B566578 		.ascii	"kVexMotor_None\000"
 12162      4D6F746F 
 12162      725F4E6F 
 12162      6E6500
 12163              	.LASF223:
 12164 0072 736C6176 		.ascii	"slave\000"
 12164      6500
 12165              	.LASF29:
 12166 0078 73797374 		.ascii	"systime_t\000"
 12166      696D655F 
 12166      7400
 12167              	.LASF141:
 12168 0082 6D6F746F 		.ascii	"motor_cmd\000"
 12168      725F636D 
 12168      6400
 12169              	.LASF73:
 12170 008c 6D5F6F77 		.ascii	"m_owner\000"
 12170      6E657200 
 12171              	.LASF249:
 12172 0094 6E657874 		.ascii	"nextMotor\000"
 12172      4D6F746F 
 12172      7200
 12173              	.LASF62:
 12174 009e 76745F73 		.ascii	"vt_systime\000"
 12174      79737469 
 12174      6D6500
 12175              	.LASF253:
 12176 00a9 5074634C 		.ascii	"PtcLimitEnabled\000"
 12176      696D6974 
 12176      456E6162 
 12176      6C656400 
 12177              	.LASF3:
 12178 00b9 756E7369 		.ascii	"unsigned int\000"
 12178      676E6564 
ARM GAS  /var/folders/6q/x_mk5n_j3p7_c40r_2k_78980000gn/T//ccu43oO2.s 			page 216


 12178      20696E74 
 12178      00
 12179              	.LASF225:
 12180 00c6 72617469 		.ascii	"ratio\000"
 12180      6F00
 12181              	.LASF152:
 12182 00cc 695F7374 		.ascii	"i_stall\000"
 12182      616C6C00 
 12183              	.LASF263:
 12184 00d4 53746F70 		.ascii	"StopTask\000"
 12184      5461736B 
 12184      00
 12185              	.LASF214:
 12186 00dd 536D6172 		.ascii	"SmartMotorRun\000"
 12186      744D6F74 
 12186      6F725275 
 12186      6E00
 12187              	.LASF43:
 12188 00eb 705F7761 		.ascii	"p_waiting\000"
 12188      6974696E 
 12188      6700
 12189              	.LASF149:
 12190 00f5 6F6C6465 		.ascii	"oldenc\000"
 12190      6E6300
 12191              	.LASF125:
 12192 00fc 74566578 		.ascii	"tVexMotor\000"
 12192      4D6F746F 
 12192      7200
 12193              	.LASF124:
 12194 0106 6B566578 		.ascii	"kVexMotorNum\000"
 12194      4D6F746F 
 12194      724E756D 
 12194      00
 12195              	.LASF251:
 12196 0113 734D6F74 		.ascii	"sMotors\000"
 12196      6F727300 
 12197              	.LASF77:
 12198 011b 77746F62 		.ascii	"wtobjp\000"
 12198      6A7000
 12199              	.LASF255:
 12200 0122 76746C69 		.ascii	"vtlist\000"
 12200      737400
 12201              	.LASF182:
 12202 0129 66617374 		.ascii	"fastlog\000"
 12202      6C6F6700 
 12203              	.LASF261:
 12204 0131 76657853 		.ascii	"vexSleep\000"
 12204      6C656570 
 12204      00
 12205              	.LASF78:
 12206 013a 65776D61 		.ascii	"ewmask\000"
 12206      736B00
 12207              	.LASF236:
 12208 0141 6C616D64 		.ascii	"lamda\000"
 12208      6100
 12209              	.LASF233:
 12210 0147 73706565 		.ascii	"speed\000"
ARM GAS  /var/folders/6q/x_mk5n_j3p7_c40r_2k_78980000gn/T//ccu43oO2.s 			page 217


 12210      6400
 12211              	.LASF104:
 12212 014d 74566578 		.ascii	"tVexDigitalPin\000"
 12212      44696769 
 12212      74616C50 
 12212      696E00
 12213              	.LASF72:
 12214 015c 6D5F7175 		.ascii	"m_queue\000"
 12214      65756500 
 12215              	.LASF102:
 12216 0164 6B566578 		.ascii	"kVexDigital_12\000"
 12216      44696769 
 12216      74616C5F 
 12216      313200
 12217              	.LASF59:
 12218 0173 76745F74 		.ascii	"vt_time\000"
 12218      696D6500 
 12219              	.LASF19:
 12220 017b 75696E74 		.ascii	"uint32_t\000"
 12220      33325F74 
 12220      00
 12221              	.LASF28:
 12222 0184 6576656E 		.ascii	"eventmask_t\000"
 12222      746D6173 
 12222      6B5F7400 
 12223              	.LASF65:
 12224 0190 725F7072 		.ascii	"r_prio\000"
 12224      696F00
 12225              	.LASF61:
 12226 0197 76745F70 		.ascii	"vt_par\000"
 12226      617200
 12227              	.LASF14:
 12228 019e 6C6F6E67 		.ascii	"long long unsigned int\000"
 12228      206C6F6E 
 12228      6720756E 
 12228      7369676E 
 12228      65642069 
 12229              	.LASF0:
 12230 01b5 666C6F61 		.ascii	"float\000"
 12230      7400
 12231              	.LASF221:
 12232 01bb 536D6172 		.ascii	"SmartMotorLinkMotors\000"
 12232      744D6F74 
 12232      6F724C69 
 12232      6E6B4D6F 
 12232      746F7273 
 12233              	.LASF103:
 12234 01d0 6B566578 		.ascii	"kVexDigital_Num\000"
 12234      44696769 
 12234      74616C5F 
 12234      4E756D00 
 12235              	.LASF26:
 12236 01e0 74707269 		.ascii	"tprio_t\000"
 12236      6F5F7400 
 12237              	.LASF252:
 12238 01e8 73506F72 		.ascii	"sPorts\000"
 12238      747300
ARM GAS  /var/folders/6q/x_mk5n_j3p7_c40r_2k_78980000gn/T//ccu43oO2.s 			page 218


 12239              	.LASF197:
 12240 01ef 696E6465 		.ascii	"index\000"
 12240      7800
 12241              	.LASF123:
 12242 01f5 6B566578 		.ascii	"kVexMotor_10\000"
 12242      4D6F746F 
 12242      725F3130 
 12242      00
 12243              	.LASF245:
 12244 0202 536D6172 		.ascii	"SmartMotorControllerSetLed\000"
 12244      744D6F74 
 12244      6F72436F 
 12244      6E74726F 
 12244      6C6C6572 
 12245              	.LASF112:
 12246 021d 74566578 		.ascii	"tVexMotorType\000"
 12246      4D6F746F 
 12246      72547970 
 12246      6500
 12247              	.LASF186:
 12248 022b 61637469 		.ascii	"active_motors\000"
 12248      76655F6D 
 12248      6F746F72 
 12248      7300
 12249              	.LASF144:
 12250 0239 6C696D69 		.ascii	"limit_tripped\000"
 12250      745F7472 
 12250      69707065 
 12250      6400
 12251              	.LASF146:
 12252 0247 6C696D69 		.ascii	"limit_current\000"
 12252      745F6375 
 12252      7272656E 
 12252      7400
 12253              	.LASF175:
 12254 0255 6F666673 		.ascii	"offset\000"
 12254      657400
 12255              	.LASF177:
 12256 025c 66617374 		.ascii	"fastpow2\000"
 12256      706F7732 
 12256      00
 12257              	.LASF191:
 12258 0265 536D6172 		.ascii	"SmartMotorTemperature\000"
 12258      744D6F74 
 12258      6F725465 
 12258      6D706572 
 12258      61747572 
 12259              	.LASF266:
 12260 027b 7665784D 		.ascii	"vexMotorTypeGet\000"
 12260      6F746F72 
 12260      54797065 
 12260      47657400 
 12261              	.LASF215:
 12262 028b 536D6172 		.ascii	"SmartMotorStop\000"
 12262      744D6F74 
 12262      6F725374 
 12262      6F7000
ARM GAS  /var/folders/6q/x_mk5n_j3p7_c40r_2k_78980000gn/T//ccu43oO2.s 			page 219


 12263              	.LASF107:
 12264 029a 6B566578 		.ascii	"kVexMotorUndefined\000"
 12264      4D6F746F 
 12264      72556E64 
 12264      6566696E 
 12264      656400
 12265              	.LASF89:
 12266 02ad 74566578 		.ascii	"tVexAnalogPin\000"
 12266      416E616C 
 12266      6F675069 
 12266      6E00
 12267              	.LASF203:
 12268 02bb 5F536D61 		.ascii	"_SmartMotorSetLimitCurent\000"
 12268      72744D6F 
 12268      746F7253 
 12268      65744C69 
 12268      6D697443 
 12269              	.LASF272:
 12270 02d5 2E2E2F63 		.ascii	"../convex-vexilla/cortex/opt/smartmotor.c\000"
 12270      6F6E7665 
 12270      782D7665 
 12270      78696C6C 
 12270      612F636F 
 12271              	.LASF35:
 12272 02ff 705F6E65 		.ascii	"p_newer\000"
 12272      77657200 
 12273              	.LASF218:
 12274 0307 76616C75 		.ascii	"value\000"
 12274      6500
 12275              	.LASF142:
 12276 030d 6D6F746F 		.ascii	"motor_req\000"
 12276      725F7265 
 12276      7100
 12277              	.LASF213:
 12278 0317 536D6172 		.ascii	"SmartMotorCurrentMonitorEnable\000"
 12278      744D6F74 
 12278      6F724375 
 12278      7272656E 
 12278      744D6F6E 
 12279              	.LASF195:
 12280 0336 536D6172 		.ascii	"SmartMotorSlewRateTask\000"
 12280      744D6F74 
 12280      6F72536C 
 12280      65775261 
 12280      74655461 
 12281              	.LASF75:
 12282 034d 7264796D 		.ascii	"rdymsg\000"
 12282      736700
 12283              	.LASF20:
 12284 0354 626F6F6C 		.ascii	"bool_t\000"
 12284      5F7400
 12285              	.LASF111:
 12286 035b 6B566578 		.ascii	"kVexMotor393R\000"
 12286      4D6F746F 
 12286      72333933 
 12286      5200
 12287              	.LASF110:
ARM GAS  /var/folders/6q/x_mk5n_j3p7_c40r_2k_78980000gn/T//ccu43oO2.s 			page 220


 12288 0369 6B566578 		.ascii	"kVexMotor393S\000"
 12288      4D6F746F 
 12288      72333933 
 12288      5300
 12289              	.LASF109:
 12290 0377 6B566578 		.ascii	"kVexMotor393T\000"
 12290      4D6F746F 
 12290      72333933 
 12290      5400
 12291              	.LASF21:
 12292 0385 5F426F6F 		.ascii	"_Bool\000"
 12292      6C00
 12293              	.LASF184:
 12294 038b 536D6172 		.ascii	"SmartMotorMonitorPtc\000"
 12294      744D6F74 
 12294      6F724D6F 
 12294      6E69746F 
 12294      72507463 
 12295              	.LASF147:
 12296 03a0 656E636F 		.ascii	"encoder_id\000"
 12296      6465725F 
 12296      696400
 12297              	.LASF170:
 12298 03ab 6D6F746F 		.ascii	"motors\000"
 12298      727300
 12299              	.LASF244:
 12300 03b2 536D6172 		.ascii	"SmartMotorSafeCommand\000"
 12300      744D6F74 
 12300      6F725361 
 12300      6665436F 
 12300      6D6D616E 
 12301              	.LASF145:
 12302 03c8 6C696D69 		.ascii	"limit_cmd\000"
 12302      745F636D 
 12302      6400
 12303              	.LASF157:
 12304 03d2 765F6265 		.ascii	"v_bemf_max\000"
 12304      6D665F6D 
 12304      617800
 12305              	.LASF71:
 12306 03dd 4D757465 		.ascii	"Mutex\000"
 12306      7800
 12307              	.LASF169:
 12308 03e3 5F736D61 		.ascii	"_smartController\000"
 12308      7274436F 
 12308      6E74726F 
 12308      6C6C6572 
 12308      00
 12309              	.LASF69:
 12310 03f4 725F6375 		.ascii	"r_current\000"
 12310      7272656E 
 12310      7400
 12311              	.LASF37:
 12312 03fe 705F6E61 		.ascii	"p_name\000"
 12312      6D6500
 12313              	.LASF106:
 12314 0405 6B566578 		.ascii	"kVexDigitalOutput\000"
ARM GAS  /var/folders/6q/x_mk5n_j3p7_c40r_2k_78980000gn/T//ccu43oO2.s 			page 221


 12314      44696769 
 12314      74616C4F 
 12314      75747075 
 12314      7400
 12315              	.LASF268:
 12316 0417 76657844 		.ascii	"vexDigitalPinSet\000"
 12316      69676974 
 12316      616C5069 
 12316      6E536574 
 12316      00
 12317              	.LASF134:
 12318 0428 6B496D65 		.ascii	"kImeTotal\000"
 12318      546F7461 
 12318      6C00
 12319              	.LASF50:
 12320 0432 54687265 		.ascii	"ThreadsQueue\000"
 12320      61647351 
 12320      75657565 
 12320      00
 12321              	.LASF180:
 12322 043f 536D6172 		.ascii	"SmartMotorPtcMonitorDisable\000"
 12322      744D6F74 
 12322      6F725074 
 12322      634D6F6E 
 12322      69746F72 
 12323              	.LASF189:
 12324 045b 64656C74 		.ascii	"deltaTime\000"
 12324      6154696D 
 12324      6500
 12325              	.LASF16:
 12326 0465 63686172 		.ascii	"char\000"
 12326      00
 12327              	.LASF190:
 12328 046a 72617465 		.ascii	"rate\000"
 12328      00
 12329              	.LASF10:
 12330 046f 5F5F696E 		.ascii	"__int32_t\000"
 12330      7433325F 
 12330      7400
 12331              	.LASF67:
 12332 0479 725F6E65 		.ascii	"r_newer\000"
 12332      77657200 
 12333              	.LASF271:
 12334 0481 474E5520 		.ascii	"GNU C11 5.4.1 20160919 (release) [ARM/embedded-5-br"
 12334      43313120 
 12334      352E342E 
 12334      31203230 
 12334      31363039 
 12335 04b4 616E6368 		.ascii	"anch revision 240496] -mcpu=cortex-m3 -mno-thumb-in"
 12335      20726576 
 12335      6973696F 
 12335      6E203234 
 12335      30343936 
 12336 04e7 74657277 		.ascii	"terwork -mthumb -ggdb -O2 -fomit-frame-pointer -fal"
 12336      6F726B20 
 12336      2D6D7468 
 12336      756D6220 
ARM GAS  /var/folders/6q/x_mk5n_j3p7_c40r_2k_78980000gn/T//ccu43oO2.s 			page 222


 12336      2D676764 
 12337 051a 69676E2D 		.ascii	"ign-functions=16 -ffunction-sections -fdata-section"
 12337      66756E63 
 12337      74696F6E 
 12337      733D3136 
 12337      202D6666 
 12338 054d 73202D66 		.ascii	"s -fno-common\000"
 12338      6E6F2D63 
 12338      6F6D6D6F 
 12338      6E00
 12339              	.LASF273:
 12340 055b 2F557365 		.ascii	"/Users/Luca/src/vexilla/src/teamA\000"
 12340      72732F4C 
 12340      7563612F 
 12340      7372632F 
 12340      76657869 
 12341              	.LASF30:
 12342 057d 54687265 		.ascii	"Thread\000"
 12342      616400
 12343              	.LASF193:
 12344 0584 6D6F746F 		.ascii	"motorIndex\000"
 12344      72496E64 
 12344      657800
 12345              	.LASF226:
 12346 058f 5F536D61 		.ascii	"_SmartMotorsAddPowerExtender\000"
 12346      72744D6F 
 12346      746F7273 
 12346      41646450 
 12346      6F776572 
 12347              	.LASF63:
 12348 05ac 56544C69 		.ascii	"VTList\000"
 12348      737400
 12349              	.LASF267:
 12350 05b3 7665784D 		.ascii	"vexMotorPositionGet\000"
 12350      6F746F72 
 12350      506F7369 
 12350      74696F6E 
 12350      47657400 
 12351              	.LASF4:
 12352 05c7 6C6F6E67 		.ascii	"long long int\000"
 12352      206C6F6E 
 12352      6720696E 
 12352      7400
 12353              	.LASF36:
 12354 05d5 705F6F6C 		.ascii	"p_older\000"
 12354      64657200 
 12355              	.LASF38:
 12356 05dd 705F7374 		.ascii	"p_state\000"
 12356      61746500 
 12357              	.LASF207:
 12358 05e5 736C6577 		.ascii	"slew_rate\000"
 12358      5F726174 
 12358      6500
 12359              	.LASF17:
 12360 05ef 75696E74 		.ascii	"uint8_t\000"
 12360      385F7400 
 12361              	.LASF173:
ARM GAS  /var/folders/6q/x_mk5n_j3p7_c40r_2k_78980000gn/T//ccu43oO2.s 			page 223


 12362 05f7 736D6172 		.ascii	"smartMotor\000"
 12362      744D6F74 
 12362      6F7200
 12363              	.LASF246:
 12364 0602 73746174 		.ascii	"status\000"
 12364      757300
 12365              	.LASF265:
 12366 0609 7665784D 		.ascii	"vexMotorEncoderIdGet\000"
 12366      6F746F72 
 12366      456E636F 
 12366      64657249 
 12366      64476574 
 12367              	.LASF49:
 12368 061e 705F6D70 		.ascii	"p_mpool\000"
 12368      6F6F6C00 
 12369              	.LASF47:
 12370 0626 705F6D74 		.ascii	"p_mtxlist\000"
 12370      786C6973 
 12370      7400
 12371              	.LASF114:
 12372 0630 6B566578 		.ascii	"kVexMotor_1\000"
 12372      4D6F746F 
 12372      725F3100 
 12373              	.LASF115:
 12374 063c 6B566578 		.ascii	"kVexMotor_2\000"
 12374      4D6F746F 
 12374      725F3200 
 12375              	.LASF116:
 12376 0648 6B566578 		.ascii	"kVexMotor_3\000"
 12376      4D6F746F 
 12376      725F3300 
 12377              	.LASF117:
 12378 0654 6B566578 		.ascii	"kVexMotor_4\000"
 12378      4D6F746F 
 12378      725F3400 
 12379              	.LASF118:
 12380 0660 6B566578 		.ascii	"kVexMotor_5\000"
 12380      4D6F746F 
 12380      725F3500 
 12381              	.LASF119:
 12382 066c 6B566578 		.ascii	"kVexMotor_6\000"
 12382      4D6F746F 
 12382      725F3600 
 12383              	.LASF120:
 12384 0678 6B566578 		.ascii	"kVexMotor_7\000"
 12384      4D6F746F 
 12384      725F3700 
 12385              	.LASF121:
 12386 0684 6B566578 		.ascii	"kVexMotor_8\000"
 12386      4D6F746F 
 12386      725F3800 
 12387              	.LASF122:
 12388 0690 6B566578 		.ascii	"kVexMotor_9\000"
 12388      4D6F746F 
 12388      725F3900 
 12389              	.LASF80:
 12390 069c 6B566578 		.ascii	"kVexAnalog_1\000"
ARM GAS  /var/folders/6q/x_mk5n_j3p7_c40r_2k_78980000gn/T//ccu43oO2.s 			page 224


 12390      416E616C 
 12390      6F675F31 
 12390      00
 12391              	.LASF81:
 12392 06a9 6B566578 		.ascii	"kVexAnalog_2\000"
 12392      416E616C 
 12392      6F675F32 
 12392      00
 12393              	.LASF82:
 12394 06b6 6B566578 		.ascii	"kVexAnalog_3\000"
 12394      416E616C 
 12394      6F675F33 
 12394      00
 12395              	.LASF83:
 12396 06c3 6B566578 		.ascii	"kVexAnalog_4\000"
 12396      416E616C 
 12396      6F675F34 
 12396      00
 12397              	.LASF84:
 12398 06d0 6B566578 		.ascii	"kVexAnalog_5\000"
 12398      416E616C 
 12398      6F675F35 
 12398      00
 12399              	.LASF85:
 12400 06dd 6B566578 		.ascii	"kVexAnalog_6\000"
 12400      416E616C 
 12400      6F675F36 
 12400      00
 12401              	.LASF86:
 12402 06ea 6B566578 		.ascii	"kVexAnalog_7\000"
 12402      416E616C 
 12402      6F675F37 
 12402      00
 12403              	.LASF87:
 12404 06f7 6B566578 		.ascii	"kVexAnalog_8\000"
 12404      416E616C 
 12404      6F675F38 
 12404      00
 12405              	.LASF258:
 12406 0704 76657854 		.ascii	"vexTaskRegisterPersistant\000"
 12406      61736B52 
 12406      65676973 
 12406      74657250 
 12406      65727369 
 12407              	.LASF243:
 12408 071e 536D6172 		.ascii	"SmartMotorControllerCurrent\000"
 12408      744D6F74 
 12408      6F72436F 
 12408      6E74726F 
 12408      6C6C6572 
 12409              	.LASF205:
 12410 073a 6D61785F 		.ascii	"max_rpm\000"
 12410      72706D00 
 12411              	.LASF209:
 12412 0742 536D6172 		.ascii	"SmartMotorGetControllerTemperature\000"
 12412      744D6F74 
 12412      6F724765 
ARM GAS  /var/folders/6q/x_mk5n_j3p7_c40r_2k_78980000gn/T//ccu43oO2.s 			page 225


 12412      74436F6E 
 12412      74726F6C 
 12413              	.LASF64:
 12414 0765 725F7175 		.ascii	"r_queue\000"
 12414      65756500 
 12415              	.LASF165:
 12416 076d 745F636F 		.ascii	"t_const_2\000"
 12416      6E73745F 
 12416      3200
 12417              	.LASF139:
 12418 0777 64656C61 		.ascii	"delayTimeMs\000"
 12418      7954696D 
 12418      654D7300 
 12419              	.LASF100:
 12420 0783 6B566578 		.ascii	"kVexDigital_10\000"
 12420      44696769 
 12420      74616C5F 
 12420      313000
 12421              	.LASF101:
 12422 0792 6B566578 		.ascii	"kVexDigital_11\000"
 12422      44696769 
 12422      74616C5F 
 12422      313100
 12423              	.LASF27:
 12424 07a1 6D73675F 		.ascii	"msg_t\000"
 12424      7400
 12425              	.LASF240:
 12426 07a7 695F6261 		.ascii	"i_bar\000"
 12426      7200
 12427              	.LASF237:
 12428 07ad 64757479 		.ascii	"duty_on\000"
 12428      5F6F6E00 
 12429              	.LASF234:
 12430 07b5 536D6172 		.ascii	"SmartMotorCurrent\000"
 12430      744D6F74 
 12430      6F724375 
 12430      7272656E 
 12430      7400
 12431              	.LASF39:
 12432 07c7 705F666C 		.ascii	"p_flags\000"
 12432      61677300 
 12433              	.LASF185:
 12434 07cf 536D6172 		.ascii	"SmartMotorControllerMonitorPtc\000"
 12434      744D6F74 
 12434      6F72436F 
 12434      6E74726F 
 12434      6C6C6572 
 12435              	.LASF229:
 12436 07ee 536D6172 		.ascii	"SmartMotorSpeed\000"
 12436      744D6F74 
 12436      6F725370 
 12436      65656400 
 12437              	.LASF232:
 12438 07fe 7363616C 		.ascii	"scale\000"
 12438      6500
 12439              	.LASF79:
 12440 0804 6B566578 		.ascii	"kVexAnalog_None\000"
ARM GAS  /var/folders/6q/x_mk5n_j3p7_c40r_2k_78980000gn/T//ccu43oO2.s 			page 226


 12440      416E616C 
 12440      6F675F4E 
 12440      6F6E6500 
 12441              	.LASF231:
 12442 0814 7370645F 		.ascii	"spd_table\000"
 12442      7461626C 
 12442      6500
 12443              	.LASF228:
 12444 081e 72657665 		.ascii	"reversed\000"
 12444      72736564 
 12444      00
 12445              	.LASF259:
 12446 0827 7665784D 		.ascii	"vexMotorSet\000"
 12446      6F746F72 
 12446      53657400 
 12447              	.LASF210:
 12448 0833 536D6172 		.ascii	"SmartMotorSetControllerStatusLed\000"
 12448      744D6F74 
 12448      6F725365 
 12448      74436F6E 
 12448      74726F6C 
 12449              	.LASF219:
 12450 0854 696D6D65 		.ascii	"immediate\000"
 12450      64696174 
 12450      6500
 12451              	.LASF25:
 12452 085e 74736C69 		.ascii	"tslices_t\000"
 12452      6365735F 
 12452      7400
 12453              	.LASF68:
 12454 0868 725F6F6C 		.ascii	"r_older\000"
 12454      64657200 
 12455              	.LASF198:
 12456 0870 536D6172 		.ascii	"SmartMotorControllerGetPtr\000"
 12456      744D6F74 
 12456      6F72436F 
 12456      6E74726F 
 12456      6C6C6572 
 12457              	.LASF247:
 12458 088b 536D6172 		.ascii	"SmartMotorTask\000"
 12458      744D6F74 
 12458      6F725461 
 12458      736B00
 12459              	.LASF91:
 12460 089a 6B566578 		.ascii	"kVexDigital_1\000"
 12460      44696769 
 12460      74616C5F 
 12460      3100
 12461              	.LASF92:
 12462 08a8 6B566578 		.ascii	"kVexDigital_2\000"
 12462      44696769 
 12462      74616C5F 
 12462      3200
 12463              	.LASF93:
 12464 08b6 6B566578 		.ascii	"kVexDigital_3\000"
 12464      44696769 
 12464      74616C5F 
ARM GAS  /var/folders/6q/x_mk5n_j3p7_c40r_2k_78980000gn/T//ccu43oO2.s 			page 227


 12464      3300
 12465              	.LASF94:
 12466 08c4 6B566578 		.ascii	"kVexDigital_4\000"
 12466      44696769 
 12466      74616C5F 
 12466      3400
 12467              	.LASF95:
 12468 08d2 6B566578 		.ascii	"kVexDigital_5\000"
 12468      44696769 
 12468      74616C5F 
 12468      3500
 12469              	.LASF96:
 12470 08e0 6B566578 		.ascii	"kVexDigital_6\000"
 12470      44696769 
 12470      74616C5F 
 12470      3600
 12471              	.LASF97:
 12472 08ee 6B566578 		.ascii	"kVexDigital_7\000"
 12472      44696769 
 12472      74616C5F 
 12472      3700
 12473              	.LASF98:
 12474 08fc 6B566578 		.ascii	"kVexDigital_8\000"
 12474      44696769 
 12474      74616C5F 
 12474      3800
 12475              	.LASF99:
 12476 090a 6B566578 		.ascii	"kVexDigital_9\000"
 12476      44696769 
 12476      74616C5F 
 12476      3900
 12477              	.LASF54:
 12478 0918 636F6E74 		.ascii	"context\000"
 12478      65787400 
 12479              	.LASF45:
 12480 0920 705F6D73 		.ascii	"p_msg\000"
 12480      6700
 12481              	.LASF160:
 12482 0926 7065616B 		.ascii	"peak_current\000"
 12482      5F637572 
 12482      72656E74 
 12482      00
 12483              	.LASF217:
 12484 0933 5F536574 		.ascii	"_SetMotor\000"
 12484      4D6F746F 
 12484      7200
 12485              	.LASF22:
 12486 093d 746D6F64 		.ascii	"tmode_t\000"
 12486      655F7400 
 12487              	.LASF48:
 12488 0945 705F7265 		.ascii	"p_realprio\000"
 12488      616C7072 
 12488      696F00
 12489              	.LASF168:
 12490 0950 6C617374 		.ascii	"lastPgmTime\000"
 12490      50676D54 
 12490      696D6500 
ARM GAS  /var/folders/6q/x_mk5n_j3p7_c40r_2k_78980000gn/T//ccu43oO2.s 			page 228


 12491              	.LASF154:
 12492 095c 6C5F6D6F 		.ascii	"l_motor\000"
 12492      746F7200 
 12493              	.LASF5:
 12494 0964 6C6F6E67 		.ascii	"long double\000"
 12494      20646F75 
 12494      626C6500 
 12495              	.LASF162:
 12496 0970 74617267 		.ascii	"target_current\000"
 12496      65745F63 
 12496      75727265 
 12496      6E7400
 12497              	.LASF254:
 12498 097f 43757272 		.ascii	"CurrentLimitEnabled\000"
 12498      656E744C 
 12498      696D6974 
 12498      456E6162 
 12498      6C656400 
 12499              	.LASF155:
 12500 0993 6B655F6D 		.ascii	"ke_motor\000"
 12500      6F746F72 
 12500      00
 12501              	.LASF53:
 12502 099c 696E7463 		.ascii	"intctx\000"
 12502      747800
 12503              	.LASF211:
 12504 09a3 536D6172 		.ascii	"SmartMotorSetPowerExpanderStatusPort\000"
 12504      744D6F74 
 12504      6F725365 
 12504      74506F77 
 12504      65724578 
 12505              	.LASF126:
 12506 09c8 6B496D65 		.ascii	"kImeChannel_1\000"
 12506      4368616E 
 12506      6E656C5F 
 12506      3100
 12507              	.LASF127:
 12508 09d6 6B496D65 		.ascii	"kImeChannel_2\000"
 12508      4368616E 
 12508      6E656C5F 
 12508      3200
 12509              	.LASF128:
 12510 09e4 6B496D65 		.ascii	"kImeChannel_3\000"
 12510      4368616E 
 12510      6E656C5F 
 12510      3300
 12511              	.LASF129:
 12512 09f2 6B496D65 		.ascii	"kImeChannel_4\000"
 12512      4368616E 
 12512      6E656C5F 
 12512      3400
 12513              	.LASF130:
 12514 0a00 6B496D65 		.ascii	"kImeChannel_5\000"
 12514      4368616E 
 12514      6E656C5F 
 12514      3500
 12515              	.LASF131:
ARM GAS  /var/folders/6q/x_mk5n_j3p7_c40r_2k_78980000gn/T//ccu43oO2.s 			page 229


 12516 0a0e 6B496D65 		.ascii	"kImeChannel_6\000"
 12516      4368616E 
 12516      6E656C5F 
 12516      3600
 12517              	.LASF132:
 12518 0a1c 6B496D65 		.ascii	"kImeChannel_7\000"
 12518      4368616E 
 12518      6E656C5F 
 12518      3700
 12519              	.LASF133:
 12520 0a2a 6B496D65 		.ascii	"kImeChannel_8\000"
 12520      4368616E 
 12520      6E656C5F 
 12520      3800
 12521              	.LASF2:
 12522 0a38 73686F72 		.ascii	"short int\000"
 12522      7420696E 
 12522      7400
 12523              	.LASF235:
 12524 0a42 765F6265 		.ascii	"v_bemf\000"
 12524      6D6600
 12525              	.LASF46:
 12526 0a49 705F6570 		.ascii	"p_epending\000"
 12526      656E6469 
 12526      6E6700
 12527              	.LASF161:
 12528 0a54 73616665 		.ascii	"safe_current\000"
 12528      5F637572 
 12528      72656E74 
 12528      00
 12529              	.LASF11:
 12530 0a61 6C6F6E67 		.ascii	"long int\000"
 12530      20696E74 
 12530      00
 12531              	.LASF135:
 12532 0a6a 6B496D65 		.ascii	"kImeChannelNone\000"
 12532      4368616E 
 12532      6E656C4E 
 12532      6F6E6500 
 12533              	.LASF257:
 12534 0a7a 49544D5F 		.ascii	"ITM_RxBuffer\000"
 12534      52784275 
 12534      66666572 
 12534      00
 12535              	.LASF153:
 12536 0a87 725F6D6F 		.ascii	"r_motor\000"
 12536      746F7200 
 12537              	.LASF238:
 12538 0a8f 64757479 		.ascii	"duty_off\000"
 12538      5F6F6666 
 12538      00
 12539              	.LASF192:
 12540 0a98 536D6172 		.ascii	"SmartMotorControllerTemperature\000"
 12540      744D6F74 
 12540      6F72436F 
 12540      6E74726F 
 12540      6C6C6572 
ARM GAS  /var/folders/6q/x_mk5n_j3p7_c40r_2k_78980000gn/T//ccu43oO2.s 			page 230


 12541              	.LASF31:
 12542 0ab8 705F6E65 		.ascii	"p_next\000"
 12542      787400
 12543              	.LASF167:
 12544 0abf 7074635F 		.ascii	"ptc_tripped\000"
 12544      74726970 
 12544      70656400 
 12545              	.LASF166:
 12546 0acb 745F616D 		.ascii	"t_ambient\000"
 12546      6269656E 
 12546      7400
 12547              	.LASF34:
 12548 0ad5 705F6374 		.ascii	"p_ctx\000"
 12548      7800
 12549              	.LASF242:
 12550 0adb 695F7373 		.ascii	"i_ss_off\000"
 12550      5F6F6666 
 12550      00
 12551              	.LASF256:
 12552 0ae4 726C6973 		.ascii	"rlist\000"
 12552      7400
 12553              	.LASF220:
 12554 0aea 536D6172 		.ascii	"SmartMotorsInit\000"
 12554      744D6F74 
 12554      6F727349 
 12554      6E697400 
 12555              	.LASF56:
 12556 0afa 56697274 		.ascii	"VirtualTimer\000"
 12556      75616C54 
 12556      696D6572 
 12556      00
 12557              	.LASF151:
 12558 0b07 695F6672 		.ascii	"i_free\000"
 12558      656500
 12559              	.LASF250:
 12560 0b0e 70655F62 		.ascii	"pe_battery\000"
 12560      61747465 
 12560      727900
 12561              	.LASF9:
 12562 0b19 5F5F7569 		.ascii	"__uint8_t\000"
 12562      6E74385F 
 12562      7400
 12563              	.LASF90:
 12564 0b23 6B566578 		.ascii	"kVexDigital_None\000"
 12564      44696769 
 12564      74616C5F 
 12564      4E6F6E65 
 12564      00
 12565              	.LASF163:
 12566 0b34 74656D70 		.ascii	"temperature\000"
 12566      65726174 
 12566      75726500 
 12567              	.LASF264:
 12568 0b40 7665785F 		.ascii	"vex_printf\000"
 12568      7072696E 
 12568      746600
 12569              	.LASF202:
ARM GAS  /var/folders/6q/x_mk5n_j3p7_c40r_2k_78980000gn/T//ccu43oO2.s 			page 231


 12570 0b4b 536D6172 		.ascii	"SmartMotorGetLimitCmd\000"
 12570      744D6F74 
 12570      6F724765 
 12570      744C696D 
 12570      6974436D 
 12571              	.LASF174:
 12572 0b61 736D6172 		.ascii	"smartController\000"
 12572      74436F6E 
 12572      74726F6C 
 12572      6C657200 
 12573              	.LASF32:
 12574 0b71 705F7072 		.ascii	"p_prev\000"
 12574      657600
 12575              	.LASF15:
 12576 0b78 73697A65 		.ascii	"sizetype\000"
 12576      74797065 
 12576      00
 12577              	.LASF24:
 12578 0b81 74726566 		.ascii	"trefs_t\000"
 12578      735F7400 
 12579              	.LASF13:
 12580 0b89 6C6F6E67 		.ascii	"long unsigned int\000"
 12580      20756E73 
 12580      69676E65 
 12580      6420696E 
 12580      7400
 12581              	.LASF44:
 12582 0b9b 705F6D73 		.ascii	"p_msgqueue\000"
 12582      67717565 
 12582      756500
 12583              	.LASF222:
 12584 0ba6 6D617374 		.ascii	"master\000"
 12584      657200
 12585              	.LASF194:
 12586 0bad 6D6F746F 		.ascii	"motorTmp\000"
 12586      72546D70 
 12586      00
 12587              	.LASF260:
 12588 0bb6 7665784D 		.ascii	"vexMotorGet\000"
 12588      6F746F72 
 12588      47657400 
 12589              	.LASF224:
 12590 0bc2 536D6172 		.ascii	"SmartMotorsSetEncoderGearing\000"
 12590      744D6F74 
 12590      6F727353 
 12590      6574456E 
 12590      636F6465 
 12591              	.LASF18:
 12592 0bdf 696E7433 		.ascii	"int32_t\000"
 12592      325F7400 
 12593              	.LASF136:
 12594 0be7 706F7274 		.ascii	"port\000"
 12594      00
 12595              	.LASF270:
 12596 0bec 76657853 		.ascii	"vexSpiGetMainBattery\000"
 12596      70694765 
 12596      744D6169 
ARM GAS  /var/folders/6q/x_mk5n_j3p7_c40r_2k_78980000gn/T//ccu43oO2.s 			page 232


 12596      6E426174 
 12596      74657279 
 12597              	.LASF108:
 12598 0c01 6B566578 		.ascii	"kVexMotor269\000"
 12598      4D6F746F 
 12598      72323639 
 12598      00
 12599              	.LASF23:
 12600 0c0e 74737461 		.ascii	"tstate_t\000"
 12600      74655F74 
 12600      00
 12601              	.LASF143:
 12602 0c17 6D6F746F 		.ascii	"motor_slew\000"
 12602      725F736C 
 12602      657700
 12603              	.LASF274:
 12604 0c22 536D6172 		.ascii	"SmartMotorSensorSpeed\000"
 12604      744D6F74 
 12604      6F725365 
 12604      6E736F72 
 12604      53706565 
 12605              	.LASF138:
 12606 0c38 74797065 		.ascii	"type\000"
 12606      00
 12607              	.LASF7:
 12608 0c3d 756E7369 		.ascii	"unsigned char\000"
 12608      676E6564 
 12608      20636861 
 12608      7200
 12609              	.LASF12:
 12610 0c4b 5F5F7569 		.ascii	"__uint32_t\000"
 12610      6E743332 
 12610      5F7400
 12611              	.LASF159:
 12612 0c56 66696C74 		.ascii	"filtered_current\000"
 12612      65726564 
 12612      5F637572 
 12612      72656E74 
 12612      00
 12613              	.LASF40:
 12614 0c67 705F7265 		.ascii	"p_refs\000"
 12614      667300
 12615              	.LASF70:
 12616 0c6e 52656164 		.ascii	"ReadyList\000"
 12616      794C6973 
 12616      7400
 12617              	.LASF158:
 12618 0c78 63757272 		.ascii	"current\000"
 12618      656E7400 
 12619              	.LASF262:
 12620 0c80 53746172 		.ascii	"StartTaskWithPriority\000"
 12620      74546173 
 12620      6B576974 
 12620      68507269 
 12620      6F726974 
 12621              	.LASF196:
 12622 0c96 536D6172 		.ascii	"SmartMotorGetPtr\000"
ARM GAS  /var/folders/6q/x_mk5n_j3p7_c40r_2k_78980000gn/T//ccu43oO2.s 			page 233


 12622      744D6F74 
 12622      6F724765 
 12622      74507472 
 12622      00
 12623              	.LASF216:
 12624 0ca7 536D6172 		.ascii	"SmartMotorDebugStatus\000"
 12624      744D6F74 
 12624      6F724465 
 12624      62756753 
 12624      74617475 
 12625              	.LASF41:
 12626 0cbd 705F7072 		.ascii	"p_preempt\000"
 12626      65656D70 
 12626      7400
 12627              	.LASF176:
 12628 0cc7 636C6970 		.ascii	"clipp\000"
 12628      7000
 12629              	.LASF171:
 12630 0ccd 73746174 		.ascii	"statusLed\000"
 12630      75734C65 
 12630      6400
 12631              	.LASF179:
 12632 0cd7 536D6172 		.ascii	"SmartMotorCurrentMonitorDisable\000"
 12632      744D6F74 
 12632      6F724375 
 12632      7272656E 
 12632      744D6F6E 
 12633              	.LASF57:
 12634 0cf7 76745F6E 		.ascii	"vt_next\000"
 12634      65787400 
 12635              	.LASF239:
 12636 0cff 695F6D61 		.ascii	"i_max\000"
 12636      7800
 12637              	.LASF208:
 12638 0d05 536D6172 		.ascii	"SmartMotorGetControllerCurrent\000"
 12638      744D6F74 
 12638      6F724765 
 12638      74436F6E 
 12638      74726F6C 
 12639              	.LASF148:
 12640 0d24 7469636B 		.ascii	"ticks_per_rev\000"
 12640      735F7065 
 12640      725F7265 
 12640      7600
 12641              	.LASF178:
 12642 0d32 66617374 		.ascii	"fastlog2\000"
 12642      6C6F6732 
 12642      00
 12643              	.LASF248:
 12644 0d3b 6C6F6F70 		.ascii	"loopDelay\000"
 12644      44656C61 
 12644      7900
 12645              	.LASF201:
 12646 0d45 536D6172 		.ascii	"SmartMotorGetTemperature\000"
 12646      744D6F74 
 12646      6F724765 
 12646      7454656D 
ARM GAS  /var/folders/6q/x_mk5n_j3p7_c40r_2k_78980000gn/T//ccu43oO2.s 			page 234


 12646      70657261 
 12647              	.LASF140:
 12648 0d5e 62616E6B 		.ascii	"bank\000"
 12648      00
 12649              	.LASF74:
 12650 0d63 6D5F6E65 		.ascii	"m_next\000"
 12650      787400
 12651              	.LASF204:
 12652 0d6a 536D6172 		.ascii	"SmartMotorSetFreeRpm\000"
 12652      744D6F74 
 12652      6F725365 
 12652      74467265 
 12652      6552706D 
 12653              	.LASF88:
 12654 0d7f 6B566578 		.ascii	"kVexAnalog_Num\000"
 12654      416E616C 
 12654      6F675F4E 
 12654      756D00
 12655              	.LASF6:
 12656 0d8e 7369676E 		.ascii	"signed char\000"
 12656      65642063 
 12656      68617200 
 12657              	.LASF150:
 12658 0d9a 64656C74 		.ascii	"delta\000"
 12658      6100
 12659              	.LASF241:
 12660 0da0 695F7373 		.ascii	"i_ss_on\000"
 12660      5F6F6E00 
 12661              	.LASF8:
 12662 0da8 73686F72 		.ascii	"short unsigned int\000"
 12662      7420756E 
 12662      7369676E 
 12662      65642069 
 12662      6E7400
 12663              	.LASF66:
 12664 0dbb 725F6374 		.ascii	"r_ctx\000"
 12664      7800
 12665              	.LASF105:
 12666 0dc1 6B566578 		.ascii	"kVexDigitalInput\000"
 12666      44696769 
 12666      74616C49 
 12666      6E707574 
 12666      00
 12667              	.LASF206:
 12668 0dd2 536D6172 		.ascii	"SmartMotorSetSlewRate\000"
 12668      744D6F74 
 12668      6F725365 
 12668      74536C65 
 12668      77526174 
 12669              	.LASF200:
 12670 0de8 5F536D61 		.ascii	"_SmartMotorGetCurrent\000"
 12670      72744D6F 
 12670      746F7247 
 12670      65744375 
 12670      7272656E 
 12671              	.LASF60:
 12672 0dfe 76745F66 		.ascii	"vt_func\000"
ARM GAS  /var/folders/6q/x_mk5n_j3p7_c40r_2k_78980000gn/T//ccu43oO2.s 			page 235


 12672      756E6300 
 12673              	.LASF1:
 12674 0e06 646F7562 		.ascii	"double\000"
 12674      6C6500
 12675              	.LASF181:
 12676 0e0d 66617374 		.ascii	"fastexp\000"
 12676      65787000 
 12677              	.LASF58:
 12678 0e15 76745F70 		.ascii	"vt_prev\000"
 12678      72657600 
 12679              	.LASF183:
 12680 0e1d 765F6261 		.ascii	"v_battery\000"
 12680      74746572 
 12680      7900
 12681              	.LASF227:
 12682 0e27 5F536D61 		.ascii	"_SmartMotorSetRpmSensor\000"
 12682      72744D6F 
 12682      746F7253 
 12682      65745270 
 12682      6D53656E 
 12683              	.LASF230:
 12684 0e3f 536D6172 		.ascii	"SmartMotorSimulateSpeed\000"
 12684      744D6F74 
 12684      6F725369 
 12684      6D756C61 
 12684      74655370 
 12685              	.LASF76:
 12686 0e57 65786974 		.ascii	"exitcode\000"
 12686      636F6465 
 12686      00
 12687              	.LASF188:
 12688 0e60 536D6172 		.ascii	"SmartMotorMonitorCurrent\000"
 12688      744D6F74 
 12688      6F724D6F 
 12688      6E69746F 
 12688      72437572 
 12689              	.LASF164:
 12690 0e79 745F636F 		.ascii	"t_const_1\000"
 12690      6E73745F 
 12690      3100
 12691              	.LASF137:
 12692 0e83 65706F72 		.ascii	"eport\000"
 12692      7400
 12693              	.LASF212:
 12694 0e89 536D6172 		.ascii	"SmartMotorPtcMonitorEnable\000"
 12694      744D6F74 
 12694      6F725074 
 12694      634D6F6E 
 12694      69746F72 
 12695              	.LASF156:
 12696 0ea4 72706D5F 		.ascii	"rpm_free\000"
 12696      66726565 
 12696      00
 12697              		.ident	"GCC: (GNU Tools for ARM Embedded Processors) 5.4.1 20160919 (release) [ARM/embedded-5-bran
ARM GAS  /var/folders/6q/x_mk5n_j3p7_c40r_2k_78980000gn/T//ccu43oO2.s 			page 236


DEFINED SYMBOLS
                            *ABS*:0000000000000000 smartmotor.c
/var/folders/6q/x_mk5n_j3p7_c40r_2k_78980000gn/T//ccu43oO2.s:23     .text.SmartMotorSlewRateTask:0000000000000000 $t
/var/folders/6q/x_mk5n_j3p7_c40r_2k_78980000gn/T//ccu43oO2.s:29     .text.SmartMotorSlewRateTask:0000000000000000 SmartMotorSlewRateTask
/var/folders/6q/x_mk5n_j3p7_c40r_2k_78980000gn/T//ccu43oO2.s:325    .text.SmartMotorSlewRateTask:000000000000015c $d
/var/folders/6q/x_mk5n_j3p7_c40r_2k_78980000gn/T//ccu43oO2.s:338    .text.SmartMotorGetPtr:0000000000000000 $t
/var/folders/6q/x_mk5n_j3p7_c40r_2k_78980000gn/T//ccu43oO2.s:344    .text.SmartMotorGetPtr:0000000000000000 SmartMotorGetPtr
/var/folders/6q/x_mk5n_j3p7_c40r_2k_78980000gn/T//ccu43oO2.s:368    .text.SmartMotorGetPtr:0000000000000014 $d
/var/folders/6q/x_mk5n_j3p7_c40r_2k_78980000gn/T//ccu43oO2.s:373    .text.SmartMotorControllerGetPtr:0000000000000000 $t
/var/folders/6q/x_mk5n_j3p7_c40r_2k_78980000gn/T//ccu43oO2.s:379    .text.SmartMotorControllerGetPtr:0000000000000000 SmartMotorControllerGetPtr
/var/folders/6q/x_mk5n_j3p7_c40r_2k_78980000gn/T//ccu43oO2.s:403    .text.SmartMotorControllerGetPtr:0000000000000014 $d
/var/folders/6q/x_mk5n_j3p7_c40r_2k_78980000gn/T//ccu43oO2.s:408    .text.SmartMotorGetSpeed:0000000000000000 $t
/var/folders/6q/x_mk5n_j3p7_c40r_2k_78980000gn/T//ccu43oO2.s:414    .text.SmartMotorGetSpeed:0000000000000000 SmartMotorGetSpeed
/var/folders/6q/x_mk5n_j3p7_c40r_2k_78980000gn/T//ccu43oO2.s:443    .text.SmartMotorGetSpeed:0000000000000018 $d
/var/folders/6q/x_mk5n_j3p7_c40r_2k_78980000gn/T//ccu43oO2.s:448    .text._SmartMotorGetCurrent:0000000000000000 $t
/var/folders/6q/x_mk5n_j3p7_c40r_2k_78980000gn/T//ccu43oO2.s:454    .text._SmartMotorGetCurrent:0000000000000000 _SmartMotorGetCurrent
/var/folders/6q/x_mk5n_j3p7_c40r_2k_78980000gn/T//ccu43oO2.s:524    .text._SmartMotorGetCurrent:0000000000000038 $d
/var/folders/6q/x_mk5n_j3p7_c40r_2k_78980000gn/T//ccu43oO2.s:529    .text.SmartMotorGetTemperature:0000000000000000 $t
/var/folders/6q/x_mk5n_j3p7_c40r_2k_78980000gn/T//ccu43oO2.s:535    .text.SmartMotorGetTemperature:0000000000000000 SmartMotorGetTemperature
/var/folders/6q/x_mk5n_j3p7_c40r_2k_78980000gn/T//ccu43oO2.s:564    .text.SmartMotorGetTemperature:0000000000000018 $d
/var/folders/6q/x_mk5n_j3p7_c40r_2k_78980000gn/T//ccu43oO2.s:569    .text.SmartMotorGetLimitCmd:0000000000000000 $t
/var/folders/6q/x_mk5n_j3p7_c40r_2k_78980000gn/T//ccu43oO2.s:575    .text.SmartMotorGetLimitCmd:0000000000000000 SmartMotorGetLimitCmd
/var/folders/6q/x_mk5n_j3p7_c40r_2k_78980000gn/T//ccu43oO2.s:604    .text.SmartMotorGetLimitCmd:000000000000001c $d
/var/folders/6q/x_mk5n_j3p7_c40r_2k_78980000gn/T//ccu43oO2.s:609    .text._SmartMotorSetLimitCurent:0000000000000000 $t
/var/folders/6q/x_mk5n_j3p7_c40r_2k_78980000gn/T//ccu43oO2.s:615    .text._SmartMotorSetLimitCurent:0000000000000000 _SmartMotorSetLimitCurent
/var/folders/6q/x_mk5n_j3p7_c40r_2k_78980000gn/T//ccu43oO2.s:650    .text._SmartMotorSetLimitCurent:000000000000001c $d
/var/folders/6q/x_mk5n_j3p7_c40r_2k_78980000gn/T//ccu43oO2.s:662    .text.SmartMotorSetFreeRpm:0000000000000000 $t
/var/folders/6q/x_mk5n_j3p7_c40r_2k_78980000gn/T//ccu43oO2.s:668    .text.SmartMotorSetFreeRpm:0000000000000000 SmartMotorSetFreeRpm
/var/folders/6q/x_mk5n_j3p7_c40r_2k_78980000gn/T//ccu43oO2.s:745    .text.SmartMotorSetFreeRpm:0000000000000068 $d
/var/folders/6q/x_mk5n_j3p7_c40r_2k_78980000gn/T//ccu43oO2.s:752    .text.SmartMotorSetSlewRate:0000000000000000 $t
/var/folders/6q/x_mk5n_j3p7_c40r_2k_78980000gn/T//ccu43oO2.s:758    .text.SmartMotorSetSlewRate:0000000000000000 SmartMotorSetSlewRate
/var/folders/6q/x_mk5n_j3p7_c40r_2k_78980000gn/T//ccu43oO2.s:784    .text.SmartMotorSetSlewRate:0000000000000018 $d
/var/folders/6q/x_mk5n_j3p7_c40r_2k_78980000gn/T//ccu43oO2.s:789    .text.SmartMotorGetControllerCurrent:0000000000000000 $t
/var/folders/6q/x_mk5n_j3p7_c40r_2k_78980000gn/T//ccu43oO2.s:795    .text.SmartMotorGetControllerCurrent:0000000000000000 SmartMotorGetControllerCurrent
/var/folders/6q/x_mk5n_j3p7_c40r_2k_78980000gn/T//ccu43oO2.s:824    .text.SmartMotorGetControllerCurrent:0000000000000018 $d
/var/folders/6q/x_mk5n_j3p7_c40r_2k_78980000gn/T//ccu43oO2.s:829    .text.SmartMotorGetControllerTemperature:0000000000000000 $t
/var/folders/6q/x_mk5n_j3p7_c40r_2k_78980000gn/T//ccu43oO2.s:835    .text.SmartMotorGetControllerTemperature:0000000000000000 SmartMotorGetControllerTemperature
/var/folders/6q/x_mk5n_j3p7_c40r_2k_78980000gn/T//ccu43oO2.s:864    .text.SmartMotorGetControllerTemperature:0000000000000018 $d
/var/folders/6q/x_mk5n_j3p7_c40r_2k_78980000gn/T//ccu43oO2.s:869    .text.SmartMotorSetControllerStatusLed:0000000000000000 $t
/var/folders/6q/x_mk5n_j3p7_c40r_2k_78980000gn/T//ccu43oO2.s:875    .text.SmartMotorSetControllerStatusLed:0000000000000000 SmartMotorSetControllerStatusLed
/var/folders/6q/x_mk5n_j3p7_c40r_2k_78980000gn/T//ccu43oO2.s:901    .text.SmartMotorSetControllerStatusLed:0000000000000018 $d
/var/folders/6q/x_mk5n_j3p7_c40r_2k_78980000gn/T//ccu43oO2.s:906    .text.SmartMotorSetPowerExpanderStatusPort:0000000000000000 $t
/var/folders/6q/x_mk5n_j3p7_c40r_2k_78980000gn/T//ccu43oO2.s:912    .text.SmartMotorSetPowerExpanderStatusPort:0000000000000000 SmartMotorSetPowerExpanderStatusPort
/var/folders/6q/x_mk5n_j3p7_c40r_2k_78980000gn/T//ccu43oO2.s:931    .text.SmartMotorSetPowerExpanderStatusPort:0000000000000010 $d
/var/folders/6q/x_mk5n_j3p7_c40r_2k_78980000gn/T//ccu43oO2.s:936    .text.SmartMotorPtcMonitorEnable:0000000000000000 $t
/var/folders/6q/x_mk5n_j3p7_c40r_2k_78980000gn/T//ccu43oO2.s:942    .text.SmartMotorPtcMonitorEnable:0000000000000000 SmartMotorPtcMonitorEnable
/var/folders/6q/x_mk5n_j3p7_c40r_2k_78980000gn/T//ccu43oO2.s:965    .text.SmartMotorPtcMonitorEnable:0000000000000010 $d
/var/folders/6q/x_mk5n_j3p7_c40r_2k_78980000gn/T//ccu43oO2.s:971    .text.SmartMotorPtcMonitorDisable:0000000000000000 $t
/var/folders/6q/x_mk5n_j3p7_c40r_2k_78980000gn/T//ccu43oO2.s:977    .text.SmartMotorPtcMonitorDisable:0000000000000000 SmartMotorPtcMonitorDisable
/var/folders/6q/x_mk5n_j3p7_c40r_2k_78980000gn/T//ccu43oO2.s:992    .text.SmartMotorPtcMonitorDisable:0000000000000008 $d
/var/folders/6q/x_mk5n_j3p7_c40r_2k_78980000gn/T//ccu43oO2.s:997    .text.SmartMotorCurrentMonitorEnable:0000000000000000 $t
/var/folders/6q/x_mk5n_j3p7_c40r_2k_78980000gn/T//ccu43oO2.s:1003   .text.SmartMotorCurrentMonitorEnable:0000000000000000 SmartMotorCurrentMonitorEnable
/var/folders/6q/x_mk5n_j3p7_c40r_2k_78980000gn/T//ccu43oO2.s:1026   .text.SmartMotorCurrentMonitorEnable:0000000000000010 $d
/var/folders/6q/x_mk5n_j3p7_c40r_2k_78980000gn/T//ccu43oO2.s:1032   .text.SmartMotorCurrentMonitorDisable:0000000000000000 $t
/var/folders/6q/x_mk5n_j3p7_c40r_2k_78980000gn/T//ccu43oO2.s:1038   .text.SmartMotorCurrentMonitorDisable:0000000000000000 SmartMotorCurrentMonitorDisable
/var/folders/6q/x_mk5n_j3p7_c40r_2k_78980000gn/T//ccu43oO2.s:1053   .text.SmartMotorCurrentMonitorDisable:0000000000000008 $d
/var/folders/6q/x_mk5n_j3p7_c40r_2k_78980000gn/T//ccu43oO2.s:1058   .text.SmartMotorRun:0000000000000000 $t
ARM GAS  /var/folders/6q/x_mk5n_j3p7_c40r_2k_78980000gn/T//ccu43oO2.s 			page 237


/var/folders/6q/x_mk5n_j3p7_c40r_2k_78980000gn/T//ccu43oO2.s:1064   .text.SmartMotorRun:0000000000000000 SmartMotorRun
/var/folders/6q/x_mk5n_j3p7_c40r_2k_78980000gn/T//ccu43oO2.s:1094   .text.SmartMotorRun:000000000000001c $d
/var/folders/6q/x_mk5n_j3p7_c40r_2k_78980000gn/T//ccu43oO2.s:4254   .text.SmartMotorTask:0000000000000000 SmartMotorTask
/var/folders/6q/x_mk5n_j3p7_c40r_2k_78980000gn/T//ccu43oO2.s:1100   .text.SmartMotorStop:0000000000000000 $t
/var/folders/6q/x_mk5n_j3p7_c40r_2k_78980000gn/T//ccu43oO2.s:1106   .text.SmartMotorStop:0000000000000000 SmartMotorStop
/var/folders/6q/x_mk5n_j3p7_c40r_2k_78980000gn/T//ccu43oO2.s:1163   .text.SmartMotorStop:000000000000001c $d
/var/folders/6q/x_mk5n_j3p7_c40r_2k_78980000gn/T//ccu43oO2.s:1171   .text.SmartMotorDebugStatus:0000000000000000 $t
/var/folders/6q/x_mk5n_j3p7_c40r_2k_78980000gn/T//ccu43oO2.s:1177   .text.SmartMotorDebugStatus:0000000000000000 SmartMotorDebugStatus
/var/folders/6q/x_mk5n_j3p7_c40r_2k_78980000gn/T//ccu43oO2.s:1307   .text.SmartMotorDebugStatus:00000000000000b4 $d
/var/folders/6q/x_mk5n_j3p7_c40r_2k_78980000gn/T//ccu43oO2.s:1320   .text._SetMotor:0000000000000000 $t
/var/folders/6q/x_mk5n_j3p7_c40r_2k_78980000gn/T//ccu43oO2.s:1326   .text._SetMotor:0000000000000000 _SetMotor
/var/folders/6q/x_mk5n_j3p7_c40r_2k_78980000gn/T//ccu43oO2.s:1416   .text._SetMotor:0000000000000068 $d
/var/folders/6q/x_mk5n_j3p7_c40r_2k_78980000gn/T//ccu43oO2.s:1421   .text.SmartMotorsInit:0000000000000000 $t
/var/folders/6q/x_mk5n_j3p7_c40r_2k_78980000gn/T//ccu43oO2.s:1427   .text.SmartMotorsInit:0000000000000000 SmartMotorsInit
/var/folders/6q/x_mk5n_j3p7_c40r_2k_78980000gn/T//ccu43oO2.s:1585   .text.SmartMotorsInit:00000000000000e4 $d
/var/folders/6q/x_mk5n_j3p7_c40r_2k_78980000gn/T//ccu43oO2.s:1589   .text.SmartMotorsInit:00000000000000e8 $t
/var/folders/6q/x_mk5n_j3p7_c40r_2k_78980000gn/T//ccu43oO2.s:1837   .text.SmartMotorsInit:0000000000000278 $d
/var/folders/6q/x_mk5n_j3p7_c40r_2k_78980000gn/T//ccu43oO2.s:1873   .text.SmartMotorLinkMotors:0000000000000000 $t
/var/folders/6q/x_mk5n_j3p7_c40r_2k_78980000gn/T//ccu43oO2.s:1879   .text.SmartMotorLinkMotors:0000000000000000 SmartMotorLinkMotors
/var/folders/6q/x_mk5n_j3p7_c40r_2k_78980000gn/T//ccu43oO2.s:1947   .text.SmartMotorLinkMotors:0000000000000040 $d
/var/folders/6q/x_mk5n_j3p7_c40r_2k_78980000gn/T//ccu43oO2.s:1952   .text.SmartMotorsSetEncoderGearing:0000000000000000 $t
/var/folders/6q/x_mk5n_j3p7_c40r_2k_78980000gn/T//ccu43oO2.s:1958   .text.SmartMotorsSetEncoderGearing:0000000000000000 SmartMotorsSetEncoderGearing
/var/folders/6q/x_mk5n_j3p7_c40r_2k_78980000gn/T//ccu43oO2.s:2000   .text.SmartMotorsSetEncoderGearing:0000000000000024 $d
/var/folders/6q/x_mk5n_j3p7_c40r_2k_78980000gn/T//ccu43oO2.s:2005   .text._SmartMotorsAddPowerExtender:0000000000000000 $t
/var/folders/6q/x_mk5n_j3p7_c40r_2k_78980000gn/T//ccu43oO2.s:2011   .text._SmartMotorsAddPowerExtender:0000000000000000 _SmartMotorsAddPowerExtender
/var/folders/6q/x_mk5n_j3p7_c40r_2k_78980000gn/T//ccu43oO2.s:2112   .text._SmartMotorsAddPowerExtender:000000000000006c $d
/var/folders/6q/x_mk5n_j3p7_c40r_2k_78980000gn/T//ccu43oO2.s:2118   .text._SmartMotorSetRpmSensor:0000000000000000 $t
/var/folders/6q/x_mk5n_j3p7_c40r_2k_78980000gn/T//ccu43oO2.s:2124   .text._SmartMotorSetRpmSensor:0000000000000000 _SmartMotorSetRpmSensor
/var/folders/6q/x_mk5n_j3p7_c40r_2k_78980000gn/T//ccu43oO2.s:2178   .text._SmartMotorSetRpmSensor:0000000000000034 $d
/var/folders/6q/x_mk5n_j3p7_c40r_2k_78980000gn/T//ccu43oO2.s:2184   .text.SmartMotorSpeed:0000000000000000 $t
/var/folders/6q/x_mk5n_j3p7_c40r_2k_78980000gn/T//ccu43oO2.s:2190   .text.SmartMotorSpeed:0000000000000000 SmartMotorSpeed
/var/folders/6q/x_mk5n_j3p7_c40r_2k_78980000gn/T//ccu43oO2.s:2276   .text.SmartMotorSpeed:0000000000000074 $d
/var/folders/6q/x_mk5n_j3p7_c40r_2k_78980000gn/T//ccu43oO2.s:2283   .text.SmartMotorSimulateSpeed:0000000000000000 $t
/var/folders/6q/x_mk5n_j3p7_c40r_2k_78980000gn/T//ccu43oO2.s:2289   .text.SmartMotorSimulateSpeed:0000000000000000 SmartMotorSimulateSpeed
/var/folders/6q/x_mk5n_j3p7_c40r_2k_78980000gn/T//ccu43oO2.s:2433   .text.SmartMotorSimulateSpeed:00000000000000b8 $d
/var/folders/6q/x_mk5n_j3p7_c40r_2k_78980000gn/T//ccu43oO2.s:2450   .text.SmartMotorCurrent:0000000000000000 $t
/var/folders/6q/x_mk5n_j3p7_c40r_2k_78980000gn/T//ccu43oO2.s:2456   .text.SmartMotorCurrent:0000000000000000 SmartMotorCurrent
/var/folders/6q/x_mk5n_j3p7_c40r_2k_78980000gn/T//ccu43oO2.s:2941   .text.SmartMotorCurrent:00000000000002d0 $d
/var/folders/6q/x_mk5n_j3p7_c40r_2k_78980000gn/T//ccu43oO2.s:2957   .text.SmartMotorCurrent:0000000000000300 $t
/var/folders/6q/x_mk5n_j3p7_c40r_2k_78980000gn/T//ccu43oO2.s:3308   .text.SmartMotorCurrent:00000000000004a8 $d
/var/folders/6q/x_mk5n_j3p7_c40r_2k_78980000gn/T//ccu43oO2.s:3327   .text.SmartMotorControllerCurrent:0000000000000000 $t
/var/folders/6q/x_mk5n_j3p7_c40r_2k_78980000gn/T//ccu43oO2.s:3333   .text.SmartMotorControllerCurrent:0000000000000000 SmartMotorControllerCurrent
/var/folders/6q/x_mk5n_j3p7_c40r_2k_78980000gn/T//ccu43oO2.s:3398   .text.SmartMotorSafeCommand:0000000000000000 $t
/var/folders/6q/x_mk5n_j3p7_c40r_2k_78980000gn/T//ccu43oO2.s:3404   .text.SmartMotorSafeCommand:0000000000000000 SmartMotorSafeCommand
/var/folders/6q/x_mk5n_j3p7_c40r_2k_78980000gn/T//ccu43oO2.s:3641   .text.SmartMotorSafeCommand:0000000000000180 $d
/var/folders/6q/x_mk5n_j3p7_c40r_2k_78980000gn/T//ccu43oO2.s:3650   .text.SmartMotorTemperature:0000000000000000 $t
/var/folders/6q/x_mk5n_j3p7_c40r_2k_78980000gn/T//ccu43oO2.s:3656   .text.SmartMotorTemperature:0000000000000000 SmartMotorTemperature
/var/folders/6q/x_mk5n_j3p7_c40r_2k_78980000gn/T//ccu43oO2.s:3721   .text.SmartMotorControllerTemperature:0000000000000000 $t
/var/folders/6q/x_mk5n_j3p7_c40r_2k_78980000gn/T//ccu43oO2.s:3727   .text.SmartMotorControllerTemperature:0000000000000000 SmartMotorControllerTemperature
/var/folders/6q/x_mk5n_j3p7_c40r_2k_78980000gn/T//ccu43oO2.s:3792   .text.SmartMotorMonitorPtc:0000000000000000 $t
/var/folders/6q/x_mk5n_j3p7_c40r_2k_78980000gn/T//ccu43oO2.s:3798   .text.SmartMotorMonitorPtc:0000000000000000 SmartMotorMonitorPtc
/var/folders/6q/x_mk5n_j3p7_c40r_2k_78980000gn/T//ccu43oO2.s:3890   .text.SmartMotorMonitorPtc:0000000000000064 $d
/var/folders/6q/x_mk5n_j3p7_c40r_2k_78980000gn/T//ccu43oO2.s:3899   .text.SmartMotorControllerMonitorPtc:0000000000000000 $t
/var/folders/6q/x_mk5n_j3p7_c40r_2k_78980000gn/T//ccu43oO2.s:3905   .text.SmartMotorControllerMonitorPtc:0000000000000000 SmartMotorControllerMonitorPtc
/var/folders/6q/x_mk5n_j3p7_c40r_2k_78980000gn/T//ccu43oO2.s:4056   .text.SmartMotorControllerMonitorPtc:00000000000000b8 $d
/var/folders/6q/x_mk5n_j3p7_c40r_2k_78980000gn/T//ccu43oO2.s:4068   .text.SmartMotorMonitorCurrent:0000000000000000 $t
/var/folders/6q/x_mk5n_j3p7_c40r_2k_78980000gn/T//ccu43oO2.s:4074   .text.SmartMotorMonitorCurrent:0000000000000000 SmartMotorMonitorCurrent
ARM GAS  /var/folders/6q/x_mk5n_j3p7_c40r_2k_78980000gn/T//ccu43oO2.s 			page 238


/var/folders/6q/x_mk5n_j3p7_c40r_2k_78980000gn/T//ccu43oO2.s:4162   .text.SmartMotorMonitorCurrent:0000000000000070 $d
/var/folders/6q/x_mk5n_j3p7_c40r_2k_78980000gn/T//ccu43oO2.s:4168   .text.SmartMotorControllerSetLed:0000000000000000 $t
/var/folders/6q/x_mk5n_j3p7_c40r_2k_78980000gn/T//ccu43oO2.s:4174   .text.SmartMotorControllerSetLed:0000000000000000 SmartMotorControllerSetLed
/var/folders/6q/x_mk5n_j3p7_c40r_2k_78980000gn/T//ccu43oO2.s:4248   .text.SmartMotorTask:0000000000000000 $t
/var/folders/6q/x_mk5n_j3p7_c40r_2k_78980000gn/T//ccu43oO2.s:4685   .text.SmartMotorTask:0000000000000270 $d
/var/folders/6q/x_mk5n_j3p7_c40r_2k_78980000gn/T//ccu43oO2.s:4704   .bss.sMotors:0000000000000000 $d
/var/folders/6q/x_mk5n_j3p7_c40r_2k_78980000gn/T//ccu43oO2.s:4708   .bss.sMotors:0000000000000000 sMotors
/var/folders/6q/x_mk5n_j3p7_c40r_2k_78980000gn/T//ccu43oO2.s:4711   .bss.PtcLimitEnabled:0000000000000000 $d
/var/folders/6q/x_mk5n_j3p7_c40r_2k_78980000gn/T//ccu43oO2.s:4715   .bss.PtcLimitEnabled:0000000000000000 PtcLimitEnabled
/var/folders/6q/x_mk5n_j3p7_c40r_2k_78980000gn/T//ccu43oO2.s:4718   .bss.CurrentLimitEnabled:0000000000000000 $d
/var/folders/6q/x_mk5n_j3p7_c40r_2k_78980000gn/T//ccu43oO2.s:4722   .bss.CurrentLimitEnabled:0000000000000000 CurrentLimitEnabled
/var/folders/6q/x_mk5n_j3p7_c40r_2k_78980000gn/T//ccu43oO2.s:4725   .data.delayTimeMs.8947:0000000000000000 $d
/var/folders/6q/x_mk5n_j3p7_c40r_2k_78980000gn/T//ccu43oO2.s:4729   .data.delayTimeMs.8947:0000000000000000 delayTimeMs.8947
/var/folders/6q/x_mk5n_j3p7_c40r_2k_78980000gn/T//ccu43oO2.s:4732   .rodata.str1.4:0000000000000000 $d
/var/folders/6q/x_mk5n_j3p7_c40r_2k_78980000gn/T//ccu43oO2.s:4760   .rodata.spd_table.8862:0000000000000000 $d
/var/folders/6q/x_mk5n_j3p7_c40r_2k_78980000gn/T//ccu43oO2.s:4764   .rodata.spd_table.8862:0000000000000000 spd_table.8862
/var/folders/6q/x_mk5n_j3p7_c40r_2k_78980000gn/T//ccu43oO2.s:4776   .bss.sPorts:0000000000000000 $d
/var/folders/6q/x_mk5n_j3p7_c40r_2k_78980000gn/T//ccu43oO2.s:4780   .bss.sPorts:0000000000000000 sPorts
                     .debug_frame:0000000000000010 $d

UNDEFINED SYMBOLS
__aeabi_i2f
__aeabi_fcmpeq
__aeabi_fcmpgt
vexTaskRegisterPersistant
vexMotorSet
vexMotorGet
vexSleep
rlist
__aeabi_fdiv
__aeabi_fsub
__aeabi_f2d
__aeabi_dmul
__aeabi_ddiv
__aeabi_d2f
__aeabi_fmul
StartTaskWithPriority
StopTask
vex_printf
vexMotorEncoderIdGet
vexMotorTypeGet
vexMotorPositionGet
__aeabi_i2d
__aeabi_fadd
__aeabi_fcmplt
__aeabi_f2iz
__aeabi_f2uiz
__aeabi_dadd
__aeabi_ui2f
__aeabi_fcmpge
__aeabi_d2iz
__aeabi_fcmple
__aeabi_dsub
__aeabi_dcmpgt
__aeabi_dcmplt
vexDigitalPinSet
vexSpiGetMainBattery
ARM GAS  /var/folders/6q/x_mk5n_j3p7_c40r_2k_78980000gn/T//ccu43oO2.s 			page 239


vexAdcGet
vtlist
