ARM GAS  /var/folders/6q/x_mk5n_j3p7_c40r_2k_78980000gn/T//ccu43oO2.s 			page 1


   1              		.syntax unified
   2              		.cpu cortex-m3
   3              		.fpu softvfp
   4              		.eabi_attribute 20, 1
   5              		.eabi_attribute 21, 1
   6              		.eabi_attribute 23, 3
   7              		.eabi_attribute 24, 1
   8              		.eabi_attribute 25, 1
   9              		.eabi_attribute 26, 1
  10              		.eabi_attribute 30, 2
  11              		.eabi_attribute 34, 1
  12              		.eabi_attribute 18, 4
  13              		.thumb
  14              		.syntax unified
  15              		.file	"smartmotor.c"
  16              		.text
  17              	.Ltext0:
  18              		.cfi_sections	.debug_frame
  19              		.global	__aeabi_i2f
  20              		.global	__aeabi_fcmpeq
  21              		.global	__aeabi_fcmpgt
  22              		.section	.text.SmartMotorSlewRateTask,"ax",%progbits
  23              		.align	2
  24              		.p2align 4,,15
  25              		.global	SmartMotorSlewRateTask
  26              		.thumb
  27              		.thumb_func
  28              		.type	SmartMotorSlewRateTask, %function
  29              	SmartMotorSlewRateTask:
  30              	.LFB108:
  31              		.file 1 "../convex-vexilla/cortex/opt/smartmotor.c"
  32              		.loc 1 1609 0
  33              		.cfi_startproc
  34              		@ args = 0, pretend = 0, frame = 8
  35              		@ frame_needed = 0, uses_anonymous_args = 0
  36              	.LVL0:
  37 0000 2DE9F04F 		push	{r4, r5, r6, r7, r8, r9, r10, fp, lr}
  38              		.cfi_def_cfa_offset 36
  39              		.cfi_offset 4, -36
  40              		.cfi_offset 5, -32
  41              		.cfi_offset 6, -28
  42              		.cfi_offset 7, -24
  43              		.cfi_offset 8, -20
  44              		.cfi_offset 9, -16
  45              		.cfi_offset 10, -12
  46              		.cfi_offset 11, -8
  47              		.cfi_offset 14, -4
  48              		.loc 1 1618 0
  49 0004 0121     		movs	r1, #1
  50 0006 5548     		ldr	r0, .L45
  51              	.LVL1:
  52              		.loc 1 1609 0
  53 0008 83B0     		sub	sp, sp, #12
  54              		.cfi_def_cfa_offset 48
  55              		.loc 1 1618 0
  56 000a FFF7FEFF 		bl	vexTaskRegisterPersistant
  57              	.LVL2:
ARM GAS  /var/folders/6q/x_mk5n_j3p7_c40r_2k_78980000gn/T//ccu43oO2.s 			page 2


  58 000e 544B     		ldr	r3, .L45+4
  59              		.loc 1 1624 0
  60 0010 0022     		movs	r2, #0
  61 0012 03F59B60 		add	r0, r3, #1240
  62              		.loc 1 1626 0
  63 0016 0A21     		movs	r1, #10
  64              	.LVL3:
  65              	.L2:
  66              		.loc 1 1624 0 discriminator 3
  67 0018 DA81     		strh	r2, [r3, #14]	@ movhi
  68              		.loc 1 1625 0 discriminator 3
  69 001a 9A81     		strh	r2, [r3, #12]	@ movhi
  70              		.loc 1 1626 0 discriminator 3
  71 001c 1982     		strh	r1, [r3, #16]	@ movhi
  72 001e 7C33     		adds	r3, r3, #124
  73              		.loc 1 1621 0 discriminator 3
  74 0020 8342     		cmp	r3, r0
  75 0022 F9D1     		bne	.L2
  76              		.loc 1 1630 0
  77 0024 4F4B     		ldr	r3, .L45+8
  78 0026 9B69     		ldr	r3, [r3, #24]
  79 0028 5B7F     		ldrb	r3, [r3, #29]	@ zero_extendqisi2
  80 002a 5A07     		lsls	r2, r3, #29
  81 002c 00F18580 		bmi	.L35
  82 0030 DFF83C91 		ldr	r9, .L45+20
  83              	.L3:
  84 0034 DFF83C81 		ldr	r8, .L45+24
  85 0038 08F59B67 		add	r7, r8, #1240
  86 003c 1BE0     		b	.L17
  87              	.LVL4:
  88              	.L42:
  89              		.loc 1 1645 0 discriminator 2
  90 003e 4A4B     		ldr	r3, .L45+12
  91 0040 B3F90030 		ldrsh	r3, [r3]
  92 0044 0BBB     		cbnz	r3, .L4
  93              	.L5:
  94              		.loc 1 1658 0
  95 0046 38F9083C 		ldrsh	r3, [r8, #-8]
  96 004a 1E46     		mov	r6, r3
  97 004c 28F8063C 		strh	r3, [r8, #-6]	@ movhi
  98              	.LVL5:
  99              	.L13:
 100              		.loc 1 1661 0
 101 0050 B245     		cmp	r10, r6
 102 0052 0CD0     		beq	.L14
 103              		.loc 1 1664 0
 104 0054 45DA     		bge	.L15
 105              		.loc 1 1666 0
 106 0056 38F9043C 		ldrsh	r3, [r8, #-4]
 107 005a 03EB0A04 		add	r4, r3, r10
 108              	.LVL6:
 109 005e B442     		cmp	r4, r6
 110 0060 A8BF     		it	ge
 111 0062 3446     		movge	r4, r6
 112              	.LVL7:
 113              	.L16:
 114              		.loc 1 1682 0
ARM GAS  /var/folders/6q/x_mk5n_j3p7_c40r_2k_78980000gn/T//ccu43oO2.s 			page 3


 115 0064 21B2     		sxth	r1, r4
 116 0066 18F9140C 		ldrsb	r0, [r8, #-20]
 117 006a FFF7FEFF 		bl	vexMotorSet
 118              	.LVL8:
 119              	.L14:
 120 006e 08F17C08 		add	r8, r8, #124
 121              		.loc 1 1637 0 discriminator 2
 122 0072 4745     		cmp	r7, r8
 123 0074 58D0     		beq	.L41
 124              	.LVL9:
 125              	.L17:
 126              		.loc 1 1642 0
 127 0076 18F9140C 		ldrsb	r0, [r8, #-20]
 128 007a FFF7FEFF 		bl	vexMotorGet
 129              	.LVL10:
 130              		.loc 1 1645 0
 131 007e B9F90030 		ldrsh	r3, [r9]
 132              		.loc 1 1642 0
 133 0082 8246     		mov	r10, r0
 134 0084 0446     		mov	r4, r0
 135              	.LVL11:
 136              		.loc 1 1645 0
 137 0086 002B     		cmp	r3, #0
 138 0088 D9D0     		beq	.L42
 139              	.L4:
 140              		.loc 1 1645 0 is_stmt 0 discriminator 3
 141 008a B8F90050 		ldrsh	r5, [r8]
 142 008e FF2D     		cmp	r5, #255
 143 0090 D9D0     		beq	.L5
 144              		.loc 1 1647 0 is_stmt 1
 145 0092 38F9086C 		ldrsh	r6, [r8, #-8]
 146 0096 85EAE573 		eor	r3, r5, r5, asr #31
 147 009a 86EAE672 		eor	r2, r6, r6, asr #31
 148 009e A3EBE573 		sub	r3, r3, r5, asr #31
 149 00a2 A2EBE672 		sub	r2, r2, r6, asr #31
 150 00a6 9A42     		cmp	r2, r3
 151 00a8 18DD     		ble	.L6
 152              		.loc 1 1649 0
 153 00aa 3046     		mov	r0, r6
 154              	.LVL12:
 155 00ac FFF7FEFF 		bl	__aeabi_i2f
 156              	.LVL13:
 157              	.LBB46:
 158              	.LBB47:
 159              		.loc 1 142 0
 160 00b0 0021     		movs	r1, #0
 161              	.LBE47:
 162              	.LBE46:
 163              		.loc 1 1649 0
 164 00b2 8346     		mov	fp, r0
 165              	.LVL14:
 166              	.LBB51:
 167              	.LBB48:
 168              		.loc 1 142 0
 169 00b4 FFF7FEFF 		bl	__aeabi_fcmpeq
 170              	.LVL15:
 171 00b8 E0B9     		cbnz	r0, .L7
ARM GAS  /var/folders/6q/x_mk5n_j3p7_c40r_2k_78980000gn/T//ccu43oO2.s 			page 4


 172              		.loc 1 143 0
 173 00ba 5846     		mov	r0, fp
 174 00bc 0021     		movs	r1, #0
 175 00be FFF7FEFF 		bl	__aeabi_fcmpgt
 176              	.LVL16:
 177 00c2 0028     		cmp	r0, #0
 178 00c4 3DD0     		beq	.L43
 179 00c6 4FF07E5B 		mov	fp, #1065353216
 180              	.LVL17:
 181              	.L9:
 182              	.LBE48:
 183              	.LBE51:
 184              		.loc 1 1649 0
 185 00ca 2846     		mov	r0, r5
 186 00cc FFF7FEFF 		bl	__aeabi_i2f
 187              	.LVL18:
 188              	.LBB52:
 189              	.LBB53:
 190              		.loc 1 142 0
 191 00d0 0021     		movs	r1, #0
 192              	.LBE53:
 193              	.LBE52:
 194              		.loc 1 1649 0
 195 00d2 0190     		str	r0, [sp, #4]	@ float
 196              	.LVL19:
 197              	.LBB59:
 198              	.LBB54:
 199              		.loc 1 142 0
 200 00d4 FFF7FEFF 		bl	__aeabi_fcmpeq
 201              	.LVL20:
 202 00d8 0028     		cmp	r0, #0
 203 00da 35D0     		beq	.L44
 204              	.LVL21:
 205              	.L6:
 206              	.LBE54:
 207              	.LBE59:
 208              		.loc 1 1655 0
 209 00dc 28F8066C 		strh	r6, [r8, #-6]	@ movhi
 210 00e0 B6E7     		b	.L13
 211              	.L15:
 212              		.loc 1 1673 0
 213 00e2 BFDD     		ble	.L16
 214              		.loc 1 1675 0
 215 00e4 38F9043C 		ldrsh	r3, [r8, #-4]
 216 00e8 C3EB0A04 		rsb	r4, r3, r10
 217              	.LVL22:
 218 00ec B442     		cmp	r4, r6
 219 00ee B8BF     		it	lt
 220 00f0 3446     		movlt	r4, r6
 221              	.LVL23:
 222 00f2 B7E7     		b	.L16
 223              	.LVL24:
 224              	.L7:
 225              		.loc 1 1649 0
 226 00f4 2846     		mov	r0, r5
 227 00f6 FFF7FEFF 		bl	__aeabi_i2f
 228              	.LVL25:
ARM GAS  /var/folders/6q/x_mk5n_j3p7_c40r_2k_78980000gn/T//ccu43oO2.s 			page 5


 229              	.LBB60:
 230              	.LBB55:
 231              		.loc 1 142 0
 232 00fa 0021     		movs	r1, #0
 233              	.LBE55:
 234              	.LBE60:
 235              		.loc 1 1649 0
 236 00fc 8346     		mov	fp, r0
 237              	.LVL26:
 238              	.LBB61:
 239              	.LBB56:
 240              		.loc 1 142 0
 241 00fe FFF7FEFF 		bl	__aeabi_fcmpeq
 242              	.LVL27:
 243 0102 68B9     		cbnz	r0, .L19
 244              		.loc 1 143 0
 245 0104 5846     		mov	r0, fp
 246 0106 0021     		movs	r1, #0
 247 0108 FFF7FEFF 		bl	__aeabi_fcmpgt
 248              	.LVL28:
 249 010c 0028     		cmp	r0, #0
 250 010e E5D1     		bne	.L6
 251              	.LBE56:
 252              	.LBE61:
 253              	.LBB62:
 254              	.LBB49:
 255              		.loc 1 142 0
 256 0110 4FF0000B 		mov	fp, #0
 257              	.LVL29:
 258              	.L22:
 259              	.LBE49:
 260              	.LBE62:
 261              	.LBB63:
 262              	.LBB57:
 263              		.loc 1 143 0
 264 0114 1548     		ldr	r0, .L45+16
 265              	.L10:
 266              	.LBE57:
 267              	.LBE63:
 268              		.loc 1 1649 0
 269 0116 5946     		mov	r1, fp
 270 0118 FFF7FEFF 		bl	__aeabi_fcmpeq
 271              	.LVL30:
 272 011c 0028     		cmp	r0, #0
 273 011e DDD0     		beq	.L6
 274              	.L19:
 275              		.loc 1 1650 0
 276 0120 28F8065C 		strh	r5, [r8, #-6]	@ movhi
 277 0124 2E46     		mov	r6, r5
 278 0126 93E7     		b	.L13
 279              	.L41:
 280              		.loc 1 1691 0
 281 0128 0F20     		movs	r0, #15
 282 012a FFF7FEFF 		bl	vexSleep
 283              	.LVL31:
 284              		.loc 1 1630 0
 285 012e 0D4B     		ldr	r3, .L45+8
ARM GAS  /var/folders/6q/x_mk5n_j3p7_c40r_2k_78980000gn/T//ccu43oO2.s 			page 6


 286 0130 9B69     		ldr	r3, [r3, #24]
 287 0132 5B7F     		ldrb	r3, [r3, #29]	@ zero_extendqisi2
 288 0134 5B07     		lsls	r3, r3, #29
 289 0136 7FF57DAF 		bpl	.L3
 290              	.LVL32:
 291              	.L35:
 292              		.loc 1 1695 0
 293 013a 0020     		movs	r0, #0
 294 013c 03B0     		add	sp, sp, #12
 295              		.cfi_remember_state
 296              		.cfi_def_cfa_offset 36
 297              		@ sp needed
 298 013e BDE8F08F 		pop	{r4, r5, r6, r7, r8, r9, r10, fp, pc}
 299              	.LVL33:
 300              	.L43:
 301              		.cfi_restore_state
 302              	.LBB64:
 303              	.LBB50:
 304              		.loc 1 143 0
 305 0142 DFF828B0 		ldr	fp, .L45+16
 306              	.LVL34:
 307 0146 C0E7     		b	.L9
 308              	.LVL35:
 309              	.L44:
 310              	.LBE50:
 311              	.LBE64:
 312              	.LBB65:
 313              	.LBB58:
 314 0148 0198     		ldr	r0, [sp, #4]	@ float
 315 014a 0021     		movs	r1, #0
 316 014c FFF7FEFF 		bl	__aeabi_fcmpgt
 317              	.LVL36:
 318 0150 0028     		cmp	r0, #0
 319 0152 DFD0     		beq	.L22
 320 0154 4FF07E50 		mov	r0, #1065353216
 321 0158 DDE7     		b	.L10
 322              	.L46:
 323 015a 00BF     		.align	2
 324              	.L45:
 325 015c 00000000 		.word	.LC0
 326 0160 00000000 		.word	.LANCHOR0
 327 0164 00000000 		.word	rlist
 328 0168 00000000 		.word	.LANCHOR2
 329 016c 000080BF 		.word	-1082130432
 330 0170 00000000 		.word	.LANCHOR1
 331 0174 14000000 		.word	.LANCHOR0+20
 332              	.LBE58:
 333              	.LBE65:
 334              		.cfi_endproc
 335              	.LFE108:
 336              		.size	SmartMotorSlewRateTask, .-SmartMotorSlewRateTask
 337              		.section	.text.SmartMotorGetPtr,"ax",%progbits
 338              		.align	2
 339              		.p2align 4,,15
 340              		.global	SmartMotorGetPtr
 341              		.thumb
 342              		.thumb_func
ARM GAS  /var/folders/6q/x_mk5n_j3p7_c40r_2k_78980000gn/T//ccu43oO2.s 			page 7


 343              		.type	SmartMotorGetPtr, %function
 344              	SmartMotorGetPtr:
 345              	.LFB69:
 346              		.loc 1 167 0
 347              		.cfi_startproc
 348              		@ args = 0, pretend = 0, frame = 0
 349              		@ frame_needed = 0, uses_anonymous_args = 0
 350              		@ link register save eliminated.
 351              	.LVL37:
 352              		.loc 1 169 0
 353 0000 C3B2     		uxtb	r3, r0
 354 0002 092B     		cmp	r3, #9
 355              		.loc 1 172 0
 356 0004 9DBF     		ittte	ls
 357 0006 034B     		ldrls	r3, .L50
 358 0008 C0EB4010 		rsbls	r0, r0, r0, lsl #5
 359              	.LVL38:
 360 000c 03EB8000 		addls	r0, r3, r0, lsl #2
 361              		.loc 1 170 0
 362 0010 0020     		movhi	r0, #0
 363              		.loc 1 173 0
 364 0012 7047     		bx	lr
 365              	.L51:
 366              		.align	2
 367              	.L50:
 368 0014 00000000 		.word	.LANCHOR0
 369              		.cfi_endproc
 370              	.LFE69:
 371              		.size	SmartMotorGetPtr, .-SmartMotorGetPtr
 372              		.section	.text.SmartMotorControllerGetPtr,"ax",%progbits
 373              		.align	2
 374              		.p2align 4,,15
 375              		.global	SmartMotorControllerGetPtr
 376              		.thumb
 377              		.thumb_func
 378              		.type	SmartMotorControllerGetPtr, %function
 379              	SmartMotorControllerGetPtr:
 380              	.LFB70:
 381              		.loc 1 183 0
 382              		.cfi_startproc
 383              		@ args = 0, pretend = 0, frame = 0
 384              		@ frame_needed = 0, uses_anonymous_args = 0
 385              		@ link register save eliminated.
 386              	.LVL39:
 387              		.loc 1 185 0
 388 0000 83B2     		uxth	r3, r0
 389 0002 092B     		cmp	r3, #9
 390              		.loc 1 188 0
 391 0004 9DBF     		ittte	ls
 392 0006 034B     		ldrls	r3, .L55
 393 0008 3422     		movls	r2, #52
 394 000a 02FB0030 		mlals	r0, r2, r0, r3
 395              	.LVL40:
 396              		.loc 1 186 0
 397 000e 0020     		movhi	r0, #0
 398              		.loc 1 189 0
 399 0010 7047     		bx	lr
ARM GAS  /var/folders/6q/x_mk5n_j3p7_c40r_2k_78980000gn/T//ccu43oO2.s 			page 8


 400              	.L56:
 401 0012 00BF     		.align	2
 402              	.L55:
 403 0014 00000000 		.word	.LANCHOR3
 404              		.cfi_endproc
 405              	.LFE70:
 406              		.size	SmartMotorControllerGetPtr, .-SmartMotorControllerGetPtr
 407              		.section	.text.SmartMotorGetSpeed,"ax",%progbits
 408              		.align	2
 409              		.p2align 4,,15
 410              		.global	SmartMotorGetSpeed
 411              		.thumb
 412              		.thumb_func
 413              		.type	SmartMotorGetSpeed, %function
 414              	SmartMotorGetSpeed:
 415              	.LFB71:
 416              		.loc 1 199 0
 417              		.cfi_startproc
 418              		@ args = 0, pretend = 0, frame = 0
 419              		@ frame_needed = 0, uses_anonymous_args = 0
 420              		@ link register save eliminated.
 421              	.LVL41:
 422              		.loc 1 201 0
 423 0000 C3B2     		uxtb	r3, r0
 424 0002 092B     		cmp	r3, #9
 425 0004 06D8     		bhi	.L59
 426              		.loc 1 204 0
 427 0006 044B     		ldr	r3, .L60
 428 0008 C0EB4010 		rsb	r0, r0, r0, lsl #5
 429              	.LVL42:
 430 000c 03EB8000 		add	r0, r3, r0, lsl #2
 431 0010 006B     		ldr	r0, [r0, #48]	@ float
 432 0012 7047     		bx	lr
 433              	.LVL43:
 434              	.L59:
 435              		.loc 1 202 0
 436 0014 0020     		movs	r0, #0
 437              	.LVL44:
 438              		.loc 1 205 0
 439 0016 7047     		bx	lr
 440              	.L61:
 441              		.align	2
 442              	.L60:
 443 0018 00000000 		.word	.LANCHOR0
 444              		.cfi_endproc
 445              	.LFE71:
 446              		.size	SmartMotorGetSpeed, .-SmartMotorGetSpeed
 447              		.section	.text._SmartMotorGetCurrent,"ax",%progbits
 448              		.align	2
 449              		.p2align 4,,15
 450              		.global	_SmartMotorGetCurrent
 451              		.thumb
 452              		.thumb_func
 453              		.type	_SmartMotorGetCurrent, %function
 454              	_SmartMotorGetCurrent:
 455              	.LFB72:
 456              		.loc 1 217 0
ARM GAS  /var/folders/6q/x_mk5n_j3p7_c40r_2k_78980000gn/T//ccu43oO2.s 			page 9


 457              		.cfi_startproc
 458              		@ args = 4, pretend = 12, frame = 0
 459              		@ frame_needed = 0, uses_anonymous_args = 1
 460              		@ link register save eliminated.
 461              	.LVL45:
 462 0000 0EB4     		push	{r1, r2, r3}
 463              		.cfi_def_cfa_offset 12
 464              		.cfi_offset 1, -12
 465              		.cfi_offset 2, -8
 466              		.cfi_offset 3, -4
 467              		.loc 1 219 0
 468 0002 C3B2     		uxtb	r3, r0
 469 0004 092B     		cmp	r3, #9
 470 0006 13D8     		bhi	.L65
 471              		.loc 1 223 0
 472 0008 009B     		ldr	r3, [sp]
 473 000a 4BB9     		cbnz	r3, .L67
 474              		.loc 1 226 0
 475 000c 0A4B     		ldr	r3, .L68
 476 000e C0EB4010 		rsb	r0, r0, r0, lsl #5
 477              	.LVL46:
 478 0012 03EB8000 		add	r0, r3, r0, lsl #2
 479 0016 006D     		ldr	r0, [r0, #80]
 480              		.loc 1 227 0
 481 0018 03B0     		add	sp, sp, #12
 482              		.cfi_remember_state
 483              		.cfi_restore 3
 484              		.cfi_restore 2
 485              		.cfi_restore 1
 486              		.cfi_def_cfa_offset 0
 487              		.loc 1 226 0
 488 001a 20F00040 		bic	r0, r0, #-2147483648
 489              		.loc 1 227 0
 490 001e 7047     		bx	lr
 491              	.LVL47:
 492              	.L67:
 493              		.cfi_restore_state
 494              		.loc 1 224 0
 495 0020 054B     		ldr	r3, .L68
 496 0022 C0EB4010 		rsb	r0, r0, r0, lsl #5
 497              	.LVL48:
 498 0026 03EB8000 		add	r0, r3, r0, lsl #2
 499 002a 006D     		ldr	r0, [r0, #80]	@ float
 500              		.loc 1 227 0
 501 002c 03B0     		add	sp, sp, #12
 502              		.cfi_remember_state
 503              		.cfi_restore 1
 504              		.cfi_restore 2
 505              		.cfi_restore 3
 506              		.cfi_def_cfa_offset 0
 507 002e 7047     		bx	lr
 508              	.LVL49:
 509              	.L65:
 510              		.cfi_restore_state
 511              		.loc 1 220 0
 512 0030 0020     		movs	r0, #0
 513              	.LVL50:
ARM GAS  /var/folders/6q/x_mk5n_j3p7_c40r_2k_78980000gn/T//ccu43oO2.s 			page 10


 514              		.loc 1 227 0
 515 0032 03B0     		add	sp, sp, #12
 516              		.cfi_restore 1
 517              		.cfi_restore 2
 518              		.cfi_restore 3
 519              		.cfi_def_cfa_offset 0
 520 0034 7047     		bx	lr
 521              	.L69:
 522 0036 00BF     		.align	2
 523              	.L68:
 524 0038 00000000 		.word	.LANCHOR0
 525              		.cfi_endproc
 526              	.LFE72:
 527              		.size	_SmartMotorGetCurrent, .-_SmartMotorGetCurrent
 528              		.section	.text.SmartMotorGetTemperature,"ax",%progbits
 529              		.align	2
 530              		.p2align 4,,15
 531              		.global	SmartMotorGetTemperature
 532              		.thumb
 533              		.thumb_func
 534              		.type	SmartMotorGetTemperature, %function
 535              	SmartMotorGetTemperature:
 536              	.LFB73:
 537              		.loc 1 237 0
 538              		.cfi_startproc
 539              		@ args = 0, pretend = 0, frame = 0
 540              		@ frame_needed = 0, uses_anonymous_args = 0
 541              		@ link register save eliminated.
 542              	.LVL51:
 543              		.loc 1 239 0
 544 0000 C3B2     		uxtb	r3, r0
 545 0002 092B     		cmp	r3, #9
 546 0004 06D8     		bhi	.L72
 547              		.loc 1 242 0
 548 0006 044B     		ldr	r3, .L73
 549 0008 C0EB4010 		rsb	r0, r0, r0, lsl #5
 550              	.LVL52:
 551 000c 03EB8000 		add	r0, r3, r0, lsl #2
 552 0010 406E     		ldr	r0, [r0, #100]	@ float
 553 0012 7047     		bx	lr
 554              	.LVL53:
 555              	.L72:
 556              		.loc 1 240 0
 557 0014 0020     		movs	r0, #0
 558              	.LVL54:
 559              		.loc 1 243 0
 560 0016 7047     		bx	lr
 561              	.L74:
 562              		.align	2
 563              	.L73:
 564 0018 00000000 		.word	.LANCHOR0
 565              		.cfi_endproc
 566              	.LFE73:
 567              		.size	SmartMotorGetTemperature, .-SmartMotorGetTemperature
 568              		.section	.text.SmartMotorGetLimitCmd,"ax",%progbits
 569              		.align	2
 570              		.p2align 4,,15
ARM GAS  /var/folders/6q/x_mk5n_j3p7_c40r_2k_78980000gn/T//ccu43oO2.s 			page 11


 571              		.global	SmartMotorGetLimitCmd
 572              		.thumb
 573              		.thumb_func
 574              		.type	SmartMotorGetLimitCmd, %function
 575              	SmartMotorGetLimitCmd:
 576              	.LFB74:
 577              		.loc 1 253 0
 578              		.cfi_startproc
 579              		@ args = 0, pretend = 0, frame = 0
 580              		@ frame_needed = 0, uses_anonymous_args = 0
 581              		@ link register save eliminated.
 582              	.LVL55:
 583              		.loc 1 255 0
 584 0000 C3B2     		uxtb	r3, r0
 585 0002 092B     		cmp	r3, #9
 586 0004 07D8     		bhi	.L77
 587              		.loc 1 258 0
 588 0006 054B     		ldr	r3, .L78
 589 0008 C0EB4010 		rsb	r0, r0, r0, lsl #5
 590              	.LVL56:
 591 000c 03EB8000 		add	r0, r3, r0, lsl #2
 592 0010 B0F91400 		ldrsh	r0, [r0, #20]
 593 0014 7047     		bx	lr
 594              	.LVL57:
 595              	.L77:
 596              		.loc 1 256 0
 597 0016 0020     		movs	r0, #0
 598              	.LVL58:
 599              		.loc 1 259 0
 600 0018 7047     		bx	lr
 601              	.L79:
 602 001a 00BF     		.align	2
 603              	.L78:
 604 001c 00000000 		.word	.LANCHOR0
 605              		.cfi_endproc
 606              	.LFE74:
 607              		.size	SmartMotorGetLimitCmd, .-SmartMotorGetLimitCmd
 608              		.section	.text._SmartMotorSetLimitCurent,"ax",%progbits
 609              		.align	2
 610              		.p2align 4,,15
 611              		.global	_SmartMotorSetLimitCurent
 612              		.thumb
 613              		.thumb_func
 614              		.type	_SmartMotorSetLimitCurent, %function
 615              	_SmartMotorSetLimitCurent:
 616              	.LFB75:
 617              		.loc 1 273 0
 618              		.cfi_startproc
 619              		@ args = 4, pretend = 12, frame = 0
 620              		@ frame_needed = 0, uses_anonymous_args = 1
 621              		@ link register save eliminated.
 622              	.LVL59:
 623 0000 0EB4     		push	{r1, r2, r3}
 624              		.cfi_def_cfa_offset 12
 625              		.cfi_offset 1, -12
 626              		.cfi_offset 2, -8
 627              		.cfi_offset 3, -4
ARM GAS  /var/folders/6q/x_mk5n_j3p7_c40r_2k_78980000gn/T//ccu43oO2.s 			page 12


 628              		.loc 1 275 0
 629 0002 C3B2     		uxtb	r3, r0
 630 0004 092B     		cmp	r3, #9
 631 0006 06D8     		bhi	.L80
 632              		.loc 1 278 0
 633 0008 044B     		ldr	r3, .L83
 634 000a C0EB4010 		rsb	r0, r0, r0, lsl #5
 635              	.LVL60:
 636 000e 03EB8000 		add	r0, r3, r0, lsl #2
 637 0012 009B     		ldr	r3, [sp]	@ float
 638 0014 8361     		str	r3, [r0, #24]	@ float
 639              	.L80:
 640              		.loc 1 279 0
 641 0016 03B0     		add	sp, sp, #12
 642              		.cfi_restore 3
 643              		.cfi_restore 2
 644              		.cfi_restore 1
 645              		.cfi_def_cfa_offset 0
 646 0018 7047     		bx	lr
 647              	.L84:
 648 001a 00BF     		.align	2
 649              	.L83:
 650 001c 00000000 		.word	.LANCHOR0
 651              		.cfi_endproc
 652              	.LFE75:
 653              		.size	_SmartMotorSetLimitCurent, .-_SmartMotorSetLimitCurent
 654              		.global	__aeabi_fdiv
 655              		.global	__aeabi_fsub
 656              		.global	__aeabi_f2d
 657              		.global	__aeabi_dmul
 658              		.global	__aeabi_ddiv
 659              		.global	__aeabi_d2f
 660              		.global	__aeabi_fmul
 661              		.section	.text.SmartMotorSetFreeRpm,"ax",%progbits
 662              		.align	2
 663              		.p2align 4,,15
 664              		.global	SmartMotorSetFreeRpm
 665              		.thumb
 666              		.thumb_func
 667              		.type	SmartMotorSetFreeRpm, %function
 668              	SmartMotorSetFreeRpm:
 669              	.LFB76:
 670              		.loc 1 289 0
 671              		.cfi_startproc
 672              		@ args = 0, pretend = 0, frame = 0
 673              		@ frame_needed = 0, uses_anonymous_args = 0
 674              	.LVL61:
 675 0000 F8B5     		push	{r3, r4, r5, r6, r7, lr}
 676              		.cfi_def_cfa_offset 24
 677              		.cfi_offset 3, -24
 678              		.cfi_offset 4, -20
 679              		.cfi_offset 5, -16
 680              		.cfi_offset 6, -12
 681              		.cfi_offset 7, -8
 682              		.cfi_offset 14, -4
 683              		.loc 1 291 0
 684 0002 C3B2     		uxtb	r3, r0
ARM GAS  /var/folders/6q/x_mk5n_j3p7_c40r_2k_78980000gn/T//ccu43oO2.s 			page 13


 685 0004 092B     		cmp	r3, #9
 686 0006 2ED8     		bhi	.L85
 687 0008 0446     		mov	r4, r0
 688              	.LVL62:
 689              		.loc 1 297 0
 690 000a 0846     		mov	r0, r1
 691              	.LVL63:
 692 000c FFF7FEFF 		bl	__aeabi_i2f
 693              	.LVL64:
 694 0010 0546     		mov	r5, r0
 695 0012 174B     		ldr	r3, .L88+8
 696 0014 C4EB4410 		rsb	r0, r4, r4, lsl #5
 697 0018 03EB8004 		add	r4, r3, r0, lsl #2
 698              	.LVL65:
 699              		.loc 1 300 0
 700 001c A16B     		ldr	r1, [r4, #56]	@ float
 701 001e 606B     		ldr	r0, [r4, #52]	@ float
 702              		.loc 1 297 0
 703 0020 A564     		str	r5, [r4, #72]	@ float
 704              		.loc 1 300 0
 705 0022 FFF7FEFF 		bl	__aeabi_fdiv
 706              	.LVL66:
 707 0026 0146     		mov	r1, r0
 708 0028 4FF07E50 		mov	r0, #1065353216
 709 002c FFF7FEFF 		bl	__aeabi_fsub
 710              	.LVL67:
 711 0030 FFF7FEFF 		bl	__aeabi_f2d
 712              	.LVL68:
 713 0034 0CA3     		adr	r3, .L88
 714 0036 D3E90023 		ldrd	r2, [r3]
 715 003a FFF7FEFF 		bl	__aeabi_dmul
 716              	.LVL69:
 717 003e 0646     		mov	r6, r0
 718 0040 2846     		mov	r0, r5
 719 0042 0F46     		mov	r7, r1
 720 0044 FFF7FEFF 		bl	__aeabi_f2d
 721              	.LVL70:
 722 0048 0246     		mov	r2, r0
 723 004a 0B46     		mov	r3, r1
 724 004c 3046     		mov	r0, r6
 725 004e 3946     		mov	r1, r7
 726 0050 FFF7FEFF 		bl	__aeabi_ddiv
 727              	.LVL71:
 728 0054 FFF7FEFF 		bl	__aeabi_d2f
 729              	.LVL72:
 730 0058 0346     		mov	r3, r0
 731              		.loc 1 303 0
 732 005a 2846     		mov	r0, r5
 733 005c 1946     		mov	r1, r3
 734              		.loc 1 300 0
 735 005e 6364     		str	r3, [r4, #68]	@ float
 736              		.loc 1 303 0
 737 0060 FFF7FEFF 		bl	__aeabi_fmul
 738              	.LVL73:
 739 0064 E064     		str	r0, [r4, #76]	@ float
 740              	.L85:
 741 0066 F8BD     		pop	{r3, r4, r5, r6, r7, pc}
ARM GAS  /var/folders/6q/x_mk5n_j3p7_c40r_2k_78980000gn/T//ccu43oO2.s 			page 14


 742              	.L89:
 743              		.align	3
 744              	.L88:
 745 0068 CDCCCCCC 		.word	3435973837
 746 006c CCCC1C40 		.word	1075629260
 747 0070 00000000 		.word	.LANCHOR0
 748              		.cfi_endproc
 749              	.LFE76:
 750              		.size	SmartMotorSetFreeRpm, .-SmartMotorSetFreeRpm
 751              		.section	.text.SmartMotorSetSlewRate,"ax",%progbits
 752              		.align	2
 753              		.p2align 4,,15
 754              		.global	SmartMotorSetSlewRate
 755              		.thumb
 756              		.thumb_func
 757              		.type	SmartMotorSetSlewRate, %function
 758              	SmartMotorSetSlewRate:
 759              	.LFB77:
 760              		.loc 1 315 0
 761              		.cfi_startproc
 762              		@ args = 0, pretend = 0, frame = 0
 763              		@ frame_needed = 0, uses_anonymous_args = 0
 764              		@ link register save eliminated.
 765              	.LVL74:
 766              		.loc 1 317 0
 767 0000 C3B2     		uxtb	r3, r0
 768 0002 092B     		cmp	r3, #9
 769 0004 07D8     		bhi	.L90
 770              		.loc 1 321 0
 771 0006 0029     		cmp	r1, #0
 772 0008 05DD     		ble	.L90
 773              		.loc 1 324 0
 774 000a 034B     		ldr	r3, .L92
 775 000c C0EB4010 		rsb	r0, r0, r0, lsl #5
 776              	.LVL75:
 777 0010 03EB8000 		add	r0, r3, r0, lsl #2
 778 0014 0182     		strh	r1, [r0, #16]	@ movhi
 779              	.L90:
 780 0016 7047     		bx	lr
 781              	.L93:
 782              		.align	2
 783              	.L92:
 784 0018 00000000 		.word	.LANCHOR0
 785              		.cfi_endproc
 786              	.LFE77:
 787              		.size	SmartMotorSetSlewRate, .-SmartMotorSetSlewRate
 788              		.section	.text.SmartMotorGetControllerCurrent,"ax",%progbits
 789              		.align	2
 790              		.p2align 4,,15
 791              		.global	SmartMotorGetControllerCurrent
 792              		.thumb
 793              		.thumb_func
 794              		.type	SmartMotorGetControllerCurrent, %function
 795              	SmartMotorGetControllerCurrent:
 796              	.LFB78:
 797              		.loc 1 335 0
 798              		.cfi_startproc
ARM GAS  /var/folders/6q/x_mk5n_j3p7_c40r_2k_78980000gn/T//ccu43oO2.s 			page 15


 799              		@ args = 0, pretend = 0, frame = 0
 800              		@ frame_needed = 0, uses_anonymous_args = 0
 801              		@ link register save eliminated.
 802              	.LVL76:
 803              		.loc 1 337 0
 804 0000 83B2     		uxth	r3, r0
 805 0002 022B     		cmp	r3, #2
 806 0004 05D8     		bhi	.L96
 807              		.loc 1 340 0
 808 0006 044B     		ldr	r3, .L97
 809 0008 3422     		movs	r2, #52
 810 000a 02FB0030 		mla	r0, r2, r0, r3
 811              	.LVL77:
 812 000e 4069     		ldr	r0, [r0, #20]	@ float
 813 0010 7047     		bx	lr
 814              	.LVL78:
 815              	.L96:
 816              		.loc 1 338 0
 817 0012 0020     		movs	r0, #0
 818              	.LVL79:
 819              		.loc 1 341 0
 820 0014 7047     		bx	lr
 821              	.L98:
 822 0016 00BF     		.align	2
 823              	.L97:
 824 0018 00000000 		.word	.LANCHOR3
 825              		.cfi_endproc
 826              	.LFE78:
 827              		.size	SmartMotorGetControllerCurrent, .-SmartMotorGetControllerCurrent
 828              		.section	.text.SmartMotorGetControllerTemperature,"ax",%progbits
 829              		.align	2
 830              		.p2align 4,,15
 831              		.global	SmartMotorGetControllerTemperature
 832              		.thumb
 833              		.thumb_func
 834              		.type	SmartMotorGetControllerTemperature, %function
 835              	SmartMotorGetControllerTemperature:
 836              	.LFB79:
 837              		.loc 1 350 0
 838              		.cfi_startproc
 839              		@ args = 0, pretend = 0, frame = 0
 840              		@ frame_needed = 0, uses_anonymous_args = 0
 841              		@ link register save eliminated.
 842              	.LVL80:
 843              		.loc 1 352 0
 844 0000 83B2     		uxth	r3, r0
 845 0002 022B     		cmp	r3, #2
 846 0004 05D8     		bhi	.L101
 847              		.loc 1 355 0
 848 0006 044B     		ldr	r3, .L102
 849 0008 3422     		movs	r2, #52
 850 000a 02FB0030 		mla	r0, r2, r0, r3
 851              	.LVL81:
 852 000e 006A     		ldr	r0, [r0, #32]	@ float
 853 0010 7047     		bx	lr
 854              	.LVL82:
 855              	.L101:
ARM GAS  /var/folders/6q/x_mk5n_j3p7_c40r_2k_78980000gn/T//ccu43oO2.s 			page 16


 856              		.loc 1 353 0
 857 0012 0020     		movs	r0, #0
 858              	.LVL83:
 859              		.loc 1 356 0
 860 0014 7047     		bx	lr
 861              	.L103:
 862 0016 00BF     		.align	2
 863              	.L102:
 864 0018 00000000 		.word	.LANCHOR3
 865              		.cfi_endproc
 866              	.LFE79:
 867              		.size	SmartMotorGetControllerTemperature, .-SmartMotorGetControllerTemperature
 868              		.section	.text.SmartMotorSetControllerStatusLed,"ax",%progbits
 869              		.align	2
 870              		.p2align 4,,15
 871              		.global	SmartMotorSetControllerStatusLed
 872              		.thumb
 873              		.thumb_func
 874              		.type	SmartMotorSetControllerStatusLed, %function
 875              	SmartMotorSetControllerStatusLed:
 876              	.LFB80:
 877              		.loc 1 370 0
 878              		.cfi_startproc
 879              		@ args = 0, pretend = 0, frame = 0
 880              		@ frame_needed = 0, uses_anonymous_args = 0
 881              		@ link register save eliminated.
 882              	.LVL84:
 883              		.loc 1 372 0
 884 0000 0228     		cmp	r0, #2
 885 0002 08D8     		bhi	.L104
 886              		.loc 1 375 0
 887 0004 CBB2     		uxtb	r3, r1
 888 0006 0B2B     		cmp	r3, #11
 889 0008 05D8     		bhi	.L104
 890              		.loc 1 378 0
 891 000a 034B     		ldr	r3, .L106
 892 000c 3422     		movs	r2, #52
 893 000e 02FB0030 		mla	r0, r2, r0, r3
 894              	.LVL85:
 895 0012 80F83210 		strb	r1, [r0, #50]
 896              	.L104:
 897 0016 7047     		bx	lr
 898              	.L107:
 899              		.align	2
 900              	.L106:
 901 0018 00000000 		.word	.LANCHOR3
 902              		.cfi_endproc
 903              	.LFE80:
 904              		.size	SmartMotorSetControllerStatusLed, .-SmartMotorSetControllerStatusLed
 905              		.section	.text.SmartMotorSetPowerExpanderStatusPort,"ax",%progbits
 906              		.align	2
 907              		.p2align 4,,15
 908              		.global	SmartMotorSetPowerExpanderStatusPort
 909              		.thumb
 910              		.thumb_func
 911              		.type	SmartMotorSetPowerExpanderStatusPort, %function
 912              	SmartMotorSetPowerExpanderStatusPort:
ARM GAS  /var/folders/6q/x_mk5n_j3p7_c40r_2k_78980000gn/T//ccu43oO2.s 			page 17


 913              	.LFB81:
 914              		.loc 1 392 0
 915              		.cfi_startproc
 916              		@ args = 0, pretend = 0, frame = 0
 917              		@ frame_needed = 0, uses_anonymous_args = 0
 918              		@ link register save eliminated.
 919              	.LVL86:
 920              		.loc 1 393 0
 921 0000 C3B2     		uxtb	r3, r0
 922 0002 072B     		cmp	r3, #7
 923              		.loc 1 396 0
 924 0004 9CBF     		itt	ls
 925 0006 024B     		ldrls	r3, .L110
 926 0008 83F89B00 		strbls	r0, [r3, #155]
 927 000c 7047     		bx	lr
 928              	.L111:
 929 000e 00BF     		.align	2
 930              	.L110:
 931 0010 00000000 		.word	.LANCHOR3
 932              		.cfi_endproc
 933              	.LFE81:
 934              		.size	SmartMotorSetPowerExpanderStatusPort, .-SmartMotorSetPowerExpanderStatusPort
 935              		.section	.text.SmartMotorPtcMonitorEnable,"ax",%progbits
 936              		.align	2
 937              		.p2align 4,,15
 938              		.global	SmartMotorPtcMonitorEnable
 939              		.thumb
 940              		.thumb_func
 941              		.type	SmartMotorPtcMonitorEnable, %function
 942              	SmartMotorPtcMonitorEnable:
 943              	.LFB82:
 944              		.loc 1 405 0
 945              		.cfi_startproc
 946              		@ args = 0, pretend = 0, frame = 0
 947              		@ frame_needed = 0, uses_anonymous_args = 0
 948              		@ link register save eliminated.
 949              		.loc 1 406 0
 950 0000 0349     		ldr	r1, .L113
 951              		.loc 1 407 0
 952 0002 044B     		ldr	r3, .L113+4
 953              		.loc 1 406 0
 954 0004 0020     		movs	r0, #0
 955              		.loc 1 407 0
 956 0006 0122     		movs	r2, #1
 957              		.loc 1 406 0
 958 0008 0880     		strh	r0, [r1]	@ movhi
 959              		.loc 1 407 0
 960 000a 1A80     		strh	r2, [r3]	@ movhi
 961 000c 7047     		bx	lr
 962              	.L114:
 963 000e 00BF     		.align	2
 964              	.L113:
 965 0010 00000000 		.word	.LANCHOR2
 966 0014 00000000 		.word	.LANCHOR1
 967              		.cfi_endproc
 968              	.LFE82:
 969              		.size	SmartMotorPtcMonitorEnable, .-SmartMotorPtcMonitorEnable
ARM GAS  /var/folders/6q/x_mk5n_j3p7_c40r_2k_78980000gn/T//ccu43oO2.s 			page 18


 970              		.section	.text.SmartMotorPtcMonitorDisable,"ax",%progbits
 971              		.align	2
 972              		.p2align 4,,15
 973              		.global	SmartMotorPtcMonitorDisable
 974              		.thumb
 975              		.thumb_func
 976              		.type	SmartMotorPtcMonitorDisable, %function
 977              	SmartMotorPtcMonitorDisable:
 978              	.LFB83:
 979              		.loc 1 416 0
 980              		.cfi_startproc
 981              		@ args = 0, pretend = 0, frame = 0
 982              		@ frame_needed = 0, uses_anonymous_args = 0
 983              		@ link register save eliminated.
 984              		.loc 1 417 0
 985 0000 014B     		ldr	r3, .L116
 986 0002 0022     		movs	r2, #0
 987 0004 1A80     		strh	r2, [r3]	@ movhi
 988 0006 7047     		bx	lr
 989              	.L117:
 990              		.align	2
 991              	.L116:
 992 0008 00000000 		.word	.LANCHOR1
 993              		.cfi_endproc
 994              	.LFE83:
 995              		.size	SmartMotorPtcMonitorDisable, .-SmartMotorPtcMonitorDisable
 996              		.section	.text.SmartMotorCurrentMonitorEnable,"ax",%progbits
 997              		.align	2
 998              		.p2align 4,,15
 999              		.global	SmartMotorCurrentMonitorEnable
 1000              		.thumb
 1001              		.thumb_func
 1002              		.type	SmartMotorCurrentMonitorEnable, %function
 1003              	SmartMotorCurrentMonitorEnable:
 1004              	.LFB84:
 1005              		.loc 1 426 0
 1006              		.cfi_startproc
 1007              		@ args = 0, pretend = 0, frame = 0
 1008              		@ frame_needed = 0, uses_anonymous_args = 0
 1009              		@ link register save eliminated.
 1010              		.loc 1 427 0
 1011 0000 0349     		ldr	r1, .L119
 1012              		.loc 1 428 0
 1013 0002 044B     		ldr	r3, .L119+4
 1014              		.loc 1 427 0
 1015 0004 0020     		movs	r0, #0
 1016              		.loc 1 428 0
 1017 0006 0122     		movs	r2, #1
 1018              		.loc 1 427 0
 1019 0008 0880     		strh	r0, [r1]	@ movhi
 1020              		.loc 1 428 0
 1021 000a 1A80     		strh	r2, [r3]	@ movhi
 1022 000c 7047     		bx	lr
 1023              	.L120:
 1024 000e 00BF     		.align	2
 1025              	.L119:
 1026 0010 00000000 		.word	.LANCHOR1
ARM GAS  /var/folders/6q/x_mk5n_j3p7_c40r_2k_78980000gn/T//ccu43oO2.s 			page 19


 1027 0014 00000000 		.word	.LANCHOR2
 1028              		.cfi_endproc
 1029              	.LFE84:
 1030              		.size	SmartMotorCurrentMonitorEnable, .-SmartMotorCurrentMonitorEnable
 1031              		.section	.text.SmartMotorCurrentMonitorDisable,"ax",%progbits
 1032              		.align	2
 1033              		.p2align 4,,15
 1034              		.global	SmartMotorCurrentMonitorDisable
 1035              		.thumb
 1036              		.thumb_func
 1037              		.type	SmartMotorCurrentMonitorDisable, %function
 1038              	SmartMotorCurrentMonitorDisable:
 1039              	.LFB85:
 1040              		.loc 1 437 0
 1041              		.cfi_startproc
 1042              		@ args = 0, pretend = 0, frame = 0
 1043              		@ frame_needed = 0, uses_anonymous_args = 0
 1044              		@ link register save eliminated.
 1045              		.loc 1 438 0
 1046 0000 014B     		ldr	r3, .L122
 1047 0002 0022     		movs	r2, #0
 1048 0004 1A80     		strh	r2, [r3]	@ movhi
 1049 0006 7047     		bx	lr
 1050              	.L123:
 1051              		.align	2
 1052              	.L122:
 1053 0008 00000000 		.word	.LANCHOR2
 1054              		.cfi_endproc
 1055              	.LFE85:
 1056              		.size	SmartMotorCurrentMonitorDisable, .-SmartMotorCurrentMonitorDisable
 1057              		.section	.text.SmartMotorRun,"ax",%progbits
 1058              		.align	2
 1059              		.p2align 4,,15
 1060              		.global	SmartMotorRun
 1061              		.thumb
 1062              		.thumb_func
 1063              		.type	SmartMotorRun, %function
 1064              	SmartMotorRun:
 1065              	.LFB86:
 1066              		.loc 1 448 0
 1067              		.cfi_startproc
 1068              		@ args = 0, pretend = 0, frame = 0
 1069              		@ frame_needed = 0, uses_anonymous_args = 0
 1070 0000 08B5     		push	{r3, lr}
 1071              		.cfi_def_cfa_offset 8
 1072              		.cfi_offset 3, -8
 1073              		.cfi_offset 14, -4
 1074              		.loc 1 450 0
 1075 0002 4022     		movs	r2, #64
 1076 0004 4521     		movs	r1, #69
 1077 0006 0548     		ldr	r0, .L126
 1078 0008 FFF7FEFF 		bl	StartTaskWithPriority
 1079              	.LVL87:
 1080              		.loc 1 453 0
 1081 000c BDE80840 		pop	{r3, lr}
 1082              		.cfi_restore 14
 1083              		.cfi_restore 3
ARM GAS  /var/folders/6q/x_mk5n_j3p7_c40r_2k_78980000gn/T//ccu43oO2.s 			page 20


 1084              		.cfi_def_cfa_offset 0
 1085              		.loc 1 452 0
 1086 0010 4022     		movs	r2, #64
 1087 0012 4421     		movs	r1, #68
 1088 0014 0248     		ldr	r0, .L126+4
 1089 0016 FFF7FEBF 		b	StartTaskWithPriority
 1090              	.LVL88:
 1091              	.L127:
 1092 001a 00BF     		.align	2
 1093              	.L126:
 1094 001c 00000000 		.word	SmartMotorTask
 1095 0020 00000000 		.word	SmartMotorSlewRateTask
 1096              		.cfi_endproc
 1097              	.LFE86:
 1098              		.size	SmartMotorRun, .-SmartMotorRun
 1099              		.section	.text.SmartMotorStop,"ax",%progbits
 1100              		.align	2
 1101              		.p2align 4,,15
 1102              		.global	SmartMotorStop
 1103              		.thumb
 1104              		.thumb_func
 1105              		.type	SmartMotorStop, %function
 1106              	SmartMotorStop:
 1107              	.LFB87:
 1108              		.loc 1 461 0
 1109              		.cfi_startproc
 1110              		@ args = 0, pretend = 0, frame = 0
 1111              		@ frame_needed = 0, uses_anonymous_args = 0
 1112 0000 08B5     		push	{r3, lr}
 1113              		.cfi_def_cfa_offset 8
 1114              		.cfi_offset 3, -8
 1115              		.cfi_offset 14, -4
 1116              	.LBB66:
 1117              	.LBB67:
 1118              		.loc 1 417 0
 1119 0002 0649     		ldr	r1, .L130
 1120              	.LBE67:
 1121              	.LBE66:
 1122              	.LBB70:
 1123              	.LBB71:
 1124              		.loc 1 438 0
 1125 0004 064A     		ldr	r2, .L130+4
 1126              	.LBE71:
 1127              	.LBE70:
 1128              	.LBB73:
 1129              	.LBB68:
 1130              		.loc 1 417 0
 1131 0006 0023     		movs	r3, #0
 1132              	.LBE68:
 1133              	.LBE73:
 1134              		.loc 1 465 0
 1135 0008 0648     		ldr	r0, .L130+8
 1136              	.LBB74:
 1137              	.LBB69:
 1138              		.loc 1 417 0
 1139 000a 0B80     		strh	r3, [r1]	@ movhi
 1140              	.LBE69:
ARM GAS  /var/folders/6q/x_mk5n_j3p7_c40r_2k_78980000gn/T//ccu43oO2.s 			page 21


 1141              	.LBE74:
 1142              	.LBB75:
 1143              	.LBB72:
 1144              		.loc 1 438 0
 1145 000c 1380     		strh	r3, [r2]	@ movhi
 1146              	.LBE72:
 1147              	.LBE75:
 1148              		.loc 1 465 0
 1149 000e FFF7FEFF 		bl	StopTask
 1150              	.LVL89:
 1151              		.loc 1 467 0
 1152 0012 BDE80840 		pop	{r3, lr}
 1153              		.cfi_restore 14
 1154              		.cfi_restore 3
 1155              		.cfi_def_cfa_offset 0
 1156              		.loc 1 466 0
 1157 0016 0448     		ldr	r0, .L130+12
 1158 0018 FFF7FEBF 		b	StopTask
 1159              	.LVL90:
 1160              	.L131:
 1161              		.align	2
 1162              	.L130:
 1163 001c 00000000 		.word	.LANCHOR1
 1164 0020 00000000 		.word	.LANCHOR2
 1165 0024 00000000 		.word	SmartMotorTask
 1166 0028 00000000 		.word	SmartMotorSlewRateTask
 1167              		.cfi_endproc
 1168              	.LFE87:
 1169              		.size	SmartMotorStop, .-SmartMotorStop
 1170              		.section	.text.SmartMotorDebugStatus,"ax",%progbits
 1171              		.align	2
 1172              		.p2align 4,,15
 1173              		.global	SmartMotorDebugStatus
 1174              		.thumb
 1175              		.thumb_func
 1176              		.type	SmartMotorDebugStatus, %function
 1177              	SmartMotorDebugStatus:
 1178              	.LFB88:
 1179              		.loc 1 475 0
 1180              		.cfi_startproc
 1181              		@ args = 0, pretend = 0, frame = 0
 1182              		@ frame_needed = 0, uses_anonymous_args = 0
 1183              	.LVL91:
 1184 0000 F8B5     		push	{r3, r4, r5, r6, r7, lr}
 1185              		.cfi_def_cfa_offset 24
 1186              		.cfi_offset 3, -24
 1187              		.cfi_offset 4, -20
 1188              		.cfi_offset 5, -16
 1189              		.cfi_offset 6, -12
 1190              		.cfi_offset 7, -8
 1191              		.cfi_offset 14, -4
 1192 0002 2C4E     		ldr	r6, .L146
 1193              		.loc 1 475 0
 1194 0004 0027     		movs	r7, #0
 1195              	.LVL92:
 1196              	.L138:
 1197 0006 3BB2     		sxth	r3, r7
ARM GAS  /var/folders/6q/x_mk5n_j3p7_c40r_2k_78980000gn/T//ccu43oO2.s 			page 22


 1198              		.loc 1 485 0
 1199 0008 002F     		cmp	r7, #0
 1200 000a 4ED0     		beq	.L145
 1201              		.loc 1 487 0
 1202 000c 012B     		cmp	r3, #1
 1203              		.loc 1 488 0
 1204 000e 0CBF     		ite	eq
 1205 0010 2948     		ldreq	r0, .L146+4
 1206              		.loc 1 490 0
 1207 0012 2A48     		ldrne	r0, .L146+8
 1208 0014 FFF7FEFF 		bl	vex_printf
 1209              	.LVL93:
 1210              	.L134:
 1211              		.loc 1 492 0
 1212 0018 7068     		ldr	r0, [r6, #4]	@ float
 1213 001a FFF7FEFF 		bl	__aeabi_f2d
 1214              	.LVL94:
 1215 001e 0246     		mov	r2, r0
 1216 0020 0B46     		mov	r3, r1
 1217 0022 2748     		ldr	r0, .L146+12
 1218 0024 FFF7FEFF 		bl	vex_printf
 1219              	.LVL95:
 1220              		.loc 1 493 0
 1221 0028 3069     		ldr	r0, [r6, #16]	@ float
 1222 002a FFF7FEFF 		bl	__aeabi_f2d
 1223              	.LVL96:
 1224 002e 0246     		mov	r2, r0
 1225 0030 0B46     		mov	r3, r1
 1226 0032 2448     		ldr	r0, .L146+16
 1227 0034 FFF7FEFF 		bl	vex_printf
 1228              	.LVL97:
 1229              		.loc 1 494 0
 1230 0038 B6F92010 		ldrsh	r1, [r6, #32]
 1231 003c 2248     		ldr	r0, .L146+20
 1232 003e FFF7FEFF 		bl	vex_printf
 1233              	.LVL98:
 1234              		.loc 1 495 0
 1235 0042 2248     		ldr	r0, .L146+24
 1236 0044 FFF7FEFF 		bl	vex_printf
 1237              	.LVL99:
 1238 0048 A6F11405 		sub	r5, r6, #20
 1239              	.LVL100:
 1240              	.L137:
 1241              		.loc 1 499 0
 1242 004c 55F8044F 		ldr	r4, [r5, #4]!
 1243              	.LVL101:
 1244              		.loc 1 502 0
 1245 0050 1F48     		ldr	r0, .L146+28
 1246              		.loc 1 499 0
 1247 0052 FCB1     		cbz	r4, .L136
 1248              		.loc 1 502 0
 1249 0054 94F90010 		ldrsb	r1, [r4]
 1250 0058 FFF7FEFF 		bl	vex_printf
 1251              	.LVL102:
 1252              		.loc 1 503 0
 1253 005c 206D     		ldr	r0, [r4, #80]	@ float
 1254 005e FFF7FEFF 		bl	__aeabi_f2d
ARM GAS  /var/folders/6q/x_mk5n_j3p7_c40r_2k_78980000gn/T//ccu43oO2.s 			page 23


 1255              	.LVL103:
 1256 0062 0246     		mov	r2, r0
 1257 0064 0B46     		mov	r3, r1
 1258 0066 1648     		ldr	r0, .L146+12
 1259 0068 FFF7FEFF 		bl	vex_printf
 1260              	.LVL104:
 1261              		.loc 1 504 0
 1262 006c 606E     		ldr	r0, [r4, #100]	@ float
 1263 006e FFF7FEFF 		bl	__aeabi_f2d
 1264              	.LVL105:
 1265 0072 0246     		mov	r2, r0
 1266 0074 0B46     		mov	r3, r1
 1267 0076 1348     		ldr	r0, .L146+16
 1268 0078 FFF7FEFF 		bl	vex_printf
 1269              	.LVL106:
 1270              		.loc 1 505 0
 1271 007c B4F91210 		ldrsh	r1, [r4, #18]
 1272 0080 B4F97430 		ldrsh	r3, [r4, #116]
 1273 0084 1048     		ldr	r0, .L146+20
 1274 0086 03EB4101 		add	r1, r3, r1, lsl #1
 1275 008a FFF7FEFF 		bl	vex_printf
 1276              	.LVL107:
 1277              		.loc 1 506 0
 1278 008e 0F48     		ldr	r0, .L146+24
 1279 0090 FFF7FEFF 		bl	vex_printf
 1280              	.LVL108:
 1281              	.L136:
 1282              		.loc 1 497 0 discriminator 2
 1283 0094 AE42     		cmp	r6, r5
 1284 0096 D9D1     		bne	.L137
 1285 0098 0137     		adds	r7, r7, #1
 1286              	.LVL109:
 1287              		.loc 1 509 0 discriminator 2
 1288 009a 0C48     		ldr	r0, .L146+24
 1289 009c FFF7FEFF 		bl	vex_printf
 1290              	.LVL110:
 1291              		.loc 1 482 0 discriminator 2
 1292 00a0 032F     		cmp	r7, #3
 1293 00a2 06F13406 		add	r6, r6, #52
 1294 00a6 AED1     		bne	.L138
 1295              		.loc 1 511 0
 1296 00a8 F8BD     		pop	{r3, r4, r5, r6, r7, pc}
 1297              	.LVL111:
 1298              	.L145:
 1299              		.loc 1 486 0
 1300 00aa 0A48     		ldr	r0, .L146+32
 1301 00ac FFF7FEFF 		bl	vex_printf
 1302              	.LVL112:
 1303 00b0 B2E7     		b	.L134
 1304              	.L147:
 1305 00b2 00BF     		.align	2
 1306              	.L146:
 1307 00b4 10000000 		.word	.LANCHOR3+16
 1308 00b8 24000000 		.word	.LC2
 1309 00bc 3C000000 		.word	.LC3
 1310 00c0 54000000 		.word	.LC4
 1311 00c4 64000000 		.word	.LC5
ARM GAS  /var/folders/6q/x_mk5n_j3p7_c40r_2k_78980000gn/T//ccu43oO2.s 			page 24


 1312 00c8 70000000 		.word	.LC6
 1313 00cc 7C000000 		.word	.LC7
 1314 00d0 80000000 		.word	.LC8
 1315 00d4 0C000000 		.word	.LC1
 1316              		.cfi_endproc
 1317              	.LFE88:
 1318              		.size	SmartMotorDebugStatus, .-SmartMotorDebugStatus
 1319              		.section	.text._SetMotor,"ax",%progbits
 1320              		.align	2
 1321              		.p2align 4,,15
 1322              		.global	_SetMotor
 1323              		.thumb
 1324              		.thumb_func
 1325              		.type	_SetMotor, %function
 1326              	_SetMotor:
 1327              	.LFB89:
 1328              		.loc 1 532 0
 1329              		.cfi_startproc
 1330              		@ args = 4, pretend = 8, frame = 0
 1331              		@ frame_needed = 0, uses_anonymous_args = 1
 1332              	.LVL113:
 1333 0000 0CB4     		push	{r2, r3}
 1334              		.cfi_def_cfa_offset 8
 1335              		.cfi_offset 2, -8
 1336              		.cfi_offset 3, -4
 1337 0002 38B5     		push	{r3, r4, r5, lr}
 1338              		.cfi_def_cfa_offset 24
 1339              		.cfi_offset 3, -24
 1340              		.cfi_offset 4, -20
 1341              		.cfi_offset 5, -16
 1342              		.cfi_offset 14, -12
 1343              		.loc 1 536 0
 1344 0004 0928     		cmp	r0, #9
 1345              		.loc 1 532 0
 1346 0006 9DF81030 		ldrb	r3, [sp, #16]	@ zero_extendqisi2
 1347              		.loc 1 536 0
 1348 000a 0DD8     		bhi	.L148
 1349              	.LVL114:
 1350              		.loc 1 543 0
 1351 000c 7F29     		cmp	r1, #127
 1352 000e 0FDD     		ble	.L151
 1353              		.loc 1 544 0
 1354 0010 154A     		ldr	r2, .L160
 1355 0012 C0EB4014 		rsb	r4, r0, r0, lsl #5
 1356 0016 02EB8402 		add	r2, r2, r4, lsl #2
 1357 001a 7F24     		movs	r4, #127
 1358 001c 9481     		strh	r4, [r2, #12]	@ movhi
 1359              	.L152:
 1360              		.loc 1 555 0
 1361 001e 1BB1     		cbz	r3, .L148
 1362              		.loc 1 556 0
 1363 0020 09B2     		sxth	r1, r1
 1364              	.LVL115:
 1365 0022 00B2     		sxth	r0, r0
 1366              	.LVL116:
 1367 0024 FFF7FEFF 		bl	vexMotorSet
 1368              	.LVL117:
ARM GAS  /var/folders/6q/x_mk5n_j3p7_c40r_2k_78980000gn/T//ccu43oO2.s 			page 25


 1369              	.L148:
 1370              		.loc 1 557 0
 1371 0028 BDE83840 		pop	{r3, r4, r5, lr}
 1372              		.cfi_remember_state
 1373              		.cfi_restore 14
 1374              		.cfi_restore 5
 1375              		.cfi_restore 4
 1376              		.cfi_restore 3
 1377              		.cfi_def_cfa_offset 8
 1378 002c 02B0     		add	sp, sp, #8
 1379              		.cfi_restore 3
 1380              		.cfi_restore 2
 1381              		.cfi_def_cfa_offset 0
 1382 002e 7047     		bx	lr
 1383              	.LVL118:
 1384              	.L151:
 1385              		.cfi_restore_state
 1386              		.loc 1 546 0
 1387 0030 11F17F0F 		cmn	r1, #127
 1388 0034 08DA     		bge	.L153
 1389              		.loc 1 547 0
 1390 0036 4FF68174 		movw	r4, #65409
 1391 003a 0B4A     		ldr	r2, .L160
 1392 003c C0EB4015 		rsb	r5, r0, r0, lsl #5
 1393 0040 02EB8502 		add	r2, r2, r5, lsl #2
 1394 0044 9481     		strh	r4, [r2, #12]	@ movhi
 1395 0046 EAE7     		b	.L152
 1396              	.L153:
 1397              		.loc 1 549 0
 1398 0048 81EAE172 		eor	r2, r1, r1, asr #31
 1399 004c A2EBE172 		sub	r2, r2, r1, asr #31
 1400 0050 092A     		cmp	r2, #9
 1401              		.loc 1 550 0
 1402 0052 054A     		ldr	r2, .L160
 1403 0054 C0EB4014 		rsb	r4, r0, r0, lsl #5
 1404 0058 02EB8402 		add	r2, r2, r4, lsl #2
 1405              		.loc 1 552 0
 1406 005c D6BF     		itet	le
 1407 005e 0024     		movle	r4, #0
 1408              		.loc 1 550 0
 1409 0060 9181     		strhgt	r1, [r2, #12]	@ movhi
 1410              		.loc 1 552 0
 1411 0062 9481     		strhle	r4, [r2, #12]	@ movhi
 1412 0064 DBE7     		b	.L152
 1413              	.L161:
 1414 0066 00BF     		.align	2
 1415              	.L160:
 1416 0068 00000000 		.word	.LANCHOR0
 1417              		.cfi_endproc
 1418              	.LFE89:
 1419              		.size	_SetMotor, .-_SetMotor
 1420              		.section	.text.SmartMotorsInit,"ax",%progbits
 1421              		.align	2
 1422              		.p2align 4,,15
 1423              		.global	SmartMotorsInit
 1424              		.thumb
 1425              		.thumb_func
ARM GAS  /var/folders/6q/x_mk5n_j3p7_c40r_2k_78980000gn/T//ccu43oO2.s 			page 26


 1426              		.type	SmartMotorsInit, %function
 1427              	SmartMotorsInit:
 1428              	.LFB90:
 1429              		.loc 1 573 0
 1430              		.cfi_startproc
 1431              		@ args = 0, pretend = 0, frame = 0
 1432              		@ frame_needed = 0, uses_anonymous_args = 0
 1433              	.LVL119:
 1434 0000 2DE9F84F 		push	{r3, r4, r5, r6, r7, r8, r9, r10, fp, lr}
 1435              		.cfi_def_cfa_offset 40
 1436              		.cfi_offset 3, -40
 1437              		.cfi_offset 4, -36
 1438              		.cfi_offset 5, -32
 1439              		.cfi_offset 6, -28
 1440              		.cfi_offset 7, -24
 1441              		.cfi_offset 8, -20
 1442              		.cfi_offset 9, -16
 1443              		.cfi_offset 10, -12
 1444              		.cfi_offset 11, -8
 1445              		.cfi_offset 14, -4
 1446 0004 9C4C     		ldr	r4, .L186
 1447              		.loc 1 583 0
 1448 0006 DFF8D882 		ldr	r8, .L186+104
 1449              		.loc 1 573 0
 1450 000a 2746     		mov	r7, r4
 1451 000c 2346     		mov	r3, r4
 1452              		.loc 1 584 0
 1453 000e DFF8D4C2 		ldr	ip, .L186+108
 1454              		.loc 1 585 0
 1455 0012 9A4D     		ldr	r5, .L186+4
 1456              		.loc 1 589 0
 1457 0014 DFF8D0E2 		ldr	lr, .L186+112
 1458              		.loc 1 587 0
 1459 0018 0020     		movs	r0, #0
 1460 001a 04F19C06 		add	r6, r4, #156
 1461              		.loc 1 581 0
 1462 001e 0022     		movs	r2, #0
 1463              		.loc 1 590 0
 1464 0020 FF21     		movs	r1, #255
 1465              	.LVL120:
 1466              	.L163:
 1467              		.loc 1 581 0
 1468 0022 1A60     		str	r2, [r3]
 1469              	.LVL121:
 1470 0024 5A60     		str	r2, [r3, #4]
 1471              	.LVL122:
 1472 0026 9A60     		str	r2, [r3, #8]
 1473              	.LVL123:
 1474 0028 DA60     		str	r2, [r3, #12]
 1475              	.LVL124:
 1476 002a 1A61     		str	r2, [r3, #16]
 1477              	.LVL125:
 1478              		.loc 1 583 0
 1479 002c C3F82480 		str	r8, [r3, #36]	@ float
 1480              		.loc 1 584 0
 1481 0030 C3F828C0 		str	ip, [r3, #40]	@ float
 1482              		.loc 1 585 0
ARM GAS  /var/folders/6q/x_mk5n_j3p7_c40r_2k_78980000gn/T//ccu43oO2.s 			page 27


 1483 0034 DD62     		str	r5, [r3, #44]	@ float
 1484              		.loc 1 586 0
 1485 0036 1D62     		str	r5, [r3, #32]	@ float
 1486              		.loc 1 587 0
 1487 0038 5861     		str	r0, [r3, #20]	@ float
 1488              		.loc 1 588 0
 1489 003a 9861     		str	r0, [r3, #24]	@ float
 1490              		.loc 1 589 0
 1491 003c C3F81CE0 		str	lr, [r3, #28]	@ float
 1492              		.loc 1 590 0
 1493 0040 83F83210 		strb	r1, [r3, #50]
 1494              		.loc 1 591 0
 1495 0044 83F83310 		strb	r1, [r3, #51]
 1496 0048 3433     		adds	r3, r3, #52
 1497              		.loc 1 578 0
 1498 004a B342     		cmp	r3, r6
 1499 004c E9D1     		bne	.L163
 1500              		.loc 1 597 0
 1501 004e 0020     		movs	r0, #0
 1502 0050 FFF7FEFF 		bl	vexMotorEncoderIdGet
 1503              	.LVL126:
 1504 0054 8A4D     		ldr	r5, .L186+8
 1505              		.loc 1 670 0
 1506 0056 DFF894B2 		ldr	fp, .L186+116
 1507              		.loc 1 597 0
 1508 005a A883     		strh	r0, [r5, #28]	@ movhi
 1509              		.loc 1 598 0
 1510 005c 0120     		movs	r0, #1
 1511 005e FFF7FEFF 		bl	vexMotorEncoderIdGet
 1512              	.LVL127:
 1513 0062 A5F89800 		strh	r0, [r5, #152]	@ movhi
 1514              		.loc 1 599 0
 1515 0066 0220     		movs	r0, #2
 1516 0068 FFF7FEFF 		bl	vexMotorEncoderIdGet
 1517              	.LVL128:
 1518 006c A5F81401 		strh	r0, [r5, #276]	@ movhi
 1519              		.loc 1 600 0
 1520 0070 0320     		movs	r0, #3
 1521 0072 FFF7FEFF 		bl	vexMotorEncoderIdGet
 1522              	.LVL129:
 1523 0076 A5F89001 		strh	r0, [r5, #400]	@ movhi
 1524              		.loc 1 601 0
 1525 007a 0420     		movs	r0, #4
 1526 007c FFF7FEFF 		bl	vexMotorEncoderIdGet
 1527              	.LVL130:
 1528 0080 A5F80C02 		strh	r0, [r5, #524]	@ movhi
 1529              		.loc 1 602 0
 1530 0084 0520     		movs	r0, #5
 1531 0086 FFF7FEFF 		bl	vexMotorEncoderIdGet
 1532              	.LVL131:
 1533 008a A5F88802 		strh	r0, [r5, #648]	@ movhi
 1534              		.loc 1 603 0
 1535 008e 0620     		movs	r0, #6
 1536 0090 FFF7FEFF 		bl	vexMotorEncoderIdGet
 1537              	.LVL132:
 1538 0094 A5F80403 		strh	r0, [r5, #772]	@ movhi
 1539              		.loc 1 604 0
ARM GAS  /var/folders/6q/x_mk5n_j3p7_c40r_2k_78980000gn/T//ccu43oO2.s 			page 28


 1540 0098 0720     		movs	r0, #7
 1541 009a FFF7FEFF 		bl	vexMotorEncoderIdGet
 1542              	.LVL133:
 1543 009e A5F88003 		strh	r0, [r5, #896]	@ movhi
 1544              		.loc 1 605 0
 1545 00a2 0820     		movs	r0, #8
 1546 00a4 FFF7FEFF 		bl	vexMotorEncoderIdGet
 1547              	.LVL134:
 1548 00a8 A5F8FC03 		strh	r0, [r5, #1020]	@ movhi
 1549              		.loc 1 606 0
 1550 00ac 0920     		movs	r0, #9
 1551 00ae FFF7FEFF 		bl	vexMotorEncoderIdGet
 1552              	.LVL135:
 1553              		.loc 1 671 0
 1554 00b2 DFF83CA2 		ldr	r10, .L186+120
 1555              		.loc 1 672 0
 1556 00b6 DFF83C92 		ldr	r9, .L186+124
 1557              		.loc 1 673 0
 1558 00ba 724E     		ldr	r6, .L186+12
 1559 00bc A846     		mov	r8, r5
 1560              		.loc 1 606 0
 1561 00be A5F87804 		strh	r0, [r5, #1144]	@ movhi
 1562              	.LVL136:
 1563              		.loc 1 608 0
 1564 00c2 0025     		movs	r5, #0
 1565              	.LVL137:
 1566              	.L179:
 1567              		.loc 1 611 0
 1568 00c4 6AB2     		sxtb	r2, r5
 1569 00c6 88F80020 		strb	r2, [r8]
 1570              		.loc 1 612 0
 1571 00ca 88F80120 		strb	r2, [r8, #1]
 1572              		.loc 1 613 0
 1573 00ce 28B2     		sxth	r0, r5
 1574 00d0 FFF7FEFF 		bl	vexMotorTypeGet
 1575              	.LVL138:
 1576              		.loc 1 615 0
 1577 00d4 421E     		subs	r2, r0, #1
 1578              		.loc 1 613 0
 1579 00d6 88F80200 		strb	r0, [r8, #2]
 1580              		.loc 1 615 0
 1581 00da 032A     		cmp	r2, #3
 1582 00dc 00F2C780 		bhi	.L164
 1583 00e0 DFE802F0 		tbb	[pc, r2]
 1584              	.L166:
 1585 00e4 93       		.byte	(.L165-.L166)/2
 1586 00e5 81       		.byte	(.L167-.L166)/2
 1587 00e6 6F       		.byte	(.L168-.L166)/2
 1588 00e7 02       		.byte	(.L169-.L166)/2
 1589              		.p2align 1
 1590              	.L169:
 1591              		.loc 1 654 0
 1592 00e8 6749     		ldr	r1, .L186+16
 1593              		.loc 1 653 0
 1594 00ea 684A     		ldr	r2, .L186+20
 1595              		.loc 1 654 0
 1596 00ec C8F83810 		str	r1, [r8, #56]	@ float
ARM GAS  /var/folders/6q/x_mk5n_j3p7_c40r_2k_78980000gn/T//ccu43oO2.s 			page 29


 1597              		.loc 1 657 0
 1598 00f0 6749     		ldr	r1, .L186+24
 1599              		.loc 1 653 0
 1600 00f2 C8F83420 		str	r2, [r8, #52]	@ float
 1601              		.loc 1 655 0
 1602 00f6 4FF07F52 		mov	r2, #1069547520
 1603 00fa C8F83C20 		str	r2, [r8, #60]	@ float
 1604              		.loc 1 657 0
 1605 00fe C8F84410 		str	r1, [r8, #68]	@ float
 1606              		.loc 1 658 0
 1607 0102 644A     		ldr	r2, .L186+28
 1608              		.loc 1 660 0
 1609 0104 6449     		ldr	r1, .L186+32
 1610              		.loc 1 656 0
 1611 0106 C8F84060 		str	r6, [r8, #64]	@ float
 1612              	.L183:
 1613              		.loc 1 641 0
 1614 010a C8F84820 		str	r2, [r8, #72]	@ float
 1615              		.loc 1 645 0
 1616 010e 634A     		ldr	r2, .L186+36
 1617              		.loc 1 643 0
 1618 0110 C8F82010 		str	r1, [r8, #32]	@ float
 1619              		.loc 1 645 0
 1620 0114 C8F85C20 		str	r2, [r8, #92]	@ float
 1621              		.loc 1 647 0
 1622 0118 6149     		ldr	r1, .L186+40
 1623              		.loc 1 648 0
 1624 011a 624A     		ldr	r2, .L186+44
 1625              		.loc 1 647 0
 1626 011c C8F86810 		str	r1, [r8, #104]	@ float
 1627              		.loc 1 648 0
 1628 0120 C8F86C20 		str	r2, [r8, #108]	@ float
 1629              	.L170:
 1630              		.loc 1 693 0
 1631 0124 B8F91C20 		ldrsh	r2, [r8, #28]
 1632 0128 002A     		cmp	r2, #0
 1633 012a C0F28E80 		blt	.L185
 1634              	.L171:
 1635              		.loc 1 701 0
 1636 012e 132A     		cmp	r2, #19
 1637              		.loc 1 703 0
 1638 0130 DDBF     		ittte	le
 1639 0132 5D4A     		ldrle	r2, .L186+48
 1640              		.loc 1 704 0
 1641 0134 98F90100 		ldrsble	r0, [r8, #1]
 1642              		.loc 1 703 0
 1643 0138 C8F82020 		strle	r2, [r8, #32]	@ float
 1644              		.loc 1 709 0
 1645 013c 98F90100 		ldrsbgt	r0, [r8, #1]
 1646 0140 FFF7FEFF 		bl	vexMotorPositionGet
 1647              	.LVL139:
 1648 0144 C8F82400 		str	r0, [r8, #36]
 1649              		.loc 1 710 0
 1650 0148 98F90100 		ldrsb	r0, [r8, #1]
 1651 014c FFF7FEFF 		bl	vexMotorPositionGet
 1652              	.LVL140:
 1653 0150 C8F82800 		str	r0, [r8, #40]
ARM GAS  /var/folders/6q/x_mk5n_j3p7_c40r_2k_78980000gn/T//ccu43oO2.s 			page 30


 1654              	.L172:
 1655              		.loc 1 714 0
 1656 0154 DFF824E1 		ldr	lr, .L186+4
 1657              		.loc 1 718 0
 1658 0158 D8F85C10 		ldr	r1, [r8, #92]	@ float
 1659              		.loc 1 726 0
 1660 015c 0022     		movs	r2, #0
 1661              		.loc 1 723 0
 1662 015e 0020     		movs	r0, #0
 1663              		.loc 1 714 0
 1664 0160 C8F870E0 		str	lr, [r8, #112]	@ float
 1665              		.loc 1 715 0
 1666 0164 C8F864E0 		str	lr, [r8, #100]	@ float
 1667              		.loc 1 728 0
 1668 0168 4FF0FF0E 		mov	lr, #255
 1669              		.loc 1 718 0
 1670 016c C8F86010 		str	r1, [r8, #96]	@ float
 1671              		.loc 1 720 0
 1672 0170 C8F81810 		str	r1, [r8, #24]	@ float
 1673              		.loc 1 723 0
 1674 0174 C8F85800 		str	r0, [r8, #88]	@ float
 1675              		.loc 1 726 0
 1676 0178 A8F81220 		strh	r2, [r8, #18]	@ movhi
 1677              		.loc 1 727 0
 1678 017c A8F87420 		strh	r2, [r8, #116]	@ movhi
 1679              		.loc 1 731 0
 1680 0180 D8F84810 		ldr	r1, [r8, #72]	@ float
 1681 0184 D8F84400 		ldr	r0, [r8, #68]	@ float
 1682              		.loc 1 728 0
 1683 0188 A8F814E0 		strh	lr, [r8, #20]	@ movhi
 1684              		.loc 1 731 0
 1685 018c FFF7FEFF 		bl	__aeabi_fmul
 1686              	.LVL141:
 1687              		.loc 1 734 0
 1688 0190 98F80220 		ldrb	r2, [r8, #2]	@ zero_extendqisi2
 1689              		.loc 1 731 0
 1690 0194 C8F84C00 		str	r0, [r8, #76]	@ float
 1691              		.loc 1 734 0
 1692 0198 002A     		cmp	r2, #0
 1693 019a 5FD0     		beq	.L174
 1694              		.loc 1 736 0
 1695 019c 042D     		cmp	r5, #4
 1696 019e 63DC     		bgt	.L175
 1697              		.loc 1 737 0
 1698 01a0 C4F80080 		str	r8, [r4]
 1699              	.L176:
 1700              		.loc 1 744 0
 1701 01a4 C8F80870 		str	r7, [r8, #8]
 1702              	.L178:
 1703              		.loc 1 608 0 discriminator 2
 1704 01a8 0135     		adds	r5, r5, #1
 1705              	.LVL142:
 1706              		.loc 1 749 0 discriminator 2
 1707 01aa 4FF0FF32 		mov	r2, #-1
 1708              		.loc 1 608 0 discriminator 2
 1709 01ae 0A2D     		cmp	r5, #10
 1710              		.loc 1 749 0 discriminator 2
ARM GAS  /var/folders/6q/x_mk5n_j3p7_c40r_2k_78980000gn/T//ccu43oO2.s 			page 31


 1711 01b0 C8F87820 		str	r2, [r8, #120]
 1712 01b4 04F10404 		add	r4, r4, #4
 1713 01b8 08F17C08 		add	r8, r8, #124
 1714              		.loc 1 608 0 discriminator 2
 1715 01bc 82D1     		bne	.L179
 1716              		.loc 1 751 0
 1717 01be BDE8F88F 		pop	{r3, r4, r5, r6, r7, r8, r9, r10, fp, pc}
 1718              	.LVL143:
 1719              	.L168:
 1720              		.loc 1 637 0
 1721 01c2 3149     		ldr	r1, .L186+16
 1722              		.loc 1 636 0
 1723 01c4 314A     		ldr	r2, .L186+20
 1724              		.loc 1 637 0
 1725 01c6 C8F83810 		str	r1, [r8, #56]	@ float
 1726              		.loc 1 640 0
 1727 01ca 3849     		ldr	r1, .L186+52
 1728              		.loc 1 636 0
 1729 01cc C8F83420 		str	r2, [r8, #52]	@ float
 1730              		.loc 1 638 0
 1731 01d0 4FF07F52 		mov	r2, #1069547520
 1732 01d4 C8F83C20 		str	r2, [r8, #60]	@ float
 1733              		.loc 1 640 0
 1734 01d8 C8F84410 		str	r1, [r8, #68]	@ float
 1735              		.loc 1 639 0
 1736 01dc C8F84060 		str	r6, [r8, #64]	@ float
 1737              		.loc 1 641 0
 1738 01e0 334A     		ldr	r2, .L186+56
 1739              		.loc 1 643 0
 1740 01e2 3449     		ldr	r1, .L186+60
 1741 01e4 91E7     		b	.L183
 1742              	.L167:
 1743              		.loc 1 620 0
 1744 01e6 2849     		ldr	r1, .L186+16
 1745              		.loc 1 619 0
 1746 01e8 284A     		ldr	r2, .L186+20
 1747              		.loc 1 620 0
 1748 01ea C8F83810 		str	r1, [r8, #56]	@ float
 1749              		.loc 1 623 0
 1750 01ee 3249     		ldr	r1, .L186+64
 1751              		.loc 1 619 0
 1752 01f0 C8F83420 		str	r2, [r8, #52]	@ float
 1753              		.loc 1 621 0
 1754 01f4 4FF07F52 		mov	r2, #1069547520
 1755 01f8 C8F83C20 		str	r2, [r8, #60]	@ float
 1756              		.loc 1 623 0
 1757 01fc C8F84410 		str	r1, [r8, #68]	@ float
 1758              		.loc 1 622 0
 1759 0200 C8F84060 		str	r6, [r8, #64]	@ float
 1760              		.loc 1 624 0
 1761 0204 2D4A     		ldr	r2, .L186+68
 1762              		.loc 1 626 0
 1763 0206 2E49     		ldr	r1, .L186+72
 1764 0208 7FE7     		b	.L183
 1765              	.L165:
 1766              		.loc 1 679 0
 1767 020a 4FF07D52 		mov	r2, #1061158912
ARM GAS  /var/folders/6q/x_mk5n_j3p7_c40r_2k_78980000gn/T//ccu43oO2.s 			page 32


 1768 020e C8F85C20 		str	r2, [r8, #92]	@ float
 1769              		.loc 1 682 0
 1770 0212 2C4A     		ldr	r2, .L186+76
 1771              		.loc 1 677 0
 1772 0214 2C49     		ldr	r1, .L186+80
 1773              		.loc 1 674 0
 1774 0216 2D4B     		ldr	r3, .L186+84
 1775              		.loc 1 682 0
 1776 0218 C8F86C20 		str	r2, [r8, #108]	@ float
 1777              		.loc 1 693 0
 1778 021c B8F91C20 		ldrsh	r2, [r8, #28]
 1779              		.loc 1 674 0
 1780 0220 C8F84430 		str	r3, [r8, #68]	@ float
 1781              		.loc 1 677 0
 1782 0224 C8F82010 		str	r1, [r8, #32]	@ float
 1783              		.loc 1 675 0
 1784 0228 294B     		ldr	r3, .L186+88
 1785              		.loc 1 681 0
 1786 022a 2A49     		ldr	r1, .L186+92
 1787              		.loc 1 693 0
 1788 022c 002A     		cmp	r2, #0
 1789              		.loc 1 670 0
 1790 022e C8F834B0 		str	fp, [r8, #52]	@ float
 1791              		.loc 1 671 0
 1792 0232 C8F838A0 		str	r10, [r8, #56]	@ float
 1793              		.loc 1 672 0
 1794 0236 C8F83C90 		str	r9, [r8, #60]	@ float
 1795              		.loc 1 673 0
 1796 023a C8F84060 		str	r6, [r8, #64]	@ float
 1797              		.loc 1 675 0
 1798 023e C8F84830 		str	r3, [r8, #72]	@ float
 1799              		.loc 1 681 0
 1800 0242 C8F86810 		str	r1, [r8, #104]	@ float
 1801              		.loc 1 693 0
 1802 0246 BFF672AF 		bge	.L171
 1803              	.L185:
 1804              		.loc 1 696 0
 1805 024a 2349     		ldr	r1, .L186+96
 1806              		.loc 1 697 0
 1807 024c 0022     		movs	r2, #0
 1808              		.loc 1 696 0
 1809 024e C8F82010 		str	r1, [r8, #32]	@ float
 1810              		.loc 1 697 0
 1811 0252 C8F82420 		str	r2, [r8, #36]
 1812              		.loc 1 698 0
 1813 0256 C8F82820 		str	r2, [r8, #40]
 1814 025a 7BE7     		b	.L172
 1815              	.L174:
 1816              		.loc 1 743 0
 1817 025c 042D     		cmp	r5, #4
 1818 025e A1DD     		ble	.L176
 1819              	.L177:
 1820              		.loc 1 746 0
 1821 0260 1E4A     		ldr	r2, .L186+100
 1822 0262 C8F80820 		str	r2, [r8, #8]
 1823 0266 9FE7     		b	.L178
 1824              	.L175:
ARM GAS  /var/folders/6q/x_mk5n_j3p7_c40r_2k_78980000gn/T//ccu43oO2.s 			page 33


 1825              		.loc 1 739 0
 1826 0268 C4F82080 		str	r8, [r4, #32]
 1827 026c F8E7     		b	.L177
 1828              	.L164:
 1829              		.loc 1 688 0
 1830 026e 0022     		movs	r2, #0
 1831 0270 88F80220 		strb	r2, [r8, #2]
 1832              		.loc 1 689 0
 1833 0274 56E7     		b	.L170
 1834              	.L187:
 1835 0276 00BF     		.align	2
 1836              	.L186:
 1837 0278 00000000 		.word	.LANCHOR3
 1838 027c 1CC7B141 		.word	1102169884
 1839 0280 00000000 		.word	.LANCHOR0
 1840 0284 C3642A3A 		.word	975856835
 1841 0288 9A999940 		.word	1083808154
 1842 028c CDCC4C3E 		.word	1045220557
 1843 0290 ED1BD63C 		.word	1020664813
 1844 0294 00008443 		.word	1132724224
 1845 0298 A0AA8243 		.word	1132636832
 1846 029c 6666663F 		.word	1063675494
 1847 02a0 00009642 		.word	1117126656
 1848 02a4 FF093D37 		.word	926747135
 1849 02a8 0000B443 		.word	1135869952
 1850 02ac F294203D 		.word	1025545458
 1851 02b0 00003043 		.word	1127219200
 1852 02b4 0000C443 		.word	1136918528
 1853 02b8 2877803D 		.word	1031829288
 1854 02bc 0000DC42 		.word	1121714176
 1855 02c0 CDCC1C44 		.word	1142738125
 1856 02c4 ACC52738 		.word	942130604
 1857 02c8 B0727043 		.word	1131442864
 1858 02cc 6666663D 		.word	1030121062
 1859 02d0 0000F042 		.word	1123024896
 1860 02d4 55550543 		.word	1124422997
 1861 02d8 000080BF 		.word	-1082130432
 1862 02dc 34000000 		.word	.LANCHOR3+52
 1863 02e0 55550541 		.word	1090868565
 1864 02e4 07614538 		.word	944070919
 1865 02e8 00004040 		.word	1077936128
 1866 02ec EC51383E 		.word	1043878380
 1867 02f0 EC513840 		.word	1077432812
 1868 02f4 00002040 		.word	1075838976
 1869              		.cfi_endproc
 1870              	.LFE90:
 1871              		.size	SmartMotorsInit, .-SmartMotorsInit
 1872              		.section	.text.SmartMotorLinkMotors,"ax",%progbits
 1873              		.align	2
 1874              		.p2align 4,,15
 1875              		.global	SmartMotorLinkMotors
 1876              		.thumb
 1877              		.thumb_func
 1878              		.type	SmartMotorLinkMotors, %function
 1879              	SmartMotorLinkMotors:
 1880              	.LFB91:
 1881              		.loc 1 764 0
ARM GAS  /var/folders/6q/x_mk5n_j3p7_c40r_2k_78980000gn/T//ccu43oO2.s 			page 34


 1882              		.cfi_startproc
 1883              		@ args = 0, pretend = 0, frame = 0
 1884              		@ frame_needed = 0, uses_anonymous_args = 0
 1885              		@ link register save eliminated.
 1886              	.LVL144:
 1887              		.loc 1 766 0
 1888 0000 C3B2     		uxtb	r3, r0
 1889 0002 092B     		cmp	r3, #9
 1890 0004 1AD8     		bhi	.L195
 1891              		.loc 1 770 0
 1892 0006 CBB2     		uxtb	r3, r1
 1893 0008 092B     		cmp	r3, #9
 1894 000a 17D8     		bhi	.L195
 1895              	.LVL145:
 1896              		.loc 1 778 0
 1897 000c C0EB4010 		rsb	r0, r0, r0, lsl #5
 1898              	.LVL146:
 1899 0010 0B4B     		ldr	r3, .L196
 1900 0012 8000     		lsls	r0, r0, #2
 1901 0014 1A18     		adds	r2, r3, r0
 1902              		.loc 1 764 0
 1903 0016 70B4     		push	{r4, r5, r6}
 1904              		.cfi_def_cfa_offset 12
 1905              		.cfi_offset 4, -12
 1906              		.cfi_offset 5, -8
 1907              		.cfi_offset 6, -4
 1908              		.loc 1 778 0
 1909 0018 B2F91C40 		ldrsh	r4, [r2, #28]
 1910 001c 651C     		adds	r5, r4, #1
 1911 001e 0CD0     		beq	.L188
 1912              		.loc 1 782 0
 1913 0020 1E5C     		ldrb	r6, [r3, r0]	@ zero_extendqisi2
 1914              		.loc 1 785 0
 1915 0022 156A     		ldr	r5, [r2, #32]	@ float
 1916              		.loc 1 787 0
 1917 0024 506A     		ldr	r0, [r2, #36]
 1918              		.loc 1 782 0
 1919 0026 C1EB4111 		rsb	r1, r1, r1, lsl #5
 1920              	.LVL147:
 1921              		.loc 1 788 0
 1922 002a 926A     		ldr	r2, [r2, #40]
 1923              		.loc 1 782 0
 1924 002c 03EB8101 		add	r1, r3, r1, lsl #2
 1925              		.loc 1 786 0
 1926 0030 8C83     		strh	r4, [r1, #28]	@ movhi
 1927              		.loc 1 782 0
 1928 0032 4E70     		strb	r6, [r1, #1]
 1929              		.loc 1 785 0
 1930 0034 0D62     		str	r5, [r1, #32]	@ float
 1931              		.loc 1 787 0
 1932 0036 4862     		str	r0, [r1, #36]
 1933              		.loc 1 788 0
 1934 0038 8A62     		str	r2, [r1, #40]
 1935              	.L188:
 1936              		.loc 1 789 0
 1937 003a 70BC     		pop	{r4, r5, r6}
 1938              		.cfi_restore 6
ARM GAS  /var/folders/6q/x_mk5n_j3p7_c40r_2k_78980000gn/T//ccu43oO2.s 			page 35


 1939              		.cfi_restore 5
 1940              		.cfi_restore 4
 1941              		.cfi_def_cfa_offset 0
 1942              	.L195:
 1943 003c 7047     		bx	lr
 1944              	.L197:
 1945 003e 00BF     		.align	2
 1946              	.L196:
 1947 0040 00000000 		.word	.LANCHOR0
 1948              		.cfi_endproc
 1949              	.LFE91:
 1950              		.size	SmartMotorLinkMotors, .-SmartMotorLinkMotors
 1951              		.section	.text.SmartMotorsSetEncoderGearing,"ax",%progbits
 1952              		.align	2
 1953              		.p2align 4,,15
 1954              		.global	SmartMotorsSetEncoderGearing
 1955              		.thumb
 1956              		.thumb_func
 1957              		.type	SmartMotorsSetEncoderGearing, %function
 1958              	SmartMotorsSetEncoderGearing:
 1959              	.LFB92:
 1960              		.loc 1 805 0
 1961              		.cfi_startproc
 1962              		@ args = 0, pretend = 0, frame = 0
 1963              		@ frame_needed = 0, uses_anonymous_args = 0
 1964              	.LVL148:
 1965              		.loc 1 807 0
 1966 0000 C3B2     		uxtb	r3, r0
 1967 0002 092B     		cmp	r3, #9
 1968 0004 0DD8     		bhi	.L201
 1969              	.LVL149:
 1970              		.loc 1 805 0
 1971 0006 10B5     		push	{r4, lr}
 1972              		.cfi_def_cfa_offset 8
 1973              		.cfi_offset 4, -8
 1974              		.cfi_offset 14, -4
 1975              		.loc 1 813 0
 1976 0008 064C     		ldr	r4, .L202
 1977 000a C0EB4010 		rsb	r0, r0, r0, lsl #5
 1978              	.LVL150:
 1979 000e 04EB8004 		add	r4, r4, r0, lsl #2
 1980 0012 A38B     		ldrh	r3, [r4, #28]
 1981              	.LVL151:
 1982 0014 132B     		cmp	r3, #19
 1983 0016 03D8     		bhi	.L198
 1984              		.loc 1 814 0
 1985 0018 206A     		ldr	r0, [r4, #32]	@ float
 1986 001a FFF7FEFF 		bl	__aeabi_fmul
 1987              	.LVL152:
 1988 001e 2062     		str	r0, [r4, #32]	@ float
 1989              	.L198:
 1990 0020 10BD     		pop	{r4, pc}
 1991              	.LVL153:
 1992              	.L201:
 1993              		.cfi_def_cfa_offset 0
 1994              		.cfi_restore 4
 1995              		.cfi_restore 14
ARM GAS  /var/folders/6q/x_mk5n_j3p7_c40r_2k_78980000gn/T//ccu43oO2.s 			page 36


 1996 0022 7047     		bx	lr
 1997              	.L203:
 1998              		.align	2
 1999              	.L202:
 2000 0024 00000000 		.word	.LANCHOR0
 2001              		.cfi_endproc
 2002              	.LFE92:
 2003              		.size	SmartMotorsSetEncoderGearing, .-SmartMotorsSetEncoderGearing
 2004              		.section	.text._SmartMotorsAddPowerExtender,"ax",%progbits
 2005              		.align	2
 2006              		.p2align 4,,15
 2007              		.global	_SmartMotorsAddPowerExtender
 2008              		.thumb
 2009              		.thumb_func
 2010              		.type	_SmartMotorsAddPowerExtender, %function
 2011              	_SmartMotorsAddPowerExtender:
 2012              	.LFB93:
 2013              		.loc 1 845 0
 2014              		.cfi_startproc
 2015              		@ args = 4, pretend = 4, frame = 0
 2016              		@ frame_needed = 0, uses_anonymous_args = 1
 2017              	.LVL154:
 2018 0000 08B4     		push	{r3}
 2019              		.cfi_def_cfa_offset 4
 2020              		.cfi_offset 3, -4
 2021 0002 2DE9F043 		push	{r4, r5, r6, r7, r8, r9, lr}
 2022              		.cfi_def_cfa_offset 32
 2023              		.cfi_offset 4, -32
 2024              		.cfi_offset 5, -28
 2025              		.cfi_offset 6, -24
 2026              		.cfi_offset 7, -20
 2027              		.cfi_offset 8, -16
 2028              		.cfi_offset 9, -12
 2029              		.cfi_offset 14, -8
 2030 0006 DFF868E0 		ldr	lr, .L214+4
 2031              		.loc 1 847 0
 2032 000a 0027     		movs	r7, #0
 2033 000c 7546     		mov	r5, lr
 2034              		.loc 1 850 0
 2035 000e 3B46     		mov	r3, r7
 2036              		.loc 1 870 0
 2037 0010 B846     		mov	r8, r7
 2038              		.loc 1 845 0
 2039 0012 DDF81CC0 		ldr	ip, [sp, #28]
 2040 0016 154C     		ldr	r4, .L214
 2041              		.loc 1 863 0
 2042 0018 0EF16809 		add	r9, lr, #104
 2043              	.LVL155:
 2044              	.L208:
 2045              		.loc 1 856 0
 2046 001c A678     		ldrb	r6, [r4, #2]	@ zero_extendqisi2
 2047 001e 5EB1     		cbz	r6, .L205
 2048              		.loc 1 856 0 is_stmt 0 discriminator 1
 2049 0020 2678     		ldrb	r6, [r4]	@ zero_extendqisi2
 2050 0022 013E     		subs	r6, r6, #1
 2051 0024 072E     		cmp	r6, #7
 2052 0026 07D8     		bhi	.L205
ARM GAS  /var/folders/6q/x_mk5n_j3p7_c40r_2k_78980000gn/T//ccu43oO2.s 			page 37


 2053              		.loc 1 859 0 is_stmt 1
 2054 0028 9842     		cmp	r0, r3
 2055 002a 10D0     		beq	.L206
 2056              		.loc 1 859 0 is_stmt 0 discriminator 1
 2057 002c 9942     		cmp	r1, r3
 2058 002e 0ED0     		beq	.L206
 2059              		.loc 1 859 0 discriminator 2
 2060 0030 9A42     		cmp	r2, r3
 2061 0032 0CD0     		beq	.L206
 2062              		.loc 1 859 0 discriminator 3
 2063 0034 9C45     		cmp	ip, r3
 2064 0036 0AD0     		beq	.L206
 2065              	.L205:
 2066              		.loc 1 850 0 is_stmt 1 discriminator 2
 2067 0038 0133     		adds	r3, r3, #1
 2068              	.LVL156:
 2069 003a 0A2B     		cmp	r3, #10
 2070 003c 04F17C04 		add	r4, r4, #124
 2071 0040 05F10405 		add	r5, r5, #4
 2072 0044 EAD1     		bne	.L208
 2073              		.loc 1 874 0
 2074 0046 BDE8F043 		pop	{r4, r5, r6, r7, r8, r9, lr}
 2075              		.cfi_remember_state
 2076              		.cfi_restore 14
 2077              		.cfi_restore 9
 2078              		.cfi_restore 8
 2079              		.cfi_restore 7
 2080              		.cfi_restore 6
 2081              		.cfi_restore 5
 2082              		.cfi_restore 4
 2083              		.cfi_def_cfa_offset 4
 2084              	.LVL157:
 2085 004a 01B0     		add	sp, sp, #4
 2086              		.cfi_restore 3
 2087              		.cfi_def_cfa_offset 0
 2088 004c 7047     		bx	lr
 2089              	.LVL158:
 2090              	.L206:
 2091              		.cfi_restore_state
 2092              		.loc 1 862 0
 2093 004e 07F11A06 		add	r6, r7, #26
 2094              		.loc 1 867 0
 2095 0052 042B     		cmp	r3, #4
 2096              		.loc 1 862 0
 2097 0054 4EF82640 		str	r4, [lr, r6, lsl #2]
 2098              		.loc 1 863 0
 2099 0058 C4F80890 		str	r9, [r4, #8]
 2100              		.loc 1 864 0
 2101 005c 07F10107 		add	r7, r7, #1
 2102              	.LVL159:
 2103              		.loc 1 868 0
 2104 0060 D4BF     		ite	le
 2105 0062 C5F80080 		strle	r8, [r5]
 2106              		.loc 1 870 0
 2107 0066 C5F82080 		strgt	r8, [r5, #32]
 2108 006a E5E7     		b	.L205
 2109              	.L215:
ARM GAS  /var/folders/6q/x_mk5n_j3p7_c40r_2k_78980000gn/T//ccu43oO2.s 			page 38


 2110              		.align	2
 2111              	.L214:
 2112 006c 00000000 		.word	.LANCHOR0
 2113 0070 00000000 		.word	.LANCHOR3
 2114              		.cfi_endproc
 2115              	.LFE93:
 2116              		.size	_SmartMotorsAddPowerExtender, .-_SmartMotorsAddPowerExtender
 2117              		.section	.text._SmartMotorSetRpmSensor,"ax",%progbits
 2118              		.align	2
 2119              		.p2align 4,,15
 2120              		.global	_SmartMotorSetRpmSensor
 2121              		.thumb
 2122              		.thumb_func
 2123              		.type	_SmartMotorSetRpmSensor, %function
 2124              	_SmartMotorSetRpmSensor:
 2125              	.LFB94:
 2126              		.loc 1 905 0
 2127              		.cfi_startproc
 2128              		@ args = 4, pretend = 4, frame = 0
 2129              		@ frame_needed = 0, uses_anonymous_args = 1
 2130              		@ link register save eliminated.
 2131              	.LVL160:
 2132 0000 08B4     		push	{r3}
 2133              		.cfi_def_cfa_offset 4
 2134              		.cfi_offset 3, -4
 2135 0002 10B4     		push	{r4}
 2136              		.cfi_def_cfa_offset 8
 2137              		.cfi_offset 4, -8
 2138              		.loc 1 907 0
 2139 0004 C3B2     		uxtb	r3, r0
 2140 0006 092B     		cmp	r3, #9
 2141              		.loc 1 905 0
 2142 0008 9DF80440 		ldrb	r4, [sp, #4]	@ zero_extendqisi2
 2143              		.loc 1 907 0
 2144 000c 0ED8     		bhi	.L216
 2145              	.LVL161:
 2146              		.loc 1 915 0
 2147 000e CBB2     		uxtb	r3, r1
 2148 0010 072B     		cmp	r3, #7
 2149 0012 0BD8     		bhi	.L216
 2150              		.loc 1 917 0
 2151 0014 074B     		ldr	r3, .L223
 2152 0016 C0EB4010 		rsb	r0, r0, r0, lsl #5
 2153              	.LVL162:
 2154 001a 01F50061 		add	r1, r1, #2048
 2155              	.LVL163:
 2156 001e 03EB8000 		add	r0, r3, r0, lsl #2
 2157 0022 8183     		strh	r1, [r0, #28]	@ movhi
 2158              		.loc 1 920 0
 2159 0024 0CB1     		cbz	r4, .L222
 2160              		.loc 1 921 0
 2161 0026 02F10042 		add	r2, r2, #-2147483648
 2162              	.LVL164:
 2163              	.L222:
 2164 002a 0262     		str	r2, [r0, #32]	@ float
 2165              	.LVL165:
 2166              	.L216:
ARM GAS  /var/folders/6q/x_mk5n_j3p7_c40r_2k_78980000gn/T//ccu43oO2.s 			page 39


 2167              		.loc 1 923 0
 2168 002c 10BC     		pop	{r4}
 2169              		.cfi_restore 4
 2170              		.cfi_def_cfa_offset 4
 2171 002e 01B0     		add	sp, sp, #4
 2172              		.cfi_restore 3
 2173              		.cfi_def_cfa_offset 0
 2174 0030 7047     		bx	lr
 2175              	.L224:
 2176 0032 00BF     		.align	2
 2177              	.L223:
 2178 0034 00000000 		.word	.LANCHOR0
 2179              		.cfi_endproc
 2180              	.LFE94:
 2181              		.size	_SmartMotorSetRpmSensor, .-_SmartMotorSetRpmSensor
 2182              		.global	__aeabi_i2d
 2183              		.section	.text.SmartMotorSpeed,"ax",%progbits
 2184              		.align	2
 2185              		.p2align 4,,15
 2186              		.global	SmartMotorSpeed
 2187              		.thumb
 2188              		.thumb_func
 2189              		.type	SmartMotorSpeed, %function
 2190              	SmartMotorSpeed:
 2191              	.LFB95:
 2192              		.loc 1 947 0
 2193              		.cfi_startproc
 2194              		@ args = 0, pretend = 0, frame = 0
 2195              		@ frame_needed = 0, uses_anonymous_args = 0
 2196              	.LVL166:
 2197 0000 2DE9F843 		push	{r3, r4, r5, r6, r7, r8, r9, lr}
 2198              		.cfi_def_cfa_offset 32
 2199              		.cfi_offset 3, -32
 2200              		.cfi_offset 4, -28
 2201              		.cfi_offset 5, -24
 2202              		.cfi_offset 6, -20
 2203              		.cfi_offset 7, -16
 2204              		.cfi_offset 8, -12
 2205              		.cfi_offset 9, -8
 2206              		.cfi_offset 14, -4
 2207              		.loc 1 947 0
 2208 0004 0446     		mov	r4, r0
 2209              		.loc 1 958 0
 2210 0006 90F90100 		ldrsb	r0, [r0, #1]
 2211              	.LVL167:
 2212              		.loc 1 947 0
 2213 000a 0F46     		mov	r7, r1
 2214              		.loc 1 958 0
 2215 000c FFF7FEFF 		bl	vexMotorPositionGet
 2216              	.LVL168:
 2217 0010 0546     		mov	r5, r0
 2218              		.loc 1 962 0
 2219 0012 A06A     		ldr	r0, [r4, #40]
 2220              		.loc 1 958 0
 2221 0014 6562     		str	r5, [r4, #36]
 2222              		.loc 1 962 0
 2223 0016 281A     		subs	r0, r5, r0
ARM GAS  /var/folders/6q/x_mk5n_j3p7_c40r_2k_78980000gn/T//ccu43oO2.s 			page 40


 2224 0018 FFF7FEFF 		bl	__aeabi_i2f
 2225              	.LVL169:
 2226              		.loc 1 963 0
 2227 001c A562     		str	r5, [r4, #40]
 2228              		.loc 1 962 0
 2229 001e 0646     		mov	r6, r0
 2230 0020 E062     		str	r0, [r4, #44]	@ float
 2231              		.loc 1 966 0
 2232 0022 3846     		mov	r0, r7
 2233 0024 FFF7FEFF 		bl	__aeabi_i2d
 2234              	.LVL170:
 2235 0028 0246     		mov	r2, r0
 2236 002a 0B46     		mov	r3, r1
 2237 002c 0020     		movs	r0, #0
 2238 002e 1149     		ldr	r1, .L227
 2239 0030 FFF7FEFF 		bl	__aeabi_ddiv
 2240              	.LVL171:
 2241 0034 8046     		mov	r8, r0
 2242 0036 3046     		mov	r0, r6
 2243 0038 8946     		mov	r9, r1
 2244 003a FFF7FEFF 		bl	__aeabi_f2d
 2245              	.LVL172:
 2246 003e 0246     		mov	r2, r0
 2247 0040 0B46     		mov	r3, r1
 2248 0042 4046     		mov	r0, r8
 2249 0044 4946     		mov	r1, r9
 2250 0046 FFF7FEFF 		bl	__aeabi_dmul
 2251              	.LVL173:
 2252 004a 0022     		movs	r2, #0
 2253 004c 0A4B     		ldr	r3, .L227+4
 2254 004e FFF7FEFF 		bl	__aeabi_dmul
 2255              	.LVL174:
 2256 0052 0646     		mov	r6, r0
 2257 0054 206A     		ldr	r0, [r4, #32]	@ float
 2258 0056 0F46     		mov	r7, r1
 2259              	.LVL175:
 2260 0058 FFF7FEFF 		bl	__aeabi_f2d
 2261              	.LVL176:
 2262 005c 0246     		mov	r2, r0
 2263 005e 0B46     		mov	r3, r1
 2264 0060 3046     		mov	r0, r6
 2265 0062 3946     		mov	r1, r7
 2266 0064 FFF7FEFF 		bl	__aeabi_ddiv
 2267              	.LVL177:
 2268 0068 FFF7FEFF 		bl	__aeabi_d2f
 2269              	.LVL178:
 2270 006c 2063     		str	r0, [r4, #48]	@ float
 2271 006e BDE8F883 		pop	{r3, r4, r5, r6, r7, r8, r9, pc}
 2272              	.LVL179:
 2273              	.L228:
 2274 0072 00BF     		.align	2
 2275              	.L227:
 2276 0074 00408F40 		.word	1083129856
 2277 0078 00004E40 		.word	1078853632
 2278              		.cfi_endproc
 2279              	.LFE95:
 2280              		.size	SmartMotorSpeed, .-SmartMotorSpeed
ARM GAS  /var/folders/6q/x_mk5n_j3p7_c40r_2k_78980000gn/T//ccu43oO2.s 			page 41


 2281              		.global	__aeabi_fadd
 2282              		.section	.text.SmartMotorSimulateSpeed,"ax",%progbits
 2283              		.align	2
 2284              		.p2align 4,,15
 2285              		.global	SmartMotorSimulateSpeed
 2286              		.thumb
 2287              		.thumb_func
 2288              		.type	SmartMotorSimulateSpeed, %function
 2289              	SmartMotorSimulateSpeed:
 2290              	.LFB96:
 2291              		.loc 1 981 0
 2292              		.cfi_startproc
 2293              		@ args = 0, pretend = 0, frame = 0
 2294              		@ frame_needed = 0, uses_anonymous_args = 0
 2295              	.LVL180:
 2296 0000 2DE9F843 		push	{r3, r4, r5, r6, r7, r8, r9, lr}
 2297              		.cfi_def_cfa_offset 32
 2298              		.cfi_offset 3, -32
 2299              		.cfi_offset 4, -28
 2300              		.cfi_offset 5, -24
 2301              		.cfi_offset 6, -20
 2302              		.cfi_offset 7, -16
 2303              		.cfi_offset 8, -12
 2304              		.cfi_offset 9, -8
 2305              		.cfi_offset 14, -4
 2306              		.loc 1 981 0
 2307 0004 0446     		mov	r4, r0
 2308              		.loc 1 989 0
 2309 0006 90F90000 		ldrsb	r0, [r0]
 2310              	.LVL181:
 2311 000a FFF7FEFF 		bl	vexMotorGet
 2312              	.LVL182:
 2313              		.loc 1 991 0
 2314 000e 80EAE077 		eor	r7, r0, r0, asr #31
 2315 0012 A7EBE077 		sub	r7, r7, r0, asr #31
 2316              		.loc 1 989 0
 2317 0016 0646     		mov	r6, r0
 2318              	.LVL183:
 2319              		.loc 1 998 0
 2320 0018 A06C     		ldr	r0, [r4, #72]	@ float
 2321              	.LVL184:
 2322 001a FFF7FEFF 		bl	__aeabi_f2d
 2323              	.LVL185:
 2324 001e 0022     		movs	r2, #0
 2325 0020 274B     		ldr	r3, .L235+8
 2326 0022 FFF7FEFF 		bl	__aeabi_ddiv
 2327              	.LVL186:
 2328 0026 24A3     		adr	r3, .L235
 2329 0028 D3E90023 		ldrd	r2, [r3]
 2330 002c FFF7FEFF 		bl	__aeabi_dmul
 2331              	.LVL187:
 2332 0030 FFF7FEFF 		bl	__aeabi_d2f
 2333              	.LVL188:
 2334              		.loc 1 991 0
 2335 0034 3D11     		asrs	r5, r7, #4
 2336              	.LVL189:
 2337              		.loc 1 998 0
ARM GAS  /var/folders/6q/x_mk5n_j3p7_c40r_2k_78980000gn/T//ccu43oO2.s 			page 42


 2338 0036 8046     		mov	r8, r0
 2339              	.LVL190:
 2340              		.loc 1 999 0
 2341 0038 A7EB0510 		sub	r0, r7, r5, lsl #4
 2342              	.LVL191:
 2343 003c FFF7FEFF 		bl	__aeabi_i2d
 2344              	.LVL192:
 2345 0040 0022     		movs	r2, #0
 2346 0042 204B     		ldr	r3, .L235+12
 2347 0044 FFF7FEFF 		bl	__aeabi_dmul
 2348              	.LVL193:
 2349 0048 FFF7FEFF 		bl	__aeabi_d2f
 2350              	.LVL194:
 2351 004c 1E4F     		ldr	r7, .L235+16
 2352              	.LVL195:
 2353 004e 6B1C     		adds	r3, r5, #1
 2354 0050 8146     		mov	r9, r0
 2355 0052 37F91550 		ldrsh	r5, [r7, r5, lsl #1]
 2356              	.LVL196:
 2357 0056 37F91300 		ldrsh	r0, [r7, r3, lsl #1]
 2358 005a 401B     		subs	r0, r0, r5
 2359 005c FFF7FEFF 		bl	__aeabi_i2f
 2360              	.LVL197:
 2361 0060 0146     		mov	r1, r0
 2362 0062 4846     		mov	r0, r9
 2363 0064 FFF7FEFF 		bl	__aeabi_fmul
 2364              	.LVL198:
 2365 0068 0746     		mov	r7, r0
 2366 006a 2846     		mov	r0, r5
 2367 006c FFF7FEFF 		bl	__aeabi_i2f
 2368              	.LVL199:
 2369 0070 0146     		mov	r1, r0
 2370 0072 3846     		mov	r0, r7
 2371 0074 FFF7FEFF 		bl	__aeabi_fadd
 2372              	.LVL200:
 2373 0078 0546     		mov	r5, r0
 2374              	.LVL201:
 2375              		.loc 1 1001 0
 2376 007a 3046     		mov	r0, r6
 2377              	.LVL202:
 2378 007c FFF7FEFF 		bl	__aeabi_i2f
 2379              	.LVL203:
 2380              	.LBB76:
 2381              	.LBB77:
 2382              		.loc 1 142 0
 2383 0080 0021     		movs	r1, #0
 2384              	.LBE77:
 2385              	.LBE76:
 2386              		.loc 1 1001 0
 2387 0082 0646     		mov	r6, r0
 2388              	.LVL204:
 2389              	.LBB80:
 2390              	.LBB78:
 2391              		.loc 1 142 0
 2392 0084 FFF7FEFF 		bl	__aeabi_fcmpeq
 2393              	.LVL205:
 2394 0088 90B9     		cbnz	r0, .L231
ARM GAS  /var/folders/6q/x_mk5n_j3p7_c40r_2k_78980000gn/T//ccu43oO2.s 			page 43


 2395              		.loc 1 143 0
 2396 008a 3046     		mov	r0, r6
 2397 008c 0021     		movs	r1, #0
 2398 008e FFF7FEFF 		bl	__aeabi_fcmpgt
 2399              	.LVL206:
 2400 0092 58B1     		cbz	r0, .L234
 2401 0094 4FF07E56 		mov	r6, #1065353216
 2402              	.LVL207:
 2403              	.L230:
 2404              	.LBE78:
 2405              	.LBE80:
 2406              		.loc 1 1001 0
 2407 0098 2946     		mov	r1, r5
 2408 009a 4046     		mov	r0, r8
 2409 009c FFF7FEFF 		bl	__aeabi_fmul
 2410              	.LVL208:
 2411 00a0 3146     		mov	r1, r6
 2412 00a2 FFF7FEFF 		bl	__aeabi_fmul
 2413              	.LVL209:
 2414 00a6 2063     		str	r0, [r4, #48]	@ float
 2415 00a8 BDE8F883 		pop	{r3, r4, r5, r6, r7, r8, r9, pc}
 2416              	.LVL210:
 2417              	.L234:
 2418              	.LBB81:
 2419              	.LBB79:
 2420              		.loc 1 143 0
 2421 00ac 074E     		ldr	r6, .L235+20
 2422              	.LVL211:
 2423 00ae F3E7     		b	.L230
 2424              	.LVL212:
 2425              	.L231:
 2426              		.loc 1 142 0
 2427 00b0 0026     		movs	r6, #0
 2428              	.LVL213:
 2429 00b2 F1E7     		b	.L230
 2430              	.L236:
 2431 00b4 AFF30080 		.align	3
 2432              	.L235:
 2433 00b8 CDCCCCCC 		.word	3435973837
 2434 00bc CCCCEC3F 		.word	1072483532
 2435 00c0 00005940 		.word	1079574528
 2436 00c4 0000B03F 		.word	1068498944
 2437 00c8 00000000 		.word	.LANCHOR4
 2438 00cc 000080BF 		.word	-1082130432
 2439              	.LBE79:
 2440              	.LBE81:
 2441              		.cfi_endproc
 2442              	.LFE96:
 2443              		.size	SmartMotorSimulateSpeed, .-SmartMotorSimulateSpeed
 2444              		.global	__aeabi_fcmplt
 2445              		.global	__aeabi_f2iz
 2446              		.global	__aeabi_f2uiz
 2447              		.global	__aeabi_dadd
 2448              		.global	__aeabi_ui2f
 2449              		.section	.text.SmartMotorCurrent,"ax",%progbits
 2450              		.align	2
 2451              		.p2align 4,,15
ARM GAS  /var/folders/6q/x_mk5n_j3p7_c40r_2k_78980000gn/T//ccu43oO2.s 			page 44


 2452              		.global	SmartMotorCurrent
 2453              		.thumb
 2454              		.thumb_func
 2455              		.type	SmartMotorCurrent, %function
 2456              	SmartMotorCurrent:
 2457              	.LFB98:
 2458              		.loc 1 1052 0
 2459              		.cfi_startproc
 2460              		@ args = 0, pretend = 0, frame = 32
 2461              		@ frame_needed = 0, uses_anonymous_args = 0
 2462              	.LVL214:
 2463 0000 2DE9F04F 		push	{r4, r5, r6, r7, r8, r9, r10, fp, lr}
 2464              		.cfi_def_cfa_offset 36
 2465              		.cfi_offset 4, -36
 2466              		.cfi_offset 5, -32
 2467              		.cfi_offset 6, -28
 2468              		.cfi_offset 7, -24
 2469              		.cfi_offset 8, -20
 2470              		.cfi_offset 9, -16
 2471              		.cfi_offset 10, -12
 2472              		.cfi_offset 11, -8
 2473              		.cfi_offset 14, -4
 2474 0004 0446     		mov	r4, r0
 2475 0006 89B0     		sub	sp, sp, #36
 2476              		.cfi_def_cfa_offset 72
 2477              		.loc 1 1065 0
 2478 0008 90F90000 		ldrsb	r0, [r0]
 2479              	.LVL215:
 2480              		.loc 1 1052 0
 2481 000c 0691     		str	r1, [sp, #24]	@ float
 2482              		.loc 1 1065 0
 2483 000e FFF7FEFF 		bl	vexMotorGet
 2484              	.LVL216:
 2485              		.loc 1 1069 0
 2486 0012 2378     		ldrb	r3, [r4]	@ zero_extendqisi2
 2487              		.loc 1 1065 0
 2488 0014 0546     		mov	r5, r0
 2489              	.LVL217:
 2490              		.loc 1 1069 0
 2491 0016 013B     		subs	r3, r3, #1
 2492 0018 072B     		cmp	r3, #7
 2493 001a 07D8     		bhi	.L238
 2494              		.loc 1 1070 0
 2495 001c B04A     		ldr	r2, .L295+16
 2496 001e C301     		lsls	r3, r0, #7
 2497 0020 82FB0325 		smull	r2, r5, r2, r3
 2498 0024 DA17     		asrs	r2, r3, #31
 2499 0026 1D44     		add	r5, r5, r3
 2500 0028 C2EBA515 		rsb	r5, r2, r5, asr #6
 2501              	.LVL218:
 2502              	.L238:
 2503              		.loc 1 1073 0
 2504 002c 85EAE576 		eor	r6, r5, r5, asr #31
 2505 0030 A6EBE576 		sub	r6, r6, r5, asr #31
 2506 0034 7F2E     		cmp	r6, #127
 2507 0036 00F39981 		bgt	.L239
 2508 003a 3046     		mov	r0, r6
ARM GAS  /var/folders/6q/x_mk5n_j3p7_c40r_2k_78980000gn/T//ccu43oO2.s 			page 45


 2509 003c FFF7FEFF 		bl	__aeabi_i2d
 2510              	.LVL219:
 2511 0040 A3A3     		adr	r3, .L295
 2512 0042 D3E90023 		ldrd	r2, [r3]
 2513 0046 FFF7FEFF 		bl	__aeabi_ddiv
 2514              	.LVL220:
 2515 004a FFF7FEFF 		bl	__aeabi_d2f
 2516              	.LVL221:
 2517 004e 0146     		mov	r1, r0
 2518 0050 8346     		mov	fp, r0
 2519 0052 4FF07E50 		mov	r0, #1065353216
 2520 0056 FFF7FEFF 		bl	__aeabi_fsub
 2521              	.LVL222:
 2522              		.loc 1 1078 0
 2523 005a 0A2E     		cmp	r6, #10
 2524 005c 8146     		mov	r9, r0
 2525 005e 40F39181 		ble	.L241
 2526              	.L240:
 2527              		.loc 1 1079 0
 2528 0062 2846     		mov	r0, r5
 2529 0064 FFF7FEFF 		bl	__aeabi_i2f
 2530              	.LVL223:
 2531              	.LBB82:
 2532              	.LBB83:
 2533              		.loc 1 142 0
 2534 0068 0021     		movs	r1, #0
 2535              	.LBE83:
 2536              	.LBE82:
 2537              		.loc 1 1079 0
 2538 006a 0546     		mov	r5, r0
 2539              	.LVL224:
 2540              	.LBB87:
 2541              	.LBB84:
 2542              		.loc 1 142 0
 2543 006c FFF7FEFF 		bl	__aeabi_fcmpeq
 2544              	.LVL225:
 2545 0070 0028     		cmp	r0, #0
 2546 0072 00F0A581 		beq	.L289
 2547 0076 0023     		movs	r3, #0
 2548 0078 0022     		movs	r2, #0
 2549 007a CDE90423 		strd	r2, [sp, #16]
 2550 007e 0023     		movs	r3, #0
 2551 0080 0293     		str	r3, [sp, #8]	@ float
 2552              	.L244:
 2553              	.LVL226:
 2554 0082 D4F83080 		ldr	r8, [r4, #48]	@ float
 2555              	.LBE84:
 2556              	.LBE87:
 2557 0086 CDF80C90 		str	r9, [sp, #12]	@ float
 2558              	.LVL227:
 2559              	.L246:
 2560              		.loc 1 1087 0
 2561 008a 9649     		ldr	r1, .L295+20
 2562 008c 206C     		ldr	r0, [r4, #64]	@ float
 2563 008e FFF7FEFF 		bl	__aeabi_fmul
 2564              	.LVL228:
 2565 0092 E76B     		ldr	r7, [r4, #60]	@ float
ARM GAS  /var/folders/6q/x_mk5n_j3p7_c40r_2k_78980000gn/T//ccu43oO2.s 			page 46


 2566 0094 0146     		mov	r1, r0
 2567 0096 3846     		mov	r0, r7
 2568 0098 FFF7FEFF 		bl	__aeabi_fdiv
 2569              	.LVL229:
 2570              		.loc 1 1088 0
 2571 009c 00F10046 		add	r6, r0, #-2147483648
 2572              		.loc 1 1087 0
 2573 00a0 0790     		str	r0, [sp, #28]	@ float
 2574              	.LVL230:
 2575              	.LBB88:
 2576              	.LBB89:
 2577              		.file 2 "../convex-vexilla/cortex/opt/fastmath.c"
 2578              		.loc 2 86 0
 2579 00a2 5946     		mov	r1, fp
 2580 00a4 3046     		mov	r0, r6
 2581              	.LVL231:
 2582 00a6 FFF7FEFF 		bl	__aeabi_fmul
 2583              	.LVL232:
 2584 00aa 8F49     		ldr	r1, .L295+24
 2585 00ac FFF7FEFF 		bl	__aeabi_fmul
 2586              	.LVL233:
 2587              	.LBB90:
 2588              	.LBB91:
 2589              		.loc 2 61 0
 2590 00b0 0021     		movs	r1, #0
 2591              	.LBE91:
 2592              	.LBE90:
 2593              		.loc 2 86 0
 2594 00b2 0546     		mov	r5, r0
 2595              	.LVL234:
 2596              	.LBB96:
 2597              	.LBB92:
 2598              		.loc 2 61 0
 2599 00b4 FFF7FEFF 		bl	__aeabi_fcmplt
 2600              	.LVL235:
 2601 00b8 0028     		cmp	r0, #0
 2602 00ba 40F0A781 		bne	.L290
 2603 00be 4FF0000A 		mov	r10, #0
 2604              	.L249:
 2605              	.LVL236:
 2606              		.loc 2 62 0
 2607 00c2 8A49     		ldr	r1, .L295+28
 2608 00c4 2846     		mov	r0, r5
 2609 00c6 FFF7FEFF 		bl	__aeabi_fcmplt
 2610              	.LVL237:
 2611 00ca 0028     		cmp	r0, #0
 2612 00cc 40F09881 		bne	.L269
 2613 00d0 2846     		mov	r0, r5
 2614 00d2 FFF7FEFF 		bl	__aeabi_f2iz
 2615              	.LVL238:
 2616 00d6 FFF7FEFF 		bl	__aeabi_i2f
 2617              	.LVL239:
 2618 00da 0146     		mov	r1, r0
 2619 00dc 2846     		mov	r0, r5
 2620 00de FFF7FEFF 		bl	__aeabi_fsub
 2621              	.LVL240:
 2622 00e2 8349     		ldr	r1, .L295+32
ARM GAS  /var/folders/6q/x_mk5n_j3p7_c40r_2k_78980000gn/T//ccu43oO2.s 			page 47


 2623 00e4 0090     		str	r0, [sp]
 2624 00e6 2846     		mov	r0, r5
 2625 00e8 FFF7FEFF 		bl	__aeabi_fadd
 2626              	.LVL241:
 2627 00ec 0346     		mov	r3, r0
 2628 00ee 009A     		ldr	r2, [sp]
 2629              	.L251:
 2630              		.loc 2 64 0
 2631 00f0 1146     		mov	r1, r2
 2632 00f2 5046     		mov	r0, r10
 2633 00f4 0093     		str	r3, [sp]
 2634 00f6 FFF7FEFF 		bl	__aeabi_fadd
 2635              	.LVL242:
 2636 00fa 0546     		mov	r5, r0
 2637              	.LVL243:
 2638              		.loc 2 65 0
 2639 00fc 0146     		mov	r1, r0
 2640 00fe 7D48     		ldr	r0, .L295+36
 2641              	.LVL244:
 2642 0100 FFF7FEFF 		bl	__aeabi_fsub
 2643              	.LVL245:
 2644 0104 0146     		mov	r1, r0
 2645 0106 7C48     		ldr	r0, .L295+40
 2646 0108 FFF7FEFF 		bl	__aeabi_fdiv
 2647              	.LVL246:
 2648 010c 009B     		ldr	r3, [sp]
 2649 010e 1946     		mov	r1, r3
 2650 0110 FFF7FEFF 		bl	__aeabi_fadd
 2651              	.LVL247:
 2652 0114 7949     		ldr	r1, .L295+44
 2653 0116 8246     		mov	r10, r0
 2654              	.LVL248:
 2655 0118 2846     		mov	r0, r5
 2656 011a FFF7FEFF 		bl	__aeabi_fmul
 2657              	.LVL249:
 2658 011e 0146     		mov	r1, r0
 2659 0120 5046     		mov	r0, r10
 2660 0122 FFF7FEFF 		bl	__aeabi_fsub
 2661              	.LVL250:
 2662 0126 4FF09641 		mov	r1, #1258291200
 2663 012a FFF7FEFF 		bl	__aeabi_fmul
 2664              	.LVL251:
 2665 012e FFF7FEFF 		bl	__aeabi_f2uiz
 2666              	.LVL252:
 2667              	.LBE92:
 2668              	.LBE96:
 2669              	.LBE89:
 2670              	.LBE88:
 2671              	.LBB103:
 2672              	.LBB104:
 2673              		.loc 2 86 0
 2674 0132 4946     		mov	r1, r9
 2675              	.LBE104:
 2676              	.LBE103:
 2677              	.LBB119:
 2678              	.LBB100:
 2679              	.LBB97:
ARM GAS  /var/folders/6q/x_mk5n_j3p7_c40r_2k_78980000gn/T//ccu43oO2.s 			page 48


 2680              	.LBB93:
 2681              		.loc 2 65 0
 2682 0134 8246     		mov	r10, r0
 2683              	.LVL253:
 2684              	.LBE93:
 2685              	.LBE97:
 2686              	.LBE100:
 2687              	.LBE119:
 2688              	.LBB120:
 2689              	.LBB115:
 2690              		.loc 2 86 0
 2691 0136 3046     		mov	r0, r6
 2692 0138 FFF7FEFF 		bl	__aeabi_fmul
 2693              	.LVL254:
 2694 013c 6A49     		ldr	r1, .L295+24
 2695 013e FFF7FEFF 		bl	__aeabi_fmul
 2696              	.LVL255:
 2697              	.LBB105:
 2698              	.LBB106:
 2699              		.loc 2 61 0
 2700 0142 0021     		movs	r1, #0
 2701              	.LBE106:
 2702              	.LBE105:
 2703              		.loc 2 86 0
 2704 0144 0546     		mov	r5, r0
 2705              	.LVL256:
 2706              	.LBB111:
 2707              	.LBB107:
 2708              		.loc 2 61 0
 2709 0146 FFF7FEFF 		bl	__aeabi_fcmplt
 2710              	.LVL257:
 2711 014a 0028     		cmp	r0, #0
 2712 014c 40F05B81 		bne	.L291
 2713 0150 0026     		movs	r6, #0
 2714              	.LVL258:
 2715              	.L252:
 2716              		.loc 2 62 0
 2717 0152 6649     		ldr	r1, .L295+28
 2718 0154 2846     		mov	r0, r5
 2719 0156 FFF7FEFF 		bl	__aeabi_fcmplt
 2720              	.LVL259:
 2721 015a 0028     		cmp	r0, #0
 2722 015c 40F04C81 		bne	.L271
 2723 0160 2846     		mov	r0, r5
 2724 0162 FFF7FEFF 		bl	__aeabi_f2iz
 2725              	.LVL260:
 2726 0166 FFF7FEFF 		bl	__aeabi_i2f
 2727              	.LVL261:
 2728 016a 0146     		mov	r1, r0
 2729 016c 2846     		mov	r0, r5
 2730 016e FFF7FEFF 		bl	__aeabi_fsub
 2731              	.LVL262:
 2732 0172 5F49     		ldr	r1, .L295+32
 2733 0174 0090     		str	r0, [sp]
 2734 0176 2846     		mov	r0, r5
 2735 0178 FFF7FEFF 		bl	__aeabi_fadd
 2736              	.LVL263:
ARM GAS  /var/folders/6q/x_mk5n_j3p7_c40r_2k_78980000gn/T//ccu43oO2.s 			page 49


 2737 017c 8146     		mov	r9, r0
 2738 017e 009B     		ldr	r3, [sp]
 2739              	.L254:
 2740              		.loc 2 64 0
 2741 0180 1946     		mov	r1, r3
 2742 0182 3046     		mov	r0, r6
 2743 0184 FFF7FEFF 		bl	__aeabi_fadd
 2744              	.LVL264:
 2745 0188 0546     		mov	r5, r0
 2746              	.LVL265:
 2747              		.loc 2 65 0
 2748 018a 0146     		mov	r1, r0
 2749 018c 5948     		ldr	r0, .L295+36
 2750              	.LVL266:
 2751 018e FFF7FEFF 		bl	__aeabi_fsub
 2752              	.LVL267:
 2753 0192 0146     		mov	r1, r0
 2754 0194 5848     		ldr	r0, .L295+40
 2755 0196 FFF7FEFF 		bl	__aeabi_fdiv
 2756              	.LVL268:
 2757 019a 4946     		mov	r1, r9
 2758 019c FFF7FEFF 		bl	__aeabi_fadd
 2759              	.LVL269:
 2760 01a0 5649     		ldr	r1, .L295+44
 2761 01a2 0646     		mov	r6, r0
 2762              	.LVL270:
 2763 01a4 2846     		mov	r0, r5
 2764 01a6 FFF7FEFF 		bl	__aeabi_fmul
 2765              	.LVL271:
 2766 01aa 0146     		mov	r1, r0
 2767 01ac 3046     		mov	r0, r6
 2768 01ae FFF7FEFF 		bl	__aeabi_fsub
 2769              	.LVL272:
 2770 01b2 4FF09641 		mov	r1, #1258291200
 2771 01b6 FFF7FEFF 		bl	__aeabi_fmul
 2772              	.LVL273:
 2773 01ba FFF7FEFF 		bl	__aeabi_f2uiz
 2774              	.LVL274:
 2775              	.LBE107:
 2776              	.LBE111:
 2777              	.LBE115:
 2778              	.LBE120:
 2779              		.loc 1 1092 0
 2780 01be 616C     		ldr	r1, [r4, #68]	@ float
 2781              	.LBB121:
 2782              	.LBB116:
 2783              	.LBB112:
 2784              	.LBB108:
 2785              		.loc 2 65 0
 2786 01c0 0546     		mov	r5, r0
 2787              	.LVL275:
 2788              	.LBE108:
 2789              	.LBE112:
 2790              	.LBE116:
 2791              	.LBE121:
 2792              		.loc 1 1092 0
 2793 01c2 4046     		mov	r0, r8
ARM GAS  /var/folders/6q/x_mk5n_j3p7_c40r_2k_78980000gn/T//ccu43oO2.s 			page 50


 2794 01c4 FFF7FEFF 		bl	__aeabi_fmul
 2795              	.LVL276:
 2796 01c8 8146     		mov	r9, r0
 2797              		.loc 1 1095 0
 2798 01ca D4F84C80 		ldr	r8, [r4, #76]	@ float
 2799 01ce 20F00040 		bic	r0, r0, #-2147483648
 2800 01d2 4146     		mov	r1, r8
 2801              		.loc 1 1092 0
 2802 01d4 4E46     		mov	r6, r9
 2803              	.LVL277:
 2804              		.loc 1 1095 0
 2805 01d6 FFF7FEFF 		bl	__aeabi_fcmpgt
 2806              	.LVL278:
 2807 01da 98B1     		cbz	r0, .L255
 2808              	.LVL279:
 2809              	.LBB122:
 2810              	.LBB123:
 2811              		.loc 1 142 0
 2812 01dc 0021     		movs	r1, #0
 2813 01de 4846     		mov	r0, r9
 2814 01e0 FFF7FEFF 		bl	__aeabi_fcmpeq
 2815              	.LVL280:
 2816 01e4 0028     		cmp	r0, #0
 2817 01e6 40F04B81 		bne	.L272
 2818              		.loc 1 143 0
 2819 01ea 4846     		mov	r0, r9
 2820 01ec 0021     		movs	r1, #0
 2821 01ee FFF7FEFF 		bl	__aeabi_fcmpgt
 2822              	.LVL281:
 2823 01f2 0028     		cmp	r0, #0
 2824 01f4 00F05081 		beq	.L286
 2825 01f8 4FF07E51 		mov	r1, #1065353216
 2826              	.LVL282:
 2827              	.LBE123:
 2828              	.LBE122:
 2829              		.loc 1 1096 0
 2830 01fc 4046     		mov	r0, r8
 2831 01fe FFF7FEFF 		bl	__aeabi_fmul
 2832              	.LVL283:
 2833 0202 0646     		mov	r6, r0
 2834              	.LVL284:
 2835              	.L255:
 2836              		.loc 1 1099 0
 2837 0204 3846     		mov	r0, r7
 2838 0206 FFF7FEFF 		bl	__aeabi_f2d
 2839              	.LVL285:
 2840 020a CDE90001 		strd	r0, [sp]
 2841 020e 0299     		ldr	r1, [sp, #8]	@ float
 2842 0210 0698     		ldr	r0, [sp, #24]	@ float
 2843 0212 FFF7FEFF 		bl	__aeabi_fmul
 2844              	.LVL286:
 2845 0216 3146     		mov	r1, r6
 2846 0218 FFF7FEFF 		bl	__aeabi_fsub
 2847              	.LVL287:
 2848 021c FFF7FEFF 		bl	__aeabi_f2d
 2849              	.LVL288:
 2850 0220 2DA3     		adr	r3, .L295+8
ARM GAS  /var/folders/6q/x_mk5n_j3p7_c40r_2k_78980000gn/T//ccu43oO2.s 			page 51


 2851 0222 D3E90023 		ldrd	r2, [r3]
 2852 0226 8046     		mov	r8, r0
 2853 0228 8946     		mov	r9, r1
 2854 022a DDE90001 		ldrd	r0, [sp]
 2855 022e FFF7FEFF 		bl	__aeabi_dadd
 2856              	.LVL289:
 2857 0232 0246     		mov	r2, r0
 2858 0234 0B46     		mov	r3, r1
 2859 0236 4046     		mov	r0, r8
 2860 0238 4946     		mov	r1, r9
 2861 023a FFF7FEFF 		bl	__aeabi_ddiv
 2862              	.LVL290:
 2863 023e FFF7FEFF 		bl	__aeabi_d2f
 2864              	.LVL291:
 2865 0242 8046     		mov	r8, r0
 2866              	.LVL292:
 2867              		.loc 1 1100 0
 2868 0244 3046     		mov	r0, r6
 2869              	.LVL293:
 2870 0246 FFF7FEFF 		bl	__aeabi_f2d
 2871              	.LVL294:
 2872 024a DDE90423 		ldrd	r2, [sp, #16]
 2873 024e FFF7FEFF 		bl	__aeabi_dadd
 2874              	.LVL295:
 2875 0252 DDE90023 		ldrd	r2, [sp]
 2876 0256 01F10047 		add	r7, r1, #-2147483648
 2877 025a 3946     		mov	r1, r7
 2878 025c FFF7FEFF 		bl	__aeabi_ddiv
 2879              	.LVL296:
 2880 0260 FFF7FEFF 		bl	__aeabi_d2f
 2881              	.LVL297:
 2882              		.loc 1 1103 0
 2883 0264 5146     		mov	r1, r10
 2884              		.loc 1 1100 0
 2885 0266 0646     		mov	r6, r0
 2886              	.LVL298:
 2887              		.loc 1 1103 0
 2888 0268 4FF07E50 		mov	r0, #1065353216
 2889              	.LVL299:
 2890 026c FFF7FEFF 		bl	__aeabi_fsub
 2891              	.LVL300:
 2892 0270 4146     		mov	r1, r8
 2893 0272 FFF7FEFF 		bl	__aeabi_fmul
 2894              	.LVL301:
 2895              		.loc 1 1106 0
 2896 0276 2946     		mov	r1, r5
 2897              		.loc 1 1103 0
 2898 0278 0746     		mov	r7, r0
 2899              	.LVL302:
 2900              		.loc 1 1106 0
 2901 027a 4FF07E50 		mov	r0, #1065353216
 2902 027e FFF7FEFF 		bl	__aeabi_fsub
 2903              	.LVL303:
 2904 0282 3146     		mov	r1, r6
 2905 0284 FFF7FEFF 		bl	__aeabi_fmul
 2906              	.LVL304:
 2907 0288 2946     		mov	r1, r5
ARM GAS  /var/folders/6q/x_mk5n_j3p7_c40r_2k_78980000gn/T//ccu43oO2.s 			page 52


 2908 028a 8146     		mov	r9, r0
 2909 028c 3846     		mov	r0, r7
 2910 028e FFF7FEFF 		bl	__aeabi_fmul
 2911              	.LVL305:
 2912 0292 0146     		mov	r1, r0
 2913 0294 4846     		mov	r0, r9
 2914 0296 FFF7FEFF 		bl	__aeabi_fadd
 2915              	.LVL306:
 2916 029a 5146     		mov	r1, r10
 2917 029c 8146     		mov	r9, r0
 2918 029e 2846     		mov	r0, r5
 2919 02a0 FFF7FEFF 		bl	__aeabi_fmul
 2920              	.LVL307:
 2921 02a4 0146     		mov	r1, r0
 2922 02a6 4FF07E50 		mov	r0, #1065353216
 2923 02aa FFF7FEFF 		bl	__aeabi_fsub
 2924              	.LVL308:
 2925 02ae 0146     		mov	r1, r0
 2926 02b0 4846     		mov	r0, r9
 2927 02b2 FFF7FEFF 		bl	__aeabi_fdiv
 2928              	.LVL309:
 2929 02b6 0299     		ldr	r1, [sp, #8]	@ float
 2930 02b8 FFF7FEFF 		bl	__aeabi_fmul
 2931              	.LVL310:
 2932 02bc 0021     		movs	r1, #0
 2933 02be FFF7FEFF 		bl	__aeabi_fcmplt
 2934              	.LVL311:
 2935 02c2 0028     		cmp	r0, #0
 2936 02c4 40F0A580 		bne	.L292
 2937 02c8 1AE0     		b	.L296
 2938              	.L297:
 2939 02ca 00BFAFF3 		.align	3
 2939      0080
 2940              	.L295:
 2941 02d0 00000000 		.word	0
 2942 02d4 00C05F40 		.word	1080016896
 2943 02d8 33333333 		.word	858993459
 2944 02dc 3333D33F 		.word	1070805811
 2945 02e0 B7600BB6 		.word	-1240768329
 2946 02e4 00C08F44 		.word	1150271488
 2947 02e8 3BAAB83F 		.word	1069066811
 2948 02ec 0000FCC2 		.word	-1023672320
 2949 02f0 518CF242 		.word	1123191889
 2950 02f4 F8F59A40 		.word	1083897336
 2951 02f8 FED2DD41 		.word	1105056510
 2952 02fc 8DBCBE3F 		.word	1069464717
 2953              	.L296:
 2954              	.L259:
 2955              	.LVL312:
 2956              		.loc 1 1129 0
 2957 0300 5946     		mov	r1, fp
 2958 0302 4046     		mov	r0, r8
 2959 0304 FFF7FEFF 		bl	__aeabi_fmul
 2960              	.LVL313:
 2961 0308 3146     		mov	r1, r6
 2962 030a 0546     		mov	r5, r0
 2963 030c 0398     		ldr	r0, [sp, #12]	@ float
ARM GAS  /var/folders/6q/x_mk5n_j3p7_c40r_2k_78980000gn/T//ccu43oO2.s 			page 53


 2964 030e FFF7FEFF 		bl	__aeabi_fmul
 2965              	.LVL314:
 2966 0312 0146     		mov	r1, r0
 2967 0314 2846     		mov	r0, r5
 2968 0316 FFF7FEFF 		bl	__aeabi_fadd
 2969              	.LVL315:
 2970 031a 0546     		mov	r5, r0
 2971              	.LVL316:
 2972              		.loc 1 1135 0
 2973 031c 606D     		ldr	r0, [r4, #84]	@ float
 2974              	.LVL317:
 2975              		.loc 1 1132 0
 2976 031e 2565     		str	r5, [r4, #80]	@ float
 2977              		.loc 1 1135 0
 2978 0320 FFF7FEFF 		bl	__aeabi_f2d
 2979              	.LVL318:
 2980 0324 60A3     		adr	r3, .L298
 2981 0326 D3E90023 		ldrd	r2, [r3]
 2982 032a FFF7FEFF 		bl	__aeabi_dmul
 2983              	.LVL319:
 2984 032e 0646     		mov	r6, r0
 2985              	.LVL320:
 2986 0330 2846     		mov	r0, r5
 2987 0332 0F46     		mov	r7, r1
 2988 0334 FFF7FEFF 		bl	__aeabi_f2d
 2989              	.LVL321:
 2990 0338 5DA3     		adr	r3, .L298+8
 2991 033a D3E90023 		ldrd	r2, [r3]
 2992 033e FFF7FEFF 		bl	__aeabi_dmul
 2993              	.LVL322:
 2994 0342 0246     		mov	r2, r0
 2995 0344 0B46     		mov	r3, r1
 2996 0346 3046     		mov	r0, r6
 2997 0348 3946     		mov	r1, r7
 2998 034a FFF7FEFF 		bl	__aeabi_dadd
 2999              	.LVL323:
 3000 034e FFF7FEFF 		bl	__aeabi_d2f
 3001              	.LVL324:
 3002              		.loc 1 1138 0
 3003 0352 25F00046 		bic	r6, r5, #-2147483648
 3004              		.loc 1 1135 0
 3005 0356 6065     		str	r0, [r4, #84]	@ float
 3006              		.loc 1 1138 0
 3007 0358 A16D     		ldr	r1, [r4, #88]	@ float
 3008 035a 3046     		mov	r0, r6
 3009 035c FFF7FEFF 		bl	__aeabi_fcmpgt
 3010              	.LVL325:
 3011 0360 00B1     		cbz	r0, .L287
 3012              		.loc 1 1139 0
 3013 0362 A665     		str	r6, [r4, #88]	@ float
 3014              	.L287:
 3015              		.loc 1 1142 0
 3016 0364 2846     		mov	r0, r5
 3017 0366 09B0     		add	sp, sp, #36
 3018              		.cfi_remember_state
 3019              		.cfi_def_cfa_offset 36
 3020              		@ sp needed
ARM GAS  /var/folders/6q/x_mk5n_j3p7_c40r_2k_78980000gn/T//ccu43oO2.s 			page 54


 3021 0368 BDE8F08F 		pop	{r4, r5, r6, r7, r8, r9, r10, fp, pc}
 3022              	.LVL326:
 3023              	.L239:
 3024              		.cfi_restore_state
 3025              		.loc 1 1074 0
 3026 036c 2846     		mov	r0, r5
 3027 036e FFF7FEFF 		bl	__aeabi_i2f
 3028              	.LVL327:
 3029              	.LBB126:
 3030              	.LBB127:
 3031              		.loc 1 142 0
 3032 0372 0021     		movs	r1, #0
 3033              	.LBE127:
 3034              	.LBE126:
 3035              		.loc 1 1074 0
 3036 0374 0546     		mov	r5, r0
 3037              	.LVL328:
 3038              	.LBB130:
 3039              	.LBB128:
 3040              		.loc 1 142 0
 3041 0376 FFF7FEFF 		bl	__aeabi_fcmpeq
 3042              	.LVL329:
 3043 037a 98B1     		cbz	r0, .L293
 3044 037c 4FF07E59 		mov	r9, #1065353216
 3045 0380 4FF0000B 		mov	fp, #0
 3046              	.LVL330:
 3047              	.L241:
 3048              	.LBE128:
 3049              	.LBE130:
 3050              		.loc 1 1081 0
 3051 0384 D4F83080 		ldr	r8, [r4, #48]	@ float
 3052              	.LVL331:
 3053              	.LBB131:
 3054              	.LBB132:
 3055              		.loc 1 142 0
 3056 0388 0021     		movs	r1, #0
 3057 038a 4046     		mov	r0, r8
 3058 038c FFF7FEFF 		bl	__aeabi_fcmpeq
 3059              	.LVL332:
 3060 0390 20B3     		cbz	r0, .L294
 3061 0392 0023     		movs	r3, #0
 3062 0394 0022     		movs	r2, #0
 3063 0396 CDE90423 		strd	r2, [sp, #16]
 3064 039a 0023     		movs	r3, #0
 3065 039c 0293     		str	r3, [sp, #8]	@ float
 3066              	.L247:
 3067              	.LVL333:
 3068              	.LBE132:
 3069              	.LBE131:
 3070 039e CDF80C90 		str	r9, [sp, #12]	@ float
 3071 03a2 72E6     		b	.L246
 3072              	.LVL334:
 3073              	.L293:
 3074              	.LBB135:
 3075              	.LBB129:
 3076              		.loc 1 143 0
 3077 03a4 2846     		mov	r0, r5
ARM GAS  /var/folders/6q/x_mk5n_j3p7_c40r_2k_78980000gn/T//ccu43oO2.s 			page 55


 3078 03a6 0021     		movs	r1, #0
 3079 03a8 FFF7FEFF 		bl	__aeabi_fcmpgt
 3080              	.LVL335:
 3081 03ac 0028     		cmp	r0, #0
 3082 03ae 14BF     		ite	ne
 3083 03b0 7F25     		movne	r5, #127
 3084              	.LVL336:
 3085 03b2 6FF07E05 		mvneq	r5, #126
 3086              	.LVL337:
 3087              	.LBE129:
 3088              	.LBE135:
 3089              		.loc 1 1052 0
 3090 03b6 4FF00009 		mov	r9, #0
 3091 03ba 4FF07E5B 		mov	fp, #1065353216
 3092 03be 50E6     		b	.L240
 3093              	.LVL338:
 3094              	.L289:
 3095              	.LBB136:
 3096              	.LBB85:
 3097              		.loc 1 143 0
 3098 03c0 2846     		mov	r0, r5
 3099 03c2 0021     		movs	r1, #0
 3100 03c4 FFF7FEFF 		bl	__aeabi_fcmpgt
 3101              	.LVL339:
 3102 03c8 0022     		movs	r2, #0
 3103 03ca 0028     		cmp	r0, #0
 3104 03cc 66D0     		beq	.L282
 3105 03ce 3A4B     		ldr	r3, .L298+16
 3106 03d0 CDE90423 		strd	r2, [sp, #16]
 3107 03d4 4FF07E53 		mov	r3, #1065353216
 3108 03d8 0293     		str	r3, [sp, #8]	@ float
 3109 03da 52E6     		b	.L244
 3110              	.LVL340:
 3111              	.L294:
 3112              	.LBE85:
 3113              	.LBE136:
 3114              	.LBB137:
 3115              	.LBB133:
 3116 03dc 0021     		movs	r1, #0
 3117 03de 4046     		mov	r0, r8
 3118 03e0 FFF7FEFF 		bl	__aeabi_fcmpgt
 3119              	.LVL341:
 3120 03e4 0022     		movs	r2, #0
 3121 03e6 0028     		cmp	r0, #0
 3122 03e8 50D0     		beq	.L283
 3123 03ea 334B     		ldr	r3, .L298+16
 3124 03ec CDE90423 		strd	r2, [sp, #16]
 3125 03f0 4FF07E53 		mov	r3, #1065353216
 3126 03f4 0293     		str	r3, [sp, #8]	@ float
 3127 03f6 D2E7     		b	.L247
 3128              	.LVL342:
 3129              	.L271:
 3130              	.LBE133:
 3131              	.LBE137:
 3132              	.LBB138:
 3133              	.LBB117:
 3134              	.LBB113:
ARM GAS  /var/folders/6q/x_mk5n_j3p7_c40r_2k_78980000gn/T//ccu43oO2.s 			page 56


 3135              	.LBB109:
 3136              		.loc 2 62 0
 3137 03f8 DFF8C090 		ldr	r9, .L298+20
 3138 03fc 0023     		movs	r3, #0
 3139 03fe BFE6     		b	.L254
 3140              	.LVL343:
 3141              	.L269:
 3142              	.LBE109:
 3143              	.LBE113:
 3144              	.LBE117:
 3145              	.LBE138:
 3146              	.LBB139:
 3147              	.LBB101:
 3148              	.LBB98:
 3149              	.LBB94:
 3150 0400 2E4B     		ldr	r3, .L298+20
 3151 0402 0022     		movs	r2, #0
 3152 0404 74E6     		b	.L251
 3153              	.LVL344:
 3154              	.L291:
 3155              	.LBE94:
 3156              	.LBE98:
 3157              	.LBE101:
 3158              	.LBE139:
 3159              	.LBB140:
 3160              	.LBB118:
 3161              	.LBB114:
 3162              	.LBB110:
 3163              		.loc 2 61 0
 3164 0406 4FF07E56 		mov	r6, #1065353216
 3165              	.LVL345:
 3166 040a A2E6     		b	.L252
 3167              	.LVL346:
 3168              	.L290:
 3169              	.LBE110:
 3170              	.LBE114:
 3171              	.LBE118:
 3172              	.LBE140:
 3173              	.LBB141:
 3174              	.LBB102:
 3175              	.LBB99:
 3176              	.LBB95:
 3177 040c 4FF07E5A 		mov	r10, #1065353216
 3178 0410 57E6     		b	.L249
 3179              	.LVL347:
 3180              	.L292:
 3181              	.LBE95:
 3182              	.LBE99:
 3183              	.LBE102:
 3184              	.LBE141:
 3185              	.LBB142:
 3186              	.LBB143:
 3187              	.LBB144:
 3188              	.LBB145:
 3189              		.loc 2 74 0
 3190 0412 3846     		mov	r0, r7
 3191 0414 3146     		mov	r1, r6
ARM GAS  /var/folders/6q/x_mk5n_j3p7_c40r_2k_78980000gn/T//ccu43oO2.s 			page 57


 3192 0416 FFF7FEFF 		bl	__aeabi_fsub
 3193              	.LVL348:
 3194 041a 06F10045 		add	r5, r6, #-2147483648
 3195 041e 0146     		mov	r1, r0
 3196 0420 2846     		mov	r0, r5
 3197 0422 FFF7FEFF 		bl	__aeabi_fdiv
 3198              	.LVL349:
 3199 0426 C0F31605 		ubfx	r5, r0, #0, #23
 3200              		.loc 2 75 0
 3201 042a FFF7FEFF 		bl	__aeabi_ui2f
 3202              	.LVL350:
 3203              	.LBE145:
 3204              	.LBE144:
 3205              	.LBE143:
 3206              	.LBE142:
 3207              		.loc 1 1117 0
 3208 042e 4FF05051 		mov	r1, #872415232
 3209 0432 FFF7FEFF 		bl	__aeabi_fmul
 3210              	.LVL351:
 3211 0436 2249     		ldr	r1, .L298+24
 3212 0438 FFF7FEFF 		bl	__aeabi_fsub
 3213              	.LVL352:
 3214              	.LBB149:
 3215              	.LBB148:
 3216              	.LBB147:
 3217              	.LBB146:
 3218              		.loc 2 74 0
 3219 043c 45F07C55 		orr	r5, r5, #1056964608
 3220              	.LVL353:
 3221              	.LBE146:
 3222              	.LBE147:
 3223              	.LBE148:
 3224              	.LBE149:
 3225              		.loc 1 1117 0
 3226 0440 0746     		mov	r7, r0
 3227              	.LVL354:
 3228 0442 2049     		ldr	r1, .L298+28
 3229 0444 2846     		mov	r0, r5
 3230 0446 FFF7FEFF 		bl	__aeabi_fmul
 3231              	.LVL355:
 3232 044a 0146     		mov	r1, r0
 3233 044c 3846     		mov	r0, r7
 3234 044e FFF7FEFF 		bl	__aeabi_fsub
 3235              	.LVL356:
 3236 0452 1D49     		ldr	r1, .L298+32
 3237 0454 0746     		mov	r7, r0
 3238 0456 2846     		mov	r0, r5
 3239 0458 FFF7FEFF 		bl	__aeabi_fadd
 3240              	.LVL357:
 3241 045c 0146     		mov	r1, r0
 3242 045e 1B48     		ldr	r0, .L298+36
 3243 0460 FFF7FEFF 		bl	__aeabi_fdiv
 3244              	.LVL358:
 3245 0464 0146     		mov	r1, r0
 3246 0466 3846     		mov	r0, r7
 3247 0468 FFF7FEFF 		bl	__aeabi_fsub
 3248              	.LVL359:
ARM GAS  /var/folders/6q/x_mk5n_j3p7_c40r_2k_78980000gn/T//ccu43oO2.s 			page 58


 3249 046c 1849     		ldr	r1, .L298+40
 3250 046e FFF7FEFF 		bl	__aeabi_fmul
 3251              	.LVL360:
 3252 0472 0799     		ldr	r1, [sp, #28]	@ float
 3253 0474 00F10040 		add	r0, r0, #-2147483648
 3254 0478 FFF7FEFF 		bl	__aeabi_fdiv
 3255              	.LVL361:
 3256 047c 0390     		str	r0, [sp, #12]	@ float
 3257              	.LVL362:
 3258 047e 3FE7     		b	.L259
 3259              	.LVL363:
 3260              	.L272:
 3261              	.LBB150:
 3262              	.LBB124:
 3263              		.loc 1 142 0
 3264 0480 0021     		movs	r1, #0
 3265              	.L257:
 3266              	.LVL364:
 3267              	.LBE124:
 3268              	.LBE150:
 3269              		.loc 1 1096 0
 3270 0482 4046     		mov	r0, r8
 3271 0484 FFF7FEFF 		bl	__aeabi_fmul
 3272              	.LVL365:
 3273 0488 0646     		mov	r6, r0
 3274              	.LVL366:
 3275 048a BBE6     		b	.L255
 3276              	.LVL367:
 3277              	.L283:
 3278              	.LBB151:
 3279              	.LBB134:
 3280              		.loc 1 143 0
 3281 048c 114B     		ldr	r3, .L298+44
 3282 048e CDE90423 		strd	r2, [sp, #16]
 3283 0492 114B     		ldr	r3, .L298+48
 3284 0494 0293     		str	r3, [sp, #8]	@ float
 3285 0496 82E7     		b	.L247
 3286              	.LVL368:
 3287              	.L286:
 3288              	.LBE134:
 3289              	.LBE151:
 3290              	.LBB152:
 3291              	.LBB125:
 3292 0498 0F49     		ldr	r1, .L298+48
 3293 049a F2E7     		b	.L257
 3294              	.LVL369:
 3295              	.L282:
 3296              	.LBE125:
 3297              	.LBE152:
 3298              	.LBB153:
 3299              	.LBB86:
 3300 049c 0D4B     		ldr	r3, .L298+44
 3301 049e CDE90423 		strd	r2, [sp, #16]
 3302 04a2 0D4B     		ldr	r3, .L298+48
 3303 04a4 0293     		str	r3, [sp, #8]	@ float
 3304 04a6 ECE5     		b	.L244
 3305              	.L299:
ARM GAS  /var/folders/6q/x_mk5n_j3p7_c40r_2k_78980000gn/T//ccu43oO2.s 			page 59


 3306              		.align	3
 3307              	.L298:
 3308 04a8 9A999999 		.word	2576980378
 3309 04ac 9999E93F 		.word	1072273817
 3310 04b0 9A999999 		.word	2576980378
 3311 04b4 9999C93F 		.word	1070176665
 3312 04b8 0000E83F 		.word	1072168960
 3313 04bc F03A97C0 		.word	-1063830800
 3314 04c0 7773F842 		.word	1123578743
 3315 04c4 75BFBF3F 		.word	1069530997
 3316 04c8 F944B43E 		.word	1052001529
 3317 04cc A3E9DC3F 		.word	1071442339
 3318 04d0 1872313F 		.word	1060205080
 3319 04d4 0000E8BF 		.word	-1075314688
 3320 04d8 000080BF 		.word	-1082130432
 3321              	.LBE86:
 3322              	.LBE153:
 3323              		.cfi_endproc
 3324              	.LFE98:
 3325              		.size	SmartMotorCurrent, .-SmartMotorCurrent
 3326              		.section	.text.SmartMotorControllerCurrent,"ax",%progbits
 3327              		.align	2
 3328              		.p2align 4,,15
 3329              		.global	SmartMotorControllerCurrent
 3330              		.thumb
 3331              		.thumb_func
 3332              		.type	SmartMotorControllerCurrent, %function
 3333              	SmartMotorControllerCurrent:
 3334              	.LFB99:
 3335              		.loc 1 1154 0
 3336              		.cfi_startproc
 3337              		@ args = 0, pretend = 0, frame = 0
 3338              		@ frame_needed = 0, uses_anonymous_args = 0
 3339              	.LVL370:
 3340 0000 F8B5     		push	{r3, r4, r5, r6, r7, lr}
 3341              		.cfi_def_cfa_offset 24
 3342              		.cfi_offset 3, -24
 3343              		.cfi_offset 4, -20
 3344              		.cfi_offset 5, -16
 3345              		.cfi_offset 6, -12
 3346              		.cfi_offset 7, -8
 3347              		.cfi_offset 14, -4
 3348              		.loc 1 1157 0
 3349 0002 0023     		movs	r3, #0
 3350              		.loc 1 1154 0
 3351 0004 0646     		mov	r6, r0
 3352              		.loc 1 1157 0
 3353 0006 1D46     		mov	r5, r3
 3354 0008 4361     		str	r3, [r0, #20]	@ float
 3355              	.LVL371:
 3356 000a 041F     		subs	r4, r0, #4
 3357 000c 00F11007 		add	r7, r0, #16
 3358              	.LVL372:
 3359              	.L302:
 3360              		.loc 1 1163 0
 3361 0010 54F8043F 		ldr	r3, [r4, #4]!
 3362 0014 4BB1     		cbz	r3, .L301
ARM GAS  /var/folders/6q/x_mk5n_j3p7_c40r_2k_78980000gn/T//ccu43oO2.s 			page 60


 3363              		.loc 1 1165 0
 3364 0016 9A78     		ldrb	r2, [r3, #2]	@ zero_extendqisi2
 3365 0018 3AB1     		cbz	r2, .L301
 3366              		.loc 1 1166 0
 3367 001a 196D     		ldr	r1, [r3, #80]
 3368 001c 2846     		mov	r0, r5
 3369 001e 21F00041 		bic	r1, r1, #-2147483648
 3370 0022 FFF7FEFF 		bl	__aeabi_fadd
 3371              	.LVL373:
 3372 0026 0546     		mov	r5, r0
 3373 0028 7061     		str	r0, [r6, #20]	@ float
 3374              	.L301:
 3375              		.loc 1 1161 0 discriminator 2
 3376 002a BC42     		cmp	r4, r7
 3377 002c F0D1     		bne	.L302
 3378              		.loc 1 1171 0
 3379 002e 2946     		mov	r1, r5
 3380 0030 B069     		ldr	r0, [r6, #24]	@ float
 3381 0032 FFF7FEFF 		bl	__aeabi_fcmplt
 3382              	.LVL374:
 3383 0036 00B1     		cbz	r0, .L303
 3384              		.loc 1 1172 0
 3385 0038 B561     		str	r5, [r6, #24]	@ float
 3386              	.L303:
 3387              		.loc 1 1175 0
 3388 003a 2846     		mov	r0, r5
 3389 003c F8BD     		pop	{r3, r4, r5, r6, r7, pc}
 3390              		.cfi_endproc
 3391              	.LFE99:
 3392              		.size	SmartMotorControllerCurrent, .-SmartMotorControllerCurrent
 3393              		.global	__aeabi_fcmpge
 3394              		.global	__aeabi_d2iz
 3395              		.global	__aeabi_fcmple
 3396              		.global	__aeabi_dsub
 3397 003e 00BF     		.section	.text.SmartMotorSafeCommand,"ax",%progbits
 3398              		.align	2
 3399              		.p2align 4,,15
 3400              		.global	SmartMotorSafeCommand
 3401              		.thumb
 3402              		.thumb_func
 3403              		.type	SmartMotorSafeCommand, %function
 3404              	SmartMotorSafeCommand:
 3405              	.LFB100:
 3406              		.loc 1 1200 0
 3407              		.cfi_startproc
 3408              		@ args = 0, pretend = 0, frame = 0
 3409              		@ frame_needed = 0, uses_anonymous_args = 0
 3410              	.LVL375:
 3411 0000 2DE9F047 		push	{r4, r5, r6, r7, r8, r9, r10, lr}
 3412              		.cfi_def_cfa_offset 32
 3413              		.cfi_offset 4, -32
 3414              		.cfi_offset 5, -28
 3415              		.cfi_offset 6, -24
 3416              		.cfi_offset 7, -20
 3417              		.cfi_offset 8, -16
 3418              		.cfi_offset 9, -12
 3419              		.cfi_offset 10, -8
ARM GAS  /var/folders/6q/x_mk5n_j3p7_c40r_2k_78980000gn/T//ccu43oO2.s 			page 61


 3420              		.cfi_offset 14, -4
 3421              		.loc 1 1200 0
 3422 0004 0546     		mov	r5, r0
 3423              		.loc 1 1202 0
 3424 0006 90F90000 		ldrsb	r0, [r0]
 3425              	.LVL376:
 3426              		.loc 1 1200 0
 3427 000a 0C46     		mov	r4, r1
 3428              		.loc 1 1202 0
 3429 000c FFF7FEFF 		bl	vexMotorGet
 3430              	.LVL377:
 3431              		.loc 1 1206 0
 3432 0010 0028     		cmp	r0, #0
 3433 0012 5FDB     		blt	.L315
 3434              		.loc 1 1208 0
 3435 0014 D5F83080 		ldr	r8, [r5, #48]	@ float
 3436 0018 0021     		movs	r1, #0
 3437 001a 4046     		mov	r0, r8
 3438              	.LVL378:
 3439 001c FFF7FEFF 		bl	__aeabi_fcmpge
 3440              	.LVL379:
 3441 0020 0028     		cmp	r0, #0
 3442 0022 00F0A880 		beq	.L331
 3443              		.loc 1 1209 0
 3444 0026 E86B     		ldr	r0, [r5, #60]	@ float
 3445 0028 FFF7FEFF 		bl	__aeabi_f2d
 3446              	.LVL380:
 3447 002c 54A3     		adr	r3, .L333
 3448 002e D3E90023 		ldrd	r2, [r3]
 3449 0032 FFF7FEFF 		bl	__aeabi_dadd
 3450              	.LVL381:
 3451 0036 D5F860A0 		ldr	r10, [r5, #96]	@ float
 3452 003a 0646     		mov	r6, r0
 3453 003c 5046     		mov	r0, r10
 3454 003e 0F46     		mov	r7, r1
 3455 0040 FFF7FEFF 		bl	__aeabi_f2d
 3456              	.LVL382:
 3457 0044 0246     		mov	r2, r0
 3458 0046 0B46     		mov	r3, r1
 3459 0048 3046     		mov	r0, r6
 3460 004a 3946     		mov	r1, r7
 3461 004c FFF7FEFF 		bl	__aeabi_dmul
 3462              	.LVL383:
 3463 0050 0646     		mov	r6, r0
 3464 0052 0F46     		mov	r7, r1
 3465 0054 4046     		mov	r0, r8
 3466 0056 696C     		ldr	r1, [r5, #68]	@ float
 3467 0058 FFF7FEFF 		bl	__aeabi_fmul
 3468              	.LVL384:
 3469 005c FFF7FEFF 		bl	__aeabi_f2d
 3470              	.LVL385:
 3471 0060 0246     		mov	r2, r0
 3472 0062 0B46     		mov	r3, r1
 3473 0064 3046     		mov	r0, r6
 3474 0066 3946     		mov	r1, r7
 3475 0068 FFF7FEFF 		bl	__aeabi_dadd
 3476              	.LVL386:
ARM GAS  /var/folders/6q/x_mk5n_j3p7_c40r_2k_78980000gn/T//ccu43oO2.s 			page 62


 3477 006c 0022     		movs	r2, #0
 3478 006e 484B     		ldr	r3, .L333+16
 3479 0070 FFF7FEFF 		bl	__aeabi_dadd
 3480              	.LVL387:
 3481 0074 44A3     		adr	r3, .L333+8
 3482 0076 D3E90023 		ldrd	r2, [r3]
 3483 007a FFF7FEFF 		bl	__aeabi_dmul
 3484              	.LVL388:
 3485 007e 0646     		mov	r6, r0
 3486 0080 2046     		mov	r0, r4
 3487 0082 0F46     		mov	r7, r1
 3488 0084 FFF7FEFF 		bl	__aeabi_f2d
 3489              	.LVL389:
 3490 0088 0022     		movs	r2, #0
 3491 008a 414B     		ldr	r3, .L333+16
 3492 008c FFF7FEFF 		bl	__aeabi_dadd
 3493              	.LVL390:
 3494 0090 0246     		mov	r2, r0
 3495 0092 0B46     		mov	r3, r1
 3496 0094 3046     		mov	r0, r6
 3497 0096 3946     		mov	r1, r7
 3498 0098 FFF7FEFF 		bl	__aeabi_ddiv
 3499              	.LVL391:
 3500 009c FFF7FEFF 		bl	__aeabi_d2iz
 3501              	.LVL392:
 3502              		.loc 1 1215 0
 3503 00a0 7F28     		cmp	r0, #127
 3504 00a2 A8BF     		it	ge
 3505 00a4 7F20     		movge	r0, #127
 3506              	.LVL393:
 3507 00a6 0446     		mov	r4, r0
 3508              	.LVL394:
 3509              	.L318:
 3510              		.loc 1 1230 0
 3511 00a8 5046     		mov	r0, r10
 3512 00aa 0021     		movs	r1, #0
 3513 00ac FFF7FEFF 		bl	__aeabi_fcmpeq
 3514              	.LVL395:
 3515              		.loc 1 1234 0
 3516 00b0 2B78     		ldrb	r3, [r5]	@ zero_extendqisi2
 3517              		.loc 1 1230 0
 3518 00b2 0028     		cmp	r0, #0
 3519              		.loc 1 1234 0
 3520 00b4 03F1FF33 		add	r3, r3, #-1
 3521              		.loc 1 1231 0
 3522 00b8 18BF     		it	ne
 3523 00ba 0024     		movne	r4, #0
 3524              	.LVL396:
 3525              		.loc 1 1234 0
 3526 00bc 072B     		cmp	r3, #7
 3527 00be 06D8     		bhi	.L322
 3528              		.loc 1 1235 0
 3529 00c0 5A23     		movs	r3, #90
 3530 00c2 03FB04F4 		mul	r4, r3, r4
 3531              	.LVL397:
 3532 00c6 002C     		cmp	r4, #0
 3533 00c8 B8BF     		it	lt
ARM GAS  /var/folders/6q/x_mk5n_j3p7_c40r_2k_78980000gn/T//ccu43oO2.s 			page 63


 3534 00ca 7F34     		addlt	r4, r4, #127
 3535 00cc E411     		asrs	r4, r4, #7
 3536              	.LVL398:
 3537              	.L322:
 3538              		.loc 1 1238 0
 3539 00ce 2046     		mov	r0, r4
 3540 00d0 BDE8F087 		pop	{r4, r5, r6, r7, r8, r9, r10, pc}
 3541              	.LVL399:
 3542              	.L315:
 3543              		.loc 1 1219 0
 3544 00d4 2E6B     		ldr	r6, [r5, #48]	@ float
 3545 00d6 0021     		movs	r1, #0
 3546 00d8 3046     		mov	r0, r6
 3547              	.LVL400:
 3548 00da FFF7FEFF 		bl	__aeabi_fcmple
 3549              	.LVL401:
 3550 00de 20B9     		cbnz	r0, .L332
 3551 00e0 2B6E     		ldr	r3, [r5, #96]	@ float
 3552              		.loc 1 1222 0
 3553 00e2 6FF07E04 		mvn	r4, #126
 3554              	.LVL402:
 3555              	.L319:
 3556 00e6 9A46     		mov	r10, r3
 3557 00e8 DEE7     		b	.L318
 3558              	.LVL403:
 3559              	.L332:
 3560              		.loc 1 1220 0
 3561 00ea 3046     		mov	r0, r6
 3562 00ec 696C     		ldr	r1, [r5, #68]	@ float
 3563 00ee FFF7FEFF 		bl	__aeabi_fmul
 3564              	.LVL404:
 3565 00f2 FFF7FEFF 		bl	__aeabi_f2d
 3566              	.LVL405:
 3567 00f6 0646     		mov	r6, r0
 3568 00f8 E86B     		ldr	r0, [r5, #60]	@ float
 3569 00fa 0F46     		mov	r7, r1
 3570 00fc FFF7FEFF 		bl	__aeabi_f2d
 3571              	.LVL406:
 3572 0100 1FA3     		adr	r3, .L333
 3573 0102 D3E90023 		ldrd	r2, [r3]
 3574 0106 FFF7FEFF 		bl	__aeabi_dadd
 3575              	.LVL407:
 3576 010a D5F860A0 		ldr	r10, [r5, #96]	@ float
 3577 010e 8046     		mov	r8, r0
 3578 0110 5046     		mov	r0, r10
 3579 0112 8946     		mov	r9, r1
 3580 0114 FFF7FEFF 		bl	__aeabi_f2d
 3581              	.LVL408:
 3582 0118 0246     		mov	r2, r0
 3583 011a 0B46     		mov	r3, r1
 3584 011c 4046     		mov	r0, r8
 3585 011e 4946     		mov	r1, r9
 3586 0120 FFF7FEFF 		bl	__aeabi_dmul
 3587              	.LVL409:
 3588 0124 0246     		mov	r2, r0
 3589 0126 0B46     		mov	r3, r1
 3590 0128 3046     		mov	r0, r6
ARM GAS  /var/folders/6q/x_mk5n_j3p7_c40r_2k_78980000gn/T//ccu43oO2.s 			page 64


 3591 012a 3946     		mov	r1, r7
 3592 012c FFF7FEFF 		bl	__aeabi_dsub
 3593              	.LVL410:
 3594 0130 0022     		movs	r2, #0
 3595 0132 174B     		ldr	r3, .L333+16
 3596 0134 FFF7FEFF 		bl	__aeabi_dsub
 3597              	.LVL411:
 3598 0138 13A3     		adr	r3, .L333+8
 3599 013a D3E90023 		ldrd	r2, [r3]
 3600 013e FFF7FEFF 		bl	__aeabi_dmul
 3601              	.LVL412:
 3602 0142 0646     		mov	r6, r0
 3603 0144 2046     		mov	r0, r4
 3604 0146 0F46     		mov	r7, r1
 3605 0148 FFF7FEFF 		bl	__aeabi_f2d
 3606              	.LVL413:
 3607 014c 0022     		movs	r2, #0
 3608 014e 104B     		ldr	r3, .L333+16
 3609 0150 FFF7FEFF 		bl	__aeabi_dadd
 3610              	.LVL414:
 3611 0154 0B46     		mov	r3, r1
 3612 0156 0246     		mov	r2, r0
 3613 0158 3946     		mov	r1, r7
 3614 015a 3046     		mov	r0, r6
 3615 015c FFF7FEFF 		bl	__aeabi_ddiv
 3616              	.LVL415:
 3617 0160 FFF7FEFF 		bl	__aeabi_d2iz
 3618              	.LVL416:
 3619              		.loc 1 1225 0
 3620 0164 10F17F0F 		cmn	r0, #127
 3621              		.loc 1 1220 0
 3622 0168 0446     		mov	r4, r0
 3623              	.LVL417:
 3624 016a 5346     		mov	r3, r10
 3625              		.loc 1 1226 0
 3626 016c B8BF     		it	lt
 3627 016e 6FF07E04 		mvnlt	r4, #126
 3628              		.loc 1 1225 0
 3629 0172 99DB     		blt	.L318
 3630 0174 B7E7     		b	.L319
 3631              	.LVL418:
 3632              	.L331:
 3633 0176 D5F860A0 		ldr	r10, [r5, #96]	@ float
 3634              		.loc 1 1211 0
 3635 017a 7F24     		movs	r4, #127
 3636              	.LVL419:
 3637 017c 94E7     		b	.L318
 3638              	.L334:
 3639 017e 00BF     		.align	3
 3640              	.L333:
 3641 0180 33333333 		.word	858993459
 3642 0184 3333D33F 		.word	1070805811
 3643 0188 00000000 		.word	0
 3644 018c 00C05F40 		.word	1080016896
 3645 0190 0000E83F 		.word	1072168960
 3646              		.cfi_endproc
 3647              	.LFE100:
ARM GAS  /var/folders/6q/x_mk5n_j3p7_c40r_2k_78980000gn/T//ccu43oO2.s 			page 65


 3648              		.size	SmartMotorSafeCommand, .-SmartMotorSafeCommand
 3649              		.section	.text.SmartMotorTemperature,"ax",%progbits
 3650              		.align	2
 3651              		.p2align 4,,15
 3652              		.global	SmartMotorTemperature
 3653              		.thumb
 3654              		.thumb_func
 3655              		.type	SmartMotorTemperature, %function
 3656              	SmartMotorTemperature:
 3657              	.LFB101:
 3658              		.loc 1 1251 0
 3659              		.cfi_startproc
 3660              		@ args = 0, pretend = 0, frame = 0
 3661              		@ frame_needed = 0, uses_anonymous_args = 0
 3662              	.LVL420:
 3663 0000 F8B5     		push	{r3, r4, r5, r6, r7, lr}
 3664              		.cfi_def_cfa_offset 24
 3665              		.cfi_offset 3, -24
 3666              		.cfi_offset 4, -20
 3667              		.cfi_offset 5, -16
 3668              		.cfi_offset 6, -12
 3669              		.cfi_offset 7, -8
 3670              		.cfi_offset 14, -4
 3671              		.loc 1 1251 0
 3672 0002 0446     		mov	r4, r0
 3673              		.loc 1 1254 0
 3674 0004 036D     		ldr	r3, [r0, #80]	@ float
 3675              		.loc 1 1251 0
 3676 0006 0F46     		mov	r7, r1
 3677              		.loc 1 1256 0
 3678 0008 1846     		mov	r0, r3
 3679              	.LVL421:
 3680 000a 1946     		mov	r1, r3
 3681              	.LVL422:
 3682 000c FFF7FEFF 		bl	__aeabi_fmul
 3683              	.LVL423:
 3684 0010 A16E     		ldr	r1, [r4, #104]	@ float
 3685 0012 FFF7FEFF 		bl	__aeabi_fmul
 3686              	.LVL424:
 3687              		.loc 1 1254 0
 3688 0016 656E     		ldr	r5, [r4, #100]	@ float
 3689              	.LVL425:
 3690              		.loc 1 1256 0
 3691 0018 0646     		mov	r6, r0
 3692 001a 216F     		ldr	r1, [r4, #112]	@ float
 3693 001c 2846     		mov	r0, r5
 3694 001e FFF7FEFF 		bl	__aeabi_fsub
 3695              	.LVL426:
 3696 0022 0146     		mov	r1, r0
 3697 0024 3046     		mov	r0, r6
 3698 0026 FFF7FEFF 		bl	__aeabi_fsub
 3699              	.LVL427:
 3700 002a E16E     		ldr	r1, [r4, #108]	@ float
 3701 002c FFF7FEFF 		bl	__aeabi_fmul
 3702              	.LVL428:
 3703 0030 0646     		mov	r6, r0
 3704 0032 3846     		mov	r0, r7
ARM GAS  /var/folders/6q/x_mk5n_j3p7_c40r_2k_78980000gn/T//ccu43oO2.s 			page 66


 3705 0034 FFF7FEFF 		bl	__aeabi_i2f
 3706              	.LVL429:
 3707 0038 0146     		mov	r1, r0
 3708 003a 3046     		mov	r0, r6
 3709 003c FFF7FEFF 		bl	__aeabi_fmul
 3710              	.LVL430:
 3711 0040 2946     		mov	r1, r5
 3712 0042 FFF7FEFF 		bl	__aeabi_fadd
 3713              	.LVL431:
 3714 0046 6066     		str	r0, [r4, #100]	@ float
 3715              		.loc 1 1259 0
 3716 0048 F8BD     		pop	{r3, r4, r5, r6, r7, pc}
 3717              		.cfi_endproc
 3718              	.LFE101:
 3719              		.size	SmartMotorTemperature, .-SmartMotorTemperature
 3720 004a 00BF     		.section	.text.SmartMotorControllerTemperature,"ax",%progbits
 3721              		.align	2
 3722              		.p2align 4,,15
 3723              		.global	SmartMotorControllerTemperature
 3724              		.thumb
 3725              		.thumb_func
 3726              		.type	SmartMotorControllerTemperature, %function
 3727              	SmartMotorControllerTemperature:
 3728              	.LFB102:
 3729              		.loc 1 1272 0
 3730              		.cfi_startproc
 3731              		@ args = 0, pretend = 0, frame = 0
 3732              		@ frame_needed = 0, uses_anonymous_args = 0
 3733              	.LVL432:
 3734 0000 F8B5     		push	{r3, r4, r5, r6, r7, lr}
 3735              		.cfi_def_cfa_offset 24
 3736              		.cfi_offset 3, -24
 3737              		.cfi_offset 4, -20
 3738              		.cfi_offset 5, -16
 3739              		.cfi_offset 6, -12
 3740              		.cfi_offset 7, -8
 3741              		.cfi_offset 14, -4
 3742              		.loc 1 1272 0
 3743 0002 0446     		mov	r4, r0
 3744              		.loc 1 1275 0
 3745 0004 4369     		ldr	r3, [r0, #20]	@ float
 3746              		.loc 1 1272 0
 3747 0006 0F46     		mov	r7, r1
 3748              		.loc 1 1277 0
 3749 0008 1846     		mov	r0, r3
 3750              	.LVL433:
 3751 000a 1946     		mov	r1, r3
 3752              	.LVL434:
 3753 000c FFF7FEFF 		bl	__aeabi_fmul
 3754              	.LVL435:
 3755 0010 616A     		ldr	r1, [r4, #36]	@ float
 3756 0012 FFF7FEFF 		bl	__aeabi_fmul
 3757              	.LVL436:
 3758              		.loc 1 1275 0
 3759 0016 256A     		ldr	r5, [r4, #32]	@ float
 3760              	.LVL437:
 3761              		.loc 1 1277 0
ARM GAS  /var/folders/6q/x_mk5n_j3p7_c40r_2k_78980000gn/T//ccu43oO2.s 			page 67


 3762 0018 0646     		mov	r6, r0
 3763 001a E16A     		ldr	r1, [r4, #44]	@ float
 3764 001c 2846     		mov	r0, r5
 3765 001e FFF7FEFF 		bl	__aeabi_fsub
 3766              	.LVL438:
 3767 0022 0146     		mov	r1, r0
 3768 0024 3046     		mov	r0, r6
 3769 0026 FFF7FEFF 		bl	__aeabi_fsub
 3770              	.LVL439:
 3771 002a A16A     		ldr	r1, [r4, #40]	@ float
 3772 002c FFF7FEFF 		bl	__aeabi_fmul
 3773              	.LVL440:
 3774 0030 0646     		mov	r6, r0
 3775 0032 3846     		mov	r0, r7
 3776 0034 FFF7FEFF 		bl	__aeabi_i2f
 3777              	.LVL441:
 3778 0038 0146     		mov	r1, r0
 3779 003a 3046     		mov	r0, r6
 3780 003c FFF7FEFF 		bl	__aeabi_fmul
 3781              	.LVL442:
 3782 0040 2946     		mov	r1, r5
 3783 0042 FFF7FEFF 		bl	__aeabi_fadd
 3784              	.LVL443:
 3785 0046 2062     		str	r0, [r4, #32]	@ float
 3786              		.loc 1 1280 0
 3787 0048 F8BD     		pop	{r3, r4, r5, r6, r7, pc}
 3788              		.cfi_endproc
 3789              	.LFE102:
 3790              		.size	SmartMotorControllerTemperature, .-SmartMotorControllerTemperature
 3791 004a 00BF     		.section	.text.SmartMotorMonitorPtc,"ax",%progbits
 3792              		.align	2
 3793              		.p2align 4,,15
 3794              		.global	SmartMotorMonitorPtc
 3795              		.thumb
 3796              		.thumb_func
 3797              		.type	SmartMotorMonitorPtc, %function
 3798              	SmartMotorMonitorPtc:
 3799              	.LFB103:
 3800              		.loc 1 1295 0
 3801              		.cfi_startproc
 3802              		@ args = 0, pretend = 0, frame = 0
 3803              		@ frame_needed = 0, uses_anonymous_args = 0
 3804              	.LVL444:
 3805 0000 38B5     		push	{r3, r4, r5, lr}
 3806              		.cfi_def_cfa_offset 16
 3807              		.cfi_offset 3, -16
 3808              		.cfi_offset 4, -12
 3809              		.cfi_offset 5, -8
 3810              		.cfi_offset 14, -4
 3811              		.loc 1 1296 0
 3812 0002 B0F97430 		ldrsh	r3, [r0, #116]
 3813              		.loc 1 1295 0
 3814 0006 0446     		mov	r4, r0
 3815 0008 0D46     		mov	r5, r1
 3816              		.loc 1 1296 0
 3817 000a 93B9     		cbnz	r3, .L340
 3818              		.loc 1 1297 0
ARM GAS  /var/folders/6q/x_mk5n_j3p7_c40r_2k_78980000gn/T//ccu43oO2.s 			page 68


 3819 000c 1549     		ldr	r1, .L357
 3820              	.LVL445:
 3821 000e 406E     		ldr	r0, [r0, #100]	@ float
 3822              	.LVL446:
 3823 0010 FFF7FEFF 		bl	__aeabi_fcmpgt
 3824              	.LVL447:
 3825 0014 B0B1     		cbz	r0, .L341
 3826              		.loc 1 1298 0
 3827 0016 0123     		movs	r3, #1
 3828 0018 A4F87430 		strh	r3, [r4, #116]	@ movhi
 3829              	.L343:
 3830              		.loc 1 1308 0
 3831 001c A368     		ldr	r3, [r4, #8]
 3832 001e CBB1     		cbz	r3, .L348
 3833              		.loc 1 1310 0
 3834 0020 B3F93030 		ldrsh	r3, [r3, #48]
 3835 0024 ABB9     		cbnz	r3, .L339
 3836              	.L356:
 3837              		.loc 1 1315 0
 3838 0026 B4F97430 		ldrsh	r3, [r4, #116]
 3839 002a 9BB9     		cbnz	r3, .L348
 3840              	.L346:
 3841              		.loc 1 1326 0
 3842 002c FF23     		movs	r3, #255
 3843 002e A382     		strh	r3, [r4, #20]	@ movhi
 3844 0030 38BD     		pop	{r3, r4, r5, pc}
 3845              	.LVL448:
 3846              	.L340:
 3847              		.loc 1 1302 0
 3848 0032 0D49     		ldr	r1, .L357+4
 3849              	.LVL449:
 3850 0034 406E     		ldr	r0, [r0, #100]	@ float
 3851              	.LVL450:
 3852 0036 FFF7FEFF 		bl	__aeabi_fcmplt
 3853              	.LVL451:
 3854 003a 0028     		cmp	r0, #0
 3855 003c EED0     		beq	.L343
 3856              		.loc 1 1303 0
 3857 003e 0023     		movs	r3, #0
 3858 0040 A4F87430 		strh	r3, [r4, #116]	@ movhi
 3859              	.L341:
 3860              		.loc 1 1308 0
 3861 0044 A368     		ldr	r3, [r4, #8]
 3862 0046 002B     		cmp	r3, #0
 3863 0048 F0D0     		beq	.L346
 3864              		.loc 1 1310 0
 3865 004a B3F93030 		ldrsh	r3, [r3, #48]
 3866 004e 002B     		cmp	r3, #0
 3867 0050 E9D0     		beq	.L356
 3868              	.L339:
 3869 0052 38BD     		pop	{r3, r4, r5, pc}
 3870              	.LVL452:
 3871              	.L348:
 3872              	.LBB156:
 3873              	.LBB157:
 3874              		.loc 1 1319 0
 3875 0054 E36D     		ldr	r3, [r4, #92]	@ float
ARM GAS  /var/folders/6q/x_mk5n_j3p7_c40r_2k_78980000gn/T//ccu43oO2.s 			page 69


 3876              		.loc 1 1321 0
 3877 0056 2946     		mov	r1, r5
 3878              		.loc 1 1319 0
 3879 0058 2366     		str	r3, [r4, #96]	@ float
 3880              		.loc 1 1321 0
 3881 005a 2046     		mov	r0, r4
 3882 005c FFF7FEFF 		bl	SmartMotorSafeCommand
 3883              	.LVL453:
 3884 0060 A082     		strh	r0, [r4, #20]	@ movhi
 3885 0062 38BD     		pop	{r3, r4, r5, pc}
 3886              	.LVL454:
 3887              	.L358:
 3888              		.align	2
 3889              	.L357:
 3890 0064 0000C842 		.word	1120403456
 3891 0068 0000B442 		.word	1119092736
 3892              	.LBE157:
 3893              	.LBE156:
 3894              		.cfi_endproc
 3895              	.LFE103:
 3896              		.size	SmartMotorMonitorPtc, .-SmartMotorMonitorPtc
 3897              		.global	__aeabi_dcmpgt
 3898              		.section	.text.SmartMotorControllerMonitorPtc,"ax",%progbits
 3899              		.align	2
 3900              		.p2align 4,,15
 3901              		.global	SmartMotorControllerMonitorPtc
 3902              		.thumb
 3903              		.thumb_func
 3904              		.type	SmartMotorControllerMonitorPtc, %function
 3905              	SmartMotorControllerMonitorPtc:
 3906              	.LFB104:
 3907              		.loc 1 1344 0
 3908              		.cfi_startproc
 3909              		@ args = 0, pretend = 0, frame = 0
 3910              		@ frame_needed = 0, uses_anonymous_args = 0
 3911              	.LVL455:
 3912 0000 2DE9F843 		push	{r3, r4, r5, r6, r7, r8, r9, lr}
 3913              		.cfi_def_cfa_offset 32
 3914              		.cfi_offset 3, -32
 3915              		.cfi_offset 4, -28
 3916              		.cfi_offset 5, -24
 3917              		.cfi_offset 6, -20
 3918              		.cfi_offset 7, -16
 3919              		.cfi_offset 8, -12
 3920              		.cfi_offset 9, -8
 3921              		.cfi_offset 14, -4
 3922              		.loc 1 1348 0
 3923 0004 B0F93030 		ldrsh	r3, [r0, #48]
 3924              		.loc 1 1344 0
 3925 0008 0746     		mov	r7, r0
 3926 000a 8846     		mov	r8, r1
 3927              		.loc 1 1348 0
 3928 000c 002B     		cmp	r3, #0
 3929 000e 44D1     		bne	.L360
 3930              		.loc 1 1349 0
 3931 0010 2B49     		ldr	r1, .L391+8
 3932              	.LVL456:
ARM GAS  /var/folders/6q/x_mk5n_j3p7_c40r_2k_78980000gn/T//ccu43oO2.s 			page 70


 3933 0012 006A     		ldr	r0, [r0, #32]	@ float
 3934              	.LVL457:
 3935 0014 FFF7FEFF 		bl	__aeabi_fcmpgt
 3936              	.LVL458:
 3937 0018 0028     		cmp	r0, #0
 3938 001a 3CD0     		beq	.L359
 3939              		.loc 1 1350 0
 3940 001c 0123     		movs	r3, #1
 3941 001e 3B86     		strh	r3, [r7, #48]	@ movhi
 3942              	.L363:
 3943 0020 3D1F     		subs	r5, r7, #4
 3944              		.loc 1 1344 0
 3945 0022 2C46     		mov	r4, r5
 3946 0024 07F11006 		add	r6, r7, #16
 3947 0028 4FF00009 		mov	r9, #0
 3948              	.L367:
 3949              	.LVL459:
 3950              	.LBB162:
 3951              	.LBB163:
 3952              	.LBB164:
 3953              		.loc 1 1368 0
 3954 002c 54F8043F 		ldr	r3, [r4, #4]!
 3955              	.LVL460:
 3956              		.loc 1 1369 0
 3957 0030 63B1     		cbz	r3, .L365
 3958              		.loc 1 1371 0
 3959 0032 186D     		ldr	r0, [r3, #80]
 3960 0034 20F00040 		bic	r0, r0, #-2147483648
 3961 0038 FFF7FEFF 		bl	__aeabi_f2d
 3962              	.LVL461:
 3963 003c 1EA3     		adr	r3, .L391
 3964 003e D3E90023 		ldrd	r2, [r3]
 3965 0042 FFF7FEFF 		bl	__aeabi_dcmpgt
 3966              	.LVL462:
 3967 0046 08B1     		cbz	r0, .L365
 3968              		.loc 1 1372 0
 3969 0048 09F10109 		add	r9, r9, #1
 3970              	.LVL463:
 3971              	.L365:
 3972              		.loc 1 1366 0
 3973 004c B442     		cmp	r4, r6
 3974 004e EDD1     		bne	.L367
 3975              		.loc 1 1377 0
 3976 0050 B9F1000F 		cmp	r9, #0
 3977 0054 2BD0     		beq	.L374
 3978 0056 4846     		mov	r0, r9
 3979 0058 FFF7FEFF 		bl	__aeabi_i2f
 3980              	.LVL464:
 3981 005c 0146     		mov	r1, r0
 3982              	.L368:
 3983              	.LVL465:
 3984              		.loc 1 1381 0
 3985 005e F869     		ldr	r0, [r7, #28]	@ float
 3986 0060 FFF7FEFF 		bl	__aeabi_fdiv
 3987              	.LVL466:
 3988 0064 0746     		mov	r7, r0
 3989              	.LVL467:
ARM GAS  /var/folders/6q/x_mk5n_j3p7_c40r_2k_78980000gn/T//ccu43oO2.s 			page 71


 3990              	.L373:
 3991              		.loc 1 1385 0
 3992 0066 55F8044F 		ldr	r4, [r5, #4]!
 3993              	.LVL468:
 3994              		.loc 1 1386 0
 3995 006a 84B1     		cbz	r4, .L369
 3996              		.loc 1 1391 0
 3997 006c B4F97430 		ldrsh	r3, [r4, #116]
 3998 0070 03B3     		cbz	r3, .L370
 3999 0072 D4F85C90 		ldr	r9, [r4, #92]	@ float
 4000 0076 3846     		mov	r0, r7
 4001 0078 4946     		mov	r1, r9
 4002 007a FFF7FEFF 		bl	__aeabi_fcmpgt
 4003              	.LVL469:
 4004 007e C8B1     		cbz	r0, .L370
 4005              		.loc 1 1392 0
 4006 0080 C4F86090 		str	r9, [r4, #96]	@ float
 4007              	.L372:
 4008              		.loc 1 1396 0
 4009 0084 4146     		mov	r1, r8
 4010 0086 2046     		mov	r0, r4
 4011 0088 FFF7FEFF 		bl	SmartMotorSafeCommand
 4012              	.LVL470:
 4013 008c A082     		strh	r0, [r4, #20]	@ movhi
 4014              	.L369:
 4015              		.loc 1 1383 0
 4016 008e B542     		cmp	r5, r6
 4017 0090 E9D1     		bne	.L373
 4018 0092 BDE8F883 		pop	{r3, r4, r5, r6, r7, r8, r9, pc}
 4019              	.LVL471:
 4020              	.L359:
 4021 0096 BDE8F883 		pop	{r3, r4, r5, r6, r7, r8, r9, pc}
 4022              	.LVL472:
 4023              	.L360:
 4024              	.LBE164:
 4025              	.LBE163:
 4026              	.LBE162:
 4027              		.loc 1 1354 0
 4028 009a 0A49     		ldr	r1, .L391+12
 4029              	.LVL473:
 4030 009c 006A     		ldr	r0, [r0, #32]	@ float
 4031              	.LVL474:
 4032 009e FFF7FEFF 		bl	__aeabi_fcmplt
 4033              	.LVL475:
 4034 00a2 0028     		cmp	r0, #0
 4035 00a4 BCD0     		beq	.L363
 4036              		.loc 1 1355 0
 4037 00a6 0023     		movs	r3, #0
 4038 00a8 3B86     		strh	r3, [r7, #48]	@ movhi
 4039 00aa BDE8F883 		pop	{r3, r4, r5, r6, r7, r8, r9, pc}
 4040              	.LVL476:
 4041              	.L374:
 4042              	.LBB167:
 4043              	.LBB166:
 4044              	.LBB165:
 4045              		.loc 1 1377 0
 4046 00ae 4FF07E51 		mov	r1, #1065353216
ARM GAS  /var/folders/6q/x_mk5n_j3p7_c40r_2k_78980000gn/T//ccu43oO2.s 			page 72


 4047 00b2 D4E7     		b	.L368
 4048              	.LVL477:
 4049              	.L370:
 4050              		.loc 1 1394 0
 4051 00b4 2766     		str	r7, [r4, #96]	@ float
 4052 00b6 E5E7     		b	.L372
 4053              	.L392:
 4054              		.align	3
 4055              	.L391:
 4056 00b8 9A999999 		.word	2576980378
 4057 00bc 9999B93F 		.word	1069128089
 4058 00c0 0000C842 		.word	1120403456
 4059 00c4 0000B442 		.word	1119092736
 4060              	.LBE165:
 4061              	.LBE166:
 4062              	.LBE167:
 4063              		.cfi_endproc
 4064              	.LFE104:
 4065              		.size	SmartMotorControllerMonitorPtc, .-SmartMotorControllerMonitorPtc
 4066              		.global	__aeabi_dcmplt
 4067              		.section	.text.SmartMotorMonitorCurrent,"ax",%progbits
 4068              		.align	2
 4069              		.p2align 4,,15
 4070              		.global	SmartMotorMonitorCurrent
 4071              		.thumb
 4072              		.thumb_func
 4073              		.type	SmartMotorMonitorCurrent, %function
 4074              	SmartMotorMonitorCurrent:
 4075              	.LFB105:
 4076              		.loc 1 1411 0
 4077              		.cfi_startproc
 4078              		@ args = 0, pretend = 0, frame = 0
 4079              		@ frame_needed = 0, uses_anonymous_args = 0
 4080              	.LVL478:
 4081 0000 2DE97043 		push	{r4, r5, r6, r8, r9, lr}
 4082              		.cfi_def_cfa_offset 24
 4083              		.cfi_offset 4, -24
 4084              		.cfi_offset 5, -20
 4085              		.cfi_offset 6, -16
 4086              		.cfi_offset 8, -12
 4087              		.cfi_offset 9, -8
 4088              		.cfi_offset 14, -4
 4089              		.loc 1 1418 0
 4090 0004 B0F91230 		ldrsh	r3, [r0, #18]
 4091              		.loc 1 1412 0
 4092 0008 8569     		ldr	r5, [r0, #24]	@ float
 4093              		.loc 1 1411 0
 4094 000a 0446     		mov	r4, r0
 4095 000c 0E46     		mov	r6, r1
 4096              		.loc 1 1412 0
 4097 000e 0566     		str	r5, [r0, #96]	@ float
 4098              		.loc 1 1418 0
 4099 0010 7BB9     		cbnz	r3, .L394
 4100              		.loc 1 1419 0
 4101 0012 416D     		ldr	r1, [r0, #84]
 4102              	.LVL479:
 4103 0014 2846     		mov	r0, r5
ARM GAS  /var/folders/6q/x_mk5n_j3p7_c40r_2k_78980000gn/T//ccu43oO2.s 			page 73


 4104              	.LVL480:
 4105 0016 21F00041 		bic	r1, r1, #-2147483648
 4106 001a FFF7FEFF 		bl	__aeabi_fcmplt
 4107              	.LVL481:
 4108 001e 08B3     		cbz	r0, .L395
 4109              		.loc 1 1420 0
 4110 0020 0123     		movs	r3, #1
 4111 0022 6382     		strh	r3, [r4, #18]	@ movhi
 4112              	.L397:
 4113              	.LVL482:
 4114              	.LBB170:
 4115              	.LBB171:
 4116              		.loc 1 1429 0
 4117 0024 3146     		mov	r1, r6
 4118 0026 2046     		mov	r0, r4
 4119 0028 FFF7FEFF 		bl	SmartMotorSafeCommand
 4120              	.LVL483:
 4121 002c A082     		strh	r0, [r4, #20]	@ movhi
 4122 002e BDE87083 		pop	{r4, r5, r6, r8, r9, pc}
 4123              	.LVL484:
 4124              	.L394:
 4125              	.LBE171:
 4126              	.LBE170:
 4127              		.loc 1 1423 0
 4128 0032 406D     		ldr	r0, [r0, #84]
 4129              	.LVL485:
 4130 0034 20F00040 		bic	r0, r0, #-2147483648
 4131 0038 FFF7FEFF 		bl	__aeabi_f2d
 4132              	.LVL486:
 4133 003c 8046     		mov	r8, r0
 4134 003e 2846     		mov	r0, r5
 4135 0040 8946     		mov	r9, r1
 4136 0042 FFF7FEFF 		bl	__aeabi_f2d
 4137              	.LVL487:
 4138 0046 0AA3     		adr	r3, .L403
 4139 0048 D3E90023 		ldrd	r2, [r3]
 4140 004c FFF7FEFF 		bl	__aeabi_dmul
 4141              	.LVL488:
 4142 0050 0246     		mov	r2, r0
 4143 0052 0B46     		mov	r3, r1
 4144 0054 4046     		mov	r0, r8
 4145 0056 4946     		mov	r1, r9
 4146 0058 FFF7FEFF 		bl	__aeabi_dcmplt
 4147              	.LVL489:
 4148 005c 0028     		cmp	r0, #0
 4149 005e E1D0     		beq	.L397
 4150              		.loc 1 1424 0
 4151 0060 0023     		movs	r3, #0
 4152 0062 6382     		strh	r3, [r4, #18]	@ movhi
 4153              	.L395:
 4154              		.loc 1 1431 0
 4155 0064 FF23     		movs	r3, #255
 4156 0066 A382     		strh	r3, [r4, #20]	@ movhi
 4157 0068 BDE87083 		pop	{r4, r5, r6, r8, r9, pc}
 4158              	.LVL490:
 4159              	.L404:
 4160 006c AFF30080 		.align	3
ARM GAS  /var/folders/6q/x_mk5n_j3p7_c40r_2k_78980000gn/T//ccu43oO2.s 			page 74


 4161              	.L403:
 4162 0070 CDCCCCCC 		.word	3435973837
 4163 0074 CCCCEC3F 		.word	1072483532
 4164              		.cfi_endproc
 4165              	.LFE105:
 4166              		.size	SmartMotorMonitorCurrent, .-SmartMotorMonitorCurrent
 4167              		.section	.text.SmartMotorControllerSetLed,"ax",%progbits
 4168              		.align	2
 4169              		.p2align 4,,15
 4170              		.global	SmartMotorControllerSetLed
 4171              		.thumb
 4172              		.thumb_func
 4173              		.type	SmartMotorControllerSetLed, %function
 4174              	SmartMotorControllerSetLed:
 4175              	.LFB106:
 4176              		.loc 1 1450 0
 4177              		.cfi_startproc
 4178              		@ args = 0, pretend = 0, frame = 0
 4179              		@ frame_needed = 0, uses_anonymous_args = 0
 4180              		@ link register save eliminated.
 4181              	.LVL491:
 4182 0000 70B4     		push	{r4, r5, r6}
 4183              		.cfi_def_cfa_offset 12
 4184              		.cfi_offset 4, -12
 4185              		.cfi_offset 5, -8
 4186              		.cfi_offset 6, -4
 4187              		.loc 1 1455 0
 4188 0002 90F93260 		ldrsb	r6, [r0, #50]
 4189 0006 002E     		cmp	r6, #0
 4190 0008 10DB     		blt	.L405
 4191              		.loc 1 1458 0
 4192 000a B0F93040 		ldrsh	r4, [r0, #48]
 4193              	.LVL492:
 4194 000e 021F     		subs	r2, r0, #4
 4195 0010 00F11001 		add	r1, r0, #16
 4196              	.LVL493:
 4197              	.L408:
 4198              		.loc 1 1462 0
 4199 0014 52F8043F 		ldr	r3, [r2, #4]!
 4200              	.LVL494:
 4201              		.loc 1 1464 0
 4202 0018 2BB1     		cbz	r3, .L407
 4203              		.loc 1 1465 0
 4204 001a B3F97450 		ldrsh	r5, [r3, #116]
 4205 001e B3F91230 		ldrsh	r3, [r3, #18]
 4206              	.LVL495:
 4207 0022 2B44     		add	r3, r3, r5
 4208 0024 1C44     		add	r4, r4, r3
 4209              	.LVL496:
 4210              	.L407:
 4211              		.loc 1 1460 0 discriminator 2
 4212 0026 8A42     		cmp	r2, r1
 4213 0028 F4D1     		bne	.L408
 4214              		.loc 1 1468 0
 4215 002a 0CB9     		cbnz	r4, .L417
 4216              	.LVL497:
 4217              	.L405:
ARM GAS  /var/folders/6q/x_mk5n_j3p7_c40r_2k_78980000gn/T//ccu43oO2.s 			page 75


 4218              		.loc 1 1470 0
 4219 002c 70BC     		pop	{r4, r5, r6}
 4220              		.cfi_remember_state
 4221              		.cfi_restore 6
 4222              		.cfi_restore 5
 4223              		.cfi_restore 4
 4224              		.cfi_def_cfa_offset 0
 4225 002e 7047     		bx	lr
 4226              	.LVL498:
 4227              	.L417:
 4228              		.cfi_restore_state
 4229              		.loc 1 1469 0
 4230 0030 3046     		mov	r0, r6
 4231              	.LVL499:
 4232              		.loc 1 1470 0
 4233 0032 70BC     		pop	{r4, r5, r6}
 4234              		.cfi_restore 6
 4235              		.cfi_restore 5
 4236              		.cfi_restore 4
 4237              		.cfi_def_cfa_offset 0
 4238              	.LVL500:
 4239              		.loc 1 1469 0
 4240 0034 0021     		movs	r1, #0
 4241              	.LVL501:
 4242 0036 FFF7FEBF 		b	vexDigitalPinSet
 4243              	.LVL502:
 4244              		.cfi_endproc
 4245              	.LFE106:
 4246              		.size	SmartMotorControllerSetLed, .-SmartMotorControllerSetLed
 4247 003a 00BF     		.section	.text.SmartMotorTask,"ax",%progbits
 4248              		.align	2
 4249              		.p2align 4,,15
 4250              		.global	SmartMotorTask
 4251              		.thumb
 4252              		.thumb_func
 4253              		.type	SmartMotorTask, %function
 4254              	SmartMotorTask:
 4255              	.LFB107:
 4256              		.loc 1 1483 0
 4257              		.cfi_startproc
 4258              		@ args = 0, pretend = 0, frame = 8
 4259              		@ frame_needed = 0, uses_anonymous_args = 0
 4260              	.LVL503:
 4261 0000 2DE9F04F 		push	{r4, r5, r6, r7, r8, r9, r10, fp, lr}
 4262              		.cfi_def_cfa_offset 36
 4263              		.cfi_offset 4, -36
 4264              		.cfi_offset 5, -32
 4265              		.cfi_offset 6, -28
 4266              		.cfi_offset 7, -24
 4267              		.cfi_offset 8, -20
 4268              		.cfi_offset 9, -16
 4269              		.cfi_offset 10, -12
 4270              		.cfi_offset 11, -8
 4271              		.cfi_offset 14, -4
 4272              		.loc 1 1495 0
 4273 0004 9C4F     		ldr	r7, .L459+8
 4274              		.loc 1 1483 0
ARM GAS  /var/folders/6q/x_mk5n_j3p7_c40r_2k_78980000gn/T//ccu43oO2.s 			page 76


 4275 0006 83B0     		sub	sp, sp, #12
 4276              		.cfi_def_cfa_offset 48
 4277              		.loc 1 1493 0
 4278 0008 0121     		movs	r1, #1
 4279 000a 9C48     		ldr	r0, .L459+12
 4280              	.LVL504:
 4281 000c FFF7FEFF 		bl	vexTaskRegisterPersistant
 4282              	.LVL505:
 4283              		.loc 1 1495 0
 4284 0010 BB69     		ldr	r3, [r7, #24]
 4285 0012 5B7F     		ldrb	r3, [r3, #29]	@ zero_extendqisi2
 4286 0014 03F00403 		and	r3, r3, #4
 4287 0018 002B     		cmp	r3, #0
 4288 001a 40F01E81 		bne	.L453
 4289 001e 03F0FF06 		and	r6, r3, #255
 4290 0022 DFF87CA2 		ldr	r10, .L459+48
 4291 0026 07E0     		b	.L436
 4292              	.LVL506:
 4293              	.L427:
 4294              	.LBB183:
 4295              		.loc 1 1591 0
 4296 0028 0A20     		movs	r0, #10
 4297 002a FFF7FEFF 		bl	vexSleep
 4298              	.LVL507:
 4299              	.LBE183:
 4300              		.loc 1 1495 0
 4301 002e BB69     		ldr	r3, [r7, #24]
 4302 0030 5B7F     		ldrb	r3, [r3, #29]	@ zero_extendqisi2
 4303 0032 5B07     		lsls	r3, r3, #29
 4304 0034 00F11181 		bmi	.L453
 4305              	.LVL508:
 4306              	.L436:
 4307              	.LBB199:
 4308              		.loc 1 1502 0
 4309 0038 FFF7FEFF 		bl	vexSpiGetMainBattery
 4310              	.LVL509:
 4311 003c FFF7FEFF 		bl	__aeabi_i2d
 4312              	.LVL510:
 4313 0040 0022     		movs	r2, #0
 4314 0042 8F4B     		ldr	r3, .L459+16
 4315 0044 FFF7FEFF 		bl	__aeabi_ddiv
 4316              	.LVL511:
 4317 0048 FFF7FEFF 		bl	__aeabi_d2f
 4318              	.LVL512:
 4319              		.loc 1 1507 0
 4320 004c 7501     		lsls	r5, r6, #5
 4321 004e 8D4B     		ldr	r3, .L459+20
 4322 0050 AC1B     		subs	r4, r5, r6
 4323 0052 03EB8404 		add	r4, r3, r4, lsl #2
 4324 0056 8C4B     		ldr	r3, .L459+24
 4325              		.loc 1 1508 0
 4326 0058 8B4A     		ldr	r2, .L459+24
 4327              		.loc 1 1507 0
 4328 005a A16F     		ldr	r1, [r4, #120]
 4329              		.loc 1 1502 0
 4330 005c 8046     		mov	r8, r0
 4331              	.LVL513:
ARM GAS  /var/folders/6q/x_mk5n_j3p7_c40r_2k_78980000gn/T//ccu43oO2.s 			page 77


 4332              		.loc 1 1507 0
 4333 005e D868     		ldr	r0, [r3, #12]
 4334              	.LVL514:
 4335              		.loc 1 1508 0
 4336 0060 D268     		ldr	r2, [r2, #12]
 4337              		.loc 1 1512 0
 4338 0062 A378     		ldrb	r3, [r4, #2]	@ zero_extendqisi2
 4339              		.loc 1 1507 0
 4340 0064 411A     		subs	r1, r0, r1
 4341 0066 CAF80010 		str	r1, [r10]
 4342              		.loc 1 1509 0
 4343 006a A180     		strh	r1, [r4, #4]	@ movhi
 4344              		.loc 1 1508 0
 4345 006c A267     		str	r2, [r4, #120]
 4346              		.loc 1 1512 0
 4347 006e 002B     		cmp	r3, #0
 4348 0070 42D0     		beq	.L421
 4349              		.loc 1 1514 0
 4350 0072 B4F91C00 		ldrsh	r0, [r4, #28]
 4351 0076 0028     		cmp	r0, #0
 4352 0078 C0F2F380 		blt	.L422
 4353              		.loc 1 1516 0
 4354 007c B0F5006F 		cmp	r0, #2048
 4355 0080 80F2A480 		bge	.L423
 4356              		.loc 1 1517 0
 4357 0084 2046     		mov	r0, r4
 4358 0086 FFF7FEFF 		bl	SmartMotorSpeed
 4359              	.LVL515:
 4360              	.L424:
 4361              		.loc 1 1524 0
 4362 008a 4146     		mov	r1, r8
 4363 008c 2046     		mov	r0, r4
 4364 008e FFF7FEFF 		bl	SmartMotorCurrent
 4365              	.LVL516:
 4366              	.LBB184:
 4367              	.LBB185:
 4368              		.loc 1 1254 0
 4369 0092 7C4B     		ldr	r3, .L459+20
 4370 0094 AD1B     		subs	r5, r5, r6
 4371 0096 03EB8505 		add	r5, r3, r5, lsl #2
 4372 009a 296D     		ldr	r1, [r5, #80]	@ float
 4373 009c D5F86490 		ldr	r9, [r5, #100]	@ float
 4374              	.LVL517:
 4375              		.loc 1 1256 0
 4376 00a0 0846     		mov	r0, r1
 4377 00a2 FFF7FEFF 		bl	__aeabi_fmul
 4378              	.LVL518:
 4379 00a6 A96E     		ldr	r1, [r5, #104]	@ float
 4380 00a8 FFF7FEFF 		bl	__aeabi_fmul
 4381              	.LVL519:
 4382 00ac 296F     		ldr	r1, [r5, #112]	@ float
 4383 00ae 8346     		mov	fp, r0
 4384 00b0 4846     		mov	r0, r9
 4385 00b2 FFF7FEFF 		bl	__aeabi_fsub
 4386              	.LVL520:
 4387 00b6 0146     		mov	r1, r0
 4388 00b8 5846     		mov	r0, fp
ARM GAS  /var/folders/6q/x_mk5n_j3p7_c40r_2k_78980000gn/T//ccu43oO2.s 			page 78


 4389 00ba FFF7FEFF 		bl	__aeabi_fsub
 4390              	.LVL521:
 4391 00be E96E     		ldr	r1, [r5, #108]	@ float
 4392 00c0 FFF7FEFF 		bl	__aeabi_fmul
 4393              	.LVL522:
 4394 00c4 8346     		mov	fp, r0
 4395 00c6 DAF80000 		ldr	r0, [r10]
 4396              	.LVL523:
 4397 00ca FFF7FEFF 		bl	__aeabi_i2f
 4398              	.LVL524:
 4399 00ce 0146     		mov	r1, r0
 4400 00d0 5846     		mov	r0, fp
 4401 00d2 FFF7FEFF 		bl	__aeabi_fmul
 4402              	.LVL525:
 4403 00d6 4946     		mov	r1, r9
 4404 00d8 FFF7FEFF 		bl	__aeabi_fadd
 4405              	.LVL526:
 4406              	.LBE185:
 4407              	.LBE184:
 4408              		.loc 1 1526 0
 4409 00dc DFF8C491 		ldr	r9, .L459+52
 4410              	.LBB187:
 4411              	.LBB186:
 4412              		.loc 1 1256 0
 4413 00e0 6866     		str	r0, [r5, #100]	@ float
 4414              	.LVL527:
 4415              	.LBE186:
 4416              	.LBE187:
 4417              		.loc 1 1526 0
 4418 00e2 B9F90030 		ldrsh	r3, [r9]
 4419 00e6 002B     		cmp	r3, #0
 4420 00e8 40F0B280 		bne	.L456
 4421              	.L425:
 4422              		.loc 1 1528 0
 4423 00ec 674B     		ldr	r3, .L459+28
 4424 00ee B3F90030 		ldrsh	r3, [r3]
 4425 00f2 002B     		cmp	r3, #0
 4426 00f4 40F0A780 		bne	.L457
 4427              	.L421:
 4428              		.loc 1 1537 0
 4429 00f8 0136     		adds	r6, r6, #1
 4430              	.LVL528:
 4431 00fa 0A2E     		cmp	r6, #10
 4432 00fc 94D1     		bne	.L427
 4433 00fe 644E     		ldr	r6, .L459+32
 4434              	.LVL529:
 4435 0100 DFF8A091 		ldr	r9, .L459+52
 4436 0104 3446     		mov	r4, r6
 4437 0106 06F19C05 		add	r5, r6, #156
 4438 010a CDF80080 		str	r8, [sp]	@ float
 4439              	.LVL530:
 4440              	.L430:
 4441              	.LBB188:
 4442              	.LBB189:
 4443              		.loc 1 1548 0
 4444 010e 2046     		mov	r0, r4
 4445 0110 FFF7FEFF 		bl	SmartMotorControllerCurrent
ARM GAS  /var/folders/6q/x_mk5n_j3p7_c40r_2k_78980000gn/T//ccu43oO2.s 			page 79


 4446              	.LVL531:
 4447              	.LBB190:
 4448              	.LBB191:
 4449              		.loc 1 1275 0
 4450 0114 6169     		ldr	r1, [r4, #20]	@ float
 4451 0116 D4F820B0 		ldr	fp, [r4, #32]	@ float
 4452              	.LVL532:
 4453              		.loc 1 1277 0
 4454 011a 0846     		mov	r0, r1
 4455 011c FFF7FEFF 		bl	__aeabi_fmul
 4456              	.LVL533:
 4457 0120 616A     		ldr	r1, [r4, #36]	@ float
 4458 0122 FFF7FEFF 		bl	__aeabi_fmul
 4459              	.LVL534:
 4460 0126 E16A     		ldr	r1, [r4, #44]	@ float
 4461 0128 8046     		mov	r8, r0
 4462 012a 5846     		mov	r0, fp
 4463 012c FFF7FEFF 		bl	__aeabi_fsub
 4464              	.LVL535:
 4465 0130 0146     		mov	r1, r0
 4466 0132 4046     		mov	r0, r8
 4467 0134 FFF7FEFF 		bl	__aeabi_fsub
 4468              	.LVL536:
 4469 0138 A16A     		ldr	r1, [r4, #40]	@ float
 4470 013a FFF7FEFF 		bl	__aeabi_fmul
 4471              	.LVL537:
 4472 013e 8046     		mov	r8, r0
 4473 0140 DAF80000 		ldr	r0, [r10]
 4474              	.LVL538:
 4475 0144 FFF7FEFF 		bl	__aeabi_i2f
 4476              	.LVL539:
 4477 0148 0146     		mov	r1, r0
 4478 014a 4046     		mov	r0, r8
 4479 014c FFF7FEFF 		bl	__aeabi_fmul
 4480              	.LVL540:
 4481 0150 5946     		mov	r1, fp
 4482 0152 FFF7FEFF 		bl	__aeabi_fadd
 4483              	.LVL541:
 4484              	.LBE191:
 4485              	.LBE190:
 4486              		.loc 1 1551 0
 4487 0156 B9F90030 		ldrsh	r3, [r9]
 4488              	.LBB193:
 4489              	.LBB192:
 4490              		.loc 1 1277 0
 4491 015a 2062     		str	r0, [r4, #32]	@ float
 4492              	.LVL542:
 4493              	.LBE192:
 4494              	.LBE193:
 4495              		.loc 1 1551 0
 4496 015c 8BBB     		cbnz	r3, .L458
 4497              	.L428:
 4498              		.loc 1 1557 0
 4499 015e 94F93200 		ldrsb	r0, [r4, #50]
 4500              		.loc 1 1558 0
 4501 0162 0121     		movs	r1, #1
 4502              		.loc 1 1557 0
ARM GAS  /var/folders/6q/x_mk5n_j3p7_c40r_2k_78980000gn/T//ccu43oO2.s 			page 80


 4503 0164 0028     		cmp	r0, #0
 4504 0166 04F13404 		add	r4, r4, #52
 4505              	.LVL543:
 4506 016a 01DB     		blt	.L429
 4507              		.loc 1 1558 0
 4508 016c FFF7FEFF 		bl	vexDigitalPinSet
 4509              	.LVL544:
 4510              	.L429:
 4511              	.LBE189:
 4512              		.loc 1 1544 0 discriminator 2
 4513 0170 AC42     		cmp	r4, r5
 4514 0172 CCD1     		bne	.L430
 4515              	.L446:
 4516              	.LVL545:
 4517              	.LBB194:
 4518              		.loc 1 1565 0
 4519 0174 96F93230 		ldrsb	r3, [r6, #50]
 4520 0178 002B     		cmp	r3, #0
 4521 017a 02DB     		blt	.L431
 4522              		.loc 1 1566 0
 4523 017c 3046     		mov	r0, r6
 4524 017e FFF7FEFF 		bl	SmartMotorControllerSetLed
 4525              	.LVL546:
 4526              	.L431:
 4527 0182 3436     		adds	r6, r6, #52
 4528              	.LBE194:
 4529              		.loc 1 1562 0 discriminator 2
 4530 0184 AE42     		cmp	r6, r5
 4531 0186 F5D1     		bne	.L446
 4532              	.LVL547:
 4533              		.loc 1 1571 0
 4534 0188 414B     		ldr	r3, .L459+32
 4535 018a 93F99B00 		ldrsb	r0, [r3, #155]
 4536 018e 1C46     		mov	r4, r3
 4537              	.LVL548:
 4538 0190 0028     		cmp	r0, #0
 4539 0192 14DB     		blt	.L455
 4540              	.LBB195:
 4541              		.loc 1 1574 0
 4542 0194 FFF7FEFF 		bl	vexAdcGet
 4543              	.LVL549:
 4544              		.loc 1 1576 0
 4545 0198 FFF7FEFF 		bl	__aeabi_i2d
 4546              	.LVL550:
 4547 019c 34A3     		adr	r3, .L459
 4548 019e D3E90023 		ldrd	r2, [r3]
 4549 01a2 FFF7FEFF 		bl	__aeabi_ddiv
 4550              	.LVL551:
 4551 01a6 FFF7FEFF 		bl	__aeabi_d2f
 4552              	.LVL552:
 4553 01aa 3A49     		ldr	r1, .L459+36
 4554 01ac FFF7FEFF 		bl	__aeabi_fcmplt
 4555              	.LVL553:
 4556 01b0 28B1     		cbz	r0, .L455
 4557              		.loc 1 1579 0
 4558 01b2 394B     		ldr	r3, .L459+40
 4559 01b4 C4F88830 		str	r3, [r4, #136]	@ float
ARM GAS  /var/folders/6q/x_mk5n_j3p7_c40r_2k_78980000gn/T//ccu43oO2.s 			page 81


 4560              		.loc 1 1581 0
 4561 01b8 0023     		movs	r3, #0
 4562 01ba C4F88430 		str	r3, [r4, #132]	@ float
 4563              	.L455:
 4564              	.LBE195:
 4565              		.loc 1 1539 0
 4566 01be 0026     		movs	r6, #0
 4567 01c0 32E7     		b	.L427
 4568              	.LVL554:
 4569              	.L458:
 4570              	.LBB196:
 4571              		.loc 1 1552 0
 4572 01c2 0099     		ldr	r1, [sp]	@ float
 4573 01c4 2046     		mov	r0, r4
 4574 01c6 FFF7FEFF 		bl	SmartMotorControllerMonitorPtc
 4575              	.LVL555:
 4576 01ca C8E7     		b	.L428
 4577              	.LVL556:
 4578              	.L423:
 4579              	.LBE196:
 4580              	.LBE188:
 4581              	.LBB197:
 4582              	.LBB198:
 4583              		.loc 1 1018 0
 4584 01cc C3B2     		uxtb	r3, r0
 4585 01ce 072B     		cmp	r3, #7
 4586 01d0 3FF65BAF 		bhi	.L424
 4587              		.loc 1 1022 0
 4588 01d4 40B2     		sxtb	r0, r0
 4589 01d6 0091     		str	r1, [sp]
 4590 01d8 FFF7FEFF 		bl	vexAdcGet
 4591              	.LVL557:
 4592 01dc 8346     		mov	fp, r0
 4593              		.loc 1 1025 0
 4594 01de A06A     		ldr	r0, [r4, #40]
 4595              		.loc 1 1022 0
 4596 01e0 C4F824B0 		str	fp, [r4, #36]
 4597              		.loc 1 1025 0
 4598 01e4 C0EB0B00 		rsb	r0, r0, fp
 4599 01e8 FFF7FEFF 		bl	__aeabi_i2f
 4600              	.LVL558:
 4601 01ec 8146     		mov	r9, r0
 4602              		.loc 1 1029 0
 4603 01ee 0099     		ldr	r1, [sp]
 4604              		.loc 1 1026 0
 4605 01f0 C4F828B0 		str	fp, [r4, #40]
 4606              		.loc 1 1029 0
 4607 01f4 0846     		mov	r0, r1
 4608              		.loc 1 1025 0
 4609 01f6 C4F82C90 		str	r9, [r4, #44]	@ float
 4610              		.loc 1 1029 0
 4611 01fa FFF7FEFF 		bl	__aeabi_i2d
 4612              	.LVL559:
 4613 01fe 0246     		mov	r2, r0
 4614 0200 0B46     		mov	r3, r1
 4615 0202 0020     		movs	r0, #0
 4616 0204 1E49     		ldr	r1, .L459+16
ARM GAS  /var/folders/6q/x_mk5n_j3p7_c40r_2k_78980000gn/T//ccu43oO2.s 			page 82


 4617 0206 FFF7FEFF 		bl	__aeabi_ddiv
 4618              	.LVL560:
 4619 020a CDE90001 		strd	r0, [sp]
 4620              	.LVL561:
 4621 020e 4846     		mov	r0, r9
 4622 0210 FFF7FEFF 		bl	__aeabi_f2d
 4623              	.LVL562:
 4624 0214 0246     		mov	r2, r0
 4625 0216 0B46     		mov	r3, r1
 4626 0218 DDE90001 		ldrd	r0, [sp]
 4627 021c FFF7FEFF 		bl	__aeabi_dmul
 4628              	.LVL563:
 4629 0220 0022     		movs	r2, #0
 4630 0222 1E4B     		ldr	r3, .L459+44
 4631 0224 FFF7FEFF 		bl	__aeabi_dmul
 4632              	.LVL564:
 4633 0228 CDE90001 		strd	r0, [sp]
 4634 022c 206A     		ldr	r0, [r4, #32]	@ float
 4635 022e FFF7FEFF 		bl	__aeabi_f2d
 4636              	.LVL565:
 4637 0232 0246     		mov	r2, r0
 4638 0234 0B46     		mov	r3, r1
 4639 0236 DDE90001 		ldrd	r0, [sp]
 4640 023a FFF7FEFF 		bl	__aeabi_ddiv
 4641              	.LVL566:
 4642 023e FFF7FEFF 		bl	__aeabi_d2f
 4643              	.LVL567:
 4644 0242 2063     		str	r0, [r4, #48]	@ float
 4645 0244 21E7     		b	.L424
 4646              	.LVL568:
 4647              	.L457:
 4648              	.LBE198:
 4649              	.LBE197:
 4650              		.loc 1 1529 0
 4651 0246 2046     		mov	r0, r4
 4652 0248 4146     		mov	r1, r8
 4653 024a FFF7FEFF 		bl	SmartMotorMonitorCurrent
 4654              	.LVL569:
 4655 024e 53E7     		b	.L421
 4656              	.L456:
 4657              		.loc 1 1527 0
 4658 0250 4146     		mov	r1, r8
 4659 0252 2046     		mov	r0, r4
 4660 0254 FFF7FEFF 		bl	SmartMotorMonitorPtc
 4661              	.LVL570:
 4662 0258 48E7     		b	.L425
 4663              	.LVL571:
 4664              	.L453:
 4665              	.LBE199:
 4666              		.loc 1 1595 0
 4667 025a 0020     		movs	r0, #0
 4668 025c 03B0     		add	sp, sp, #12
 4669              		.cfi_remember_state
 4670              		.cfi_def_cfa_offset 36
 4671              		@ sp needed
 4672 025e BDE8F08F 		pop	{r4, r5, r6, r7, r8, r9, r10, fp, pc}
 4673              	.LVL572:
ARM GAS  /var/folders/6q/x_mk5n_j3p7_c40r_2k_78980000gn/T//ccu43oO2.s 			page 83


 4674              	.L422:
 4675              		.cfi_restore_state
 4676              	.LBB200:
 4677              		.loc 1 1522 0
 4678 0262 2046     		mov	r0, r4
 4679 0264 FFF7FEFF 		bl	SmartMotorSimulateSpeed
 4680              	.LVL573:
 4681 0268 0FE7     		b	.L424
 4682              	.L460:
 4683 026a 00BFAFF3 		.align	3
 4683      0080
 4684              	.L459:
 4685 0270 00000000 		.word	0
 4686 0274 00E07040 		.word	1081139200
 4687 0278 00000000 		.word	rlist
 4688 027c 98000000 		.word	.LC9
 4689 0280 00408F40 		.word	1083129856
 4690 0284 00000000 		.word	.LANCHOR0
 4691 0288 00000000 		.word	vtlist
 4692 028c 00000000 		.word	.LANCHOR2
 4693 0290 00000000 		.word	.LANCHOR3
 4694 0294 00004040 		.word	1077936128
 4695 0298 0000DC42 		.word	1121714176
 4696 029c 00004E40 		.word	1078853632
 4697 02a0 00000000 		.word	.LANCHOR5
 4698 02a4 00000000 		.word	.LANCHOR1
 4699              	.LBE200:
 4700              		.cfi_endproc
 4701              	.LFE107:
 4702              		.size	SmartMotorTask, .-SmartMotorTask
 4703              		.section	.bss.sMotors,"aw",%nobits
 4704              		.align	2
 4705              		.set	.LANCHOR0,. + 0
 4706              		.type	sMotors, %object
 4707              		.size	sMotors, 1240
 4708              	sMotors:
 4709 0000 00000000 		.space	1240
 4709      00000000 
 4709      00000000 
 4709      00000000 
 4709      00000000 
 4710              		.section	.bss.PtcLimitEnabled,"aw",%nobits
 4711              		.align	1
 4712              		.set	.LANCHOR1,. + 0
 4713              		.type	PtcLimitEnabled, %object
 4714              		.size	PtcLimitEnabled, 2
 4715              	PtcLimitEnabled:
 4716 0000 0000     		.space	2
 4717              		.section	.bss.CurrentLimitEnabled,"aw",%nobits
 4718              		.align	1
 4719              		.set	.LANCHOR2,. + 0
 4720              		.type	CurrentLimitEnabled, %object
 4721              		.size	CurrentLimitEnabled, 2
 4722              	CurrentLimitEnabled:
 4723 0000 0000     		.space	2
 4724              		.section	.data.delayTimeMs.8947,"aw",%progbits
 4725              		.align	2
ARM GAS  /var/folders/6q/x_mk5n_j3p7_c40r_2k_78980000gn/T//ccu43oO2.s 			page 84


 4726              		.set	.LANCHOR5,. + 0
 4727              		.type	delayTimeMs.8947, %object
 4728              		.size	delayTimeMs.8947, 4
 4729              	delayTimeMs.8947:
 4730 0000 64000000 		.word	100
 4731              		.section	.rodata.str1.4,"aMS",%progbits,1
 4732              		.align	2
 4733              	.LC0:
 4734 0000 736C6577 		.ascii	"slewMotor\000"
 4734      4D6F746F 
 4734      7200
 4735 000a 0000     		.space	2
 4736              	.LC1:
 4737 000c 436F7274 		.ascii	"Cortex ports 1 - 5  - \000"
 4737      65782070 
 4737      6F727473 
 4737      2031202D 
 4737      20352020 
 4738 0023 00       		.space	1
 4739              	.LC2:
 4740 0024 436F7274 		.ascii	"Cortex ports 6 - 10 - \000"
 4740      65782070 
 4740      6F727473 
 4740      2036202D 
 4740      20313020 
 4741 003b 00       		.space	1
 4742              	.LC3:
 4743 003c 506F7765 		.ascii	"Power Expander      - \000"
 4743      72204578 
 4743      70616E64 
 4743      65722020 
 4743      20202020 
 4744 0053 00       		.space	1
 4745              	.LC4:
 4746 0054 43757272 		.ascii	"Current:%5.2f \000"
 4746      656E743A 
 4746      25352E32 
 4746      662000
 4747 0063 00       		.space	1
 4748              	.LC5:
 4749 0064 54656D70 		.ascii	"Temp:%6.2f \000"
 4749      3A25362E 
 4749      32662000 
 4750              	.LC6:
 4751 0070 53746174 		.ascii	"Status:%2d \000"
 4751      75733A25 
 4751      32642000 
 4752              	.LC7:
 4753 007c 0D0A00   		.ascii	"\015\012\000"
 4754 007f 00       		.space	1
 4755              	.LC8:
 4756 0080 20202020 		.ascii	"      Motor Port: %d - \000"
 4756      20204D6F 
 4756      746F7220 
 4756      506F7274 
 4756      3A202564 
 4757              	.LC9:
ARM GAS  /var/folders/6q/x_mk5n_j3p7_c40r_2k_78980000gn/T//ccu43oO2.s 			page 85


 4758 0098 736D6172 		.ascii	"smartMotor\000"
 4758      744D6F74 
 4758      6F7200
 4759              		.section	.rodata.spd_table.8862,"a",%progbits
 4760              		.align	2
 4761              		.set	.LANCHOR4,. + 0
 4762              		.type	spd_table.8862, %object
 4763              		.size	spd_table.8862, 20
 4764              	spd_table.8862:
 4765 0000 0000     		.short	0
 4766 0002 1A00     		.short	26
 4767 0004 3A00     		.short	58
 4768 0006 4D00     		.short	77
 4769 0008 5500     		.short	85
 4770 000a 5C00     		.short	92
 4771 000c 5F00     		.short	95
 4772 000e 6200     		.short	98
 4773 0010 6400     		.short	100
 4774 0012 6400     		.short	100
 4775              		.section	.bss.sPorts,"aw",%nobits
 4776              		.align	2
 4777              		.set	.LANCHOR3,. + 0
 4778              		.type	sPorts, %object
 4779              		.size	sPorts, 156
 4780              	sPorts:
 4781 0000 00000000 		.space	156
 4781      00000000 
 4781      00000000 
 4781      00000000 
 4781      00000000 
 4782              		.text
 4783              	.Letext0:
 4784              		.file 3 "/Users/Luca/src/vexilla/src/gcc-arm-none-eabi-5_4-2016q3/arm-none-eabi/include/machine/_d
 4785              		.file 4 "/Users/Luca/src/vexilla/src/gcc-arm-none-eabi-5_4-2016q3/arm-none-eabi/include/sys/_stdin
 4786              		.file 5 "../ChibiOS/os/ports/GCC/ARMCMx/chtypes.h"
 4787              		.file 6 "../ChibiOS/os/kernel/include/chlists.h"
 4788              		.file 7 "../ChibiOS/os/kernel/include/chthreads.h"
 4789              		.file 8 "../ChibiOS/os/ports/GCC/ARMCMx/chcore_v7m.h"
 4790              		.file 9 "../ChibiOS/os/kernel/include/chvt.h"
 4791              		.file 10 "../ChibiOS/os/kernel/include/chschd.h"
 4792              		.file 11 "../ChibiOS/os/kernel/include/chmtx.h"
 4793              		.file 12 "../convex-vexilla/cortex/fw/vexanalog.h"
 4794              		.file 13 "../convex-vexilla/cortex/fw/vexdigital.h"
 4795              		.file 14 "../convex-vexilla/cortex/fw/vexmotor.h"
 4796              		.file 15 "../convex-vexilla/cortex/fw/vexime.h"
 4797              		.file 16 "../convex-vexilla/cortex/opt/smartmotor.h"
 4798              		.file 17 "../ChibiOS/os/ports/common/ARMCMx/CMSIS/include/core_cm3.h"
 4799              		.file 18 "../convex-vexilla/cortex/fw/vex.h"
 4800              		.file 19 "../convex-vexilla/cortex/opt/robotc_glue.h"
 4801              		.file 20 "../convex-vexilla/cortex/fw/vexprintf.h"
 4802              		.file 21 "../convex-vexilla/cortex/fw/vexspi.h"