ARM GAS  /var/folders/6q/x_mk5n_j3p7_c40r_2k_78980000gn/T//ccDr3UdG.s 			page 1


   1              		.syntax unified
   2              		.cpu cortex-m3
   3              		.fpu softvfp
   4              		.eabi_attribute 20, 1
   5              		.eabi_attribute 21, 1
   6              		.eabi_attribute 23, 3
   7              		.eabi_attribute 24, 1
   8              		.eabi_attribute 25, 1
   9              		.eabi_attribute 26, 1
  10              		.eabi_attribute 30, 2
  11              		.eabi_attribute 34, 1
  12              		.eabi_attribute 18, 4
  13              		.thumb
  14              		.syntax unified
  15              		.file	"spi_lld.c"
  16              		.text
  17              	.Ltext0:
  18              		.cfi_sections	.debug_frame
  19              		.section	.text.spi_lld_serve_tx_interrupt,"ax",%progbits
  20              		.align	2
  21              		.p2align 4,,15
  22              		.thumb
  23              		.thumb_func
  24              		.type	spi_lld_serve_tx_interrupt, %function
  25              	spi_lld_serve_tx_interrupt:
  26              	.LFB64:
  27              		.file 1 "../ChibiOS/os/hal/platforms/STM32/SPIv1/spi_lld.c"
  28              		.loc 1 159 0
  29              		.cfi_startproc
  30              		@ args = 0, pretend = 0, frame = 0
  31              		@ frame_needed = 0, uses_anonymous_args = 0
  32              		@ link register save eliminated.
  33              	.LVL0:
  34              		.loc 1 164 0
  35 0000 0B07     		lsls	r3, r1, #28
  36 0002 00D4     		bmi	.L4
  37 0004 7047     		bx	lr
  38              	.L4:
  39              		.loc 1 165 0
  40 0006 FFF7FEBF 		b	port_halt
  41              	.LVL1:
  42              		.cfi_endproc
  43              	.LFE64:
  44              		.size	spi_lld_serve_tx_interrupt, .-spi_lld_serve_tx_interrupt
  45 000a 00BF     		.section	.text.spi_lld_serve_rx_interrupt,"ax",%progbits
  46              		.align	2
  47              		.p2align 4,,15
  48              		.thumb
  49              		.thumb_func
  50              		.type	spi_lld_serve_rx_interrupt, %function
  51              	spi_lld_serve_rx_interrupt:
  52              	.LFB63:
  53              		.loc 1 133 0
  54              		.cfi_startproc
  55              		@ args = 0, pretend = 0, frame = 0
  56              		@ frame_needed = 0, uses_anonymous_args = 0
  57              	.LVL2:
ARM GAS  /var/folders/6q/x_mk5n_j3p7_c40r_2k_78980000gn/T//ccDr3UdG.s 			page 2


  58              		.loc 1 137 0
  59 0000 0B07     		lsls	r3, r1, #28
  60              		.loc 1 133 0
  61 0002 70B5     		push	{r4, r5, r6, lr}
  62              		.cfi_def_cfa_offset 16
  63              		.cfi_offset 4, -16
  64              		.cfi_offset 5, -12
  65              		.cfi_offset 6, -8
  66              		.cfi_offset 14, -4
  67              		.loc 1 133 0
  68 0004 0446     		mov	r4, r0
  69              		.loc 1 137 0
  70 0006 31D4     		bmi	.L20
  71              	.LVL3:
  72              	.L6:
  73              		.loc 1 145 0
  74 0008 616A     		ldr	r1, [r4, #36]
  75              		.loc 1 146 0
  76 000a 226A     		ldr	r2, [r4, #32]
  77              		.loc 1 145 0
  78 000c 91E86000 		ldmia	r1, {r5, r6}
  79 0010 2868     		ldr	r0, [r5]
  80 0012 0F23     		movs	r3, #15
  81 0014 20F00F00 		bic	r0, r0, #15
  82 0018 2860     		str	r0, [r5]
  83 001a 097A     		ldrb	r1, [r1, #8]	@ zero_extendqisi2
  84              		.loc 1 146 0
  85 001c 1068     		ldr	r0, [r2]
  86              		.loc 1 145 0
  87 001e 03FA01F1 		lsl	r1, r3, r1
  88 0022 3160     		str	r1, [r6]
  89              		.loc 1 146 0
  90 0024 0168     		ldr	r1, [r0]
  91              		.loc 1 150 0
  92 0026 6568     		ldr	r5, [r4, #4]
  93              		.loc 1 146 0
  94 0028 21F00F01 		bic	r1, r1, #15
  95 002c 0160     		str	r1, [r0]
  96 002e 107A     		ldrb	r0, [r2, #8]	@ zero_extendqisi2
  97 0030 5168     		ldr	r1, [r2, #4]
  98              		.loc 1 150 0
  99 0032 2A68     		ldr	r2, [r5]
 100              		.loc 1 146 0
 101 0034 8340     		lsls	r3, r3, r0
 102 0036 0B60     		str	r3, [r1]
 103              		.loc 1 150 0
 104 0038 AAB1     		cbz	r2, .L7
 105              		.loc 1 150 0 is_stmt 0 discriminator 1
 106 003a 0423     		movs	r3, #4
 107 003c 2370     		strb	r3, [r4]
 108 003e 2046     		mov	r0, r4
 109 0040 9047     		blx	r2
 110              	.LVL4:
 111 0042 2378     		ldrb	r3, [r4]	@ zero_extendqisi2
 112 0044 042B     		cmp	r3, #4
 113 0046 0ED0     		beq	.L7
 114              	.L8:
ARM GAS  /var/folders/6q/x_mk5n_j3p7_c40r_2k_78980000gn/T//ccDr3UdG.s 			page 3


 115              	.LBB2:
 116              		.loc 1 150 0 discriminator 4
 117 0048 2023     		movs	r3, #32
 118              		.syntax unified
 119              	@ 150 "../ChibiOS/os/hal/platforms/STM32/SPIv1/spi_lld.c" 1
 120 004a 83F31188 		msr     BASEPRI, r3
 121              	@ 0 "" 2
 122              		.thumb
 123              		.syntax unified
 124              	.LBE2:
 125 004e A368     		ldr	r3, [r4, #8]
 126 0050 2BB1     		cbz	r3, .L9
 127              	.LVL5:
 128              	.LBB3:
 129              		.loc 1 150 0 discriminator 5
 130 0052 0022     		movs	r2, #0
 131 0054 A260     		str	r2, [r4, #8]
 132 0056 1846     		mov	r0, r3
 133 0058 5A62     		str	r2, [r3, #36]
 134 005a FFF7FEFF 		bl	chSchReadyI
 135              	.LVL6:
 136              	.L9:
 137              	.LBE3:
 138              	.LBB4:
 139              		.loc 1 150 0 discriminator 7
 140 005e 0023     		movs	r3, #0
 141              		.syntax unified
 142              	@ 150 "../ChibiOS/os/hal/platforms/STM32/SPIv1/spi_lld.c" 1
 143 0060 83F31188 		msr     BASEPRI, r3
 144              	@ 0 "" 2
 145              		.thumb
 146              		.syntax unified
 147 0064 70BD     		pop	{r4, r5, r6, pc}
 148              	.LVL7:
 149              	.L7:
 150              	.LBE4:
 151              		.loc 1 150 0 discriminator 3
 152 0066 0223     		movs	r3, #2
 153 0068 2370     		strb	r3, [r4]
 154 006a EDE7     		b	.L8
 155              	.LVL8:
 156              	.L20:
 157              		.loc 1 138 0 is_stmt 1
 158 006c FFF7FEFF 		bl	port_halt
 159              	.LVL9:
 160 0070 CAE7     		b	.L6
 161              		.cfi_endproc
 162              	.LFE63:
 163              		.size	spi_lld_serve_rx_interrupt, .-spi_lld_serve_rx_interrupt
 164 0072 00BF     		.section	.text.spi_lld_init,"ax",%progbits
 165              		.align	2
 166              		.p2align 4,,15
 167              		.global	spi_lld_init
 168              		.thumb
 169              		.thumb_func
 170              		.type	spi_lld_init, %function
 171              	spi_lld_init:
ARM GAS  /var/folders/6q/x_mk5n_j3p7_c40r_2k_78980000gn/T//ccDr3UdG.s 			page 4


 172              	.LFB65:
 173              		.loc 1 186 0
 174              		.cfi_startproc
 175              		@ args = 0, pretend = 0, frame = 0
 176              		@ frame_needed = 0, uses_anonymous_args = 0
 177              		.loc 1 188 0
 178 0000 4FF6FF72 		movw	r2, #65535
 179              		.loc 1 186 0
 180 0004 38B5     		push	{r3, r4, r5, lr}
 181              		.cfi_def_cfa_offset 16
 182              		.cfi_offset 3, -16
 183              		.cfi_offset 4, -12
 184              		.cfi_offset 5, -8
 185              		.cfi_offset 14, -4
 186              		.loc 1 191 0
 187 0006 0A4C     		ldr	r4, .L23
 188              		.loc 1 188 0
 189 0008 0A4B     		ldr	r3, .L23+4
 190              		.loc 1 191 0
 191 000a 2046     		mov	r0, r4
 192              		.loc 1 188 0
 193 000c 1A80     		strh	r2, [r3]	@ movhi
 194              		.loc 1 191 0
 195 000e FFF7FEFF 		bl	spiObjectInit
 196              	.LVL10:
 197              		.loc 1 195 0
 198 0012 41F20A01 		movw	r1, #4106
 199              		.loc 1 201 0
 200 0016 41F21802 		movw	r2, #4120
 201              		.loc 1 193 0
 202 001a 074B     		ldr	r3, .L23+8
 203              		.loc 1 192 0
 204 001c 074D     		ldr	r5, .L23+12
 205              		.loc 1 194 0
 206 001e 03F10C00 		add	r0, r3, #12
 207              		.loc 1 192 0
 208 0022 E561     		str	r5, [r4, #28]
 209              		.loc 1 193 0
 210 0024 2362     		str	r3, [r4, #32]
 211              		.loc 1 194 0
 212 0026 6062     		str	r0, [r4, #36]
 213              		.loc 1 195 0
 214 0028 A162     		str	r1, [r4, #40]
 215              		.loc 1 201 0
 216 002a E262     		str	r2, [r4, #44]
 217 002c 38BD     		pop	{r3, r4, r5, pc}
 218              	.L24:
 219 002e 00BF     		.align	2
 220              	.L23:
 221 0030 00000000 		.word	.LANCHOR1
 222 0034 00000000 		.word	.LANCHOR0
 223 0038 0C000000 		.word	_stm32_dma_streams+12
 224 003c 00300140 		.word	1073819648
 225              		.cfi_endproc
 226              	.LFE65:
 227              		.size	spi_lld_init, .-spi_lld_init
 228              		.section	.text.spi_lld_start,"ax",%progbits
ARM GAS  /var/folders/6q/x_mk5n_j3p7_c40r_2k_78980000gn/T//ccDr3UdG.s 			page 5


 229              		.align	2
 230              		.p2align 4,,15
 231              		.global	spi_lld_start
 232              		.thumb
 233              		.thumb_func
 234              		.type	spi_lld_start, %function
 235              	spi_lld_start:
 236              	.LFB66:
 237              		.loc 1 306 0
 238              		.cfi_startproc
 239              		@ args = 0, pretend = 0, frame = 0
 240              		@ frame_needed = 0, uses_anonymous_args = 0
 241              	.LVL11:
 242              		.loc 1 309 0
 243 0000 0378     		ldrb	r3, [r0]	@ zero_extendqisi2
 244              		.loc 1 306 0
 245 0002 10B5     		push	{r4, lr}
 246              		.cfi_def_cfa_offset 8
 247              		.cfi_offset 4, -8
 248              		.cfi_offset 14, -4
 249              		.loc 1 309 0
 250 0004 012B     		cmp	r3, #1
 251              		.loc 1 306 0
 252 0006 0446     		mov	r4, r0
 253              		.loc 1 309 0
 254 0008 1ED0     		beq	.L31
 255 000a C369     		ldr	r3, [r0, #28]
 256              	.LVL12:
 257              	.L26:
 258              		.loc 1 413 0
 259 000c 6268     		ldr	r2, [r4, #4]
 260              		.loc 1 415 0
 261 000e A06A     		ldr	r0, [r4, #40]
 262              		.loc 1 413 0
 263 0010 5289     		ldrh	r2, [r2, #10]
 264              		.loc 1 417 0
 265 0012 E16A     		ldr	r1, [r4, #44]
 266              		.loc 1 415 0
 267 0014 20F47060 		bic	r0, r0, #3840
 268              		.loc 1 417 0
 269 0018 21F47061 		bic	r1, r1, #3840
 270              		.loc 1 413 0
 271 001c 12F4006F 		tst	r2, #2048
 272              		.loc 1 422 0
 273 0020 1CBF     		itt	ne
 274 0022 40F4A060 		orrne	r0, r0, #1280
 275              		.loc 1 424 0
 276 0026 41F4A061 		orrne	r1, r1, #1280
 277              		.loc 1 422 0
 278 002a A062     		str	r0, [r4, #40]
 279              		.loc 1 424 0
 280 002c E162     		str	r1, [r4, #44]
 281              		.loc 1 429 0
 282 002e 42F44172 		orr	r2, r2, #772
 283              		.loc 1 428 0
 284 0032 0020     		movs	r0, #0
 285              		.loc 1 431 0
ARM GAS  /var/folders/6q/x_mk5n_j3p7_c40r_2k_78980000gn/T//ccDr3UdG.s 			page 6


 286 0034 0721     		movs	r1, #7
 287              		.loc 1 428 0
 288 0036 1880     		strh	r0, [r3]	@ movhi
 289              		.loc 1 429 0
 290 0038 1A80     		strh	r2, [r3]	@ movhi
 291              		.loc 1 431 0
 292 003a 9980     		strh	r1, [r3, #4]	@ movhi
 293              		.loc 1 432 0
 294 003c 1A88     		ldrh	r2, [r3]
 295 003e 92B2     		uxth	r2, r2
 296 0040 42F04002 		orr	r2, r2, #64
 297 0044 1A80     		strh	r2, [r3]	@ movhi
 298 0046 10BD     		pop	{r4, pc}
 299              	.LVL13:
 300              	.L31:
 301              		.loc 1 311 0
 302 0048 0F4B     		ldr	r3, .L35
 303 004a 9842     		cmp	r0, r3
 304 004c 09D0     		beq	.L34
 305              	.LVL14:
 306              	.L27:
 307              		.loc 1 408 0
 308 004e 216A     		ldr	r1, [r4, #32]
 309              		.loc 1 409 0
 310 0050 626A     		ldr	r2, [r4, #36]
 311              		.loc 1 408 0
 312 0052 E369     		ldr	r3, [r4, #28]
 313 0054 0868     		ldr	r0, [r1]
 314              		.loc 1 409 0
 315 0056 1168     		ldr	r1, [r2]
 316              		.loc 1 408 0
 317 0058 03F10C02 		add	r2, r3, #12
 318 005c 8260     		str	r2, [r0, #8]
 319              		.loc 1 409 0
 320 005e 8A60     		str	r2, [r1, #8]
 321 0060 D4E7     		b	.L26
 322              	.LVL15:
 323              	.L34:
 324              	.LBB5:
 325              		.loc 1 313 0
 326 0062 0346     		mov	r3, r0
 327 0064 094A     		ldr	r2, .L35+4
 328 0066 0A21     		movs	r1, #10
 329 0068 006A     		ldr	r0, [r0, #32]
 330              	.LVL16:
 331 006a FFF7FEFF 		bl	dmaStreamAllocate
 332              	.LVL17:
 333              		.loc 1 318 0
 334 006e 2346     		mov	r3, r4
 335 0070 074A     		ldr	r2, .L35+8
 336 0072 0A21     		movs	r1, #10
 337 0074 606A     		ldr	r0, [r4, #36]
 338 0076 FFF7FEFF 		bl	dmaStreamAllocate
 339              	.LVL18:
 340              		.loc 1 323 0
 341 007a 064A     		ldr	r2, .L35+12
 342 007c 9369     		ldr	r3, [r2, #24]
ARM GAS  /var/folders/6q/x_mk5n_j3p7_c40r_2k_78980000gn/T//ccDr3UdG.s 			page 7


 343 007e 43F48053 		orr	r3, r3, #4096
 344 0082 9361     		str	r3, [r2, #24]
 345 0084 E3E7     		b	.L27
 346              	.L36:
 347 0086 00BF     		.align	2
 348              	.L35:
 349 0088 00000000 		.word	.LANCHOR1
 350 008c 00000000 		.word	spi_lld_serve_rx_interrupt
 351 0090 00000000 		.word	spi_lld_serve_tx_interrupt
 352 0094 00100240 		.word	1073876992
 353              	.LBE5:
 354              		.cfi_endproc
 355              	.LFE66:
 356              		.size	spi_lld_start, .-spi_lld_start
 357              		.section	.text.spi_lld_stop,"ax",%progbits
 358              		.align	2
 359              		.p2align 4,,15
 360              		.global	spi_lld_stop
 361              		.thumb
 362              		.thumb_func
 363              		.type	spi_lld_stop, %function
 364              	spi_lld_stop:
 365              	.LFB67:
 366              		.loc 1 442 0
 367              		.cfi_startproc
 368              		@ args = 0, pretend = 0, frame = 0
 369              		@ frame_needed = 0, uses_anonymous_args = 0
 370              	.LVL19:
 371              		.loc 1 445 0
 372 0000 0378     		ldrb	r3, [r0]	@ zero_extendqisi2
 373 0002 022B     		cmp	r3, #2
 374 0004 00D0     		beq	.L43
 375 0006 7047     		bx	lr
 376              	.L43:
 377              		.loc 1 442 0
 378 0008 10B5     		push	{r4, lr}
 379              		.cfi_def_cfa_offset 8
 380              		.cfi_offset 4, -8
 381              		.cfi_offset 14, -4
 382 000a 0446     		mov	r4, r0
 383              		.loc 1 448 0
 384 000c C369     		ldr	r3, [r0, #28]
 385 000e 0022     		movs	r2, #0
 386 0010 1A80     		strh	r2, [r3]	@ movhi
 387              		.loc 1 450 0
 388 0012 006A     		ldr	r0, [r0, #32]
 389              	.LVL20:
 390              		.loc 1 449 0
 391 0014 9A80     		strh	r2, [r3, #4]	@ movhi
 392              		.loc 1 450 0
 393 0016 FFF7FEFF 		bl	dmaStreamRelease
 394              	.LVL21:
 395              		.loc 1 451 0
 396 001a 606A     		ldr	r0, [r4, #36]
 397 001c FFF7FEFF 		bl	dmaStreamRelease
 398              	.LVL22:
 399              		.loc 1 454 0
ARM GAS  /var/folders/6q/x_mk5n_j3p7_c40r_2k_78980000gn/T//ccDr3UdG.s 			page 8


 400 0020 044B     		ldr	r3, .L45
 401 0022 9C42     		cmp	r4, r3
 402 0024 00D0     		beq	.L44
 403              	.L37:
 404 0026 10BD     		pop	{r4, pc}
 405              	.LVL23:
 406              	.L44:
 407              		.loc 1 455 0
 408 0028 034A     		ldr	r2, .L45+4
 409 002a 9369     		ldr	r3, [r2, #24]
 410 002c 23F48053 		bic	r3, r3, #4096
 411 0030 9361     		str	r3, [r2, #24]
 412              		.loc 1 478 0
 413 0032 F8E7     		b	.L37
 414              	.L46:
 415              		.align	2
 416              	.L45:
 417 0034 00000000 		.word	.LANCHOR1
 418 0038 00100240 		.word	1073876992
 419              		.cfi_endproc
 420              	.LFE67:
 421              		.size	spi_lld_stop, .-spi_lld_stop
 422              		.section	.text.spi_lld_select,"ax",%progbits
 423              		.align	2
 424              		.p2align 4,,15
 425              		.global	spi_lld_select
 426              		.thumb
 427              		.thumb_func
 428              		.type	spi_lld_select, %function
 429              	spi_lld_select:
 430              	.LFB68:
 431              		.loc 1 487 0
 432              		.cfi_startproc
 433              		@ args = 0, pretend = 0, frame = 0
 434              		@ frame_needed = 0, uses_anonymous_args = 0
 435              		@ link register save eliminated.
 436              	.LVL24:
 437              		.loc 1 489 0
 438 0000 4268     		ldr	r2, [r0, #4]
 439 0002 0123     		movs	r3, #1
 440 0004 1189     		ldrh	r1, [r2, #8]
 441 0006 5268     		ldr	r2, [r2, #4]
 442 0008 8B40     		lsls	r3, r3, r1
 443 000a 5361     		str	r3, [r2, #20]
 444 000c 7047     		bx	lr
 445              		.cfi_endproc
 446              	.LFE68:
 447              		.size	spi_lld_select, .-spi_lld_select
 448 000e 00BF     		.section	.text.spi_lld_unselect,"ax",%progbits
 449              		.align	2
 450              		.p2align 4,,15
 451              		.global	spi_lld_unselect
 452              		.thumb
 453              		.thumb_func
 454              		.type	spi_lld_unselect, %function
 455              	spi_lld_unselect:
 456              	.LFB69:
ARM GAS  /var/folders/6q/x_mk5n_j3p7_c40r_2k_78980000gn/T//ccDr3UdG.s 			page 9


 457              		.loc 1 500 0
 458              		.cfi_startproc
 459              		@ args = 0, pretend = 0, frame = 0
 460              		@ frame_needed = 0, uses_anonymous_args = 0
 461              		@ link register save eliminated.
 462              	.LVL25:
 463              		.loc 1 502 0
 464 0000 4268     		ldr	r2, [r0, #4]
 465 0002 0123     		movs	r3, #1
 466 0004 1189     		ldrh	r1, [r2, #8]
 467 0006 5268     		ldr	r2, [r2, #4]
 468 0008 8B40     		lsls	r3, r3, r1
 469 000a 1361     		str	r3, [r2, #16]
 470 000c 7047     		bx	lr
 471              		.cfi_endproc
 472              	.LFE69:
 473              		.size	spi_lld_unselect, .-spi_lld_unselect
 474 000e 00BF     		.section	.text.spi_lld_ignore,"ax",%progbits
 475              		.align	2
 476              		.p2align 4,,15
 477              		.global	spi_lld_ignore
 478              		.thumb
 479              		.thumb_func
 480              		.type	spi_lld_ignore, %function
 481              	spi_lld_ignore:
 482              	.LFB70:
 483              		.loc 1 516 0
 484              		.cfi_startproc
 485              		@ args = 0, pretend = 0, frame = 0
 486              		@ frame_needed = 0, uses_anonymous_args = 0
 487              		@ link register save eliminated.
 488              	.LVL26:
 489              		.loc 1 518 0
 490 0000 026A     		ldr	r2, [r0, #32]
 491              		.loc 1 522 0
 492 0002 436A     		ldr	r3, [r0, #36]
 493              		.loc 1 516 0
 494 0004 70B4     		push	{r4, r5, r6}
 495              		.cfi_def_cfa_offset 12
 496              		.cfi_offset 4, -12
 497              		.cfi_offset 5, -8
 498              		.cfi_offset 6, -4
 499              		.loc 1 518 0
 500 0006 1268     		ldr	r2, [r2]
 501              		.loc 1 520 0
 502 0008 856A     		ldr	r5, [r0, #40]
 503              		.loc 1 522 0
 504 000a 1B68     		ldr	r3, [r3]
 505              		.loc 1 524 0
 506 000c C06A     		ldr	r0, [r0, #44]
 507              	.LVL27:
 508              		.loc 1 518 0
 509 000e 094E     		ldr	r6, .L51
 510              		.loc 1 522 0
 511 0010 094C     		ldr	r4, .L51+4
 512              		.loc 1 518 0
 513 0012 D660     		str	r6, [r2, #12]
ARM GAS  /var/folders/6q/x_mk5n_j3p7_c40r_2k_78980000gn/T//ccDr3UdG.s 			page 10


 514              		.loc 1 519 0
 515 0014 5160     		str	r1, [r2, #4]
 516              		.loc 1 520 0
 517 0016 1560     		str	r5, [r2]
 518              		.loc 1 522 0
 519 0018 DC60     		str	r4, [r3, #12]
 520              		.loc 1 523 0
 521 001a 5960     		str	r1, [r3, #4]
 522              		.loc 1 524 0
 523 001c 1860     		str	r0, [r3]
 524              		.loc 1 526 0
 525 001e 1168     		ldr	r1, [r2]
 526              	.LVL28:
 527              		.loc 1 528 0
 528 0020 70BC     		pop	{r4, r5, r6}
 529              		.cfi_restore 6
 530              		.cfi_restore 5
 531              		.cfi_restore 4
 532              		.cfi_def_cfa_offset 0
 533              		.loc 1 526 0
 534 0022 41F00101 		orr	r1, r1, #1
 535 0026 1160     		str	r1, [r2]
 536              		.loc 1 527 0
 537 0028 1A68     		ldr	r2, [r3]
 538 002a 42F00102 		orr	r2, r2, #1
 539 002e 1A60     		str	r2, [r3]
 540              		.loc 1 528 0
 541 0030 7047     		bx	lr
 542              	.L52:
 543 0032 00BF     		.align	2
 544              	.L51:
 545 0034 00000000 		.word	.LANCHOR2
 546 0038 00000000 		.word	.LANCHOR0
 547              		.cfi_endproc
 548              	.LFE70:
 549              		.size	spi_lld_ignore, .-spi_lld_ignore
 550              		.section	.text.spi_lld_exchange,"ax",%progbits
 551              		.align	2
 552              		.p2align 4,,15
 553              		.global	spi_lld_exchange
 554              		.thumb
 555              		.thumb_func
 556              		.type	spi_lld_exchange, %function
 557              	spi_lld_exchange:
 558              	.LFB71:
 559              		.loc 1 546 0
 560              		.cfi_startproc
 561              		@ args = 0, pretend = 0, frame = 0
 562              		@ frame_needed = 0, uses_anonymous_args = 0
 563              		@ link register save eliminated.
 564              	.LVL29:
 565 0000 F0B4     		push	{r4, r5, r6, r7}
 566              		.cfi_def_cfa_offset 16
 567              		.cfi_offset 4, -16
 568              		.cfi_offset 5, -12
 569              		.cfi_offset 6, -8
 570              		.cfi_offset 7, -4
ARM GAS  /var/folders/6q/x_mk5n_j3p7_c40r_2k_78980000gn/T//ccDr3UdG.s 			page 11


 571              		.loc 1 548 0
 572 0002 046A     		ldr	r4, [r0, #32]
 573              		.loc 1 552 0
 574 0004 476A     		ldr	r7, [r0, #36]
 575              		.loc 1 550 0
 576 0006 866A     		ldr	r6, [r0, #40]
 577              		.loc 1 554 0
 578 0008 C56A     		ldr	r5, [r0, #44]
 579              		.loc 1 548 0
 580 000a 2468     		ldr	r4, [r4]
 581              		.loc 1 552 0
 582 000c 3868     		ldr	r0, [r7]
 583              	.LVL30:
 584              		.loc 1 550 0
 585 000e 46F08006 		orr	r6, r6, #128
 586              		.loc 1 554 0
 587 0012 45F08005 		orr	r5, r5, #128
 588              		.loc 1 548 0
 589 0016 E360     		str	r3, [r4, #12]
 590              		.loc 1 549 0
 591 0018 6160     		str	r1, [r4, #4]
 592              		.loc 1 550 0
 593 001a 2660     		str	r6, [r4]
 594              		.loc 1 552 0
 595 001c C260     		str	r2, [r0, #12]
 596              		.loc 1 553 0
 597 001e 4160     		str	r1, [r0, #4]
 598              		.loc 1 554 0
 599 0020 0560     		str	r5, [r0]
 600              		.loc 1 556 0
 601 0022 2368     		ldr	r3, [r4]
 602              	.LVL31:
 603 0024 43F00103 		orr	r3, r3, #1
 604 0028 2360     		str	r3, [r4]
 605              		.loc 1 557 0
 606 002a 0368     		ldr	r3, [r0]
 607              		.loc 1 558 0
 608 002c F0BC     		pop	{r4, r5, r6, r7}
 609              		.cfi_restore 7
 610              		.cfi_restore 6
 611              		.cfi_restore 5
 612              		.cfi_restore 4
 613              		.cfi_def_cfa_offset 0
 614              		.loc 1 557 0
 615 002e 43F00103 		orr	r3, r3, #1
 616 0032 0360     		str	r3, [r0]
 617              		.loc 1 558 0
 618 0034 7047     		bx	lr
 619              		.cfi_endproc
 620              	.LFE71:
 621              		.size	spi_lld_exchange, .-spi_lld_exchange
 622 0036 00BF     		.section	.text.spi_lld_send,"ax",%progbits
 623              		.align	2
 624              		.p2align 4,,15
 625              		.global	spi_lld_send
 626              		.thumb
 627              		.thumb_func
ARM GAS  /var/folders/6q/x_mk5n_j3p7_c40r_2k_78980000gn/T//ccDr3UdG.s 			page 12


 628              		.type	spi_lld_send, %function
 629              	spi_lld_send:
 630              	.LFB72:
 631              		.loc 1 573 0
 632              		.cfi_startproc
 633              		@ args = 0, pretend = 0, frame = 0
 634              		@ frame_needed = 0, uses_anonymous_args = 0
 635              		@ link register save eliminated.
 636              	.LVL32:
 637 0000 F0B4     		push	{r4, r5, r6, r7}
 638              		.cfi_def_cfa_offset 16
 639              		.cfi_offset 4, -16
 640              		.cfi_offset 5, -12
 641              		.cfi_offset 6, -8
 642              		.cfi_offset 7, -4
 643              		.loc 1 579 0
 644 0002 436A     		ldr	r3, [r0, #36]
 645              		.loc 1 575 0
 646 0004 046A     		ldr	r4, [r0, #32]
 647              		.loc 1 581 0
 648 0006 C56A     		ldr	r5, [r0, #44]
 649              		.loc 1 575 0
 650 0008 2468     		ldr	r4, [r4]
 651              		.loc 1 577 0
 652 000a 866A     		ldr	r6, [r0, #40]
 653              		.loc 1 579 0
 654 000c 1B68     		ldr	r3, [r3]
 655              		.loc 1 575 0
 656 000e 094F     		ldr	r7, .L57
 657              		.loc 1 581 0
 658 0010 45F08000 		orr	r0, r5, #128
 659              	.LVL33:
 660              		.loc 1 575 0
 661 0014 E760     		str	r7, [r4, #12]
 662              		.loc 1 576 0
 663 0016 6160     		str	r1, [r4, #4]
 664              		.loc 1 577 0
 665 0018 2660     		str	r6, [r4]
 666              		.loc 1 579 0
 667 001a DA60     		str	r2, [r3, #12]
 668              		.loc 1 580 0
 669 001c 5960     		str	r1, [r3, #4]
 670              		.loc 1 581 0
 671 001e 1860     		str	r0, [r3]
 672              		.loc 1 583 0
 673 0020 2268     		ldr	r2, [r4]
 674              	.LVL34:
 675 0022 42F00102 		orr	r2, r2, #1
 676 0026 2260     		str	r2, [r4]
 677              		.loc 1 584 0
 678 0028 1A68     		ldr	r2, [r3]
 679              		.loc 1 585 0
 680 002a F0BC     		pop	{r4, r5, r6, r7}
 681              		.cfi_restore 7
 682              		.cfi_restore 6
 683              		.cfi_restore 5
 684              		.cfi_restore 4
ARM GAS  /var/folders/6q/x_mk5n_j3p7_c40r_2k_78980000gn/T//ccDr3UdG.s 			page 13


 685              		.cfi_def_cfa_offset 0
 686              		.loc 1 584 0
 687 002c 42F00102 		orr	r2, r2, #1
 688 0030 1A60     		str	r2, [r3]
 689              		.loc 1 585 0
 690 0032 7047     		bx	lr
 691              	.L58:
 692              		.align	2
 693              	.L57:
 694 0034 00000000 		.word	.LANCHOR2
 695              		.cfi_endproc
 696              	.LFE72:
 697              		.size	spi_lld_send, .-spi_lld_send
 698              		.section	.text.spi_lld_receive,"ax",%progbits
 699              		.align	2
 700              		.p2align 4,,15
 701              		.global	spi_lld_receive
 702              		.thumb
 703              		.thumb_func
 704              		.type	spi_lld_receive, %function
 705              	spi_lld_receive:
 706              	.LFB73:
 707              		.loc 1 600 0
 708              		.cfi_startproc
 709              		@ args = 0, pretend = 0, frame = 0
 710              		@ frame_needed = 0, uses_anonymous_args = 0
 711              		@ link register save eliminated.
 712              	.LVL35:
 713 0000 F0B4     		push	{r4, r5, r6, r7}
 714              		.cfi_def_cfa_offset 16
 715              		.cfi_offset 4, -16
 716              		.cfi_offset 5, -12
 717              		.cfi_offset 6, -8
 718              		.cfi_offset 7, -4
 719              		.loc 1 606 0
 720 0002 436A     		ldr	r3, [r0, #36]
 721              		.loc 1 602 0
 722 0004 046A     		ldr	r4, [r0, #32]
 723              		.loc 1 604 0
 724 0006 856A     		ldr	r5, [r0, #40]
 725              		.loc 1 602 0
 726 0008 2468     		ldr	r4, [r4]
 727              		.loc 1 608 0
 728 000a C66A     		ldr	r6, [r0, #44]
 729              		.loc 1 606 0
 730 000c 1B68     		ldr	r3, [r3]
 731 000e 094F     		ldr	r7, .L61
 732              		.loc 1 604 0
 733 0010 45F08000 		orr	r0, r5, #128
 734              	.LVL36:
 735              		.loc 1 602 0
 736 0014 E260     		str	r2, [r4, #12]
 737              		.loc 1 603 0
 738 0016 6160     		str	r1, [r4, #4]
 739              		.loc 1 604 0
 740 0018 2060     		str	r0, [r4]
 741              		.loc 1 606 0
ARM GAS  /var/folders/6q/x_mk5n_j3p7_c40r_2k_78980000gn/T//ccDr3UdG.s 			page 14


 742 001a DF60     		str	r7, [r3, #12]
 743              		.loc 1 607 0
 744 001c 5960     		str	r1, [r3, #4]
 745              		.loc 1 608 0
 746 001e 1E60     		str	r6, [r3]
 747              		.loc 1 610 0
 748 0020 2268     		ldr	r2, [r4]
 749              	.LVL37:
 750 0022 42F00102 		orr	r2, r2, #1
 751 0026 2260     		str	r2, [r4]
 752              		.loc 1 611 0
 753 0028 1A68     		ldr	r2, [r3]
 754              		.loc 1 612 0
 755 002a F0BC     		pop	{r4, r5, r6, r7}
 756              		.cfi_restore 7
 757              		.cfi_restore 6
 758              		.cfi_restore 5
 759              		.cfi_restore 4
 760              		.cfi_def_cfa_offset 0
 761              		.loc 1 611 0
 762 002c 42F00102 		orr	r2, r2, #1
 763 0030 1A60     		str	r2, [r3]
 764              		.loc 1 612 0
 765 0032 7047     		bx	lr
 766              	.L62:
 767              		.align	2
 768              	.L61:
 769 0034 00000000 		.word	.LANCHOR0
 770              		.cfi_endproc
 771              	.LFE73:
 772              		.size	spi_lld_receive, .-spi_lld_receive
 773              		.section	.text.spi_lld_polled_exchange,"ax",%progbits
 774              		.align	2
 775              		.p2align 4,,15
 776              		.global	spi_lld_polled_exchange
 777              		.thumb
 778              		.thumb_func
 779              		.type	spi_lld_polled_exchange, %function
 780              	spi_lld_polled_exchange:
 781              	.LFB74:
 782              		.loc 1 626 0
 783              		.cfi_startproc
 784              		@ args = 0, pretend = 0, frame = 0
 785              		@ frame_needed = 0, uses_anonymous_args = 0
 786              		@ link register save eliminated.
 787              	.LVL38:
 788              		.loc 1 628 0
 789 0000 C269     		ldr	r2, [r0, #28]
 790 0002 9181     		strh	r1, [r2, #12]	@ movhi
 791              	.L64:
 792              		.loc 1 629 0 discriminator 1
 793 0004 1389     		ldrh	r3, [r2, #8]
 794 0006 DB07     		lsls	r3, r3, #31
 795 0008 FCD5     		bpl	.L64
 796              		.loc 1 631 0
 797 000a 9089     		ldrh	r0, [r2, #12]
 798              	.LVL39:
ARM GAS  /var/folders/6q/x_mk5n_j3p7_c40r_2k_78980000gn/T//ccDr3UdG.s 			page 15


 799              		.loc 1 632 0
 800 000c 80B2     		uxth	r0, r0
 801 000e 7047     		bx	lr
 802              		.cfi_endproc
 803              	.LFE74:
 804              		.size	spi_lld_polled_exchange, .-spi_lld_polled_exchange
 805              		.global	SPID1
 806              		.section	.bss.dummytx,"aw",%nobits
 807              		.align	1
 808              		.set	.LANCHOR0,. + 0
 809              		.type	dummytx, %object
 810              		.size	dummytx, 2
 811              	dummytx:
 812 0000 0000     		.space	2
 813              		.section	.bss.SPID1,"aw",%nobits
 814              		.align	2
 815              		.set	.LANCHOR1,. + 0
 816              		.type	SPID1, %object
 817              		.size	SPID1, 48
 818              	SPID1:
 819 0000 00000000 		.space	48
 819      00000000 
 819      00000000 
 819      00000000 
 819      00000000 
 820              		.section	.bss.dummyrx,"aw",%nobits
 821              		.align	1
 822              		.set	.LANCHOR2,. + 0
 823              		.type	dummyrx, %object
 824              		.size	dummyrx, 2
 825              	dummyrx:
 826 0000 0000     		.space	2
 827              		.text
 828              	.Letext0:
 829              		.file 2 "/Users/Luca/src/vexilla/src/gcc-arm-none-eabi-5_4-2016q3/lib/gcc/arm-none-eabi/5.4.1/incl
 830              		.file 3 "/Users/Luca/src/vexilla/src/gcc-arm-none-eabi-5_4-2016q3/arm-none-eabi/include/machine/_d
 831              		.file 4 "/Users/Luca/src/vexilla/src/gcc-arm-none-eabi-5_4-2016q3/arm-none-eabi/include/sys/_stdin
 832              		.file 5 "../ChibiOS/os/ports/GCC/ARMCMx/chtypes.h"
 833              		.file 6 "../ChibiOS/os/kernel/include/chlists.h"
 834              		.file 7 "../ChibiOS/os/kernel/include/chthreads.h"
 835              		.file 8 "../ChibiOS/os/ports/GCC/ARMCMx/chcore_v7m.h"
 836              		.file 9 "../ChibiOS/os/kernel/include/chmtx.h"
 837              		.file 10 "../ChibiOS/os/hal/platforms/STM32F1xx/stm32f10x.h"
 838              		.file 11 "../ChibiOS/os/hal/platforms/STM32F1xx/stm32_dma.h"
 839              		.file 12 "../ChibiOS/os/hal/platforms/STM32/GPIOv1/pal_lld.h"
 840              		.file 13 "../ChibiOS/os/hal/include/spi.h"
 841              		.file 14 "../ChibiOS/os/hal/platforms/STM32/SPIv1/spi_lld.h"
 842              		.file 15 "../ChibiOS/os/ports/common/ARMCMx/CMSIS/include/core_cm3.h"
 843              		.file 16 "../ChibiOS/os/kernel/include/chschd.h"