ARM GAS  /var/folders/6q/x_mk5n_j3p7_c40r_2k_78980000gn/T//ccdMk5hY.s 			page 1


   1              		.syntax unified
   2              		.cpu cortex-m3
   3              		.fpu softvfp
   4              		.eabi_attribute 20, 1
   5              		.eabi_attribute 21, 1
   6              		.eabi_attribute 23, 3
   7              		.eabi_attribute 24, 1
   8              		.eabi_attribute 25, 1
   9              		.eabi_attribute 26, 1
  10              		.eabi_attribute 30, 2
  11              		.eabi_attribute 34, 1
  12              		.eabi_attribute 18, 4
  13              		.thumb
  14              		.syntax unified
  15              		.file	"stm32_flash.c"
  16              		.text
  17              	.Ltext0:
  18              		.cfi_sections	.debug_frame
  19              		.section	.text.FLASH_GetBank1Status,"ax",%progbits
  20              		.align	2
  21              		.p2align 4,,15
  22              		.global	FLASH_GetBank1Status
  23              		.thumb
  24              		.thumb_func
  25              		.type	FLASH_GetBank1Status, %function
  26              	FLASH_GetBank1Status:
  27              	.LFB56:
  28              		.file 1 "../convex-vexilla/cortex/opt/stm32_flash.c"
  29              		.loc 1 110 0
  30              		.cfi_startproc
  31              		@ args = 0, pretend = 0, frame = 0
  32              		@ frame_needed = 0, uses_anonymous_args = 0
  33              		@ link register save eliminated.
  34              	.LVL0:
  35              		.loc 1 113 0
  36 0000 084B     		ldr	r3, .L8
  37 0002 DA68     		ldr	r2, [r3, #12]
  38 0004 D107     		lsls	r1, r2, #31
  39 0006 0BD4     		bmi	.L3
  40              		.loc 1 119 0
  41 0008 DA68     		ldr	r2, [r3, #12]
  42 000a 5207     		lsls	r2, r2, #29
  43 000c 01D5     		bpl	.L7
  44              		.loc 1 121 0
  45 000e 0220     		movs	r0, #2
  46              	.LVL1:
  47              		.loc 1 137 0
  48 0010 7047     		bx	lr
  49              	.LVL2:
  50              	.L7:
  51              	.LBB4:
  52              	.LBB5:
  53              		.loc 1 125 0
  54 0012 DB68     		ldr	r3, [r3, #12]
  55 0014 13F0100F 		tst	r3, #16
  56              		.loc 1 131 0
  57 0018 14BF     		ite	ne
ARM GAS  /var/folders/6q/x_mk5n_j3p7_c40r_2k_78980000gn/T//ccdMk5hY.s 			page 2


  58 001a 0320     		movne	r0, #3
  59 001c 0420     		moveq	r0, #4
  60 001e 7047     		bx	lr
  61              	.L3:
  62              	.LBE5:
  63              	.LBE4:
  64              		.loc 1 115 0
  65 0020 0120     		movs	r0, #1
  66 0022 7047     		bx	lr
  67              	.L9:
  68              		.align	2
  69              	.L8:
  70 0024 00200240 		.word	1073881088
  71              		.cfi_endproc
  72              	.LFE56:
  73              		.size	FLASH_GetBank1Status, .-FLASH_GetBank1Status
  74              		.section	.text.FLASH_WaitForLastOperation,"ax",%progbits
  75              		.align	2
  76              		.p2align 4,,15
  77              		.global	FLASH_WaitForLastOperation
  78              		.thumb
  79              		.thumb_func
  80              		.type	FLASH_WaitForLastOperation, %function
  81              	FLASH_WaitForLastOperation:
  82              	.LFB57:
  83              		.loc 1 151 0
  84              		.cfi_startproc
  85              		@ args = 0, pretend = 0, frame = 0
  86              		@ frame_needed = 0, uses_anonymous_args = 0
  87              	.LVL3:
  88 0000 10B5     		push	{r4, lr}
  89              		.cfi_def_cfa_offset 8
  90              		.cfi_offset 4, -8
  91              		.cfi_offset 14, -4
  92              		.loc 1 151 0
  93 0002 0446     		mov	r4, r0
  94              		.loc 1 155 0
  95 0004 FFF7FEFF 		bl	FLASH_GetBank1Status
  96              	.LVL4:
  97              		.loc 1 157 0
  98 0008 0128     		cmp	r0, #1
  99 000a 06D1     		bne	.L11
 100              	.L20:
 101 000c 3CB1     		cbz	r4, .L12
 102              	.LVL5:
 103              		.loc 1 159 0
 104 000e FFF7FEFF 		bl	FLASH_GetBank1Status
 105              	.LVL6:
 106              		.loc 1 157 0
 107 0012 0128     		cmp	r0, #1
 108              		.loc 1 160 0
 109 0014 04F1FF34 		add	r4, r4, #-1
 110              	.LVL7:
 111              		.loc 1 157 0
 112 0018 F8D0     		beq	.L20
 113              	.L11:
 114              		.loc 1 162 0
ARM GAS  /var/folders/6q/x_mk5n_j3p7_c40r_2k_78980000gn/T//ccdMk5hY.s 			page 3


 115 001a 04B1     		cbz	r4, .L12
 116              		.loc 1 168 0
 117 001c 10BD     		pop	{r4, pc}
 118              	.LVL8:
 119              	.L12:
 120              		.loc 1 164 0
 121 001e 0520     		movs	r0, #5
 122              	.LVL9:
 123              		.loc 1 168 0
 124 0020 10BD     		pop	{r4, pc}
 125              		.cfi_endproc
 126              	.LFE57:
 127              		.size	FLASH_WaitForLastOperation, .-FLASH_WaitForLastOperation
 128 0022 00BF     		.section	.text.FLASH_ErasePage,"ax",%progbits
 129              		.align	2
 130              		.p2align 4,,15
 131              		.global	FLASH_ErasePage
 132              		.thumb
 133              		.thumb_func
 134              		.type	FLASH_ErasePage, %function
 135              	FLASH_ErasePage:
 136              	.LFB58:
 137              		.loc 1 177 0
 138              		.cfi_startproc
 139              		@ args = 0, pretend = 0, frame = 0
 140              		@ frame_needed = 0, uses_anonymous_args = 0
 141              	.LVL10:
 142 0000 38B5     		push	{r3, r4, r5, lr}
 143              		.cfi_def_cfa_offset 16
 144              		.cfi_offset 3, -16
 145              		.cfi_offset 4, -12
 146              		.cfi_offset 5, -8
 147              		.cfi_offset 14, -4
 148              		.loc 1 177 0
 149 0002 0546     		mov	r5, r0
 150              		.loc 1 183 0
 151 0004 4FF43020 		mov	r0, #720896
 152              	.LVL11:
 153 0008 FFF7FEFF 		bl	FLASH_WaitForLastOperation
 154              	.LVL12:
 155              		.loc 1 185 0
 156 000c 0428     		cmp	r0, #4
 157 000e 00D0     		beq	.L24
 158              		.loc 1 201 0
 159 0010 38BD     		pop	{r3, r4, r5, pc}
 160              	.LVL13:
 161              	.L24:
 162              		.loc 1 188 0
 163 0012 0A4C     		ldr	r4, .L25
 164              		.loc 1 193 0
 165 0014 4FF43020 		mov	r0, #720896
 166              	.LVL14:
 167              		.loc 1 188 0
 168 0018 2369     		ldr	r3, [r4, #16]
 169 001a 43F00203 		orr	r3, r3, #2
 170 001e 2361     		str	r3, [r4, #16]
 171              		.loc 1 189 0
ARM GAS  /var/folders/6q/x_mk5n_j3p7_c40r_2k_78980000gn/T//ccdMk5hY.s 			page 4


 172 0020 6561     		str	r5, [r4, #20]
 173              		.loc 1 190 0
 174 0022 2369     		ldr	r3, [r4, #16]
 175 0024 43F04003 		orr	r3, r3, #64
 176 0028 2361     		str	r3, [r4, #16]
 177              		.loc 1 193 0
 178 002a FFF7FEFF 		bl	FLASH_WaitForLastOperation
 179              	.LVL15:
 180              		.loc 1 196 0
 181 002e 41F6FD73 		movw	r3, #8189
 182 0032 2269     		ldr	r2, [r4, #16]
 183 0034 1340     		ands	r3, r3, r2
 184 0036 2361     		str	r3, [r4, #16]
 185              		.loc 1 201 0
 186 0038 38BD     		pop	{r3, r4, r5, pc}
 187              	.LVL16:
 188              	.L26:
 189 003a 00BF     		.align	2
 190              	.L25:
 191 003c 00200240 		.word	1073881088
 192              		.cfi_endproc
 193              	.LFE58:
 194              		.size	FLASH_ErasePage, .-FLASH_ErasePage
 195              		.section	.text.FLASH_ClearFlag,"ax",%progbits
 196              		.align	2
 197              		.p2align 4,,15
 198              		.global	FLASH_ClearFlag
 199              		.thumb
 200              		.thumb_func
 201              		.type	FLASH_ClearFlag, %function
 202              	FLASH_ClearFlag:
 203              	.LFB59:
 204              		.loc 1 216 0
 205              		.cfi_startproc
 206              		@ args = 0, pretend = 0, frame = 0
 207              		@ frame_needed = 0, uses_anonymous_args = 0
 208              		@ link register save eliminated.
 209              	.LVL17:
 210              		.loc 1 221 0
 211 0000 014B     		ldr	r3, .L28
 212 0002 D860     		str	r0, [r3, #12]
 213 0004 7047     		bx	lr
 214              	.L29:
 215 0006 00BF     		.align	2
 216              	.L28:
 217 0008 00200240 		.word	1073881088
 218              		.cfi_endproc
 219              	.LFE59:
 220              		.size	FLASH_ClearFlag, .-FLASH_ClearFlag
 221              		.section	.text.FLASH_ProgramWord,"ax",%progbits
 222              		.align	2
 223              		.p2align 4,,15
 224              		.global	FLASH_ProgramWord
 225              		.thumb
 226              		.thumb_func
 227              		.type	FLASH_ProgramWord, %function
 228              	FLASH_ProgramWord:
ARM GAS  /var/folders/6q/x_mk5n_j3p7_c40r_2k_78980000gn/T//ccdMk5hY.s 			page 5


 229              	.LFB60:
 230              		.loc 1 235 0
 231              		.cfi_startproc
 232              		@ args = 0, pretend = 0, frame = 8
 233              		@ frame_needed = 0, uses_anonymous_args = 0
 234              	.LVL18:
 235 0000 70B5     		push	{r4, r5, r6, lr}
 236              		.cfi_def_cfa_offset 16
 237              		.cfi_offset 4, -16
 238              		.cfi_offset 5, -12
 239              		.cfi_offset 6, -8
 240              		.cfi_offset 14, -4
 241              		.loc 1 237 0
 242 0002 0023     		movs	r3, #0
 243              		.loc 1 235 0
 244 0004 82B0     		sub	sp, sp, #8
 245              		.cfi_def_cfa_offset 24
 246              		.loc 1 235 0
 247 0006 0546     		mov	r5, r0
 248              		.loc 1 243 0
 249 0008 4FF40050 		mov	r0, #8192
 250              	.LVL19:
 251              		.loc 1 235 0
 252 000c 0C46     		mov	r4, r1
 253              		.loc 1 237 0
 254 000e 0193     		str	r3, [sp, #4]
 255              		.loc 1 243 0
 256 0010 FFF7FEFF 		bl	FLASH_WaitForLastOperation
 257              	.LVL20:
 258              		.loc 1 245 0
 259 0014 0428     		cmp	r0, #4
 260 0016 01D0     		beq	.L34
 261              	.LVL21:
 262              	.L31:
 263              		.loc 1 278 0
 264 0018 02B0     		add	sp, sp, #8
 265              		.cfi_remember_state
 266              		.cfi_def_cfa_offset 16
 267              		@ sp needed
 268 001a 70BD     		pop	{r4, r5, r6, pc}
 269              	.LVL22:
 270              	.L34:
 271              		.cfi_restore_state
 272              		.loc 1 249 0
 273 001c 114E     		ldr	r6, .L36
 274              		.loc 1 251 0
 275 001e A3B2     		uxth	r3, r4
 276              		.loc 1 249 0
 277 0020 3269     		ldr	r2, [r6, #16]
 278              		.loc 1 253 0
 279 0022 4FF40050 		mov	r0, #8192
 280              	.LVL23:
 281              		.loc 1 249 0
 282 0026 42F00102 		orr	r2, r2, #1
 283 002a 3261     		str	r2, [r6, #16]
 284              		.loc 1 251 0
 285 002c 2B80     		strh	r3, [r5]	@ movhi
ARM GAS  /var/folders/6q/x_mk5n_j3p7_c40r_2k_78980000gn/T//ccdMk5hY.s 			page 6


 286              		.loc 1 253 0
 287 002e FFF7FEFF 		bl	FLASH_WaitForLastOperation
 288              	.LVL24:
 289              		.loc 1 255 0
 290 0032 0428     		cmp	r0, #4
 291 0034 06D0     		beq	.L35
 292              		.loc 1 272 0
 293 0036 41F6FE73 		movw	r3, #8190
 294 003a 3269     		ldr	r2, [r6, #16]
 295 003c 1340     		ands	r3, r3, r2
 296 003e 3361     		str	r3, [r6, #16]
 297              		.loc 1 278 0
 298 0040 02B0     		add	sp, sp, #8
 299              		.cfi_remember_state
 300              		.cfi_def_cfa_offset 16
 301              		@ sp needed
 302 0042 70BD     		pop	{r4, r5, r6, pc}
 303              	.LVL25:
 304              	.L35:
 305              		.cfi_restore_state
 306              		.loc 1 259 0
 307 0044 0235     		adds	r5, r5, #2
 308              	.LVL26:
 309 0046 0195     		str	r5, [sp, #4]
 310              		.loc 1 261 0
 311 0048 019B     		ldr	r3, [sp, #4]
 312 004a 240C     		lsrs	r4, r4, #16
 313              	.LVL27:
 314 004c 1C80     		strh	r4, [r3]	@ movhi
 315              		.loc 1 264 0
 316 004e 4FF40050 		mov	r0, #8192
 317              	.LVL28:
 318 0052 FFF7FEFF 		bl	FLASH_WaitForLastOperation
 319              	.LVL29:
 320              		.loc 1 267 0
 321 0056 41F6FE73 		movw	r3, #8190
 322 005a 3269     		ldr	r2, [r6, #16]
 323 005c 1340     		ands	r3, r3, r2
 324 005e 3361     		str	r3, [r6, #16]
 325 0060 DAE7     		b	.L31
 326              	.L37:
 327 0062 00BF     		.align	2
 328              	.L36:
 329 0064 00200240 		.word	1073881088
 330              		.cfi_endproc
 331              	.LFE60:
 332              		.size	FLASH_ProgramWord, .-FLASH_ProgramWord
 333              		.section	.text.FLASH_ProgramHalfWord,"ax",%progbits
 334              		.align	2
 335              		.p2align 4,,15
 336              		.global	FLASH_ProgramHalfWord
 337              		.thumb
 338              		.thumb_func
 339              		.type	FLASH_ProgramHalfWord, %function
 340              	FLASH_ProgramHalfWord:
 341              	.LFB61:
 342              		.loc 1 289 0
ARM GAS  /var/folders/6q/x_mk5n_j3p7_c40r_2k_78980000gn/T//ccdMk5hY.s 			page 7


 343              		.cfi_startproc
 344              		@ args = 0, pretend = 0, frame = 0
 345              		@ frame_needed = 0, uses_anonymous_args = 0
 346              	.LVL30:
 347 0000 70B5     		push	{r4, r5, r6, lr}
 348              		.cfi_def_cfa_offset 16
 349              		.cfi_offset 4, -16
 350              		.cfi_offset 5, -12
 351              		.cfi_offset 6, -8
 352              		.cfi_offset 14, -4
 353              		.loc 1 289 0
 354 0002 0446     		mov	r4, r0
 355              		.loc 1 295 0
 356 0004 4FF40050 		mov	r0, #8192
 357              	.LVL31:
 358              		.loc 1 289 0
 359 0008 0D46     		mov	r5, r1
 360              		.loc 1 295 0
 361 000a FFF7FEFF 		bl	FLASH_WaitForLastOperation
 362              	.LVL32:
 363              		.loc 1 297 0
 364 000e 0428     		cmp	r0, #4
 365 0010 00D0     		beq	.L41
 366              		.loc 1 312 0
 367 0012 70BD     		pop	{r4, r5, r6, pc}
 368              	.LVL33:
 369              	.L41:
 370              		.loc 1 300 0
 371 0014 074E     		ldr	r6, .L42
 372              		.loc 1 304 0
 373 0016 4FF40050 		mov	r0, #8192
 374              	.LVL34:
 375              		.loc 1 300 0
 376 001a 3369     		ldr	r3, [r6, #16]
 377 001c 43F00103 		orr	r3, r3, #1
 378 0020 3361     		str	r3, [r6, #16]
 379              		.loc 1 302 0
 380 0022 2580     		strh	r5, [r4]	@ movhi
 381              		.loc 1 304 0
 382 0024 FFF7FEFF 		bl	FLASH_WaitForLastOperation
 383              	.LVL35:
 384              		.loc 1 307 0
 385 0028 41F6FE73 		movw	r3, #8190
 386 002c 3269     		ldr	r2, [r6, #16]
 387 002e 1340     		ands	r3, r3, r2
 388 0030 3361     		str	r3, [r6, #16]
 389              		.loc 1 312 0
 390 0032 70BD     		pop	{r4, r5, r6, pc}
 391              	.LVL36:
 392              	.L43:
 393              		.align	2
 394              	.L42:
 395 0034 00200240 		.word	1073881088
 396              		.cfi_endproc
 397              	.LFE61:
 398              		.size	FLASH_ProgramHalfWord, .-FLASH_ProgramHalfWord
 399              		.section	.text.FLASH_UnlockBank1,"ax",%progbits
ARM GAS  /var/folders/6q/x_mk5n_j3p7_c40r_2k_78980000gn/T//ccdMk5hY.s 			page 8


 400              		.align	2
 401              		.p2align 4,,15
 402              		.global	FLASH_UnlockBank1
 403              		.thumb
 404              		.thumb_func
 405              		.type	FLASH_UnlockBank1, %function
 406              	FLASH_UnlockBank1:
 407              	.LFB62:
 408              		.loc 1 323 0
 409              		.cfi_startproc
 410              		@ args = 0, pretend = 0, frame = 0
 411              		@ frame_needed = 0, uses_anonymous_args = 0
 412              		@ link register save eliminated.
 413              		.loc 1 325 0
 414 0000 024B     		ldr	r3, .L45
 415 0002 0349     		ldr	r1, .L45+4
 416              		.loc 1 326 0
 417 0004 034A     		ldr	r2, .L45+8
 418              		.loc 1 325 0
 419 0006 5960     		str	r1, [r3, #4]
 420              		.loc 1 326 0
 421 0008 5A60     		str	r2, [r3, #4]
 422 000a 7047     		bx	lr
 423              	.L46:
 424              		.align	2
 425              	.L45:
 426 000c 00200240 		.word	1073881088
 427 0010 23016745 		.word	1164378403
 428 0014 AB89EFCD 		.word	-839939669
 429              		.cfi_endproc
 430              	.LFE62:
 431              		.size	FLASH_UnlockBank1, .-FLASH_UnlockBank1
 432              		.text
 433              	.Letext0:
 434              		.file 2 "/Users/Luca/src/vexilla/src/gcc-arm-none-eabi-5_4-2016q3/arm-none-eabi/include/machine/_d
 435              		.file 3 "/Users/Luca/src/vexilla/src/gcc-arm-none-eabi-5_4-2016q3/arm-none-eabi/include/sys/_stdin
 436              		.file 4 "../ChibiOS/os/hal/platforms/STM32F1xx/stm32f10x.h"
 437              		.file 5 "../convex-vexilla/cortex/opt/stm32f10x_flash.h"
 438              		.file 6 "../ChibiOS/os/ports/common/ARMCMx/CMSIS/include/core_cm3.h"
 439              		.section	.debug_info,"",%progbits
 440              	.Ldebug_info0:
 441 0000 AB030000 		.4byte	0x3ab
 442 0004 0400     		.2byte	0x4
 443 0006 00000000 		.4byte	.Ldebug_abbrev0
 444 000a 04       		.byte	0x4
 445 000b 01       		.uleb128 0x1
 446 000c C4010000 		.4byte	.LASF37
 447 0010 0C       		.byte	0xc
 448 0011 81000000 		.4byte	.LASF38
 449 0015 18030000 		.4byte	.LASF39
 450 0019 00000000 		.4byte	.Ldebug_ranges0+0
 451 001d 00000000 		.4byte	0
 452 0021 00000000 		.4byte	.Ldebug_line0
 453 0025 02       		.uleb128 0x2
 454 0026 01       		.byte	0x1
 455 0027 06       		.byte	0x6
 456 0028 D2000000 		.4byte	.LASF0
ARM GAS  /var/folders/6q/x_mk5n_j3p7_c40r_2k_78980000gn/T//ccdMk5hY.s 			page 9


 457 002c 02       		.uleb128 0x2
 458 002d 01       		.byte	0x1
 459 002e 08       		.byte	0x8
 460 002f 48010000 		.4byte	.LASF1
 461 0033 02       		.uleb128 0x2
 462 0034 02       		.byte	0x2
 463 0035 05       		.byte	0x5
 464 0036 CA020000 		.4byte	.LASF2
 465 003a 03       		.uleb128 0x3
 466 003b 56010000 		.4byte	.LASF4
 467 003f 02       		.byte	0x2
 468 0040 2B       		.byte	0x2b
 469 0041 45000000 		.4byte	0x45
 470 0045 02       		.uleb128 0x2
 471 0046 02       		.byte	0x2
 472 0047 07       		.byte	0x7
 473 0048 FB000000 		.4byte	.LASF3
 474 004c 03       		.uleb128 0x3
 475 004d 45000000 		.4byte	.LASF5
 476 0051 02       		.byte	0x2
 477 0052 3F       		.byte	0x3f
 478 0053 57000000 		.4byte	0x57
 479 0057 02       		.uleb128 0x2
 480 0058 04       		.byte	0x4
 481 0059 05       		.byte	0x5
 482 005a 4F000000 		.4byte	.LASF6
 483 005e 03       		.uleb128 0x3
 484 005f DE000000 		.4byte	.LASF7
 485 0063 02       		.byte	0x2
 486 0064 41       		.byte	0x41
 487 0065 69000000 		.4byte	0x69
 488 0069 02       		.uleb128 0x2
 489 006a 04       		.byte	0x4
 490 006b 07       		.byte	0x7
 491 006c E9000000 		.4byte	.LASF8
 492 0070 02       		.uleb128 0x2
 493 0071 08       		.byte	0x8
 494 0072 05       		.byte	0x5
 495 0073 AF020000 		.4byte	.LASF9
 496 0077 02       		.uleb128 0x2
 497 0078 08       		.byte	0x8
 498 0079 07       		.byte	0x7
 499 007a 98010000 		.4byte	.LASF10
 500 007e 04       		.uleb128 0x4
 501 007f 04       		.byte	0x4
 502 0080 05       		.byte	0x5
 503 0081 696E7400 		.ascii	"int\000"
 504 0085 02       		.uleb128 0x2
 505 0086 04       		.byte	0x4
 506 0087 07       		.byte	0x7
 507 0088 79010000 		.4byte	.LASF11
 508 008c 03       		.uleb128 0x3
 509 008d DC020000 		.4byte	.LASF12
 510 0091 03       		.byte	0x3
 511 0092 24       		.byte	0x24
 512 0093 3A000000 		.4byte	0x3a
 513 0097 03       		.uleb128 0x3
ARM GAS  /var/folders/6q/x_mk5n_j3p7_c40r_2k_78980000gn/T//ccdMk5hY.s 			page 10


 514 0098 9E020000 		.4byte	.LASF13
 515 009c 03       		.byte	0x3
 516 009d 2C       		.byte	0x2c
 517 009e 4C000000 		.4byte	0x4c
 518 00a2 03       		.uleb128 0x3
 519 00a3 E5020000 		.4byte	.LASF14
 520 00a7 03       		.byte	0x3
 521 00a8 30       		.byte	0x30
 522 00a9 5E000000 		.4byte	0x5e
 523 00ad 02       		.uleb128 0x2
 524 00ae 04       		.byte	0x4
 525 00af 07       		.byte	0x7
 526 00b0 A6020000 		.4byte	.LASF15
 527 00b4 05       		.uleb128 0x5
 528 00b5 A2000000 		.4byte	0xa2
 529 00b9 05       		.uleb128 0x5
 530 00ba 97000000 		.4byte	0x97
 531 00be 06       		.uleb128 0x6
 532 00bf 24       		.byte	0x24
 533 00c0 04       		.byte	0x4
 534 00c1 9403     		.2byte	0x394
 535 00c3 3A010000 		.4byte	0x13a
 536 00c7 07       		.uleb128 0x7
 537 00c8 41435200 		.ascii	"ACR\000"
 538 00cc 04       		.byte	0x4
 539 00cd 9603     		.2byte	0x396
 540 00cf B4000000 		.4byte	0xb4
 541 00d3 00       		.byte	0
 542 00d4 08       		.uleb128 0x8
 543 00d5 FC020000 		.4byte	.LASF16
 544 00d9 04       		.byte	0x4
 545 00da 9703     		.2byte	0x397
 546 00dc B4000000 		.4byte	0xb4
 547 00e0 04       		.byte	0x4
 548 00e1 08       		.uleb128 0x8
 549 00e2 40010000 		.4byte	.LASF17
 550 00e6 04       		.byte	0x4
 551 00e7 9803     		.2byte	0x398
 552 00e9 B4000000 		.4byte	0xb4
 553 00ed 08       		.byte	0x8
 554 00ee 07       		.uleb128 0x7
 555 00ef 535200   		.ascii	"SR\000"
 556 00f2 04       		.byte	0x4
 557 00f3 9903     		.2byte	0x399
 558 00f5 B4000000 		.4byte	0xb4
 559 00f9 0C       		.byte	0xc
 560 00fa 07       		.uleb128 0x7
 561 00fb 435200   		.ascii	"CR\000"
 562 00fe 04       		.byte	0x4
 563 00ff 9A03     		.2byte	0x39a
 564 0101 B4000000 		.4byte	0xb4
 565 0105 10       		.byte	0x10
 566 0106 07       		.uleb128 0x7
 567 0107 415200   		.ascii	"AR\000"
 568 010a 04       		.byte	0x4
 569 010b 9B03     		.2byte	0x39b
 570 010d B4000000 		.4byte	0xb4
ARM GAS  /var/folders/6q/x_mk5n_j3p7_c40r_2k_78980000gn/T//ccdMk5hY.s 			page 11


 571 0111 14       		.byte	0x14
 572 0112 08       		.uleb128 0x8
 573 0113 61010000 		.4byte	.LASF18
 574 0117 04       		.byte	0x4
 575 0118 9C03     		.2byte	0x39c
 576 011a B4000000 		.4byte	0xb4
 577 011e 18       		.byte	0x18
 578 011f 07       		.uleb128 0x7
 579 0120 4F425200 		.ascii	"OBR\000"
 580 0124 04       		.byte	0x4
 581 0125 9D03     		.2byte	0x39d
 582 0127 B4000000 		.4byte	0xb4
 583 012b 1C       		.byte	0x1c
 584 012c 08       		.uleb128 0x8
 585 012d BF010000 		.4byte	.LASF19
 586 0131 04       		.byte	0x4
 587 0132 9E03     		.2byte	0x39e
 588 0134 B4000000 		.4byte	0xb4
 589 0138 20       		.byte	0x20
 590 0139 00       		.byte	0
 591 013a 09       		.uleb128 0x9
 592 013b 28000000 		.4byte	.LASF20
 593 013f 04       		.byte	0x4
 594 0140 A703     		.2byte	0x3a7
 595 0142 BE000000 		.4byte	0xbe
 596 0146 0A       		.uleb128 0xa
 597 0147 01       		.byte	0x1
 598 0148 2C000000 		.4byte	0x2c
 599 014c 05       		.byte	0x5
 600 014d 33       		.byte	0x33
 601 014e 71010000 		.4byte	0x171
 602 0152 0B       		.uleb128 0xb
 603 0153 0D030000 		.4byte	.LASF21
 604 0157 01       		.byte	0x1
 605 0158 0B       		.uleb128 0xb
 606 0159 6A010000 		.4byte	.LASF22
 607 015d 02       		.byte	0x2
 608 015e 0B       		.uleb128 0xb
 609 015f AF010000 		.4byte	.LASF23
 610 0163 03       		.byte	0x3
 611 0164 0B       		.uleb128 0xb
 612 0165 36000000 		.4byte	.LASF24
 613 0169 04       		.byte	0x4
 614 016a 0B       		.uleb128 0xb
 615 016b EE020000 		.4byte	.LASF25
 616 016f 05       		.byte	0x5
 617 0170 00       		.byte	0
 618 0171 03       		.uleb128 0x3
 619 0172 BD020000 		.4byte	.LASF26
 620 0176 05       		.byte	0x5
 621 0177 39       		.byte	0x39
 622 0178 46010000 		.4byte	0x146
 623 017c 0C       		.uleb128 0xc
 624 017d 0E010000 		.4byte	.LASF40
 625 0181 01       		.byte	0x1
 626 0182 6D       		.byte	0x6d
 627 0183 71010000 		.4byte	0x171
ARM GAS  /var/folders/6q/x_mk5n_j3p7_c40r_2k_78980000gn/T//ccdMk5hY.s 			page 12


 628 0187 01       		.byte	0x1
 629 0188 98010000 		.4byte	0x198
 630 018c 0D       		.uleb128 0xd
 631 018d 01030000 		.4byte	.LASF41
 632 0191 01       		.byte	0x1
 633 0192 6F       		.byte	0x6f
 634 0193 71010000 		.4byte	0x171
 635 0197 00       		.byte	0
 636 0198 0E       		.uleb128 0xe
 637 0199 7C010000 		.4byte	0x17c
 638 019d 00000000 		.4byte	.LFB56
 639 01a1 28000000 		.4byte	.LFE56-.LFB56
 640 01a5 01       		.uleb128 0x1
 641 01a6 9C       		.byte	0x9c
 642 01a7 C4010000 		.4byte	0x1c4
 643 01ab 0F       		.uleb128 0xf
 644 01ac 8C010000 		.4byte	0x18c
 645 01b0 00000000 		.4byte	.LLST0
 646 01b4 10       		.uleb128 0x10
 647 01b5 12000000 		.4byte	.LBB5
 648 01b9 0E000000 		.4byte	.LBE5-.LBB5
 649 01bd 11       		.uleb128 0x11
 650 01be 8C010000 		.4byte	0x18c
 651 01c2 00       		.byte	0
 652 01c3 00       		.byte	0
 653 01c4 12       		.uleb128 0x12
 654 01c5 AC000000 		.4byte	.LASF27
 655 01c9 01       		.byte	0x1
 656 01ca 96       		.byte	0x96
 657 01cb 71010000 		.4byte	0x171
 658 01cf 00000000 		.4byte	.LFB57
 659 01d3 22000000 		.4byte	.LFE57-.LFB57
 660 01d7 01       		.uleb128 0x1
 661 01d8 9C       		.byte	0x9c
 662 01d9 0E020000 		.4byte	0x20e
 663 01dd 13       		.uleb128 0x13
 664 01de 3A030000 		.4byte	.LASF29
 665 01e2 01       		.byte	0x1
 666 01e3 96       		.byte	0x96
 667 01e4 A2000000 		.4byte	0xa2
 668 01e8 2B000000 		.4byte	.LLST1
 669 01ec 14       		.uleb128 0x14
 670 01ed 7A000000 		.4byte	.LASF31
 671 01f1 01       		.byte	0x1
 672 01f2 98       		.byte	0x98
 673 01f3 71010000 		.4byte	0x171
 674 01f7 49000000 		.4byte	.LLST2
 675 01fb 15       		.uleb128 0x15
 676 01fc 08000000 		.4byte	.LVL4
 677 0200 7C010000 		.4byte	0x17c
 678 0204 15       		.uleb128 0x15
 679 0205 12000000 		.4byte	.LVL6
 680 0209 7C010000 		.4byte	0x17c
 681 020d 00       		.byte	0
 682 020e 12       		.uleb128 0x12
 683 020f 30010000 		.4byte	.LASF28
 684 0213 01       		.byte	0x1
ARM GAS  /var/folders/6q/x_mk5n_j3p7_c40r_2k_78980000gn/T//ccdMk5hY.s 			page 13


 685 0214 B0       		.byte	0xb0
 686 0215 71010000 		.4byte	0x171
 687 0219 00000000 		.4byte	.LFB58
 688 021d 40000000 		.4byte	.LFE58-.LFB58
 689 0221 01       		.uleb128 0x1
 690 0222 9C       		.byte	0x9c
 691 0223 6C020000 		.4byte	0x26c
 692 0227 13       		.uleb128 0x13
 693 0228 16000000 		.4byte	.LASF30
 694 022c 01       		.byte	0x1
 695 022d B0       		.byte	0xb0
 696 022e A2000000 		.4byte	0xa2
 697 0232 96000000 		.4byte	.LLST3
 698 0236 14       		.uleb128 0x14
 699 0237 7A000000 		.4byte	.LASF31
 700 023b 01       		.byte	0x1
 701 023c B2       		.byte	0xb2
 702 023d 71010000 		.4byte	0x171
 703 0241 C2000000 		.4byte	.LLST4
 704 0245 16       		.uleb128 0x16
 705 0246 0C000000 		.4byte	.LVL12
 706 024a C4010000 		.4byte	0x1c4
 707 024e 5A020000 		.4byte	0x25a
 708 0252 17       		.uleb128 0x17
 709 0253 01       		.uleb128 0x1
 710 0254 50       		.byte	0x50
 711 0255 03       		.uleb128 0x3
 712 0256 46       		.byte	0x46
 713 0257 3F       		.byte	0x3f
 714 0258 24       		.byte	0x24
 715 0259 00       		.byte	0
 716 025a 18       		.uleb128 0x18
 717 025b 2E000000 		.4byte	.LVL15
 718 025f C4010000 		.4byte	0x1c4
 719 0263 17       		.uleb128 0x17
 720 0264 01       		.uleb128 0x1
 721 0265 50       		.byte	0x50
 722 0266 03       		.uleb128 0x3
 723 0267 46       		.byte	0x46
 724 0268 3F       		.byte	0x3f
 725 0269 24       		.byte	0x24
 726 026a 00       		.byte	0
 727 026b 00       		.byte	0
 728 026c 19       		.uleb128 0x19
 729 026d 58000000 		.4byte	.LASF42
 730 0271 01       		.byte	0x1
 731 0272 D7       		.byte	0xd7
 732 0273 00000000 		.4byte	.LFB59
 733 0277 0C000000 		.4byte	.LFE59-.LFB59
 734 027b 01       		.uleb128 0x1
 735 027c 9C       		.byte	0x9c
 736 027d 8F020000 		.4byte	0x28f
 737 0281 1A       		.uleb128 0x1a
 738 0282 C7000000 		.4byte	.LASF32
 739 0286 01       		.byte	0x1
 740 0287 D7       		.byte	0xd7
 741 0288 A2000000 		.4byte	0xa2
ARM GAS  /var/folders/6q/x_mk5n_j3p7_c40r_2k_78980000gn/T//ccdMk5hY.s 			page 14


 742 028c 01       		.uleb128 0x1
 743 028d 50       		.byte	0x50
 744 028e 00       		.byte	0
 745 028f 12       		.uleb128 0x12
 746 0290 68000000 		.4byte	.LASF33
 747 0294 01       		.byte	0x1
 748 0295 EA       		.byte	0xea
 749 0296 71010000 		.4byte	0x171
 750 029a 00000000 		.4byte	.LFB60
 751 029e 68000000 		.4byte	.LFE60-.LFB60
 752 02a2 01       		.uleb128 0x1
 753 02a3 9C       		.byte	0x9c
 754 02a4 1F030000 		.4byte	0x31f
 755 02a8 13       		.uleb128 0x13
 756 02a9 D4020000 		.4byte	.LASF34
 757 02ad 01       		.byte	0x1
 758 02ae EA       		.byte	0xea
 759 02af A2000000 		.4byte	0xa2
 760 02b3 EC000000 		.4byte	.LLST5
 761 02b7 13       		.uleb128 0x13
 762 02b8 23000000 		.4byte	.LASF35
 763 02bc 01       		.byte	0x1
 764 02bd EA       		.byte	0xea
 765 02be A2000000 		.4byte	0xa2
 766 02c2 30010000 		.4byte	.LLST6
 767 02c6 14       		.uleb128 0x14
 768 02c7 7A000000 		.4byte	.LASF31
 769 02cb 01       		.byte	0x1
 770 02cc EC       		.byte	0xec
 771 02cd 71010000 		.4byte	0x171
 772 02d1 75010000 		.4byte	.LLST7
 773 02d5 1B       		.uleb128 0x1b
 774 02d6 746D7000 		.ascii	"tmp\000"
 775 02da 01       		.byte	0x1
 776 02db ED       		.byte	0xed
 777 02dc B4000000 		.4byte	0xb4
 778 02e0 02       		.uleb128 0x2
 779 02e1 91       		.byte	0x91
 780 02e2 6C       		.sleb128 -20
 781 02e3 16       		.uleb128 0x16
 782 02e4 14000000 		.4byte	.LVL20
 783 02e8 C4010000 		.4byte	0x1c4
 784 02ec F8020000 		.4byte	0x2f8
 785 02f0 17       		.uleb128 0x17
 786 02f1 01       		.uleb128 0x1
 787 02f2 50       		.byte	0x50
 788 02f3 03       		.uleb128 0x3
 789 02f4 0A       		.byte	0xa
 790 02f5 0020     		.2byte	0x2000
 791 02f7 00       		.byte	0
 792 02f8 16       		.uleb128 0x16
 793 02f9 32000000 		.4byte	.LVL24
 794 02fd C4010000 		.4byte	0x1c4
 795 0301 0D030000 		.4byte	0x30d
 796 0305 17       		.uleb128 0x17
 797 0306 01       		.uleb128 0x1
 798 0307 50       		.byte	0x50
ARM GAS  /var/folders/6q/x_mk5n_j3p7_c40r_2k_78980000gn/T//ccdMk5hY.s 			page 15


 799 0308 03       		.uleb128 0x3
 800 0309 0A       		.byte	0xa
 801 030a 0020     		.2byte	0x2000
 802 030c 00       		.byte	0
 803 030d 18       		.uleb128 0x18
 804 030e 56000000 		.4byte	.LVL29
 805 0312 C4010000 		.4byte	0x1c4
 806 0316 17       		.uleb128 0x17
 807 0317 01       		.uleb128 0x1
 808 0318 50       		.byte	0x50
 809 0319 03       		.uleb128 0x3
 810 031a 0A       		.byte	0xa
 811 031b 0020     		.2byte	0x2000
 812 031d 00       		.byte	0
 813 031e 00       		.byte	0
 814 031f 1C       		.uleb128 0x1c
 815 0320 00000000 		.4byte	.LASF36
 816 0324 01       		.byte	0x1
 817 0325 2001     		.2byte	0x120
 818 0327 71010000 		.4byte	0x171
 819 032b 00000000 		.4byte	.LFB61
 820 032f 38000000 		.4byte	.LFE61-.LFB61
 821 0333 01       		.uleb128 0x1
 822 0334 9C       		.byte	0x9c
 823 0335 90030000 		.4byte	0x390
 824 0339 1D       		.uleb128 0x1d
 825 033a D4020000 		.4byte	.LASF34
 826 033e 01       		.byte	0x1
 827 033f 2001     		.2byte	0x120
 828 0341 A2000000 		.4byte	0xa2
 829 0345 AA010000 		.4byte	.LLST8
 830 0349 1D       		.uleb128 0x1d
 831 034a 23000000 		.4byte	.LASF35
 832 034e 01       		.byte	0x1
 833 034f 2001     		.2byte	0x120
 834 0351 8C000000 		.4byte	0x8c
 835 0355 D6010000 		.4byte	.LLST9
 836 0359 1E       		.uleb128 0x1e
 837 035a 7A000000 		.4byte	.LASF31
 838 035e 01       		.byte	0x1
 839 035f 2201     		.2byte	0x122
 840 0361 71010000 		.4byte	0x171
 841 0365 F7010000 		.4byte	.LLST10
 842 0369 16       		.uleb128 0x16
 843 036a 0E000000 		.4byte	.LVL32
 844 036e C4010000 		.4byte	0x1c4
 845 0372 7E030000 		.4byte	0x37e
 846 0376 17       		.uleb128 0x17
 847 0377 01       		.uleb128 0x1
 848 0378 50       		.byte	0x50
 849 0379 03       		.uleb128 0x3
 850 037a 0A       		.byte	0xa
 851 037b 0020     		.2byte	0x2000
 852 037d 00       		.byte	0
 853 037e 18       		.uleb128 0x18
 854 037f 28000000 		.4byte	.LVL35
 855 0383 C4010000 		.4byte	0x1c4
ARM GAS  /var/folders/6q/x_mk5n_j3p7_c40r_2k_78980000gn/T//ccdMk5hY.s 			page 16


 856 0387 17       		.uleb128 0x17
 857 0388 01       		.uleb128 0x1
 858 0389 50       		.byte	0x50
 859 038a 03       		.uleb128 0x3
 860 038b 0A       		.byte	0xa
 861 038c 0020     		.2byte	0x2000
 862 038e 00       		.byte	0
 863 038f 00       		.byte	0
 864 0390 1F       		.uleb128 0x1f
 865 0391 86010000 		.4byte	.LASF43
 866 0395 01       		.byte	0x1
 867 0396 4201     		.2byte	0x142
 868 0398 00000000 		.4byte	.LFB62
 869 039c 18000000 		.4byte	.LFE62-.LFB62
 870 03a0 01       		.uleb128 0x1
 871 03a1 9C       		.byte	0x9c
 872 03a2 20       		.uleb128 0x20
 873 03a3 23010000 		.4byte	.LASF44
 874 03a7 06       		.byte	0x6
 875 03a8 0706     		.2byte	0x607
 876 03aa B9000000 		.4byte	0xb9
 877 03ae 00       		.byte	0
 878              		.section	.debug_abbrev,"",%progbits
 879              	.Ldebug_abbrev0:
 880 0000 01       		.uleb128 0x1
 881 0001 11       		.uleb128 0x11
 882 0002 01       		.byte	0x1
 883 0003 25       		.uleb128 0x25
 884 0004 0E       		.uleb128 0xe
 885 0005 13       		.uleb128 0x13
 886 0006 0B       		.uleb128 0xb
 887 0007 03       		.uleb128 0x3
 888 0008 0E       		.uleb128 0xe
 889 0009 1B       		.uleb128 0x1b
 890 000a 0E       		.uleb128 0xe
 891 000b 55       		.uleb128 0x55
 892 000c 17       		.uleb128 0x17
 893 000d 11       		.uleb128 0x11
 894 000e 01       		.uleb128 0x1
 895 000f 10       		.uleb128 0x10
 896 0010 17       		.uleb128 0x17
 897 0011 00       		.byte	0
 898 0012 00       		.byte	0
 899 0013 02       		.uleb128 0x2
 900 0014 24       		.uleb128 0x24
 901 0015 00       		.byte	0
 902 0016 0B       		.uleb128 0xb
 903 0017 0B       		.uleb128 0xb
 904 0018 3E       		.uleb128 0x3e
 905 0019 0B       		.uleb128 0xb
 906 001a 03       		.uleb128 0x3
 907 001b 0E       		.uleb128 0xe
 908 001c 00       		.byte	0
 909 001d 00       		.byte	0
 910 001e 03       		.uleb128 0x3
 911 001f 16       		.uleb128 0x16
 912 0020 00       		.byte	0
ARM GAS  /var/folders/6q/x_mk5n_j3p7_c40r_2k_78980000gn/T//ccdMk5hY.s 			page 17


 913 0021 03       		.uleb128 0x3
 914 0022 0E       		.uleb128 0xe
 915 0023 3A       		.uleb128 0x3a
 916 0024 0B       		.uleb128 0xb
 917 0025 3B       		.uleb128 0x3b
 918 0026 0B       		.uleb128 0xb
 919 0027 49       		.uleb128 0x49
 920 0028 13       		.uleb128 0x13
 921 0029 00       		.byte	0
 922 002a 00       		.byte	0
 923 002b 04       		.uleb128 0x4
 924 002c 24       		.uleb128 0x24
 925 002d 00       		.byte	0
 926 002e 0B       		.uleb128 0xb
 927 002f 0B       		.uleb128 0xb
 928 0030 3E       		.uleb128 0x3e
 929 0031 0B       		.uleb128 0xb
 930 0032 03       		.uleb128 0x3
 931 0033 08       		.uleb128 0x8
 932 0034 00       		.byte	0
 933 0035 00       		.byte	0
 934 0036 05       		.uleb128 0x5
 935 0037 35       		.uleb128 0x35
 936 0038 00       		.byte	0
 937 0039 49       		.uleb128 0x49
 938 003a 13       		.uleb128 0x13
 939 003b 00       		.byte	0
 940 003c 00       		.byte	0
 941 003d 06       		.uleb128 0x6
 942 003e 13       		.uleb128 0x13
 943 003f 01       		.byte	0x1
 944 0040 0B       		.uleb128 0xb
 945 0041 0B       		.uleb128 0xb
 946 0042 3A       		.uleb128 0x3a
 947 0043 0B       		.uleb128 0xb
 948 0044 3B       		.uleb128 0x3b
 949 0045 05       		.uleb128 0x5
 950 0046 01       		.uleb128 0x1
 951 0047 13       		.uleb128 0x13
 952 0048 00       		.byte	0
 953 0049 00       		.byte	0
 954 004a 07       		.uleb128 0x7
 955 004b 0D       		.uleb128 0xd
 956 004c 00       		.byte	0
 957 004d 03       		.uleb128 0x3
 958 004e 08       		.uleb128 0x8
 959 004f 3A       		.uleb128 0x3a
 960 0050 0B       		.uleb128 0xb
 961 0051 3B       		.uleb128 0x3b
 962 0052 05       		.uleb128 0x5
 963 0053 49       		.uleb128 0x49
 964 0054 13       		.uleb128 0x13
 965 0055 38       		.uleb128 0x38
 966 0056 0B       		.uleb128 0xb
 967 0057 00       		.byte	0
 968 0058 00       		.byte	0
 969 0059 08       		.uleb128 0x8
ARM GAS  /var/folders/6q/x_mk5n_j3p7_c40r_2k_78980000gn/T//ccdMk5hY.s 			page 18


 970 005a 0D       		.uleb128 0xd
 971 005b 00       		.byte	0
 972 005c 03       		.uleb128 0x3
 973 005d 0E       		.uleb128 0xe
 974 005e 3A       		.uleb128 0x3a
 975 005f 0B       		.uleb128 0xb
 976 0060 3B       		.uleb128 0x3b
 977 0061 05       		.uleb128 0x5
 978 0062 49       		.uleb128 0x49
 979 0063 13       		.uleb128 0x13
 980 0064 38       		.uleb128 0x38
 981 0065 0B       		.uleb128 0xb
 982 0066 00       		.byte	0
 983 0067 00       		.byte	0
 984 0068 09       		.uleb128 0x9
 985 0069 16       		.uleb128 0x16
 986 006a 00       		.byte	0
 987 006b 03       		.uleb128 0x3
 988 006c 0E       		.uleb128 0xe
 989 006d 3A       		.uleb128 0x3a
 990 006e 0B       		.uleb128 0xb
 991 006f 3B       		.uleb128 0x3b
 992 0070 05       		.uleb128 0x5
 993 0071 49       		.uleb128 0x49
 994 0072 13       		.uleb128 0x13
 995 0073 00       		.byte	0
 996 0074 00       		.byte	0
 997 0075 0A       		.uleb128 0xa
 998 0076 04       		.uleb128 0x4
 999 0077 01       		.byte	0x1
 1000 0078 0B       		.uleb128 0xb
 1001 0079 0B       		.uleb128 0xb
 1002 007a 49       		.uleb128 0x49
 1003 007b 13       		.uleb128 0x13
 1004 007c 3A       		.uleb128 0x3a
 1005 007d 0B       		.uleb128 0xb
 1006 007e 3B       		.uleb128 0x3b
 1007 007f 0B       		.uleb128 0xb
 1008 0080 01       		.uleb128 0x1
 1009 0081 13       		.uleb128 0x13
 1010 0082 00       		.byte	0
 1011 0083 00       		.byte	0
 1012 0084 0B       		.uleb128 0xb
 1013 0085 28       		.uleb128 0x28
 1014 0086 00       		.byte	0
 1015 0087 03       		.uleb128 0x3
 1016 0088 0E       		.uleb128 0xe
 1017 0089 1C       		.uleb128 0x1c
 1018 008a 0B       		.uleb128 0xb
 1019 008b 00       		.byte	0
 1020 008c 00       		.byte	0
 1021 008d 0C       		.uleb128 0xc
 1022 008e 2E       		.uleb128 0x2e
 1023 008f 01       		.byte	0x1
 1024 0090 3F       		.uleb128 0x3f
 1025 0091 19       		.uleb128 0x19
 1026 0092 03       		.uleb128 0x3
ARM GAS  /var/folders/6q/x_mk5n_j3p7_c40r_2k_78980000gn/T//ccdMk5hY.s 			page 19


 1027 0093 0E       		.uleb128 0xe
 1028 0094 3A       		.uleb128 0x3a
 1029 0095 0B       		.uleb128 0xb
 1030 0096 3B       		.uleb128 0x3b
 1031 0097 0B       		.uleb128 0xb
 1032 0098 27       		.uleb128 0x27
 1033 0099 19       		.uleb128 0x19
 1034 009a 49       		.uleb128 0x49
 1035 009b 13       		.uleb128 0x13
 1036 009c 20       		.uleb128 0x20
 1037 009d 0B       		.uleb128 0xb
 1038 009e 01       		.uleb128 0x1
 1039 009f 13       		.uleb128 0x13
 1040 00a0 00       		.byte	0
 1041 00a1 00       		.byte	0
 1042 00a2 0D       		.uleb128 0xd
 1043 00a3 34       		.uleb128 0x34
 1044 00a4 00       		.byte	0
 1045 00a5 03       		.uleb128 0x3
 1046 00a6 0E       		.uleb128 0xe
 1047 00a7 3A       		.uleb128 0x3a
 1048 00a8 0B       		.uleb128 0xb
 1049 00a9 3B       		.uleb128 0x3b
 1050 00aa 0B       		.uleb128 0xb
 1051 00ab 49       		.uleb128 0x49
 1052 00ac 13       		.uleb128 0x13
 1053 00ad 00       		.byte	0
 1054 00ae 00       		.byte	0
 1055 00af 0E       		.uleb128 0xe
 1056 00b0 2E       		.uleb128 0x2e
 1057 00b1 01       		.byte	0x1
 1058 00b2 31       		.uleb128 0x31
 1059 00b3 13       		.uleb128 0x13
 1060 00b4 11       		.uleb128 0x11
 1061 00b5 01       		.uleb128 0x1
 1062 00b6 12       		.uleb128 0x12
 1063 00b7 06       		.uleb128 0x6
 1064 00b8 40       		.uleb128 0x40
 1065 00b9 18       		.uleb128 0x18
 1066 00ba 9742     		.uleb128 0x2117
 1067 00bc 19       		.uleb128 0x19
 1068 00bd 01       		.uleb128 0x1
 1069 00be 13       		.uleb128 0x13
 1070 00bf 00       		.byte	0
 1071 00c0 00       		.byte	0
 1072 00c1 0F       		.uleb128 0xf
 1073 00c2 34       		.uleb128 0x34
 1074 00c3 00       		.byte	0
 1075 00c4 31       		.uleb128 0x31
 1076 00c5 13       		.uleb128 0x13
 1077 00c6 02       		.uleb128 0x2
 1078 00c7 17       		.uleb128 0x17
 1079 00c8 00       		.byte	0
 1080 00c9 00       		.byte	0
 1081 00ca 10       		.uleb128 0x10
 1082 00cb 0B       		.uleb128 0xb
 1083 00cc 01       		.byte	0x1
ARM GAS  /var/folders/6q/x_mk5n_j3p7_c40r_2k_78980000gn/T//ccdMk5hY.s 			page 20


 1084 00cd 11       		.uleb128 0x11
 1085 00ce 01       		.uleb128 0x1
 1086 00cf 12       		.uleb128 0x12
 1087 00d0 06       		.uleb128 0x6
 1088 00d1 00       		.byte	0
 1089 00d2 00       		.byte	0
 1090 00d3 11       		.uleb128 0x11
 1091 00d4 34       		.uleb128 0x34
 1092 00d5 00       		.byte	0
 1093 00d6 31       		.uleb128 0x31
 1094 00d7 13       		.uleb128 0x13
 1095 00d8 00       		.byte	0
 1096 00d9 00       		.byte	0
 1097 00da 12       		.uleb128 0x12
 1098 00db 2E       		.uleb128 0x2e
 1099 00dc 01       		.byte	0x1
 1100 00dd 3F       		.uleb128 0x3f
 1101 00de 19       		.uleb128 0x19
 1102 00df 03       		.uleb128 0x3
 1103 00e0 0E       		.uleb128 0xe
 1104 00e1 3A       		.uleb128 0x3a
 1105 00e2 0B       		.uleb128 0xb
 1106 00e3 3B       		.uleb128 0x3b
 1107 00e4 0B       		.uleb128 0xb
 1108 00e5 27       		.uleb128 0x27
 1109 00e6 19       		.uleb128 0x19
 1110 00e7 49       		.uleb128 0x49
 1111 00e8 13       		.uleb128 0x13
 1112 00e9 11       		.uleb128 0x11
 1113 00ea 01       		.uleb128 0x1
 1114 00eb 12       		.uleb128 0x12
 1115 00ec 06       		.uleb128 0x6
 1116 00ed 40       		.uleb128 0x40
 1117 00ee 18       		.uleb128 0x18
 1118 00ef 9742     		.uleb128 0x2117
 1119 00f1 19       		.uleb128 0x19
 1120 00f2 01       		.uleb128 0x1
 1121 00f3 13       		.uleb128 0x13
 1122 00f4 00       		.byte	0
 1123 00f5 00       		.byte	0
 1124 00f6 13       		.uleb128 0x13
 1125 00f7 05       		.uleb128 0x5
 1126 00f8 00       		.byte	0
 1127 00f9 03       		.uleb128 0x3
 1128 00fa 0E       		.uleb128 0xe
 1129 00fb 3A       		.uleb128 0x3a
 1130 00fc 0B       		.uleb128 0xb
 1131 00fd 3B       		.uleb128 0x3b
 1132 00fe 0B       		.uleb128 0xb
 1133 00ff 49       		.uleb128 0x49
 1134 0100 13       		.uleb128 0x13
 1135 0101 02       		.uleb128 0x2
 1136 0102 17       		.uleb128 0x17
 1137 0103 00       		.byte	0
 1138 0104 00       		.byte	0
 1139 0105 14       		.uleb128 0x14
 1140 0106 34       		.uleb128 0x34
ARM GAS  /var/folders/6q/x_mk5n_j3p7_c40r_2k_78980000gn/T//ccdMk5hY.s 			page 21


 1141 0107 00       		.byte	0
 1142 0108 03       		.uleb128 0x3
 1143 0109 0E       		.uleb128 0xe
 1144 010a 3A       		.uleb128 0x3a
 1145 010b 0B       		.uleb128 0xb
 1146 010c 3B       		.uleb128 0x3b
 1147 010d 0B       		.uleb128 0xb
 1148 010e 49       		.uleb128 0x49
 1149 010f 13       		.uleb128 0x13
 1150 0110 02       		.uleb128 0x2
 1151 0111 17       		.uleb128 0x17
 1152 0112 00       		.byte	0
 1153 0113 00       		.byte	0
 1154 0114 15       		.uleb128 0x15
 1155 0115 898201   		.uleb128 0x4109
 1156 0118 00       		.byte	0
 1157 0119 11       		.uleb128 0x11
 1158 011a 01       		.uleb128 0x1
 1159 011b 31       		.uleb128 0x31
 1160 011c 13       		.uleb128 0x13
 1161 011d 00       		.byte	0
 1162 011e 00       		.byte	0
 1163 011f 16       		.uleb128 0x16
 1164 0120 898201   		.uleb128 0x4109
 1165 0123 01       		.byte	0x1
 1166 0124 11       		.uleb128 0x11
 1167 0125 01       		.uleb128 0x1
 1168 0126 31       		.uleb128 0x31
 1169 0127 13       		.uleb128 0x13
 1170 0128 01       		.uleb128 0x1
 1171 0129 13       		.uleb128 0x13
 1172 012a 00       		.byte	0
 1173 012b 00       		.byte	0
 1174 012c 17       		.uleb128 0x17
 1175 012d 8A8201   		.uleb128 0x410a
 1176 0130 00       		.byte	0
 1177 0131 02       		.uleb128 0x2
 1178 0132 18       		.uleb128 0x18
 1179 0133 9142     		.uleb128 0x2111
 1180 0135 18       		.uleb128 0x18
 1181 0136 00       		.byte	0
 1182 0137 00       		.byte	0
 1183 0138 18       		.uleb128 0x18
 1184 0139 898201   		.uleb128 0x4109
 1185 013c 01       		.byte	0x1
 1186 013d 11       		.uleb128 0x11
 1187 013e 01       		.uleb128 0x1
 1188 013f 31       		.uleb128 0x31
 1189 0140 13       		.uleb128 0x13
 1190 0141 00       		.byte	0
 1191 0142 00       		.byte	0
 1192 0143 19       		.uleb128 0x19
 1193 0144 2E       		.uleb128 0x2e
 1194 0145 01       		.byte	0x1
 1195 0146 3F       		.uleb128 0x3f
 1196 0147 19       		.uleb128 0x19
 1197 0148 03       		.uleb128 0x3
ARM GAS  /var/folders/6q/x_mk5n_j3p7_c40r_2k_78980000gn/T//ccdMk5hY.s 			page 22


 1198 0149 0E       		.uleb128 0xe
 1199 014a 3A       		.uleb128 0x3a
 1200 014b 0B       		.uleb128 0xb
 1201 014c 3B       		.uleb128 0x3b
 1202 014d 0B       		.uleb128 0xb
 1203 014e 27       		.uleb128 0x27
 1204 014f 19       		.uleb128 0x19
 1205 0150 11       		.uleb128 0x11
 1206 0151 01       		.uleb128 0x1
 1207 0152 12       		.uleb128 0x12
 1208 0153 06       		.uleb128 0x6
 1209 0154 40       		.uleb128 0x40
 1210 0155 18       		.uleb128 0x18
 1211 0156 9742     		.uleb128 0x2117
 1212 0158 19       		.uleb128 0x19
 1213 0159 01       		.uleb128 0x1
 1214 015a 13       		.uleb128 0x13
 1215 015b 00       		.byte	0
 1216 015c 00       		.byte	0
 1217 015d 1A       		.uleb128 0x1a
 1218 015e 05       		.uleb128 0x5
 1219 015f 00       		.byte	0
 1220 0160 03       		.uleb128 0x3
 1221 0161 0E       		.uleb128 0xe
 1222 0162 3A       		.uleb128 0x3a
 1223 0163 0B       		.uleb128 0xb
 1224 0164 3B       		.uleb128 0x3b
 1225 0165 0B       		.uleb128 0xb
 1226 0166 49       		.uleb128 0x49
 1227 0167 13       		.uleb128 0x13
 1228 0168 02       		.uleb128 0x2
 1229 0169 18       		.uleb128 0x18
 1230 016a 00       		.byte	0
 1231 016b 00       		.byte	0
 1232 016c 1B       		.uleb128 0x1b
 1233 016d 34       		.uleb128 0x34
 1234 016e 00       		.byte	0
 1235 016f 03       		.uleb128 0x3
 1236 0170 08       		.uleb128 0x8
 1237 0171 3A       		.uleb128 0x3a
 1238 0172 0B       		.uleb128 0xb
 1239 0173 3B       		.uleb128 0x3b
 1240 0174 0B       		.uleb128 0xb
 1241 0175 49       		.uleb128 0x49
 1242 0176 13       		.uleb128 0x13
 1243 0177 02       		.uleb128 0x2
 1244 0178 18       		.uleb128 0x18
 1245 0179 00       		.byte	0
 1246 017a 00       		.byte	0
 1247 017b 1C       		.uleb128 0x1c
 1248 017c 2E       		.uleb128 0x2e
 1249 017d 01       		.byte	0x1
 1250 017e 3F       		.uleb128 0x3f
 1251 017f 19       		.uleb128 0x19
 1252 0180 03       		.uleb128 0x3
 1253 0181 0E       		.uleb128 0xe
 1254 0182 3A       		.uleb128 0x3a
ARM GAS  /var/folders/6q/x_mk5n_j3p7_c40r_2k_78980000gn/T//ccdMk5hY.s 			page 23


 1255 0183 0B       		.uleb128 0xb
 1256 0184 3B       		.uleb128 0x3b
 1257 0185 05       		.uleb128 0x5
 1258 0186 27       		.uleb128 0x27
 1259 0187 19       		.uleb128 0x19
 1260 0188 49       		.uleb128 0x49
 1261 0189 13       		.uleb128 0x13
 1262 018a 11       		.uleb128 0x11
 1263 018b 01       		.uleb128 0x1
 1264 018c 12       		.uleb128 0x12
 1265 018d 06       		.uleb128 0x6
 1266 018e 40       		.uleb128 0x40
 1267 018f 18       		.uleb128 0x18
 1268 0190 9742     		.uleb128 0x2117
 1269 0192 19       		.uleb128 0x19
 1270 0193 01       		.uleb128 0x1
 1271 0194 13       		.uleb128 0x13
 1272 0195 00       		.byte	0
 1273 0196 00       		.byte	0
 1274 0197 1D       		.uleb128 0x1d
 1275 0198 05       		.uleb128 0x5
 1276 0199 00       		.byte	0
 1277 019a 03       		.uleb128 0x3
 1278 019b 0E       		.uleb128 0xe
 1279 019c 3A       		.uleb128 0x3a
 1280 019d 0B       		.uleb128 0xb
 1281 019e 3B       		.uleb128 0x3b
 1282 019f 05       		.uleb128 0x5
 1283 01a0 49       		.uleb128 0x49
 1284 01a1 13       		.uleb128 0x13
 1285 01a2 02       		.uleb128 0x2
 1286 01a3 17       		.uleb128 0x17
 1287 01a4 00       		.byte	0
 1288 01a5 00       		.byte	0
 1289 01a6 1E       		.uleb128 0x1e
 1290 01a7 34       		.uleb128 0x34
 1291 01a8 00       		.byte	0
 1292 01a9 03       		.uleb128 0x3
 1293 01aa 0E       		.uleb128 0xe
 1294 01ab 3A       		.uleb128 0x3a
 1295 01ac 0B       		.uleb128 0xb
 1296 01ad 3B       		.uleb128 0x3b
 1297 01ae 05       		.uleb128 0x5
 1298 01af 49       		.uleb128 0x49
 1299 01b0 13       		.uleb128 0x13
 1300 01b1 02       		.uleb128 0x2
 1301 01b2 17       		.uleb128 0x17
 1302 01b3 00       		.byte	0
 1303 01b4 00       		.byte	0
 1304 01b5 1F       		.uleb128 0x1f
 1305 01b6 2E       		.uleb128 0x2e
 1306 01b7 00       		.byte	0
 1307 01b8 3F       		.uleb128 0x3f
 1308 01b9 19       		.uleb128 0x19
 1309 01ba 03       		.uleb128 0x3
 1310 01bb 0E       		.uleb128 0xe
 1311 01bc 3A       		.uleb128 0x3a
ARM GAS  /var/folders/6q/x_mk5n_j3p7_c40r_2k_78980000gn/T//ccdMk5hY.s 			page 24


 1312 01bd 0B       		.uleb128 0xb
 1313 01be 3B       		.uleb128 0x3b
 1314 01bf 05       		.uleb128 0x5
 1315 01c0 27       		.uleb128 0x27
 1316 01c1 19       		.uleb128 0x19
 1317 01c2 11       		.uleb128 0x11
 1318 01c3 01       		.uleb128 0x1
 1319 01c4 12       		.uleb128 0x12
 1320 01c5 06       		.uleb128 0x6
 1321 01c6 40       		.uleb128 0x40
 1322 01c7 18       		.uleb128 0x18
 1323 01c8 9742     		.uleb128 0x2117
 1324 01ca 19       		.uleb128 0x19
 1325 01cb 00       		.byte	0
 1326 01cc 00       		.byte	0
 1327 01cd 20       		.uleb128 0x20
 1328 01ce 34       		.uleb128 0x34
 1329 01cf 00       		.byte	0
 1330 01d0 03       		.uleb128 0x3
 1331 01d1 0E       		.uleb128 0xe
 1332 01d2 3A       		.uleb128 0x3a
 1333 01d3 0B       		.uleb128 0xb
 1334 01d4 3B       		.uleb128 0x3b
 1335 01d5 05       		.uleb128 0x5
 1336 01d6 49       		.uleb128 0x49
 1337 01d7 13       		.uleb128 0x13
 1338 01d8 3F       		.uleb128 0x3f
 1339 01d9 19       		.uleb128 0x19
 1340 01da 3C       		.uleb128 0x3c
 1341 01db 19       		.uleb128 0x19
 1342 01dc 00       		.byte	0
 1343 01dd 00       		.byte	0
 1344 01de 00       		.byte	0
 1345              		.section	.debug_loc,"",%progbits
 1346              	.Ldebug_loc0:
 1347              	.LLST0:
 1348 0000 00000000 		.4byte	.LVL0
 1349 0004 10000000 		.4byte	.LVL1
 1350 0008 0200     		.2byte	0x2
 1351 000a 34       		.byte	0x34
 1352 000b 9F       		.byte	0x9f
 1353 000c 10000000 		.4byte	.LVL1
 1354 0010 12000000 		.4byte	.LVL2
 1355 0014 0100     		.2byte	0x1
 1356 0016 50       		.byte	0x50
 1357 0017 12000000 		.4byte	.LVL2
 1358 001b 28000000 		.4byte	.LFE56
 1359 001f 0200     		.2byte	0x2
 1360 0021 34       		.byte	0x34
 1361 0022 9F       		.byte	0x9f
 1362 0023 00000000 		.4byte	0
 1363 0027 00000000 		.4byte	0
 1364              	.LLST1:
 1365 002b 00000000 		.4byte	.LVL3
 1366 002f 07000000 		.4byte	.LVL4-1
 1367 0033 0100     		.2byte	0x1
 1368 0035 50       		.byte	0x50
ARM GAS  /var/folders/6q/x_mk5n_j3p7_c40r_2k_78980000gn/T//ccdMk5hY.s 			page 25


 1369 0036 07000000 		.4byte	.LVL4-1
 1370 003a 22000000 		.4byte	.LFE57
 1371 003e 0100     		.2byte	0x1
 1372 0040 54       		.byte	0x54
 1373 0041 00000000 		.4byte	0
 1374 0045 00000000 		.4byte	0
 1375              	.LLST2:
 1376 0049 00000000 		.4byte	.LVL3
 1377 004d 08000000 		.4byte	.LVL4
 1378 0051 0200     		.2byte	0x2
 1379 0053 34       		.byte	0x34
 1380 0054 9F       		.byte	0x9f
 1381 0055 08000000 		.4byte	.LVL4
 1382 0059 0E000000 		.4byte	.LVL5
 1383 005d 0100     		.2byte	0x1
 1384 005f 50       		.byte	0x50
 1385 0060 0E000000 		.4byte	.LVL5
 1386 0064 12000000 		.4byte	.LVL6
 1387 0068 0200     		.2byte	0x2
 1388 006a 31       		.byte	0x31
 1389 006b 9F       		.byte	0x9f
 1390 006c 12000000 		.4byte	.LVL6
 1391 0070 1E000000 		.4byte	.LVL8
 1392 0074 0100     		.2byte	0x1
 1393 0076 50       		.byte	0x50
 1394 0077 1E000000 		.4byte	.LVL8
 1395 007b 20000000 		.4byte	.LVL9
 1396 007f 0200     		.2byte	0x2
 1397 0081 35       		.byte	0x35
 1398 0082 9F       		.byte	0x9f
 1399 0083 20000000 		.4byte	.LVL9
 1400 0087 22000000 		.4byte	.LFE57
 1401 008b 0100     		.2byte	0x1
 1402 008d 50       		.byte	0x50
 1403 008e 00000000 		.4byte	0
 1404 0092 00000000 		.4byte	0
 1405              	.LLST3:
 1406 0096 00000000 		.4byte	.LVL10
 1407 009a 08000000 		.4byte	.LVL11
 1408 009e 0100     		.2byte	0x1
 1409 00a0 50       		.byte	0x50
 1410 00a1 08000000 		.4byte	.LVL11
 1411 00a5 3A000000 		.4byte	.LVL16
 1412 00a9 0100     		.2byte	0x1
 1413 00ab 55       		.byte	0x55
 1414 00ac 3A000000 		.4byte	.LVL16
 1415 00b0 40000000 		.4byte	.LFE58
 1416 00b4 0400     		.2byte	0x4
 1417 00b6 F3       		.byte	0xf3
 1418 00b7 01       		.uleb128 0x1
 1419 00b8 50       		.byte	0x50
 1420 00b9 9F       		.byte	0x9f
 1421 00ba 00000000 		.4byte	0
 1422 00be 00000000 		.4byte	0
 1423              	.LLST4:
 1424 00c2 00000000 		.4byte	.LVL10
 1425 00c6 0C000000 		.4byte	.LVL12
ARM GAS  /var/folders/6q/x_mk5n_j3p7_c40r_2k_78980000gn/T//ccdMk5hY.s 			page 26


 1426 00ca 0200     		.2byte	0x2
 1427 00cc 34       		.byte	0x34
 1428 00cd 9F       		.byte	0x9f
 1429 00ce 0C000000 		.4byte	.LVL12
 1430 00d2 18000000 		.4byte	.LVL14
 1431 00d6 0100     		.2byte	0x1
 1432 00d8 50       		.byte	0x50
 1433 00d9 2E000000 		.4byte	.LVL15
 1434 00dd 40000000 		.4byte	.LFE58
 1435 00e1 0100     		.2byte	0x1
 1436 00e3 50       		.byte	0x50
 1437 00e4 00000000 		.4byte	0
 1438 00e8 00000000 		.4byte	0
 1439              	.LLST5:
 1440 00ec 00000000 		.4byte	.LVL18
 1441 00f0 0C000000 		.4byte	.LVL19
 1442 00f4 0100     		.2byte	0x1
 1443 00f6 50       		.byte	0x50
 1444 00f7 0C000000 		.4byte	.LVL19
 1445 00fb 18000000 		.4byte	.LVL21
 1446 00ff 0100     		.2byte	0x1
 1447 0101 55       		.byte	0x55
 1448 0102 18000000 		.4byte	.LVL21
 1449 0106 1C000000 		.4byte	.LVL22
 1450 010a 0400     		.2byte	0x4
 1451 010c F3       		.byte	0xf3
 1452 010d 01       		.uleb128 0x1
 1453 010e 50       		.byte	0x50
 1454 010f 9F       		.byte	0x9f
 1455 0110 1C000000 		.4byte	.LVL22
 1456 0114 46000000 		.4byte	.LVL26
 1457 0118 0100     		.2byte	0x1
 1458 011a 55       		.byte	0x55
 1459 011b 46000000 		.4byte	.LVL26
 1460 011f 68000000 		.4byte	.LFE60
 1461 0123 0300     		.2byte	0x3
 1462 0125 75       		.byte	0x75
 1463 0126 7E       		.sleb128 -2
 1464 0127 9F       		.byte	0x9f
 1465 0128 00000000 		.4byte	0
 1466 012c 00000000 		.4byte	0
 1467              	.LLST6:
 1468 0130 00000000 		.4byte	.LVL18
 1469 0134 13000000 		.4byte	.LVL20-1
 1470 0138 0100     		.2byte	0x1
 1471 013a 51       		.byte	0x51
 1472 013b 13000000 		.4byte	.LVL20-1
 1473 013f 18000000 		.4byte	.LVL21
 1474 0143 0100     		.2byte	0x1
 1475 0145 54       		.byte	0x54
 1476 0146 18000000 		.4byte	.LVL21
 1477 014a 1C000000 		.4byte	.LVL22
 1478 014e 0400     		.2byte	0x4
 1479 0150 F3       		.byte	0xf3
 1480 0151 01       		.uleb128 0x1
 1481 0152 51       		.byte	0x51
 1482 0153 9F       		.byte	0x9f
ARM GAS  /var/folders/6q/x_mk5n_j3p7_c40r_2k_78980000gn/T//ccdMk5hY.s 			page 27


 1483 0154 1C000000 		.4byte	.LVL22
 1484 0158 4C000000 		.4byte	.LVL27
 1485 015c 0100     		.2byte	0x1
 1486 015e 54       		.byte	0x54
 1487 015f 4C000000 		.4byte	.LVL27
 1488 0163 68000000 		.4byte	.LFE60
 1489 0167 0400     		.2byte	0x4
 1490 0169 F3       		.byte	0xf3
 1491 016a 01       		.uleb128 0x1
 1492 016b 51       		.byte	0x51
 1493 016c 9F       		.byte	0x9f
 1494 016d 00000000 		.4byte	0
 1495 0171 00000000 		.4byte	0
 1496              	.LLST7:
 1497 0175 00000000 		.4byte	.LVL18
 1498 0179 14000000 		.4byte	.LVL20
 1499 017d 0200     		.2byte	0x2
 1500 017f 34       		.byte	0x34
 1501 0180 9F       		.byte	0x9f
 1502 0181 14000000 		.4byte	.LVL20
 1503 0185 26000000 		.4byte	.LVL23
 1504 0189 0100     		.2byte	0x1
 1505 018b 50       		.byte	0x50
 1506 018c 32000000 		.4byte	.LVL24
 1507 0190 52000000 		.4byte	.LVL28
 1508 0194 0100     		.2byte	0x1
 1509 0196 50       		.byte	0x50
 1510 0197 56000000 		.4byte	.LVL29
 1511 019b 68000000 		.4byte	.LFE60
 1512 019f 0100     		.2byte	0x1
 1513 01a1 50       		.byte	0x50
 1514 01a2 00000000 		.4byte	0
 1515 01a6 00000000 		.4byte	0
 1516              	.LLST8:
 1517 01aa 00000000 		.4byte	.LVL30
 1518 01ae 08000000 		.4byte	.LVL31
 1519 01b2 0100     		.2byte	0x1
 1520 01b4 50       		.byte	0x50
 1521 01b5 08000000 		.4byte	.LVL31
 1522 01b9 34000000 		.4byte	.LVL36
 1523 01bd 0100     		.2byte	0x1
 1524 01bf 54       		.byte	0x54
 1525 01c0 34000000 		.4byte	.LVL36
 1526 01c4 38000000 		.4byte	.LFE61
 1527 01c8 0400     		.2byte	0x4
 1528 01ca F3       		.byte	0xf3
 1529 01cb 01       		.uleb128 0x1
 1530 01cc 50       		.byte	0x50
 1531 01cd 9F       		.byte	0x9f
 1532 01ce 00000000 		.4byte	0
 1533 01d2 00000000 		.4byte	0
 1534              	.LLST9:
 1535 01d6 00000000 		.4byte	.LVL30
 1536 01da 0D000000 		.4byte	.LVL32-1
 1537 01de 0100     		.2byte	0x1
 1538 01e0 51       		.byte	0x51
 1539 01e1 0D000000 		.4byte	.LVL32-1
ARM GAS  /var/folders/6q/x_mk5n_j3p7_c40r_2k_78980000gn/T//ccdMk5hY.s 			page 28


 1540 01e5 38000000 		.4byte	.LFE61
 1541 01e9 0400     		.2byte	0x4
 1542 01eb F3       		.byte	0xf3
 1543 01ec 01       		.uleb128 0x1
 1544 01ed 51       		.byte	0x51
 1545 01ee 9F       		.byte	0x9f
 1546 01ef 00000000 		.4byte	0
 1547 01f3 00000000 		.4byte	0
 1548              	.LLST10:
 1549 01f7 00000000 		.4byte	.LVL30
 1550 01fb 0E000000 		.4byte	.LVL32
 1551 01ff 0200     		.2byte	0x2
 1552 0201 34       		.byte	0x34
 1553 0202 9F       		.byte	0x9f
 1554 0203 0E000000 		.4byte	.LVL32
 1555 0207 1A000000 		.4byte	.LVL34
 1556 020b 0100     		.2byte	0x1
 1557 020d 50       		.byte	0x50
 1558 020e 28000000 		.4byte	.LVL35
 1559 0212 38000000 		.4byte	.LFE61
 1560 0216 0100     		.2byte	0x1
 1561 0218 50       		.byte	0x50
 1562 0219 00000000 		.4byte	0
 1563 021d 00000000 		.4byte	0
 1564              		.section	.debug_aranges,"",%progbits
 1565 0000 4C000000 		.4byte	0x4c
 1566 0004 0200     		.2byte	0x2
 1567 0006 00000000 		.4byte	.Ldebug_info0
 1568 000a 04       		.byte	0x4
 1569 000b 00       		.byte	0
 1570 000c 0000     		.2byte	0
 1571 000e 0000     		.2byte	0
 1572 0010 00000000 		.4byte	.LFB56
 1573 0014 28000000 		.4byte	.LFE56-.LFB56
 1574 0018 00000000 		.4byte	.LFB57
 1575 001c 22000000 		.4byte	.LFE57-.LFB57
 1576 0020 00000000 		.4byte	.LFB58
 1577 0024 40000000 		.4byte	.LFE58-.LFB58
 1578 0028 00000000 		.4byte	.LFB59
 1579 002c 0C000000 		.4byte	.LFE59-.LFB59
 1580 0030 00000000 		.4byte	.LFB60
 1581 0034 68000000 		.4byte	.LFE60-.LFB60
 1582 0038 00000000 		.4byte	.LFB61
 1583 003c 38000000 		.4byte	.LFE61-.LFB61
 1584 0040 00000000 		.4byte	.LFB62
 1585 0044 18000000 		.4byte	.LFE62-.LFB62
 1586 0048 00000000 		.4byte	0
 1587 004c 00000000 		.4byte	0
 1588              		.section	.debug_ranges,"",%progbits
 1589              	.Ldebug_ranges0:
 1590 0000 00000000 		.4byte	.LFB56
 1591 0004 28000000 		.4byte	.LFE56
 1592 0008 00000000 		.4byte	.LFB57
 1593 000c 22000000 		.4byte	.LFE57
 1594 0010 00000000 		.4byte	.LFB58
 1595 0014 40000000 		.4byte	.LFE58
 1596 0018 00000000 		.4byte	.LFB59
ARM GAS  /var/folders/6q/x_mk5n_j3p7_c40r_2k_78980000gn/T//ccdMk5hY.s 			page 29


 1597 001c 0C000000 		.4byte	.LFE59
 1598 0020 00000000 		.4byte	.LFB60
 1599 0024 68000000 		.4byte	.LFE60
 1600 0028 00000000 		.4byte	.LFB61
 1601 002c 38000000 		.4byte	.LFE61
 1602 0030 00000000 		.4byte	.LFB62
 1603 0034 18000000 		.4byte	.LFE62
 1604 0038 00000000 		.4byte	0
 1605 003c 00000000 		.4byte	0
 1606              		.section	.debug_line,"",%progbits
 1607              	.Ldebug_line0:
 1608 0000 6B020000 		.section	.debug_str,"MS",%progbits,1
 1608      02009401 
 1608      00000201 
 1608      FB0E0D00 
 1608      01010101 
 1609              	.LASF36:
 1610 0000 464C4153 		.ascii	"FLASH_ProgramHalfWord\000"
 1610      485F5072 
 1610      6F677261 
 1610      6D48616C 
 1610      66576F72 
 1611              	.LASF30:
 1612 0016 50616765 		.ascii	"Page_Address\000"
 1612      5F416464 
 1612      72657373 
 1612      00
 1613              	.LASF35:
 1614 0023 44617461 		.ascii	"Data\000"
 1614      00
 1615              	.LASF20:
 1616 0028 464C4153 		.ascii	"FLASH_TypeDef\000"
 1616      485F5479 
 1616      70654465 
 1616      6600
 1617              	.LASF24:
 1618 0036 464C4153 		.ascii	"FLASH_COMPLETE\000"
 1618      485F434F 
 1618      4D504C45 
 1618      544500
 1619              	.LASF5:
 1620 0045 5F5F696E 		.ascii	"__int32_t\000"
 1620      7433325F 
 1620      7400
 1621              	.LASF6:
 1622 004f 6C6F6E67 		.ascii	"long int\000"
 1622      20696E74 
 1622      00
 1623              	.LASF42:
 1624 0058 464C4153 		.ascii	"FLASH_ClearFlag\000"
 1624      485F436C 
 1624      65617246 
 1624      6C616700 
 1625              	.LASF33:
 1626 0068 464C4153 		.ascii	"FLASH_ProgramWord\000"
 1626      485F5072 
 1626      6F677261 
ARM GAS  /var/folders/6q/x_mk5n_j3p7_c40r_2k_78980000gn/T//ccdMk5hY.s 			page 30


 1626      6D576F72 
 1626      6400
 1627              	.LASF31:
 1628 007a 73746174 		.ascii	"status\000"
 1628      757300
 1629              	.LASF38:
 1630 0081 2E2E2F63 		.ascii	"../convex-vexilla/cortex/opt/stm32_flash.c\000"
 1630      6F6E7665 
 1630      782D7665 
 1630      78696C6C 
 1630      612F636F 
 1631              	.LASF27:
 1632 00ac 464C4153 		.ascii	"FLASH_WaitForLastOperation\000"
 1632      485F5761 
 1632      6974466F 
 1632      724C6173 
 1632      744F7065 
 1633              	.LASF32:
 1634 00c7 464C4153 		.ascii	"FLASH_FLAG\000"
 1634      485F464C 
 1634      414700
 1635              	.LASF0:
 1636 00d2 7369676E 		.ascii	"signed char\000"
 1636      65642063 
 1636      68617200 
 1637              	.LASF7:
 1638 00de 5F5F7569 		.ascii	"__uint32_t\000"
 1638      6E743332 
 1638      5F7400
 1639              	.LASF8:
 1640 00e9 6C6F6E67 		.ascii	"long unsigned int\000"
 1640      20756E73 
 1640      69676E65 
 1640      6420696E 
 1640      7400
 1641              	.LASF3:
 1642 00fb 73686F72 		.ascii	"short unsigned int\000"
 1642      7420756E 
 1642      7369676E 
 1642      65642069 
 1642      6E7400
 1643              	.LASF40:
 1644 010e 464C4153 		.ascii	"FLASH_GetBank1Status\000"
 1644      485F4765 
 1644      7442616E 
 1644      6B315374 
 1644      61747573 
 1645              	.LASF44:
 1646 0123 49544D5F 		.ascii	"ITM_RxBuffer\000"
 1646      52784275 
 1646      66666572 
 1646      00
 1647              	.LASF28:
 1648 0130 464C4153 		.ascii	"FLASH_ErasePage\000"
 1648      485F4572 
 1648      61736550 
 1648      61676500 
ARM GAS  /var/folders/6q/x_mk5n_j3p7_c40r_2k_78980000gn/T//ccdMk5hY.s 			page 31


 1649              	.LASF17:
 1650 0140 4F50544B 		.ascii	"OPTKEYR\000"
 1650      45595200 
 1651              	.LASF1:
 1652 0148 756E7369 		.ascii	"unsigned char\000"
 1652      676E6564 
 1652      20636861 
 1652      7200
 1653              	.LASF4:
 1654 0156 5F5F7569 		.ascii	"__uint16_t\000"
 1654      6E743136 
 1654      5F7400
 1655              	.LASF18:
 1656 0161 52455345 		.ascii	"RESERVED\000"
 1656      52564544 
 1656      00
 1657              	.LASF22:
 1658 016a 464C4153 		.ascii	"FLASH_ERROR_PG\000"
 1658      485F4552 
 1658      524F525F 
 1658      504700
 1659              	.LASF11:
 1660 0179 756E7369 		.ascii	"unsigned int\000"
 1660      676E6564 
 1660      20696E74 
 1660      00
 1661              	.LASF43:
 1662 0186 464C4153 		.ascii	"FLASH_UnlockBank1\000"
 1662      485F556E 
 1662      6C6F636B 
 1662      42616E6B 
 1662      3100
 1663              	.LASF10:
 1664 0198 6C6F6E67 		.ascii	"long long unsigned int\000"
 1664      206C6F6E 
 1664      6720756E 
 1664      7369676E 
 1664      65642069 
 1665              	.LASF23:
 1666 01af 464C4153 		.ascii	"FLASH_ERROR_WRP\000"
 1666      485F4552 
 1666      524F525F 
 1666      57525000 
 1667              	.LASF19:
 1668 01bf 57525052 		.ascii	"WRPR\000"
 1668      00
 1669              	.LASF37:
 1670 01c4 474E5520 		.ascii	"GNU C11 5.4.1 20160919 (release) [ARM/embedded-5-br"
 1670      43313120 
 1670      352E342E 
 1670      31203230 
 1670      31363039 
 1671 01f7 616E6368 		.ascii	"anch revision 240496] -mcpu=cortex-m3 -mno-thumb-in"
 1671      20726576 
 1671      6973696F 
 1671      6E203234 
 1671      30343936 
ARM GAS  /var/folders/6q/x_mk5n_j3p7_c40r_2k_78980000gn/T//ccdMk5hY.s 			page 32


 1672 022a 74657277 		.ascii	"terwork -mthumb -ggdb -O2 -fomit-frame-pointer -fal"
 1672      6F726B20 
 1672      2D6D7468 
 1672      756D6220 
 1672      2D676764 
 1673 025d 69676E2D 		.ascii	"ign-functions=16 -ffunction-sections -fdata-section"
 1673      66756E63 
 1673      74696F6E 
 1673      733D3136 
 1673      202D6666 
 1674 0290 73202D66 		.ascii	"s -fno-common\000"
 1674      6E6F2D63 
 1674      6F6D6D6F 
 1674      6E00
 1675              	.LASF13:
 1676 029e 696E7433 		.ascii	"int32_t\000"
 1676      325F7400 
 1677              	.LASF15:
 1678 02a6 73697A65 		.ascii	"sizetype\000"
 1678      74797065 
 1678      00
 1679              	.LASF9:
 1680 02af 6C6F6E67 		.ascii	"long long int\000"
 1680      206C6F6E 
 1680      6720696E 
 1680      7400
 1681              	.LASF26:
 1682 02bd 464C4153 		.ascii	"FLASH_Status\000"
 1682      485F5374 
 1682      61747573 
 1682      00
 1683              	.LASF2:
 1684 02ca 73686F72 		.ascii	"short int\000"
 1684      7420696E 
 1684      7400
 1685              	.LASF34:
 1686 02d4 41646472 		.ascii	"Address\000"
 1686      65737300 
 1687              	.LASF12:
 1688 02dc 75696E74 		.ascii	"uint16_t\000"
 1688      31365F74 
 1688      00
 1689              	.LASF14:
 1690 02e5 75696E74 		.ascii	"uint32_t\000"
 1690      33325F74 
 1690      00
 1691              	.LASF25:
 1692 02ee 464C4153 		.ascii	"FLASH_TIMEOUT\000"
 1692      485F5449 
 1692      4D454F55 
 1692      5400
 1693              	.LASF16:
 1694 02fc 4B455952 		.ascii	"KEYR\000"
 1694      00
 1695              	.LASF41:
 1696 0301 666C6173 		.ascii	"flashstatus\000"
 1696      68737461 
ARM GAS  /var/folders/6q/x_mk5n_j3p7_c40r_2k_78980000gn/T//ccdMk5hY.s 			page 33


 1696      74757300 
 1697              	.LASF21:
 1698 030d 464C4153 		.ascii	"FLASH_BUSY\000"
 1698      485F4255 
 1698      535900
 1699              	.LASF39:
 1700 0318 2F557365 		.ascii	"/Users/Luca/src/vexilla/src/teamA\000"
 1700      72732F4C 
 1700      7563612F 
 1700      7372632F 
 1700      76657869 
 1701              	.LASF29:
 1702 033a 54696D65 		.ascii	"Timeout\000"
 1702      6F757400 
 1703              		.ident	"GCC: (GNU Tools for ARM Embedded Processors) 5.4.1 20160919 (release) [ARM/embedded-5-bran
ARM GAS  /var/folders/6q/x_mk5n_j3p7_c40r_2k_78980000gn/T//ccdMk5hY.s 			page 34


DEFINED SYMBOLS
                            *ABS*:0000000000000000 stm32_flash.c
/var/folders/6q/x_mk5n_j3p7_c40r_2k_78980000gn/T//ccdMk5hY.s:20     .text.FLASH_GetBank1Status:0000000000000000 $t
/var/folders/6q/x_mk5n_j3p7_c40r_2k_78980000gn/T//ccdMk5hY.s:26     .text.FLASH_GetBank1Status:0000000000000000 FLASH_GetBank1Status
/var/folders/6q/x_mk5n_j3p7_c40r_2k_78980000gn/T//ccdMk5hY.s:70     .text.FLASH_GetBank1Status:0000000000000024 $d
/var/folders/6q/x_mk5n_j3p7_c40r_2k_78980000gn/T//ccdMk5hY.s:75     .text.FLASH_WaitForLastOperation:0000000000000000 $t
/var/folders/6q/x_mk5n_j3p7_c40r_2k_78980000gn/T//ccdMk5hY.s:81     .text.FLASH_WaitForLastOperation:0000000000000000 FLASH_WaitForLastOperation
/var/folders/6q/x_mk5n_j3p7_c40r_2k_78980000gn/T//ccdMk5hY.s:129    .text.FLASH_ErasePage:0000000000000000 $t
/var/folders/6q/x_mk5n_j3p7_c40r_2k_78980000gn/T//ccdMk5hY.s:135    .text.FLASH_ErasePage:0000000000000000 FLASH_ErasePage
/var/folders/6q/x_mk5n_j3p7_c40r_2k_78980000gn/T//ccdMk5hY.s:191    .text.FLASH_ErasePage:000000000000003c $d
/var/folders/6q/x_mk5n_j3p7_c40r_2k_78980000gn/T//ccdMk5hY.s:196    .text.FLASH_ClearFlag:0000000000000000 $t
/var/folders/6q/x_mk5n_j3p7_c40r_2k_78980000gn/T//ccdMk5hY.s:202    .text.FLASH_ClearFlag:0000000000000000 FLASH_ClearFlag
/var/folders/6q/x_mk5n_j3p7_c40r_2k_78980000gn/T//ccdMk5hY.s:217    .text.FLASH_ClearFlag:0000000000000008 $d
/var/folders/6q/x_mk5n_j3p7_c40r_2k_78980000gn/T//ccdMk5hY.s:222    .text.FLASH_ProgramWord:0000000000000000 $t
/var/folders/6q/x_mk5n_j3p7_c40r_2k_78980000gn/T//ccdMk5hY.s:228    .text.FLASH_ProgramWord:0000000000000000 FLASH_ProgramWord
/var/folders/6q/x_mk5n_j3p7_c40r_2k_78980000gn/T//ccdMk5hY.s:329    .text.FLASH_ProgramWord:0000000000000064 $d
/var/folders/6q/x_mk5n_j3p7_c40r_2k_78980000gn/T//ccdMk5hY.s:334    .text.FLASH_ProgramHalfWord:0000000000000000 $t
/var/folders/6q/x_mk5n_j3p7_c40r_2k_78980000gn/T//ccdMk5hY.s:340    .text.FLASH_ProgramHalfWord:0000000000000000 FLASH_ProgramHalfWord
/var/folders/6q/x_mk5n_j3p7_c40r_2k_78980000gn/T//ccdMk5hY.s:395    .text.FLASH_ProgramHalfWord:0000000000000034 $d
/var/folders/6q/x_mk5n_j3p7_c40r_2k_78980000gn/T//ccdMk5hY.s:400    .text.FLASH_UnlockBank1:0000000000000000 $t
/var/folders/6q/x_mk5n_j3p7_c40r_2k_78980000gn/T//ccdMk5hY.s:406    .text.FLASH_UnlockBank1:0000000000000000 FLASH_UnlockBank1
/var/folders/6q/x_mk5n_j3p7_c40r_2k_78980000gn/T//ccdMk5hY.s:426    .text.FLASH_UnlockBank1:000000000000000c $d
                     .debug_frame:0000000000000010 $d

NO UNDEFINED SYMBOLS
