ARM GAS  /var/folders/6q/x_mk5n_j3p7_c40r_2k_78980000gn/T//ccebEyhT.s 			page 1


   1              		.syntax unified
   2              		.cpu cortex-m3
   3              		.fpu softvfp
   4              		.eabi_attribute 20, 1
   5              		.eabi_attribute 21, 1
   6              		.eabi_attribute 23, 3
   7              		.eabi_attribute 24, 1
   8              		.eabi_attribute 25, 1
   9              		.eabi_attribute 26, 1
  10              		.eabi_attribute 30, 2
  11              		.eabi_attribute 34, 1
  12              		.eabi_attribute 18, 4
  13              		.thumb
  14              		.syntax unified
  15              		.file	"stm32_dma.c"
  16              		.text
  17              	.Ltext0:
  18              		.cfi_sections	.debug_frame
  19              		.section	.text.Vector6C,"ax",%progbits
  20              		.align	2
  21              		.p2align 4,,15
  22              		.global	Vector6C
  23              		.thumb
  24              		.thumb_func
  25              		.type	Vector6C, %function
  26              	Vector6C:
  27              	.LFB63:
  28              		.file 1 "../ChibiOS/os/hal/platforms/STM32F1xx/stm32_dma.c"
  29              		.loc 1 126 0
  30              		.cfi_startproc
  31              		@ args = 0, pretend = 0, frame = 0
  32              		@ frame_needed = 0, uses_anonymous_args = 0
  33 0000 08B5     		push	{r3, lr}
  34              		.cfi_def_cfa_offset 8
  35              		.cfi_offset 3, -8
  36              		.cfi_offset 14, -4
  37              		.loc 1 131 0
  38 0002 074B     		ldr	r3, .L8
  39              		.loc 1 133 0
  40 0004 074A     		ldr	r2, .L8+4
  41              		.loc 1 131 0
  42 0006 1968     		ldr	r1, [r3]
  43 0008 01F00F01 		and	r1, r1, #15
  44              	.LVL0:
  45              		.loc 1 132 0
  46 000c 5960     		str	r1, [r3, #4]
  47              		.loc 1 133 0
  48 000e 1368     		ldr	r3, [r2]
  49 0010 0BB1     		cbz	r3, .L2
  50              		.loc 1 134 0
  51 0012 5068     		ldr	r0, [r2, #4]
  52 0014 9847     		blx	r3
  53              	.LVL1:
  54              	.L2:
  55              		.loc 1 137 0
  56 0016 BDE80840 		pop	{r3, lr}
  57              		.cfi_restore 14
ARM GAS  /var/folders/6q/x_mk5n_j3p7_c40r_2k_78980000gn/T//ccebEyhT.s 			page 2


  58              		.cfi_restore 3
  59              		.cfi_def_cfa_offset 0
  60              		.loc 1 136 0
  61 001a FFF7FEBF 		b	_port_irq_epilogue
  62              	.LVL2:
  63              	.L9:
  64 001e 00BF     		.align	2
  65              	.L8:
  66 0020 00000240 		.word	1073872896
  67 0024 00000000 		.word	.LANCHOR0
  68              		.cfi_endproc
  69              	.LFE63:
  70              		.size	Vector6C, .-Vector6C
  71              		.section	.text.Vector70,"ax",%progbits
  72              		.align	2
  73              		.p2align 4,,15
  74              		.global	Vector70
  75              		.thumb
  76              		.thumb_func
  77              		.type	Vector70, %function
  78              	Vector70:
  79              	.LFB64:
  80              		.loc 1 144 0
  81              		.cfi_startproc
  82              		@ args = 0, pretend = 0, frame = 0
  83              		@ frame_needed = 0, uses_anonymous_args = 0
  84              		.loc 1 149 0
  85 0000 074B     		ldr	r3, .L16
  86              		.loc 1 151 0
  87 0002 0848     		ldr	r0, .L16+4
  88              		.loc 1 149 0
  89 0004 1968     		ldr	r1, [r3]
  90              		.loc 1 151 0
  91 0006 8268     		ldr	r2, [r0, #8]
  92              		.loc 1 149 0
  93 0008 C1F30311 		ubfx	r1, r1, #4, #4
  94              	.LVL3:
  95              		.loc 1 144 0
  96 000c 10B5     		push	{r4, lr}
  97              		.cfi_def_cfa_offset 8
  98              		.cfi_offset 4, -8
  99              		.cfi_offset 14, -4
 100              		.loc 1 150 0
 101 000e 0C01     		lsls	r4, r1, #4
 102 0010 5C60     		str	r4, [r3, #4]
 103              		.loc 1 151 0
 104 0012 0AB1     		cbz	r2, .L11
 105              		.loc 1 152 0
 106 0014 C068     		ldr	r0, [r0, #12]
 107 0016 9047     		blx	r2
 108              	.LVL4:
 109              	.L11:
 110              		.loc 1 155 0
 111 0018 BDE81040 		pop	{r4, lr}
 112              		.cfi_restore 14
 113              		.cfi_restore 4
 114              		.cfi_def_cfa_offset 0
ARM GAS  /var/folders/6q/x_mk5n_j3p7_c40r_2k_78980000gn/T//ccebEyhT.s 			page 3


 115              		.loc 1 154 0
 116 001c FFF7FEBF 		b	_port_irq_epilogue
 117              	.LVL5:
 118              	.L17:
 119              		.align	2
 120              	.L16:
 121 0020 00000240 		.word	1073872896
 122 0024 00000000 		.word	.LANCHOR0
 123              		.cfi_endproc
 124              	.LFE64:
 125              		.size	Vector70, .-Vector70
 126              		.section	.text.Vector74,"ax",%progbits
 127              		.align	2
 128              		.p2align 4,,15
 129              		.global	Vector74
 130              		.thumb
 131              		.thumb_func
 132              		.type	Vector74, %function
 133              	Vector74:
 134              	.LFB65:
 135              		.loc 1 162 0
 136              		.cfi_startproc
 137              		@ args = 0, pretend = 0, frame = 0
 138              		@ frame_needed = 0, uses_anonymous_args = 0
 139              		.loc 1 167 0
 140 0000 074B     		ldr	r3, .L24
 141              		.loc 1 169 0
 142 0002 0848     		ldr	r0, .L24+4
 143              		.loc 1 167 0
 144 0004 1968     		ldr	r1, [r3]
 145              		.loc 1 169 0
 146 0006 0269     		ldr	r2, [r0, #16]
 147              		.loc 1 167 0
 148 0008 C1F30321 		ubfx	r1, r1, #8, #4
 149              	.LVL6:
 150              		.loc 1 162 0
 151 000c 10B5     		push	{r4, lr}
 152              		.cfi_def_cfa_offset 8
 153              		.cfi_offset 4, -8
 154              		.cfi_offset 14, -4
 155              		.loc 1 168 0
 156 000e 0C02     		lsls	r4, r1, #8
 157 0010 5C60     		str	r4, [r3, #4]
 158              		.loc 1 169 0
 159 0012 0AB1     		cbz	r2, .L19
 160              		.loc 1 170 0
 161 0014 4069     		ldr	r0, [r0, #20]
 162 0016 9047     		blx	r2
 163              	.LVL7:
 164              	.L19:
 165              		.loc 1 173 0
 166 0018 BDE81040 		pop	{r4, lr}
 167              		.cfi_restore 14
 168              		.cfi_restore 4
 169              		.cfi_def_cfa_offset 0
 170              		.loc 1 172 0
 171 001c FFF7FEBF 		b	_port_irq_epilogue
ARM GAS  /var/folders/6q/x_mk5n_j3p7_c40r_2k_78980000gn/T//ccebEyhT.s 			page 4


 172              	.LVL8:
 173              	.L25:
 174              		.align	2
 175              	.L24:
 176 0020 00000240 		.word	1073872896
 177 0024 00000000 		.word	.LANCHOR0
 178              		.cfi_endproc
 179              	.LFE65:
 180              		.size	Vector74, .-Vector74
 181              		.section	.text.Vector78,"ax",%progbits
 182              		.align	2
 183              		.p2align 4,,15
 184              		.global	Vector78
 185              		.thumb
 186              		.thumb_func
 187              		.type	Vector78, %function
 188              	Vector78:
 189              	.LFB66:
 190              		.loc 1 180 0
 191              		.cfi_startproc
 192              		@ args = 0, pretend = 0, frame = 0
 193              		@ frame_needed = 0, uses_anonymous_args = 0
 194              		.loc 1 185 0
 195 0000 074B     		ldr	r3, .L32
 196              		.loc 1 187 0
 197 0002 0848     		ldr	r0, .L32+4
 198              		.loc 1 185 0
 199 0004 1968     		ldr	r1, [r3]
 200              		.loc 1 187 0
 201 0006 8269     		ldr	r2, [r0, #24]
 202              		.loc 1 185 0
 203 0008 C1F30331 		ubfx	r1, r1, #12, #4
 204              	.LVL9:
 205              		.loc 1 180 0
 206 000c 10B5     		push	{r4, lr}
 207              		.cfi_def_cfa_offset 8
 208              		.cfi_offset 4, -8
 209              		.cfi_offset 14, -4
 210              		.loc 1 186 0
 211 000e 0C03     		lsls	r4, r1, #12
 212 0010 5C60     		str	r4, [r3, #4]
 213              		.loc 1 187 0
 214 0012 0AB1     		cbz	r2, .L27
 215              		.loc 1 188 0
 216 0014 C069     		ldr	r0, [r0, #28]
 217 0016 9047     		blx	r2
 218              	.LVL10:
 219              	.L27:
 220              		.loc 1 191 0
 221 0018 BDE81040 		pop	{r4, lr}
 222              		.cfi_restore 14
 223              		.cfi_restore 4
 224              		.cfi_def_cfa_offset 0
 225              		.loc 1 190 0
 226 001c FFF7FEBF 		b	_port_irq_epilogue
 227              	.LVL11:
 228              	.L33:
ARM GAS  /var/folders/6q/x_mk5n_j3p7_c40r_2k_78980000gn/T//ccebEyhT.s 			page 5


 229              		.align	2
 230              	.L32:
 231 0020 00000240 		.word	1073872896
 232 0024 00000000 		.word	.LANCHOR0
 233              		.cfi_endproc
 234              	.LFE66:
 235              		.size	Vector78, .-Vector78
 236              		.section	.text.Vector7C,"ax",%progbits
 237              		.align	2
 238              		.p2align 4,,15
 239              		.global	Vector7C
 240              		.thumb
 241              		.thumb_func
 242              		.type	Vector7C, %function
 243              	Vector7C:
 244              	.LFB67:
 245              		.loc 1 198 0
 246              		.cfi_startproc
 247              		@ args = 0, pretend = 0, frame = 0
 248              		@ frame_needed = 0, uses_anonymous_args = 0
 249              		.loc 1 203 0
 250 0000 074B     		ldr	r3, .L40
 251              		.loc 1 205 0
 252 0002 0848     		ldr	r0, .L40+4
 253              		.loc 1 203 0
 254 0004 1968     		ldr	r1, [r3]
 255              		.loc 1 205 0
 256 0006 026A     		ldr	r2, [r0, #32]
 257              		.loc 1 203 0
 258 0008 C1F30341 		ubfx	r1, r1, #16, #4
 259              	.LVL12:
 260              		.loc 1 198 0
 261 000c 10B5     		push	{r4, lr}
 262              		.cfi_def_cfa_offset 8
 263              		.cfi_offset 4, -8
 264              		.cfi_offset 14, -4
 265              		.loc 1 204 0
 266 000e 0C04     		lsls	r4, r1, #16
 267 0010 5C60     		str	r4, [r3, #4]
 268              		.loc 1 205 0
 269 0012 0AB1     		cbz	r2, .L35
 270              		.loc 1 206 0
 271 0014 406A     		ldr	r0, [r0, #36]
 272 0016 9047     		blx	r2
 273              	.LVL13:
 274              	.L35:
 275              		.loc 1 209 0
 276 0018 BDE81040 		pop	{r4, lr}
 277              		.cfi_restore 14
 278              		.cfi_restore 4
 279              		.cfi_def_cfa_offset 0
 280              		.loc 1 208 0
 281 001c FFF7FEBF 		b	_port_irq_epilogue
 282              	.LVL14:
 283              	.L41:
 284              		.align	2
 285              	.L40:
ARM GAS  /var/folders/6q/x_mk5n_j3p7_c40r_2k_78980000gn/T//ccebEyhT.s 			page 6


 286 0020 00000240 		.word	1073872896
 287 0024 00000000 		.word	.LANCHOR0
 288              		.cfi_endproc
 289              	.LFE67:
 290              		.size	Vector7C, .-Vector7C
 291              		.section	.text.Vector80,"ax",%progbits
 292              		.align	2
 293              		.p2align 4,,15
 294              		.global	Vector80
 295              		.thumb
 296              		.thumb_func
 297              		.type	Vector80, %function
 298              	Vector80:
 299              	.LFB68:
 300              		.loc 1 216 0
 301              		.cfi_startproc
 302              		@ args = 0, pretend = 0, frame = 0
 303              		@ frame_needed = 0, uses_anonymous_args = 0
 304              		.loc 1 221 0
 305 0000 074B     		ldr	r3, .L48
 306              		.loc 1 223 0
 307 0002 0848     		ldr	r0, .L48+4
 308              		.loc 1 221 0
 309 0004 1968     		ldr	r1, [r3]
 310              		.loc 1 223 0
 311 0006 826A     		ldr	r2, [r0, #40]
 312              		.loc 1 221 0
 313 0008 C1F30351 		ubfx	r1, r1, #20, #4
 314              	.LVL15:
 315              		.loc 1 216 0
 316 000c 10B5     		push	{r4, lr}
 317              		.cfi_def_cfa_offset 8
 318              		.cfi_offset 4, -8
 319              		.cfi_offset 14, -4
 320              		.loc 1 222 0
 321 000e 0C05     		lsls	r4, r1, #20
 322 0010 5C60     		str	r4, [r3, #4]
 323              		.loc 1 223 0
 324 0012 0AB1     		cbz	r2, .L43
 325              		.loc 1 224 0
 326 0014 C06A     		ldr	r0, [r0, #44]
 327 0016 9047     		blx	r2
 328              	.LVL16:
 329              	.L43:
 330              		.loc 1 227 0
 331 0018 BDE81040 		pop	{r4, lr}
 332              		.cfi_restore 14
 333              		.cfi_restore 4
 334              		.cfi_def_cfa_offset 0
 335              		.loc 1 226 0
 336 001c FFF7FEBF 		b	_port_irq_epilogue
 337              	.LVL17:
 338              	.L49:
 339              		.align	2
 340              	.L48:
 341 0020 00000240 		.word	1073872896
 342 0024 00000000 		.word	.LANCHOR0
ARM GAS  /var/folders/6q/x_mk5n_j3p7_c40r_2k_78980000gn/T//ccebEyhT.s 			page 7


 343              		.cfi_endproc
 344              	.LFE68:
 345              		.size	Vector80, .-Vector80
 346              		.section	.text.Vector84,"ax",%progbits
 347              		.align	2
 348              		.p2align 4,,15
 349              		.global	Vector84
 350              		.thumb
 351              		.thumb_func
 352              		.type	Vector84, %function
 353              	Vector84:
 354              	.LFB69:
 355              		.loc 1 234 0
 356              		.cfi_startproc
 357              		@ args = 0, pretend = 0, frame = 0
 358              		@ frame_needed = 0, uses_anonymous_args = 0
 359              		.loc 1 239 0
 360 0000 074B     		ldr	r3, .L56
 361              		.loc 1 241 0
 362 0002 0848     		ldr	r0, .L56+4
 363              		.loc 1 239 0
 364 0004 1968     		ldr	r1, [r3]
 365              		.loc 1 241 0
 366 0006 026B     		ldr	r2, [r0, #48]
 367              		.loc 1 239 0
 368 0008 C1F30361 		ubfx	r1, r1, #24, #4
 369              	.LVL18:
 370              		.loc 1 234 0
 371 000c 10B5     		push	{r4, lr}
 372              		.cfi_def_cfa_offset 8
 373              		.cfi_offset 4, -8
 374              		.cfi_offset 14, -4
 375              		.loc 1 240 0
 376 000e 0C06     		lsls	r4, r1, #24
 377 0010 5C60     		str	r4, [r3, #4]
 378              		.loc 1 241 0
 379 0012 0AB1     		cbz	r2, .L51
 380              		.loc 1 242 0
 381 0014 406B     		ldr	r0, [r0, #52]
 382 0016 9047     		blx	r2
 383              	.LVL19:
 384              	.L51:
 385              		.loc 1 245 0
 386 0018 BDE81040 		pop	{r4, lr}
 387              		.cfi_restore 14
 388              		.cfi_restore 4
 389              		.cfi_def_cfa_offset 0
 390              		.loc 1 244 0
 391 001c FFF7FEBF 		b	_port_irq_epilogue
 392              	.LVL20:
 393              	.L57:
 394              		.align	2
 395              	.L56:
 396 0020 00000240 		.word	1073872896
 397 0024 00000000 		.word	.LANCHOR0
 398              		.cfi_endproc
 399              	.LFE69:
ARM GAS  /var/folders/6q/x_mk5n_j3p7_c40r_2k_78980000gn/T//ccebEyhT.s 			page 8


 400              		.size	Vector84, .-Vector84
 401              		.section	.text.Vector120,"ax",%progbits
 402              		.align	2
 403              		.p2align 4,,15
 404              		.global	Vector120
 405              		.thumb
 406              		.thumb_func
 407              		.type	Vector120, %function
 408              	Vector120:
 409              	.LFB70:
 410              		.loc 1 253 0
 411              		.cfi_startproc
 412              		@ args = 0, pretend = 0, frame = 0
 413              		@ frame_needed = 0, uses_anonymous_args = 0
 414 0000 08B5     		push	{r3, lr}
 415              		.cfi_def_cfa_offset 8
 416              		.cfi_offset 3, -8
 417              		.cfi_offset 14, -4
 418              		.loc 1 258 0
 419 0002 074B     		ldr	r3, .L64
 420              		.loc 1 260 0
 421 0004 0748     		ldr	r0, .L64+4
 422              		.loc 1 258 0
 423 0006 1968     		ldr	r1, [r3]
 424              		.loc 1 260 0
 425 0008 826B     		ldr	r2, [r0, #56]
 426              		.loc 1 258 0
 427 000a 01F00F01 		and	r1, r1, #15
 428              	.LVL21:
 429              		.loc 1 259 0
 430 000e 5960     		str	r1, [r3, #4]
 431              		.loc 1 260 0
 432 0010 0AB1     		cbz	r2, .L59
 433              		.loc 1 261 0
 434 0012 C06B     		ldr	r0, [r0, #60]
 435 0014 9047     		blx	r2
 436              	.LVL22:
 437              	.L59:
 438              		.loc 1 264 0
 439 0016 BDE80840 		pop	{r3, lr}
 440              		.cfi_restore 14
 441              		.cfi_restore 3
 442              		.cfi_def_cfa_offset 0
 443              		.loc 1 263 0
 444 001a FFF7FEBF 		b	_port_irq_epilogue
 445              	.LVL23:
 446              	.L65:
 447 001e 00BF     		.align	2
 448              	.L64:
 449 0020 00040240 		.word	1073873920
 450 0024 00000000 		.word	.LANCHOR0
 451              		.cfi_endproc
 452              	.LFE70:
 453              		.size	Vector120, .-Vector120
 454              		.section	.text.Vector124,"ax",%progbits
 455              		.align	2
 456              		.p2align 4,,15
ARM GAS  /var/folders/6q/x_mk5n_j3p7_c40r_2k_78980000gn/T//ccebEyhT.s 			page 9


 457              		.global	Vector124
 458              		.thumb
 459              		.thumb_func
 460              		.type	Vector124, %function
 461              	Vector124:
 462              	.LFB71:
 463              		.loc 1 271 0
 464              		.cfi_startproc
 465              		@ args = 0, pretend = 0, frame = 0
 466              		@ frame_needed = 0, uses_anonymous_args = 0
 467              		.loc 1 276 0
 468 0000 074B     		ldr	r3, .L72
 469              		.loc 1 278 0
 470 0002 0848     		ldr	r0, .L72+4
 471              		.loc 1 276 0
 472 0004 1968     		ldr	r1, [r3]
 473              		.loc 1 278 0
 474 0006 026C     		ldr	r2, [r0, #64]
 475              		.loc 1 276 0
 476 0008 C1F30311 		ubfx	r1, r1, #4, #4
 477              	.LVL24:
 478              		.loc 1 271 0
 479 000c 10B5     		push	{r4, lr}
 480              		.cfi_def_cfa_offset 8
 481              		.cfi_offset 4, -8
 482              		.cfi_offset 14, -4
 483              		.loc 1 277 0
 484 000e 0C01     		lsls	r4, r1, #4
 485 0010 5C60     		str	r4, [r3, #4]
 486              		.loc 1 278 0
 487 0012 0AB1     		cbz	r2, .L67
 488              		.loc 1 279 0
 489 0014 406C     		ldr	r0, [r0, #68]
 490 0016 9047     		blx	r2
 491              	.LVL25:
 492              	.L67:
 493              		.loc 1 282 0
 494 0018 BDE81040 		pop	{r4, lr}
 495              		.cfi_restore 14
 496              		.cfi_restore 4
 497              		.cfi_def_cfa_offset 0
 498              		.loc 1 281 0
 499 001c FFF7FEBF 		b	_port_irq_epilogue
 500              	.LVL26:
 501              	.L73:
 502              		.align	2
 503              	.L72:
 504 0020 00040240 		.word	1073873920
 505 0024 00000000 		.word	.LANCHOR0
 506              		.cfi_endproc
 507              	.LFE71:
 508              		.size	Vector124, .-Vector124
 509              		.section	.text.Vector128,"ax",%progbits
 510              		.align	2
 511              		.p2align 4,,15
 512              		.global	Vector128
 513              		.thumb
ARM GAS  /var/folders/6q/x_mk5n_j3p7_c40r_2k_78980000gn/T//ccebEyhT.s 			page 10


 514              		.thumb_func
 515              		.type	Vector128, %function
 516              	Vector128:
 517              	.LFB72:
 518              		.loc 1 289 0
 519              		.cfi_startproc
 520              		@ args = 0, pretend = 0, frame = 0
 521              		@ frame_needed = 0, uses_anonymous_args = 0
 522              		.loc 1 294 0
 523 0000 074B     		ldr	r3, .L80
 524              		.loc 1 296 0
 525 0002 0848     		ldr	r0, .L80+4
 526              		.loc 1 294 0
 527 0004 1968     		ldr	r1, [r3]
 528              		.loc 1 296 0
 529 0006 826C     		ldr	r2, [r0, #72]
 530              		.loc 1 294 0
 531 0008 C1F30321 		ubfx	r1, r1, #8, #4
 532              	.LVL27:
 533              		.loc 1 289 0
 534 000c 10B5     		push	{r4, lr}
 535              		.cfi_def_cfa_offset 8
 536              		.cfi_offset 4, -8
 537              		.cfi_offset 14, -4
 538              		.loc 1 295 0
 539 000e 0C02     		lsls	r4, r1, #8
 540 0010 5C60     		str	r4, [r3, #4]
 541              		.loc 1 296 0
 542 0012 0AB1     		cbz	r2, .L75
 543              		.loc 1 297 0
 544 0014 C06C     		ldr	r0, [r0, #76]
 545 0016 9047     		blx	r2
 546              	.LVL28:
 547              	.L75:
 548              		.loc 1 300 0
 549 0018 BDE81040 		pop	{r4, lr}
 550              		.cfi_restore 14
 551              		.cfi_restore 4
 552              		.cfi_def_cfa_offset 0
 553              		.loc 1 299 0
 554 001c FFF7FEBF 		b	_port_irq_epilogue
 555              	.LVL29:
 556              	.L81:
 557              		.align	2
 558              	.L80:
 559 0020 00040240 		.word	1073873920
 560 0024 00000000 		.word	.LANCHOR0
 561              		.cfi_endproc
 562              	.LFE72:
 563              		.size	Vector128, .-Vector128
 564              		.section	.text.Vector12C,"ax",%progbits
 565              		.align	2
 566              		.p2align 4,,15
 567              		.global	Vector12C
 568              		.thumb
 569              		.thumb_func
 570              		.type	Vector12C, %function
ARM GAS  /var/folders/6q/x_mk5n_j3p7_c40r_2k_78980000gn/T//ccebEyhT.s 			page 11


 571              	Vector12C:
 572              	.LFB73:
 573              		.loc 1 346 0
 574              		.cfi_startproc
 575              		@ args = 0, pretend = 0, frame = 0
 576              		@ frame_needed = 0, uses_anonymous_args = 0
 577              		.loc 1 352 0
 578 0000 0E4B     		ldr	r3, .L96
 579              		.loc 1 346 0
 580 0002 10B5     		push	{r4, lr}
 581              		.cfi_def_cfa_offset 8
 582              		.cfi_offset 4, -8
 583              		.cfi_offset 14, -4
 584              		.loc 1 352 0
 585 0004 1968     		ldr	r1, [r3]
 586 0006 C1F30331 		ubfx	r1, r1, #12, #4
 587              	.LVL30:
 588              		.loc 1 353 0
 589 000a 31B1     		cbz	r1, .L84
 590              		.loc 1 355 0
 591 000c 0C48     		ldr	r0, .L96+4
 592              		.loc 1 354 0
 593 000e 0A03     		lsls	r2, r1, #12
 594              		.loc 1 355 0
 595 0010 046D     		ldr	r4, [r0, #80]
 596              		.loc 1 354 0
 597 0012 5A60     		str	r2, [r3, #4]
 598              		.loc 1 355 0
 599 0014 0CB1     		cbz	r4, .L84
 600              		.loc 1 356 0
 601 0016 406D     		ldr	r0, [r0, #84]
 602 0018 A047     		blx	r4
 603              	.LVL31:
 604              	.L84:
 605              		.loc 1 360 0
 606 001a 084B     		ldr	r3, .L96
 607 001c 1968     		ldr	r1, [r3]
 608 001e C1F30341 		ubfx	r1, r1, #16, #4
 609              	.LVL32:
 610              		.loc 1 361 0
 611 0022 31B1     		cbz	r1, .L87
 612              		.loc 1 363 0
 613 0024 0648     		ldr	r0, .L96+4
 614              		.loc 1 362 0
 615 0026 0A04     		lsls	r2, r1, #16
 616              		.loc 1 363 0
 617 0028 846D     		ldr	r4, [r0, #88]
 618              		.loc 1 362 0
 619 002a 5A60     		str	r2, [r3, #4]
 620              		.loc 1 363 0
 621 002c 0CB1     		cbz	r4, .L87
 622              		.loc 1 364 0
 623 002e C06D     		ldr	r0, [r0, #92]
 624 0030 A047     		blx	r4
 625              	.LVL33:
 626              	.L87:
 627              		.loc 1 368 0
ARM GAS  /var/folders/6q/x_mk5n_j3p7_c40r_2k_78980000gn/T//ccebEyhT.s 			page 12


 628 0032 BDE81040 		pop	{r4, lr}
 629              		.cfi_restore 14
 630              		.cfi_restore 4
 631              		.cfi_def_cfa_offset 0
 632              		.loc 1 367 0
 633 0036 FFF7FEBF 		b	_port_irq_epilogue
 634              	.LVL34:
 635              	.L97:
 636 003a 00BF     		.align	2
 637              	.L96:
 638 003c 00040240 		.word	1073873920
 639 0040 00000000 		.word	.LANCHOR0
 640              		.cfi_endproc
 641              	.LFE73:
 642              		.size	Vector12C, .-Vector12C
 643              		.section	.text.dmaInit,"ax",%progbits
 644              		.align	2
 645              		.p2align 4,,15
 646              		.global	dmaInit
 647              		.thumb
 648              		.thumb_func
 649              		.type	dmaInit, %function
 650              	dmaInit:
 651              	.LFB74:
 652              		.loc 1 381 0
 653              		.cfi_startproc
 654              		@ args = 0, pretend = 0, frame = 0
 655              		@ frame_needed = 0, uses_anonymous_args = 0
 656              		@ link register save eliminated.
 657 0000 70B4     		push	{r4, r5, r6}
 658              		.cfi_def_cfa_offset 12
 659              		.cfi_offset 4, -12
 660              		.cfi_offset 5, -8
 661              		.cfi_offset 6, -4
 662              		.loc 1 384 0
 663 0002 0C4E     		ldr	r6, .L104
 664 0004 0025     		movs	r5, #0
 665              		.loc 1 385 0
 666 0006 2B46     		mov	r3, r5
 667              		.loc 1 386 0
 668 0008 2A46     		mov	r2, r5
 669 000a 0B48     		ldr	r0, .L104+4
 670              		.loc 1 384 0
 671 000c 0B49     		ldr	r1, .L104+8
 672 000e 0C4C     		ldr	r4, .L104+12
 673 0010 3560     		str	r5, [r6]
 674              	.LVL35:
 675 0012 01E0     		b	.L100
 676              	.LVL36:
 677              	.L103:
 678 0014 50F80C1F 		ldr	r1, [r0, #12]!
 679              	.LVL37:
 680              	.L100:
 681              		.loc 1 386 0 discriminator 3
 682 0018 0A60     		str	r2, [r1]
 683              		.loc 1 387 0 discriminator 3
 684 001a 44F83320 		str	r2, [r4, r3, lsl #3]
ARM GAS  /var/folders/6q/x_mk5n_j3p7_c40r_2k_78980000gn/T//ccebEyhT.s 			page 13


 685              		.loc 1 385 0 discriminator 3
 686 001e 0133     		adds	r3, r3, #1
 687              	.LVL38:
 688 0020 0C2B     		cmp	r3, #12
 689 0022 F7D1     		bne	.L103
 690              		.loc 1 389 0
 691 0024 0749     		ldr	r1, .L104+16
 692              		.loc 1 391 0
 693 0026 084A     		ldr	r2, .L104+20
 694              		.loc 1 389 0
 695 0028 4FF0FF33 		mov	r3, #-1
 696              	.LVL39:
 697 002c 4B60     		str	r3, [r1, #4]
 698              		.loc 1 393 0
 699 002e 70BC     		pop	{r4, r5, r6}
 700              		.cfi_restore 6
 701              		.cfi_restore 5
 702              		.cfi_restore 4
 703              		.cfi_def_cfa_offset 0
 704              		.loc 1 391 0
 705 0030 5360     		str	r3, [r2, #4]
 706              		.loc 1 393 0
 707 0032 7047     		bx	lr
 708              	.L105:
 709              		.align	2
 710              	.L104:
 711 0034 00000000 		.word	.LANCHOR1
 712 0038 00000000 		.word	.LANCHOR2
 713 003c 08000240 		.word	1073872904
 714 0040 00000000 		.word	.LANCHOR0
 715 0044 00000240 		.word	1073872896
 716 0048 00040240 		.word	1073873920
 717              		.cfi_endproc
 718              	.LFE74:
 719              		.size	dmaInit, .-dmaInit
 720              		.section	.text.dmaStreamAllocate,"ax",%progbits
 721              		.align	2
 722              		.p2align 4,,15
 723              		.global	dmaStreamAllocate
 724              		.thumb
 725              		.thumb_func
 726              		.type	dmaStreamAllocate, %function
 727              	dmaStreamAllocate:
 728              	.LFB75:
 729              		.loc 1 422 0
 730              		.cfi_startproc
 731              		@ args = 0, pretend = 0, frame = 0
 732              		@ frame_needed = 0, uses_anonymous_args = 0
 733              	.LVL40:
 734 0000 F8B5     		push	{r3, r4, r5, r6, r7, lr}
 735              		.cfi_def_cfa_offset 24
 736              		.cfi_offset 3, -24
 737              		.cfi_offset 4, -20
 738              		.cfi_offset 5, -16
 739              		.cfi_offset 6, -12
 740              		.cfi_offset 7, -8
 741              		.cfi_offset 14, -4
ARM GAS  /var/folders/6q/x_mk5n_j3p7_c40r_2k_78980000gn/T//ccebEyhT.s 			page 14


 742              		.loc 1 427 0
 743 0002 1C4F     		ldr	r7, .L119
 744 0004 467A     		ldrb	r6, [r0, #9]	@ zero_extendqisi2
 745 0006 0124     		movs	r4, #1
 746 0008 3D68     		ldr	r5, [r7]
 747 000a 04FA06FE 		lsl	lr, r4, r6
 748 000e 1EEA050F 		tst	lr, r5
 749 0012 2BD1     		bne	.L110
 750              		.loc 1 431 0
 751 0014 184C     		ldr	r4, .L119+4
 752              		.loc 1 433 0
 753 0016 4EEA0505 		orr	r5, lr, r5
 754              		.loc 1 432 0
 755 001a 04EBC60E 		add	lr, r4, r6, lsl #3
 756 001e CEF80430 		str	r3, [lr, #4]
 757              		.loc 1 436 0
 758 0022 6B06     		lsls	r3, r5, #25
 759              	.LVL41:
 760              		.loc 1 433 0
 761 0024 3D60     		str	r5, [r7]
 762              		.loc 1 431 0
 763 0026 44F83620 		str	r2, [r4, r6, lsl #3]
 764              		.loc 1 436 0
 765 002a 04D0     		beq	.L108
 766              		.loc 1 437 0
 767 002c 134C     		ldr	r4, .L119+8
 768 002e 6369     		ldr	r3, [r4, #20]
 769 0030 43F00103 		orr	r3, r3, #1
 770 0034 6361     		str	r3, [r4, #20]
 771              	.L108:
 772              		.loc 1 439 0
 773 0036 15F4786F 		tst	r5, #3968
 774 003a 04D0     		beq	.L109
 775              		.loc 1 440 0
 776 003c 0F4C     		ldr	r4, .L119+8
 777 003e 6369     		ldr	r3, [r4, #20]
 778 0040 43F00203 		orr	r3, r3, #2
 779 0044 6361     		str	r3, [r4, #20]
 780              	.L109:
 781              		.loc 1 444 0
 782 0046 0368     		ldr	r3, [r0]
 783 0048 4668     		ldr	r6, [r0, #4]
 784 004a 1C68     		ldr	r4, [r3]
 785 004c 0F25     		movs	r5, #15
 786 004e 24F00F04 		bic	r4, r4, #15
 787 0052 1C60     		str	r4, [r3]
 788 0054 077A     		ldrb	r7, [r0, #8]	@ zero_extendqisi2
 789              		.loc 1 445 0
 790 0056 0024     		movs	r4, #0
 791              		.loc 1 444 0
 792 0058 BD40     		lsls	r5, r5, r7
 793 005a 3560     		str	r5, [r6]
 794              		.loc 1 445 0
 795 005c 1C60     		str	r4, [r3]
 796              		.loc 1 448 0
 797 005e 3AB1     		cbz	r2, .L111
 798              		.loc 1 449 0
ARM GAS  /var/folders/6q/x_mk5n_j3p7_c40r_2k_78980000gn/T//ccebEyhT.s 			page 15


 799 0060 0901     		lsls	r1, r1, #4
 800              	.LVL42:
 801 0062 807A     		ldrb	r0, [r0, #10]	@ zero_extendqisi2
 802              	.LVL43:
 803 0064 FFF7FEFF 		bl	nvicEnableVector
 804              	.LVL44:
 805              		.loc 1 451 0
 806 0068 2046     		mov	r0, r4
 807 006a F8BD     		pop	{r3, r4, r5, r6, r7, pc}
 808              	.LVL45:
 809              	.L110:
 810              		.loc 1 428 0
 811 006c 2046     		mov	r0, r4
 812              	.LVL46:
 813 006e F8BD     		pop	{r3, r4, r5, r6, r7, pc}
 814              	.LVL47:
 815              	.L111:
 816              		.loc 1 451 0
 817 0070 1046     		mov	r0, r2
 818              	.LVL48:
 819              		.loc 1 452 0
 820 0072 F8BD     		pop	{r3, r4, r5, r6, r7, pc}
 821              	.L120:
 822              		.align	2
 823              	.L119:
 824 0074 00000000 		.word	.LANCHOR1
 825 0078 00000000 		.word	.LANCHOR0
 826 007c 00100240 		.word	1073876992
 827              		.cfi_endproc
 828              	.LFE75:
 829              		.size	dmaStreamAllocate, .-dmaStreamAllocate
 830              		.section	.text.dmaStreamRelease,"ax",%progbits
 831              		.align	2
 832              		.p2align 4,,15
 833              		.global	dmaStreamRelease
 834              		.thumb
 835              		.thumb_func
 836              		.type	dmaStreamRelease, %function
 837              	dmaStreamRelease:
 838              	.LFB76:
 839              		.loc 1 467 0
 840              		.cfi_startproc
 841              		@ args = 0, pretend = 0, frame = 0
 842              		@ frame_needed = 0, uses_anonymous_args = 0
 843              	.LVL49:
 844 0000 10B5     		push	{r4, lr}
 845              		.cfi_def_cfa_offset 8
 846              		.cfi_offset 4, -8
 847              		.cfi_offset 14, -4
 848              		.loc 1 467 0
 849 0002 0446     		mov	r4, r0
 850              		.loc 1 476 0
 851 0004 807A     		ldrb	r0, [r0, #10]	@ zero_extendqisi2
 852              	.LVL50:
 853 0006 FFF7FEFF 		bl	nvicDisableVector
 854              	.LVL51:
 855              		.loc 1 479 0
ARM GAS  /var/folders/6q/x_mk5n_j3p7_c40r_2k_78980000gn/T//ccebEyhT.s 			page 16


 856 000a 0C49     		ldr	r1, .L125
 857 000c 607A     		ldrb	r0, [r4, #9]	@ zero_extendqisi2
 858 000e 0A68     		ldr	r2, [r1]
 859 0010 0123     		movs	r3, #1
 860 0012 8340     		lsls	r3, r3, r0
 861 0014 22EA0303 		bic	r3, r2, r3
 862              		.loc 1 482 0
 863 0018 5A06     		lsls	r2, r3, #25
 864              		.loc 1 479 0
 865 001a 0B60     		str	r3, [r1]
 866              		.loc 1 482 0
 867 001c 04D1     		bne	.L122
 868              		.loc 1 483 0
 869 001e 0849     		ldr	r1, .L125+4
 870 0020 4A69     		ldr	r2, [r1, #20]
 871 0022 22F00102 		bic	r2, r2, #1
 872 0026 4A61     		str	r2, [r1, #20]
 873              	.L122:
 874              		.loc 1 485 0
 875 0028 13F4786F 		tst	r3, #3968
 876 002c 04D1     		bne	.L121
 877              		.loc 1 486 0
 878 002e 044A     		ldr	r2, .L125+4
 879 0030 5369     		ldr	r3, [r2, #20]
 880 0032 23F00203 		bic	r3, r3, #2
 881 0036 5361     		str	r3, [r2, #20]
 882              	.L121:
 883 0038 10BD     		pop	{r4, pc}
 884              	.LVL52:
 885              	.L126:
 886 003a 00BF     		.align	2
 887              	.L125:
 888 003c 00000000 		.word	.LANCHOR1
 889 0040 00100240 		.word	1073876992
 890              		.cfi_endproc
 891              	.LFE76:
 892              		.size	dmaStreamRelease, .-dmaStreamRelease
 893              		.global	_stm32_dma_streams
 894              		.section	.bss.dma_isr_redir,"aw",%nobits
 895              		.align	2
 896              		.set	.LANCHOR0,. + 0
 897              		.type	dma_isr_redir, %object
 898              		.size	dma_isr_redir, 96
 899              	dma_isr_redir:
 900 0000 00000000 		.space	96
 900      00000000 
 900      00000000 
 900      00000000 
 900      00000000 
 901              		.section	.rodata._stm32_dma_streams,"a",%progbits
 902              		.align	2
 903              		.set	.LANCHOR2,. + 0
 904              		.type	_stm32_dma_streams, %object
 905              		.size	_stm32_dma_streams, 144
 906              	_stm32_dma_streams:
 907 0000 08000240 		.word	1073872904
 908 0004 04000240 		.word	1073872900
ARM GAS  /var/folders/6q/x_mk5n_j3p7_c40r_2k_78980000gn/T//ccebEyhT.s 			page 17


 909 0008 00       		.byte	0
 910 0009 00       		.byte	0
 911 000a 0B       		.byte	11
 912 000b 00       		.space	1
 913 000c 1C000240 		.word	1073872924
 914 0010 04000240 		.word	1073872900
 915 0014 04       		.byte	4
 916 0015 01       		.byte	1
 917 0016 0C       		.byte	12
 918 0017 00       		.space	1
 919 0018 30000240 		.word	1073872944
 920 001c 04000240 		.word	1073872900
 921 0020 08       		.byte	8
 922 0021 02       		.byte	2
 923 0022 0D       		.byte	13
 924 0023 00       		.space	1
 925 0024 44000240 		.word	1073872964
 926 0028 04000240 		.word	1073872900
 927 002c 0C       		.byte	12
 928 002d 03       		.byte	3
 929 002e 0E       		.byte	14
 930 002f 00       		.space	1
 931 0030 58000240 		.word	1073872984
 932 0034 04000240 		.word	1073872900
 933 0038 10       		.byte	16
 934 0039 04       		.byte	4
 935 003a 0F       		.byte	15
 936 003b 00       		.space	1
 937 003c 6C000240 		.word	1073873004
 938 0040 04000240 		.word	1073872900
 939 0044 14       		.byte	20
 940 0045 05       		.byte	5
 941 0046 10       		.byte	16
 942 0047 00       		.space	1
 943 0048 80000240 		.word	1073873024
 944 004c 04000240 		.word	1073872900
 945 0050 18       		.byte	24
 946 0051 06       		.byte	6
 947 0052 11       		.byte	17
 948 0053 00       		.space	1
 949 0054 08040240 		.word	1073873928
 950 0058 04040240 		.word	1073873924
 951 005c 00       		.byte	0
 952 005d 07       		.byte	7
 953 005e 38       		.byte	56
 954 005f 00       		.space	1
 955 0060 1C040240 		.word	1073873948
 956 0064 04040240 		.word	1073873924
 957 0068 04       		.byte	4
 958 0069 08       		.byte	8
 959 006a 39       		.byte	57
 960 006b 00       		.space	1
 961 006c 30040240 		.word	1073873968
 962 0070 04040240 		.word	1073873924
 963 0074 08       		.byte	8
 964 0075 09       		.byte	9
 965 0076 3A       		.byte	58
ARM GAS  /var/folders/6q/x_mk5n_j3p7_c40r_2k_78980000gn/T//ccebEyhT.s 			page 18


 966 0077 00       		.space	1
 967 0078 44040240 		.word	1073873988
 968 007c 04040240 		.word	1073873924
 969 0080 0C       		.byte	12
 970 0081 0A       		.byte	10
 971 0082 3B       		.byte	59
 972 0083 00       		.space	1
 973 0084 58040240 		.word	1073874008
 974 0088 04040240 		.word	1073873924
 975 008c 10       		.byte	16
 976 008d 0B       		.byte	11
 977 008e 3B       		.byte	59
 978 008f 00       		.space	1
 979              		.section	.bss.dma_streams_mask,"aw",%nobits
 980              		.align	2
 981              		.set	.LANCHOR1,. + 0
 982              		.type	dma_streams_mask, %object
 983              		.size	dma_streams_mask, 4
 984              	dma_streams_mask:
 985 0000 00000000 		.space	4
 986              		.text
 987              	.Letext0:
 988              		.file 2 "/Users/Luca/src/vexilla/src/gcc-arm-none-eabi-5_4-2016q3/arm-none-eabi/include/machine/_d
 989              		.file 3 "/Users/Luca/src/vexilla/src/gcc-arm-none-eabi-5_4-2016q3/arm-none-eabi/include/sys/_stdin
 990              		.file 4 "../ChibiOS/os/ports/GCC/ARMCMx/chtypes.h"
 991              		.file 5 "../ChibiOS/os/hal/platforms/STM32F1xx/stm32f10x.h"
 992              		.file 6 "../ChibiOS/os/hal/platforms/STM32F1xx/stm32_dma.h"
 993              		.file 7 "../ChibiOS/os/ports/common/ARMCMx/CMSIS/include/core_cm3.h"
 994              		.file 8 "../ChibiOS/os/ports/GCC/ARMCMx/chcore_v7m.h"
 995              		.file 9 "../ChibiOS/os/ports/common/ARMCMx/nvic.h"
 996              		.section	.debug_info,"",%progbits
 997              	.Ldebug_info0:
 998 0000 BC070000 		.4byte	0x7bc
 999 0004 0400     		.2byte	0x4
 1000 0006 00000000 		.4byte	.Ldebug_abbrev0
 1001 000a 04       		.byte	0x4
 1002 000b 01       		.uleb128 0x1
 1003 000c 45020000 		.4byte	.LASF139
 1004 0010 0C       		.byte	0xc
 1005 0011 67030000 		.4byte	.LASF140
 1006 0015 16060000 		.4byte	.LASF141
 1007 0019 00000000 		.4byte	.Ldebug_ranges0+0
 1008 001d 00000000 		.4byte	0
 1009 0021 00000000 		.4byte	.Ldebug_line0
 1010 0025 02       		.uleb128 0x2
 1011 0026 04       		.byte	0x4
 1012 0027 05       		.byte	0x5
 1013 0028 696E7400 		.ascii	"int\000"
 1014 002c 03       		.uleb128 0x3
 1015 002d 04       		.byte	0x4
 1016 002e 07       		.byte	0x7
 1017 002f D9010000 		.4byte	.LASF0
 1018 0033 03       		.uleb128 0x3
 1019 0034 08       		.byte	0x8
 1020 0035 05       		.byte	0x5
 1021 0036 FC000000 		.4byte	.LASF1
 1022 003a 03       		.uleb128 0x3
ARM GAS  /var/folders/6q/x_mk5n_j3p7_c40r_2k_78980000gn/T//ccebEyhT.s 			page 19


 1023 003b 08       		.byte	0x8
 1024 003c 04       		.byte	0x4
 1025 003d 0E040000 		.4byte	.LASF2
 1026 0041 03       		.uleb128 0x3
 1027 0042 01       		.byte	0x1
 1028 0043 06       		.byte	0x6
 1029 0044 0A010000 		.4byte	.LASF3
 1030 0048 04       		.uleb128 0x4
 1031 0049 4A000000 		.4byte	.LASF6
 1032 004d 02       		.byte	0x2
 1033 004e 1D       		.byte	0x1d
 1034 004f 53000000 		.4byte	0x53
 1035 0053 03       		.uleb128 0x3
 1036 0054 01       		.byte	0x1
 1037 0055 08       		.byte	0x8
 1038 0056 FE040000 		.4byte	.LASF4
 1039 005a 03       		.uleb128 0x3
 1040 005b 02       		.byte	0x2
 1041 005c 05       		.byte	0x5
 1042 005d 69050000 		.4byte	.LASF5
 1043 0061 04       		.uleb128 0x4
 1044 0062 46060000 		.4byte	.LASF7
 1045 0066 02       		.byte	0x2
 1046 0067 2B       		.byte	0x2b
 1047 0068 6C000000 		.4byte	0x6c
 1048 006c 03       		.uleb128 0x3
 1049 006d 02       		.byte	0x2
 1050 006e 07       		.byte	0x7
 1051 006f 32030000 		.4byte	.LASF8
 1052 0073 04       		.uleb128 0x4
 1053 0074 6F060000 		.4byte	.LASF9
 1054 0078 02       		.byte	0x2
 1055 0079 3F       		.byte	0x3f
 1056 007a 7E000000 		.4byte	0x7e
 1057 007e 03       		.uleb128 0x3
 1058 007f 04       		.byte	0x4
 1059 0080 05       		.byte	0x5
 1060 0081 24010000 		.4byte	.LASF10
 1061 0085 04       		.uleb128 0x4
 1062 0086 AA010000 		.4byte	.LASF11
 1063 008a 02       		.byte	0x2
 1064 008b 41       		.byte	0x41
 1065 008c 90000000 		.4byte	0x90
 1066 0090 03       		.uleb128 0x3
 1067 0091 04       		.byte	0x4
 1068 0092 07       		.byte	0x7
 1069 0093 0C020000 		.4byte	.LASF12
 1070 0097 03       		.uleb128 0x3
 1071 0098 08       		.byte	0x8
 1072 0099 07       		.byte	0x7
 1073 009a 62000000 		.4byte	.LASF13
 1074 009e 04       		.uleb128 0x4
 1075 009f 2E070000 		.4byte	.LASF14
 1076 00a3 03       		.byte	0x3
 1077 00a4 18       		.byte	0x18
 1078 00a5 48000000 		.4byte	0x48
 1079 00a9 04       		.uleb128 0x4
ARM GAS  /var/folders/6q/x_mk5n_j3p7_c40r_2k_78980000gn/T//ccebEyhT.s 			page 20


 1080 00aa 58010000 		.4byte	.LASF15
 1081 00ae 03       		.byte	0x3
 1082 00af 24       		.byte	0x24
 1083 00b0 61000000 		.4byte	0x61
 1084 00b4 04       		.uleb128 0x4
 1085 00b5 F6040000 		.4byte	.LASF16
 1086 00b9 03       		.byte	0x3
 1087 00ba 2C       		.byte	0x2c
 1088 00bb 73000000 		.4byte	0x73
 1089 00bf 04       		.uleb128 0x4
 1090 00c0 61010000 		.4byte	.LASF17
 1091 00c4 03       		.byte	0x3
 1092 00c5 30       		.byte	0x30
 1093 00c6 85000000 		.4byte	0x85
 1094 00ca 04       		.uleb128 0x4
 1095 00cb 16010000 		.4byte	.LASF18
 1096 00cf 04       		.byte	0x4
 1097 00d0 2B       		.byte	0x2b
 1098 00d1 D5000000 		.4byte	0xd5
 1099 00d5 03       		.uleb128 0x3
 1100 00d6 01       		.byte	0x1
 1101 00d7 02       		.byte	0x2
 1102 00d8 F0040000 		.4byte	.LASF19
 1103 00dc 05       		.uleb128 0x5
 1104 00dd 04       		.byte	0x4
 1105 00de 06       		.uleb128 0x6
 1106 00df BF000000 		.4byte	0xbf
 1107 00e3 03       		.uleb128 0x3
 1108 00e4 04       		.byte	0x4
 1109 00e5 07       		.byte	0x7
 1110 00e6 EC030000 		.4byte	.LASF20
 1111 00ea 03       		.uleb128 0x3
 1112 00eb 01       		.byte	0x1
 1113 00ec 08       		.byte	0x8
 1114 00ed F7050000 		.4byte	.LASF21
 1115 00f1 07       		.uleb128 0x7
 1116 00f2 C6030000 		.4byte	.LASF142
 1117 00f6 01       		.byte	0x1
 1118 00f7 41000000 		.4byte	0x41
 1119 00fb 05       		.byte	0x5
 1120 00fc A9       		.byte	0xa9
 1121 00fd 9A020000 		.4byte	0x29a
 1122 0101 08       		.uleb128 0x8
 1123 0102 5B060000 		.4byte	.LASF22
 1124 0106 72       		.sleb128 -14
 1125 0107 08       		.uleb128 0x8
 1126 0108 A8040000 		.4byte	.LASF23
 1127 010c 74       		.sleb128 -12
 1128 010d 08       		.uleb128 0x8
 1129 010e B5010000 		.4byte	.LASF24
 1130 0112 75       		.sleb128 -11
 1131 0113 08       		.uleb128 0x8
 1132 0114 D1050000 		.4byte	.LASF25
 1133 0118 76       		.sleb128 -10
 1134 0119 08       		.uleb128 0x8
 1135 011a 02040000 		.4byte	.LASF26
 1136 011e 7B       		.sleb128 -5
ARM GAS  /var/folders/6q/x_mk5n_j3p7_c40r_2k_78980000gn/T//ccebEyhT.s 			page 21


 1137 011f 08       		.uleb128 0x8
 1138 0120 BE060000 		.4byte	.LASF27
 1139 0124 7C       		.sleb128 -4
 1140 0125 08       		.uleb128 0x8
 1141 0126 8B010000 		.4byte	.LASF28
 1142 012a 7E       		.sleb128 -2
 1143 012b 08       		.uleb128 0x8
 1144 012c AC030000 		.4byte	.LASF29
 1145 0130 7F       		.sleb128 -1
 1146 0131 09       		.uleb128 0x9
 1147 0132 D7000000 		.4byte	.LASF30
 1148 0136 00       		.byte	0
 1149 0137 09       		.uleb128 0x9
 1150 0138 10000000 		.4byte	.LASF31
 1151 013c 01       		.byte	0x1
 1152 013d 09       		.uleb128 0x9
 1153 013e 94060000 		.4byte	.LASF32
 1154 0142 02       		.byte	0x2
 1155 0143 09       		.uleb128 0x9
 1156 0144 7A070000 		.4byte	.LASF33
 1157 0148 03       		.byte	0x3
 1158 0149 09       		.uleb128 0x9
 1159 014a A3050000 		.4byte	.LASF34
 1160 014e 04       		.byte	0x4
 1161 014f 09       		.uleb128 0x9
 1162 0150 B7070000 		.4byte	.LASF35
 1163 0154 05       		.byte	0x5
 1164 0155 09       		.uleb128 0x9
 1165 0156 05070000 		.4byte	.LASF36
 1166 015a 06       		.byte	0x6
 1167 015b 09       		.uleb128 0x9
 1168 015c D1070000 		.4byte	.LASF37
 1169 0160 07       		.byte	0x7
 1170 0161 09       		.uleb128 0x9
 1171 0162 CC000000 		.4byte	.LASF38
 1172 0166 08       		.byte	0x8
 1173 0167 09       		.uleb128 0x9
 1174 0168 4A040000 		.4byte	.LASF39
 1175 016c 09       		.byte	0x9
 1176 016d 09       		.uleb128 0x9
 1177 016e 5E050000 		.4byte	.LASF40
 1178 0172 0A       		.byte	0xa
 1179 0173 09       		.uleb128 0x9
 1180 0174 95040000 		.4byte	.LASF41
 1181 0178 0B       		.byte	0xb
 1182 0179 09       		.uleb128 0x9
 1183 017a CB030000 		.4byte	.LASF42
 1184 017e 0C       		.byte	0xc
 1185 017f 09       		.uleb128 0x9
 1186 0180 45010000 		.4byte	.LASF43
 1187 0184 0D       		.byte	0xd
 1188 0185 09       		.uleb128 0x9
 1189 0186 97010000 		.4byte	.LASF44
 1190 018a 0E       		.byte	0xe
 1191 018b 09       		.uleb128 0x9
 1192 018c 1F030000 		.4byte	.LASF45
 1193 0190 0F       		.byte	0xf
ARM GAS  /var/folders/6q/x_mk5n_j3p7_c40r_2k_78980000gn/T//ccebEyhT.s 			page 22


 1194 0191 09       		.uleb128 0x9
 1195 0192 79060000 		.4byte	.LASF46
 1196 0196 10       		.byte	0x10
 1197 0197 09       		.uleb128 0x9
 1198 0198 99030000 		.4byte	.LASF47
 1199 019c 11       		.byte	0x11
 1200 019d 09       		.uleb128 0x9
 1201 019e 6A010000 		.4byte	.LASF48
 1202 01a2 12       		.byte	0x12
 1203 01a3 09       		.uleb128 0x9
 1204 01a4 33050000 		.4byte	.LASF49
 1205 01a8 13       		.byte	0x13
 1206 01a9 09       		.uleb128 0x9
 1207 01aa 0C050000 		.4byte	.LASF50
 1208 01ae 14       		.byte	0x14
 1209 01af 09       		.uleb128 0x9
 1210 01b0 54000000 		.4byte	.LASF51
 1211 01b4 15       		.byte	0x15
 1212 01b5 09       		.uleb128 0x9
 1213 01b6 97070000 		.4byte	.LASF52
 1214 01ba 16       		.byte	0x16
 1215 01bb 09       		.uleb128 0x9
 1216 01bc 2B000000 		.4byte	.LASF53
 1217 01c0 17       		.byte	0x17
 1218 01c1 09       		.uleb128 0x9
 1219 01c2 38060000 		.4byte	.LASF54
 1220 01c6 18       		.byte	0x18
 1221 01c7 09       		.uleb128 0x9
 1222 01c8 A0060000 		.4byte	.LASF55
 1223 01cc 19       		.byte	0x19
 1224 01cd 09       		.uleb128 0x9
 1225 01ce 19000000 		.4byte	.LASF56
 1226 01d2 1A       		.byte	0x1a
 1227 01d3 09       		.uleb128 0x9
 1228 01d4 B9030000 		.4byte	.LASF57
 1229 01d8 1B       		.byte	0x1b
 1230 01d9 09       		.uleb128 0x9
 1231 01da EE060000 		.4byte	.LASF58
 1232 01de 1C       		.byte	0x1c
 1233 01df 09       		.uleb128 0x9
 1234 01e0 C0070000 		.4byte	.LASF59
 1235 01e4 1D       		.byte	0x1d
 1236 01e5 09       		.uleb128 0x9
 1237 01e6 C2000000 		.4byte	.LASF60
 1238 01ea 1E       		.byte	0x1e
 1239 01eb 09       		.uleb128 0x9
 1240 01ec 3D000000 		.4byte	.LASF61
 1241 01f0 1F       		.byte	0x1f
 1242 01f1 09       		.uleb128 0x9
 1243 01f2 6D070000 		.4byte	.LASF62
 1244 01f6 20       		.byte	0x20
 1245 01f7 09       		.uleb128 0x9
 1246 01f8 1A040000 		.4byte	.LASF63
 1247 01fc 21       		.byte	0x21
 1248 01fd 09       		.uleb128 0x9
 1249 01fe B5000000 		.4byte	.LASF64
 1250 0202 22       		.byte	0x22
ARM GAS  /var/folders/6q/x_mk5n_j3p7_c40r_2k_78980000gn/T//ccebEyhT.s 			page 23


 1251 0203 09       		.uleb128 0x9
 1252 0204 54030000 		.4byte	.LASF65
 1253 0208 23       		.byte	0x23
 1254 0209 09       		.uleb128 0x9
 1255 020a 55040000 		.4byte	.LASF66
 1256 020e 24       		.byte	0x24
 1257 020f 09       		.uleb128 0x9
 1258 0210 BE040000 		.4byte	.LASF67
 1259 0214 25       		.byte	0x25
 1260 0215 09       		.uleb128 0x9
 1261 0216 C5050000 		.4byte	.LASF68
 1262 021a 26       		.byte	0x26
 1263 021b 09       		.uleb128 0x9
 1264 021c D9060000 		.4byte	.LASF69
 1265 0220 27       		.byte	0x27
 1266 0221 09       		.uleb128 0x9
 1267 0222 45030000 		.4byte	.LASF70
 1268 0226 28       		.byte	0x28
 1269 0227 09       		.uleb128 0x9
 1270 0228 8C000000 		.4byte	.LASF71
 1271 022c 29       		.byte	0x29
 1272 022d 09       		.uleb128 0x9
 1273 022e 7B040000 		.4byte	.LASF72
 1274 0232 2A       		.byte	0x2a
 1275 0233 09       		.uleb128 0x9
 1276 0234 DE030000 		.4byte	.LASF73
 1277 0238 2B       		.byte	0x2b
 1278 0239 09       		.uleb128 0x9
 1279 023a F8060000 		.4byte	.LASF74
 1280 023e 2C       		.byte	0x2c
 1281 023f 09       		.uleb128 0x9
 1282 0240 21050000 		.4byte	.LASF75
 1283 0244 2D       		.byte	0x2d
 1284 0245 09       		.uleb128 0x9
 1285 0246 F5030000 		.4byte	.LASF76
 1286 024a 2E       		.byte	0x2e
 1287 024b 09       		.uleb128 0x9
 1288 024c 3B010000 		.4byte	.LASF77
 1289 0250 2F       		.byte	0x2f
 1290 0251 09       		.uleb128 0x9
 1291 0252 E6040000 		.4byte	.LASF78
 1292 0256 30       		.byte	0x30
 1293 0257 09       		.uleb128 0x9
 1294 0258 E1000000 		.4byte	.LASF79
 1295 025c 31       		.byte	0x31
 1296 025d 09       		.uleb128 0x9
 1297 025e 40040000 		.4byte	.LASF80
 1298 0262 32       		.byte	0x32
 1299 0263 09       		.uleb128 0x9
 1300 0264 83070000 		.4byte	.LASF81
 1301 0268 33       		.byte	0x33
 1302 0269 09       		.uleb128 0x9
 1303 026a 76010000 		.4byte	.LASF82
 1304 026e 34       		.byte	0x34
 1305 026f 09       		.uleb128 0x9
 1306 0270 73050000 		.4byte	.LASF83
 1307 0274 35       		.byte	0x35
ARM GAS  /var/folders/6q/x_mk5n_j3p7_c40r_2k_78980000gn/T//ccebEyhT.s 			page 24


 1308 0275 09       		.uleb128 0x9
 1309 0276 54050000 		.4byte	.LASF84
 1310 027a 36       		.byte	0x36
 1311 027b 09       		.uleb128 0x9
 1312 027c 51060000 		.4byte	.LASF85
 1313 0280 37       		.byte	0x37
 1314 0281 09       		.uleb128 0x9
 1315 0282 79000000 		.4byte	.LASF86
 1316 0286 38       		.byte	0x38
 1317 0287 09       		.uleb128 0x9
 1318 0288 27040000 		.4byte	.LASF87
 1319 028c 39       		.byte	0x39
 1320 028d 09       		.uleb128 0x9
 1321 028e 68040000 		.4byte	.LASF88
 1322 0292 3A       		.byte	0x3a
 1323 0293 09       		.uleb128 0x9
 1324 0294 7E050000 		.4byte	.LASF89
 1325 0298 3B       		.byte	0x3b
 1326 0299 00       		.byte	0
 1327 029a 06       		.uleb128 0x6
 1328 029b B4000000 		.4byte	0xb4
 1329 029f 0A       		.uleb128 0xa
 1330 02a0 10       		.byte	0x10
 1331 02a1 05       		.byte	0x5
 1332 02a2 2D03     		.2byte	0x32d
 1333 02a4 DD020000 		.4byte	0x2dd
 1334 02a8 0B       		.uleb128 0xb
 1335 02a9 43435200 		.ascii	"CCR\000"
 1336 02ad 05       		.byte	0x5
 1337 02ae 2F03     		.2byte	0x32f
 1338 02b0 DE000000 		.4byte	0xde
 1339 02b4 00       		.byte	0
 1340 02b5 0C       		.uleb128 0xc
 1341 02b6 10070000 		.4byte	.LASF90
 1342 02ba 05       		.byte	0x5
 1343 02bb 3003     		.2byte	0x330
 1344 02bd DE000000 		.4byte	0xde
 1345 02c1 04       		.byte	0x4
 1346 02c2 0C       		.uleb128 0xc
 1347 02c3 F8010000 		.4byte	.LASF91
 1348 02c7 05       		.byte	0x5
 1349 02c8 3103     		.2byte	0x331
 1350 02ca DE000000 		.4byte	0xde
 1351 02ce 08       		.byte	0x8
 1352 02cf 0C       		.uleb128 0xc
 1353 02d0 38000000 		.4byte	.LASF92
 1354 02d4 05       		.byte	0x5
 1355 02d5 3203     		.2byte	0x332
 1356 02d7 DE000000 		.4byte	0xde
 1357 02db 0C       		.byte	0xc
 1358 02dc 00       		.byte	0
 1359 02dd 0D       		.uleb128 0xd
 1360 02de 2A020000 		.4byte	.LASF93
 1361 02e2 05       		.byte	0x5
 1362 02e3 3303     		.2byte	0x333
 1363 02e5 9F020000 		.4byte	0x29f
 1364 02e9 0A       		.uleb128 0xa
ARM GAS  /var/folders/6q/x_mk5n_j3p7_c40r_2k_78980000gn/T//ccebEyhT.s 			page 25


 1365 02ea 08       		.byte	0x8
 1366 02eb 05       		.byte	0x5
 1367 02ec 3503     		.2byte	0x335
 1368 02ee 0D030000 		.4byte	0x30d
 1369 02f2 0B       		.uleb128 0xb
 1370 02f3 49535200 		.ascii	"ISR\000"
 1371 02f7 05       		.byte	0x5
 1372 02f8 3703     		.2byte	0x337
 1373 02fa DE000000 		.4byte	0xde
 1374 02fe 00       		.byte	0
 1375 02ff 0C       		.uleb128 0xc
 1376 0300 F2050000 		.4byte	.LASF94
 1377 0304 05       		.byte	0x5
 1378 0305 3803     		.2byte	0x338
 1379 0307 DE000000 		.4byte	0xde
 1380 030b 04       		.byte	0x4
 1381 030c 00       		.byte	0
 1382 030d 0D       		.uleb128 0xd
 1383 030e CD010000 		.4byte	.LASF95
 1384 0312 05       		.byte	0x5
 1385 0313 3903     		.2byte	0x339
 1386 0315 E9020000 		.4byte	0x2e9
 1387 0319 0A       		.uleb128 0xa
 1388 031a 28       		.byte	0x28
 1389 031b 05       		.byte	0x5
 1390 031c 4304     		.2byte	0x443
 1391 031e A4030000 		.4byte	0x3a4
 1392 0322 0B       		.uleb128 0xb
 1393 0323 435200   		.ascii	"CR\000"
 1394 0326 05       		.byte	0x5
 1395 0327 4504     		.2byte	0x445
 1396 0329 DE000000 		.4byte	0xde
 1397 032d 00       		.byte	0
 1398 032e 0C       		.uleb128 0xc
 1399 032f 54070000 		.4byte	.LASF96
 1400 0333 05       		.byte	0x5
 1401 0334 4604     		.2byte	0x446
 1402 0336 DE000000 		.4byte	0xde
 1403 033a 04       		.byte	0x4
 1404 033b 0B       		.uleb128 0xb
 1405 033c 43495200 		.ascii	"CIR\000"
 1406 0340 05       		.byte	0x5
 1407 0341 4704     		.2byte	0x447
 1408 0343 DE000000 		.4byte	0xde
 1409 0347 08       		.byte	0x8
 1410 0348 0C       		.uleb128 0xc
 1411 0349 2D010000 		.4byte	.LASF97
 1412 034d 05       		.byte	0x5
 1413 034e 4804     		.2byte	0x448
 1414 0350 DE000000 		.4byte	0xde
 1415 0354 0C       		.byte	0xc
 1416 0355 0C       		.uleb128 0xc
 1417 0356 8C040000 		.4byte	.LASF98
 1418 035a 05       		.byte	0x5
 1419 035b 4904     		.2byte	0x449
 1420 035d DE000000 		.4byte	0xde
 1421 0361 10       		.byte	0x10
ARM GAS  /var/folders/6q/x_mk5n_j3p7_c40r_2k_78980000gn/T//ccebEyhT.s 			page 26


 1422 0362 0C       		.uleb128 0xc
 1423 0363 CA070000 		.4byte	.LASF99
 1424 0367 05       		.byte	0x5
 1425 0368 4A04     		.2byte	0x44a
 1426 036a DE000000 		.4byte	0xde
 1427 036e 14       		.byte	0x14
 1428 036f 0C       		.uleb128 0xc
 1429 0370 93050000 		.4byte	.LASF100
 1430 0374 05       		.byte	0x5
 1431 0375 4B04     		.2byte	0x44b
 1432 0377 DE000000 		.4byte	0xde
 1433 037b 18       		.byte	0x18
 1434 037c 0C       		.uleb128 0xc
 1435 037d 8C060000 		.4byte	.LASF101
 1436 0381 05       		.byte	0x5
 1437 0382 4C04     		.2byte	0x44c
 1438 0384 DE000000 		.4byte	0xde
 1439 0388 1C       		.byte	0x1c
 1440 0389 0C       		.uleb128 0xc
 1441 038a 16070000 		.4byte	.LASF102
 1442 038e 05       		.byte	0x5
 1443 038f 4D04     		.2byte	0x44d
 1444 0391 DE000000 		.4byte	0xde
 1445 0395 20       		.byte	0x20
 1446 0396 0B       		.uleb128 0xb
 1447 0397 43535200 		.ascii	"CSR\000"
 1448 039b 05       		.byte	0x5
 1449 039c 4E04     		.2byte	0x44e
 1450 039e DE000000 		.4byte	0xde
 1451 03a2 24       		.byte	0x24
 1452 03a3 00       		.byte	0
 1453 03a4 0D       		.uleb128 0xd
 1454 03a5 1E020000 		.4byte	.LASF103
 1455 03a9 05       		.byte	0x5
 1456 03aa 5904     		.2byte	0x459
 1457 03ac 19030000 		.4byte	0x319
 1458 03b0 0E       		.uleb128 0xe
 1459 03b1 0C       		.byte	0xc
 1460 03b2 06       		.byte	0x6
 1461 03b3 C1       		.byte	0xc1
 1462 03b4 F5030000 		.4byte	0x3f5
 1463 03b8 0F       		.uleb128 0xf
 1464 03b9 9B050000 		.4byte	.LASF104
 1465 03bd 06       		.byte	0x6
 1466 03be C2       		.byte	0xc2
 1467 03bf F5030000 		.4byte	0x3f5
 1468 03c3 00       		.byte	0
 1469 03c4 0F       		.uleb128 0xf
 1470 03c5 AE050000 		.4byte	.LASF105
 1471 03c9 06       		.byte	0x6
 1472 03ca C3       		.byte	0xc3
 1473 03cb FB030000 		.4byte	0x3fb
 1474 03cf 04       		.byte	0x4
 1475 03d0 0F       		.uleb128 0xf
 1476 03d1 3E020000 		.4byte	.LASF106
 1477 03d5 06       		.byte	0x6
 1478 03d6 C4       		.byte	0xc4
ARM GAS  /var/folders/6q/x_mk5n_j3p7_c40r_2k_78980000gn/T//ccebEyhT.s 			page 27


 1479 03d7 9E000000 		.4byte	0x9e
 1480 03db 08       		.byte	0x8
 1481 03dc 0F       		.uleb128 0xf
 1482 03dd C3010000 		.4byte	.LASF107
 1483 03e1 06       		.byte	0x6
 1484 03e2 C6       		.byte	0xc6
 1485 03e3 9E000000 		.4byte	0x9e
 1486 03e7 09       		.byte	0x9
 1487 03e8 0F       		.uleb128 0xf
 1488 03e9 9B000000 		.4byte	.LASF108
 1489 03ed 06       		.byte	0x6
 1490 03ee C7       		.byte	0xc7
 1491 03ef 9E000000 		.4byte	0x9e
 1492 03f3 0A       		.byte	0xa
 1493 03f4 00       		.byte	0
 1494 03f5 10       		.uleb128 0x10
 1495 03f6 04       		.byte	0x4
 1496 03f7 DD020000 		.4byte	0x2dd
 1497 03fb 10       		.uleb128 0x10
 1498 03fc 04       		.byte	0x4
 1499 03fd DE000000 		.4byte	0xde
 1500 0401 04       		.uleb128 0x4
 1501 0402 CA040000 		.4byte	.LASF109
 1502 0406 06       		.byte	0x6
 1503 0407 C8       		.byte	0xc8
 1504 0408 B0030000 		.4byte	0x3b0
 1505 040c 04       		.uleb128 0x4
 1506 040d FD010000 		.4byte	.LASF110
 1507 0411 06       		.byte	0x6
 1508 0412 D1       		.byte	0xd1
 1509 0413 17040000 		.4byte	0x417
 1510 0417 10       		.uleb128 0x10
 1511 0418 04       		.byte	0x4
 1512 0419 1D040000 		.4byte	0x41d
 1513 041d 11       		.uleb128 0x11
 1514 041e 2D040000 		.4byte	0x42d
 1515 0422 12       		.uleb128 0x12
 1516 0423 DC000000 		.4byte	0xdc
 1517 0427 12       		.uleb128 0x12
 1518 0428 BF000000 		.4byte	0xbf
 1519 042c 00       		.byte	0
 1520 042d 10       		.uleb128 0x10
 1521 042e 04       		.byte	0x4
 1522 042f 33040000 		.4byte	0x433
 1523 0433 13       		.uleb128 0x13
 1524 0434 01040000 		.4byte	0x401
 1525 0438 0E       		.uleb128 0xe
 1526 0439 08       		.byte	0x8
 1527 043a 01       		.byte	0x1
 1528 043b 62       		.byte	0x62
 1529 043c 59040000 		.4byte	0x459
 1530 0440 0F       		.uleb128 0xf
 1531 0441 5F040000 		.4byte	.LASF111
 1532 0445 01       		.byte	0x1
 1533 0446 63       		.byte	0x63
 1534 0447 0C040000 		.4byte	0x40c
 1535 044b 00       		.byte	0
ARM GAS  /var/folders/6q/x_mk5n_j3p7_c40r_2k_78980000gn/T//ccebEyhT.s 			page 28


 1536 044c 0F       		.uleb128 0xf
 1537 044d 81010000 		.4byte	.LASF112
 1538 0451 01       		.byte	0x1
 1539 0452 64       		.byte	0x64
 1540 0453 DC000000 		.4byte	0xdc
 1541 0457 04       		.byte	0x4
 1542 0458 00       		.byte	0
 1543 0459 04       		.uleb128 0x4
 1544 045a 00000000 		.4byte	.LASF113
 1545 045e 01       		.byte	0x1
 1546 045f 65       		.byte	0x65
 1547 0460 38040000 		.4byte	0x438
 1548 0464 14       		.uleb128 0x14
 1549 0465 DD040000 		.4byte	.LASF114
 1550 0469 01       		.byte	0x1
 1551 046a 7E       		.byte	0x7e
 1552 046b 00000000 		.4byte	.LFB63
 1553 046f 28000000 		.4byte	.LFE63-.LFB63
 1554 0473 01       		.uleb128 0x1
 1555 0474 9C       		.byte	0x9c
 1556 0475 92040000 		.4byte	0x492
 1557 0479 15       		.uleb128 0x15
 1558 047a 36070000 		.4byte	.LASF116
 1559 047e 01       		.byte	0x1
 1560 047f 7F       		.byte	0x7f
 1561 0480 BF000000 		.4byte	0xbf
 1562 0484 00000000 		.4byte	.LLST0
 1563 0488 16       		.uleb128 0x16
 1564 0489 1E000000 		.4byte	.LVL2
 1565 048d 9B070000 		.4byte	0x79b
 1566 0491 00       		.byte	0
 1567 0492 14       		.uleb128 0x14
 1568 0493 B3050000 		.4byte	.LASF115
 1569 0497 01       		.byte	0x1
 1570 0498 90       		.byte	0x90
 1571 0499 00000000 		.4byte	.LFB64
 1572 049d 28000000 		.4byte	.LFE64-.LFB64
 1573 04a1 01       		.uleb128 0x1
 1574 04a2 9C       		.byte	0x9c
 1575 04a3 C0040000 		.4byte	0x4c0
 1576 04a7 15       		.uleb128 0x15
 1577 04a8 36070000 		.4byte	.LASF116
 1578 04ac 01       		.byte	0x1
 1579 04ad 91       		.byte	0x91
 1580 04ae BF000000 		.4byte	0xbf
 1581 04b2 13000000 		.4byte	.LLST1
 1582 04b6 16       		.uleb128 0x16
 1583 04b7 20000000 		.4byte	.LVL5
 1584 04bb 9B070000 		.4byte	0x79b
 1585 04bf 00       		.byte	0
 1586 04c0 14       		.uleb128 0x14
 1587 04c1 BC050000 		.4byte	.LASF117
 1588 04c5 01       		.byte	0x1
 1589 04c6 A2       		.byte	0xa2
 1590 04c7 00000000 		.4byte	.LFB65
 1591 04cb 28000000 		.4byte	.LFE65-.LFB65
 1592 04cf 01       		.uleb128 0x1
ARM GAS  /var/folders/6q/x_mk5n_j3p7_c40r_2k_78980000gn/T//ccebEyhT.s 			page 29


 1593 04d0 9C       		.byte	0x9c
 1594 04d1 EE040000 		.4byte	0x4ee
 1595 04d5 15       		.uleb128 0x15
 1596 04d6 36070000 		.4byte	.LASF116
 1597 04da 01       		.byte	0x1
 1598 04db A3       		.byte	0xa3
 1599 04dc BF000000 		.4byte	0xbf
 1600 04e0 26000000 		.4byte	.LLST2
 1601 04e4 16       		.uleb128 0x16
 1602 04e5 20000000 		.4byte	.LVL8
 1603 04e9 9B070000 		.4byte	0x79b
 1604 04ed 00       		.byte	0
 1605 04ee 14       		.uleb128 0x14
 1606 04ef E1050000 		.4byte	.LASF118
 1607 04f3 01       		.byte	0x1
 1608 04f4 B4       		.byte	0xb4
 1609 04f5 00000000 		.4byte	.LFB66
 1610 04f9 28000000 		.4byte	.LFE66-.LFB66
 1611 04fd 01       		.uleb128 0x1
 1612 04fe 9C       		.byte	0x9c
 1613 04ff 1C050000 		.4byte	0x51c
 1614 0503 15       		.uleb128 0x15
 1615 0504 36070000 		.4byte	.LASF116
 1616 0508 01       		.byte	0x1
 1617 0509 B5       		.byte	0xb5
 1618 050a BF000000 		.4byte	0xbf
 1619 050e 39000000 		.4byte	.LLST3
 1620 0512 16       		.uleb128 0x16
 1621 0513 20000000 		.4byte	.LVL11
 1622 0517 9B070000 		.4byte	0x79b
 1623 051b 00       		.byte	0
 1624 051c 14       		.uleb128 0x14
 1625 051d 0D060000 		.4byte	.LASF119
 1626 0521 01       		.byte	0x1
 1627 0522 C6       		.byte	0xc6
 1628 0523 00000000 		.4byte	.LFB67
 1629 0527 28000000 		.4byte	.LFE67-.LFB67
 1630 052b 01       		.uleb128 0x1
 1631 052c 9C       		.byte	0x9c
 1632 052d 4A050000 		.4byte	0x54a
 1633 0531 15       		.uleb128 0x15
 1634 0532 36070000 		.4byte	.LASF116
 1635 0536 01       		.byte	0x1
 1636 0537 C7       		.byte	0xc7
 1637 0538 BF000000 		.4byte	0xbf
 1638 053c 4C000000 		.4byte	.LLST4
 1639 0540 16       		.uleb128 0x16
 1640 0541 20000000 		.4byte	.LVL14
 1641 0545 9B070000 		.4byte	0x79b
 1642 0549 00       		.byte	0
 1643 054a 14       		.uleb128 0x14
 1644 054b D0060000 		.4byte	.LASF120
 1645 054f 01       		.byte	0x1
 1646 0550 D8       		.byte	0xd8
 1647 0551 00000000 		.4byte	.LFB68
 1648 0555 28000000 		.4byte	.LFE68-.LFB68
 1649 0559 01       		.uleb128 0x1
ARM GAS  /var/folders/6q/x_mk5n_j3p7_c40r_2k_78980000gn/T//ccebEyhT.s 			page 30


 1650 055a 9C       		.byte	0x9c
 1651 055b 78050000 		.4byte	0x578
 1652 055f 15       		.uleb128 0x15
 1653 0560 36070000 		.4byte	.LASF116
 1654 0564 01       		.byte	0x1
 1655 0565 D9       		.byte	0xd9
 1656 0566 BF000000 		.4byte	0xbf
 1657 056a 5F000000 		.4byte	.LLST5
 1658 056e 16       		.uleb128 0x16
 1659 056f 20000000 		.4byte	.LVL17
 1660 0573 9B070000 		.4byte	0x79b
 1661 0577 00       		.byte	0
 1662 0578 14       		.uleb128 0x14
 1663 0579 E5060000 		.4byte	.LASF121
 1664 057d 01       		.byte	0x1
 1665 057e EA       		.byte	0xea
 1666 057f 00000000 		.4byte	.LFB69
 1667 0583 28000000 		.4byte	.LFE69-.LFB69
 1668 0587 01       		.uleb128 0x1
 1669 0588 9C       		.byte	0x9c
 1670 0589 A6050000 		.4byte	0x5a6
 1671 058d 15       		.uleb128 0x15
 1672 058e 36070000 		.4byte	.LASF116
 1673 0592 01       		.byte	0x1
 1674 0593 EB       		.byte	0xeb
 1675 0594 BF000000 		.4byte	0xbf
 1676 0598 72000000 		.4byte	.LLST6
 1677 059c 16       		.uleb128 0x16
 1678 059d 20000000 		.4byte	.LVL20
 1679 05a1 9B070000 		.4byte	0x79b
 1680 05a5 00       		.byte	0
 1681 05a6 14       		.uleb128 0x14
 1682 05a7 4A070000 		.4byte	.LASF122
 1683 05ab 01       		.byte	0x1
 1684 05ac FD       		.byte	0xfd
 1685 05ad 00000000 		.4byte	.LFB70
 1686 05b1 28000000 		.4byte	.LFE70-.LFB70
 1687 05b5 01       		.uleb128 0x1
 1688 05b6 9C       		.byte	0x9c
 1689 05b7 D4050000 		.4byte	0x5d4
 1690 05bb 15       		.uleb128 0x15
 1691 05bc 36070000 		.4byte	.LASF116
 1692 05c0 01       		.byte	0x1
 1693 05c1 FE       		.byte	0xfe
 1694 05c2 BF000000 		.4byte	0xbf
 1695 05c6 85000000 		.4byte	.LLST7
 1696 05ca 16       		.uleb128 0x16
 1697 05cb 1E000000 		.4byte	.LVL23
 1698 05cf 9B070000 		.4byte	0x79b
 1699 05d3 00       		.byte	0
 1700 05d4 17       		.uleb128 0x17
 1701 05d5 59070000 		.4byte	.LASF123
 1702 05d9 01       		.byte	0x1
 1703 05da 0F01     		.2byte	0x10f
 1704 05dc 00000000 		.4byte	.LFB71
 1705 05e0 28000000 		.4byte	.LFE71-.LFB71
 1706 05e4 01       		.uleb128 0x1
ARM GAS  /var/folders/6q/x_mk5n_j3p7_c40r_2k_78980000gn/T//ccebEyhT.s 			page 31


 1707 05e5 9C       		.byte	0x9c
 1708 05e6 04060000 		.4byte	0x604
 1709 05ea 18       		.uleb128 0x18
 1710 05eb 36070000 		.4byte	.LASF116
 1711 05ef 01       		.byte	0x1
 1712 05f0 1001     		.2byte	0x110
 1713 05f2 BF000000 		.4byte	0xbf
 1714 05f6 98000000 		.4byte	.LLST8
 1715 05fa 16       		.uleb128 0x16
 1716 05fb 20000000 		.4byte	.LVL26
 1717 05ff 9B070000 		.4byte	0x79b
 1718 0603 00       		.byte	0
 1719 0604 17       		.uleb128 0x17
 1720 0605 63070000 		.4byte	.LASF124
 1721 0609 01       		.byte	0x1
 1722 060a 2101     		.2byte	0x121
 1723 060c 00000000 		.4byte	.LFB72
 1724 0610 28000000 		.4byte	.LFE72-.LFB72
 1725 0614 01       		.uleb128 0x1
 1726 0615 9C       		.byte	0x9c
 1727 0616 34060000 		.4byte	0x634
 1728 061a 18       		.uleb128 0x18
 1729 061b 36070000 		.4byte	.LASF116
 1730 061f 01       		.byte	0x1
 1731 0620 2201     		.2byte	0x122
 1732 0622 BF000000 		.4byte	0xbf
 1733 0626 AB000000 		.4byte	.LLST9
 1734 062a 16       		.uleb128 0x16
 1735 062b 20000000 		.4byte	.LVL29
 1736 062f 9B070000 		.4byte	0x79b
 1737 0633 00       		.byte	0
 1738 0634 19       		.uleb128 0x19
 1739 0635 8D070000 		.4byte	.LASF125
 1740 0639 01       		.byte	0x1
 1741 063a 5A01     		.2byte	0x15a
 1742 063c 00000000 		.4byte	.LFB73
 1743 0640 44000000 		.4byte	.LFE73-.LFB73
 1744 0644 01       		.uleb128 0x1
 1745 0645 9C       		.byte	0x9c
 1746 0646 74060000 		.4byte	0x674
 1747 064a 18       		.uleb128 0x18
 1748 064b 36070000 		.4byte	.LASF116
 1749 064f 01       		.byte	0x1
 1750 0650 5B01     		.2byte	0x15b
 1751 0652 BF000000 		.4byte	0xbf
 1752 0656 BE000000 		.4byte	.LLST10
 1753 065a 1A       		.uleb128 0x1a
 1754 065b 1A000000 		.4byte	.LVL31
 1755 065f 02       		.uleb128 0x2
 1756 0660 74       		.byte	0x74
 1757 0661 00       		.sleb128 0
 1758 0662 1A       		.uleb128 0x1a
 1759 0663 32000000 		.4byte	.LVL33
 1760 0667 02       		.uleb128 0x2
 1761 0668 74       		.byte	0x74
 1762 0669 00       		.sleb128 0
 1763 066a 16       		.uleb128 0x16
ARM GAS  /var/folders/6q/x_mk5n_j3p7_c40r_2k_78980000gn/T//ccebEyhT.s 			page 32


 1764 066b 3A000000 		.4byte	.LVL34
 1765 066f 9B070000 		.4byte	0x79b
 1766 0673 00       		.byte	0
 1767 0674 19       		.uleb128 0x19
 1768 0675 EA050000 		.4byte	.LASF126
 1769 0679 01       		.byte	0x1
 1770 067a 7D01     		.2byte	0x17d
 1771 067c 00000000 		.4byte	.LFB74
 1772 0680 4C000000 		.4byte	.LFE74-.LFB74
 1773 0684 01       		.uleb128 0x1
 1774 0685 9C       		.byte	0x9c
 1775 0686 99060000 		.4byte	0x699
 1776 068a 1B       		.uleb128 0x1b
 1777 068b 6900     		.ascii	"i\000"
 1778 068d 01       		.byte	0x1
 1779 068e 7E01     		.2byte	0x17e
 1780 0690 25000000 		.4byte	0x25
 1781 0694 DC000000 		.4byte	.LLST11
 1782 0698 00       		.byte	0
 1783 0699 1C       		.uleb128 0x1c
 1784 069a A5070000 		.4byte	.LASF143
 1785 069e 01       		.byte	0x1
 1786 069f A301     		.2byte	0x1a3
 1787 06a1 CA000000 		.4byte	0xca
 1788 06a5 00000000 		.4byte	.LFB75
 1789 06a9 80000000 		.4byte	.LFE75-.LFB75
 1790 06ad 01       		.uleb128 0x1
 1791 06ae 9C       		.byte	0x9c
 1792 06af 07070000 		.4byte	0x707
 1793 06b3 1D       		.uleb128 0x1d
 1794 06b4 1D010000 		.4byte	.LASF127
 1795 06b8 01       		.byte	0x1
 1796 06b9 A301     		.2byte	0x1a3
 1797 06bb 2D040000 		.4byte	0x42d
 1798 06bf FB000000 		.4byte	.LLST12
 1799 06c3 1D       		.uleb128 0x1d
 1800 06c4 5E030000 		.4byte	.LASF128
 1801 06c8 01       		.byte	0x1
 1802 06c9 A401     		.2byte	0x1a4
 1803 06cb BF000000 		.4byte	0xbf
 1804 06cf 4E010000 		.4byte	.LLST13
 1805 06d3 1D       		.uleb128 0x1d
 1806 06d4 36010000 		.4byte	.LASF129
 1807 06d8 01       		.byte	0x1
 1808 06d9 A501     		.2byte	0x1a5
 1809 06db 0C040000 		.4byte	0x40c
 1810 06df 7A010000 		.4byte	.LLST14
 1811 06e3 1D       		.uleb128 0x1d
 1812 06e4 3A040000 		.4byte	.LASF130
 1813 06e8 01       		.byte	0x1
 1814 06e9 A601     		.2byte	0x1a6
 1815 06eb DC000000 		.4byte	0xdc
 1816 06ef A6010000 		.4byte	.LLST15
 1817 06f3 1E       		.uleb128 0x1e
 1818 06f4 68000000 		.4byte	.LVL44
 1819 06f8 A7070000 		.4byte	0x7a7
 1820 06fc 1F       		.uleb128 0x1f
ARM GAS  /var/folders/6q/x_mk5n_j3p7_c40r_2k_78980000gn/T//ccebEyhT.s 			page 33


 1821 06fd 01       		.uleb128 0x1
 1822 06fe 51       		.byte	0x51
 1823 06ff 05       		.uleb128 0x5
 1824 0700 F3       		.byte	0xf3
 1825 0701 01       		.uleb128 0x1
 1826 0702 51       		.byte	0x51
 1827 0703 34       		.byte	0x34
 1828 0704 24       		.byte	0x24
 1829 0705 00       		.byte	0
 1830 0706 00       		.byte	0
 1831 0707 19       		.uleb128 0x19
 1832 0708 FC050000 		.4byte	.LASF131
 1833 070c 01       		.byte	0x1
 1834 070d D301     		.2byte	0x1d3
 1835 070f 00000000 		.4byte	.LFB76
 1836 0713 44000000 		.4byte	.LFE76-.LFB76
 1837 0717 01       		.uleb128 0x1
 1838 0718 9C       		.byte	0x9c
 1839 0719 37070000 		.4byte	0x737
 1840 071d 1D       		.uleb128 0x1d
 1841 071e 1D010000 		.4byte	.LASF127
 1842 0722 01       		.byte	0x1
 1843 0723 D301     		.2byte	0x1d3
 1844 0725 2D040000 		.4byte	0x42d
 1845 0729 EA010000 		.4byte	.LLST16
 1846 072d 20       		.uleb128 0x20
 1847 072e 0A000000 		.4byte	.LVL51
 1848 0732 B3070000 		.4byte	0x7b3
 1849 0736 00       		.byte	0
 1850 0737 21       		.uleb128 0x21
 1851 0738 AD060000 		.4byte	.LASF132
 1852 073c 01       		.byte	0x1
 1853 073d 6A       		.byte	0x6a
 1854 073e BF000000 		.4byte	0xbf
 1855 0742 05       		.uleb128 0x5
 1856 0743 03       		.byte	0x3
 1857 0744 00000000 		.4byte	dma_streams_mask
 1858 0748 22       		.uleb128 0x22
 1859 0749 59040000 		.4byte	0x459
 1860 074d 58070000 		.4byte	0x758
 1861 0751 23       		.uleb128 0x23
 1862 0752 E3000000 		.4byte	0xe3
 1863 0756 0B       		.byte	0xb
 1864 0757 00       		.byte	0
 1865 0758 21       		.uleb128 0x21
 1866 0759 3C070000 		.4byte	.LASF133
 1867 075d 01       		.byte	0x1
 1868 075e 6F       		.byte	0x6f
 1869 075f 48070000 		.4byte	0x748
 1870 0763 05       		.uleb128 0x5
 1871 0764 03       		.byte	0x3
 1872 0765 00000000 		.4byte	dma_isr_redir
 1873 0769 24       		.uleb128 0x24
 1874 076a 47050000 		.4byte	.LASF134
 1875 076e 07       		.byte	0x7
 1876 076f 0706     		.2byte	0x607
 1877 0771 9A020000 		.4byte	0x29a
ARM GAS  /var/folders/6q/x_mk5n_j3p7_c40r_2k_78980000gn/T//ccebEyhT.s 			page 34


 1878 0775 22       		.uleb128 0x22
 1879 0776 33040000 		.4byte	0x433
 1880 077a 85070000 		.4byte	0x785
 1881 077e 23       		.uleb128 0x23
 1882 077f E3000000 		.4byte	0xe3
 1883 0783 0B       		.byte	0xb
 1884 0784 00       		.byte	0
 1885 0785 25       		.uleb128 0x25
 1886 0786 A2000000 		.4byte	.LASF135
 1887 078a 01       		.byte	0x1
 1888 078b 45       		.byte	0x45
 1889 078c 96070000 		.4byte	0x796
 1890 0790 05       		.uleb128 0x5
 1891 0791 03       		.byte	0x3
 1892 0792 00000000 		.4byte	_stm32_dma_streams
 1893 0796 13       		.uleb128 0x13
 1894 0797 75070000 		.4byte	0x775
 1895 079b 26       		.uleb128 0x26
 1896 079c 1B070000 		.4byte	.LASF136
 1897 07a0 1B070000 		.4byte	.LASF136
 1898 07a4 08       		.byte	0x8
 1899 07a5 0302     		.2byte	0x203
 1900 07a7 26       		.uleb128 0x26
 1901 07a8 EB000000 		.4byte	.LASF137
 1902 07ac EB000000 		.4byte	.LASF137
 1903 07b0 09       		.byte	0x9
 1904 07b1 2301     		.2byte	0x123
 1905 07b3 26       		.uleb128 0x26
 1906 07b4 E6010000 		.4byte	.LASF138
 1907 07b8 E6010000 		.4byte	.LASF138
 1908 07bc 09       		.byte	0x9
 1909 07bd 2401     		.2byte	0x124
 1910 07bf 00       		.byte	0
 1911              		.section	.debug_abbrev,"",%progbits
 1912              	.Ldebug_abbrev0:
 1913 0000 01       		.uleb128 0x1
 1914 0001 11       		.uleb128 0x11
 1915 0002 01       		.byte	0x1
 1916 0003 25       		.uleb128 0x25
 1917 0004 0E       		.uleb128 0xe
 1918 0005 13       		.uleb128 0x13
 1919 0006 0B       		.uleb128 0xb
 1920 0007 03       		.uleb128 0x3
 1921 0008 0E       		.uleb128 0xe
 1922 0009 1B       		.uleb128 0x1b
 1923 000a 0E       		.uleb128 0xe
 1924 000b 55       		.uleb128 0x55
 1925 000c 17       		.uleb128 0x17
 1926 000d 11       		.uleb128 0x11
 1927 000e 01       		.uleb128 0x1
 1928 000f 10       		.uleb128 0x10
 1929 0010 17       		.uleb128 0x17
 1930 0011 00       		.byte	0
 1931 0012 00       		.byte	0
 1932 0013 02       		.uleb128 0x2
 1933 0014 24       		.uleb128 0x24
 1934 0015 00       		.byte	0
ARM GAS  /var/folders/6q/x_mk5n_j3p7_c40r_2k_78980000gn/T//ccebEyhT.s 			page 35


 1935 0016 0B       		.uleb128 0xb
 1936 0017 0B       		.uleb128 0xb
 1937 0018 3E       		.uleb128 0x3e
 1938 0019 0B       		.uleb128 0xb
 1939 001a 03       		.uleb128 0x3
 1940 001b 08       		.uleb128 0x8
 1941 001c 00       		.byte	0
 1942 001d 00       		.byte	0
 1943 001e 03       		.uleb128 0x3
 1944 001f 24       		.uleb128 0x24
 1945 0020 00       		.byte	0
 1946 0021 0B       		.uleb128 0xb
 1947 0022 0B       		.uleb128 0xb
 1948 0023 3E       		.uleb128 0x3e
 1949 0024 0B       		.uleb128 0xb
 1950 0025 03       		.uleb128 0x3
 1951 0026 0E       		.uleb128 0xe
 1952 0027 00       		.byte	0
 1953 0028 00       		.byte	0
 1954 0029 04       		.uleb128 0x4
 1955 002a 16       		.uleb128 0x16
 1956 002b 00       		.byte	0
 1957 002c 03       		.uleb128 0x3
 1958 002d 0E       		.uleb128 0xe
 1959 002e 3A       		.uleb128 0x3a
 1960 002f 0B       		.uleb128 0xb
 1961 0030 3B       		.uleb128 0x3b
 1962 0031 0B       		.uleb128 0xb
 1963 0032 49       		.uleb128 0x49
 1964 0033 13       		.uleb128 0x13
 1965 0034 00       		.byte	0
 1966 0035 00       		.byte	0
 1967 0036 05       		.uleb128 0x5
 1968 0037 0F       		.uleb128 0xf
 1969 0038 00       		.byte	0
 1970 0039 0B       		.uleb128 0xb
 1971 003a 0B       		.uleb128 0xb
 1972 003b 00       		.byte	0
 1973 003c 00       		.byte	0
 1974 003d 06       		.uleb128 0x6
 1975 003e 35       		.uleb128 0x35
 1976 003f 00       		.byte	0
 1977 0040 49       		.uleb128 0x49
 1978 0041 13       		.uleb128 0x13
 1979 0042 00       		.byte	0
 1980 0043 00       		.byte	0
 1981 0044 07       		.uleb128 0x7
 1982 0045 04       		.uleb128 0x4
 1983 0046 01       		.byte	0x1
 1984 0047 03       		.uleb128 0x3
 1985 0048 0E       		.uleb128 0xe
 1986 0049 0B       		.uleb128 0xb
 1987 004a 0B       		.uleb128 0xb
 1988 004b 49       		.uleb128 0x49
 1989 004c 13       		.uleb128 0x13
 1990 004d 3A       		.uleb128 0x3a
 1991 004e 0B       		.uleb128 0xb
ARM GAS  /var/folders/6q/x_mk5n_j3p7_c40r_2k_78980000gn/T//ccebEyhT.s 			page 36


 1992 004f 3B       		.uleb128 0x3b
 1993 0050 0B       		.uleb128 0xb
 1994 0051 01       		.uleb128 0x1
 1995 0052 13       		.uleb128 0x13
 1996 0053 00       		.byte	0
 1997 0054 00       		.byte	0
 1998 0055 08       		.uleb128 0x8
 1999 0056 28       		.uleb128 0x28
 2000 0057 00       		.byte	0
 2001 0058 03       		.uleb128 0x3
 2002 0059 0E       		.uleb128 0xe
 2003 005a 1C       		.uleb128 0x1c
 2004 005b 0D       		.uleb128 0xd
 2005 005c 00       		.byte	0
 2006 005d 00       		.byte	0
 2007 005e 09       		.uleb128 0x9
 2008 005f 28       		.uleb128 0x28
 2009 0060 00       		.byte	0
 2010 0061 03       		.uleb128 0x3
 2011 0062 0E       		.uleb128 0xe
 2012 0063 1C       		.uleb128 0x1c
 2013 0064 0B       		.uleb128 0xb
 2014 0065 00       		.byte	0
 2015 0066 00       		.byte	0
 2016 0067 0A       		.uleb128 0xa
 2017 0068 13       		.uleb128 0x13
 2018 0069 01       		.byte	0x1
 2019 006a 0B       		.uleb128 0xb
 2020 006b 0B       		.uleb128 0xb
 2021 006c 3A       		.uleb128 0x3a
 2022 006d 0B       		.uleb128 0xb
 2023 006e 3B       		.uleb128 0x3b
 2024 006f 05       		.uleb128 0x5
 2025 0070 01       		.uleb128 0x1
 2026 0071 13       		.uleb128 0x13
 2027 0072 00       		.byte	0
 2028 0073 00       		.byte	0
 2029 0074 0B       		.uleb128 0xb
 2030 0075 0D       		.uleb128 0xd
 2031 0076 00       		.byte	0
 2032 0077 03       		.uleb128 0x3
 2033 0078 08       		.uleb128 0x8
 2034 0079 3A       		.uleb128 0x3a
 2035 007a 0B       		.uleb128 0xb
 2036 007b 3B       		.uleb128 0x3b
 2037 007c 05       		.uleb128 0x5
 2038 007d 49       		.uleb128 0x49
 2039 007e 13       		.uleb128 0x13
 2040 007f 38       		.uleb128 0x38
 2041 0080 0B       		.uleb128 0xb
 2042 0081 00       		.byte	0
 2043 0082 00       		.byte	0
 2044 0083 0C       		.uleb128 0xc
 2045 0084 0D       		.uleb128 0xd
 2046 0085 00       		.byte	0
 2047 0086 03       		.uleb128 0x3
 2048 0087 0E       		.uleb128 0xe
ARM GAS  /var/folders/6q/x_mk5n_j3p7_c40r_2k_78980000gn/T//ccebEyhT.s 			page 37


 2049 0088 3A       		.uleb128 0x3a
 2050 0089 0B       		.uleb128 0xb
 2051 008a 3B       		.uleb128 0x3b
 2052 008b 05       		.uleb128 0x5
 2053 008c 49       		.uleb128 0x49
 2054 008d 13       		.uleb128 0x13
 2055 008e 38       		.uleb128 0x38
 2056 008f 0B       		.uleb128 0xb
 2057 0090 00       		.byte	0
 2058 0091 00       		.byte	0
 2059 0092 0D       		.uleb128 0xd
 2060 0093 16       		.uleb128 0x16
 2061 0094 00       		.byte	0
 2062 0095 03       		.uleb128 0x3
 2063 0096 0E       		.uleb128 0xe
 2064 0097 3A       		.uleb128 0x3a
 2065 0098 0B       		.uleb128 0xb
 2066 0099 3B       		.uleb128 0x3b
 2067 009a 05       		.uleb128 0x5
 2068 009b 49       		.uleb128 0x49
 2069 009c 13       		.uleb128 0x13
 2070 009d 00       		.byte	0
 2071 009e 00       		.byte	0
 2072 009f 0E       		.uleb128 0xe
 2073 00a0 13       		.uleb128 0x13
 2074 00a1 01       		.byte	0x1
 2075 00a2 0B       		.uleb128 0xb
 2076 00a3 0B       		.uleb128 0xb
 2077 00a4 3A       		.uleb128 0x3a
 2078 00a5 0B       		.uleb128 0xb
 2079 00a6 3B       		.uleb128 0x3b
 2080 00a7 0B       		.uleb128 0xb
 2081 00a8 01       		.uleb128 0x1
 2082 00a9 13       		.uleb128 0x13
 2083 00aa 00       		.byte	0
 2084 00ab 00       		.byte	0
 2085 00ac 0F       		.uleb128 0xf
 2086 00ad 0D       		.uleb128 0xd
 2087 00ae 00       		.byte	0
 2088 00af 03       		.uleb128 0x3
 2089 00b0 0E       		.uleb128 0xe
 2090 00b1 3A       		.uleb128 0x3a
 2091 00b2 0B       		.uleb128 0xb
 2092 00b3 3B       		.uleb128 0x3b
 2093 00b4 0B       		.uleb128 0xb
 2094 00b5 49       		.uleb128 0x49
 2095 00b6 13       		.uleb128 0x13
 2096 00b7 38       		.uleb128 0x38
 2097 00b8 0B       		.uleb128 0xb
 2098 00b9 00       		.byte	0
 2099 00ba 00       		.byte	0
 2100 00bb 10       		.uleb128 0x10
 2101 00bc 0F       		.uleb128 0xf
 2102 00bd 00       		.byte	0
 2103 00be 0B       		.uleb128 0xb
 2104 00bf 0B       		.uleb128 0xb
 2105 00c0 49       		.uleb128 0x49
ARM GAS  /var/folders/6q/x_mk5n_j3p7_c40r_2k_78980000gn/T//ccebEyhT.s 			page 38


 2106 00c1 13       		.uleb128 0x13
 2107 00c2 00       		.byte	0
 2108 00c3 00       		.byte	0
 2109 00c4 11       		.uleb128 0x11
 2110 00c5 15       		.uleb128 0x15
 2111 00c6 01       		.byte	0x1
 2112 00c7 27       		.uleb128 0x27
 2113 00c8 19       		.uleb128 0x19
 2114 00c9 01       		.uleb128 0x1
 2115 00ca 13       		.uleb128 0x13
 2116 00cb 00       		.byte	0
 2117 00cc 00       		.byte	0
 2118 00cd 12       		.uleb128 0x12
 2119 00ce 05       		.uleb128 0x5
 2120 00cf 00       		.byte	0
 2121 00d0 49       		.uleb128 0x49
 2122 00d1 13       		.uleb128 0x13
 2123 00d2 00       		.byte	0
 2124 00d3 00       		.byte	0
 2125 00d4 13       		.uleb128 0x13
 2126 00d5 26       		.uleb128 0x26
 2127 00d6 00       		.byte	0
 2128 00d7 49       		.uleb128 0x49
 2129 00d8 13       		.uleb128 0x13
 2130 00d9 00       		.byte	0
 2131 00da 00       		.byte	0
 2132 00db 14       		.uleb128 0x14
 2133 00dc 2E       		.uleb128 0x2e
 2134 00dd 01       		.byte	0x1
 2135 00de 3F       		.uleb128 0x3f
 2136 00df 19       		.uleb128 0x19
 2137 00e0 03       		.uleb128 0x3
 2138 00e1 0E       		.uleb128 0xe
 2139 00e2 3A       		.uleb128 0x3a
 2140 00e3 0B       		.uleb128 0xb
 2141 00e4 3B       		.uleb128 0x3b
 2142 00e5 0B       		.uleb128 0xb
 2143 00e6 27       		.uleb128 0x27
 2144 00e7 19       		.uleb128 0x19
 2145 00e8 11       		.uleb128 0x11
 2146 00e9 01       		.uleb128 0x1
 2147 00ea 12       		.uleb128 0x12
 2148 00eb 06       		.uleb128 0x6
 2149 00ec 40       		.uleb128 0x40
 2150 00ed 18       		.uleb128 0x18
 2151 00ee 9642     		.uleb128 0x2116
 2152 00f0 19       		.uleb128 0x19
 2153 00f1 01       		.uleb128 0x1
 2154 00f2 13       		.uleb128 0x13
 2155 00f3 00       		.byte	0
 2156 00f4 00       		.byte	0
 2157 00f5 15       		.uleb128 0x15
 2158 00f6 34       		.uleb128 0x34
 2159 00f7 00       		.byte	0
 2160 00f8 03       		.uleb128 0x3
 2161 00f9 0E       		.uleb128 0xe
 2162 00fa 3A       		.uleb128 0x3a
ARM GAS  /var/folders/6q/x_mk5n_j3p7_c40r_2k_78980000gn/T//ccebEyhT.s 			page 39


 2163 00fb 0B       		.uleb128 0xb
 2164 00fc 3B       		.uleb128 0x3b
 2165 00fd 0B       		.uleb128 0xb
 2166 00fe 49       		.uleb128 0x49
 2167 00ff 13       		.uleb128 0x13
 2168 0100 02       		.uleb128 0x2
 2169 0101 17       		.uleb128 0x17
 2170 0102 00       		.byte	0
 2171 0103 00       		.byte	0
 2172 0104 16       		.uleb128 0x16
 2173 0105 898201   		.uleb128 0x4109
 2174 0108 00       		.byte	0
 2175 0109 11       		.uleb128 0x11
 2176 010a 01       		.uleb128 0x1
 2177 010b 9542     		.uleb128 0x2115
 2178 010d 19       		.uleb128 0x19
 2179 010e 31       		.uleb128 0x31
 2180 010f 13       		.uleb128 0x13
 2181 0110 00       		.byte	0
 2182 0111 00       		.byte	0
 2183 0112 17       		.uleb128 0x17
 2184 0113 2E       		.uleb128 0x2e
 2185 0114 01       		.byte	0x1
 2186 0115 3F       		.uleb128 0x3f
 2187 0116 19       		.uleb128 0x19
 2188 0117 03       		.uleb128 0x3
 2189 0118 0E       		.uleb128 0xe
 2190 0119 3A       		.uleb128 0x3a
 2191 011a 0B       		.uleb128 0xb
 2192 011b 3B       		.uleb128 0x3b
 2193 011c 05       		.uleb128 0x5
 2194 011d 27       		.uleb128 0x27
 2195 011e 19       		.uleb128 0x19
 2196 011f 11       		.uleb128 0x11
 2197 0120 01       		.uleb128 0x1
 2198 0121 12       		.uleb128 0x12
 2199 0122 06       		.uleb128 0x6
 2200 0123 40       		.uleb128 0x40
 2201 0124 18       		.uleb128 0x18
 2202 0125 9642     		.uleb128 0x2116
 2203 0127 19       		.uleb128 0x19
 2204 0128 01       		.uleb128 0x1
 2205 0129 13       		.uleb128 0x13
 2206 012a 00       		.byte	0
 2207 012b 00       		.byte	0
 2208 012c 18       		.uleb128 0x18
 2209 012d 34       		.uleb128 0x34
 2210 012e 00       		.byte	0
 2211 012f 03       		.uleb128 0x3
 2212 0130 0E       		.uleb128 0xe
 2213 0131 3A       		.uleb128 0x3a
 2214 0132 0B       		.uleb128 0xb
 2215 0133 3B       		.uleb128 0x3b
 2216 0134 05       		.uleb128 0x5
 2217 0135 49       		.uleb128 0x49
 2218 0136 13       		.uleb128 0x13
 2219 0137 02       		.uleb128 0x2
ARM GAS  /var/folders/6q/x_mk5n_j3p7_c40r_2k_78980000gn/T//ccebEyhT.s 			page 40


 2220 0138 17       		.uleb128 0x17
 2221 0139 00       		.byte	0
 2222 013a 00       		.byte	0
 2223 013b 19       		.uleb128 0x19
 2224 013c 2E       		.uleb128 0x2e
 2225 013d 01       		.byte	0x1
 2226 013e 3F       		.uleb128 0x3f
 2227 013f 19       		.uleb128 0x19
 2228 0140 03       		.uleb128 0x3
 2229 0141 0E       		.uleb128 0xe
 2230 0142 3A       		.uleb128 0x3a
 2231 0143 0B       		.uleb128 0xb
 2232 0144 3B       		.uleb128 0x3b
 2233 0145 05       		.uleb128 0x5
 2234 0146 27       		.uleb128 0x27
 2235 0147 19       		.uleb128 0x19
 2236 0148 11       		.uleb128 0x11
 2237 0149 01       		.uleb128 0x1
 2238 014a 12       		.uleb128 0x12
 2239 014b 06       		.uleb128 0x6
 2240 014c 40       		.uleb128 0x40
 2241 014d 18       		.uleb128 0x18
 2242 014e 9742     		.uleb128 0x2117
 2243 0150 19       		.uleb128 0x19
 2244 0151 01       		.uleb128 0x1
 2245 0152 13       		.uleb128 0x13
 2246 0153 00       		.byte	0
 2247 0154 00       		.byte	0
 2248 0155 1A       		.uleb128 0x1a
 2249 0156 898201   		.uleb128 0x4109
 2250 0159 00       		.byte	0
 2251 015a 11       		.uleb128 0x11
 2252 015b 01       		.uleb128 0x1
 2253 015c 9342     		.uleb128 0x2113
 2254 015e 18       		.uleb128 0x18
 2255 015f 00       		.byte	0
 2256 0160 00       		.byte	0
 2257 0161 1B       		.uleb128 0x1b
 2258 0162 34       		.uleb128 0x34
 2259 0163 00       		.byte	0
 2260 0164 03       		.uleb128 0x3
 2261 0165 08       		.uleb128 0x8
 2262 0166 3A       		.uleb128 0x3a
 2263 0167 0B       		.uleb128 0xb
 2264 0168 3B       		.uleb128 0x3b
 2265 0169 05       		.uleb128 0x5
 2266 016a 49       		.uleb128 0x49
 2267 016b 13       		.uleb128 0x13
 2268 016c 02       		.uleb128 0x2
 2269 016d 17       		.uleb128 0x17
 2270 016e 00       		.byte	0
 2271 016f 00       		.byte	0
 2272 0170 1C       		.uleb128 0x1c
 2273 0171 2E       		.uleb128 0x2e
 2274 0172 01       		.byte	0x1
 2275 0173 3F       		.uleb128 0x3f
 2276 0174 19       		.uleb128 0x19
ARM GAS  /var/folders/6q/x_mk5n_j3p7_c40r_2k_78980000gn/T//ccebEyhT.s 			page 41


 2277 0175 03       		.uleb128 0x3
 2278 0176 0E       		.uleb128 0xe
 2279 0177 3A       		.uleb128 0x3a
 2280 0178 0B       		.uleb128 0xb
 2281 0179 3B       		.uleb128 0x3b
 2282 017a 05       		.uleb128 0x5
 2283 017b 27       		.uleb128 0x27
 2284 017c 19       		.uleb128 0x19
 2285 017d 49       		.uleb128 0x49
 2286 017e 13       		.uleb128 0x13
 2287 017f 11       		.uleb128 0x11
 2288 0180 01       		.uleb128 0x1
 2289 0181 12       		.uleb128 0x12
 2290 0182 06       		.uleb128 0x6
 2291 0183 40       		.uleb128 0x40
 2292 0184 18       		.uleb128 0x18
 2293 0185 9742     		.uleb128 0x2117
 2294 0187 19       		.uleb128 0x19
 2295 0188 01       		.uleb128 0x1
 2296 0189 13       		.uleb128 0x13
 2297 018a 00       		.byte	0
 2298 018b 00       		.byte	0
 2299 018c 1D       		.uleb128 0x1d
 2300 018d 05       		.uleb128 0x5
 2301 018e 00       		.byte	0
 2302 018f 03       		.uleb128 0x3
 2303 0190 0E       		.uleb128 0xe
 2304 0191 3A       		.uleb128 0x3a
 2305 0192 0B       		.uleb128 0xb
 2306 0193 3B       		.uleb128 0x3b
 2307 0194 05       		.uleb128 0x5
 2308 0195 49       		.uleb128 0x49
 2309 0196 13       		.uleb128 0x13
 2310 0197 02       		.uleb128 0x2
 2311 0198 17       		.uleb128 0x17
 2312 0199 00       		.byte	0
 2313 019a 00       		.byte	0
 2314 019b 1E       		.uleb128 0x1e
 2315 019c 898201   		.uleb128 0x4109
 2316 019f 01       		.byte	0x1
 2317 01a0 11       		.uleb128 0x11
 2318 01a1 01       		.uleb128 0x1
 2319 01a2 31       		.uleb128 0x31
 2320 01a3 13       		.uleb128 0x13
 2321 01a4 00       		.byte	0
 2322 01a5 00       		.byte	0
 2323 01a6 1F       		.uleb128 0x1f
 2324 01a7 8A8201   		.uleb128 0x410a
 2325 01aa 00       		.byte	0
 2326 01ab 02       		.uleb128 0x2
 2327 01ac 18       		.uleb128 0x18
 2328 01ad 9142     		.uleb128 0x2111
 2329 01af 18       		.uleb128 0x18
 2330 01b0 00       		.byte	0
 2331 01b1 00       		.byte	0
 2332 01b2 20       		.uleb128 0x20
 2333 01b3 898201   		.uleb128 0x4109
ARM GAS  /var/folders/6q/x_mk5n_j3p7_c40r_2k_78980000gn/T//ccebEyhT.s 			page 42


 2334 01b6 00       		.byte	0
 2335 01b7 11       		.uleb128 0x11
 2336 01b8 01       		.uleb128 0x1
 2337 01b9 31       		.uleb128 0x31
 2338 01ba 13       		.uleb128 0x13
 2339 01bb 00       		.byte	0
 2340 01bc 00       		.byte	0
 2341 01bd 21       		.uleb128 0x21
 2342 01be 34       		.uleb128 0x34
 2343 01bf 00       		.byte	0
 2344 01c0 03       		.uleb128 0x3
 2345 01c1 0E       		.uleb128 0xe
 2346 01c2 3A       		.uleb128 0x3a
 2347 01c3 0B       		.uleb128 0xb
 2348 01c4 3B       		.uleb128 0x3b
 2349 01c5 0B       		.uleb128 0xb
 2350 01c6 49       		.uleb128 0x49
 2351 01c7 13       		.uleb128 0x13
 2352 01c8 02       		.uleb128 0x2
 2353 01c9 18       		.uleb128 0x18
 2354 01ca 00       		.byte	0
 2355 01cb 00       		.byte	0
 2356 01cc 22       		.uleb128 0x22
 2357 01cd 01       		.uleb128 0x1
 2358 01ce 01       		.byte	0x1
 2359 01cf 49       		.uleb128 0x49
 2360 01d0 13       		.uleb128 0x13
 2361 01d1 01       		.uleb128 0x1
 2362 01d2 13       		.uleb128 0x13
 2363 01d3 00       		.byte	0
 2364 01d4 00       		.byte	0
 2365 01d5 23       		.uleb128 0x23
 2366 01d6 21       		.uleb128 0x21
 2367 01d7 00       		.byte	0
 2368 01d8 49       		.uleb128 0x49
 2369 01d9 13       		.uleb128 0x13
 2370 01da 2F       		.uleb128 0x2f
 2371 01db 0B       		.uleb128 0xb
 2372 01dc 00       		.byte	0
 2373 01dd 00       		.byte	0
 2374 01de 24       		.uleb128 0x24
 2375 01df 34       		.uleb128 0x34
 2376 01e0 00       		.byte	0
 2377 01e1 03       		.uleb128 0x3
 2378 01e2 0E       		.uleb128 0xe
 2379 01e3 3A       		.uleb128 0x3a
 2380 01e4 0B       		.uleb128 0xb
 2381 01e5 3B       		.uleb128 0x3b
 2382 01e6 05       		.uleb128 0x5
 2383 01e7 49       		.uleb128 0x49
 2384 01e8 13       		.uleb128 0x13
 2385 01e9 3F       		.uleb128 0x3f
 2386 01ea 19       		.uleb128 0x19
 2387 01eb 3C       		.uleb128 0x3c
 2388 01ec 19       		.uleb128 0x19
 2389 01ed 00       		.byte	0
 2390 01ee 00       		.byte	0
ARM GAS  /var/folders/6q/x_mk5n_j3p7_c40r_2k_78980000gn/T//ccebEyhT.s 			page 43


 2391 01ef 25       		.uleb128 0x25
 2392 01f0 34       		.uleb128 0x34
 2393 01f1 00       		.byte	0
 2394 01f2 03       		.uleb128 0x3
 2395 01f3 0E       		.uleb128 0xe
 2396 01f4 3A       		.uleb128 0x3a
 2397 01f5 0B       		.uleb128 0xb
 2398 01f6 3B       		.uleb128 0x3b
 2399 01f7 0B       		.uleb128 0xb
 2400 01f8 49       		.uleb128 0x49
 2401 01f9 13       		.uleb128 0x13
 2402 01fa 3F       		.uleb128 0x3f
 2403 01fb 19       		.uleb128 0x19
 2404 01fc 02       		.uleb128 0x2
 2405 01fd 18       		.uleb128 0x18
 2406 01fe 00       		.byte	0
 2407 01ff 00       		.byte	0
 2408 0200 26       		.uleb128 0x26
 2409 0201 2E       		.uleb128 0x2e
 2410 0202 00       		.byte	0
 2411 0203 3F       		.uleb128 0x3f
 2412 0204 19       		.uleb128 0x19
 2413 0205 3C       		.uleb128 0x3c
 2414 0206 19       		.uleb128 0x19
 2415 0207 6E       		.uleb128 0x6e
 2416 0208 0E       		.uleb128 0xe
 2417 0209 03       		.uleb128 0x3
 2418 020a 0E       		.uleb128 0xe
 2419 020b 3A       		.uleb128 0x3a
 2420 020c 0B       		.uleb128 0xb
 2421 020d 3B       		.uleb128 0x3b
 2422 020e 05       		.uleb128 0x5
 2423 020f 00       		.byte	0
 2424 0210 00       		.byte	0
 2425 0211 00       		.byte	0
 2426              		.section	.debug_loc,"",%progbits
 2427              	.Ldebug_loc0:
 2428              	.LLST0:
 2429 0000 0C000000 		.4byte	.LVL0
 2430 0004 15000000 		.4byte	.LVL1-1
 2431 0008 0100     		.2byte	0x1
 2432 000a 51       		.byte	0x51
 2433 000b 00000000 		.4byte	0
 2434 000f 00000000 		.4byte	0
 2435              	.LLST1:
 2436 0013 0C000000 		.4byte	.LVL3
 2437 0017 17000000 		.4byte	.LVL4-1
 2438 001b 0100     		.2byte	0x1
 2439 001d 51       		.byte	0x51
 2440 001e 00000000 		.4byte	0
 2441 0022 00000000 		.4byte	0
 2442              	.LLST2:
 2443 0026 0C000000 		.4byte	.LVL6
 2444 002a 17000000 		.4byte	.LVL7-1
 2445 002e 0100     		.2byte	0x1
 2446 0030 51       		.byte	0x51
 2447 0031 00000000 		.4byte	0
ARM GAS  /var/folders/6q/x_mk5n_j3p7_c40r_2k_78980000gn/T//ccebEyhT.s 			page 44


 2448 0035 00000000 		.4byte	0
 2449              	.LLST3:
 2450 0039 0C000000 		.4byte	.LVL9
 2451 003d 17000000 		.4byte	.LVL10-1
 2452 0041 0100     		.2byte	0x1
 2453 0043 51       		.byte	0x51
 2454 0044 00000000 		.4byte	0
 2455 0048 00000000 		.4byte	0
 2456              	.LLST4:
 2457 004c 0C000000 		.4byte	.LVL12
 2458 0050 17000000 		.4byte	.LVL13-1
 2459 0054 0100     		.2byte	0x1
 2460 0056 51       		.byte	0x51
 2461 0057 00000000 		.4byte	0
 2462 005b 00000000 		.4byte	0
 2463              	.LLST5:
 2464 005f 0C000000 		.4byte	.LVL15
 2465 0063 17000000 		.4byte	.LVL16-1
 2466 0067 0100     		.2byte	0x1
 2467 0069 51       		.byte	0x51
 2468 006a 00000000 		.4byte	0
 2469 006e 00000000 		.4byte	0
 2470              	.LLST6:
 2471 0072 0C000000 		.4byte	.LVL18
 2472 0076 17000000 		.4byte	.LVL19-1
 2473 007a 0100     		.2byte	0x1
 2474 007c 51       		.byte	0x51
 2475 007d 00000000 		.4byte	0
 2476 0081 00000000 		.4byte	0
 2477              	.LLST7:
 2478 0085 0E000000 		.4byte	.LVL21
 2479 0089 15000000 		.4byte	.LVL22-1
 2480 008d 0100     		.2byte	0x1
 2481 008f 51       		.byte	0x51
 2482 0090 00000000 		.4byte	0
 2483 0094 00000000 		.4byte	0
 2484              	.LLST8:
 2485 0098 0C000000 		.4byte	.LVL24
 2486 009c 17000000 		.4byte	.LVL25-1
 2487 00a0 0100     		.2byte	0x1
 2488 00a2 51       		.byte	0x51
 2489 00a3 00000000 		.4byte	0
 2490 00a7 00000000 		.4byte	0
 2491              	.LLST9:
 2492 00ab 0C000000 		.4byte	.LVL27
 2493 00af 17000000 		.4byte	.LVL28-1
 2494 00b3 0100     		.2byte	0x1
 2495 00b5 51       		.byte	0x51
 2496 00b6 00000000 		.4byte	0
 2497 00ba 00000000 		.4byte	0
 2498              	.LLST10:
 2499 00be 0A000000 		.4byte	.LVL30
 2500 00c2 19000000 		.4byte	.LVL31-1
 2501 00c6 0100     		.2byte	0x1
 2502 00c8 51       		.byte	0x51
 2503 00c9 22000000 		.4byte	.LVL32
 2504 00cd 31000000 		.4byte	.LVL33-1
ARM GAS  /var/folders/6q/x_mk5n_j3p7_c40r_2k_78980000gn/T//ccebEyhT.s 			page 45


 2505 00d1 0100     		.2byte	0x1
 2506 00d3 51       		.byte	0x51
 2507 00d4 00000000 		.4byte	0
 2508 00d8 00000000 		.4byte	0
 2509              	.LLST11:
 2510 00dc 12000000 		.4byte	.LVL35
 2511 00e0 14000000 		.4byte	.LVL36
 2512 00e4 0200     		.2byte	0x2
 2513 00e6 30       		.byte	0x30
 2514 00e7 9F       		.byte	0x9f
 2515 00e8 14000000 		.4byte	.LVL36
 2516 00ec 2C000000 		.4byte	.LVL39
 2517 00f0 0100     		.2byte	0x1
 2518 00f2 53       		.byte	0x53
 2519 00f3 00000000 		.4byte	0
 2520 00f7 00000000 		.4byte	0
 2521              	.LLST12:
 2522 00fb 00000000 		.4byte	.LVL40
 2523 00ff 64000000 		.4byte	.LVL43
 2524 0103 0100     		.2byte	0x1
 2525 0105 50       		.byte	0x50
 2526 0106 64000000 		.4byte	.LVL43
 2527 010a 6C000000 		.4byte	.LVL45
 2528 010e 0400     		.2byte	0x4
 2529 0110 F3       		.byte	0xf3
 2530 0111 01       		.uleb128 0x1
 2531 0112 50       		.byte	0x50
 2532 0113 9F       		.byte	0x9f
 2533 0114 6C000000 		.4byte	.LVL45
 2534 0118 6E000000 		.4byte	.LVL46
 2535 011c 0100     		.2byte	0x1
 2536 011e 50       		.byte	0x50
 2537 011f 6E000000 		.4byte	.LVL46
 2538 0123 70000000 		.4byte	.LVL47
 2539 0127 0400     		.2byte	0x4
 2540 0129 F3       		.byte	0xf3
 2541 012a 01       		.uleb128 0x1
 2542 012b 50       		.byte	0x50
 2543 012c 9F       		.byte	0x9f
 2544 012d 70000000 		.4byte	.LVL47
 2545 0131 72000000 		.4byte	.LVL48
 2546 0135 0100     		.2byte	0x1
 2547 0137 50       		.byte	0x50
 2548 0138 72000000 		.4byte	.LVL48
 2549 013c 80000000 		.4byte	.LFE75
 2550 0140 0400     		.2byte	0x4
 2551 0142 F3       		.byte	0xf3
 2552 0143 01       		.uleb128 0x1
 2553 0144 50       		.byte	0x50
 2554 0145 9F       		.byte	0x9f
 2555 0146 00000000 		.4byte	0
 2556 014a 00000000 		.4byte	0
 2557              	.LLST13:
 2558 014e 00000000 		.4byte	.LVL40
 2559 0152 62000000 		.4byte	.LVL42
 2560 0156 0100     		.2byte	0x1
 2561 0158 51       		.byte	0x51
ARM GAS  /var/folders/6q/x_mk5n_j3p7_c40r_2k_78980000gn/T//ccebEyhT.s 			page 46


 2562 0159 62000000 		.4byte	.LVL42
 2563 015d 6C000000 		.4byte	.LVL45
 2564 0161 0400     		.2byte	0x4
 2565 0163 F3       		.byte	0xf3
 2566 0164 01       		.uleb128 0x1
 2567 0165 51       		.byte	0x51
 2568 0166 9F       		.byte	0x9f
 2569 0167 6C000000 		.4byte	.LVL45
 2570 016b 80000000 		.4byte	.LFE75
 2571 016f 0100     		.2byte	0x1
 2572 0171 51       		.byte	0x51
 2573 0172 00000000 		.4byte	0
 2574 0176 00000000 		.4byte	0
 2575              	.LLST14:
 2576 017a 00000000 		.4byte	.LVL40
 2577 017e 67000000 		.4byte	.LVL44-1
 2578 0182 0100     		.2byte	0x1
 2579 0184 52       		.byte	0x52
 2580 0185 67000000 		.4byte	.LVL44-1
 2581 0189 6C000000 		.4byte	.LVL45
 2582 018d 0400     		.2byte	0x4
 2583 018f F3       		.byte	0xf3
 2584 0190 01       		.uleb128 0x1
 2585 0191 52       		.byte	0x52
 2586 0192 9F       		.byte	0x9f
 2587 0193 6C000000 		.4byte	.LVL45
 2588 0197 80000000 		.4byte	.LFE75
 2589 019b 0100     		.2byte	0x1
 2590 019d 52       		.byte	0x52
 2591 019e 00000000 		.4byte	0
 2592 01a2 00000000 		.4byte	0
 2593              	.LLST15:
 2594 01a6 00000000 		.4byte	.LVL40
 2595 01aa 24000000 		.4byte	.LVL41
 2596 01ae 0100     		.2byte	0x1
 2597 01b0 53       		.byte	0x53
 2598 01b1 24000000 		.4byte	.LVL41
 2599 01b5 67000000 		.4byte	.LVL44-1
 2600 01b9 0200     		.2byte	0x2
 2601 01bb 7E       		.byte	0x7e
 2602 01bc 04       		.sleb128 4
 2603 01bd 67000000 		.4byte	.LVL44-1
 2604 01c1 6C000000 		.4byte	.LVL45
 2605 01c5 0400     		.2byte	0x4
 2606 01c7 F3       		.byte	0xf3
 2607 01c8 01       		.uleb128 0x1
 2608 01c9 53       		.byte	0x53
 2609 01ca 9F       		.byte	0x9f
 2610 01cb 6C000000 		.4byte	.LVL45
 2611 01cf 70000000 		.4byte	.LVL47
 2612 01d3 0100     		.2byte	0x1
 2613 01d5 53       		.byte	0x53
 2614 01d6 70000000 		.4byte	.LVL47
 2615 01da 80000000 		.4byte	.LFE75
 2616 01de 0200     		.2byte	0x2
 2617 01e0 7E       		.byte	0x7e
 2618 01e1 04       		.sleb128 4
ARM GAS  /var/folders/6q/x_mk5n_j3p7_c40r_2k_78980000gn/T//ccebEyhT.s 			page 47


 2619 01e2 00000000 		.4byte	0
 2620 01e6 00000000 		.4byte	0
 2621              	.LLST16:
 2622 01ea 00000000 		.4byte	.LVL49
 2623 01ee 06000000 		.4byte	.LVL50
 2624 01f2 0100     		.2byte	0x1
 2625 01f4 50       		.byte	0x50
 2626 01f5 06000000 		.4byte	.LVL50
 2627 01f9 3A000000 		.4byte	.LVL52
 2628 01fd 0100     		.2byte	0x1
 2629 01ff 54       		.byte	0x54
 2630 0200 3A000000 		.4byte	.LVL52
 2631 0204 44000000 		.4byte	.LFE76
 2632 0208 0400     		.2byte	0x4
 2633 020a F3       		.byte	0xf3
 2634 020b 01       		.uleb128 0x1
 2635 020c 50       		.byte	0x50
 2636 020d 9F       		.byte	0x9f
 2637 020e 00000000 		.4byte	0
 2638 0212 00000000 		.4byte	0
 2639              		.section	.debug_aranges,"",%progbits
 2640 0000 84000000 		.4byte	0x84
 2641 0004 0200     		.2byte	0x2
 2642 0006 00000000 		.4byte	.Ldebug_info0
 2643 000a 04       		.byte	0x4
 2644 000b 00       		.byte	0
 2645 000c 0000     		.2byte	0
 2646 000e 0000     		.2byte	0
 2647 0010 00000000 		.4byte	.LFB63
 2648 0014 28000000 		.4byte	.LFE63-.LFB63
 2649 0018 00000000 		.4byte	.LFB64
 2650 001c 28000000 		.4byte	.LFE64-.LFB64
 2651 0020 00000000 		.4byte	.LFB65
 2652 0024 28000000 		.4byte	.LFE65-.LFB65
 2653 0028 00000000 		.4byte	.LFB66
 2654 002c 28000000 		.4byte	.LFE66-.LFB66
 2655 0030 00000000 		.4byte	.LFB67
 2656 0034 28000000 		.4byte	.LFE67-.LFB67
 2657 0038 00000000 		.4byte	.LFB68
 2658 003c 28000000 		.4byte	.LFE68-.LFB68
 2659 0040 00000000 		.4byte	.LFB69
 2660 0044 28000000 		.4byte	.LFE69-.LFB69
 2661 0048 00000000 		.4byte	.LFB70
 2662 004c 28000000 		.4byte	.LFE70-.LFB70
 2663 0050 00000000 		.4byte	.LFB71
 2664 0054 28000000 		.4byte	.LFE71-.LFB71
 2665 0058 00000000 		.4byte	.LFB72
 2666 005c 28000000 		.4byte	.LFE72-.LFB72
 2667 0060 00000000 		.4byte	.LFB73
 2668 0064 44000000 		.4byte	.LFE73-.LFB73
 2669 0068 00000000 		.4byte	.LFB74
 2670 006c 4C000000 		.4byte	.LFE74-.LFB74
 2671 0070 00000000 		.4byte	.LFB75
 2672 0074 80000000 		.4byte	.LFE75-.LFB75
 2673 0078 00000000 		.4byte	.LFB76
 2674 007c 44000000 		.4byte	.LFE76-.LFB76
 2675 0080 00000000 		.4byte	0
ARM GAS  /var/folders/6q/x_mk5n_j3p7_c40r_2k_78980000gn/T//ccebEyhT.s 			page 48


 2676 0084 00000000 		.4byte	0
 2677              		.section	.debug_ranges,"",%progbits
 2678              	.Ldebug_ranges0:
 2679 0000 00000000 		.4byte	.LFB63
 2680 0004 28000000 		.4byte	.LFE63
 2681 0008 00000000 		.4byte	.LFB64
 2682 000c 28000000 		.4byte	.LFE64
 2683 0010 00000000 		.4byte	.LFB65
 2684 0014 28000000 		.4byte	.LFE65
 2685 0018 00000000 		.4byte	.LFB66
 2686 001c 28000000 		.4byte	.LFE66
 2687 0020 00000000 		.4byte	.LFB67
 2688 0024 28000000 		.4byte	.LFE67
 2689 0028 00000000 		.4byte	.LFB68
 2690 002c 28000000 		.4byte	.LFE68
 2691 0030 00000000 		.4byte	.LFB69
 2692 0034 28000000 		.4byte	.LFE69
 2693 0038 00000000 		.4byte	.LFB70
 2694 003c 28000000 		.4byte	.LFE70
 2695 0040 00000000 		.4byte	.LFB71
 2696 0044 28000000 		.4byte	.LFE71
 2697 0048 00000000 		.4byte	.LFB72
 2698 004c 28000000 		.4byte	.LFE72
 2699 0050 00000000 		.4byte	.LFB73
 2700 0054 44000000 		.4byte	.LFE73
 2701 0058 00000000 		.4byte	.LFB74
 2702 005c 4C000000 		.4byte	.LFE74
 2703 0060 00000000 		.4byte	.LFB75
 2704 0064 80000000 		.4byte	.LFE75
 2705 0068 00000000 		.4byte	.LFB76
 2706 006c 44000000 		.4byte	.LFE76
 2707 0070 00000000 		.4byte	0
 2708 0074 00000000 		.4byte	0
 2709              		.section	.debug_line,"",%progbits
 2710              	.Ldebug_line0:
 2711 0000 7A030000 		.section	.debug_str,"MS",%progbits,1
 2711      0200D701 
 2711      00000201 
 2711      FB0E0D00 
 2711      01010101 
 2712              	.LASF113:
 2713 0000 646D615F 		.ascii	"dma_isr_redir_t\000"
 2713      6973725F 
 2713      72656469 
 2713      725F7400 
 2714              	.LASF31:
 2715 0010 5056445F 		.ascii	"PVD_IRQn\000"
 2715      4952516E 
 2715      00
 2716              	.LASF56:
 2717 0019 54494D31 		.ascii	"TIM1_TRG_COM_IRQn\000"
 2717      5F545247 
 2717      5F434F4D 
 2717      5F495251 
 2717      6E00
 2718              	.LASF53:
 2719 002b 45585449 		.ascii	"EXTI9_5_IRQn\000"
ARM GAS  /var/folders/6q/x_mk5n_j3p7_c40r_2k_78980000gn/T//ccebEyhT.s 			page 49


 2719      395F355F 
 2719      4952516E 
 2719      00
 2720              	.LASF92:
 2721 0038 434D4152 		.ascii	"CMAR\000"
 2721      00
 2722              	.LASF61:
 2723 003d 49324331 		.ascii	"I2C1_EV_IRQn\000"
 2723      5F45565F 
 2723      4952516E 
 2723      00
 2724              	.LASF6:
 2725 004a 5F5F7569 		.ascii	"__uint8_t\000"
 2725      6E74385F 
 2725      7400
 2726              	.LASF51:
 2727 0054 43414E31 		.ascii	"CAN1_RX1_IRQn\000"
 2727      5F525831 
 2727      5F495251 
 2727      6E00
 2728              	.LASF13:
 2729 0062 6C6F6E67 		.ascii	"long long unsigned int\000"
 2729      206C6F6E 
 2729      6720756E 
 2729      7369676E 
 2729      65642069 
 2730              	.LASF86:
 2731 0079 444D4132 		.ascii	"DMA2_Channel1_IRQn\000"
 2731      5F436861 
 2731      6E6E656C 
 2731      315F4952 
 2731      516E00
 2732              	.LASF71:
 2733 008c 5254435F 		.ascii	"RTC_Alarm_IRQn\000"
 2733      416C6172 
 2733      6D5F4952 
 2733      516E00
 2734              	.LASF108:
 2735 009b 76656374 		.ascii	"vector\000"
 2735      6F7200
 2736              	.LASF135:
 2737 00a2 5F73746D 		.ascii	"_stm32_dma_streams\000"
 2737      33325F64 
 2737      6D615F73 
 2737      74726561 
 2737      6D7300
 2738              	.LASF64:
 2739 00b5 49324332 		.ascii	"I2C2_ER_IRQn\000"
 2739      5F45525F 
 2739      4952516E 
 2739      00
 2740              	.LASF60:
 2741 00c2 54494D34 		.ascii	"TIM4_IRQn\000"
 2741      5F495251 
 2741      6E00
 2742              	.LASF38:
 2743 00cc 45585449 		.ascii	"EXTI2_IRQn\000"
ARM GAS  /var/folders/6q/x_mk5n_j3p7_c40r_2k_78980000gn/T//ccebEyhT.s 			page 50


 2743      325F4952 
 2743      516E00
 2744              	.LASF30:
 2745 00d7 57574447 		.ascii	"WWDG_IRQn\000"
 2745      5F495251 
 2745      6E00
 2746              	.LASF79:
 2747 00e1 5344494F 		.ascii	"SDIO_IRQn\000"
 2747      5F495251 
 2747      6E00
 2748              	.LASF137:
 2749 00eb 6E766963 		.ascii	"nvicEnableVector\000"
 2749      456E6162 
 2749      6C655665 
 2749      63746F72 
 2749      00
 2750              	.LASF1:
 2751 00fc 6C6F6E67 		.ascii	"long long int\000"
 2751      206C6F6E 
 2751      6720696E 
 2751      7400
 2752              	.LASF3:
 2753 010a 7369676E 		.ascii	"signed char\000"
 2753      65642063 
 2753      68617200 
 2754              	.LASF18:
 2755 0116 626F6F6C 		.ascii	"bool_t\000"
 2755      5F7400
 2756              	.LASF127:
 2757 011d 646D6173 		.ascii	"dmastp\000"
 2757      747000
 2758              	.LASF10:
 2759 0124 6C6F6E67 		.ascii	"long int\000"
 2759      20696E74 
 2759      00
 2760              	.LASF97:
 2761 012d 41504232 		.ascii	"APB2RSTR\000"
 2761      52535452 
 2761      00
 2762              	.LASF129:
 2763 0136 66756E63 		.ascii	"func\000"
 2763      00
 2764              	.LASF77:
 2765 013b 41444333 		.ascii	"ADC3_IRQn\000"
 2765      5F495251 
 2765      6E00
 2766              	.LASF43:
 2767 0145 444D4131 		.ascii	"DMA1_Channel3_IRQn\000"
 2767      5F436861 
 2767      6E6E656C 
 2767      335F4952 
 2767      516E00
 2768              	.LASF15:
 2769 0158 75696E74 		.ascii	"uint16_t\000"
 2769      31365F74 
 2769      00
 2770              	.LASF17:
ARM GAS  /var/folders/6q/x_mk5n_j3p7_c40r_2k_78980000gn/T//ccebEyhT.s 			page 51


 2771 0161 75696E74 		.ascii	"uint32_t\000"
 2771      33325F74 
 2771      00
 2772              	.LASF48:
 2773 016a 41444331 		.ascii	"ADC1_2_IRQn\000"
 2773      5F325F49 
 2773      52516E00 
 2774              	.LASF82:
 2775 0176 55415254 		.ascii	"UART4_IRQn\000"
 2775      345F4952 
 2775      516E00
 2776              	.LASF112:
 2777 0181 646D615F 		.ascii	"dma_param\000"
 2777      70617261 
 2777      6D00
 2778              	.LASF28:
 2779 018b 50656E64 		.ascii	"PendSV_IRQn\000"
 2779      53565F49 
 2779      52516E00 
 2780              	.LASF44:
 2781 0197 444D4131 		.ascii	"DMA1_Channel4_IRQn\000"
 2781      5F436861 
 2781      6E6E656C 
 2781      345F4952 
 2781      516E00
 2782              	.LASF11:
 2783 01aa 5F5F7569 		.ascii	"__uint32_t\000"
 2783      6E743332 
 2783      5F7400
 2784              	.LASF24:
 2785 01b5 42757346 		.ascii	"BusFault_IRQn\000"
 2785      61756C74 
 2785      5F495251 
 2785      6E00
 2786              	.LASF107:
 2787 01c3 73656C66 		.ascii	"selfindex\000"
 2787      696E6465 
 2787      7800
 2788              	.LASF95:
 2789 01cd 444D415F 		.ascii	"DMA_TypeDef\000"
 2789      54797065 
 2789      44656600 
 2790              	.LASF0:
 2791 01d9 756E7369 		.ascii	"unsigned int\000"
 2791      676E6564 
 2791      20696E74 
 2791      00
 2792              	.LASF138:
 2793 01e6 6E766963 		.ascii	"nvicDisableVector\000"
 2793      44697361 
 2793      626C6556 
 2793      6563746F 
 2793      7200
 2794              	.LASF91:
 2795 01f8 43504152 		.ascii	"CPAR\000"
 2795      00
 2796              	.LASF110:
ARM GAS  /var/folders/6q/x_mk5n_j3p7_c40r_2k_78980000gn/T//ccebEyhT.s 			page 52


 2797 01fd 73746D33 		.ascii	"stm32_dmaisr_t\000"
 2797      325F646D 
 2797      61697372 
 2797      5F7400
 2798              	.LASF12:
 2799 020c 6C6F6E67 		.ascii	"long unsigned int\000"
 2799      20756E73 
 2799      69676E65 
 2799      6420696E 
 2799      7400
 2800              	.LASF103:
 2801 021e 5243435F 		.ascii	"RCC_TypeDef\000"
 2801      54797065 
 2801      44656600 
 2802              	.LASF93:
 2803 022a 444D415F 		.ascii	"DMA_Channel_TypeDef\000"
 2803      4368616E 
 2803      6E656C5F 
 2803      54797065 
 2803      44656600 
 2804              	.LASF106:
 2805 023e 69736869 		.ascii	"ishift\000"
 2805      667400
 2806              	.LASF139:
 2807 0245 474E5520 		.ascii	"GNU C11 5.4.1 20160919 (release) [ARM/embedded-5-br"
 2807      43313120 
 2807      352E342E 
 2807      31203230 
 2807      31363039 
 2808 0278 616E6368 		.ascii	"anch revision 240496] -mcpu=cortex-m3 -mno-thumb-in"
 2808      20726576 
 2808      6973696F 
 2808      6E203234 
 2808      30343936 
 2809 02ab 74657277 		.ascii	"terwork -mthumb -ggdb -O2 -fomit-frame-pointer -fal"
 2809      6F726B20 
 2809      2D6D7468 
 2809      756D6220 
 2809      2D676764 
 2810 02de 69676E2D 		.ascii	"ign-functions=16 -ffunction-sections -fdata-section"
 2810      66756E63 
 2810      74696F6E 
 2810      733D3136 
 2810      202D6666 
 2811 0311 73202D66 		.ascii	"s -fno-common\000"
 2811      6E6F2D63 
 2811      6F6D6D6F 
 2811      6E00
 2812              	.LASF45:
 2813 031f 444D4131 		.ascii	"DMA1_Channel5_IRQn\000"
 2813      5F436861 
 2813      6E6E656C 
 2813      355F4952 
 2813      516E00
 2814              	.LASF8:
 2815 0332 73686F72 		.ascii	"short unsigned int\000"
 2815      7420756E 
ARM GAS  /var/folders/6q/x_mk5n_j3p7_c40r_2k_78980000gn/T//ccebEyhT.s 			page 53


 2815      7369676E 
 2815      65642069 
 2815      6E7400
 2816              	.LASF70:
 2817 0345 45585449 		.ascii	"EXTI15_10_IRQn\000"
 2817      31355F31 
 2817      305F4952 
 2817      516E00
 2818              	.LASF65:
 2819 0354 53504931 		.ascii	"SPI1_IRQn\000"
 2819      5F495251 
 2819      6E00
 2820              	.LASF128:
 2821 035e 7072696F 		.ascii	"priority\000"
 2821      72697479 
 2821      00
 2822              	.LASF140:
 2823 0367 2E2E2F43 		.ascii	"../ChibiOS/os/hal/platforms/STM32F1xx/stm32_dma.c\000"
 2823      68696269 
 2823      4F532F6F 
 2823      732F6861 
 2823      6C2F706C 
 2824              	.LASF47:
 2825 0399 444D4131 		.ascii	"DMA1_Channel7_IRQn\000"
 2825      5F436861 
 2825      6E6E656C 
 2825      375F4952 
 2825      516E00
 2826              	.LASF29:
 2827 03ac 53797354 		.ascii	"SysTick_IRQn\000"
 2827      69636B5F 
 2827      4952516E 
 2827      00
 2828              	.LASF57:
 2829 03b9 54494D31 		.ascii	"TIM1_CC_IRQn\000"
 2829      5F43435F 
 2829      4952516E 
 2829      00
 2830              	.LASF142:
 2831 03c6 4952516E 		.ascii	"IRQn\000"
 2831      00
 2832              	.LASF42:
 2833 03cb 444D4131 		.ascii	"DMA1_Channel2_IRQn\000"
 2833      5F436861 
 2833      6E6E656C 
 2833      325F4952 
 2833      516E00
 2834              	.LASF73:
 2835 03de 54494D38 		.ascii	"TIM8_BRK_IRQn\000"
 2835      5F42524B 
 2835      5F495251 
 2835      6E00
 2836              	.LASF20:
 2837 03ec 73697A65 		.ascii	"sizetype\000"
 2837      74797065 
 2837      00
 2838              	.LASF76:
ARM GAS  /var/folders/6q/x_mk5n_j3p7_c40r_2k_78980000gn/T//ccebEyhT.s 			page 54


 2839 03f5 54494D38 		.ascii	"TIM8_CC_IRQn\000"
 2839      5F43435F 
 2839      4952516E 
 2839      00
 2840              	.LASF26:
 2841 0402 53564361 		.ascii	"SVCall_IRQn\000"
 2841      6C6C5F49 
 2841      52516E00 
 2842              	.LASF2:
 2843 040e 6C6F6E67 		.ascii	"long double\000"
 2843      20646F75 
 2843      626C6500 
 2844              	.LASF63:
 2845 041a 49324332 		.ascii	"I2C2_EV_IRQn\000"
 2845      5F45565F 
 2845      4952516E 
 2845      00
 2846              	.LASF87:
 2847 0427 444D4132 		.ascii	"DMA2_Channel2_IRQn\000"
 2847      5F436861 
 2847      6E6E656C 
 2847      325F4952 
 2847      516E00
 2848              	.LASF130:
 2849 043a 70617261 		.ascii	"param\000"
 2849      6D00
 2850              	.LASF80:
 2851 0440 54494D35 		.ascii	"TIM5_IRQn\000"
 2851      5F495251 
 2851      6E00
 2852              	.LASF39:
 2853 044a 45585449 		.ascii	"EXTI3_IRQn\000"
 2853      335F4952 
 2853      516E00
 2854              	.LASF66:
 2855 0455 53504932 		.ascii	"SPI2_IRQn\000"
 2855      5F495251 
 2855      6E00
 2856              	.LASF111:
 2857 045f 646D615F 		.ascii	"dma_func\000"
 2857      66756E63 
 2857      00
 2858              	.LASF88:
 2859 0468 444D4132 		.ascii	"DMA2_Channel3_IRQn\000"
 2859      5F436861 
 2859      6E6E656C 
 2859      335F4952 
 2859      516E00
 2860              	.LASF72:
 2861 047b 5553425F 		.ascii	"USB_FS_WKUP_IRQn\000"
 2861      46535F57 
 2861      4B55505F 
 2861      4952516E 
 2861      00
 2862              	.LASF98:
 2863 048c 41504231 		.ascii	"APB1RSTR\000"
 2863      52535452 
ARM GAS  /var/folders/6q/x_mk5n_j3p7_c40r_2k_78980000gn/T//ccebEyhT.s 			page 55


 2863      00
 2864              	.LASF41:
 2865 0495 444D4131 		.ascii	"DMA1_Channel1_IRQn\000"
 2865      5F436861 
 2865      6E6E656C 
 2865      315F4952 
 2865      516E00
 2866              	.LASF23:
 2867 04a8 4D656D6F 		.ascii	"MemoryManagement_IRQn\000"
 2867      72794D61 
 2867      6E616765 
 2867      6D656E74 
 2867      5F495251 
 2868              	.LASF67:
 2869 04be 55534152 		.ascii	"USART1_IRQn\000"
 2869      54315F49 
 2869      52516E00 
 2870              	.LASF109:
 2871 04ca 73746D33 		.ascii	"stm32_dma_stream_t\000"
 2871      325F646D 
 2871      615F7374 
 2871      7265616D 
 2871      5F7400
 2872              	.LASF114:
 2873 04dd 56656374 		.ascii	"Vector6C\000"
 2873      6F723643 
 2873      00
 2874              	.LASF78:
 2875 04e6 46534D43 		.ascii	"FSMC_IRQn\000"
 2875      5F495251 
 2875      6E00
 2876              	.LASF19:
 2877 04f0 5F426F6F 		.ascii	"_Bool\000"
 2877      6C00
 2878              	.LASF16:
 2879 04f6 696E7433 		.ascii	"int32_t\000"
 2879      325F7400 
 2880              	.LASF4:
 2881 04fe 756E7369 		.ascii	"unsigned char\000"
 2881      676E6564 
 2881      20636861 
 2881      7200
 2882              	.LASF50:
 2883 050c 5553425F 		.ascii	"USB_LP_CAN1_RX0_IRQn\000"
 2883      4C505F43 
 2883      414E315F 
 2883      5258305F 
 2883      4952516E 
 2884              	.LASF75:
 2885 0521 54494D38 		.ascii	"TIM8_TRG_COM_IRQn\000"
 2885      5F545247 
 2885      5F434F4D 
 2885      5F495251 
 2885      6E00
 2886              	.LASF49:
 2887 0533 5553425F 		.ascii	"USB_HP_CAN1_TX_IRQn\000"
 2887      48505F43 
ARM GAS  /var/folders/6q/x_mk5n_j3p7_c40r_2k_78980000gn/T//ccebEyhT.s 			page 56


 2887      414E315F 
 2887      54585F49 
 2887      52516E00 
 2888              	.LASF134:
 2889 0547 49544D5F 		.ascii	"ITM_RxBuffer\000"
 2889      52784275 
 2889      66666572 
 2889      00
 2890              	.LASF84:
 2891 0554 54494D36 		.ascii	"TIM6_IRQn\000"
 2891      5F495251 
 2891      6E00
 2892              	.LASF40:
 2893 055e 45585449 		.ascii	"EXTI4_IRQn\000"
 2893      345F4952 
 2893      516E00
 2894              	.LASF5:
 2895 0569 73686F72 		.ascii	"short int\000"
 2895      7420696E 
 2895      7400
 2896              	.LASF83:
 2897 0573 55415254 		.ascii	"UART5_IRQn\000"
 2897      355F4952 
 2897      516E00
 2898              	.LASF89:
 2899 057e 444D4132 		.ascii	"DMA2_Channel4_5_IRQn\000"
 2899      5F436861 
 2899      6E6E656C 
 2899      345F355F 
 2899      4952516E 
 2900              	.LASF100:
 2901 0593 41504232 		.ascii	"APB2ENR\000"
 2901      454E5200 
 2902              	.LASF104:
 2903 059b 6368616E 		.ascii	"channel\000"
 2903      6E656C00 
 2904              	.LASF34:
 2905 05a3 464C4153 		.ascii	"FLASH_IRQn\000"
 2905      485F4952 
 2905      516E00
 2906              	.LASF105:
 2907 05ae 69666372 		.ascii	"ifcr\000"
 2907      00
 2908              	.LASF115:
 2909 05b3 56656374 		.ascii	"Vector70\000"
 2909      6F723730 
 2909      00
 2910              	.LASF117:
 2911 05bc 56656374 		.ascii	"Vector74\000"
 2911      6F723734 
 2911      00
 2912              	.LASF68:
 2913 05c5 55534152 		.ascii	"USART2_IRQn\000"
 2913      54325F49 
 2913      52516E00 
 2914              	.LASF25:
 2915 05d1 55736167 		.ascii	"UsageFault_IRQn\000"
ARM GAS  /var/folders/6q/x_mk5n_j3p7_c40r_2k_78980000gn/T//ccebEyhT.s 			page 57


 2915      65466175 
 2915      6C745F49 
 2915      52516E00 
 2916              	.LASF118:
 2917 05e1 56656374 		.ascii	"Vector78\000"
 2917      6F723738 
 2917      00
 2918              	.LASF126:
 2919 05ea 646D6149 		.ascii	"dmaInit\000"
 2919      6E697400 
 2920              	.LASF94:
 2921 05f2 49464352 		.ascii	"IFCR\000"
 2921      00
 2922              	.LASF21:
 2923 05f7 63686172 		.ascii	"char\000"
 2923      00
 2924              	.LASF131:
 2925 05fc 646D6153 		.ascii	"dmaStreamRelease\000"
 2925      74726561 
 2925      6D52656C 
 2925      65617365 
 2925      00
 2926              	.LASF119:
 2927 060d 56656374 		.ascii	"Vector7C\000"
 2927      6F723743 
 2927      00
 2928              	.LASF141:
 2929 0616 2F557365 		.ascii	"/Users/Luca/src/vexilla/src/teamA\000"
 2929      72732F4C 
 2929      7563612F 
 2929      7372632F 
 2929      76657869 
 2930              	.LASF54:
 2931 0638 54494D31 		.ascii	"TIM1_BRK_IRQn\000"
 2931      5F42524B 
 2931      5F495251 
 2931      6E00
 2932              	.LASF7:
 2933 0646 5F5F7569 		.ascii	"__uint16_t\000"
 2933      6E743136 
 2933      5F7400
 2934              	.LASF85:
 2935 0651 54494D37 		.ascii	"TIM7_IRQn\000"
 2935      5F495251 
 2935      6E00
 2936              	.LASF22:
 2937 065b 4E6F6E4D 		.ascii	"NonMaskableInt_IRQn\000"
 2937      61736B61 
 2937      626C6549 
 2937      6E745F49 
 2937      52516E00 
 2938              	.LASF9:
 2939 066f 5F5F696E 		.ascii	"__int32_t\000"
 2939      7433325F 
 2939      7400
 2940              	.LASF46:
 2941 0679 444D4131 		.ascii	"DMA1_Channel6_IRQn\000"
ARM GAS  /var/folders/6q/x_mk5n_j3p7_c40r_2k_78980000gn/T//ccebEyhT.s 			page 58


 2941      5F436861 
 2941      6E6E656C 
 2941      365F4952 
 2941      516E00
 2942              	.LASF101:
 2943 068c 41504231 		.ascii	"APB1ENR\000"
 2943      454E5200 
 2944              	.LASF32:
 2945 0694 54414D50 		.ascii	"TAMPER_IRQn\000"
 2945      45525F49 
 2945      52516E00 
 2946              	.LASF55:
 2947 06a0 54494D31 		.ascii	"TIM1_UP_IRQn\000"
 2947      5F55505F 
 2947      4952516E 
 2947      00
 2948              	.LASF132:
 2949 06ad 646D615F 		.ascii	"dma_streams_mask\000"
 2949      73747265 
 2949      616D735F 
 2949      6D61736B 
 2949      00
 2950              	.LASF27:
 2951 06be 44656275 		.ascii	"DebugMonitor_IRQn\000"
 2951      674D6F6E 
 2951      69746F72 
 2951      5F495251 
 2951      6E00
 2952              	.LASF120:
 2953 06d0 56656374 		.ascii	"Vector80\000"
 2953      6F723830 
 2953      00
 2954              	.LASF69:
 2955 06d9 55534152 		.ascii	"USART3_IRQn\000"
 2955      54335F49 
 2955      52516E00 
 2956              	.LASF121:
 2957 06e5 56656374 		.ascii	"Vector84\000"
 2957      6F723834 
 2957      00
 2958              	.LASF58:
 2959 06ee 54494D32 		.ascii	"TIM2_IRQn\000"
 2959      5F495251 
 2959      6E00
 2960              	.LASF74:
 2961 06f8 54494D38 		.ascii	"TIM8_UP_IRQn\000"
 2961      5F55505F 
 2961      4952516E 
 2961      00
 2962              	.LASF36:
 2963 0705 45585449 		.ascii	"EXTI0_IRQn\000"
 2963      305F4952 
 2963      516E00
 2964              	.LASF90:
 2965 0710 434E4454 		.ascii	"CNDTR\000"
 2965      5200
 2966              	.LASF102:
ARM GAS  /var/folders/6q/x_mk5n_j3p7_c40r_2k_78980000gn/T//ccebEyhT.s 			page 59


 2967 0716 42444352 		.ascii	"BDCR\000"
 2967      00
 2968              	.LASF136:
 2969 071b 5F706F72 		.ascii	"_port_irq_epilogue\000"
 2969      745F6972 
 2969      715F6570 
 2969      696C6F67 
 2969      756500
 2970              	.LASF14:
 2971 072e 75696E74 		.ascii	"uint8_t\000"
 2971      385F7400 
 2972              	.LASF116:
 2973 0736 666C6167 		.ascii	"flags\000"
 2973      7300
 2974              	.LASF133:
 2975 073c 646D615F 		.ascii	"dma_isr_redir\000"
 2975      6973725F 
 2975      72656469 
 2975      7200
 2976              	.LASF122:
 2977 074a 56656374 		.ascii	"Vector120\000"
 2977      6F723132 
 2977      3000
 2978              	.LASF96:
 2979 0754 43464752 		.ascii	"CFGR\000"
 2979      00
 2980              	.LASF123:
 2981 0759 56656374 		.ascii	"Vector124\000"
 2981      6F723132 
 2981      3400
 2982              	.LASF124:
 2983 0763 56656374 		.ascii	"Vector128\000"
 2983      6F723132 
 2983      3800
 2984              	.LASF62:
 2985 076d 49324331 		.ascii	"I2C1_ER_IRQn\000"
 2985      5F45525F 
 2985      4952516E 
 2985      00
 2986              	.LASF33:
 2987 077a 5254435F 		.ascii	"RTC_IRQn\000"
 2987      4952516E 
 2987      00
 2988              	.LASF81:
 2989 0783 53504933 		.ascii	"SPI3_IRQn\000"
 2989      5F495251 
 2989      6E00
 2990              	.LASF125:
 2991 078d 56656374 		.ascii	"Vector12C\000"
 2991      6F723132 
 2991      4300
 2992              	.LASF52:
 2993 0797 43414E31 		.ascii	"CAN1_SCE_IRQn\000"
 2993      5F534345 
 2993      5F495251 
 2993      6E00
 2994              	.LASF143:
ARM GAS  /var/folders/6q/x_mk5n_j3p7_c40r_2k_78980000gn/T//ccebEyhT.s 			page 60


 2995 07a5 646D6153 		.ascii	"dmaStreamAllocate\000"
 2995      74726561 
 2995      6D416C6C 
 2995      6F636174 
 2995      6500
 2996              	.LASF35:
 2997 07b7 5243435F 		.ascii	"RCC_IRQn\000"
 2997      4952516E 
 2997      00
 2998              	.LASF59:
 2999 07c0 54494D33 		.ascii	"TIM3_IRQn\000"
 2999      5F495251 
 2999      6E00
 3000              	.LASF99:
 3001 07ca 41484245 		.ascii	"AHBENR\000"
 3001      4E5200
 3002              	.LASF37:
 3003 07d1 45585449 		.ascii	"EXTI1_IRQn\000"
 3003      315F4952 
 3003      516E00
 3004              		.ident	"GCC: (GNU Tools for ARM Embedded Processors) 5.4.1 20160919 (release) [ARM/embedded-5-bran
ARM GAS  /var/folders/6q/x_mk5n_j3p7_c40r_2k_78980000gn/T//ccebEyhT.s 			page 61


DEFINED SYMBOLS
                            *ABS*:0000000000000000 stm32_dma.c
/var/folders/6q/x_mk5n_j3p7_c40r_2k_78980000gn/T//ccebEyhT.s:20     .text.Vector6C:0000000000000000 $t
/var/folders/6q/x_mk5n_j3p7_c40r_2k_78980000gn/T//ccebEyhT.s:26     .text.Vector6C:0000000000000000 Vector6C
/var/folders/6q/x_mk5n_j3p7_c40r_2k_78980000gn/T//ccebEyhT.s:66     .text.Vector6C:0000000000000020 $d
/var/folders/6q/x_mk5n_j3p7_c40r_2k_78980000gn/T//ccebEyhT.s:72     .text.Vector70:0000000000000000 $t
/var/folders/6q/x_mk5n_j3p7_c40r_2k_78980000gn/T//ccebEyhT.s:78     .text.Vector70:0000000000000000 Vector70
/var/folders/6q/x_mk5n_j3p7_c40r_2k_78980000gn/T//ccebEyhT.s:121    .text.Vector70:0000000000000020 $d
/var/folders/6q/x_mk5n_j3p7_c40r_2k_78980000gn/T//ccebEyhT.s:127    .text.Vector74:0000000000000000 $t
/var/folders/6q/x_mk5n_j3p7_c40r_2k_78980000gn/T//ccebEyhT.s:133    .text.Vector74:0000000000000000 Vector74
/var/folders/6q/x_mk5n_j3p7_c40r_2k_78980000gn/T//ccebEyhT.s:176    .text.Vector74:0000000000000020 $d
/var/folders/6q/x_mk5n_j3p7_c40r_2k_78980000gn/T//ccebEyhT.s:182    .text.Vector78:0000000000000000 $t
/var/folders/6q/x_mk5n_j3p7_c40r_2k_78980000gn/T//ccebEyhT.s:188    .text.Vector78:0000000000000000 Vector78
/var/folders/6q/x_mk5n_j3p7_c40r_2k_78980000gn/T//ccebEyhT.s:231    .text.Vector78:0000000000000020 $d
/var/folders/6q/x_mk5n_j3p7_c40r_2k_78980000gn/T//ccebEyhT.s:237    .text.Vector7C:0000000000000000 $t
/var/folders/6q/x_mk5n_j3p7_c40r_2k_78980000gn/T//ccebEyhT.s:243    .text.Vector7C:0000000000000000 Vector7C
/var/folders/6q/x_mk5n_j3p7_c40r_2k_78980000gn/T//ccebEyhT.s:286    .text.Vector7C:0000000000000020 $d
/var/folders/6q/x_mk5n_j3p7_c40r_2k_78980000gn/T//ccebEyhT.s:292    .text.Vector80:0000000000000000 $t
/var/folders/6q/x_mk5n_j3p7_c40r_2k_78980000gn/T//ccebEyhT.s:298    .text.Vector80:0000000000000000 Vector80
/var/folders/6q/x_mk5n_j3p7_c40r_2k_78980000gn/T//ccebEyhT.s:341    .text.Vector80:0000000000000020 $d
/var/folders/6q/x_mk5n_j3p7_c40r_2k_78980000gn/T//ccebEyhT.s:347    .text.Vector84:0000000000000000 $t
/var/folders/6q/x_mk5n_j3p7_c40r_2k_78980000gn/T//ccebEyhT.s:353    .text.Vector84:0000000000000000 Vector84
/var/folders/6q/x_mk5n_j3p7_c40r_2k_78980000gn/T//ccebEyhT.s:396    .text.Vector84:0000000000000020 $d
/var/folders/6q/x_mk5n_j3p7_c40r_2k_78980000gn/T//ccebEyhT.s:402    .text.Vector120:0000000000000000 $t
/var/folders/6q/x_mk5n_j3p7_c40r_2k_78980000gn/T//ccebEyhT.s:408    .text.Vector120:0000000000000000 Vector120
/var/folders/6q/x_mk5n_j3p7_c40r_2k_78980000gn/T//ccebEyhT.s:449    .text.Vector120:0000000000000020 $d
/var/folders/6q/x_mk5n_j3p7_c40r_2k_78980000gn/T//ccebEyhT.s:455    .text.Vector124:0000000000000000 $t
/var/folders/6q/x_mk5n_j3p7_c40r_2k_78980000gn/T//ccebEyhT.s:461    .text.Vector124:0000000000000000 Vector124
/var/folders/6q/x_mk5n_j3p7_c40r_2k_78980000gn/T//ccebEyhT.s:504    .text.Vector124:0000000000000020 $d
/var/folders/6q/x_mk5n_j3p7_c40r_2k_78980000gn/T//ccebEyhT.s:510    .text.Vector128:0000000000000000 $t
/var/folders/6q/x_mk5n_j3p7_c40r_2k_78980000gn/T//ccebEyhT.s:516    .text.Vector128:0000000000000000 Vector128
/var/folders/6q/x_mk5n_j3p7_c40r_2k_78980000gn/T//ccebEyhT.s:559    .text.Vector128:0000000000000020 $d
/var/folders/6q/x_mk5n_j3p7_c40r_2k_78980000gn/T//ccebEyhT.s:565    .text.Vector12C:0000000000000000 $t
/var/folders/6q/x_mk5n_j3p7_c40r_2k_78980000gn/T//ccebEyhT.s:571    .text.Vector12C:0000000000000000 Vector12C
/var/folders/6q/x_mk5n_j3p7_c40r_2k_78980000gn/T//ccebEyhT.s:638    .text.Vector12C:000000000000003c $d
/var/folders/6q/x_mk5n_j3p7_c40r_2k_78980000gn/T//ccebEyhT.s:644    .text.dmaInit:0000000000000000 $t
/var/folders/6q/x_mk5n_j3p7_c40r_2k_78980000gn/T//ccebEyhT.s:650    .text.dmaInit:0000000000000000 dmaInit
/var/folders/6q/x_mk5n_j3p7_c40r_2k_78980000gn/T//ccebEyhT.s:711    .text.dmaInit:0000000000000034 $d
/var/folders/6q/x_mk5n_j3p7_c40r_2k_78980000gn/T//ccebEyhT.s:721    .text.dmaStreamAllocate:0000000000000000 $t
/var/folders/6q/x_mk5n_j3p7_c40r_2k_78980000gn/T//ccebEyhT.s:727    .text.dmaStreamAllocate:0000000000000000 dmaStreamAllocate
/var/folders/6q/x_mk5n_j3p7_c40r_2k_78980000gn/T//ccebEyhT.s:824    .text.dmaStreamAllocate:0000000000000074 $d
/var/folders/6q/x_mk5n_j3p7_c40r_2k_78980000gn/T//ccebEyhT.s:831    .text.dmaStreamRelease:0000000000000000 $t
/var/folders/6q/x_mk5n_j3p7_c40r_2k_78980000gn/T//ccebEyhT.s:837    .text.dmaStreamRelease:0000000000000000 dmaStreamRelease
/var/folders/6q/x_mk5n_j3p7_c40r_2k_78980000gn/T//ccebEyhT.s:888    .text.dmaStreamRelease:000000000000003c $d
/var/folders/6q/x_mk5n_j3p7_c40r_2k_78980000gn/T//ccebEyhT.s:906    .rodata._stm32_dma_streams:0000000000000000 _stm32_dma_streams
/var/folders/6q/x_mk5n_j3p7_c40r_2k_78980000gn/T//ccebEyhT.s:895    .bss.dma_isr_redir:0000000000000000 $d
/var/folders/6q/x_mk5n_j3p7_c40r_2k_78980000gn/T//ccebEyhT.s:899    .bss.dma_isr_redir:0000000000000000 dma_isr_redir
/var/folders/6q/x_mk5n_j3p7_c40r_2k_78980000gn/T//ccebEyhT.s:902    .rodata._stm32_dma_streams:0000000000000000 $d
/var/folders/6q/x_mk5n_j3p7_c40r_2k_78980000gn/T//ccebEyhT.s:980    .bss.dma_streams_mask:0000000000000000 $d
/var/folders/6q/x_mk5n_j3p7_c40r_2k_78980000gn/T//ccebEyhT.s:984    .bss.dma_streams_mask:0000000000000000 dma_streams_mask
                     .debug_frame:0000000000000010 $d

UNDEFINED SYMBOLS
_port_irq_epilogue
nvicEnableVector
nvicDisableVector
