ARM GAS  /var/folders/6q/x_mk5n_j3p7_c40r_2k_78980000gn/T//ccdMk5hY.s 			page 1


   1              		.syntax unified
   2              		.cpu cortex-m3
   3              		.fpu softvfp
   4              		.eabi_attribute 20, 1
   5              		.eabi_attribute 21, 1
   6              		.eabi_attribute 23, 3
   7              		.eabi_attribute 24, 1
   8              		.eabi_attribute 25, 1
   9              		.eabi_attribute 26, 1
  10              		.eabi_attribute 30, 2
  11              		.eabi_attribute 34, 1
  12              		.eabi_attribute 18, 4
  13              		.thumb
  14              		.syntax unified
  15              		.file	"stm32_flash.c"
  16              		.text
  17              	.Ltext0:
  18              		.cfi_sections	.debug_frame
  19              		.section	.text.FLASH_GetBank1Status,"ax",%progbits
  20              		.align	2
  21              		.p2align 4,,15
  22              		.global	FLASH_GetBank1Status
  23              		.thumb
  24              		.thumb_func
  25              		.type	FLASH_GetBank1Status, %function
  26              	FLASH_GetBank1Status:
  27              	.LFB56:
  28              		.file 1 "../convex-vexilla/cortex/opt/stm32_flash.c"
  29              		.loc 1 110 0
  30              		.cfi_startproc
  31              		@ args = 0, pretend = 0, frame = 0
  32              		@ frame_needed = 0, uses_anonymous_args = 0
  33              		@ link register save eliminated.
  34              	.LVL0:
  35              		.loc 1 113 0
  36 0000 084B     		ldr	r3, .L8
  37 0002 DA68     		ldr	r2, [r3, #12]
  38 0004 D107     		lsls	r1, r2, #31
  39 0006 0BD4     		bmi	.L3
  40              		.loc 1 119 0
  41 0008 DA68     		ldr	r2, [r3, #12]
  42 000a 5207     		lsls	r2, r2, #29
  43 000c 01D5     		bpl	.L7
  44              		.loc 1 121 0
  45 000e 0220     		movs	r0, #2
  46              	.LVL1:
  47              		.loc 1 137 0
  48 0010 7047     		bx	lr
  49              	.LVL2:
  50              	.L7:
  51              	.LBB4:
  52              	.LBB5:
  53              		.loc 1 125 0
  54 0012 DB68     		ldr	r3, [r3, #12]
  55 0014 13F0100F 		tst	r3, #16
  56              		.loc 1 131 0
  57 0018 14BF     		ite	ne
ARM GAS  /var/folders/6q/x_mk5n_j3p7_c40r_2k_78980000gn/T//ccdMk5hY.s 			page 2


  58 001a 0320     		movne	r0, #3
  59 001c 0420     		moveq	r0, #4
  60 001e 7047     		bx	lr
  61              	.L3:
  62              	.LBE5:
  63              	.LBE4:
  64              		.loc 1 115 0
  65 0020 0120     		movs	r0, #1
  66 0022 7047     		bx	lr
  67              	.L9:
  68              		.align	2
  69              	.L8:
  70 0024 00200240 		.word	1073881088
  71              		.cfi_endproc
  72              	.LFE56:
  73              		.size	FLASH_GetBank1Status, .-FLASH_GetBank1Status
  74              		.section	.text.FLASH_WaitForLastOperation,"ax",%progbits
  75              		.align	2
  76              		.p2align 4,,15
  77              		.global	FLASH_WaitForLastOperation
  78              		.thumb
  79              		.thumb_func
  80              		.type	FLASH_WaitForLastOperation, %function
  81              	FLASH_WaitForLastOperation:
  82              	.LFB57:
  83              		.loc 1 151 0
  84              		.cfi_startproc
  85              		@ args = 0, pretend = 0, frame = 0
  86              		@ frame_needed = 0, uses_anonymous_args = 0
  87              	.LVL3:
  88 0000 10B5     		push	{r4, lr}
  89              		.cfi_def_cfa_offset 8
  90              		.cfi_offset 4, -8
  91              		.cfi_offset 14, -4
  92              		.loc 1 151 0
  93 0002 0446     		mov	r4, r0
  94              		.loc 1 155 0
  95 0004 FFF7FEFF 		bl	FLASH_GetBank1Status
  96              	.LVL4:
  97              		.loc 1 157 0
  98 0008 0128     		cmp	r0, #1
  99 000a 06D1     		bne	.L11
 100              	.L20:
 101 000c 3CB1     		cbz	r4, .L12
 102              	.LVL5:
 103              		.loc 1 159 0
 104 000e FFF7FEFF 		bl	FLASH_GetBank1Status
 105              	.LVL6:
 106              		.loc 1 157 0
 107 0012 0128     		cmp	r0, #1
 108              		.loc 1 160 0
 109 0014 04F1FF34 		add	r4, r4, #-1
 110              	.LVL7:
 111              		.loc 1 157 0
 112 0018 F8D0     		beq	.L20
 113              	.L11:
 114              		.loc 1 162 0
ARM GAS  /var/folders/6q/x_mk5n_j3p7_c40r_2k_78980000gn/T//ccdMk5hY.s 			page 3


 115 001a 04B1     		cbz	r4, .L12
 116              		.loc 1 168 0
 117 001c 10BD     		pop	{r4, pc}
 118              	.LVL8:
 119              	.L12:
 120              		.loc 1 164 0
 121 001e 0520     		movs	r0, #5
 122              	.LVL9:
 123              		.loc 1 168 0
 124 0020 10BD     		pop	{r4, pc}
 125              		.cfi_endproc
 126              	.LFE57:
 127              		.size	FLASH_WaitForLastOperation, .-FLASH_WaitForLastOperation
 128 0022 00BF     		.section	.text.FLASH_ErasePage,"ax",%progbits
 129              		.align	2
 130              		.p2align 4,,15
 131              		.global	FLASH_ErasePage
 132              		.thumb
 133              		.thumb_func
 134              		.type	FLASH_ErasePage, %function
 135              	FLASH_ErasePage:
 136              	.LFB58:
 137              		.loc 1 177 0
 138              		.cfi_startproc
 139              		@ args = 0, pretend = 0, frame = 0
 140              		@ frame_needed = 0, uses_anonymous_args = 0
 141              	.LVL10:
 142 0000 38B5     		push	{r3, r4, r5, lr}
 143              		.cfi_def_cfa_offset 16
 144              		.cfi_offset 3, -16
 145              		.cfi_offset 4, -12
 146              		.cfi_offset 5, -8
 147              		.cfi_offset 14, -4
 148              		.loc 1 177 0
 149 0002 0546     		mov	r5, r0
 150              		.loc 1 183 0
 151 0004 4FF43020 		mov	r0, #720896
 152              	.LVL11:
 153 0008 FFF7FEFF 		bl	FLASH_WaitForLastOperation
 154              	.LVL12:
 155              		.loc 1 185 0
 156 000c 0428     		cmp	r0, #4
 157 000e 00D0     		beq	.L24
 158              		.loc 1 201 0
 159 0010 38BD     		pop	{r3, r4, r5, pc}
 160              	.LVL13:
 161              	.L24:
 162              		.loc 1 188 0
 163 0012 0A4C     		ldr	r4, .L25
 164              		.loc 1 193 0
 165 0014 4FF43020 		mov	r0, #720896
 166              	.LVL14:
 167              		.loc 1 188 0
 168 0018 2369     		ldr	r3, [r4, #16]
 169 001a 43F00203 		orr	r3, r3, #2
 170 001e 2361     		str	r3, [r4, #16]
 171              		.loc 1 189 0
ARM GAS  /var/folders/6q/x_mk5n_j3p7_c40r_2k_78980000gn/T//ccdMk5hY.s 			page 4


 172 0020 6561     		str	r5, [r4, #20]
 173              		.loc 1 190 0
 174 0022 2369     		ldr	r3, [r4, #16]
 175 0024 43F04003 		orr	r3, r3, #64
 176 0028 2361     		str	r3, [r4, #16]
 177              		.loc 1 193 0
 178 002a FFF7FEFF 		bl	FLASH_WaitForLastOperation
 179              	.LVL15:
 180              		.loc 1 196 0
 181 002e 41F6FD73 		movw	r3, #8189
 182 0032 2269     		ldr	r2, [r4, #16]
 183 0034 1340     		ands	r3, r3, r2
 184 0036 2361     		str	r3, [r4, #16]
 185              		.loc 1 201 0
 186 0038 38BD     		pop	{r3, r4, r5, pc}
 187              	.LVL16:
 188              	.L26:
 189 003a 00BF     		.align	2
 190              	.L25:
 191 003c 00200240 		.word	1073881088
 192              		.cfi_endproc
 193              	.LFE58:
 194              		.size	FLASH_ErasePage, .-FLASH_ErasePage
 195              		.section	.text.FLASH_ClearFlag,"ax",%progbits
 196              		.align	2
 197              		.p2align 4,,15
 198              		.global	FLASH_ClearFlag
 199              		.thumb
 200              		.thumb_func
 201              		.type	FLASH_ClearFlag, %function
 202              	FLASH_ClearFlag:
 203              	.LFB59:
 204              		.loc 1 216 0
 205              		.cfi_startproc
 206              		@ args = 0, pretend = 0, frame = 0
 207              		@ frame_needed = 0, uses_anonymous_args = 0
 208              		@ link register save eliminated.
 209              	.LVL17:
 210              		.loc 1 221 0
 211 0000 014B     		ldr	r3, .L28
 212 0002 D860     		str	r0, [r3, #12]
 213 0004 7047     		bx	lr
 214              	.L29:
 215 0006 00BF     		.align	2
 216              	.L28:
 217 0008 00200240 		.word	1073881088
 218              		.cfi_endproc
 219              	.LFE59:
 220              		.size	FLASH_ClearFlag, .-FLASH_ClearFlag
 221              		.section	.text.FLASH_ProgramWord,"ax",%progbits
 222              		.align	2
 223              		.p2align 4,,15
 224              		.global	FLASH_ProgramWord
 225              		.thumb
 226              		.thumb_func
 227              		.type	FLASH_ProgramWord, %function
 228              	FLASH_ProgramWord:
ARM GAS  /var/folders/6q/x_mk5n_j3p7_c40r_2k_78980000gn/T//ccdMk5hY.s 			page 5


 229              	.LFB60:
 230              		.loc 1 235 0
 231              		.cfi_startproc
 232              		@ args = 0, pretend = 0, frame = 8
 233              		@ frame_needed = 0, uses_anonymous_args = 0
 234              	.LVL18:
 235 0000 70B5     		push	{r4, r5, r6, lr}
 236              		.cfi_def_cfa_offset 16
 237              		.cfi_offset 4, -16
 238              		.cfi_offset 5, -12
 239              		.cfi_offset 6, -8
 240              		.cfi_offset 14, -4
 241              		.loc 1 237 0
 242 0002 0023     		movs	r3, #0
 243              		.loc 1 235 0
 244 0004 82B0     		sub	sp, sp, #8
 245              		.cfi_def_cfa_offset 24
 246              		.loc 1 235 0
 247 0006 0546     		mov	r5, r0
 248              		.loc 1 243 0
 249 0008 4FF40050 		mov	r0, #8192
 250              	.LVL19:
 251              		.loc 1 235 0
 252 000c 0C46     		mov	r4, r1
 253              		.loc 1 237 0
 254 000e 0193     		str	r3, [sp, #4]
 255              		.loc 1 243 0
 256 0010 FFF7FEFF 		bl	FLASH_WaitForLastOperation
 257              	.LVL20:
 258              		.loc 1 245 0
 259 0014 0428     		cmp	r0, #4
 260 0016 01D0     		beq	.L34
 261              	.LVL21:
 262              	.L31:
 263              		.loc 1 278 0
 264 0018 02B0     		add	sp, sp, #8
 265              		.cfi_remember_state
 266              		.cfi_def_cfa_offset 16
 267              		@ sp needed
 268 001a 70BD     		pop	{r4, r5, r6, pc}
 269              	.LVL22:
 270              	.L34:
 271              		.cfi_restore_state
 272              		.loc 1 249 0
 273 001c 114E     		ldr	r6, .L36
 274              		.loc 1 251 0
 275 001e A3B2     		uxth	r3, r4
 276              		.loc 1 249 0
 277 0020 3269     		ldr	r2, [r6, #16]
 278              		.loc 1 253 0
 279 0022 4FF40050 		mov	r0, #8192
 280              	.LVL23:
 281              		.loc 1 249 0
 282 0026 42F00102 		orr	r2, r2, #1
 283 002a 3261     		str	r2, [r6, #16]
 284              		.loc 1 251 0
 285 002c 2B80     		strh	r3, [r5]	@ movhi
ARM GAS  /var/folders/6q/x_mk5n_j3p7_c40r_2k_78980000gn/T//ccdMk5hY.s 			page 6


 286              		.loc 1 253 0
 287 002e FFF7FEFF 		bl	FLASH_WaitForLastOperation
 288              	.LVL24:
 289              		.loc 1 255 0
 290 0032 0428     		cmp	r0, #4
 291 0034 06D0     		beq	.L35
 292              		.loc 1 272 0
 293 0036 41F6FE73 		movw	r3, #8190
 294 003a 3269     		ldr	r2, [r6, #16]
 295 003c 1340     		ands	r3, r3, r2
 296 003e 3361     		str	r3, [r6, #16]
 297              		.loc 1 278 0
 298 0040 02B0     		add	sp, sp, #8
 299              		.cfi_remember_state
 300              		.cfi_def_cfa_offset 16
 301              		@ sp needed
 302 0042 70BD     		pop	{r4, r5, r6, pc}
 303              	.LVL25:
 304              	.L35:
 305              		.cfi_restore_state
 306              		.loc 1 259 0
 307 0044 0235     		adds	r5, r5, #2
 308              	.LVL26:
 309 0046 0195     		str	r5, [sp, #4]
 310              		.loc 1 261 0
 311 0048 019B     		ldr	r3, [sp, #4]
 312 004a 240C     		lsrs	r4, r4, #16
 313              	.LVL27:
 314 004c 1C80     		strh	r4, [r3]	@ movhi
 315              		.loc 1 264 0
 316 004e 4FF40050 		mov	r0, #8192
 317              	.LVL28:
 318 0052 FFF7FEFF 		bl	FLASH_WaitForLastOperation
 319              	.LVL29:
 320              		.loc 1 267 0
 321 0056 41F6FE73 		movw	r3, #8190
 322 005a 3269     		ldr	r2, [r6, #16]
 323 005c 1340     		ands	r3, r3, r2
 324 005e 3361     		str	r3, [r6, #16]
 325 0060 DAE7     		b	.L31
 326              	.L37:
 327 0062 00BF     		.align	2
 328              	.L36:
 329 0064 00200240 		.word	1073881088
 330              		.cfi_endproc
 331              	.LFE60:
 332              		.size	FLASH_ProgramWord, .-FLASH_ProgramWord
 333              		.section	.text.FLASH_ProgramHalfWord,"ax",%progbits
 334              		.align	2
 335              		.p2align 4,,15
 336              		.global	FLASH_ProgramHalfWord
 337              		.thumb
 338              		.thumb_func
 339              		.type	FLASH_ProgramHalfWord, %function
 340              	FLASH_ProgramHalfWord:
 341              	.LFB61:
 342              		.loc 1 289 0
ARM GAS  /var/folders/6q/x_mk5n_j3p7_c40r_2k_78980000gn/T//ccdMk5hY.s 			page 7


 343              		.cfi_startproc
 344              		@ args = 0, pretend = 0, frame = 0
 345              		@ frame_needed = 0, uses_anonymous_args = 0
 346              	.LVL30:
 347 0000 70B5     		push	{r4, r5, r6, lr}
 348              		.cfi_def_cfa_offset 16
 349              		.cfi_offset 4, -16
 350              		.cfi_offset 5, -12
 351              		.cfi_offset 6, -8
 352              		.cfi_offset 14, -4
 353              		.loc 1 289 0
 354 0002 0446     		mov	r4, r0
 355              		.loc 1 295 0
 356 0004 4FF40050 		mov	r0, #8192
 357              	.LVL31:
 358              		.loc 1 289 0
 359 0008 0D46     		mov	r5, r1
 360              		.loc 1 295 0
 361 000a FFF7FEFF 		bl	FLASH_WaitForLastOperation
 362              	.LVL32:
 363              		.loc 1 297 0
 364 000e 0428     		cmp	r0, #4
 365 0010 00D0     		beq	.L41
 366              		.loc 1 312 0
 367 0012 70BD     		pop	{r4, r5, r6, pc}
 368              	.LVL33:
 369              	.L41:
 370              		.loc 1 300 0
 371 0014 074E     		ldr	r6, .L42
 372              		.loc 1 304 0
 373 0016 4FF40050 		mov	r0, #8192
 374              	.LVL34:
 375              		.loc 1 300 0
 376 001a 3369     		ldr	r3, [r6, #16]
 377 001c 43F00103 		orr	r3, r3, #1
 378 0020 3361     		str	r3, [r6, #16]
 379              		.loc 1 302 0
 380 0022 2580     		strh	r5, [r4]	@ movhi
 381              		.loc 1 304 0
 382 0024 FFF7FEFF 		bl	FLASH_WaitForLastOperation
 383              	.LVL35:
 384              		.loc 1 307 0
 385 0028 41F6FE73 		movw	r3, #8190
 386 002c 3269     		ldr	r2, [r6, #16]
 387 002e 1340     		ands	r3, r3, r2
 388 0030 3361     		str	r3, [r6, #16]
 389              		.loc 1 312 0
 390 0032 70BD     		pop	{r4, r5, r6, pc}
 391              	.LVL36:
 392              	.L43:
 393              		.align	2
 394              	.L42:
 395 0034 00200240 		.word	1073881088
 396              		.cfi_endproc
 397              	.LFE61:
 398              		.size	FLASH_ProgramHalfWord, .-FLASH_ProgramHalfWord
 399              		.section	.text.FLASH_UnlockBank1,"ax",%progbits
ARM GAS  /var/folders/6q/x_mk5n_j3p7_c40r_2k_78980000gn/T//ccdMk5hY.s 			page 8


 400              		.align	2
 401              		.p2align 4,,15
 402              		.global	FLASH_UnlockBank1
 403              		.thumb
 404              		.thumb_func
 405              		.type	FLASH_UnlockBank1, %function
 406              	FLASH_UnlockBank1:
 407              	.LFB62:
 408              		.loc 1 323 0
 409              		.cfi_startproc
 410              		@ args = 0, pretend = 0, frame = 0
 411              		@ frame_needed = 0, uses_anonymous_args = 0
 412              		@ link register save eliminated.
 413              		.loc 1 325 0
 414 0000 024B     		ldr	r3, .L45
 415 0002 0349     		ldr	r1, .L45+4
 416              		.loc 1 326 0
 417 0004 034A     		ldr	r2, .L45+8
 418              		.loc 1 325 0
 419 0006 5960     		str	r1, [r3, #4]
 420              		.loc 1 326 0
 421 0008 5A60     		str	r2, [r3, #4]
 422 000a 7047     		bx	lr
 423              	.L46:
 424              		.align	2
 425              	.L45:
 426 000c 00200240 		.word	1073881088
 427 0010 23016745 		.word	1164378403
 428 0014 AB89EFCD 		.word	-839939669
 429              		.cfi_endproc
 430              	.LFE62:
 431              		.size	FLASH_UnlockBank1, .-FLASH_UnlockBank1
 432              		.text
 433              	.Letext0:
 434              		.file 2 "/Users/Luca/src/vexilla/src/gcc-arm-none-eabi-5_4-2016q3/arm-none-eabi/include/machine/_d
 435              		.file 3 "/Users/Luca/src/vexilla/src/gcc-arm-none-eabi-5_4-2016q3/arm-none-eabi/include/sys/_stdin
 436              		.file 4 "../ChibiOS/os/hal/platforms/STM32F1xx/stm32f10x.h"
 437              		.file 5 "../convex-vexilla/cortex/opt/stm32f10x_flash.h"
 438              		.file 6 "../ChibiOS/os/ports/common/ARMCMx/CMSIS/include/core_cm3.h"