ARM GAS  /var/folders/6q/x_mk5n_j3p7_c40r_2k_78980000gn/T//ccebEyhT.s 			page 1


   1              		.syntax unified
   2              		.cpu cortex-m3
   3              		.fpu softvfp
   4              		.eabi_attribute 20, 1
   5              		.eabi_attribute 21, 1
   6              		.eabi_attribute 23, 3
   7              		.eabi_attribute 24, 1
   8              		.eabi_attribute 25, 1
   9              		.eabi_attribute 26, 1
  10              		.eabi_attribute 30, 2
  11              		.eabi_attribute 34, 1
  12              		.eabi_attribute 18, 4
  13              		.thumb
  14              		.syntax unified
  15              		.file	"stm32_dma.c"
  16              		.text
  17              	.Ltext0:
  18              		.cfi_sections	.debug_frame
  19              		.section	.text.Vector6C,"ax",%progbits
  20              		.align	2
  21              		.p2align 4,,15
  22              		.global	Vector6C
  23              		.thumb
  24              		.thumb_func
  25              		.type	Vector6C, %function
  26              	Vector6C:
  27              	.LFB63:
  28              		.file 1 "../ChibiOS/os/hal/platforms/STM32F1xx/stm32_dma.c"
  29              		.loc 1 126 0
  30              		.cfi_startproc
  31              		@ args = 0, pretend = 0, frame = 0
  32              		@ frame_needed = 0, uses_anonymous_args = 0
  33 0000 08B5     		push	{r3, lr}
  34              		.cfi_def_cfa_offset 8
  35              		.cfi_offset 3, -8
  36              		.cfi_offset 14, -4
  37              		.loc 1 131 0
  38 0002 074B     		ldr	r3, .L8
  39              		.loc 1 133 0
  40 0004 074A     		ldr	r2, .L8+4
  41              		.loc 1 131 0
  42 0006 1968     		ldr	r1, [r3]
  43 0008 01F00F01 		and	r1, r1, #15
  44              	.LVL0:
  45              		.loc 1 132 0
  46 000c 5960     		str	r1, [r3, #4]
  47              		.loc 1 133 0
  48 000e 1368     		ldr	r3, [r2]
  49 0010 0BB1     		cbz	r3, .L2
  50              		.loc 1 134 0
  51 0012 5068     		ldr	r0, [r2, #4]
  52 0014 9847     		blx	r3
  53              	.LVL1:
  54              	.L2:
  55              		.loc 1 137 0
  56 0016 BDE80840 		pop	{r3, lr}
  57              		.cfi_restore 14
ARM GAS  /var/folders/6q/x_mk5n_j3p7_c40r_2k_78980000gn/T//ccebEyhT.s 			page 2


  58              		.cfi_restore 3
  59              		.cfi_def_cfa_offset 0
  60              		.loc 1 136 0
  61 001a FFF7FEBF 		b	_port_irq_epilogue
  62              	.LVL2:
  63              	.L9:
  64 001e 00BF     		.align	2
  65              	.L8:
  66 0020 00000240 		.word	1073872896
  67 0024 00000000 		.word	.LANCHOR0
  68              		.cfi_endproc
  69              	.LFE63:
  70              		.size	Vector6C, .-Vector6C
  71              		.section	.text.Vector70,"ax",%progbits
  72              		.align	2
  73              		.p2align 4,,15
  74              		.global	Vector70
  75              		.thumb
  76              		.thumb_func
  77              		.type	Vector70, %function
  78              	Vector70:
  79              	.LFB64:
  80              		.loc 1 144 0
  81              		.cfi_startproc
  82              		@ args = 0, pretend = 0, frame = 0
  83              		@ frame_needed = 0, uses_anonymous_args = 0
  84              		.loc 1 149 0
  85 0000 074B     		ldr	r3, .L16
  86              		.loc 1 151 0
  87 0002 0848     		ldr	r0, .L16+4
  88              		.loc 1 149 0
  89 0004 1968     		ldr	r1, [r3]
  90              		.loc 1 151 0
  91 0006 8268     		ldr	r2, [r0, #8]
  92              		.loc 1 149 0
  93 0008 C1F30311 		ubfx	r1, r1, #4, #4
  94              	.LVL3:
  95              		.loc 1 144 0
  96 000c 10B5     		push	{r4, lr}
  97              		.cfi_def_cfa_offset 8
  98              		.cfi_offset 4, -8
  99              		.cfi_offset 14, -4
 100              		.loc 1 150 0
 101 000e 0C01     		lsls	r4, r1, #4
 102 0010 5C60     		str	r4, [r3, #4]
 103              		.loc 1 151 0
 104 0012 0AB1     		cbz	r2, .L11
 105              		.loc 1 152 0
 106 0014 C068     		ldr	r0, [r0, #12]
 107 0016 9047     		blx	r2
 108              	.LVL4:
 109              	.L11:
 110              		.loc 1 155 0
 111 0018 BDE81040 		pop	{r4, lr}
 112              		.cfi_restore 14
 113              		.cfi_restore 4
 114              		.cfi_def_cfa_offset 0
ARM GAS  /var/folders/6q/x_mk5n_j3p7_c40r_2k_78980000gn/T//ccebEyhT.s 			page 3


 115              		.loc 1 154 0
 116 001c FFF7FEBF 		b	_port_irq_epilogue
 117              	.LVL5:
 118              	.L17:
 119              		.align	2
 120              	.L16:
 121 0020 00000240 		.word	1073872896
 122 0024 00000000 		.word	.LANCHOR0
 123              		.cfi_endproc
 124              	.LFE64:
 125              		.size	Vector70, .-Vector70
 126              		.section	.text.Vector74,"ax",%progbits
 127              		.align	2
 128              		.p2align 4,,15
 129              		.global	Vector74
 130              		.thumb
 131              		.thumb_func
 132              		.type	Vector74, %function
 133              	Vector74:
 134              	.LFB65:
 135              		.loc 1 162 0
 136              		.cfi_startproc
 137              		@ args = 0, pretend = 0, frame = 0
 138              		@ frame_needed = 0, uses_anonymous_args = 0
 139              		.loc 1 167 0
 140 0000 074B     		ldr	r3, .L24
 141              		.loc 1 169 0
 142 0002 0848     		ldr	r0, .L24+4
 143              		.loc 1 167 0
 144 0004 1968     		ldr	r1, [r3]
 145              		.loc 1 169 0
 146 0006 0269     		ldr	r2, [r0, #16]
 147              		.loc 1 167 0
 148 0008 C1F30321 		ubfx	r1, r1, #8, #4
 149              	.LVL6:
 150              		.loc 1 162 0
 151 000c 10B5     		push	{r4, lr}
 152              		.cfi_def_cfa_offset 8
 153              		.cfi_offset 4, -8
 154              		.cfi_offset 14, -4
 155              		.loc 1 168 0
 156 000e 0C02     		lsls	r4, r1, #8
 157 0010 5C60     		str	r4, [r3, #4]
 158              		.loc 1 169 0
 159 0012 0AB1     		cbz	r2, .L19
 160              		.loc 1 170 0
 161 0014 4069     		ldr	r0, [r0, #20]
 162 0016 9047     		blx	r2
 163              	.LVL7:
 164              	.L19:
 165              		.loc 1 173 0
 166 0018 BDE81040 		pop	{r4, lr}
 167              		.cfi_restore 14
 168              		.cfi_restore 4
 169              		.cfi_def_cfa_offset 0
 170              		.loc 1 172 0
 171 001c FFF7FEBF 		b	_port_irq_epilogue
ARM GAS  /var/folders/6q/x_mk5n_j3p7_c40r_2k_78980000gn/T//ccebEyhT.s 			page 4


 172              	.LVL8:
 173              	.L25:
 174              		.align	2
 175              	.L24:
 176 0020 00000240 		.word	1073872896
 177 0024 00000000 		.word	.LANCHOR0
 178              		.cfi_endproc
 179              	.LFE65:
 180              		.size	Vector74, .-Vector74
 181              		.section	.text.Vector78,"ax",%progbits
 182              		.align	2
 183              		.p2align 4,,15
 184              		.global	Vector78
 185              		.thumb
 186              		.thumb_func
 187              		.type	Vector78, %function
 188              	Vector78:
 189              	.LFB66:
 190              		.loc 1 180 0
 191              		.cfi_startproc
 192              		@ args = 0, pretend = 0, frame = 0
 193              		@ frame_needed = 0, uses_anonymous_args = 0
 194              		.loc 1 185 0
 195 0000 074B     		ldr	r3, .L32
 196              		.loc 1 187 0
 197 0002 0848     		ldr	r0, .L32+4
 198              		.loc 1 185 0
 199 0004 1968     		ldr	r1, [r3]
 200              		.loc 1 187 0
 201 0006 8269     		ldr	r2, [r0, #24]
 202              		.loc 1 185 0
 203 0008 C1F30331 		ubfx	r1, r1, #12, #4
 204              	.LVL9:
 205              		.loc 1 180 0
 206 000c 10B5     		push	{r4, lr}
 207              		.cfi_def_cfa_offset 8
 208              		.cfi_offset 4, -8
 209              		.cfi_offset 14, -4
 210              		.loc 1 186 0
 211 000e 0C03     		lsls	r4, r1, #12
 212 0010 5C60     		str	r4, [r3, #4]
 213              		.loc 1 187 0
 214 0012 0AB1     		cbz	r2, .L27
 215              		.loc 1 188 0
 216 0014 C069     		ldr	r0, [r0, #28]
 217 0016 9047     		blx	r2
 218              	.LVL10:
 219              	.L27:
 220              		.loc 1 191 0
 221 0018 BDE81040 		pop	{r4, lr}
 222              		.cfi_restore 14
 223              		.cfi_restore 4
 224              		.cfi_def_cfa_offset 0
 225              		.loc 1 190 0
 226 001c FFF7FEBF 		b	_port_irq_epilogue
 227              	.LVL11:
 228              	.L33:
ARM GAS  /var/folders/6q/x_mk5n_j3p7_c40r_2k_78980000gn/T//ccebEyhT.s 			page 5


 229              		.align	2
 230              	.L32:
 231 0020 00000240 		.word	1073872896
 232 0024 00000000 		.word	.LANCHOR0
 233              		.cfi_endproc
 234              	.LFE66:
 235              		.size	Vector78, .-Vector78
 236              		.section	.text.Vector7C,"ax",%progbits
 237              		.align	2
 238              		.p2align 4,,15
 239              		.global	Vector7C
 240              		.thumb
 241              		.thumb_func
 242              		.type	Vector7C, %function
 243              	Vector7C:
 244              	.LFB67:
 245              		.loc 1 198 0
 246              		.cfi_startproc
 247              		@ args = 0, pretend = 0, frame = 0
 248              		@ frame_needed = 0, uses_anonymous_args = 0
 249              		.loc 1 203 0
 250 0000 074B     		ldr	r3, .L40
 251              		.loc 1 205 0
 252 0002 0848     		ldr	r0, .L40+4
 253              		.loc 1 203 0
 254 0004 1968     		ldr	r1, [r3]
 255              		.loc 1 205 0
 256 0006 026A     		ldr	r2, [r0, #32]
 257              		.loc 1 203 0
 258 0008 C1F30341 		ubfx	r1, r1, #16, #4
 259              	.LVL12:
 260              		.loc 1 198 0
 261 000c 10B5     		push	{r4, lr}
 262              		.cfi_def_cfa_offset 8
 263              		.cfi_offset 4, -8
 264              		.cfi_offset 14, -4
 265              		.loc 1 204 0
 266 000e 0C04     		lsls	r4, r1, #16
 267 0010 5C60     		str	r4, [r3, #4]
 268              		.loc 1 205 0
 269 0012 0AB1     		cbz	r2, .L35
 270              		.loc 1 206 0
 271 0014 406A     		ldr	r0, [r0, #36]
 272 0016 9047     		blx	r2
 273              	.LVL13:
 274              	.L35:
 275              		.loc 1 209 0
 276 0018 BDE81040 		pop	{r4, lr}
 277              		.cfi_restore 14
 278              		.cfi_restore 4
 279              		.cfi_def_cfa_offset 0
 280              		.loc 1 208 0
 281 001c FFF7FEBF 		b	_port_irq_epilogue
 282              	.LVL14:
 283              	.L41:
 284              		.align	2
 285              	.L40:
ARM GAS  /var/folders/6q/x_mk5n_j3p7_c40r_2k_78980000gn/T//ccebEyhT.s 			page 6


 286 0020 00000240 		.word	1073872896
 287 0024 00000000 		.word	.LANCHOR0
 288              		.cfi_endproc
 289              	.LFE67:
 290              		.size	Vector7C, .-Vector7C
 291              		.section	.text.Vector80,"ax",%progbits
 292              		.align	2
 293              		.p2align 4,,15
 294              		.global	Vector80
 295              		.thumb
 296              		.thumb_func
 297              		.type	Vector80, %function
 298              	Vector80:
 299              	.LFB68:
 300              		.loc 1 216 0
 301              		.cfi_startproc
 302              		@ args = 0, pretend = 0, frame = 0
 303              		@ frame_needed = 0, uses_anonymous_args = 0
 304              		.loc 1 221 0
 305 0000 074B     		ldr	r3, .L48
 306              		.loc 1 223 0
 307 0002 0848     		ldr	r0, .L48+4
 308              		.loc 1 221 0
 309 0004 1968     		ldr	r1, [r3]
 310              		.loc 1 223 0
 311 0006 826A     		ldr	r2, [r0, #40]
 312              		.loc 1 221 0
 313 0008 C1F30351 		ubfx	r1, r1, #20, #4
 314              	.LVL15:
 315              		.loc 1 216 0
 316 000c 10B5     		push	{r4, lr}
 317              		.cfi_def_cfa_offset 8
 318              		.cfi_offset 4, -8
 319              		.cfi_offset 14, -4
 320              		.loc 1 222 0
 321 000e 0C05     		lsls	r4, r1, #20
 322 0010 5C60     		str	r4, [r3, #4]
 323              		.loc 1 223 0
 324 0012 0AB1     		cbz	r2, .L43
 325              		.loc 1 224 0
 326 0014 C06A     		ldr	r0, [r0, #44]
 327 0016 9047     		blx	r2
 328              	.LVL16:
 329              	.L43:
 330              		.loc 1 227 0
 331 0018 BDE81040 		pop	{r4, lr}
 332              		.cfi_restore 14
 333              		.cfi_restore 4
 334              		.cfi_def_cfa_offset 0
 335              		.loc 1 226 0
 336 001c FFF7FEBF 		b	_port_irq_epilogue
 337              	.LVL17:
 338              	.L49:
 339              		.align	2
 340              	.L48:
 341 0020 00000240 		.word	1073872896
 342 0024 00000000 		.word	.LANCHOR0
ARM GAS  /var/folders/6q/x_mk5n_j3p7_c40r_2k_78980000gn/T//ccebEyhT.s 			page 7


 343              		.cfi_endproc
 344              	.LFE68:
 345              		.size	Vector80, .-Vector80
 346              		.section	.text.Vector84,"ax",%progbits
 347              		.align	2
 348              		.p2align 4,,15
 349              		.global	Vector84
 350              		.thumb
 351              		.thumb_func
 352              		.type	Vector84, %function
 353              	Vector84:
 354              	.LFB69:
 355              		.loc 1 234 0
 356              		.cfi_startproc
 357              		@ args = 0, pretend = 0, frame = 0
 358              		@ frame_needed = 0, uses_anonymous_args = 0
 359              		.loc 1 239 0
 360 0000 074B     		ldr	r3, .L56
 361              		.loc 1 241 0
 362 0002 0848     		ldr	r0, .L56+4
 363              		.loc 1 239 0
 364 0004 1968     		ldr	r1, [r3]
 365              		.loc 1 241 0
 366 0006 026B     		ldr	r2, [r0, #48]
 367              		.loc 1 239 0
 368 0008 C1F30361 		ubfx	r1, r1, #24, #4
 369              	.LVL18:
 370              		.loc 1 234 0
 371 000c 10B5     		push	{r4, lr}
 372              		.cfi_def_cfa_offset 8
 373              		.cfi_offset 4, -8
 374              		.cfi_offset 14, -4
 375              		.loc 1 240 0
 376 000e 0C06     		lsls	r4, r1, #24
 377 0010 5C60     		str	r4, [r3, #4]
 378              		.loc 1 241 0
 379 0012 0AB1     		cbz	r2, .L51
 380              		.loc 1 242 0
 381 0014 406B     		ldr	r0, [r0, #52]
 382 0016 9047     		blx	r2
 383              	.LVL19:
 384              	.L51:
 385              		.loc 1 245 0
 386 0018 BDE81040 		pop	{r4, lr}
 387              		.cfi_restore 14
 388              		.cfi_restore 4
 389              		.cfi_def_cfa_offset 0
 390              		.loc 1 244 0
 391 001c FFF7FEBF 		b	_port_irq_epilogue
 392              	.LVL20:
 393              	.L57:
 394              		.align	2
 395              	.L56:
 396 0020 00000240 		.word	1073872896
 397 0024 00000000 		.word	.LANCHOR0
 398              		.cfi_endproc
 399              	.LFE69:
ARM GAS  /var/folders/6q/x_mk5n_j3p7_c40r_2k_78980000gn/T//ccebEyhT.s 			page 8


 400              		.size	Vector84, .-Vector84
 401              		.section	.text.Vector120,"ax",%progbits
 402              		.align	2
 403              		.p2align 4,,15
 404              		.global	Vector120
 405              		.thumb
 406              		.thumb_func
 407              		.type	Vector120, %function
 408              	Vector120:
 409              	.LFB70:
 410              		.loc 1 253 0
 411              		.cfi_startproc
 412              		@ args = 0, pretend = 0, frame = 0
 413              		@ frame_needed = 0, uses_anonymous_args = 0
 414 0000 08B5     		push	{r3, lr}
 415              		.cfi_def_cfa_offset 8
 416              		.cfi_offset 3, -8
 417              		.cfi_offset 14, -4
 418              		.loc 1 258 0
 419 0002 074B     		ldr	r3, .L64
 420              		.loc 1 260 0
 421 0004 0748     		ldr	r0, .L64+4
 422              		.loc 1 258 0
 423 0006 1968     		ldr	r1, [r3]
 424              		.loc 1 260 0
 425 0008 826B     		ldr	r2, [r0, #56]
 426              		.loc 1 258 0
 427 000a 01F00F01 		and	r1, r1, #15
 428              	.LVL21:
 429              		.loc 1 259 0
 430 000e 5960     		str	r1, [r3, #4]
 431              		.loc 1 260 0
 432 0010 0AB1     		cbz	r2, .L59
 433              		.loc 1 261 0
 434 0012 C06B     		ldr	r0, [r0, #60]
 435 0014 9047     		blx	r2
 436              	.LVL22:
 437              	.L59:
 438              		.loc 1 264 0
 439 0016 BDE80840 		pop	{r3, lr}
 440              		.cfi_restore 14
 441              		.cfi_restore 3
 442              		.cfi_def_cfa_offset 0
 443              		.loc 1 263 0
 444 001a FFF7FEBF 		b	_port_irq_epilogue
 445              	.LVL23:
 446              	.L65:
 447 001e 00BF     		.align	2
 448              	.L64:
 449 0020 00040240 		.word	1073873920
 450 0024 00000000 		.word	.LANCHOR0
 451              		.cfi_endproc
 452              	.LFE70:
 453              		.size	Vector120, .-Vector120
 454              		.section	.text.Vector124,"ax",%progbits
 455              		.align	2
 456              		.p2align 4,,15
ARM GAS  /var/folders/6q/x_mk5n_j3p7_c40r_2k_78980000gn/T//ccebEyhT.s 			page 9


 457              		.global	Vector124
 458              		.thumb
 459              		.thumb_func
 460              		.type	Vector124, %function
 461              	Vector124:
 462              	.LFB71:
 463              		.loc 1 271 0
 464              		.cfi_startproc
 465              		@ args = 0, pretend = 0, frame = 0
 466              		@ frame_needed = 0, uses_anonymous_args = 0
 467              		.loc 1 276 0
 468 0000 074B     		ldr	r3, .L72
 469              		.loc 1 278 0
 470 0002 0848     		ldr	r0, .L72+4
 471              		.loc 1 276 0
 472 0004 1968     		ldr	r1, [r3]
 473              		.loc 1 278 0
 474 0006 026C     		ldr	r2, [r0, #64]
 475              		.loc 1 276 0
 476 0008 C1F30311 		ubfx	r1, r1, #4, #4
 477              	.LVL24:
 478              		.loc 1 271 0
 479 000c 10B5     		push	{r4, lr}
 480              		.cfi_def_cfa_offset 8
 481              		.cfi_offset 4, -8
 482              		.cfi_offset 14, -4
 483              		.loc 1 277 0
 484 000e 0C01     		lsls	r4, r1, #4
 485 0010 5C60     		str	r4, [r3, #4]
 486              		.loc 1 278 0
 487 0012 0AB1     		cbz	r2, .L67
 488              		.loc 1 279 0
 489 0014 406C     		ldr	r0, [r0, #68]
 490 0016 9047     		blx	r2
 491              	.LVL25:
 492              	.L67:
 493              		.loc 1 282 0
 494 0018 BDE81040 		pop	{r4, lr}
 495              		.cfi_restore 14
 496              		.cfi_restore 4
 497              		.cfi_def_cfa_offset 0
 498              		.loc 1 281 0
 499 001c FFF7FEBF 		b	_port_irq_epilogue
 500              	.LVL26:
 501              	.L73:
 502              		.align	2
 503              	.L72:
 504 0020 00040240 		.word	1073873920
 505 0024 00000000 		.word	.LANCHOR0
 506              		.cfi_endproc
 507              	.LFE71:
 508              		.size	Vector124, .-Vector124
 509              		.section	.text.Vector128,"ax",%progbits
 510              		.align	2
 511              		.p2align 4,,15
 512              		.global	Vector128
 513              		.thumb
ARM GAS  /var/folders/6q/x_mk5n_j3p7_c40r_2k_78980000gn/T//ccebEyhT.s 			page 10


 514              		.thumb_func
 515              		.type	Vector128, %function
 516              	Vector128:
 517              	.LFB72:
 518              		.loc 1 289 0
 519              		.cfi_startproc
 520              		@ args = 0, pretend = 0, frame = 0
 521              		@ frame_needed = 0, uses_anonymous_args = 0
 522              		.loc 1 294 0
 523 0000 074B     		ldr	r3, .L80
 524              		.loc 1 296 0
 525 0002 0848     		ldr	r0, .L80+4
 526              		.loc 1 294 0
 527 0004 1968     		ldr	r1, [r3]
 528              		.loc 1 296 0
 529 0006 826C     		ldr	r2, [r0, #72]
 530              		.loc 1 294 0
 531 0008 C1F30321 		ubfx	r1, r1, #8, #4
 532              	.LVL27:
 533              		.loc 1 289 0
 534 000c 10B5     		push	{r4, lr}
 535              		.cfi_def_cfa_offset 8
 536              		.cfi_offset 4, -8
 537              		.cfi_offset 14, -4
 538              		.loc 1 295 0
 539 000e 0C02     		lsls	r4, r1, #8
 540 0010 5C60     		str	r4, [r3, #4]
 541              		.loc 1 296 0
 542 0012 0AB1     		cbz	r2, .L75
 543              		.loc 1 297 0
 544 0014 C06C     		ldr	r0, [r0, #76]
 545 0016 9047     		blx	r2
 546              	.LVL28:
 547              	.L75:
 548              		.loc 1 300 0
 549 0018 BDE81040 		pop	{r4, lr}
 550              		.cfi_restore 14
 551              		.cfi_restore 4
 552              		.cfi_def_cfa_offset 0
 553              		.loc 1 299 0
 554 001c FFF7FEBF 		b	_port_irq_epilogue
 555              	.LVL29:
 556              	.L81:
 557              		.align	2
 558              	.L80:
 559 0020 00040240 		.word	1073873920
 560 0024 00000000 		.word	.LANCHOR0
 561              		.cfi_endproc
 562              	.LFE72:
 563              		.size	Vector128, .-Vector128
 564              		.section	.text.Vector12C,"ax",%progbits
 565              		.align	2
 566              		.p2align 4,,15
 567              		.global	Vector12C
 568              		.thumb
 569              		.thumb_func
 570              		.type	Vector12C, %function
ARM GAS  /var/folders/6q/x_mk5n_j3p7_c40r_2k_78980000gn/T//ccebEyhT.s 			page 11


 571              	Vector12C:
 572              	.LFB73:
 573              		.loc 1 346 0
 574              		.cfi_startproc
 575              		@ args = 0, pretend = 0, frame = 0
 576              		@ frame_needed = 0, uses_anonymous_args = 0
 577              		.loc 1 352 0
 578 0000 0E4B     		ldr	r3, .L96
 579              		.loc 1 346 0
 580 0002 10B5     		push	{r4, lr}
 581              		.cfi_def_cfa_offset 8
 582              		.cfi_offset 4, -8
 583              		.cfi_offset 14, -4
 584              		.loc 1 352 0
 585 0004 1968     		ldr	r1, [r3]
 586 0006 C1F30331 		ubfx	r1, r1, #12, #4
 587              	.LVL30:
 588              		.loc 1 353 0
 589 000a 31B1     		cbz	r1, .L84
 590              		.loc 1 355 0
 591 000c 0C48     		ldr	r0, .L96+4
 592              		.loc 1 354 0
 593 000e 0A03     		lsls	r2, r1, #12
 594              		.loc 1 355 0
 595 0010 046D     		ldr	r4, [r0, #80]
 596              		.loc 1 354 0
 597 0012 5A60     		str	r2, [r3, #4]
 598              		.loc 1 355 0
 599 0014 0CB1     		cbz	r4, .L84
 600              		.loc 1 356 0
 601 0016 406D     		ldr	r0, [r0, #84]
 602 0018 A047     		blx	r4
 603              	.LVL31:
 604              	.L84:
 605              		.loc 1 360 0
 606 001a 084B     		ldr	r3, .L96
 607 001c 1968     		ldr	r1, [r3]
 608 001e C1F30341 		ubfx	r1, r1, #16, #4
 609              	.LVL32:
 610              		.loc 1 361 0
 611 0022 31B1     		cbz	r1, .L87
 612              		.loc 1 363 0
 613 0024 0648     		ldr	r0, .L96+4
 614              		.loc 1 362 0
 615 0026 0A04     		lsls	r2, r1, #16
 616              		.loc 1 363 0
 617 0028 846D     		ldr	r4, [r0, #88]
 618              		.loc 1 362 0
 619 002a 5A60     		str	r2, [r3, #4]
 620              		.loc 1 363 0
 621 002c 0CB1     		cbz	r4, .L87
 622              		.loc 1 364 0
 623 002e C06D     		ldr	r0, [r0, #92]
 624 0030 A047     		blx	r4
 625              	.LVL33:
 626              	.L87:
 627              		.loc 1 368 0
ARM GAS  /var/folders/6q/x_mk5n_j3p7_c40r_2k_78980000gn/T//ccebEyhT.s 			page 12


 628 0032 BDE81040 		pop	{r4, lr}
 629              		.cfi_restore 14
 630              		.cfi_restore 4
 631              		.cfi_def_cfa_offset 0
 632              		.loc 1 367 0
 633 0036 FFF7FEBF 		b	_port_irq_epilogue
 634              	.LVL34:
 635              	.L97:
 636 003a 00BF     		.align	2
 637              	.L96:
 638 003c 00040240 		.word	1073873920
 639 0040 00000000 		.word	.LANCHOR0
 640              		.cfi_endproc
 641              	.LFE73:
 642              		.size	Vector12C, .-Vector12C
 643              		.section	.text.dmaInit,"ax",%progbits
 644              		.align	2
 645              		.p2align 4,,15
 646              		.global	dmaInit
 647              		.thumb
 648              		.thumb_func
 649              		.type	dmaInit, %function
 650              	dmaInit:
 651              	.LFB74:
 652              		.loc 1 381 0
 653              		.cfi_startproc
 654              		@ args = 0, pretend = 0, frame = 0
 655              		@ frame_needed = 0, uses_anonymous_args = 0
 656              		@ link register save eliminated.
 657 0000 70B4     		push	{r4, r5, r6}
 658              		.cfi_def_cfa_offset 12
 659              		.cfi_offset 4, -12
 660              		.cfi_offset 5, -8
 661              		.cfi_offset 6, -4
 662              		.loc 1 384 0
 663 0002 0C4E     		ldr	r6, .L104
 664 0004 0025     		movs	r5, #0
 665              		.loc 1 385 0
 666 0006 2B46     		mov	r3, r5
 667              		.loc 1 386 0
 668 0008 2A46     		mov	r2, r5
 669 000a 0B48     		ldr	r0, .L104+4
 670              		.loc 1 384 0
 671 000c 0B49     		ldr	r1, .L104+8
 672 000e 0C4C     		ldr	r4, .L104+12
 673 0010 3560     		str	r5, [r6]
 674              	.LVL35:
 675 0012 01E0     		b	.L100
 676              	.LVL36:
 677              	.L103:
 678 0014 50F80C1F 		ldr	r1, [r0, #12]!
 679              	.LVL37:
 680              	.L100:
 681              		.loc 1 386 0 discriminator 3
 682 0018 0A60     		str	r2, [r1]
 683              		.loc 1 387 0 discriminator 3
 684 001a 44F83320 		str	r2, [r4, r3, lsl #3]
ARM GAS  /var/folders/6q/x_mk5n_j3p7_c40r_2k_78980000gn/T//ccebEyhT.s 			page 13


 685              		.loc 1 385 0 discriminator 3
 686 001e 0133     		adds	r3, r3, #1
 687              	.LVL38:
 688 0020 0C2B     		cmp	r3, #12
 689 0022 F7D1     		bne	.L103
 690              		.loc 1 389 0
 691 0024 0749     		ldr	r1, .L104+16
 692              		.loc 1 391 0
 693 0026 084A     		ldr	r2, .L104+20
 694              		.loc 1 389 0
 695 0028 4FF0FF33 		mov	r3, #-1
 696              	.LVL39:
 697 002c 4B60     		str	r3, [r1, #4]
 698              		.loc 1 393 0
 699 002e 70BC     		pop	{r4, r5, r6}
 700              		.cfi_restore 6
 701              		.cfi_restore 5
 702              		.cfi_restore 4
 703              		.cfi_def_cfa_offset 0
 704              		.loc 1 391 0
 705 0030 5360     		str	r3, [r2, #4]
 706              		.loc 1 393 0
 707 0032 7047     		bx	lr
 708              	.L105:
 709              		.align	2
 710              	.L104:
 711 0034 00000000 		.word	.LANCHOR1
 712 0038 00000000 		.word	.LANCHOR2
 713 003c 08000240 		.word	1073872904
 714 0040 00000000 		.word	.LANCHOR0
 715 0044 00000240 		.word	1073872896
 716 0048 00040240 		.word	1073873920
 717              		.cfi_endproc
 718              	.LFE74:
 719              		.size	dmaInit, .-dmaInit
 720              		.section	.text.dmaStreamAllocate,"ax",%progbits
 721              		.align	2
 722              		.p2align 4,,15
 723              		.global	dmaStreamAllocate
 724              		.thumb
 725              		.thumb_func
 726              		.type	dmaStreamAllocate, %function
 727              	dmaStreamAllocate:
 728              	.LFB75:
 729              		.loc 1 422 0
 730              		.cfi_startproc
 731              		@ args = 0, pretend = 0, frame = 0
 732              		@ frame_needed = 0, uses_anonymous_args = 0
 733              	.LVL40:
 734 0000 F8B5     		push	{r3, r4, r5, r6, r7, lr}
 735              		.cfi_def_cfa_offset 24
 736              		.cfi_offset 3, -24
 737              		.cfi_offset 4, -20
 738              		.cfi_offset 5, -16
 739              		.cfi_offset 6, -12
 740              		.cfi_offset 7, -8
 741              		.cfi_offset 14, -4
ARM GAS  /var/folders/6q/x_mk5n_j3p7_c40r_2k_78980000gn/T//ccebEyhT.s 			page 14


 742              		.loc 1 427 0
 743 0002 1C4F     		ldr	r7, .L119
 744 0004 467A     		ldrb	r6, [r0, #9]	@ zero_extendqisi2
 745 0006 0124     		movs	r4, #1
 746 0008 3D68     		ldr	r5, [r7]
 747 000a 04FA06FE 		lsl	lr, r4, r6
 748 000e 1EEA050F 		tst	lr, r5
 749 0012 2BD1     		bne	.L110
 750              		.loc 1 431 0
 751 0014 184C     		ldr	r4, .L119+4
 752              		.loc 1 433 0
 753 0016 4EEA0505 		orr	r5, lr, r5
 754              		.loc 1 432 0
 755 001a 04EBC60E 		add	lr, r4, r6, lsl #3
 756 001e CEF80430 		str	r3, [lr, #4]
 757              		.loc 1 436 0
 758 0022 6B06     		lsls	r3, r5, #25
 759              	.LVL41:
 760              		.loc 1 433 0
 761 0024 3D60     		str	r5, [r7]
 762              		.loc 1 431 0
 763 0026 44F83620 		str	r2, [r4, r6, lsl #3]
 764              		.loc 1 436 0
 765 002a 04D0     		beq	.L108
 766              		.loc 1 437 0
 767 002c 134C     		ldr	r4, .L119+8
 768 002e 6369     		ldr	r3, [r4, #20]
 769 0030 43F00103 		orr	r3, r3, #1
 770 0034 6361     		str	r3, [r4, #20]
 771              	.L108:
 772              		.loc 1 439 0
 773 0036 15F4786F 		tst	r5, #3968
 774 003a 04D0     		beq	.L109
 775              		.loc 1 440 0
 776 003c 0F4C     		ldr	r4, .L119+8
 777 003e 6369     		ldr	r3, [r4, #20]
 778 0040 43F00203 		orr	r3, r3, #2
 779 0044 6361     		str	r3, [r4, #20]
 780              	.L109:
 781              		.loc 1 444 0
 782 0046 0368     		ldr	r3, [r0]
 783 0048 4668     		ldr	r6, [r0, #4]
 784 004a 1C68     		ldr	r4, [r3]
 785 004c 0F25     		movs	r5, #15
 786 004e 24F00F04 		bic	r4, r4, #15
 787 0052 1C60     		str	r4, [r3]
 788 0054 077A     		ldrb	r7, [r0, #8]	@ zero_extendqisi2
 789              		.loc 1 445 0
 790 0056 0024     		movs	r4, #0
 791              		.loc 1 444 0
 792 0058 BD40     		lsls	r5, r5, r7
 793 005a 3560     		str	r5, [r6]
 794              		.loc 1 445 0
 795 005c 1C60     		str	r4, [r3]
 796              		.loc 1 448 0
 797 005e 3AB1     		cbz	r2, .L111
 798              		.loc 1 449 0
ARM GAS  /var/folders/6q/x_mk5n_j3p7_c40r_2k_78980000gn/T//ccebEyhT.s 			page 15


 799 0060 0901     		lsls	r1, r1, #4
 800              	.LVL42:
 801 0062 807A     		ldrb	r0, [r0, #10]	@ zero_extendqisi2
 802              	.LVL43:
 803 0064 FFF7FEFF 		bl	nvicEnableVector
 804              	.LVL44:
 805              		.loc 1 451 0
 806 0068 2046     		mov	r0, r4
 807 006a F8BD     		pop	{r3, r4, r5, r6, r7, pc}
 808              	.LVL45:
 809              	.L110:
 810              		.loc 1 428 0
 811 006c 2046     		mov	r0, r4
 812              	.LVL46:
 813 006e F8BD     		pop	{r3, r4, r5, r6, r7, pc}
 814              	.LVL47:
 815              	.L111:
 816              		.loc 1 451 0
 817 0070 1046     		mov	r0, r2
 818              	.LVL48:
 819              		.loc 1 452 0
 820 0072 F8BD     		pop	{r3, r4, r5, r6, r7, pc}
 821              	.L120:
 822              		.align	2
 823              	.L119:
 824 0074 00000000 		.word	.LANCHOR1
 825 0078 00000000 		.word	.LANCHOR0
 826 007c 00100240 		.word	1073876992
 827              		.cfi_endproc
 828              	.LFE75:
 829              		.size	dmaStreamAllocate, .-dmaStreamAllocate
 830              		.section	.text.dmaStreamRelease,"ax",%progbits
 831              		.align	2
 832              		.p2align 4,,15
 833              		.global	dmaStreamRelease
 834              		.thumb
 835              		.thumb_func
 836              		.type	dmaStreamRelease, %function
 837              	dmaStreamRelease:
 838              	.LFB76:
 839              		.loc 1 467 0
 840              		.cfi_startproc
 841              		@ args = 0, pretend = 0, frame = 0
 842              		@ frame_needed = 0, uses_anonymous_args = 0
 843              	.LVL49:
 844 0000 10B5     		push	{r4, lr}
 845              		.cfi_def_cfa_offset 8
 846              		.cfi_offset 4, -8
 847              		.cfi_offset 14, -4
 848              		.loc 1 467 0
 849 0002 0446     		mov	r4, r0
 850              		.loc 1 476 0
 851 0004 807A     		ldrb	r0, [r0, #10]	@ zero_extendqisi2
 852              	.LVL50:
 853 0006 FFF7FEFF 		bl	nvicDisableVector
 854              	.LVL51:
 855              		.loc 1 479 0
ARM GAS  /var/folders/6q/x_mk5n_j3p7_c40r_2k_78980000gn/T//ccebEyhT.s 			page 16


 856 000a 0C49     		ldr	r1, .L125
 857 000c 607A     		ldrb	r0, [r4, #9]	@ zero_extendqisi2
 858 000e 0A68     		ldr	r2, [r1]
 859 0010 0123     		movs	r3, #1
 860 0012 8340     		lsls	r3, r3, r0
 861 0014 22EA0303 		bic	r3, r2, r3
 862              		.loc 1 482 0
 863 0018 5A06     		lsls	r2, r3, #25
 864              		.loc 1 479 0
 865 001a 0B60     		str	r3, [r1]
 866              		.loc 1 482 0
 867 001c 04D1     		bne	.L122
 868              		.loc 1 483 0
 869 001e 0849     		ldr	r1, .L125+4
 870 0020 4A69     		ldr	r2, [r1, #20]
 871 0022 22F00102 		bic	r2, r2, #1
 872 0026 4A61     		str	r2, [r1, #20]
 873              	.L122:
 874              		.loc 1 485 0
 875 0028 13F4786F 		tst	r3, #3968
 876 002c 04D1     		bne	.L121
 877              		.loc 1 486 0
 878 002e 044A     		ldr	r2, .L125+4
 879 0030 5369     		ldr	r3, [r2, #20]
 880 0032 23F00203 		bic	r3, r3, #2
 881 0036 5361     		str	r3, [r2, #20]
 882              	.L121:
 883 0038 10BD     		pop	{r4, pc}
 884              	.LVL52:
 885              	.L126:
 886 003a 00BF     		.align	2
 887              	.L125:
 888 003c 00000000 		.word	.LANCHOR1
 889 0040 00100240 		.word	1073876992
 890              		.cfi_endproc
 891              	.LFE76:
 892              		.size	dmaStreamRelease, .-dmaStreamRelease
 893              		.global	_stm32_dma_streams
 894              		.section	.bss.dma_isr_redir,"aw",%nobits
 895              		.align	2
 896              		.set	.LANCHOR0,. + 0
 897              		.type	dma_isr_redir, %object
 898              		.size	dma_isr_redir, 96
 899              	dma_isr_redir:
 900 0000 00000000 		.space	96
 900      00000000 
 900      00000000 
 900      00000000 
 900      00000000 
 901              		.section	.rodata._stm32_dma_streams,"a",%progbits
 902              		.align	2
 903              		.set	.LANCHOR2,. + 0
 904              		.type	_stm32_dma_streams, %object
 905              		.size	_stm32_dma_streams, 144
 906              	_stm32_dma_streams:
 907 0000 08000240 		.word	1073872904
 908 0004 04000240 		.word	1073872900
ARM GAS  /var/folders/6q/x_mk5n_j3p7_c40r_2k_78980000gn/T//ccebEyhT.s 			page 17


 909 0008 00       		.byte	0
 910 0009 00       		.byte	0
 911 000a 0B       		.byte	11
 912 000b 00       		.space	1
 913 000c 1C000240 		.word	1073872924
 914 0010 04000240 		.word	1073872900
 915 0014 04       		.byte	4
 916 0015 01       		.byte	1
 917 0016 0C       		.byte	12
 918 0017 00       		.space	1
 919 0018 30000240 		.word	1073872944
 920 001c 04000240 		.word	1073872900
 921 0020 08       		.byte	8
 922 0021 02       		.byte	2
 923 0022 0D       		.byte	13
 924 0023 00       		.space	1
 925 0024 44000240 		.word	1073872964
 926 0028 04000240 		.word	1073872900
 927 002c 0C       		.byte	12
 928 002d 03       		.byte	3
 929 002e 0E       		.byte	14
 930 002f 00       		.space	1
 931 0030 58000240 		.word	1073872984
 932 0034 04000240 		.word	1073872900
 933 0038 10       		.byte	16
 934 0039 04       		.byte	4
 935 003a 0F       		.byte	15
 936 003b 00       		.space	1
 937 003c 6C000240 		.word	1073873004
 938 0040 04000240 		.word	1073872900
 939 0044 14       		.byte	20
 940 0045 05       		.byte	5
 941 0046 10       		.byte	16
 942 0047 00       		.space	1
 943 0048 80000240 		.word	1073873024
 944 004c 04000240 		.word	1073872900
 945 0050 18       		.byte	24
 946 0051 06       		.byte	6
 947 0052 11       		.byte	17
 948 0053 00       		.space	1
 949 0054 08040240 		.word	1073873928
 950 0058 04040240 		.word	1073873924
 951 005c 00       		.byte	0
 952 005d 07       		.byte	7
 953 005e 38       		.byte	56
 954 005f 00       		.space	1
 955 0060 1C040240 		.word	1073873948
 956 0064 04040240 		.word	1073873924
 957 0068 04       		.byte	4
 958 0069 08       		.byte	8
 959 006a 39       		.byte	57
 960 006b 00       		.space	1
 961 006c 30040240 		.word	1073873968
 962 0070 04040240 		.word	1073873924
 963 0074 08       		.byte	8
 964 0075 09       		.byte	9
 965 0076 3A       		.byte	58
ARM GAS  /var/folders/6q/x_mk5n_j3p7_c40r_2k_78980000gn/T//ccebEyhT.s 			page 18


 966 0077 00       		.space	1
 967 0078 44040240 		.word	1073873988
 968 007c 04040240 		.word	1073873924
 969 0080 0C       		.byte	12
 970 0081 0A       		.byte	10
 971 0082 3B       		.byte	59
 972 0083 00       		.space	1
 973 0084 58040240 		.word	1073874008
 974 0088 04040240 		.word	1073873924
 975 008c 10       		.byte	16
 976 008d 0B       		.byte	11
 977 008e 3B       		.byte	59
 978 008f 00       		.space	1
 979              		.section	.bss.dma_streams_mask,"aw",%nobits
 980              		.align	2
 981              		.set	.LANCHOR1,. + 0
 982              		.type	dma_streams_mask, %object
 983              		.size	dma_streams_mask, 4
 984              	dma_streams_mask:
 985 0000 00000000 		.space	4
 986              		.text
 987              	.Letext0:
 988              		.file 2 "/Users/Luca/src/vexilla/src/gcc-arm-none-eabi-5_4-2016q3/arm-none-eabi/include/machine/_d
 989              		.file 3 "/Users/Luca/src/vexilla/src/gcc-arm-none-eabi-5_4-2016q3/arm-none-eabi/include/sys/_stdin
 990              		.file 4 "../ChibiOS/os/ports/GCC/ARMCMx/chtypes.h"
 991              		.file 5 "../ChibiOS/os/hal/platforms/STM32F1xx/stm32f10x.h"
 992              		.file 6 "../ChibiOS/os/hal/platforms/STM32F1xx/stm32_dma.h"
 993              		.file 7 "../ChibiOS/os/ports/common/ARMCMx/CMSIS/include/core_cm3.h"
 994              		.file 8 "../ChibiOS/os/ports/GCC/ARMCMx/chcore_v7m.h"
 995              		.file 9 "../ChibiOS/os/ports/common/ARMCMx/nvic.h"