ARM GAS  /var/folders/6q/x_mk5n_j3p7_c40r_2k_78980000gn/T//ccOGSDdA.s 			page 1


   1              		.syntax unified
   2              		.cpu cortex-m3
   3              		.fpu softvfp
   4              		.eabi_attribute 20, 1
   5              		.eabi_attribute 21, 1
   6              		.eabi_attribute 23, 3
   7              		.eabi_attribute 24, 1
   8              		.eabi_attribute 25, 1
   9              		.eabi_attribute 26, 1
  10              		.eabi_attribute 30, 2
  11              		.eabi_attribute 34, 1
  12              		.eabi_attribute 18, 4
  13              		.thumb
  14              		.syntax unified
  15              		.file	"syscalls.c"
  16              		.text
  17              	.Ltext0:
  18              		.cfi_sections	.debug_frame
  19              		.section	.text._read_r,"ax",%progbits
  20              		.align	2
  21              		.p2align 4,,15
  22              		.global	_read_r
  23              		.thumb
  24              		.thumb_func
  25              		.type	_read_r, %function
  26              	_read_r:
  27              	.LFB7:
  28              		.file 1 "../ChibiOS/os/various/syscalls.c"
  29              		.loc 1 76 0
  30              		.cfi_startproc
  31              		@ args = 0, pretend = 0, frame = 0
  32              		@ frame_needed = 0, uses_anonymous_args = 0
  33              		@ link register save eliminated.
  34              	.LVL0:
  35              		.loc 1 89 0
  36 0000 1623     		movs	r3, #22
  37              	.LVL1:
  38 0002 0360     		str	r3, [r0]
  39              		.loc 1 92 0
  40 0004 4FF0FF30 		mov	r0, #-1
  41              	.LVL2:
  42 0008 7047     		bx	lr
  43              		.cfi_endproc
  44              	.LFE7:
  45              		.size	_read_r, .-_read_r
  46 000a 00BF     		.section	.text._lseek_r,"ax",%progbits
  47              		.align	2
  48              		.p2align 4,,15
  49              		.global	_lseek_r
  50              		.thumb
  51              		.thumb_func
  52              		.type	_lseek_r, %function
  53              	_lseek_r:
  54              	.LFB8:
  55              		.loc 1 97 0
  56              		.cfi_startproc
  57              		@ args = 0, pretend = 0, frame = 0
ARM GAS  /var/folders/6q/x_mk5n_j3p7_c40r_2k_78980000gn/T//ccOGSDdA.s 			page 2


  58              		@ frame_needed = 0, uses_anonymous_args = 0
  59              		@ link register save eliminated.
  60              	.LVL3:
  61              		.loc 1 104 0
  62 0000 0020     		movs	r0, #0
  63              	.LVL4:
  64 0002 7047     		bx	lr
  65              		.cfi_endproc
  66              	.LFE8:
  67              		.size	_lseek_r, .-_lseek_r
  68              		.section	.text._write_r,"ax",%progbits
  69              		.align	2
  70              		.p2align 4,,15
  71              		.global	_write_r
  72              		.thumb
  73              		.thumb_func
  74              		.type	_write_r, %function
  75              	_write_r:
  76              	.LFB9:
  77              		.loc 1 109 0
  78              		.cfi_startproc
  79              		@ args = 0, pretend = 0, frame = 0
  80              		@ frame_needed = 0, uses_anonymous_args = 0
  81              		@ link register save eliminated.
  82              	.LVL5:
  83              		.loc 1 121 0
  84 0000 1846     		mov	r0, r3
  85              	.LVL6:
  86 0002 7047     		bx	lr
  87              		.cfi_endproc
  88              	.LFE9:
  89              		.size	_write_r, .-_write_r
  90              		.section	.text._close_r,"ax",%progbits
  91              		.align	2
  92              		.p2align 4,,15
  93              		.global	_close_r
  94              		.thumb
  95              		.thumb_func
  96              		.type	_close_r, %function
  97              	_close_r:
  98              	.LFB10:
  99              		.loc 1 126 0
 100              		.cfi_startproc
 101              		@ args = 0, pretend = 0, frame = 0
 102              		@ frame_needed = 0, uses_anonymous_args = 0
 103              		@ link register save eliminated.
 104              	.LVL7:
 105              		.loc 1 131 0
 106 0000 0020     		movs	r0, #0
 107              	.LVL8:
 108 0002 7047     		bx	lr
 109              		.cfi_endproc
 110              	.LFE10:
 111              		.size	_close_r, .-_close_r
 112              		.section	.text._sbrk_r,"ax",%progbits
 113              		.align	2
 114              		.p2align 4,,15
ARM GAS  /var/folders/6q/x_mk5n_j3p7_c40r_2k_78980000gn/T//ccOGSDdA.s 			page 3


 115              		.global	_sbrk_r
 116              		.thumb
 117              		.thumb_func
 118              		.type	_sbrk_r, %function
 119              	_sbrk_r:
 120              	.LFB11:
 121              		.loc 1 136 0
 122              		.cfi_startproc
 123              		@ args = 0, pretend = 0, frame = 0
 124              		@ frame_needed = 0, uses_anonymous_args = 0
 125              	.LVL9:
 126 0000 10B5     		push	{r4, lr}
 127              		.cfi_def_cfa_offset 8
 128              		.cfi_offset 4, -8
 129              		.cfi_offset 14, -4
 130              		.loc 1 136 0
 131 0002 0446     		mov	r4, r0
 132              		.loc 1 143 0
 133 0004 0846     		mov	r0, r1
 134              	.LVL10:
 135 0006 FFF7FEFF 		bl	chCoreAlloc
 136              	.LVL11:
 137              		.loc 1 144 0
 138 000a 00B1     		cbz	r0, .L10
 139              		.loc 1 153 0
 140 000c 10BD     		pop	{r4, pc}
 141              	.LVL12:
 142              	.L10:
 143              		.loc 1 145 0
 144 000e 0C23     		movs	r3, #12
 145 0010 2360     		str	r3, [r4]
 146              		.loc 1 146 0
 147 0012 4FF0FF30 		mov	r0, #-1
 148              	.LVL13:
 149              		.loc 1 153 0
 150 0016 10BD     		pop	{r4, pc}
 151              		.cfi_endproc
 152              	.LFE11:
 153              		.size	_sbrk_r, .-_sbrk_r
 154              		.section	.text._fstat_r,"ax",%progbits
 155              		.align	2
 156              		.p2align 4,,15
 157              		.global	_fstat_r
 158              		.thumb
 159              		.thumb_func
 160              		.type	_fstat_r, %function
 161              	_fstat_r:
 162              	.LFB12:
 163              		.loc 1 158 0
 164              		.cfi_startproc
 165              		@ args = 0, pretend = 0, frame = 0
 166              		@ frame_needed = 0, uses_anonymous_args = 0
 167              	.LVL14:
 168 0000 10B5     		push	{r4, lr}
 169              		.cfi_def_cfa_offset 8
 170              		.cfi_offset 4, -8
 171              		.cfi_offset 14, -4
ARM GAS  /var/folders/6q/x_mk5n_j3p7_c40r_2k_78980000gn/T//ccOGSDdA.s 			page 4


 172              		.loc 1 158 0
 173 0002 1446     		mov	r4, r2
 174              		.loc 1 162 0
 175 0004 0021     		movs	r1, #0
 176              	.LVL15:
 177 0006 1046     		mov	r0, r2
 178              	.LVL16:
 179 0008 3C22     		movs	r2, #60
 180              	.LVL17:
 181 000a FFF7FEFF 		bl	memset
 182              	.LVL18:
 183              		.loc 1 163 0
 184 000e 4FF40053 		mov	r3, #8192
 185 0012 6360     		str	r3, [r4, #4]
 186              		.loc 1 165 0
 187 0014 0020     		movs	r0, #0
 188 0016 10BD     		pop	{r4, pc}
 189              		.cfi_endproc
 190              	.LFE12:
 191              		.size	_fstat_r, .-_fstat_r
 192              		.section	.text._isatty_r,"ax",%progbits
 193              		.align	2
 194              		.p2align 4,,15
 195              		.global	_isatty_r
 196              		.thumb
 197              		.thumb_func
 198              		.type	_isatty_r, %function
 199              	_isatty_r:
 200              	.LFB13:
 201              		.loc 1 170 0
 202              		.cfi_startproc
 203              		@ args = 0, pretend = 0, frame = 0
 204              		@ frame_needed = 0, uses_anonymous_args = 0
 205              		@ link register save eliminated.
 206              	.LVL19:
 207              		.loc 1 175 0
 208 0000 0120     		movs	r0, #1
 209              	.LVL20:
 210 0002 7047     		bx	lr
 211              		.cfi_endproc
 212              	.LFE13:
 213              		.size	_isatty_r, .-_isatty_r
 214              		.text
 215              	.Letext0:
 216              		.file 2 "/Users/Luca/src/vexilla/src/gcc-arm-none-eabi-5_4-2016q3/lib/gcc/arm-none-eabi/5.4.1/incl
 217              		.file 3 "/Users/Luca/src/vexilla/src/gcc-arm-none-eabi-5_4-2016q3/arm-none-eabi/include/machine/_d
 218              		.file 4 "/Users/Luca/src/vexilla/src/gcc-arm-none-eabi-5_4-2016q3/arm-none-eabi/include/sys/lock.h
 219              		.file 5 "/Users/Luca/src/vexilla/src/gcc-arm-none-eabi-5_4-2016q3/arm-none-eabi/include/sys/_types
 220              		.file 6 "/Users/Luca/src/vexilla/src/gcc-arm-none-eabi-5_4-2016q3/arm-none-eabi/include/sys/reent.
 221              		.file 7 "/Users/Luca/src/vexilla/src/gcc-arm-none-eabi-5_4-2016q3/arm-none-eabi/include/sys/_timev
 222              		.file 8 "/Users/Luca/src/vexilla/src/gcc-arm-none-eabi-5_4-2016q3/arm-none-eabi/include/sys/types.
 223              		.file 9 "/Users/Luca/src/vexilla/src/gcc-arm-none-eabi-5_4-2016q3/arm-none-eabi/include/sys/stat.h
 224              		.file 10 "../ChibiOS/os/kernel/include/chmemcore.h"