ARM GAS  /var/folders/6q/x_mk5n_j3p7_c40r_2k_78980000gn/T//ccOGSDdA.s 			page 1


   1              		.syntax unified
   2              		.cpu cortex-m3
   3              		.fpu softvfp
   4              		.eabi_attribute 20, 1
   5              		.eabi_attribute 21, 1
   6              		.eabi_attribute 23, 3
   7              		.eabi_attribute 24, 1
   8              		.eabi_attribute 25, 1
   9              		.eabi_attribute 26, 1
  10              		.eabi_attribute 30, 2
  11              		.eabi_attribute 34, 1
  12              		.eabi_attribute 18, 4
  13              		.thumb
  14              		.syntax unified
  15              		.file	"syscalls.c"
  16              		.text
  17              	.Ltext0:
  18              		.cfi_sections	.debug_frame
  19              		.section	.text._read_r,"ax",%progbits
  20              		.align	2
  21              		.p2align 4,,15
  22              		.global	_read_r
  23              		.thumb
  24              		.thumb_func
  25              		.type	_read_r, %function
  26              	_read_r:
  27              	.LFB7:
  28              		.file 1 "../ChibiOS/os/various/syscalls.c"
  29              		.loc 1 76 0
  30              		.cfi_startproc
  31              		@ args = 0, pretend = 0, frame = 0
  32              		@ frame_needed = 0, uses_anonymous_args = 0
  33              		@ link register save eliminated.
  34              	.LVL0:
  35              		.loc 1 89 0
  36 0000 1623     		movs	r3, #22
  37              	.LVL1:
  38 0002 0360     		str	r3, [r0]
  39              		.loc 1 92 0
  40 0004 4FF0FF30 		mov	r0, #-1
  41              	.LVL2:
  42 0008 7047     		bx	lr
  43              		.cfi_endproc
  44              	.LFE7:
  45              		.size	_read_r, .-_read_r
  46 000a 00BF     		.section	.text._lseek_r,"ax",%progbits
  47              		.align	2
  48              		.p2align 4,,15
  49              		.global	_lseek_r
  50              		.thumb
  51              		.thumb_func
  52              		.type	_lseek_r, %function
  53              	_lseek_r:
  54              	.LFB8:
  55              		.loc 1 97 0
  56              		.cfi_startproc
  57              		@ args = 0, pretend = 0, frame = 0
ARM GAS  /var/folders/6q/x_mk5n_j3p7_c40r_2k_78980000gn/T//ccOGSDdA.s 			page 2


  58              		@ frame_needed = 0, uses_anonymous_args = 0
  59              		@ link register save eliminated.
  60              	.LVL3:
  61              		.loc 1 104 0
  62 0000 0020     		movs	r0, #0
  63              	.LVL4:
  64 0002 7047     		bx	lr
  65              		.cfi_endproc
  66              	.LFE8:
  67              		.size	_lseek_r, .-_lseek_r
  68              		.section	.text._write_r,"ax",%progbits
  69              		.align	2
  70              		.p2align 4,,15
  71              		.global	_write_r
  72              		.thumb
  73              		.thumb_func
  74              		.type	_write_r, %function
  75              	_write_r:
  76              	.LFB9:
  77              		.loc 1 109 0
  78              		.cfi_startproc
  79              		@ args = 0, pretend = 0, frame = 0
  80              		@ frame_needed = 0, uses_anonymous_args = 0
  81              		@ link register save eliminated.
  82              	.LVL5:
  83              		.loc 1 121 0
  84 0000 1846     		mov	r0, r3
  85              	.LVL6:
  86 0002 7047     		bx	lr
  87              		.cfi_endproc
  88              	.LFE9:
  89              		.size	_write_r, .-_write_r
  90              		.section	.text._close_r,"ax",%progbits
  91              		.align	2
  92              		.p2align 4,,15
  93              		.global	_close_r
  94              		.thumb
  95              		.thumb_func
  96              		.type	_close_r, %function
  97              	_close_r:
  98              	.LFB10:
  99              		.loc 1 126 0
 100              		.cfi_startproc
 101              		@ args = 0, pretend = 0, frame = 0
 102              		@ frame_needed = 0, uses_anonymous_args = 0
 103              		@ link register save eliminated.
 104              	.LVL7:
 105              		.loc 1 131 0
 106 0000 0020     		movs	r0, #0
 107              	.LVL8:
 108 0002 7047     		bx	lr
 109              		.cfi_endproc
 110              	.LFE10:
 111              		.size	_close_r, .-_close_r
 112              		.section	.text._sbrk_r,"ax",%progbits
 113              		.align	2
 114              		.p2align 4,,15
ARM GAS  /var/folders/6q/x_mk5n_j3p7_c40r_2k_78980000gn/T//ccOGSDdA.s 			page 3


 115              		.global	_sbrk_r
 116              		.thumb
 117              		.thumb_func
 118              		.type	_sbrk_r, %function
 119              	_sbrk_r:
 120              	.LFB11:
 121              		.loc 1 136 0
 122              		.cfi_startproc
 123              		@ args = 0, pretend = 0, frame = 0
 124              		@ frame_needed = 0, uses_anonymous_args = 0
 125              	.LVL9:
 126 0000 10B5     		push	{r4, lr}
 127              		.cfi_def_cfa_offset 8
 128              		.cfi_offset 4, -8
 129              		.cfi_offset 14, -4
 130              		.loc 1 136 0
 131 0002 0446     		mov	r4, r0
 132              		.loc 1 143 0
 133 0004 0846     		mov	r0, r1
 134              	.LVL10:
 135 0006 FFF7FEFF 		bl	chCoreAlloc
 136              	.LVL11:
 137              		.loc 1 144 0
 138 000a 00B1     		cbz	r0, .L10
 139              		.loc 1 153 0
 140 000c 10BD     		pop	{r4, pc}
 141              	.LVL12:
 142              	.L10:
 143              		.loc 1 145 0
 144 000e 0C23     		movs	r3, #12
 145 0010 2360     		str	r3, [r4]
 146              		.loc 1 146 0
 147 0012 4FF0FF30 		mov	r0, #-1
 148              	.LVL13:
 149              		.loc 1 153 0
 150 0016 10BD     		pop	{r4, pc}
 151              		.cfi_endproc
 152              	.LFE11:
 153              		.size	_sbrk_r, .-_sbrk_r
 154              		.section	.text._fstat_r,"ax",%progbits
 155              		.align	2
 156              		.p2align 4,,15
 157              		.global	_fstat_r
 158              		.thumb
 159              		.thumb_func
 160              		.type	_fstat_r, %function
 161              	_fstat_r:
 162              	.LFB12:
 163              		.loc 1 158 0
 164              		.cfi_startproc
 165              		@ args = 0, pretend = 0, frame = 0
 166              		@ frame_needed = 0, uses_anonymous_args = 0
 167              	.LVL14:
 168 0000 10B5     		push	{r4, lr}
 169              		.cfi_def_cfa_offset 8
 170              		.cfi_offset 4, -8
 171              		.cfi_offset 14, -4
ARM GAS  /var/folders/6q/x_mk5n_j3p7_c40r_2k_78980000gn/T//ccOGSDdA.s 			page 4


 172              		.loc 1 158 0
 173 0002 1446     		mov	r4, r2
 174              		.loc 1 162 0
 175 0004 0021     		movs	r1, #0
 176              	.LVL15:
 177 0006 1046     		mov	r0, r2
 178              	.LVL16:
 179 0008 3C22     		movs	r2, #60
 180              	.LVL17:
 181 000a FFF7FEFF 		bl	memset
 182              	.LVL18:
 183              		.loc 1 163 0
 184 000e 4FF40053 		mov	r3, #8192
 185 0012 6360     		str	r3, [r4, #4]
 186              		.loc 1 165 0
 187 0014 0020     		movs	r0, #0
 188 0016 10BD     		pop	{r4, pc}
 189              		.cfi_endproc
 190              	.LFE12:
 191              		.size	_fstat_r, .-_fstat_r
 192              		.section	.text._isatty_r,"ax",%progbits
 193              		.align	2
 194              		.p2align 4,,15
 195              		.global	_isatty_r
 196              		.thumb
 197              		.thumb_func
 198              		.type	_isatty_r, %function
 199              	_isatty_r:
 200              	.LFB13:
 201              		.loc 1 170 0
 202              		.cfi_startproc
 203              		@ args = 0, pretend = 0, frame = 0
 204              		@ frame_needed = 0, uses_anonymous_args = 0
 205              		@ link register save eliminated.
 206              	.LVL19:
 207              		.loc 1 175 0
 208 0000 0120     		movs	r0, #1
 209              	.LVL20:
 210 0002 7047     		bx	lr
 211              		.cfi_endproc
 212              	.LFE13:
 213              		.size	_isatty_r, .-_isatty_r
 214              		.text
 215              	.Letext0:
 216              		.file 2 "/Users/Luca/src/vexilla/src/gcc-arm-none-eabi-5_4-2016q3/lib/gcc/arm-none-eabi/5.4.1/incl
 217              		.file 3 "/Users/Luca/src/vexilla/src/gcc-arm-none-eabi-5_4-2016q3/arm-none-eabi/include/machine/_d
 218              		.file 4 "/Users/Luca/src/vexilla/src/gcc-arm-none-eabi-5_4-2016q3/arm-none-eabi/include/sys/lock.h
 219              		.file 5 "/Users/Luca/src/vexilla/src/gcc-arm-none-eabi-5_4-2016q3/arm-none-eabi/include/sys/_types
 220              		.file 6 "/Users/Luca/src/vexilla/src/gcc-arm-none-eabi-5_4-2016q3/arm-none-eabi/include/sys/reent.
 221              		.file 7 "/Users/Luca/src/vexilla/src/gcc-arm-none-eabi-5_4-2016q3/arm-none-eabi/include/sys/_timev
 222              		.file 8 "/Users/Luca/src/vexilla/src/gcc-arm-none-eabi-5_4-2016q3/arm-none-eabi/include/sys/types.
 223              		.file 9 "/Users/Luca/src/vexilla/src/gcc-arm-none-eabi-5_4-2016q3/arm-none-eabi/include/sys/stat.h
 224              		.file 10 "../ChibiOS/os/kernel/include/chmemcore.h"
 225              		.section	.debug_info,"",%progbits
 226              	.Ldebug_info0:
 227 0000 720C0000 		.4byte	0xc72
 228 0004 0400     		.2byte	0x4
ARM GAS  /var/folders/6q/x_mk5n_j3p7_c40r_2k_78980000gn/T//ccOGSDdA.s 			page 5


 229 0006 00000000 		.4byte	.Ldebug_abbrev0
 230 000a 04       		.byte	0x4
 231 000b 01       		.uleb128 0x1
 232 000c 82020000 		.4byte	.LASF168
 233 0010 0C       		.byte	0xc
 234 0011 09020000 		.4byte	.LASF169
 235 0015 5C030000 		.4byte	.LASF170
 236 0019 00000000 		.4byte	.Ldebug_ranges0+0
 237 001d 00000000 		.4byte	0
 238 0021 00000000 		.4byte	.Ldebug_line0
 239 0025 02       		.uleb128 0x2
 240 0026 92010000 		.4byte	.LASF8
 241 002a 02       		.byte	0x2
 242 002b D8       		.byte	0xd8
 243 002c 30000000 		.4byte	0x30
 244 0030 03       		.uleb128 0x3
 245 0031 04       		.byte	0x4
 246 0032 07       		.byte	0x7
 247 0033 40000000 		.4byte	.LASF0
 248 0037 04       		.uleb128 0x4
 249 0038 04       		.byte	0x4
 250 0039 05       		.byte	0x5
 251 003a 696E7400 		.ascii	"int\000"
 252 003e 03       		.uleb128 0x3
 253 003f 08       		.byte	0x8
 254 0040 05       		.byte	0x5
 255 0041 D7030000 		.4byte	.LASF1
 256 0045 03       		.uleb128 0x3
 257 0046 08       		.byte	0x8
 258 0047 04       		.byte	0x4
 259 0048 B1040000 		.4byte	.LASF2
 260 004c 03       		.uleb128 0x3
 261 004d 01       		.byte	0x1
 262 004e 06       		.byte	0x6
 263 004f 51060000 		.4byte	.LASF3
 264 0053 03       		.uleb128 0x3
 265 0054 01       		.byte	0x1
 266 0055 08       		.byte	0x8
 267 0056 C4050000 		.4byte	.LASF4
 268 005a 03       		.uleb128 0x3
 269 005b 02       		.byte	0x2
 270 005c 05       		.byte	0x5
 271 005d E3040000 		.4byte	.LASF5
 272 0061 03       		.uleb128 0x3
 273 0062 02       		.byte	0x2
 274 0063 07       		.byte	0x7
 275 0064 71060000 		.4byte	.LASF6
 276 0068 03       		.uleb128 0x3
 277 0069 04       		.byte	0x4
 278 006a 05       		.byte	0x5
 279 006b ED040000 		.4byte	.LASF7
 280 006f 02       		.uleb128 0x2
 281 0070 D2050000 		.4byte	.LASF9
 282 0074 03       		.byte	0x3
 283 0075 41       		.byte	0x41
 284 0076 7A000000 		.4byte	0x7a
 285 007a 03       		.uleb128 0x3
ARM GAS  /var/folders/6q/x_mk5n_j3p7_c40r_2k_78980000gn/T//ccOGSDdA.s 			page 6


 286 007b 04       		.byte	0x4
 287 007c 07       		.byte	0x7
 288 007d 88050000 		.4byte	.LASF10
 289 0081 03       		.uleb128 0x3
 290 0082 08       		.byte	0x8
 291 0083 07       		.byte	0x7
 292 0084 20010000 		.4byte	.LASF11
 293 0088 02       		.uleb128 0x2
 294 0089 79000000 		.4byte	.LASF12
 295 008d 04       		.byte	0x4
 296 008e 07       		.byte	0x7
 297 008f 37000000 		.4byte	0x37
 298 0093 02       		.uleb128 0x2
 299 0094 93060000 		.4byte	.LASF13
 300 0098 05       		.byte	0x5
 301 0099 1C       		.byte	0x1c
 302 009a 68000000 		.4byte	0x68
 303 009e 02       		.uleb128 0x2
 304 009f 18050000 		.4byte	.LASF14
 305 00a3 05       		.byte	0x5
 306 00a4 20       		.byte	0x20
 307 00a5 68000000 		.4byte	0x68
 308 00a9 02       		.uleb128 0x2
 309 00aa 9E060000 		.4byte	.LASF15
 310 00ae 05       		.byte	0x5
 311 00af 2C       		.byte	0x2c
 312 00b0 68000000 		.4byte	0x68
 313 00b4 02       		.uleb128 0x2
 314 00b5 01040000 		.4byte	.LASF16
 315 00b9 05       		.byte	0x5
 316 00ba 36       		.byte	0x36
 317 00bb 5A000000 		.4byte	0x5a
 318 00bf 02       		.uleb128 0x2
 319 00c0 33050000 		.4byte	.LASF17
 320 00c4 05       		.byte	0x5
 321 00c5 3A       		.byte	0x3a
 322 00c6 61000000 		.4byte	0x61
 323 00ca 02       		.uleb128 0x2
 324 00cb BD040000 		.4byte	.LASF18
 325 00cf 05       		.byte	0x5
 326 00d0 3D       		.byte	0x3d
 327 00d1 61000000 		.4byte	0x61
 328 00d5 02       		.uleb128 0x2
 329 00d6 C4000000 		.4byte	.LASF19
 330 00da 05       		.byte	0x5
 331 00db 49       		.byte	0x49
 332 00dc 61000000 		.4byte	0x61
 333 00e0 02       		.uleb128 0x2
 334 00e1 99010000 		.4byte	.LASF20
 335 00e5 05       		.byte	0x5
 336 00e6 58       		.byte	0x58
 337 00e7 6F000000 		.4byte	0x6f
 338 00eb 02       		.uleb128 0x2
 339 00ec 39060000 		.4byte	.LASF21
 340 00f0 05       		.byte	0x5
 341 00f1 64       		.byte	0x64
 342 00f2 A9000000 		.4byte	0xa9
ARM GAS  /var/folders/6q/x_mk5n_j3p7_c40r_2k_78980000gn/T//ccOGSDdA.s 			page 7


 343 00f6 02       		.uleb128 0x2
 344 00f7 A7000000 		.4byte	.LASF22
 345 00fb 05       		.byte	0x5
 346 00fc 72       		.byte	0x72
 347 00fd 68000000 		.4byte	0x68
 348 0101 05       		.uleb128 0x5
 349 0102 A1050000 		.4byte	.LASF23
 350 0106 02       		.byte	0x2
 351 0107 6501     		.2byte	0x165
 352 0109 30000000 		.4byte	0x30
 353 010d 06       		.uleb128 0x6
 354 010e 04       		.byte	0x4
 355 010f 05       		.byte	0x5
 356 0110 A6       		.byte	0xa6
 357 0111 2C010000 		.4byte	0x12c
 358 0115 07       		.uleb128 0x7
 359 0116 95030000 		.4byte	.LASF24
 360 011a 05       		.byte	0x5
 361 011b A8       		.byte	0xa8
 362 011c 01010000 		.4byte	0x101
 363 0120 07       		.uleb128 0x7
 364 0121 07050000 		.4byte	.LASF25
 365 0125 05       		.byte	0x5
 366 0126 A9       		.byte	0xa9
 367 0127 2C010000 		.4byte	0x12c
 368 012b 00       		.byte	0
 369 012c 08       		.uleb128 0x8
 370 012d 53000000 		.4byte	0x53
 371 0131 3C010000 		.4byte	0x13c
 372 0135 09       		.uleb128 0x9
 373 0136 3C010000 		.4byte	0x13c
 374 013a 03       		.byte	0x3
 375 013b 00       		.byte	0
 376 013c 03       		.uleb128 0x3
 377 013d 04       		.byte	0x4
 378 013e 07       		.byte	0x7
 379 013f 7F050000 		.4byte	.LASF26
 380 0143 0A       		.uleb128 0xa
 381 0144 08       		.byte	0x8
 382 0145 05       		.byte	0x5
 383 0146 A3       		.byte	0xa3
 384 0147 64010000 		.4byte	0x164
 385 014b 0B       		.uleb128 0xb
 386 014c F6000000 		.4byte	.LASF27
 387 0150 05       		.byte	0x5
 388 0151 A5       		.byte	0xa5
 389 0152 37000000 		.4byte	0x37
 390 0156 00       		.byte	0
 391 0157 0B       		.uleb128 0xb
 392 0158 FC010000 		.4byte	.LASF28
 393 015c 05       		.byte	0x5
 394 015d AA       		.byte	0xaa
 395 015e 0D010000 		.4byte	0x10d
 396 0162 04       		.byte	0x4
 397 0163 00       		.byte	0
 398 0164 02       		.uleb128 0x2
 399 0165 49040000 		.4byte	.LASF29
ARM GAS  /var/folders/6q/x_mk5n_j3p7_c40r_2k_78980000gn/T//ccOGSDdA.s 			page 8


 400 0169 05       		.byte	0x5
 401 016a AB       		.byte	0xab
 402 016b 43010000 		.4byte	0x143
 403 016f 02       		.uleb128 0x2
 404 0170 7E030000 		.4byte	.LASF30
 405 0174 05       		.byte	0x5
 406 0175 AF       		.byte	0xaf
 407 0176 88000000 		.4byte	0x88
 408 017a 0C       		.uleb128 0xc
 409 017b 04       		.byte	0x4
 410 017c 02       		.uleb128 0x2
 411 017d 6F000000 		.4byte	.LASF31
 412 0181 05       		.byte	0x5
 413 0182 CB       		.byte	0xcb
 414 0183 61000000 		.4byte	0x61
 415 0187 0D       		.uleb128 0xd
 416 0188 04       		.byte	0x4
 417 0189 8D010000 		.4byte	0x18d
 418 018d 03       		.uleb128 0x3
 419 018e 01       		.byte	0x1
 420 018f 08       		.byte	0x8
 421 0190 48020000 		.4byte	.LASF32
 422 0194 02       		.uleb128 0x2
 423 0195 0F040000 		.4byte	.LASF33
 424 0199 06       		.byte	0x6
 425 019a 16       		.byte	0x16
 426 019b 7A000000 		.4byte	0x7a
 427 019f 0E       		.uleb128 0xe
 428 01a0 BC000000 		.4byte	.LASF38
 429 01a4 18       		.byte	0x18
 430 01a5 06       		.byte	0x6
 431 01a6 2F       		.byte	0x2f
 432 01a7 F2010000 		.4byte	0x1f2
 433 01ab 0B       		.uleb128 0xb
 434 01ac C6010000 		.4byte	.LASF34
 435 01b0 06       		.byte	0x6
 436 01b1 31       		.byte	0x31
 437 01b2 F2010000 		.4byte	0x1f2
 438 01b6 00       		.byte	0
 439 01b7 0F       		.uleb128 0xf
 440 01b8 5F6B00   		.ascii	"_k\000"
 441 01bb 06       		.byte	0x6
 442 01bc 32       		.byte	0x32
 443 01bd 37000000 		.4byte	0x37
 444 01c1 04       		.byte	0x4
 445 01c2 0B       		.uleb128 0xb
 446 01c3 51050000 		.4byte	.LASF35
 447 01c7 06       		.byte	0x6
 448 01c8 32       		.byte	0x32
 449 01c9 37000000 		.4byte	0x37
 450 01cd 08       		.byte	0x8
 451 01ce 0B       		.uleb128 0xb
 452 01cf FB040000 		.4byte	.LASF36
 453 01d3 06       		.byte	0x6
 454 01d4 32       		.byte	0x32
 455 01d5 37000000 		.4byte	0x37
 456 01d9 0C       		.byte	0xc
ARM GAS  /var/folders/6q/x_mk5n_j3p7_c40r_2k_78980000gn/T//ccOGSDdA.s 			page 9


 457 01da 0B       		.uleb128 0xb
 458 01db 56010000 		.4byte	.LASF37
 459 01df 06       		.byte	0x6
 460 01e0 32       		.byte	0x32
 461 01e1 37000000 		.4byte	0x37
 462 01e5 10       		.byte	0x10
 463 01e6 0F       		.uleb128 0xf
 464 01e7 5F7800   		.ascii	"_x\000"
 465 01ea 06       		.byte	0x6
 466 01eb 33       		.byte	0x33
 467 01ec F8010000 		.4byte	0x1f8
 468 01f0 14       		.byte	0x14
 469 01f1 00       		.byte	0
 470 01f2 0D       		.uleb128 0xd
 471 01f3 04       		.byte	0x4
 472 01f4 9F010000 		.4byte	0x19f
 473 01f8 08       		.uleb128 0x8
 474 01f9 94010000 		.4byte	0x194
 475 01fd 08020000 		.4byte	0x208
 476 0201 09       		.uleb128 0x9
 477 0202 3C010000 		.4byte	0x13c
 478 0206 00       		.byte	0
 479 0207 00       		.byte	0
 480 0208 0E       		.uleb128 0xe
 481 0209 74050000 		.4byte	.LASF39
 482 020d 24       		.byte	0x24
 483 020e 06       		.byte	0x6
 484 020f 37       		.byte	0x37
 485 0210 81020000 		.4byte	0x281
 486 0214 0B       		.uleb128 0xb
 487 0215 A2010000 		.4byte	.LASF40
 488 0219 06       		.byte	0x6
 489 021a 39       		.byte	0x39
 490 021b 37000000 		.4byte	0x37
 491 021f 00       		.byte	0
 492 0220 0B       		.uleb128 0xb
 493 0221 FE000000 		.4byte	.LASF41
 494 0225 06       		.byte	0x6
 495 0226 3A       		.byte	0x3a
 496 0227 37000000 		.4byte	0x37
 497 022b 04       		.byte	0x4
 498 022c 0B       		.uleb128 0xb
 499 022d E4000000 		.4byte	.LASF42
 500 0231 06       		.byte	0x6
 501 0232 3B       		.byte	0x3b
 502 0233 37000000 		.4byte	0x37
 503 0237 08       		.byte	0x8
 504 0238 0B       		.uleb128 0xb
 505 0239 56020000 		.4byte	.LASF43
 506 023d 06       		.byte	0x6
 507 023e 3C       		.byte	0x3c
 508 023f 37000000 		.4byte	0x37
 509 0243 0C       		.byte	0xc
 510 0244 0B       		.uleb128 0xb
 511 0245 9F040000 		.4byte	.LASF44
 512 0249 06       		.byte	0x6
 513 024a 3D       		.byte	0x3d
ARM GAS  /var/folders/6q/x_mk5n_j3p7_c40r_2k_78980000gn/T//ccOGSDdA.s 			page 10


 514 024b 37000000 		.4byte	0x37
 515 024f 10       		.byte	0x10
 516 0250 0B       		.uleb128 0xb
 517 0251 0E050000 		.4byte	.LASF45
 518 0255 06       		.byte	0x6
 519 0256 3E       		.byte	0x3e
 520 0257 37000000 		.4byte	0x37
 521 025b 14       		.byte	0x14
 522 025c 0B       		.uleb128 0xb
 523 025d CC000000 		.4byte	.LASF46
 524 0261 06       		.byte	0x6
 525 0262 3F       		.byte	0x3f
 526 0263 37000000 		.4byte	0x37
 527 0267 18       		.byte	0x18
 528 0268 0B       		.uleb128 0xb
 529 0269 AB010000 		.4byte	.LASF47
 530 026d 06       		.byte	0x6
 531 026e 40       		.byte	0x40
 532 026f 37000000 		.4byte	0x37
 533 0273 1C       		.byte	0x1c
 534 0274 0B       		.uleb128 0xb
 535 0275 54040000 		.4byte	.LASF48
 536 0279 06       		.byte	0x6
 537 027a 41       		.byte	0x41
 538 027b 37000000 		.4byte	0x37
 539 027f 20       		.byte	0x20
 540 0280 00       		.byte	0
 541 0281 10       		.uleb128 0x10
 542 0282 00000000 		.4byte	.LASF49
 543 0286 0801     		.2byte	0x108
 544 0288 06       		.byte	0x6
 545 0289 4A       		.byte	0x4a
 546 028a C1020000 		.4byte	0x2c1
 547 028e 0B       		.uleb128 0xb
 548 028f 49060000 		.4byte	.LASF50
 549 0293 06       		.byte	0x6
 550 0294 4B       		.byte	0x4b
 551 0295 C1020000 		.4byte	0x2c1
 552 0299 00       		.byte	0
 553 029a 0B       		.uleb128 0xb
 554 029b A8050000 		.4byte	.LASF51
 555 029f 06       		.byte	0x6
 556 02a0 4C       		.byte	0x4c
 557 02a1 C1020000 		.4byte	0x2c1
 558 02a5 80       		.byte	0x80
 559 02a6 11       		.uleb128 0x11
 560 02a7 84060000 		.4byte	.LASF52
 561 02ab 06       		.byte	0x6
 562 02ac 4E       		.byte	0x4e
 563 02ad 94010000 		.4byte	0x194
 564 02b1 0001     		.2byte	0x100
 565 02b3 11       		.uleb128 0x11
 566 02b4 E8060000 		.4byte	.LASF53
 567 02b8 06       		.byte	0x6
 568 02b9 51       		.byte	0x51
 569 02ba 94010000 		.4byte	0x194
 570 02be 0401     		.2byte	0x104
ARM GAS  /var/folders/6q/x_mk5n_j3p7_c40r_2k_78980000gn/T//ccOGSDdA.s 			page 11


 571 02c0 00       		.byte	0
 572 02c1 08       		.uleb128 0x8
 573 02c2 7A010000 		.4byte	0x17a
 574 02c6 D1020000 		.4byte	0x2d1
 575 02ca 09       		.uleb128 0x9
 576 02cb 3C010000 		.4byte	0x13c
 577 02cf 1F       		.byte	0x1f
 578 02d0 00       		.byte	0
 579 02d1 10       		.uleb128 0x10
 580 02d2 D2040000 		.4byte	.LASF54
 581 02d6 9001     		.2byte	0x190
 582 02d8 06       		.byte	0x6
 583 02d9 5D       		.byte	0x5d
 584 02da 0F030000 		.4byte	0x30f
 585 02de 0B       		.uleb128 0xb
 586 02df C6010000 		.4byte	.LASF34
 587 02e3 06       		.byte	0x6
 588 02e4 5E       		.byte	0x5e
 589 02e5 0F030000 		.4byte	0x30f
 590 02e9 00       		.byte	0
 591 02ea 0B       		.uleb128 0xb
 592 02eb BA010000 		.4byte	.LASF55
 593 02ef 06       		.byte	0x6
 594 02f0 5F       		.byte	0x5f
 595 02f1 37000000 		.4byte	0x37
 596 02f5 04       		.byte	0x4
 597 02f6 0B       		.uleb128 0xb
 598 02f7 AF000000 		.4byte	.LASF56
 599 02fb 06       		.byte	0x6
 600 02fc 61       		.byte	0x61
 601 02fd 15030000 		.4byte	0x315
 602 0301 08       		.byte	0x8
 603 0302 0B       		.uleb128 0xb
 604 0303 00000000 		.4byte	.LASF49
 605 0307 06       		.byte	0x6
 606 0308 62       		.byte	0x62
 607 0309 81020000 		.4byte	0x281
 608 030d 88       		.byte	0x88
 609 030e 00       		.byte	0
 610 030f 0D       		.uleb128 0xd
 611 0310 04       		.byte	0x4
 612 0311 D1020000 		.4byte	0x2d1
 613 0315 08       		.uleb128 0x8
 614 0316 25030000 		.4byte	0x325
 615 031a 25030000 		.4byte	0x325
 616 031e 09       		.uleb128 0x9
 617 031f 3C010000 		.4byte	0x13c
 618 0323 1F       		.byte	0x1f
 619 0324 00       		.byte	0
 620 0325 0D       		.uleb128 0xd
 621 0326 04       		.byte	0x4
 622 0327 2B030000 		.4byte	0x32b
 623 032b 12       		.uleb128 0x12
 624 032c 0E       		.uleb128 0xe
 625 032d 01060000 		.4byte	.LASF57
 626 0331 08       		.byte	0x8
 627 0332 06       		.byte	0x6
ARM GAS  /var/folders/6q/x_mk5n_j3p7_c40r_2k_78980000gn/T//ccOGSDdA.s 			page 12


 628 0333 75       		.byte	0x75
 629 0334 51030000 		.4byte	0x351
 630 0338 0B       		.uleb128 0xb
 631 0339 F1030000 		.4byte	.LASF58
 632 033d 06       		.byte	0x6
 633 033e 76       		.byte	0x76
 634 033f 51030000 		.4byte	0x351
 635 0343 00       		.byte	0
 636 0344 0B       		.uleb128 0xb
 637 0345 8D060000 		.4byte	.LASF59
 638 0349 06       		.byte	0x6
 639 034a 77       		.byte	0x77
 640 034b 37000000 		.4byte	0x37
 641 034f 04       		.byte	0x4
 642 0350 00       		.byte	0
 643 0351 0D       		.uleb128 0xd
 644 0352 04       		.byte	0x4
 645 0353 53000000 		.4byte	0x53
 646 0357 0E       		.uleb128 0xe
 647 0358 4E010000 		.4byte	.LASF60
 648 035c 68       		.byte	0x68
 649 035d 06       		.byte	0x6
 650 035e B5       		.byte	0xb5
 651 035f 81040000 		.4byte	0x481
 652 0363 0F       		.uleb128 0xf
 653 0364 5F7000   		.ascii	"_p\000"
 654 0367 06       		.byte	0x6
 655 0368 B6       		.byte	0xb6
 656 0369 51030000 		.4byte	0x351
 657 036d 00       		.byte	0
 658 036e 0F       		.uleb128 0xf
 659 036f 5F7200   		.ascii	"_r\000"
 660 0372 06       		.byte	0x6
 661 0373 B7       		.byte	0xb7
 662 0374 37000000 		.4byte	0x37
 663 0378 04       		.byte	0x4
 664 0379 0F       		.uleb128 0xf
 665 037a 5F7700   		.ascii	"_w\000"
 666 037d 06       		.byte	0x6
 667 037e B8       		.byte	0xb8
 668 037f 37000000 		.4byte	0x37
 669 0383 08       		.byte	0x8
 670 0384 0B       		.uleb128 0xb
 671 0385 61000000 		.4byte	.LASF61
 672 0389 06       		.byte	0x6
 673 038a B9       		.byte	0xb9
 674 038b 5A000000 		.4byte	0x5a
 675 038f 0C       		.byte	0xc
 676 0390 0B       		.uleb128 0xb
 677 0391 32040000 		.4byte	.LASF62
 678 0395 06       		.byte	0x6
 679 0396 BA       		.byte	0xba
 680 0397 5A000000 		.4byte	0x5a
 681 039b 0E       		.byte	0xe
 682 039c 0F       		.uleb128 0xf
 683 039d 5F626600 		.ascii	"_bf\000"
 684 03a1 06       		.byte	0x6
ARM GAS  /var/folders/6q/x_mk5n_j3p7_c40r_2k_78980000gn/T//ccOGSDdA.s 			page 13


 685 03a2 BB       		.byte	0xbb
 686 03a3 2C030000 		.4byte	0x32c
 687 03a7 10       		.byte	0x10
 688 03a8 0B       		.uleb128 0xb
 689 03a9 58000000 		.4byte	.LASF63
 690 03ad 06       		.byte	0x6
 691 03ae BC       		.byte	0xbc
 692 03af 37000000 		.4byte	0x37
 693 03b3 18       		.byte	0x18
 694 03b4 0B       		.uleb128 0xb
 695 03b5 B4000000 		.4byte	.LASF64
 696 03b9 06       		.byte	0x6
 697 03ba C3       		.byte	0xc3
 698 03bb 7A010000 		.4byte	0x17a
 699 03bf 1C       		.byte	0x1c
 700 03c0 0B       		.uleb128 0xb
 701 03c1 8B000000 		.4byte	.LASF65
 702 03c5 06       		.byte	0x6
 703 03c6 C5       		.byte	0xc5
 704 03c7 D7050000 		.4byte	0x5d7
 705 03cb 20       		.byte	0x20
 706 03cc 0B       		.uleb128 0xb
 707 03cd C5040000 		.4byte	.LASF66
 708 03d1 06       		.byte	0x6
 709 03d2 C7       		.byte	0xc7
 710 03d3 06060000 		.4byte	0x606
 711 03d7 24       		.byte	0x24
 712 03d8 0B       		.uleb128 0xb
 713 03d9 0C070000 		.4byte	.LASF67
 714 03dd 06       		.byte	0x6
 715 03de CA       		.byte	0xca
 716 03df 2A060000 		.4byte	0x62a
 717 03e3 28       		.byte	0x28
 718 03e4 0B       		.uleb128 0xb
 719 03e5 A8030000 		.4byte	.LASF68
 720 03e9 06       		.byte	0x6
 721 03ea CB       		.byte	0xcb
 722 03eb 44060000 		.4byte	0x644
 723 03ef 2C       		.byte	0x2c
 724 03f0 0F       		.uleb128 0xf
 725 03f1 5F756200 		.ascii	"_ub\000"
 726 03f5 06       		.byte	0x6
 727 03f6 CE       		.byte	0xce
 728 03f7 2C030000 		.4byte	0x32c
 729 03fb 30       		.byte	0x30
 730 03fc 0F       		.uleb128 0xf
 731 03fd 5F757000 		.ascii	"_up\000"
 732 0401 06       		.byte	0x6
 733 0402 CF       		.byte	0xcf
 734 0403 51030000 		.4byte	0x351
 735 0407 38       		.byte	0x38
 736 0408 0F       		.uleb128 0xf
 737 0409 5F757200 		.ascii	"_ur\000"
 738 040d 06       		.byte	0x6
 739 040e D0       		.byte	0xd0
 740 040f 37000000 		.4byte	0x37
 741 0413 3C       		.byte	0x3c
ARM GAS  /var/folders/6q/x_mk5n_j3p7_c40r_2k_78980000gn/T//ccOGSDdA.s 			page 14


 742 0414 0B       		.uleb128 0xb
 743 0415 23070000 		.4byte	.LASF69
 744 0419 06       		.byte	0x6
 745 041a D3       		.byte	0xd3
 746 041b 4A060000 		.4byte	0x64a
 747 041f 40       		.byte	0x40
 748 0420 0B       		.uleb128 0xb
 749 0421 A5060000 		.4byte	.LASF70
 750 0425 06       		.byte	0x6
 751 0426 D4       		.byte	0xd4
 752 0427 5A060000 		.4byte	0x65a
 753 042b 43       		.byte	0x43
 754 042c 0F       		.uleb128 0xf
 755 042d 5F6C6200 		.ascii	"_lb\000"
 756 0431 06       		.byte	0x6
 757 0432 D7       		.byte	0xd7
 758 0433 2C030000 		.4byte	0x32c
 759 0437 44       		.byte	0x44
 760 0438 0B       		.uleb128 0xb
 761 0439 6B050000 		.4byte	.LASF71
 762 043d 06       		.byte	0x6
 763 043e DA       		.byte	0xda
 764 043f 37000000 		.4byte	0x37
 765 0443 4C       		.byte	0x4c
 766 0444 0B       		.uleb128 0xb
 767 0445 73010000 		.4byte	.LASF72
 768 0449 06       		.byte	0x6
 769 044a DB       		.byte	0xdb
 770 044b A9000000 		.4byte	0xa9
 771 044f 50       		.byte	0x50
 772 0450 0B       		.uleb128 0xb
 773 0451 01050000 		.4byte	.LASF73
 774 0455 06       		.byte	0x6
 775 0456 DE       		.byte	0xde
 776 0457 9F040000 		.4byte	0x49f
 777 045b 54       		.byte	0x54
 778 045c 0B       		.uleb128 0xb
 779 045d 79050000 		.4byte	.LASF74
 780 0461 06       		.byte	0x6
 781 0462 E2       		.byte	0xe2
 782 0463 6F010000 		.4byte	0x16f
 783 0467 58       		.byte	0x58
 784 0468 0B       		.uleb128 0xb
 785 0469 DA040000 		.4byte	.LASF75
 786 046d 06       		.byte	0x6
 787 046e E4       		.byte	0xe4
 788 046f 64010000 		.4byte	0x164
 789 0473 5C       		.byte	0x5c
 790 0474 0B       		.uleb128 0xb
 791 0475 E0060000 		.4byte	.LASF76
 792 0479 06       		.byte	0x6
 793 047a E5       		.byte	0xe5
 794 047b 37000000 		.4byte	0x37
 795 047f 64       		.byte	0x64
 796 0480 00       		.byte	0
 797 0481 13       		.uleb128 0x13
 798 0482 37000000 		.4byte	0x37
ARM GAS  /var/folders/6q/x_mk5n_j3p7_c40r_2k_78980000gn/T//ccOGSDdA.s 			page 15


 799 0486 9F040000 		.4byte	0x49f
 800 048a 14       		.uleb128 0x14
 801 048b 9F040000 		.4byte	0x49f
 802 048f 14       		.uleb128 0x14
 803 0490 7A010000 		.4byte	0x17a
 804 0494 14       		.uleb128 0x14
 805 0495 87010000 		.4byte	0x187
 806 0499 14       		.uleb128 0x14
 807 049a 37000000 		.4byte	0x37
 808 049e 00       		.byte	0
 809 049f 0D       		.uleb128 0xd
 810 04a0 04       		.byte	0x4
 811 04a1 A5040000 		.4byte	0x4a5
 812 04a5 15       		.uleb128 0x15
 813 04a6 64060000 		.4byte	.LASF77
 814 04aa 2804     		.2byte	0x428
 815 04ac 06       		.byte	0x6
 816 04ad 3902     		.2byte	0x239
 817 04af D7050000 		.4byte	0x5d7
 818 04b3 16       		.uleb128 0x16
 819 04b4 68000000 		.4byte	.LASF78
 820 04b8 06       		.byte	0x6
 821 04b9 3B02     		.2byte	0x23b
 822 04bb 37000000 		.4byte	0x37
 823 04bf 00       		.byte	0
 824 04c0 16       		.uleb128 0x16
 825 04c1 C1030000 		.4byte	.LASF79
 826 04c5 06       		.byte	0x6
 827 04c6 4002     		.2byte	0x240
 828 04c8 B1060000 		.4byte	0x6b1
 829 04cc 04       		.byte	0x4
 830 04cd 16       		.uleb128 0x16
 831 04ce 9F000000 		.4byte	.LASF80
 832 04d2 06       		.byte	0x6
 833 04d3 4002     		.2byte	0x240
 834 04d5 B1060000 		.4byte	0x6b1
 835 04d9 08       		.byte	0x8
 836 04da 16       		.uleb128 0x16
 837 04db 12070000 		.4byte	.LASF81
 838 04df 06       		.byte	0x6
 839 04e0 4002     		.2byte	0x240
 840 04e2 B1060000 		.4byte	0x6b1
 841 04e6 0C       		.byte	0xc
 842 04e7 16       		.uleb128 0x16
 843 04e8 B5010000 		.4byte	.LASF82
 844 04ec 06       		.byte	0x6
 845 04ed 4202     		.2byte	0x242
 846 04ef 37000000 		.4byte	0x37
 847 04f3 10       		.byte	0x10
 848 04f4 16       		.uleb128 0x16
 849 04f5 80010000 		.4byte	.LASF83
 850 04f9 06       		.byte	0x6
 851 04fa 4302     		.2byte	0x243
 852 04fc 93080000 		.4byte	0x893
 853 0500 14       		.byte	0x14
 854 0501 16       		.uleb128 0x16
 855 0502 C7060000 		.4byte	.LASF84
ARM GAS  /var/folders/6q/x_mk5n_j3p7_c40r_2k_78980000gn/T//ccOGSDdA.s 			page 16


 856 0506 06       		.byte	0x6
 857 0507 4602     		.2byte	0x246
 858 0509 37000000 		.4byte	0x37
 859 050d 30       		.byte	0x30
 860 050e 16       		.uleb128 0x16
 861 050f 41060000 		.4byte	.LASF85
 862 0513 06       		.byte	0x6
 863 0514 4702     		.2byte	0x247
 864 0516 A8080000 		.4byte	0x8a8
 865 051a 34       		.byte	0x34
 866 051b 16       		.uleb128 0x16
 867 051c AF030000 		.4byte	.LASF86
 868 0520 06       		.byte	0x6
 869 0521 4902     		.2byte	0x249
 870 0523 37000000 		.4byte	0x37
 871 0527 38       		.byte	0x38
 872 0528 16       		.uleb128 0x16
 873 0529 3F040000 		.4byte	.LASF87
 874 052d 06       		.byte	0x6
 875 052e 4B02     		.2byte	0x24b
 876 0530 B9080000 		.4byte	0x8b9
 877 0534 3C       		.byte	0x3c
 878 0535 16       		.uleb128 0x16
 879 0536 D6000000 		.4byte	.LASF88
 880 053a 06       		.byte	0x6
 881 053b 4E02     		.2byte	0x24e
 882 053d F2010000 		.4byte	0x1f2
 883 0541 40       		.byte	0x40
 884 0542 16       		.uleb128 0x16
 885 0543 16010000 		.4byte	.LASF89
 886 0547 06       		.byte	0x6
 887 0548 4F02     		.2byte	0x24f
 888 054a 37000000 		.4byte	0x37
 889 054e 44       		.byte	0x44
 890 054f 16       		.uleb128 0x16
 891 0550 04020000 		.4byte	.LASF90
 892 0554 06       		.byte	0x6
 893 0555 5002     		.2byte	0x250
 894 0557 F2010000 		.4byte	0x1f2
 895 055b 48       		.byte	0x48
 896 055c 16       		.uleb128 0x16
 897 055d F7030000 		.4byte	.LASF91
 898 0561 06       		.byte	0x6
 899 0562 5102     		.2byte	0x251
 900 0564 BF080000 		.4byte	0x8bf
 901 0568 4C       		.byte	0x4c
 902 0569 16       		.uleb128 0x16
 903 056a 49050000 		.4byte	.LASF92
 904 056e 06       		.byte	0x6
 905 056f 5402     		.2byte	0x254
 906 0571 37000000 		.4byte	0x37
 907 0575 50       		.byte	0x50
 908 0576 16       		.uleb128 0x16
 909 0577 BC050000 		.4byte	.LASF93
 910 057b 06       		.byte	0x6
 911 057c 5502     		.2byte	0x255
 912 057e 87010000 		.4byte	0x187
ARM GAS  /var/folders/6q/x_mk5n_j3p7_c40r_2k_78980000gn/T//ccOGSDdA.s 			page 17


 913 0582 54       		.byte	0x54
 914 0583 16       		.uleb128 0x16
 915 0584 44050000 		.4byte	.LASF94
 916 0588 06       		.byte	0x6
 917 0589 7802     		.2byte	0x278
 918 058b 71080000 		.4byte	0x871
 919 058f 58       		.byte	0x58
 920 0590 17       		.uleb128 0x17
 921 0591 D2040000 		.4byte	.LASF54
 922 0595 06       		.byte	0x6
 923 0596 7C02     		.2byte	0x27c
 924 0598 0F030000 		.4byte	0x30f
 925 059c 4801     		.2byte	0x148
 926 059e 17       		.uleb128 0x17
 927 059f 79020000 		.4byte	.LASF95
 928 05a3 06       		.byte	0x6
 929 05a4 7D02     		.2byte	0x27d
 930 05a6 D1020000 		.4byte	0x2d1
 931 05aa 4C01     		.2byte	0x14c
 932 05ac 17       		.uleb128 0x17
 933 05ad 60020000 		.4byte	.LASF96
 934 05b1 06       		.byte	0x6
 935 05b2 8102     		.2byte	0x281
 936 05b4 D0080000 		.4byte	0x8d0
 937 05b8 DC02     		.2byte	0x2dc
 938 05ba 17       		.uleb128 0x17
 939 05bb 16060000 		.4byte	.LASF97
 940 05bf 06       		.byte	0x6
 941 05c0 8602     		.2byte	0x286
 942 05c2 76060000 		.4byte	0x676
 943 05c6 E002     		.2byte	0x2e0
 944 05c8 17       		.uleb128 0x17
 945 05c9 F6040000 		.4byte	.LASF98
 946 05cd 06       		.byte	0x6
 947 05ce 8702     		.2byte	0x287
 948 05d0 DC080000 		.4byte	0x8dc
 949 05d4 EC02     		.2byte	0x2ec
 950 05d6 00       		.byte	0
 951 05d7 0D       		.uleb128 0xd
 952 05d8 04       		.byte	0x4
 953 05d9 81040000 		.4byte	0x481
 954 05dd 13       		.uleb128 0x13
 955 05de 37000000 		.4byte	0x37
 956 05e2 FB050000 		.4byte	0x5fb
 957 05e6 14       		.uleb128 0x14
 958 05e7 9F040000 		.4byte	0x49f
 959 05eb 14       		.uleb128 0x14
 960 05ec 7A010000 		.4byte	0x17a
 961 05f0 14       		.uleb128 0x14
 962 05f1 FB050000 		.4byte	0x5fb
 963 05f5 14       		.uleb128 0x14
 964 05f6 37000000 		.4byte	0x37
 965 05fa 00       		.byte	0
 966 05fb 0D       		.uleb128 0xd
 967 05fc 04       		.byte	0x4
 968 05fd 01060000 		.4byte	0x601
 969 0601 18       		.uleb128 0x18
ARM GAS  /var/folders/6q/x_mk5n_j3p7_c40r_2k_78980000gn/T//ccOGSDdA.s 			page 18


 970 0602 8D010000 		.4byte	0x18d
 971 0606 0D       		.uleb128 0xd
 972 0607 04       		.byte	0x4
 973 0608 DD050000 		.4byte	0x5dd
 974 060c 13       		.uleb128 0x13
 975 060d F6000000 		.4byte	0xf6
 976 0611 2A060000 		.4byte	0x62a
 977 0615 14       		.uleb128 0x14
 978 0616 9F040000 		.4byte	0x49f
 979 061a 14       		.uleb128 0x14
 980 061b 7A010000 		.4byte	0x17a
 981 061f 14       		.uleb128 0x14
 982 0620 F6000000 		.4byte	0xf6
 983 0624 14       		.uleb128 0x14
 984 0625 37000000 		.4byte	0x37
 985 0629 00       		.byte	0
 986 062a 0D       		.uleb128 0xd
 987 062b 04       		.byte	0x4
 988 062c 0C060000 		.4byte	0x60c
 989 0630 13       		.uleb128 0x13
 990 0631 37000000 		.4byte	0x37
 991 0635 44060000 		.4byte	0x644
 992 0639 14       		.uleb128 0x14
 993 063a 9F040000 		.4byte	0x49f
 994 063e 14       		.uleb128 0x14
 995 063f 7A010000 		.4byte	0x17a
 996 0643 00       		.byte	0
 997 0644 0D       		.uleb128 0xd
 998 0645 04       		.byte	0x4
 999 0646 30060000 		.4byte	0x630
 1000 064a 08       		.uleb128 0x8
 1001 064b 53000000 		.4byte	0x53
 1002 064f 5A060000 		.4byte	0x65a
 1003 0653 09       		.uleb128 0x9
 1004 0654 3C010000 		.4byte	0x13c
 1005 0658 02       		.byte	0x2
 1006 0659 00       		.byte	0
 1007 065a 08       		.uleb128 0x8
 1008 065b 53000000 		.4byte	0x53
 1009 065f 6A060000 		.4byte	0x66a
 1010 0663 09       		.uleb128 0x9
 1011 0664 3C010000 		.4byte	0x13c
 1012 0668 00       		.byte	0
 1013 0669 00       		.byte	0
 1014 066a 05       		.uleb128 0x5
 1015 066b 6C010000 		.4byte	.LASF99
 1016 066f 06       		.byte	0x6
 1017 0670 1F01     		.2byte	0x11f
 1018 0672 57030000 		.4byte	0x357
 1019 0676 19       		.uleb128 0x19
 1020 0677 10060000 		.4byte	.LASF100
 1021 067b 0C       		.byte	0xc
 1022 067c 06       		.byte	0x6
 1023 067d 2301     		.2byte	0x123
 1024 067f AB060000 		.4byte	0x6ab
 1025 0683 16       		.uleb128 0x16
 1026 0684 C6010000 		.4byte	.LASF34
ARM GAS  /var/folders/6q/x_mk5n_j3p7_c40r_2k_78980000gn/T//ccOGSDdA.s 			page 19


 1027 0688 06       		.byte	0x6
 1028 0689 2501     		.2byte	0x125
 1029 068b AB060000 		.4byte	0x6ab
 1030 068f 00       		.byte	0
 1031 0690 16       		.uleb128 0x16
 1032 0691 9A050000 		.4byte	.LASF101
 1033 0695 06       		.byte	0x6
 1034 0696 2601     		.2byte	0x126
 1035 0698 37000000 		.4byte	0x37
 1036 069c 04       		.byte	0x4
 1037 069d 16       		.uleb128 0x16
 1038 069e 9B030000 		.4byte	.LASF102
 1039 06a2 06       		.byte	0x6
 1040 06a3 2701     		.2byte	0x127
 1041 06a5 B1060000 		.4byte	0x6b1
 1042 06a9 08       		.byte	0x8
 1043 06aa 00       		.byte	0
 1044 06ab 0D       		.uleb128 0xd
 1045 06ac 04       		.byte	0x4
 1046 06ad 76060000 		.4byte	0x676
 1047 06b1 0D       		.uleb128 0xd
 1048 06b2 04       		.byte	0x4
 1049 06b3 6A060000 		.4byte	0x66a
 1050 06b7 19       		.uleb128 0x19
 1051 06b8 0E010000 		.4byte	.LASF103
 1052 06bc 0E       		.byte	0xe
 1053 06bd 06       		.byte	0x6
 1054 06be 3F01     		.2byte	0x13f
 1055 06c0 EC060000 		.4byte	0x6ec
 1056 06c4 16       		.uleb128 0x16
 1057 06c5 F0060000 		.4byte	.LASF104
 1058 06c9 06       		.byte	0x6
 1059 06ca 4001     		.2byte	0x140
 1060 06cc EC060000 		.4byte	0x6ec
 1061 06d0 00       		.byte	0
 1062 06d1 16       		.uleb128 0x16
 1063 06d2 09040000 		.4byte	.LASF105
 1064 06d6 06       		.byte	0x6
 1065 06d7 4101     		.2byte	0x141
 1066 06d9 EC060000 		.4byte	0x6ec
 1067 06dd 06       		.byte	0x6
 1068 06de 16       		.uleb128 0x16
 1069 06df EA050000 		.4byte	.LASF106
 1070 06e3 06       		.byte	0x6
 1071 06e4 4201     		.2byte	0x142
 1072 06e6 61000000 		.4byte	0x61
 1073 06ea 0C       		.byte	0xc
 1074 06eb 00       		.byte	0
 1075 06ec 08       		.uleb128 0x8
 1076 06ed 61000000 		.4byte	0x61
 1077 06f1 FC060000 		.4byte	0x6fc
 1078 06f5 09       		.uleb128 0x9
 1079 06f6 3C010000 		.4byte	0x13c
 1080 06fa 02       		.byte	0x2
 1081 06fb 00       		.byte	0
 1082 06fc 1A       		.uleb128 0x1a
 1083 06fd D0       		.byte	0xd0
ARM GAS  /var/folders/6q/x_mk5n_j3p7_c40r_2k_78980000gn/T//ccOGSDdA.s 			page 20


 1084 06fe 06       		.byte	0x6
 1085 06ff 5902     		.2byte	0x259
 1086 0701 FD070000 		.4byte	0x7fd
 1087 0705 16       		.uleb128 0x16
 1088 0706 AB060000 		.4byte	.LASF107
 1089 070a 06       		.byte	0x6
 1090 070b 5B02     		.2byte	0x25b
 1091 070d 30000000 		.4byte	0x30
 1092 0711 00       		.byte	0
 1093 0712 16       		.uleb128 0x16
 1094 0713 1E060000 		.4byte	.LASF108
 1095 0717 06       		.byte	0x6
 1096 0718 5C02     		.2byte	0x25c
 1097 071a 87010000 		.4byte	0x187
 1098 071e 04       		.byte	0x4
 1099 071f 16       		.uleb128 0x16
 1100 0720 41010000 		.4byte	.LASF109
 1101 0724 06       		.byte	0x6
 1102 0725 5D02     		.2byte	0x25d
 1103 0727 FD070000 		.4byte	0x7fd
 1104 072b 08       		.byte	0x8
 1105 072c 16       		.uleb128 0x16
 1106 072d 24050000 		.4byte	.LASF110
 1107 0731 06       		.byte	0x6
 1108 0732 5E02     		.2byte	0x25e
 1109 0734 08020000 		.4byte	0x208
 1110 0738 24       		.byte	0x24
 1111 0739 16       		.uleb128 0x16
 1112 073a C8030000 		.4byte	.LASF111
 1113 073e 06       		.byte	0x6
 1114 073f 5F02     		.2byte	0x25f
 1115 0741 37000000 		.4byte	0x37
 1116 0745 48       		.byte	0x48
 1117 0746 16       		.uleb128 0x16
 1118 0747 F6060000 		.4byte	.LASF112
 1119 074b 06       		.byte	0x6
 1120 074c 6002     		.2byte	0x260
 1121 074e 81000000 		.4byte	0x81
 1122 0752 50       		.byte	0x50
 1123 0753 16       		.uleb128 0x16
 1124 0754 26000000 		.4byte	.LASF113
 1125 0758 06       		.byte	0x6
 1126 0759 6102     		.2byte	0x261
 1127 075b B7060000 		.4byte	0x6b7
 1128 075f 58       		.byte	0x58
 1129 0760 16       		.uleb128 0x16
 1130 0761 3B020000 		.4byte	.LASF114
 1131 0765 06       		.byte	0x6
 1132 0766 6202     		.2byte	0x262
 1133 0768 64010000 		.4byte	0x164
 1134 076c 68       		.byte	0x68
 1135 076d 16       		.uleb128 0x16
 1136 076e 2B060000 		.4byte	.LASF115
 1137 0772 06       		.byte	0x6
 1138 0773 6302     		.2byte	0x263
 1139 0775 64010000 		.4byte	0x164
 1140 0779 70       		.byte	0x70
ARM GAS  /var/folders/6q/x_mk5n_j3p7_c40r_2k_78980000gn/T//ccOGSDdA.s 			page 21


 1141 077a 16       		.uleb128 0x16
 1142 077b 0E000000 		.4byte	.LASF116
 1143 077f 06       		.byte	0x6
 1144 0780 6402     		.2byte	0x264
 1145 0782 64010000 		.4byte	0x164
 1146 0786 78       		.byte	0x78
 1147 0787 16       		.uleb128 0x16
 1148 0788 59050000 		.4byte	.LASF117
 1149 078c 06       		.byte	0x6
 1150 078d 6502     		.2byte	0x265
 1151 078f 0D080000 		.4byte	0x80d
 1152 0793 80       		.byte	0x80
 1153 0794 16       		.uleb128 0x16
 1154 0795 34000000 		.4byte	.LASF118
 1155 0799 06       		.byte	0x6
 1156 079a 6602     		.2byte	0x266
 1157 079c 1D080000 		.4byte	0x81d
 1158 07a0 88       		.byte	0x88
 1159 07a1 16       		.uleb128 0x16
 1160 07a2 DD050000 		.4byte	.LASF119
 1161 07a6 06       		.byte	0x6
 1162 07a7 6702     		.2byte	0x267
 1163 07a9 37000000 		.4byte	0x37
 1164 07ad A0       		.byte	0xa0
 1165 07ae 16       		.uleb128 0x16
 1166 07af 91000000 		.4byte	.LASF120
 1167 07b3 06       		.byte	0x6
 1168 07b4 6802     		.2byte	0x268
 1169 07b6 64010000 		.4byte	0x164
 1170 07ba A4       		.byte	0xa4
 1171 07bb 16       		.uleb128 0x16
 1172 07bc 6A020000 		.4byte	.LASF121
 1173 07c0 06       		.byte	0x6
 1174 07c1 6902     		.2byte	0x269
 1175 07c3 64010000 		.4byte	0x164
 1176 07c7 AC       		.byte	0xac
 1177 07c8 16       		.uleb128 0x16
 1178 07c9 D4010000 		.4byte	.LASF122
 1179 07cd 06       		.byte	0x6
 1180 07ce 6A02     		.2byte	0x26a
 1181 07d0 64010000 		.4byte	0x164
 1182 07d4 B4       		.byte	0xb4
 1183 07d5 16       		.uleb128 0x16
 1184 07d6 17040000 		.4byte	.LASF123
 1185 07da 06       		.byte	0x6
 1186 07db 6B02     		.2byte	0x26b
 1187 07dd 64010000 		.4byte	0x164
 1188 07e1 BC       		.byte	0xbc
 1189 07e2 16       		.uleb128 0x16
 1190 07e3 2A020000 		.4byte	.LASF124
 1191 07e7 06       		.byte	0x6
 1192 07e8 6C02     		.2byte	0x26c
 1193 07ea 64010000 		.4byte	0x164
 1194 07ee C4       		.byte	0xc4
 1195 07ef 16       		.uleb128 0x16
 1196 07f0 5F040000 		.4byte	.LASF125
 1197 07f4 06       		.byte	0x6
ARM GAS  /var/folders/6q/x_mk5n_j3p7_c40r_2k_78980000gn/T//ccOGSDdA.s 			page 22


 1198 07f5 6D02     		.2byte	0x26d
 1199 07f7 37000000 		.4byte	0x37
 1200 07fb CC       		.byte	0xcc
 1201 07fc 00       		.byte	0
 1202 07fd 08       		.uleb128 0x8
 1203 07fe 8D010000 		.4byte	0x18d
 1204 0802 0D080000 		.4byte	0x80d
 1205 0806 09       		.uleb128 0x9
 1206 0807 3C010000 		.4byte	0x13c
 1207 080b 19       		.byte	0x19
 1208 080c 00       		.byte	0
 1209 080d 08       		.uleb128 0x8
 1210 080e 8D010000 		.4byte	0x18d
 1211 0812 1D080000 		.4byte	0x81d
 1212 0816 09       		.uleb128 0x9
 1213 0817 3C010000 		.4byte	0x13c
 1214 081b 07       		.byte	0x7
 1215 081c 00       		.byte	0
 1216 081d 08       		.uleb128 0x8
 1217 081e 8D010000 		.4byte	0x18d
 1218 0822 2D080000 		.4byte	0x82d
 1219 0826 09       		.uleb128 0x9
 1220 0827 3C010000 		.4byte	0x13c
 1221 082b 17       		.byte	0x17
 1222 082c 00       		.byte	0
 1223 082d 1A       		.uleb128 0x1a
 1224 082e F0       		.byte	0xf0
 1225 082f 06       		.byte	0x6
 1226 0830 7202     		.2byte	0x272
 1227 0832 51080000 		.4byte	0x851
 1228 0836 16       		.uleb128 0x16
 1229 0837 07010000 		.4byte	.LASF126
 1230 083b 06       		.byte	0x6
 1231 083c 7502     		.2byte	0x275
 1232 083e 51080000 		.4byte	0x851
 1233 0842 00       		.byte	0
 1234 0843 16       		.uleb128 0x16
 1235 0844 1A070000 		.4byte	.LASF127
 1236 0848 06       		.byte	0x6
 1237 0849 7602     		.2byte	0x276
 1238 084b 61080000 		.4byte	0x861
 1239 084f 78       		.byte	0x78
 1240 0850 00       		.byte	0
 1241 0851 08       		.uleb128 0x8
 1242 0852 51030000 		.4byte	0x351
 1243 0856 61080000 		.4byte	0x861
 1244 085a 09       		.uleb128 0x9
 1245 085b 3C010000 		.4byte	0x13c
 1246 085f 1D       		.byte	0x1d
 1247 0860 00       		.byte	0
 1248 0861 08       		.uleb128 0x8
 1249 0862 30000000 		.4byte	0x30
 1250 0866 71080000 		.4byte	0x871
 1251 086a 09       		.uleb128 0x9
 1252 086b 3C010000 		.4byte	0x13c
 1253 086f 1D       		.byte	0x1d
 1254 0870 00       		.byte	0
ARM GAS  /var/folders/6q/x_mk5n_j3p7_c40r_2k_78980000gn/T//ccOGSDdA.s 			page 23


 1255 0871 1B       		.uleb128 0x1b
 1256 0872 F0       		.byte	0xf0
 1257 0873 06       		.byte	0x6
 1258 0874 5702     		.2byte	0x257
 1259 0876 93080000 		.4byte	0x893
 1260 087a 1C       		.uleb128 0x1c
 1261 087b 64060000 		.4byte	.LASF77
 1262 087f 06       		.byte	0x6
 1263 0880 6E02     		.2byte	0x26e
 1264 0882 FC060000 		.4byte	0x6fc
 1265 0886 1C       		.uleb128 0x1c
 1266 0887 F9050000 		.4byte	.LASF128
 1267 088b 06       		.byte	0x6
 1268 088c 7702     		.2byte	0x277
 1269 088e 2D080000 		.4byte	0x82d
 1270 0892 00       		.byte	0
 1271 0893 08       		.uleb128 0x8
 1272 0894 8D010000 		.4byte	0x18d
 1273 0898 A3080000 		.4byte	0x8a3
 1274 089c 09       		.uleb128 0x9
 1275 089d 3C010000 		.4byte	0x13c
 1276 08a1 18       		.byte	0x18
 1277 08a2 00       		.byte	0
 1278 08a3 1D       		.uleb128 0x1d
 1279 08a4 01070000 		.4byte	.LASF171
 1280 08a8 0D       		.uleb128 0xd
 1281 08a9 04       		.byte	0x4
 1282 08aa A3080000 		.4byte	0x8a3
 1283 08ae 1E       		.uleb128 0x1e
 1284 08af B9080000 		.4byte	0x8b9
 1285 08b3 14       		.uleb128 0x14
 1286 08b4 9F040000 		.4byte	0x49f
 1287 08b8 00       		.byte	0
 1288 08b9 0D       		.uleb128 0xd
 1289 08ba 04       		.byte	0x4
 1290 08bb AE080000 		.4byte	0x8ae
 1291 08bf 0D       		.uleb128 0xd
 1292 08c0 04       		.byte	0x4
 1293 08c1 F2010000 		.4byte	0x1f2
 1294 08c5 1E       		.uleb128 0x1e
 1295 08c6 D0080000 		.4byte	0x8d0
 1296 08ca 14       		.uleb128 0x14
 1297 08cb 37000000 		.4byte	0x37
 1298 08cf 00       		.byte	0
 1299 08d0 0D       		.uleb128 0xd
 1300 08d1 04       		.byte	0x4
 1301 08d2 D6080000 		.4byte	0x8d6
 1302 08d6 0D       		.uleb128 0xd
 1303 08d7 04       		.byte	0x4
 1304 08d8 C5080000 		.4byte	0x8c5
 1305 08dc 08       		.uleb128 0x8
 1306 08dd 6A060000 		.4byte	0x66a
 1307 08e1 EC080000 		.4byte	0x8ec
 1308 08e5 09       		.uleb128 0x9
 1309 08e6 3C010000 		.4byte	0x13c
 1310 08ea 02       		.byte	0x2
 1311 08eb 00       		.byte	0
ARM GAS  /var/folders/6q/x_mk5n_j3p7_c40r_2k_78980000gn/T//ccOGSDdA.s 			page 24


 1312 08ec 02       		.uleb128 0x2
 1313 08ed A1030000 		.4byte	.LASF129
 1314 08f1 07       		.byte	0x7
 1315 08f2 28       		.byte	0x28
 1316 08f3 68000000 		.4byte	0x68
 1317 08f7 02       		.uleb128 0x2
 1318 08f8 4D020000 		.4byte	.LASF130
 1319 08fc 08       		.byte	0x8
 1320 08fd 71       		.byte	0x71
 1321 08fe 93000000 		.4byte	0x93
 1322 0902 02       		.uleb128 0x2
 1323 0903 EF050000 		.4byte	.LASF131
 1324 0907 08       		.byte	0x8
 1325 0908 76       		.byte	0x76
 1326 0909 9E000000 		.4byte	0x9e
 1327 090d 02       		.uleb128 0x2
 1328 090e 63050000 		.4byte	.LASF132
 1329 0912 08       		.byte	0x8
 1330 0913 8B       		.byte	0x8b
 1331 0914 87010000 		.4byte	0x187
 1332 0918 02       		.uleb128 0x2
 1333 0919 DE000000 		.4byte	.LASF133
 1334 091d 08       		.byte	0x8
 1335 091e 9B       		.byte	0x9b
 1336 091f D5000000 		.4byte	0xd5
 1337 0923 02       		.uleb128 0x2
 1338 0924 6B060000 		.4byte	.LASF134
 1339 0928 08       		.byte	0x8
 1340 0929 AD       		.byte	0xad
 1341 092a EB000000 		.4byte	0xeb
 1342 092e 02       		.uleb128 0x2
 1343 092f 2C040000 		.4byte	.LASF135
 1344 0933 08       		.byte	0x8
 1345 0934 B1       		.byte	0xb1
 1346 0935 B4000000 		.4byte	0xb4
 1347 0939 02       		.uleb128 0x2
 1348 093a 26040000 		.4byte	.LASF136
 1349 093e 08       		.byte	0x8
 1350 093f B5       		.byte	0xb5
 1351 0940 BF000000 		.4byte	0xbf
 1352 0944 02       		.uleb128 0x2
 1353 0945 CC040000 		.4byte	.LASF137
 1354 0949 08       		.byte	0x8
 1355 094a B9       		.byte	0xb9
 1356 094b CA000000 		.4byte	0xca
 1357 094f 02       		.uleb128 0x2
 1358 0950 5D060000 		.4byte	.LASF138
 1359 0954 08       		.byte	0x8
 1360 0955 CD       		.byte	0xcd
 1361 0956 E0000000 		.4byte	0xe0
 1362 095a 02       		.uleb128 0x2
 1363 095b B4050000 		.4byte	.LASF139
 1364 095f 08       		.byte	0x8
 1365 0960 D2       		.byte	0xd2
 1366 0961 7C010000 		.4byte	0x17c
 1367 0965 0E       		.uleb128 0xe
 1368 0966 7B010000 		.4byte	.LASF140
ARM GAS  /var/folders/6q/x_mk5n_j3p7_c40r_2k_78980000gn/T//ccOGSDdA.s 			page 25


 1369 096a 3C       		.byte	0x3c
 1370 096b 09       		.byte	0x9
 1371 096c 1B       		.byte	0x1b
 1372 096d 3E0A0000 		.4byte	0xa3e
 1373 0971 0B       		.uleb128 0xb
 1374 0972 8B010000 		.4byte	.LASF141
 1375 0976 09       		.byte	0x9
 1376 0977 1D       		.byte	0x1d
 1377 0978 2E090000 		.4byte	0x92e
 1378 097c 00       		.byte	0
 1379 097d 0B       		.uleb128 0xb
 1380 097e BA030000 		.4byte	.LASF142
 1381 0982 09       		.byte	0x9
 1382 0983 1E       		.byte	0x1e
 1383 0984 18090000 		.4byte	0x918
 1384 0988 02       		.byte	0x2
 1385 0989 0B       		.uleb128 0xb
 1386 098a CC010000 		.4byte	.LASF143
 1387 098e 09       		.byte	0x9
 1388 098f 1F       		.byte	0x1f
 1389 0990 4F090000 		.4byte	0x94f
 1390 0994 04       		.byte	0x4
 1391 0995 0B       		.uleb128 0xb
 1392 0996 E5010000 		.4byte	.LASF144
 1393 099a 09       		.byte	0x9
 1394 099b 20       		.byte	0x20
 1395 099c 5A090000 		.4byte	0x95a
 1396 09a0 08       		.byte	0x8
 1397 09a1 0B       		.uleb128 0xb
 1398 09a2 C0060000 		.4byte	.LASF145
 1399 09a6 09       		.byte	0x9
 1400 09a7 21       		.byte	0x21
 1401 09a8 39090000 		.4byte	0x939
 1402 09ac 0A       		.byte	0xa
 1403 09ad 0B       		.uleb128 0xb
 1404 09ae BF010000 		.4byte	.LASF146
 1405 09b2 09       		.byte	0x9
 1406 09b3 22       		.byte	0x22
 1407 09b4 44090000 		.4byte	0x944
 1408 09b8 0C       		.byte	0xc
 1409 09b9 0B       		.uleb128 0xb
 1410 09ba B8060000 		.4byte	.LASF147
 1411 09be 09       		.byte	0x9
 1412 09bf 23       		.byte	0x23
 1413 09c0 2E090000 		.4byte	0x92e
 1414 09c4 0E       		.byte	0xe
 1415 09c5 0B       		.uleb128 0xb
 1416 09c6 08060000 		.4byte	.LASF148
 1417 09ca 09       		.byte	0x9
 1418 09cb 24       		.byte	0x24
 1419 09cc 23090000 		.4byte	0x923
 1420 09d0 10       		.byte	0x10
 1421 09d1 0B       		.uleb128 0xb
 1422 09d2 87030000 		.4byte	.LASF149
 1423 09d6 09       		.byte	0x9
 1424 09d7 32       		.byte	0x32
 1425 09d8 EC080000 		.4byte	0x8ec
ARM GAS  /var/folders/6q/x_mk5n_j3p7_c40r_2k_78980000gn/T//ccOGSDdA.s 			page 26


 1426 09dc 14       		.byte	0x14
 1427 09dd 0B       		.uleb128 0xb
 1428 09de 68040000 		.4byte	.LASF150
 1429 09e2 09       		.byte	0x9
 1430 09e3 33       		.byte	0x33
 1431 09e4 68000000 		.4byte	0x68
 1432 09e8 18       		.byte	0x18
 1433 09e9 0B       		.uleb128 0xb
 1434 09ea 63010000 		.4byte	.LASF151
 1435 09ee 09       		.byte	0x9
 1436 09ef 34       		.byte	0x34
 1437 09f0 EC080000 		.4byte	0x8ec
 1438 09f4 1C       		.byte	0x1c
 1439 09f5 0B       		.uleb128 0xb
 1440 09f6 72040000 		.4byte	.LASF152
 1441 09fa 09       		.byte	0x9
 1442 09fb 35       		.byte	0x35
 1443 09fc 68000000 		.4byte	0x68
 1444 0a00 20       		.byte	0x20
 1445 0a01 0B       		.uleb128 0xb
 1446 0a02 3B050000 		.4byte	.LASF153
 1447 0a06 09       		.byte	0x9
 1448 0a07 36       		.byte	0x36
 1449 0a08 EC080000 		.4byte	0x8ec
 1450 0a0c 24       		.byte	0x24
 1451 0a0d 0B       		.uleb128 0xb
 1452 0a0e 7C040000 		.4byte	.LASF154
 1453 0a12 09       		.byte	0x9
 1454 0a13 37       		.byte	0x37
 1455 0a14 68000000 		.4byte	0x68
 1456 0a18 28       		.byte	0x28
 1457 0a19 0B       		.uleb128 0xb
 1458 0a1a 4D000000 		.4byte	.LASF155
 1459 0a1e 09       		.byte	0x9
 1460 0a1f 38       		.byte	0x38
 1461 0a20 02090000 		.4byte	0x902
 1462 0a24 2C       		.byte	0x2c
 1463 0a25 0B       		.uleb128 0xb
 1464 0a26 37010000 		.4byte	.LASF156
 1465 0a2a 09       		.byte	0x9
 1466 0a2b 39       		.byte	0x39
 1467 0a2c F7080000 		.4byte	0x8f7
 1468 0a30 30       		.byte	0x30
 1469 0a31 0B       		.uleb128 0xb
 1470 0a32 86040000 		.4byte	.LASF157
 1471 0a36 09       		.byte	0x9
 1472 0a37 3A       		.byte	0x3a
 1473 0a38 3E0A0000 		.4byte	0xa3e
 1474 0a3c 34       		.byte	0x34
 1475 0a3d 00       		.byte	0
 1476 0a3e 08       		.uleb128 0x8
 1477 0a3f 68000000 		.4byte	0x68
 1478 0a43 4E0A0000 		.4byte	0xa4e
 1479 0a47 09       		.uleb128 0x9
 1480 0a48 3C010000 		.4byte	0x13c
 1481 0a4c 01       		.byte	0x1
 1482 0a4d 00       		.byte	0
ARM GAS  /var/folders/6q/x_mk5n_j3p7_c40r_2k_78980000gn/T//ccOGSDdA.s 			page 27


 1483 0a4e 03       		.uleb128 0x3
 1484 0a4f 01       		.byte	0x1
 1485 0a50 02       		.byte	0x2
 1486 0a51 99040000 		.4byte	.LASF158
 1487 0a55 1F       		.uleb128 0x1f
 1488 0a56 EE000000 		.4byte	.LASF160
 1489 0a5a 01       		.byte	0x1
 1490 0a5b 4B       		.byte	0x4b
 1491 0a5c 37000000 		.4byte	0x37
 1492 0a60 00000000 		.4byte	.LFB7
 1493 0a64 0A000000 		.4byte	.LFE7-.LFB7
 1494 0a68 01       		.uleb128 0x1
 1495 0a69 9C       		.byte	0x9c
 1496 0a6a A50A0000 		.4byte	0xaa5
 1497 0a6e 20       		.uleb128 0x20
 1498 0a6f 7200     		.ascii	"r\000"
 1499 0a71 01       		.byte	0x1
 1500 0a72 4B       		.byte	0x4b
 1501 0a73 9F040000 		.4byte	0x49f
 1502 0a77 00000000 		.4byte	.LLST0
 1503 0a7b 21       		.uleb128 0x21
 1504 0a7c 90030000 		.4byte	.LASF159
 1505 0a80 01       		.byte	0x1
 1506 0a81 4B       		.byte	0x4b
 1507 0a82 37000000 		.4byte	0x37
 1508 0a86 01       		.uleb128 0x1
 1509 0a87 51       		.byte	0x51
 1510 0a88 22       		.uleb128 0x22
 1511 0a89 70747200 		.ascii	"ptr\000"
 1512 0a8d 01       		.byte	0x1
 1513 0a8e 4B       		.byte	0x4b
 1514 0a8f 87010000 		.4byte	0x187
 1515 0a93 01       		.uleb128 0x1
 1516 0a94 52       		.byte	0x52
 1517 0a95 20       		.uleb128 0x20
 1518 0a96 6C656E00 		.ascii	"len\000"
 1519 0a9a 01       		.byte	0x1
 1520 0a9b 4B       		.byte	0x4b
 1521 0a9c 37000000 		.4byte	0x37
 1522 0aa0 21000000 		.4byte	.LLST1
 1523 0aa4 00       		.byte	0
 1524 0aa5 1F       		.uleb128 0x1f
 1525 0aa6 A8040000 		.4byte	.LASF161
 1526 0aaa 01       		.byte	0x1
 1527 0aab 60       		.byte	0x60
 1528 0aac 37000000 		.4byte	0x37
 1529 0ab0 00000000 		.4byte	.LFB8
 1530 0ab4 04000000 		.4byte	.LFE8-.LFB8
 1531 0ab8 01       		.uleb128 0x1
 1532 0ab9 9C       		.byte	0x9c
 1533 0aba F30A0000 		.4byte	0xaf3
 1534 0abe 20       		.uleb128 0x20
 1535 0abf 7200     		.ascii	"r\000"
 1536 0ac1 01       		.byte	0x1
 1537 0ac2 60       		.byte	0x60
 1538 0ac3 9F040000 		.4byte	0x49f
 1539 0ac7 42000000 		.4byte	.LLST2
ARM GAS  /var/folders/6q/x_mk5n_j3p7_c40r_2k_78980000gn/T//ccOGSDdA.s 			page 28


 1540 0acb 21       		.uleb128 0x21
 1541 0acc 90030000 		.4byte	.LASF159
 1542 0ad0 01       		.byte	0x1
 1543 0ad1 60       		.byte	0x60
 1544 0ad2 37000000 		.4byte	0x37
 1545 0ad6 01       		.uleb128 0x1
 1546 0ad7 51       		.byte	0x51
 1547 0ad8 22       		.uleb128 0x22
 1548 0ad9 70747200 		.ascii	"ptr\000"
 1549 0add 01       		.byte	0x1
 1550 0ade 60       		.byte	0x60
 1551 0adf 37000000 		.4byte	0x37
 1552 0ae3 01       		.uleb128 0x1
 1553 0ae4 52       		.byte	0x52
 1554 0ae5 22       		.uleb128 0x22
 1555 0ae6 64697200 		.ascii	"dir\000"
 1556 0aea 01       		.byte	0x1
 1557 0aeb 60       		.byte	0x60
 1558 0aec 37000000 		.4byte	0x37
 1559 0af0 01       		.uleb128 0x1
 1560 0af1 53       		.byte	0x53
 1561 0af2 00       		.byte	0
 1562 0af3 1F       		.uleb128 0x1f
 1563 0af4 2B000000 		.4byte	.LASF162
 1564 0af8 01       		.byte	0x1
 1565 0af9 6C       		.byte	0x6c
 1566 0afa 37000000 		.4byte	0x37
 1567 0afe 00000000 		.4byte	.LFB9
 1568 0b02 04000000 		.4byte	.LFE9-.LFB9
 1569 0b06 01       		.uleb128 0x1
 1570 0b07 9C       		.byte	0x9c
 1571 0b08 410B0000 		.4byte	0xb41
 1572 0b0c 20       		.uleb128 0x20
 1573 0b0d 7200     		.ascii	"r\000"
 1574 0b0f 01       		.byte	0x1
 1575 0b10 6C       		.byte	0x6c
 1576 0b11 9F040000 		.4byte	0x49f
 1577 0b15 63000000 		.4byte	.LLST3
 1578 0b19 21       		.uleb128 0x21
 1579 0b1a 90030000 		.4byte	.LASF159
 1580 0b1e 01       		.byte	0x1
 1581 0b1f 6C       		.byte	0x6c
 1582 0b20 37000000 		.4byte	0x37
 1583 0b24 01       		.uleb128 0x1
 1584 0b25 51       		.byte	0x51
 1585 0b26 22       		.uleb128 0x22
 1586 0b27 70747200 		.ascii	"ptr\000"
 1587 0b2b 01       		.byte	0x1
 1588 0b2c 6C       		.byte	0x6c
 1589 0b2d 87010000 		.4byte	0x187
 1590 0b31 01       		.uleb128 0x1
 1591 0b32 52       		.byte	0x52
 1592 0b33 22       		.uleb128 0x22
 1593 0b34 6C656E00 		.ascii	"len\000"
 1594 0b38 01       		.byte	0x1
 1595 0b39 6C       		.byte	0x6c
 1596 0b3a 37000000 		.4byte	0x37
ARM GAS  /var/folders/6q/x_mk5n_j3p7_c40r_2k_78980000gn/T//ccOGSDdA.s 			page 29


 1597 0b3e 01       		.uleb128 0x1
 1598 0b3f 53       		.byte	0x53
 1599 0b40 00       		.byte	0
 1600 0b41 1F       		.uleb128 0x1f
 1601 0b42 90040000 		.4byte	.LASF163
 1602 0b46 01       		.byte	0x1
 1603 0b47 7D       		.byte	0x7d
 1604 0b48 37000000 		.4byte	0x37
 1605 0b4c 00000000 		.4byte	.LFB10
 1606 0b50 04000000 		.4byte	.LFE10-.LFB10
 1607 0b54 01       		.uleb128 0x1
 1608 0b55 9C       		.byte	0x9c
 1609 0b56 750B0000 		.4byte	0xb75
 1610 0b5a 20       		.uleb128 0x20
 1611 0b5b 7200     		.ascii	"r\000"
 1612 0b5d 01       		.byte	0x1
 1613 0b5e 7D       		.byte	0x7d
 1614 0b5f 9F040000 		.4byte	0x49f
 1615 0b63 84000000 		.4byte	.LLST4
 1616 0b67 21       		.uleb128 0x21
 1617 0b68 90030000 		.4byte	.LASF159
 1618 0b6c 01       		.byte	0x1
 1619 0b6d 7D       		.byte	0x7d
 1620 0b6e 37000000 		.4byte	0x37
 1621 0b72 01       		.uleb128 0x1
 1622 0b73 51       		.byte	0x51
 1623 0b74 00       		.byte	0
 1624 0b75 1F       		.uleb128 0x1f
 1625 0b76 5B010000 		.4byte	.LASF164
 1626 0b7a 01       		.byte	0x1
 1627 0b7b 87       		.byte	0x87
 1628 0b7c 0D090000 		.4byte	0x90d
 1629 0b80 00000000 		.4byte	.LFB11
 1630 0b84 18000000 		.4byte	.LFE11-.LFB11
 1631 0b88 01       		.uleb128 0x1
 1632 0b89 9C       		.byte	0x9c
 1633 0b8a C90B0000 		.4byte	0xbc9
 1634 0b8e 20       		.uleb128 0x20
 1635 0b8f 7200     		.ascii	"r\000"
 1636 0b91 01       		.byte	0x1
 1637 0b92 87       		.byte	0x87
 1638 0b93 9F040000 		.4byte	0x49f
 1639 0b97 A5000000 		.4byte	.LLST5
 1640 0b9b 23       		.uleb128 0x23
 1641 0b9c F7010000 		.4byte	.LASF165
 1642 0ba0 01       		.byte	0x1
 1643 0ba1 87       		.byte	0x87
 1644 0ba2 37000000 		.4byte	0x37
 1645 0ba6 C3000000 		.4byte	.LLST6
 1646 0baa 24       		.uleb128 0x24
 1647 0bab 7000     		.ascii	"p\000"
 1648 0bad 01       		.byte	0x1
 1649 0bae 8A       		.byte	0x8a
 1650 0baf 7A010000 		.4byte	0x17a
 1651 0bb3 E4000000 		.4byte	.LLST7
 1652 0bb7 25       		.uleb128 0x25
 1653 0bb8 0A000000 		.4byte	.LVL11
ARM GAS  /var/folders/6q/x_mk5n_j3p7_c40r_2k_78980000gn/T//ccOGSDdA.s 			page 30


 1654 0bbc 610C0000 		.4byte	0xc61
 1655 0bc0 26       		.uleb128 0x26
 1656 0bc1 01       		.uleb128 0x1
 1657 0bc2 50       		.byte	0x50
 1658 0bc3 03       		.uleb128 0x3
 1659 0bc4 F3       		.byte	0xf3
 1660 0bc5 01       		.uleb128 0x1
 1661 0bc6 51       		.byte	0x51
 1662 0bc7 00       		.byte	0
 1663 0bc8 00       		.byte	0
 1664 0bc9 1F       		.uleb128 0x1f
 1665 0bca EE010000 		.4byte	.LASF166
 1666 0bce 01       		.byte	0x1
 1667 0bcf 9D       		.byte	0x9d
 1668 0bd0 37000000 		.4byte	0x37
 1669 0bd4 00000000 		.4byte	.LFB12
 1670 0bd8 18000000 		.4byte	.LFE12-.LFB12
 1671 0bdc 01       		.uleb128 0x1
 1672 0bdd 9C       		.byte	0x9c
 1673 0bde 280C0000 		.4byte	0xc28
 1674 0be2 20       		.uleb128 0x20
 1675 0be3 7200     		.ascii	"r\000"
 1676 0be5 01       		.byte	0x1
 1677 0be6 9D       		.byte	0x9d
 1678 0be7 9F040000 		.4byte	0x49f
 1679 0beb F7000000 		.4byte	.LLST8
 1680 0bef 23       		.uleb128 0x23
 1681 0bf0 90030000 		.4byte	.LASF159
 1682 0bf4 01       		.byte	0x1
 1683 0bf5 9D       		.byte	0x9d
 1684 0bf6 37000000 		.4byte	0x37
 1685 0bfa 18010000 		.4byte	.LLST9
 1686 0bfe 20       		.uleb128 0x20
 1687 0bff 737400   		.ascii	"st\000"
 1688 0c02 01       		.byte	0x1
 1689 0c03 9D       		.byte	0x9d
 1690 0c04 280C0000 		.4byte	0xc28
 1691 0c08 39010000 		.4byte	.LLST10
 1692 0c0c 25       		.uleb128 0x25
 1693 0c0d 0E000000 		.4byte	.LVL18
 1694 0c11 6C0C0000 		.4byte	0xc6c
 1695 0c15 26       		.uleb128 0x26
 1696 0c16 01       		.uleb128 0x1
 1697 0c17 50       		.byte	0x50
 1698 0c18 02       		.uleb128 0x2
 1699 0c19 74       		.byte	0x74
 1700 0c1a 00       		.sleb128 0
 1701 0c1b 26       		.uleb128 0x26
 1702 0c1c 01       		.uleb128 0x1
 1703 0c1d 51       		.byte	0x51
 1704 0c1e 01       		.uleb128 0x1
 1705 0c1f 30       		.byte	0x30
 1706 0c20 26       		.uleb128 0x26
 1707 0c21 01       		.uleb128 0x1
 1708 0c22 52       		.byte	0x52
 1709 0c23 02       		.uleb128 0x2
 1710 0c24 08       		.byte	0x8
ARM GAS  /var/folders/6q/x_mk5n_j3p7_c40r_2k_78980000gn/T//ccOGSDdA.s 			page 31


 1711 0c25 3C       		.byte	0x3c
 1712 0c26 00       		.byte	0
 1713 0c27 00       		.byte	0
 1714 0c28 0D       		.uleb128 0xd
 1715 0c29 04       		.byte	0x4
 1716 0c2a 65090000 		.4byte	0x965
 1717 0c2e 1F       		.uleb128 0x1f
 1718 0c2f 1C000000 		.4byte	.LASF167
 1719 0c33 01       		.byte	0x1
 1720 0c34 A9       		.byte	0xa9
 1721 0c35 37000000 		.4byte	0x37
 1722 0c39 00000000 		.4byte	.LFB13
 1723 0c3d 04000000 		.4byte	.LFE13-.LFB13
 1724 0c41 01       		.uleb128 0x1
 1725 0c42 9C       		.byte	0x9c
 1726 0c43 610C0000 		.4byte	0xc61
 1727 0c47 20       		.uleb128 0x20
 1728 0c48 7200     		.ascii	"r\000"
 1729 0c4a 01       		.byte	0x1
 1730 0c4b A9       		.byte	0xa9
 1731 0c4c 9F040000 		.4byte	0x49f
 1732 0c50 62010000 		.4byte	.LLST11
 1733 0c54 22       		.uleb128 0x22
 1734 0c55 666400   		.ascii	"fd\000"
 1735 0c58 01       		.byte	0x1
 1736 0c59 A9       		.byte	0xa9
 1737 0c5a 37000000 		.4byte	0x37
 1738 0c5e 01       		.uleb128 0x1
 1739 0c5f 51       		.byte	0x51
 1740 0c60 00       		.byte	0
 1741 0c61 27       		.uleb128 0x27
 1742 0c62 E5030000 		.4byte	.LASF172
 1743 0c66 E5030000 		.4byte	.LASF172
 1744 0c6a 0A       		.byte	0xa
 1745 0c6b 52       		.byte	0x52
 1746 0c6c 28       		.uleb128 0x28
 1747 0c6d 38040000 		.4byte	.LASF173
 1748 0c71 38040000 		.4byte	.LASF173
 1749 0c75 00       		.byte	0
 1750              		.section	.debug_abbrev,"",%progbits
 1751              	.Ldebug_abbrev0:
 1752 0000 01       		.uleb128 0x1
 1753 0001 11       		.uleb128 0x11
 1754 0002 01       		.byte	0x1
 1755 0003 25       		.uleb128 0x25
 1756 0004 0E       		.uleb128 0xe
 1757 0005 13       		.uleb128 0x13
 1758 0006 0B       		.uleb128 0xb
 1759 0007 03       		.uleb128 0x3
 1760 0008 0E       		.uleb128 0xe
 1761 0009 1B       		.uleb128 0x1b
 1762 000a 0E       		.uleb128 0xe
 1763 000b 55       		.uleb128 0x55
 1764 000c 17       		.uleb128 0x17
 1765 000d 11       		.uleb128 0x11
 1766 000e 01       		.uleb128 0x1
 1767 000f 10       		.uleb128 0x10
ARM GAS  /var/folders/6q/x_mk5n_j3p7_c40r_2k_78980000gn/T//ccOGSDdA.s 			page 32


 1768 0010 17       		.uleb128 0x17
 1769 0011 00       		.byte	0
 1770 0012 00       		.byte	0
 1771 0013 02       		.uleb128 0x2
 1772 0014 16       		.uleb128 0x16
 1773 0015 00       		.byte	0
 1774 0016 03       		.uleb128 0x3
 1775 0017 0E       		.uleb128 0xe
 1776 0018 3A       		.uleb128 0x3a
 1777 0019 0B       		.uleb128 0xb
 1778 001a 3B       		.uleb128 0x3b
 1779 001b 0B       		.uleb128 0xb
 1780 001c 49       		.uleb128 0x49
 1781 001d 13       		.uleb128 0x13
 1782 001e 00       		.byte	0
 1783 001f 00       		.byte	0
 1784 0020 03       		.uleb128 0x3
 1785 0021 24       		.uleb128 0x24
 1786 0022 00       		.byte	0
 1787 0023 0B       		.uleb128 0xb
 1788 0024 0B       		.uleb128 0xb
 1789 0025 3E       		.uleb128 0x3e
 1790 0026 0B       		.uleb128 0xb
 1791 0027 03       		.uleb128 0x3
 1792 0028 0E       		.uleb128 0xe
 1793 0029 00       		.byte	0
 1794 002a 00       		.byte	0
 1795 002b 04       		.uleb128 0x4
 1796 002c 24       		.uleb128 0x24
 1797 002d 00       		.byte	0
 1798 002e 0B       		.uleb128 0xb
 1799 002f 0B       		.uleb128 0xb
 1800 0030 3E       		.uleb128 0x3e
 1801 0031 0B       		.uleb128 0xb
 1802 0032 03       		.uleb128 0x3
 1803 0033 08       		.uleb128 0x8
 1804 0034 00       		.byte	0
 1805 0035 00       		.byte	0
 1806 0036 05       		.uleb128 0x5
 1807 0037 16       		.uleb128 0x16
 1808 0038 00       		.byte	0
 1809 0039 03       		.uleb128 0x3
 1810 003a 0E       		.uleb128 0xe
 1811 003b 3A       		.uleb128 0x3a
 1812 003c 0B       		.uleb128 0xb
 1813 003d 3B       		.uleb128 0x3b
 1814 003e 05       		.uleb128 0x5
 1815 003f 49       		.uleb128 0x49
 1816 0040 13       		.uleb128 0x13
 1817 0041 00       		.byte	0
 1818 0042 00       		.byte	0
 1819 0043 06       		.uleb128 0x6
 1820 0044 17       		.uleb128 0x17
 1821 0045 01       		.byte	0x1
 1822 0046 0B       		.uleb128 0xb
 1823 0047 0B       		.uleb128 0xb
 1824 0048 3A       		.uleb128 0x3a
ARM GAS  /var/folders/6q/x_mk5n_j3p7_c40r_2k_78980000gn/T//ccOGSDdA.s 			page 33


 1825 0049 0B       		.uleb128 0xb
 1826 004a 3B       		.uleb128 0x3b
 1827 004b 0B       		.uleb128 0xb
 1828 004c 01       		.uleb128 0x1
 1829 004d 13       		.uleb128 0x13
 1830 004e 00       		.byte	0
 1831 004f 00       		.byte	0
 1832 0050 07       		.uleb128 0x7
 1833 0051 0D       		.uleb128 0xd
 1834 0052 00       		.byte	0
 1835 0053 03       		.uleb128 0x3
 1836 0054 0E       		.uleb128 0xe
 1837 0055 3A       		.uleb128 0x3a
 1838 0056 0B       		.uleb128 0xb
 1839 0057 3B       		.uleb128 0x3b
 1840 0058 0B       		.uleb128 0xb
 1841 0059 49       		.uleb128 0x49
 1842 005a 13       		.uleb128 0x13
 1843 005b 00       		.byte	0
 1844 005c 00       		.byte	0
 1845 005d 08       		.uleb128 0x8
 1846 005e 01       		.uleb128 0x1
 1847 005f 01       		.byte	0x1
 1848 0060 49       		.uleb128 0x49
 1849 0061 13       		.uleb128 0x13
 1850 0062 01       		.uleb128 0x1
 1851 0063 13       		.uleb128 0x13
 1852 0064 00       		.byte	0
 1853 0065 00       		.byte	0
 1854 0066 09       		.uleb128 0x9
 1855 0067 21       		.uleb128 0x21
 1856 0068 00       		.byte	0
 1857 0069 49       		.uleb128 0x49
 1858 006a 13       		.uleb128 0x13
 1859 006b 2F       		.uleb128 0x2f
 1860 006c 0B       		.uleb128 0xb
 1861 006d 00       		.byte	0
 1862 006e 00       		.byte	0
 1863 006f 0A       		.uleb128 0xa
 1864 0070 13       		.uleb128 0x13
 1865 0071 01       		.byte	0x1
 1866 0072 0B       		.uleb128 0xb
 1867 0073 0B       		.uleb128 0xb
 1868 0074 3A       		.uleb128 0x3a
 1869 0075 0B       		.uleb128 0xb
 1870 0076 3B       		.uleb128 0x3b
 1871 0077 0B       		.uleb128 0xb
 1872 0078 01       		.uleb128 0x1
 1873 0079 13       		.uleb128 0x13
 1874 007a 00       		.byte	0
 1875 007b 00       		.byte	0
 1876 007c 0B       		.uleb128 0xb
 1877 007d 0D       		.uleb128 0xd
 1878 007e 00       		.byte	0
 1879 007f 03       		.uleb128 0x3
 1880 0080 0E       		.uleb128 0xe
 1881 0081 3A       		.uleb128 0x3a
ARM GAS  /var/folders/6q/x_mk5n_j3p7_c40r_2k_78980000gn/T//ccOGSDdA.s 			page 34


 1882 0082 0B       		.uleb128 0xb
 1883 0083 3B       		.uleb128 0x3b
 1884 0084 0B       		.uleb128 0xb
 1885 0085 49       		.uleb128 0x49
 1886 0086 13       		.uleb128 0x13
 1887 0087 38       		.uleb128 0x38
 1888 0088 0B       		.uleb128 0xb
 1889 0089 00       		.byte	0
 1890 008a 00       		.byte	0
 1891 008b 0C       		.uleb128 0xc
 1892 008c 0F       		.uleb128 0xf
 1893 008d 00       		.byte	0
 1894 008e 0B       		.uleb128 0xb
 1895 008f 0B       		.uleb128 0xb
 1896 0090 00       		.byte	0
 1897 0091 00       		.byte	0
 1898 0092 0D       		.uleb128 0xd
 1899 0093 0F       		.uleb128 0xf
 1900 0094 00       		.byte	0
 1901 0095 0B       		.uleb128 0xb
 1902 0096 0B       		.uleb128 0xb
 1903 0097 49       		.uleb128 0x49
 1904 0098 13       		.uleb128 0x13
 1905 0099 00       		.byte	0
 1906 009a 00       		.byte	0
 1907 009b 0E       		.uleb128 0xe
 1908 009c 13       		.uleb128 0x13
 1909 009d 01       		.byte	0x1
 1910 009e 03       		.uleb128 0x3
 1911 009f 0E       		.uleb128 0xe
 1912 00a0 0B       		.uleb128 0xb
 1913 00a1 0B       		.uleb128 0xb
 1914 00a2 3A       		.uleb128 0x3a
 1915 00a3 0B       		.uleb128 0xb
 1916 00a4 3B       		.uleb128 0x3b
 1917 00a5 0B       		.uleb128 0xb
 1918 00a6 01       		.uleb128 0x1
 1919 00a7 13       		.uleb128 0x13
 1920 00a8 00       		.byte	0
 1921 00a9 00       		.byte	0
 1922 00aa 0F       		.uleb128 0xf
 1923 00ab 0D       		.uleb128 0xd
 1924 00ac 00       		.byte	0
 1925 00ad 03       		.uleb128 0x3
 1926 00ae 08       		.uleb128 0x8
 1927 00af 3A       		.uleb128 0x3a
 1928 00b0 0B       		.uleb128 0xb
 1929 00b1 3B       		.uleb128 0x3b
 1930 00b2 0B       		.uleb128 0xb
 1931 00b3 49       		.uleb128 0x49
 1932 00b4 13       		.uleb128 0x13
 1933 00b5 38       		.uleb128 0x38
 1934 00b6 0B       		.uleb128 0xb
 1935 00b7 00       		.byte	0
 1936 00b8 00       		.byte	0
 1937 00b9 10       		.uleb128 0x10
 1938 00ba 13       		.uleb128 0x13
ARM GAS  /var/folders/6q/x_mk5n_j3p7_c40r_2k_78980000gn/T//ccOGSDdA.s 			page 35


 1939 00bb 01       		.byte	0x1
 1940 00bc 03       		.uleb128 0x3
 1941 00bd 0E       		.uleb128 0xe
 1942 00be 0B       		.uleb128 0xb
 1943 00bf 05       		.uleb128 0x5
 1944 00c0 3A       		.uleb128 0x3a
 1945 00c1 0B       		.uleb128 0xb
 1946 00c2 3B       		.uleb128 0x3b
 1947 00c3 0B       		.uleb128 0xb
 1948 00c4 01       		.uleb128 0x1
 1949 00c5 13       		.uleb128 0x13
 1950 00c6 00       		.byte	0
 1951 00c7 00       		.byte	0
 1952 00c8 11       		.uleb128 0x11
 1953 00c9 0D       		.uleb128 0xd
 1954 00ca 00       		.byte	0
 1955 00cb 03       		.uleb128 0x3
 1956 00cc 0E       		.uleb128 0xe
 1957 00cd 3A       		.uleb128 0x3a
 1958 00ce 0B       		.uleb128 0xb
 1959 00cf 3B       		.uleb128 0x3b
 1960 00d0 0B       		.uleb128 0xb
 1961 00d1 49       		.uleb128 0x49
 1962 00d2 13       		.uleb128 0x13
 1963 00d3 38       		.uleb128 0x38
 1964 00d4 05       		.uleb128 0x5
 1965 00d5 00       		.byte	0
 1966 00d6 00       		.byte	0
 1967 00d7 12       		.uleb128 0x12
 1968 00d8 15       		.uleb128 0x15
 1969 00d9 00       		.byte	0
 1970 00da 27       		.uleb128 0x27
 1971 00db 19       		.uleb128 0x19
 1972 00dc 00       		.byte	0
 1973 00dd 00       		.byte	0
 1974 00de 13       		.uleb128 0x13
 1975 00df 15       		.uleb128 0x15
 1976 00e0 01       		.byte	0x1
 1977 00e1 27       		.uleb128 0x27
 1978 00e2 19       		.uleb128 0x19
 1979 00e3 49       		.uleb128 0x49
 1980 00e4 13       		.uleb128 0x13
 1981 00e5 01       		.uleb128 0x1
 1982 00e6 13       		.uleb128 0x13
 1983 00e7 00       		.byte	0
 1984 00e8 00       		.byte	0
 1985 00e9 14       		.uleb128 0x14
 1986 00ea 05       		.uleb128 0x5
 1987 00eb 00       		.byte	0
 1988 00ec 49       		.uleb128 0x49
 1989 00ed 13       		.uleb128 0x13
 1990 00ee 00       		.byte	0
 1991 00ef 00       		.byte	0
 1992 00f0 15       		.uleb128 0x15
 1993 00f1 13       		.uleb128 0x13
 1994 00f2 01       		.byte	0x1
 1995 00f3 03       		.uleb128 0x3
ARM GAS  /var/folders/6q/x_mk5n_j3p7_c40r_2k_78980000gn/T//ccOGSDdA.s 			page 36


 1996 00f4 0E       		.uleb128 0xe
 1997 00f5 0B       		.uleb128 0xb
 1998 00f6 05       		.uleb128 0x5
 1999 00f7 3A       		.uleb128 0x3a
 2000 00f8 0B       		.uleb128 0xb
 2001 00f9 3B       		.uleb128 0x3b
 2002 00fa 05       		.uleb128 0x5
 2003 00fb 01       		.uleb128 0x1
 2004 00fc 13       		.uleb128 0x13
 2005 00fd 00       		.byte	0
 2006 00fe 00       		.byte	0
 2007 00ff 16       		.uleb128 0x16
 2008 0100 0D       		.uleb128 0xd
 2009 0101 00       		.byte	0
 2010 0102 03       		.uleb128 0x3
 2011 0103 0E       		.uleb128 0xe
 2012 0104 3A       		.uleb128 0x3a
 2013 0105 0B       		.uleb128 0xb
 2014 0106 3B       		.uleb128 0x3b
 2015 0107 05       		.uleb128 0x5
 2016 0108 49       		.uleb128 0x49
 2017 0109 13       		.uleb128 0x13
 2018 010a 38       		.uleb128 0x38
 2019 010b 0B       		.uleb128 0xb
 2020 010c 00       		.byte	0
 2021 010d 00       		.byte	0
 2022 010e 17       		.uleb128 0x17
 2023 010f 0D       		.uleb128 0xd
 2024 0110 00       		.byte	0
 2025 0111 03       		.uleb128 0x3
 2026 0112 0E       		.uleb128 0xe
 2027 0113 3A       		.uleb128 0x3a
 2028 0114 0B       		.uleb128 0xb
 2029 0115 3B       		.uleb128 0x3b
 2030 0116 05       		.uleb128 0x5
 2031 0117 49       		.uleb128 0x49
 2032 0118 13       		.uleb128 0x13
 2033 0119 38       		.uleb128 0x38
 2034 011a 05       		.uleb128 0x5
 2035 011b 00       		.byte	0
 2036 011c 00       		.byte	0
 2037 011d 18       		.uleb128 0x18
 2038 011e 26       		.uleb128 0x26
 2039 011f 00       		.byte	0
 2040 0120 49       		.uleb128 0x49
 2041 0121 13       		.uleb128 0x13
 2042 0122 00       		.byte	0
 2043 0123 00       		.byte	0
 2044 0124 19       		.uleb128 0x19
 2045 0125 13       		.uleb128 0x13
 2046 0126 01       		.byte	0x1
 2047 0127 03       		.uleb128 0x3
 2048 0128 0E       		.uleb128 0xe
 2049 0129 0B       		.uleb128 0xb
 2050 012a 0B       		.uleb128 0xb
 2051 012b 3A       		.uleb128 0x3a
 2052 012c 0B       		.uleb128 0xb
ARM GAS  /var/folders/6q/x_mk5n_j3p7_c40r_2k_78980000gn/T//ccOGSDdA.s 			page 37


 2053 012d 3B       		.uleb128 0x3b
 2054 012e 05       		.uleb128 0x5
 2055 012f 01       		.uleb128 0x1
 2056 0130 13       		.uleb128 0x13
 2057 0131 00       		.byte	0
 2058 0132 00       		.byte	0
 2059 0133 1A       		.uleb128 0x1a
 2060 0134 13       		.uleb128 0x13
 2061 0135 01       		.byte	0x1
 2062 0136 0B       		.uleb128 0xb
 2063 0137 0B       		.uleb128 0xb
 2064 0138 3A       		.uleb128 0x3a
 2065 0139 0B       		.uleb128 0xb
 2066 013a 3B       		.uleb128 0x3b
 2067 013b 05       		.uleb128 0x5
 2068 013c 01       		.uleb128 0x1
 2069 013d 13       		.uleb128 0x13
 2070 013e 00       		.byte	0
 2071 013f 00       		.byte	0
 2072 0140 1B       		.uleb128 0x1b
 2073 0141 17       		.uleb128 0x17
 2074 0142 01       		.byte	0x1
 2075 0143 0B       		.uleb128 0xb
 2076 0144 0B       		.uleb128 0xb
 2077 0145 3A       		.uleb128 0x3a
 2078 0146 0B       		.uleb128 0xb
 2079 0147 3B       		.uleb128 0x3b
 2080 0148 05       		.uleb128 0x5
 2081 0149 01       		.uleb128 0x1
 2082 014a 13       		.uleb128 0x13
 2083 014b 00       		.byte	0
 2084 014c 00       		.byte	0
 2085 014d 1C       		.uleb128 0x1c
 2086 014e 0D       		.uleb128 0xd
 2087 014f 00       		.byte	0
 2088 0150 03       		.uleb128 0x3
 2089 0151 0E       		.uleb128 0xe
 2090 0152 3A       		.uleb128 0x3a
 2091 0153 0B       		.uleb128 0xb
 2092 0154 3B       		.uleb128 0x3b
 2093 0155 05       		.uleb128 0x5
 2094 0156 49       		.uleb128 0x49
 2095 0157 13       		.uleb128 0x13
 2096 0158 00       		.byte	0
 2097 0159 00       		.byte	0
 2098 015a 1D       		.uleb128 0x1d
 2099 015b 13       		.uleb128 0x13
 2100 015c 00       		.byte	0
 2101 015d 03       		.uleb128 0x3
 2102 015e 0E       		.uleb128 0xe
 2103 015f 3C       		.uleb128 0x3c
 2104 0160 19       		.uleb128 0x19
 2105 0161 00       		.byte	0
 2106 0162 00       		.byte	0
 2107 0163 1E       		.uleb128 0x1e
 2108 0164 15       		.uleb128 0x15
 2109 0165 01       		.byte	0x1
ARM GAS  /var/folders/6q/x_mk5n_j3p7_c40r_2k_78980000gn/T//ccOGSDdA.s 			page 38


 2110 0166 27       		.uleb128 0x27
 2111 0167 19       		.uleb128 0x19
 2112 0168 01       		.uleb128 0x1
 2113 0169 13       		.uleb128 0x13
 2114 016a 00       		.byte	0
 2115 016b 00       		.byte	0
 2116 016c 1F       		.uleb128 0x1f
 2117 016d 2E       		.uleb128 0x2e
 2118 016e 01       		.byte	0x1
 2119 016f 3F       		.uleb128 0x3f
 2120 0170 19       		.uleb128 0x19
 2121 0171 03       		.uleb128 0x3
 2122 0172 0E       		.uleb128 0xe
 2123 0173 3A       		.uleb128 0x3a
 2124 0174 0B       		.uleb128 0xb
 2125 0175 3B       		.uleb128 0x3b
 2126 0176 0B       		.uleb128 0xb
 2127 0177 27       		.uleb128 0x27
 2128 0178 19       		.uleb128 0x19
 2129 0179 49       		.uleb128 0x49
 2130 017a 13       		.uleb128 0x13
 2131 017b 11       		.uleb128 0x11
 2132 017c 01       		.uleb128 0x1
 2133 017d 12       		.uleb128 0x12
 2134 017e 06       		.uleb128 0x6
 2135 017f 40       		.uleb128 0x40
 2136 0180 18       		.uleb128 0x18
 2137 0181 9742     		.uleb128 0x2117
 2138 0183 19       		.uleb128 0x19
 2139 0184 01       		.uleb128 0x1
 2140 0185 13       		.uleb128 0x13
 2141 0186 00       		.byte	0
 2142 0187 00       		.byte	0
 2143 0188 20       		.uleb128 0x20
 2144 0189 05       		.uleb128 0x5
 2145 018a 00       		.byte	0
 2146 018b 03       		.uleb128 0x3
 2147 018c 08       		.uleb128 0x8
 2148 018d 3A       		.uleb128 0x3a
 2149 018e 0B       		.uleb128 0xb
 2150 018f 3B       		.uleb128 0x3b
 2151 0190 0B       		.uleb128 0xb
 2152 0191 49       		.uleb128 0x49
 2153 0192 13       		.uleb128 0x13
 2154 0193 02       		.uleb128 0x2
 2155 0194 17       		.uleb128 0x17
 2156 0195 00       		.byte	0
 2157 0196 00       		.byte	0
 2158 0197 21       		.uleb128 0x21
 2159 0198 05       		.uleb128 0x5
 2160 0199 00       		.byte	0
 2161 019a 03       		.uleb128 0x3
 2162 019b 0E       		.uleb128 0xe
 2163 019c 3A       		.uleb128 0x3a
 2164 019d 0B       		.uleb128 0xb
 2165 019e 3B       		.uleb128 0x3b
 2166 019f 0B       		.uleb128 0xb
ARM GAS  /var/folders/6q/x_mk5n_j3p7_c40r_2k_78980000gn/T//ccOGSDdA.s 			page 39


 2167 01a0 49       		.uleb128 0x49
 2168 01a1 13       		.uleb128 0x13
 2169 01a2 02       		.uleb128 0x2
 2170 01a3 18       		.uleb128 0x18
 2171 01a4 00       		.byte	0
 2172 01a5 00       		.byte	0
 2173 01a6 22       		.uleb128 0x22
 2174 01a7 05       		.uleb128 0x5
 2175 01a8 00       		.byte	0
 2176 01a9 03       		.uleb128 0x3
 2177 01aa 08       		.uleb128 0x8
 2178 01ab 3A       		.uleb128 0x3a
 2179 01ac 0B       		.uleb128 0xb
 2180 01ad 3B       		.uleb128 0x3b
 2181 01ae 0B       		.uleb128 0xb
 2182 01af 49       		.uleb128 0x49
 2183 01b0 13       		.uleb128 0x13
 2184 01b1 02       		.uleb128 0x2
 2185 01b2 18       		.uleb128 0x18
 2186 01b3 00       		.byte	0
 2187 01b4 00       		.byte	0
 2188 01b5 23       		.uleb128 0x23
 2189 01b6 05       		.uleb128 0x5
 2190 01b7 00       		.byte	0
 2191 01b8 03       		.uleb128 0x3
 2192 01b9 0E       		.uleb128 0xe
 2193 01ba 3A       		.uleb128 0x3a
 2194 01bb 0B       		.uleb128 0xb
 2195 01bc 3B       		.uleb128 0x3b
 2196 01bd 0B       		.uleb128 0xb
 2197 01be 49       		.uleb128 0x49
 2198 01bf 13       		.uleb128 0x13
 2199 01c0 02       		.uleb128 0x2
 2200 01c1 17       		.uleb128 0x17
 2201 01c2 00       		.byte	0
 2202 01c3 00       		.byte	0
 2203 01c4 24       		.uleb128 0x24
 2204 01c5 34       		.uleb128 0x34
 2205 01c6 00       		.byte	0
 2206 01c7 03       		.uleb128 0x3
 2207 01c8 08       		.uleb128 0x8
 2208 01c9 3A       		.uleb128 0x3a
 2209 01ca 0B       		.uleb128 0xb
 2210 01cb 3B       		.uleb128 0x3b
 2211 01cc 0B       		.uleb128 0xb
 2212 01cd 49       		.uleb128 0x49
 2213 01ce 13       		.uleb128 0x13
 2214 01cf 02       		.uleb128 0x2
 2215 01d0 17       		.uleb128 0x17
 2216 01d1 00       		.byte	0
 2217 01d2 00       		.byte	0
 2218 01d3 25       		.uleb128 0x25
 2219 01d4 898201   		.uleb128 0x4109
 2220 01d7 01       		.byte	0x1
 2221 01d8 11       		.uleb128 0x11
 2222 01d9 01       		.uleb128 0x1
 2223 01da 31       		.uleb128 0x31
ARM GAS  /var/folders/6q/x_mk5n_j3p7_c40r_2k_78980000gn/T//ccOGSDdA.s 			page 40


 2224 01db 13       		.uleb128 0x13
 2225 01dc 00       		.byte	0
 2226 01dd 00       		.byte	0
 2227 01de 26       		.uleb128 0x26
 2228 01df 8A8201   		.uleb128 0x410a
 2229 01e2 00       		.byte	0
 2230 01e3 02       		.uleb128 0x2
 2231 01e4 18       		.uleb128 0x18
 2232 01e5 9142     		.uleb128 0x2111
 2233 01e7 18       		.uleb128 0x18
 2234 01e8 00       		.byte	0
 2235 01e9 00       		.byte	0
 2236 01ea 27       		.uleb128 0x27
 2237 01eb 2E       		.uleb128 0x2e
 2238 01ec 00       		.byte	0
 2239 01ed 3F       		.uleb128 0x3f
 2240 01ee 19       		.uleb128 0x19
 2241 01ef 3C       		.uleb128 0x3c
 2242 01f0 19       		.uleb128 0x19
 2243 01f1 6E       		.uleb128 0x6e
 2244 01f2 0E       		.uleb128 0xe
 2245 01f3 03       		.uleb128 0x3
 2246 01f4 0E       		.uleb128 0xe
 2247 01f5 3A       		.uleb128 0x3a
 2248 01f6 0B       		.uleb128 0xb
 2249 01f7 3B       		.uleb128 0x3b
 2250 01f8 0B       		.uleb128 0xb
 2251 01f9 00       		.byte	0
 2252 01fa 00       		.byte	0
 2253 01fb 28       		.uleb128 0x28
 2254 01fc 2E       		.uleb128 0x2e
 2255 01fd 00       		.byte	0
 2256 01fe 3F       		.uleb128 0x3f
 2257 01ff 19       		.uleb128 0x19
 2258 0200 3C       		.uleb128 0x3c
 2259 0201 19       		.uleb128 0x19
 2260 0202 6E       		.uleb128 0x6e
 2261 0203 0E       		.uleb128 0xe
 2262 0204 03       		.uleb128 0x3
 2263 0205 0E       		.uleb128 0xe
 2264 0206 00       		.byte	0
 2265 0207 00       		.byte	0
 2266 0208 00       		.byte	0
 2267              		.section	.debug_loc,"",%progbits
 2268              	.Ldebug_loc0:
 2269              	.LLST0:
 2270 0000 00000000 		.4byte	.LVL0
 2271 0004 08000000 		.4byte	.LVL2
 2272 0008 0100     		.2byte	0x1
 2273 000a 50       		.byte	0x50
 2274 000b 08000000 		.4byte	.LVL2
 2275 000f 0A000000 		.4byte	.LFE7
 2276 0013 0400     		.2byte	0x4
 2277 0015 F3       		.byte	0xf3
 2278 0016 01       		.uleb128 0x1
 2279 0017 50       		.byte	0x50
 2280 0018 9F       		.byte	0x9f
ARM GAS  /var/folders/6q/x_mk5n_j3p7_c40r_2k_78980000gn/T//ccOGSDdA.s 			page 41


 2281 0019 00000000 		.4byte	0
 2282 001d 00000000 		.4byte	0
 2283              	.LLST1:
 2284 0021 00000000 		.4byte	.LVL0
 2285 0025 02000000 		.4byte	.LVL1
 2286 0029 0100     		.2byte	0x1
 2287 002b 53       		.byte	0x53
 2288 002c 02000000 		.4byte	.LVL1
 2289 0030 0A000000 		.4byte	.LFE7
 2290 0034 0400     		.2byte	0x4
 2291 0036 F3       		.byte	0xf3
 2292 0037 01       		.uleb128 0x1
 2293 0038 53       		.byte	0x53
 2294 0039 9F       		.byte	0x9f
 2295 003a 00000000 		.4byte	0
 2296 003e 00000000 		.4byte	0
 2297              	.LLST2:
 2298 0042 00000000 		.4byte	.LVL3
 2299 0046 02000000 		.4byte	.LVL4
 2300 004a 0100     		.2byte	0x1
 2301 004c 50       		.byte	0x50
 2302 004d 02000000 		.4byte	.LVL4
 2303 0051 04000000 		.4byte	.LFE8
 2304 0055 0400     		.2byte	0x4
 2305 0057 F3       		.byte	0xf3
 2306 0058 01       		.uleb128 0x1
 2307 0059 50       		.byte	0x50
 2308 005a 9F       		.byte	0x9f
 2309 005b 00000000 		.4byte	0
 2310 005f 00000000 		.4byte	0
 2311              	.LLST3:
 2312 0063 00000000 		.4byte	.LVL5
 2313 0067 02000000 		.4byte	.LVL6
 2314 006b 0100     		.2byte	0x1
 2315 006d 50       		.byte	0x50
 2316 006e 02000000 		.4byte	.LVL6
 2317 0072 04000000 		.4byte	.LFE9
 2318 0076 0400     		.2byte	0x4
 2319 0078 F3       		.byte	0xf3
 2320 0079 01       		.uleb128 0x1
 2321 007a 50       		.byte	0x50
 2322 007b 9F       		.byte	0x9f
 2323 007c 00000000 		.4byte	0
 2324 0080 00000000 		.4byte	0
 2325              	.LLST4:
 2326 0084 00000000 		.4byte	.LVL7
 2327 0088 02000000 		.4byte	.LVL8
 2328 008c 0100     		.2byte	0x1
 2329 008e 50       		.byte	0x50
 2330 008f 02000000 		.4byte	.LVL8
 2331 0093 04000000 		.4byte	.LFE10
 2332 0097 0400     		.2byte	0x4
 2333 0099 F3       		.byte	0xf3
 2334 009a 01       		.uleb128 0x1
 2335 009b 50       		.byte	0x50
 2336 009c 9F       		.byte	0x9f
 2337 009d 00000000 		.4byte	0
ARM GAS  /var/folders/6q/x_mk5n_j3p7_c40r_2k_78980000gn/T//ccOGSDdA.s 			page 42


 2338 00a1 00000000 		.4byte	0
 2339              	.LLST5:
 2340 00a5 00000000 		.4byte	.LVL9
 2341 00a9 06000000 		.4byte	.LVL10
 2342 00ad 0100     		.2byte	0x1
 2343 00af 50       		.byte	0x50
 2344 00b0 06000000 		.4byte	.LVL10
 2345 00b4 18000000 		.4byte	.LFE11
 2346 00b8 0100     		.2byte	0x1
 2347 00ba 54       		.byte	0x54
 2348 00bb 00000000 		.4byte	0
 2349 00bf 00000000 		.4byte	0
 2350              	.LLST6:
 2351 00c3 00000000 		.4byte	.LVL9
 2352 00c7 09000000 		.4byte	.LVL11-1
 2353 00cb 0100     		.2byte	0x1
 2354 00cd 51       		.byte	0x51
 2355 00ce 09000000 		.4byte	.LVL11-1
 2356 00d2 18000000 		.4byte	.LFE11
 2357 00d6 0400     		.2byte	0x4
 2358 00d8 F3       		.byte	0xf3
 2359 00d9 01       		.uleb128 0x1
 2360 00da 51       		.byte	0x51
 2361 00db 9F       		.byte	0x9f
 2362 00dc 00000000 		.4byte	0
 2363 00e0 00000000 		.4byte	0
 2364              	.LLST7:
 2365 00e4 0A000000 		.4byte	.LVL11
 2366 00e8 16000000 		.4byte	.LVL13
 2367 00ec 0100     		.2byte	0x1
 2368 00ee 50       		.byte	0x50
 2369 00ef 00000000 		.4byte	0
 2370 00f3 00000000 		.4byte	0
 2371              	.LLST8:
 2372 00f7 00000000 		.4byte	.LVL14
 2373 00fb 08000000 		.4byte	.LVL16
 2374 00ff 0100     		.2byte	0x1
 2375 0101 50       		.byte	0x50
 2376 0102 08000000 		.4byte	.LVL16
 2377 0106 18000000 		.4byte	.LFE12
 2378 010a 0400     		.2byte	0x4
 2379 010c F3       		.byte	0xf3
 2380 010d 01       		.uleb128 0x1
 2381 010e 50       		.byte	0x50
 2382 010f 9F       		.byte	0x9f
 2383 0110 00000000 		.4byte	0
 2384 0114 00000000 		.4byte	0
 2385              	.LLST9:
 2386 0118 00000000 		.4byte	.LVL14
 2387 011c 06000000 		.4byte	.LVL15
 2388 0120 0100     		.2byte	0x1
 2389 0122 51       		.byte	0x51
 2390 0123 06000000 		.4byte	.LVL15
 2391 0127 18000000 		.4byte	.LFE12
 2392 012b 0400     		.2byte	0x4
 2393 012d F3       		.byte	0xf3
 2394 012e 01       		.uleb128 0x1
ARM GAS  /var/folders/6q/x_mk5n_j3p7_c40r_2k_78980000gn/T//ccOGSDdA.s 			page 43


 2395 012f 51       		.byte	0x51
 2396 0130 9F       		.byte	0x9f
 2397 0131 00000000 		.4byte	0
 2398 0135 00000000 		.4byte	0
 2399              	.LLST10:
 2400 0139 00000000 		.4byte	.LVL14
 2401 013d 0A000000 		.4byte	.LVL17
 2402 0141 0100     		.2byte	0x1
 2403 0143 52       		.byte	0x52
 2404 0144 0A000000 		.4byte	.LVL17
 2405 0148 0D000000 		.4byte	.LVL18-1
 2406 014c 0100     		.2byte	0x1
 2407 014e 50       		.byte	0x50
 2408 014f 0D000000 		.4byte	.LVL18-1
 2409 0153 18000000 		.4byte	.LFE12
 2410 0157 0100     		.2byte	0x1
 2411 0159 54       		.byte	0x54
 2412 015a 00000000 		.4byte	0
 2413 015e 00000000 		.4byte	0
 2414              	.LLST11:
 2415 0162 00000000 		.4byte	.LVL19
 2416 0166 02000000 		.4byte	.LVL20
 2417 016a 0100     		.2byte	0x1
 2418 016c 50       		.byte	0x50
 2419 016d 02000000 		.4byte	.LVL20
 2420 0171 04000000 		.4byte	.LFE13
 2421 0175 0400     		.2byte	0x4
 2422 0177 F3       		.byte	0xf3
 2423 0178 01       		.uleb128 0x1
 2424 0179 50       		.byte	0x50
 2425 017a 9F       		.byte	0x9f
 2426 017b 00000000 		.4byte	0
 2427 017f 00000000 		.4byte	0
 2428              		.section	.debug_aranges,"",%progbits
 2429 0000 4C000000 		.4byte	0x4c
 2430 0004 0200     		.2byte	0x2
 2431 0006 00000000 		.4byte	.Ldebug_info0
 2432 000a 04       		.byte	0x4
 2433 000b 00       		.byte	0
 2434 000c 0000     		.2byte	0
 2435 000e 0000     		.2byte	0
 2436 0010 00000000 		.4byte	.LFB7
 2437 0014 0A000000 		.4byte	.LFE7-.LFB7
 2438 0018 00000000 		.4byte	.LFB8
 2439 001c 04000000 		.4byte	.LFE8-.LFB8
 2440 0020 00000000 		.4byte	.LFB9
 2441 0024 04000000 		.4byte	.LFE9-.LFB9
 2442 0028 00000000 		.4byte	.LFB10
 2443 002c 04000000 		.4byte	.LFE10-.LFB10
 2444 0030 00000000 		.4byte	.LFB11
 2445 0034 18000000 		.4byte	.LFE11-.LFB11
 2446 0038 00000000 		.4byte	.LFB12
 2447 003c 18000000 		.4byte	.LFE12-.LFB12
 2448 0040 00000000 		.4byte	.LFB13
 2449 0044 04000000 		.4byte	.LFE13-.LFB13
 2450 0048 00000000 		.4byte	0
 2451 004c 00000000 		.4byte	0
ARM GAS  /var/folders/6q/x_mk5n_j3p7_c40r_2k_78980000gn/T//ccOGSDdA.s 			page 44


 2452              		.section	.debug_ranges,"",%progbits
 2453              	.Ldebug_ranges0:
 2454 0000 00000000 		.4byte	.LFB7
 2455 0004 0A000000 		.4byte	.LFE7
 2456 0008 00000000 		.4byte	.LFB8
 2457 000c 04000000 		.4byte	.LFE8
 2458 0010 00000000 		.4byte	.LFB9
 2459 0014 04000000 		.4byte	.LFE9
 2460 0018 00000000 		.4byte	.LFB10
 2461 001c 04000000 		.4byte	.LFE10
 2462 0020 00000000 		.4byte	.LFB11
 2463 0024 18000000 		.4byte	.LFE11
 2464 0028 00000000 		.4byte	.LFB12
 2465 002c 18000000 		.4byte	.LFE12
 2466 0030 00000000 		.4byte	.LFB13
 2467 0034 04000000 		.4byte	.LFE13
 2468 0038 00000000 		.4byte	0
 2469 003c 00000000 		.4byte	0
 2470              		.section	.debug_line,"",%progbits
 2471              	.Ldebug_line0:
 2472 0000 5D020000 		.section	.debug_str,"MS",%progbits,1
 2472      0200CE01 
 2472      00000201 
 2472      FB0E0D00 
 2472      01010101 
 2473              	.LASF49:
 2474 0000 5F6F6E5F 		.ascii	"_on_exit_args\000"
 2474      65786974 
 2474      5F617267 
 2474      7300
 2475              	.LASF116:
 2476 000e 5F776374 		.ascii	"_wctomb_state\000"
 2476      6F6D625F 
 2476      73746174 
 2476      6500
 2477              	.LASF167:
 2478 001c 5F697361 		.ascii	"_isatty_r\000"
 2478      7474795F 
 2478      7200
 2479              	.LASF113:
 2480 0026 5F723438 		.ascii	"_r48\000"
 2480      00
 2481              	.LASF162:
 2482 002b 5F777269 		.ascii	"_write_r\000"
 2482      74655F72 
 2482      00
 2483              	.LASF118:
 2484 0034 5F736967 		.ascii	"_signal_buf\000"
 2484      6E616C5F 
 2484      62756600 
 2485              	.LASF0:
 2486 0040 756E7369 		.ascii	"unsigned int\000"
 2486      676E6564 
 2486      20696E74 
 2486      00
 2487              	.LASF155:
 2488 004d 73745F62 		.ascii	"st_blksize\000"
ARM GAS  /var/folders/6q/x_mk5n_j3p7_c40r_2k_78980000gn/T//ccOGSDdA.s 			page 45


 2488      6C6B7369 
 2488      7A6500
 2489              	.LASF63:
 2490 0058 5F6C6266 		.ascii	"_lbfsize\000"
 2490      73697A65 
 2490      00
 2491              	.LASF61:
 2492 0061 5F666C61 		.ascii	"_flags\000"
 2492      677300
 2493              	.LASF78:
 2494 0068 5F657272 		.ascii	"_errno\000"
 2494      6E6F00
 2495              	.LASF31:
 2496 006f 5F5F6E6C 		.ascii	"__nlink_t\000"
 2496      696E6B5F 
 2496      7400
 2497              	.LASF12:
 2498 0079 5F4C4F43 		.ascii	"_LOCK_RECURSIVE_T\000"
 2498      4B5F5245 
 2498      43555253 
 2498      4956455F 
 2498      5400
 2499              	.LASF65:
 2500 008b 5F726561 		.ascii	"_read\000"
 2500      6400
 2501              	.LASF120:
 2502 0091 5F6D6272 		.ascii	"_mbrlen_state\000"
 2502      6C656E5F 
 2502      73746174 
 2502      6500
 2503              	.LASF80:
 2504 009f 5F737464 		.ascii	"_stdout\000"
 2504      6F757400 
 2505              	.LASF22:
 2506 00a7 5F66706F 		.ascii	"_fpos_t\000"
 2506      735F7400 
 2507              	.LASF56:
 2508 00af 5F666E73 		.ascii	"_fns\000"
 2508      00
 2509              	.LASF64:
 2510 00b4 5F636F6F 		.ascii	"_cookie\000"
 2510      6B696500 
 2511              	.LASF38:
 2512 00bc 5F426967 		.ascii	"_Bigint\000"
 2512      696E7400 
 2513              	.LASF19:
 2514 00c4 5F5F696E 		.ascii	"__ino_t\000"
 2514      6F5F7400 
 2515              	.LASF46:
 2516 00cc 5F5F746D 		.ascii	"__tm_wday\000"
 2516      5F776461 
 2516      7900
 2517              	.LASF88:
 2518 00d6 5F726573 		.ascii	"_result\000"
 2518      756C7400 
 2519              	.LASF133:
 2520 00de 696E6F5F 		.ascii	"ino_t\000"
ARM GAS  /var/folders/6q/x_mk5n_j3p7_c40r_2k_78980000gn/T//ccOGSDdA.s 			page 46


 2520      7400
 2521              	.LASF42:
 2522 00e4 5F5F746D 		.ascii	"__tm_hour\000"
 2522      5F686F75 
 2522      7200
 2523              	.LASF160:
 2524 00ee 5F726561 		.ascii	"_read_r\000"
 2524      645F7200 
 2525              	.LASF27:
 2526 00f6 5F5F636F 		.ascii	"__count\000"
 2526      756E7400 
 2527              	.LASF41:
 2528 00fe 5F5F746D 		.ascii	"__tm_min\000"
 2528      5F6D696E 
 2528      00
 2529              	.LASF126:
 2530 0107 5F6E6578 		.ascii	"_nextf\000"
 2530      746600
 2531              	.LASF103:
 2532 010e 5F72616E 		.ascii	"_rand48\000"
 2532      64343800 
 2533              	.LASF89:
 2534 0116 5F726573 		.ascii	"_result_k\000"
 2534      756C745F 
 2534      6B00
 2535              	.LASF11:
 2536 0120 6C6F6E67 		.ascii	"long long unsigned int\000"
 2536      206C6F6E 
 2536      6720756E 
 2536      7369676E 
 2536      65642069 
 2537              	.LASF156:
 2538 0137 73745F62 		.ascii	"st_blocks\000"
 2538      6C6F636B 
 2538      7300
 2539              	.LASF109:
 2540 0141 5F617363 		.ascii	"_asctime_buf\000"
 2540      74696D65 
 2540      5F627566 
 2540      00
 2541              	.LASF60:
 2542 014e 5F5F7346 		.ascii	"__sFILE\000"
 2542      494C4500 
 2543              	.LASF37:
 2544 0156 5F776473 		.ascii	"_wds\000"
 2544      00
 2545              	.LASF164:
 2546 015b 5F736272 		.ascii	"_sbrk_r\000"
 2546      6B5F7200 
 2547              	.LASF151:
 2548 0163 73745F6D 		.ascii	"st_mtime\000"
 2548      74696D65 
 2548      00
 2549              	.LASF99:
 2550 016c 5F5F4649 		.ascii	"__FILE\000"
 2550      4C4500
 2551              	.LASF72:
ARM GAS  /var/folders/6q/x_mk5n_j3p7_c40r_2k_78980000gn/T//ccOGSDdA.s 			page 47


 2552 0173 5F6F6666 		.ascii	"_offset\000"
 2552      73657400 
 2553              	.LASF140:
 2554 017b 73746174 		.ascii	"stat\000"
 2554      00
 2555              	.LASF83:
 2556 0180 5F656D65 		.ascii	"_emergency\000"
 2556      7267656E 
 2556      637900
 2557              	.LASF141:
 2558 018b 73745F64 		.ascii	"st_dev\000"
 2558      657600
 2559              	.LASF8:
 2560 0192 73697A65 		.ascii	"size_t\000"
 2560      5F7400
 2561              	.LASF20:
 2562 0199 5F5F6D6F 		.ascii	"__mode_t\000"
 2562      64655F74 
 2562      00
 2563              	.LASF40:
 2564 01a2 5F5F746D 		.ascii	"__tm_sec\000"
 2564      5F736563 
 2564      00
 2565              	.LASF47:
 2566 01ab 5F5F746D 		.ascii	"__tm_yday\000"
 2566      5F796461 
 2566      7900
 2567              	.LASF82:
 2568 01b5 5F696E63 		.ascii	"_inc\000"
 2568      00
 2569              	.LASF55:
 2570 01ba 5F696E64 		.ascii	"_ind\000"
 2570      00
 2571              	.LASF146:
 2572 01bf 73745F67 		.ascii	"st_gid\000"
 2572      696400
 2573              	.LASF34:
 2574 01c6 5F6E6578 		.ascii	"_next\000"
 2574      7400
 2575              	.LASF143:
 2576 01cc 73745F6D 		.ascii	"st_mode\000"
 2576      6F646500 
 2577              	.LASF122:
 2578 01d4 5F6D6273 		.ascii	"_mbsrtowcs_state\000"
 2578      72746F77 
 2578      63735F73 
 2578      74617465 
 2578      00
 2579              	.LASF144:
 2580 01e5 73745F6E 		.ascii	"st_nlink\000"
 2580      6C696E6B 
 2580      00
 2581              	.LASF166:
 2582 01ee 5F667374 		.ascii	"_fstat_r\000"
 2582      61745F72 
 2582      00
 2583              	.LASF165:
ARM GAS  /var/folders/6q/x_mk5n_j3p7_c40r_2k_78980000gn/T//ccOGSDdA.s 			page 48


 2584 01f7 696E6372 		.ascii	"incr\000"
 2584      00
 2585              	.LASF28:
 2586 01fc 5F5F7661 		.ascii	"__value\000"
 2586      6C756500 
 2587              	.LASF90:
 2588 0204 5F703573 		.ascii	"_p5s\000"
 2588      00
 2589              	.LASF169:
 2590 0209 2E2E2F43 		.ascii	"../ChibiOS/os/various/syscalls.c\000"
 2590      68696269 
 2590      4F532F6F 
 2590      732F7661 
 2590      72696F75 
 2591              	.LASF124:
 2592 022a 5F776373 		.ascii	"_wcsrtombs_state\000"
 2592      72746F6D 
 2592      62735F73 
 2592      74617465 
 2592      00
 2593              	.LASF114:
 2594 023b 5F6D626C 		.ascii	"_mblen_state\000"
 2594      656E5F73 
 2594      74617465 
 2594      00
 2595              	.LASF32:
 2596 0248 63686172 		.ascii	"char\000"
 2596      00
 2597              	.LASF130:
 2598 024d 626C6B63 		.ascii	"blkcnt_t\000"
 2598      6E745F74 
 2598      00
 2599              	.LASF43:
 2600 0256 5F5F746D 		.ascii	"__tm_mday\000"
 2600      5F6D6461 
 2600      7900
 2601              	.LASF96:
 2602 0260 5F736967 		.ascii	"_sig_func\000"
 2602      5F66756E 
 2602      6300
 2603              	.LASF121:
 2604 026a 5F6D6272 		.ascii	"_mbrtowc_state\000"
 2604      746F7763 
 2604      5F737461 
 2604      746500
 2605              	.LASF95:
 2606 0279 5F617465 		.ascii	"_atexit0\000"
 2606      78697430 
 2606      00
 2607              	.LASF168:
 2608 0282 474E5520 		.ascii	"GNU C11 5.4.1 20160919 (release) [ARM/embedded-5-br"
 2608      43313120 
 2608      352E342E 
 2608      31203230 
 2608      31363039 
 2609 02b5 616E6368 		.ascii	"anch revision 240496] -mcpu=cortex-m3 -mno-thumb-in"
 2609      20726576 
ARM GAS  /var/folders/6q/x_mk5n_j3p7_c40r_2k_78980000gn/T//ccOGSDdA.s 			page 49


 2609      6973696F 
 2609      6E203234 
 2609      30343936 
 2610 02e8 74657277 		.ascii	"terwork -mthumb -ggdb -O2 -fomit-frame-pointer -fal"
 2610      6F726B20 
 2610      2D6D7468 
 2610      756D6220 
 2610      2D676764 
 2611 031b 69676E2D 		.ascii	"ign-functions=16 -ffunction-sections -fdata-section"
 2611      66756E63 
 2611      74696F6E 
 2611      733D3136 
 2611      202D6666 
 2612 034e 73202D66 		.ascii	"s -fno-common\000"
 2612      6E6F2D63 
 2612      6F6D6D6F 
 2612      6E00
 2613              	.LASF170:
 2614 035c 2F557365 		.ascii	"/Users/Luca/src/vexilla/src/teamA\000"
 2614      72732F4C 
 2614      7563612F 
 2614      7372632F 
 2614      76657869 
 2615              	.LASF30:
 2616 037e 5F666C6F 		.ascii	"_flock_t\000"
 2616      636B5F74 
 2616      00
 2617              	.LASF149:
 2618 0387 73745F61 		.ascii	"st_atime\000"
 2618      74696D65 
 2618      00
 2619              	.LASF159:
 2620 0390 66696C65 		.ascii	"file\000"
 2620      00
 2621              	.LASF24:
 2622 0395 5F5F7763 		.ascii	"__wch\000"
 2622      6800
 2623              	.LASF102:
 2624 039b 5F696F62 		.ascii	"_iobs\000"
 2624      7300
 2625              	.LASF129:
 2626 03a1 74696D65 		.ascii	"time_t\000"
 2626      5F7400
 2627              	.LASF68:
 2628 03a8 5F636C6F 		.ascii	"_close\000"
 2628      736500
 2629              	.LASF86:
 2630 03af 5F5F7364 		.ascii	"__sdidinit\000"
 2630      6964696E 
 2630      697400
 2631              	.LASF142:
 2632 03ba 73745F69 		.ascii	"st_ino\000"
 2632      6E6F00
 2633              	.LASF79:
 2634 03c1 5F737464 		.ascii	"_stdin\000"
 2634      696E00
 2635              	.LASF111:
ARM GAS  /var/folders/6q/x_mk5n_j3p7_c40r_2k_78980000gn/T//ccOGSDdA.s 			page 50


 2636 03c8 5F67616D 		.ascii	"_gamma_signgam\000"
 2636      6D615F73 
 2636      69676E67 
 2636      616D00
 2637              	.LASF1:
 2638 03d7 6C6F6E67 		.ascii	"long long int\000"
 2638      206C6F6E 
 2638      6720696E 
 2638      7400
 2639              	.LASF172:
 2640 03e5 6368436F 		.ascii	"chCoreAlloc\000"
 2640      7265416C 
 2640      6C6F6300 
 2641              	.LASF58:
 2642 03f1 5F626173 		.ascii	"_base\000"
 2642      6500
 2643              	.LASF91:
 2644 03f7 5F667265 		.ascii	"_freelist\000"
 2644      656C6973 
 2644      7400
 2645              	.LASF16:
 2646 0401 5F5F6465 		.ascii	"__dev_t\000"
 2646      765F7400 
 2647              	.LASF105:
 2648 0409 5F6D756C 		.ascii	"_mult\000"
 2648      7400
 2649              	.LASF33:
 2650 040f 5F5F554C 		.ascii	"__ULong\000"
 2650      6F6E6700 
 2651              	.LASF123:
 2652 0417 5F776372 		.ascii	"_wcrtomb_state\000"
 2652      746F6D62 
 2652      5F737461 
 2652      746500
 2653              	.LASF136:
 2654 0426 7569645F 		.ascii	"uid_t\000"
 2654      7400
 2655              	.LASF135:
 2656 042c 6465765F 		.ascii	"dev_t\000"
 2656      7400
 2657              	.LASF62:
 2658 0432 5F66696C 		.ascii	"_file\000"
 2658      6500
 2659              	.LASF173:
 2660 0438 6D656D73 		.ascii	"memset\000"
 2660      657400
 2661              	.LASF87:
 2662 043f 5F5F636C 		.ascii	"__cleanup\000"
 2662      65616E75 
 2662      7000
 2663              	.LASF29:
 2664 0449 5F6D6273 		.ascii	"_mbstate_t\000"
 2664      74617465 
 2664      5F7400
 2665              	.LASF48:
 2666 0454 5F5F746D 		.ascii	"__tm_isdst\000"
 2666      5F697364 
ARM GAS  /var/folders/6q/x_mk5n_j3p7_c40r_2k_78980000gn/T//ccOGSDdA.s 			page 51


 2666      737400
 2667              	.LASF125:
 2668 045f 5F685F65 		.ascii	"_h_errno\000"
 2668      72726E6F 
 2668      00
 2669              	.LASF150:
 2670 0468 73745F73 		.ascii	"st_spare1\000"
 2670      70617265 
 2670      3100
 2671              	.LASF152:
 2672 0472 73745F73 		.ascii	"st_spare2\000"
 2672      70617265 
 2672      3200
 2673              	.LASF154:
 2674 047c 73745F73 		.ascii	"st_spare3\000"
 2674      70617265 
 2674      3300
 2675              	.LASF157:
 2676 0486 73745F73 		.ascii	"st_spare4\000"
 2676      70617265 
 2676      3400
 2677              	.LASF163:
 2678 0490 5F636C6F 		.ascii	"_close_r\000"
 2678      73655F72 
 2678      00
 2679              	.LASF158:
 2680 0499 5F426F6F 		.ascii	"_Bool\000"
 2680      6C00
 2681              	.LASF44:
 2682 049f 5F5F746D 		.ascii	"__tm_mon\000"
 2682      5F6D6F6E 
 2682      00
 2683              	.LASF161:
 2684 04a8 5F6C7365 		.ascii	"_lseek_r\000"
 2684      656B5F72 
 2684      00
 2685              	.LASF2:
 2686 04b1 6C6F6E67 		.ascii	"long double\000"
 2686      20646F75 
 2686      626C6500 
 2687              	.LASF18:
 2688 04bd 5F5F6769 		.ascii	"__gid_t\000"
 2688      645F7400 
 2689              	.LASF66:
 2690 04c5 5F777269 		.ascii	"_write\000"
 2690      746500
 2691              	.LASF137:
 2692 04cc 6769645F 		.ascii	"gid_t\000"
 2692      7400
 2693              	.LASF54:
 2694 04d2 5F617465 		.ascii	"_atexit\000"
 2694      78697400 
 2695              	.LASF75:
 2696 04da 5F6D6273 		.ascii	"_mbstate\000"
 2696      74617465 
 2696      00
 2697              	.LASF5:
ARM GAS  /var/folders/6q/x_mk5n_j3p7_c40r_2k_78980000gn/T//ccOGSDdA.s 			page 52


 2698 04e3 73686F72 		.ascii	"short int\000"
 2698      7420696E 
 2698      7400
 2699              	.LASF7:
 2700 04ed 6C6F6E67 		.ascii	"long int\000"
 2700      20696E74 
 2700      00
 2701              	.LASF98:
 2702 04f6 5F5F7366 		.ascii	"__sf\000"
 2702      00
 2703              	.LASF36:
 2704 04fb 5F736967 		.ascii	"_sign\000"
 2704      6E00
 2705              	.LASF73:
 2706 0501 5F646174 		.ascii	"_data\000"
 2706      6100
 2707              	.LASF25:
 2708 0507 5F5F7763 		.ascii	"__wchb\000"
 2708      686200
 2709              	.LASF45:
 2710 050e 5F5F746D 		.ascii	"__tm_year\000"
 2710      5F796561 
 2710      7200
 2711              	.LASF14:
 2712 0518 5F5F626C 		.ascii	"__blksize_t\000"
 2712      6B73697A 
 2712      655F7400 
 2713              	.LASF110:
 2714 0524 5F6C6F63 		.ascii	"_localtime_buf\000"
 2714      616C7469 
 2714      6D655F62 
 2714      756600
 2715              	.LASF17:
 2716 0533 5F5F7569 		.ascii	"__uid_t\000"
 2716      645F7400 
 2717              	.LASF153:
 2718 053b 73745F63 		.ascii	"st_ctime\000"
 2718      74696D65 
 2718      00
 2719              	.LASF94:
 2720 0544 5F6E6577 		.ascii	"_new\000"
 2720      00
 2721              	.LASF92:
 2722 0549 5F637674 		.ascii	"_cvtlen\000"
 2722      6C656E00 
 2723              	.LASF35:
 2724 0551 5F6D6178 		.ascii	"_maxwds\000"
 2724      77647300 
 2725              	.LASF117:
 2726 0559 5F6C3634 		.ascii	"_l64a_buf\000"
 2726      615F6275 
 2726      6600
 2727              	.LASF132:
 2728 0563 63616464 		.ascii	"caddr_t\000"
 2728      725F7400 
 2729              	.LASF71:
 2730 056b 5F626C6B 		.ascii	"_blksize\000"
ARM GAS  /var/folders/6q/x_mk5n_j3p7_c40r_2k_78980000gn/T//ccOGSDdA.s 			page 53


 2730      73697A65 
 2730      00
 2731              	.LASF39:
 2732 0574 5F5F746D 		.ascii	"__tm\000"
 2732      00
 2733              	.LASF74:
 2734 0579 5F6C6F63 		.ascii	"_lock\000"
 2734      6B00
 2735              	.LASF26:
 2736 057f 73697A65 		.ascii	"sizetype\000"
 2736      74797065 
 2736      00
 2737              	.LASF10:
 2738 0588 6C6F6E67 		.ascii	"long unsigned int\000"
 2738      20756E73 
 2738      69676E65 
 2738      6420696E 
 2738      7400
 2739              	.LASF101:
 2740 059a 5F6E696F 		.ascii	"_niobs\000"
 2740      627300
 2741              	.LASF23:
 2742 05a1 77696E74 		.ascii	"wint_t\000"
 2742      5F7400
 2743              	.LASF51:
 2744 05a8 5F64736F 		.ascii	"_dso_handle\000"
 2744      5F68616E 
 2744      646C6500 
 2745              	.LASF139:
 2746 05b4 6E6C696E 		.ascii	"nlink_t\000"
 2746      6B5F7400 
 2747              	.LASF93:
 2748 05bc 5F637674 		.ascii	"_cvtbuf\000"
 2748      62756600 
 2749              	.LASF4:
 2750 05c4 756E7369 		.ascii	"unsigned char\000"
 2750      676E6564 
 2750      20636861 
 2750      7200
 2751              	.LASF9:
 2752 05d2 5F5F7569 		.ascii	"__uint32_t\000"
 2752      6E743332 
 2752      5F7400
 2753              	.LASF119:
 2754 05dd 5F676574 		.ascii	"_getdate_err\000"
 2754      64617465 
 2754      5F657272 
 2754      00
 2755              	.LASF106:
 2756 05ea 5F616464 		.ascii	"_add\000"
 2756      00
 2757              	.LASF131:
 2758 05ef 626C6B73 		.ascii	"blksize_t\000"
 2758      697A655F 
 2758      7400
 2759              	.LASF128:
 2760 05f9 5F756E75 		.ascii	"_unused\000"
ARM GAS  /var/folders/6q/x_mk5n_j3p7_c40r_2k_78980000gn/T//ccOGSDdA.s 			page 54


 2760      73656400 
 2761              	.LASF57:
 2762 0601 5F5F7362 		.ascii	"__sbuf\000"
 2762      756600
 2763              	.LASF148:
 2764 0608 73745F73 		.ascii	"st_size\000"
 2764      697A6500 
 2765              	.LASF100:
 2766 0610 5F676C75 		.ascii	"_glue\000"
 2766      6500
 2767              	.LASF97:
 2768 0616 5F5F7367 		.ascii	"__sglue\000"
 2768      6C756500 
 2769              	.LASF108:
 2770 061e 5F737472 		.ascii	"_strtok_last\000"
 2770      746F6B5F 
 2770      6C617374 
 2770      00
 2771              	.LASF115:
 2772 062b 5F6D6274 		.ascii	"_mbtowc_state\000"
 2772      6F77635F 
 2772      73746174 
 2772      6500
 2773              	.LASF21:
 2774 0639 5F5F6F66 		.ascii	"__off_t\000"
 2774      665F7400 
 2775              	.LASF85:
 2776 0641 5F6C6F63 		.ascii	"_locale\000"
 2776      616C6500 
 2777              	.LASF50:
 2778 0649 5F666E61 		.ascii	"_fnargs\000"
 2778      72677300 
 2779              	.LASF3:
 2780 0651 7369676E 		.ascii	"signed char\000"
 2780      65642063 
 2780      68617200 
 2781              	.LASF138:
 2782 065d 6D6F6465 		.ascii	"mode_t\000"
 2782      5F7400
 2783              	.LASF77:
 2784 0664 5F726565 		.ascii	"_reent\000"
 2784      6E7400
 2785              	.LASF134:
 2786 066b 6F66665F 		.ascii	"off_t\000"
 2786      7400
 2787              	.LASF6:
 2788 0671 73686F72 		.ascii	"short unsigned int\000"
 2788      7420756E 
 2788      7369676E 
 2788      65642069 
 2788      6E7400
 2789              	.LASF52:
 2790 0684 5F666E74 		.ascii	"_fntypes\000"
 2790      79706573 
 2790      00
 2791              	.LASF59:
 2792 068d 5F73697A 		.ascii	"_size\000"
ARM GAS  /var/folders/6q/x_mk5n_j3p7_c40r_2k_78980000gn/T//ccOGSDdA.s 			page 55


 2792      6500
 2793              	.LASF13:
 2794 0693 5F5F626C 		.ascii	"__blkcnt_t\000"
 2794      6B636E74 
 2794      5F7400
 2795              	.LASF15:
 2796 069e 5F6F6666 		.ascii	"_off_t\000"
 2796      5F7400
 2797              	.LASF70:
 2798 06a5 5F6E6275 		.ascii	"_nbuf\000"
 2798      6600
 2799              	.LASF107:
 2800 06ab 5F756E75 		.ascii	"_unused_rand\000"
 2800      7365645F 
 2800      72616E64 
 2800      00
 2801              	.LASF147:
 2802 06b8 73745F72 		.ascii	"st_rdev\000"
 2802      64657600 
 2803              	.LASF145:
 2804 06c0 73745F75 		.ascii	"st_uid\000"
 2804      696400
 2805              	.LASF84:
 2806 06c7 5F756E73 		.ascii	"_unspecified_locale_info\000"
 2806      70656369 
 2806      66696564 
 2806      5F6C6F63 
 2806      616C655F 
 2807              	.LASF76:
 2808 06e0 5F666C61 		.ascii	"_flags2\000"
 2808      67733200 
 2809              	.LASF53:
 2810 06e8 5F69735F 		.ascii	"_is_cxa\000"
 2810      63786100 
 2811              	.LASF104:
 2812 06f0 5F736565 		.ascii	"_seed\000"
 2812      6400
 2813              	.LASF112:
 2814 06f6 5F72616E 		.ascii	"_rand_next\000"
 2814      645F6E65 
 2814      787400
 2815              	.LASF171:
 2816 0701 5F5F6C6F 		.ascii	"__locale_t\000"
 2816      63616C65 
 2816      5F7400
 2817              	.LASF67:
 2818 070c 5F736565 		.ascii	"_seek\000"
 2818      6B00
 2819              	.LASF81:
 2820 0712 5F737464 		.ascii	"_stderr\000"
 2820      65727200 
 2821              	.LASF127:
 2822 071a 5F6E6D61 		.ascii	"_nmalloc\000"
 2822      6C6C6F63 
 2822      00
 2823              	.LASF69:
 2824 0723 5F756275 		.ascii	"_ubuf\000"
ARM GAS  /var/folders/6q/x_mk5n_j3p7_c40r_2k_78980000gn/T//ccOGSDdA.s 			page 56


 2824      6600
 2825              		.ident	"GCC: (GNU Tools for ARM Embedded Processors) 5.4.1 20160919 (release) [ARM/embedded-5-bran
ARM GAS  /var/folders/6q/x_mk5n_j3p7_c40r_2k_78980000gn/T//ccOGSDdA.s 			page 57


DEFINED SYMBOLS
                            *ABS*:0000000000000000 syscalls.c
/var/folders/6q/x_mk5n_j3p7_c40r_2k_78980000gn/T//ccOGSDdA.s:20     .text._read_r:0000000000000000 $t
/var/folders/6q/x_mk5n_j3p7_c40r_2k_78980000gn/T//ccOGSDdA.s:26     .text._read_r:0000000000000000 _read_r
/var/folders/6q/x_mk5n_j3p7_c40r_2k_78980000gn/T//ccOGSDdA.s:47     .text._lseek_r:0000000000000000 $t
/var/folders/6q/x_mk5n_j3p7_c40r_2k_78980000gn/T//ccOGSDdA.s:53     .text._lseek_r:0000000000000000 _lseek_r
/var/folders/6q/x_mk5n_j3p7_c40r_2k_78980000gn/T//ccOGSDdA.s:69     .text._write_r:0000000000000000 $t
/var/folders/6q/x_mk5n_j3p7_c40r_2k_78980000gn/T//ccOGSDdA.s:75     .text._write_r:0000000000000000 _write_r
/var/folders/6q/x_mk5n_j3p7_c40r_2k_78980000gn/T//ccOGSDdA.s:91     .text._close_r:0000000000000000 $t
/var/folders/6q/x_mk5n_j3p7_c40r_2k_78980000gn/T//ccOGSDdA.s:97     .text._close_r:0000000000000000 _close_r
/var/folders/6q/x_mk5n_j3p7_c40r_2k_78980000gn/T//ccOGSDdA.s:113    .text._sbrk_r:0000000000000000 $t
/var/folders/6q/x_mk5n_j3p7_c40r_2k_78980000gn/T//ccOGSDdA.s:119    .text._sbrk_r:0000000000000000 _sbrk_r
/var/folders/6q/x_mk5n_j3p7_c40r_2k_78980000gn/T//ccOGSDdA.s:155    .text._fstat_r:0000000000000000 $t
/var/folders/6q/x_mk5n_j3p7_c40r_2k_78980000gn/T//ccOGSDdA.s:161    .text._fstat_r:0000000000000000 _fstat_r
/var/folders/6q/x_mk5n_j3p7_c40r_2k_78980000gn/T//ccOGSDdA.s:193    .text._isatty_r:0000000000000000 $t
/var/folders/6q/x_mk5n_j3p7_c40r_2k_78980000gn/T//ccOGSDdA.s:199    .text._isatty_r:0000000000000000 _isatty_r
                     .debug_frame:0000000000000010 $d

UNDEFINED SYMBOLS
chCoreAlloc
memset
