ARM GAS  /var/folders/6q/x_mk5n_j3p7_c40r_2k_78980000gn/T//ccfzD2aX.s 			page 1


   1              		.syntax unified
   2              		.cpu cortex-m3
   3              		.fpu softvfp
   4              		.eabi_attribute 20, 1
   5              		.eabi_attribute 21, 1
   6              		.eabi_attribute 23, 3
   7              		.eabi_attribute 24, 1
   8              		.eabi_attribute 25, 1
   9              		.eabi_attribute 26, 1
  10              		.eabi_attribute 30, 2
  11              		.eabi_attribute 34, 1
  12              		.eabi_attribute 18, 4
  13              		.thumb
  14              		.syntax unified
  15              		.file	"tm.c"
  16              		.text
  17              	.Ltext0:
  18              		.cfi_sections	.debug_frame
  19              		.section	.text.tm_start,"ax",%progbits
  20              		.align	2
  21              		.p2align 4,,15
  22              		.thumb
  23              		.thumb_func
  24              		.type	tm_start, %function
  25              	tm_start:
  26              	.LFB63:
  27              		.file 1 "../ChibiOS/os/hal/src/tm.c"
  28              		.loc 1 69 0
  29              		.cfi_startproc
  30              		@ args = 0, pretend = 0, frame = 0
  31              		@ frame_needed = 0, uses_anonymous_args = 0
  32              		@ link register save eliminated.
  33              	.LVL0:
  34              		.loc 1 71 0
  35 0000 014B     		ldr	r3, .L2
  36 0002 5B68     		ldr	r3, [r3, #4]
  37 0004 8360     		str	r3, [r0, #8]
  38 0006 7047     		bx	lr
  39              	.L3:
  40              		.align	2
  41              	.L2:
  42 0008 001000E0 		.word	-536866816
  43              		.cfi_endproc
  44              	.LFE63:
  45              		.size	tm_start, .-tm_start
  46              		.section	.text.tm_stop,"ax",%progbits
  47              		.align	2
  48              		.p2align 4,,15
  49              		.thumb
  50              		.thumb_func
  51              		.type	tm_stop, %function
  52              	tm_stop:
  53              	.LFB64:
  54              		.loc 1 81 0
  55              		.cfi_startproc
  56              		@ args = 0, pretend = 0, frame = 0
  57              		@ frame_needed = 0, uses_anonymous_args = 0
ARM GAS  /var/folders/6q/x_mk5n_j3p7_c40r_2k_78980000gn/T//ccfzD2aX.s 			page 2


  58              		@ link register save eliminated.
  59              	.LVL1:
  60              		.loc 1 83 0
  61 0000 084A     		ldr	r2, .L9
  62              		.loc 1 84 0
  63 0002 0949     		ldr	r1, .L9+4
  64              		.loc 1 83 0
  65 0004 5268     		ldr	r2, [r2, #4]
  66              	.LVL2:
  67              		.loc 1 84 0
  68 0006 8368     		ldr	r3, [r0, #8]
  69 0008 0968     		ldr	r1, [r1]
  70 000a D31A     		subs	r3, r2, r3
  71              		.loc 1 85 0
  72 000c C268     		ldr	r2, [r0, #12]
  73              	.LVL3:
  74              		.loc 1 84 0
  75 000e 5B1A     		subs	r3, r3, r1
  76              		.loc 1 85 0
  77 0010 9342     		cmp	r3, r2
  78              		.loc 1 84 0
  79 0012 8360     		str	r3, [r0, #8]
  80              		.loc 1 85 0
  81 0014 04D8     		bhi	.L8
  82              		.loc 1 87 0
  83 0016 0269     		ldr	r2, [r0, #16]
  84 0018 9342     		cmp	r3, r2
  85              		.loc 1 88 0
  86 001a 38BF     		it	cc
  87 001c 0361     		strcc	r3, [r0, #16]
  88 001e 7047     		bx	lr
  89              	.L8:
  90              		.loc 1 86 0
  91 0020 C360     		str	r3, [r0, #12]
  92 0022 7047     		bx	lr
  93              	.L10:
  94              		.align	2
  95              	.L9:
  96 0024 001000E0 		.word	-536866816
  97 0028 00000000 		.word	.LANCHOR0
  98              		.cfi_endproc
  99              	.LFE64:
 100              		.size	tm_stop, .-tm_stop
 101              		.section	.text.tmInit,"ax",%progbits
 102              		.align	2
 103              		.p2align 4,,15
 104              		.global	tmInit
 105              		.thumb
 106              		.thumb_func
 107              		.type	tmInit, %function
 108              	tmInit:
 109              	.LFB65:
 110              		.loc 1 104 0
 111              		.cfi_startproc
 112              		@ args = 0, pretend = 0, frame = 24
 113              		@ frame_needed = 0, uses_anonymous_args = 0
 114 0000 10B5     		push	{r4, lr}
ARM GAS  /var/folders/6q/x_mk5n_j3p7_c40r_2k_78980000gn/T//ccfzD2aX.s 			page 3


 115              		.cfi_def_cfa_offset 8
 116              		.cfi_offset 4, -8
 117              		.cfi_offset 14, -4
 118              		.loc 1 110 0
 119 0002 0B4C     		ldr	r4, .L13
 120              		.loc 1 104 0
 121 0004 86B0     		sub	sp, sp, #24
 122              		.cfi_def_cfa_offset 32
 123              		.loc 1 110 0
 124 0006 0023     		movs	r3, #0
 125              	.LBB8:
 126              	.LBB9:
 127              		.loc 1 130 0
 128 0008 4FF0FF31 		mov	r1, #-1
 129              	.LBE9:
 130              	.LBE8:
 131              	.LBB14:
 132              	.LBB15:
 133              		.loc 1 71 0
 134 000c 094A     		ldr	r2, .L13+4
 135              	.LBE15:
 136              	.LBE14:
 137              		.loc 1 110 0
 138 000e 2360     		str	r3, [r4]
 139              	.LVL4:
 140              	.LBB18:
 141              	.LBB10:
 142              		.loc 1 129 0
 143 0010 0493     		str	r3, [sp, #16]
 144              		.loc 1 130 0
 145 0012 0591     		str	r1, [sp, #20]
 146              	.LVL5:
 147              	.LBE10:
 148              	.LBE18:
 149              	.LBB19:
 150              	.LBB16:
 151              		.loc 1 71 0
 152 0014 5168     		ldr	r1, [r2, #4]
 153              	.LBE16:
 154              	.LBE19:
 155              	.LBB20:
 156              	.LBB11:
 157              		.loc 1 127 0
 158 0016 084B     		ldr	r3, .L13+8
 159              		.loc 1 126 0
 160 0018 084A     		ldr	r2, .L13+12
 161              	.LBE11:
 162              	.LBE20:
 163              		.loc 1 113 0
 164 001a 01A8     		add	r0, sp, #4
 165              	.LVL6:
 166              	.LBB21:
 167              	.LBB12:
 168              		.loc 1 127 0
 169 001c 0293     		str	r3, [sp, #8]
 170              	.LBE12:
 171              	.LBE21:
ARM GAS  /var/folders/6q/x_mk5n_j3p7_c40r_2k_78980000gn/T//ccfzD2aX.s 			page 4


 172              	.LBB22:
 173              	.LBB17:
 174              		.loc 1 71 0
 175 001e 0391     		str	r1, [sp, #12]
 176              	.LVL7:
 177              	.LBE17:
 178              	.LBE22:
 179              	.LBB23:
 180              	.LBB13:
 181              		.loc 1 126 0
 182 0020 0192     		str	r2, [sp, #4]
 183              	.LBE13:
 184              	.LBE23:
 185              		.loc 1 113 0
 186 0022 FFF7FEFF 		bl	tm_stop
 187              	.LVL8:
 188              		.loc 1 114 0
 189 0026 039B     		ldr	r3, [sp, #12]
 190 0028 2360     		str	r3, [r4]
 191              		.loc 1 115 0
 192 002a 06B0     		add	sp, sp, #24
 193              		.cfi_def_cfa_offset 8
 194              		@ sp needed
 195 002c 10BD     		pop	{r4, pc}
 196              	.L14:
 197 002e 00BF     		.align	2
 198              	.L13:
 199 0030 00000000 		.word	.LANCHOR0
 200 0034 001000E0 		.word	-536866816
 201 0038 00000000 		.word	tm_stop
 202 003c 00000000 		.word	tm_start
 203              		.cfi_endproc
 204              	.LFE65:
 205              		.size	tmInit, .-tmInit
 206              		.section	.text.tmObjectInit,"ax",%progbits
 207              		.align	2
 208              		.p2align 4,,15
 209              		.global	tmObjectInit
 210              		.thumb
 211              		.thumb_func
 212              		.type	tmObjectInit, %function
 213              	tmObjectInit:
 214              	.LFB66:
 215              		.loc 1 124 0
 216              		.cfi_startproc
 217              		@ args = 0, pretend = 0, frame = 0
 218              		@ frame_needed = 0, uses_anonymous_args = 0
 219              		@ link register save eliminated.
 220              	.LVL9:
 221 0000 10B4     		push	{r4}
 222              		.cfi_def_cfa_offset 4
 223              		.cfi_offset 4, -4
 224              		.loc 1 127 0
 225 0002 0649     		ldr	r1, .L17
 226              		.loc 1 126 0
 227 0004 064C     		ldr	r4, .L17+4
 228              		.loc 1 128 0
ARM GAS  /var/folders/6q/x_mk5n_j3p7_c40r_2k_78980000gn/T//ccfzD2aX.s 			page 5


 229 0006 0023     		movs	r3, #0
 230              		.loc 1 130 0
 231 0008 4FF0FF32 		mov	r2, #-1
 232              		.loc 1 126 0
 233 000c 0460     		str	r4, [r0]
 234              		.loc 1 127 0
 235 000e 4160     		str	r1, [r0, #4]
 236              		.loc 1 130 0
 237 0010 0261     		str	r2, [r0, #16]
 238              		.loc 1 128 0
 239 0012 8360     		str	r3, [r0, #8]
 240              		.loc 1 129 0
 241 0014 C360     		str	r3, [r0, #12]
 242              		.loc 1 131 0
 243 0016 10BC     		pop	{r4}
 244              		.cfi_restore 4
 245              		.cfi_def_cfa_offset 0
 246 0018 7047     		bx	lr
 247              	.L18:
 248 001a 00BF     		.align	2
 249              	.L17:
 250 001c 00000000 		.word	tm_stop
 251 0020 00000000 		.word	tm_start
 252              		.cfi_endproc
 253              	.LFE66:
 254              		.size	tmObjectInit, .-tmObjectInit
 255              		.section	.bss.measurement_offset,"aw",%nobits
 256              		.align	2
 257              		.set	.LANCHOR0,. + 0
 258              		.type	measurement_offset, %object
 259              		.size	measurement_offset, 4
 260              	measurement_offset:
 261 0000 00000000 		.space	4
 262              		.text
 263              	.Letext0:
 264              		.file 2 "/Users/Luca/src/vexilla/src/gcc-arm-none-eabi-5_4-2016q3/arm-none-eabi/include/machine/_d
 265              		.file 3 "/Users/Luca/src/vexilla/src/gcc-arm-none-eabi-5_4-2016q3/arm-none-eabi/include/sys/_stdin
 266              		.file 4 "../ChibiOS/os/ports/common/ARMCMx/nvic.h"
 267              		.file 5 "../ChibiOS/os/hal/platforms/STM32F1xx/hal_lld.h"
 268              		.file 6 "../ChibiOS/os/hal/include/tm.h"
 269              		.file 7 "../ChibiOS/os/ports/common/ARMCMx/CMSIS/include/core_cm3.h"