ARM GAS  /var/folders/6q/x_mk5n_j3p7_c40r_2k_78980000gn/T//ccfzD2aX.s 			page 1


   1              		.syntax unified
   2              		.cpu cortex-m3
   3              		.fpu softvfp
   4              		.eabi_attribute 20, 1
   5              		.eabi_attribute 21, 1
   6              		.eabi_attribute 23, 3
   7              		.eabi_attribute 24, 1
   8              		.eabi_attribute 25, 1
   9              		.eabi_attribute 26, 1
  10              		.eabi_attribute 30, 2
  11              		.eabi_attribute 34, 1
  12              		.eabi_attribute 18, 4
  13              		.thumb
  14              		.syntax unified
  15              		.file	"tm.c"
  16              		.text
  17              	.Ltext0:
  18              		.cfi_sections	.debug_frame
  19              		.section	.text.tm_start,"ax",%progbits
  20              		.align	2
  21              		.p2align 4,,15
  22              		.thumb
  23              		.thumb_func
  24              		.type	tm_start, %function
  25              	tm_start:
  26              	.LFB63:
  27              		.file 1 "../ChibiOS/os/hal/src/tm.c"
  28              		.loc 1 69 0
  29              		.cfi_startproc
  30              		@ args = 0, pretend = 0, frame = 0
  31              		@ frame_needed = 0, uses_anonymous_args = 0
  32              		@ link register save eliminated.
  33              	.LVL0:
  34              		.loc 1 71 0
  35 0000 014B     		ldr	r3, .L2
  36 0002 5B68     		ldr	r3, [r3, #4]
  37 0004 8360     		str	r3, [r0, #8]
  38 0006 7047     		bx	lr
  39              	.L3:
  40              		.align	2
  41              	.L2:
  42 0008 001000E0 		.word	-536866816
  43              		.cfi_endproc
  44              	.LFE63:
  45              		.size	tm_start, .-tm_start
  46              		.section	.text.tm_stop,"ax",%progbits
  47              		.align	2
  48              		.p2align 4,,15
  49              		.thumb
  50              		.thumb_func
  51              		.type	tm_stop, %function
  52              	tm_stop:
  53              	.LFB64:
  54              		.loc 1 81 0
  55              		.cfi_startproc
  56              		@ args = 0, pretend = 0, frame = 0
  57              		@ frame_needed = 0, uses_anonymous_args = 0
ARM GAS  /var/folders/6q/x_mk5n_j3p7_c40r_2k_78980000gn/T//ccfzD2aX.s 			page 2


  58              		@ link register save eliminated.
  59              	.LVL1:
  60              		.loc 1 83 0
  61 0000 084A     		ldr	r2, .L9
  62              		.loc 1 84 0
  63 0002 0949     		ldr	r1, .L9+4
  64              		.loc 1 83 0
  65 0004 5268     		ldr	r2, [r2, #4]
  66              	.LVL2:
  67              		.loc 1 84 0
  68 0006 8368     		ldr	r3, [r0, #8]
  69 0008 0968     		ldr	r1, [r1]
  70 000a D31A     		subs	r3, r2, r3
  71              		.loc 1 85 0
  72 000c C268     		ldr	r2, [r0, #12]
  73              	.LVL3:
  74              		.loc 1 84 0
  75 000e 5B1A     		subs	r3, r3, r1
  76              		.loc 1 85 0
  77 0010 9342     		cmp	r3, r2
  78              		.loc 1 84 0
  79 0012 8360     		str	r3, [r0, #8]
  80              		.loc 1 85 0
  81 0014 04D8     		bhi	.L8
  82              		.loc 1 87 0
  83 0016 0269     		ldr	r2, [r0, #16]
  84 0018 9342     		cmp	r3, r2
  85              		.loc 1 88 0
  86 001a 38BF     		it	cc
  87 001c 0361     		strcc	r3, [r0, #16]
  88 001e 7047     		bx	lr
  89              	.L8:
  90              		.loc 1 86 0
  91 0020 C360     		str	r3, [r0, #12]
  92 0022 7047     		bx	lr
  93              	.L10:
  94              		.align	2
  95              	.L9:
  96 0024 001000E0 		.word	-536866816
  97 0028 00000000 		.word	.LANCHOR0
  98              		.cfi_endproc
  99              	.LFE64:
 100              		.size	tm_stop, .-tm_stop
 101              		.section	.text.tmInit,"ax",%progbits
 102              		.align	2
 103              		.p2align 4,,15
 104              		.global	tmInit
 105              		.thumb
 106              		.thumb_func
 107              		.type	tmInit, %function
 108              	tmInit:
 109              	.LFB65:
 110              		.loc 1 104 0
 111              		.cfi_startproc
 112              		@ args = 0, pretend = 0, frame = 24
 113              		@ frame_needed = 0, uses_anonymous_args = 0
 114 0000 10B5     		push	{r4, lr}
ARM GAS  /var/folders/6q/x_mk5n_j3p7_c40r_2k_78980000gn/T//ccfzD2aX.s 			page 3


 115              		.cfi_def_cfa_offset 8
 116              		.cfi_offset 4, -8
 117              		.cfi_offset 14, -4
 118              		.loc 1 110 0
 119 0002 0B4C     		ldr	r4, .L13
 120              		.loc 1 104 0
 121 0004 86B0     		sub	sp, sp, #24
 122              		.cfi_def_cfa_offset 32
 123              		.loc 1 110 0
 124 0006 0023     		movs	r3, #0
 125              	.LBB8:
 126              	.LBB9:
 127              		.loc 1 130 0
 128 0008 4FF0FF31 		mov	r1, #-1
 129              	.LBE9:
 130              	.LBE8:
 131              	.LBB14:
 132              	.LBB15:
 133              		.loc 1 71 0
 134 000c 094A     		ldr	r2, .L13+4
 135              	.LBE15:
 136              	.LBE14:
 137              		.loc 1 110 0
 138 000e 2360     		str	r3, [r4]
 139              	.LVL4:
 140              	.LBB18:
 141              	.LBB10:
 142              		.loc 1 129 0
 143 0010 0493     		str	r3, [sp, #16]
 144              		.loc 1 130 0
 145 0012 0591     		str	r1, [sp, #20]
 146              	.LVL5:
 147              	.LBE10:
 148              	.LBE18:
 149              	.LBB19:
 150              	.LBB16:
 151              		.loc 1 71 0
 152 0014 5168     		ldr	r1, [r2, #4]
 153              	.LBE16:
 154              	.LBE19:
 155              	.LBB20:
 156              	.LBB11:
 157              		.loc 1 127 0
 158 0016 084B     		ldr	r3, .L13+8
 159              		.loc 1 126 0
 160 0018 084A     		ldr	r2, .L13+12
 161              	.LBE11:
 162              	.LBE20:
 163              		.loc 1 113 0
 164 001a 01A8     		add	r0, sp, #4
 165              	.LVL6:
 166              	.LBB21:
 167              	.LBB12:
 168              		.loc 1 127 0
 169 001c 0293     		str	r3, [sp, #8]
 170              	.LBE12:
 171              	.LBE21:
ARM GAS  /var/folders/6q/x_mk5n_j3p7_c40r_2k_78980000gn/T//ccfzD2aX.s 			page 4


 172              	.LBB22:
 173              	.LBB17:
 174              		.loc 1 71 0
 175 001e 0391     		str	r1, [sp, #12]
 176              	.LVL7:
 177              	.LBE17:
 178              	.LBE22:
 179              	.LBB23:
 180              	.LBB13:
 181              		.loc 1 126 0
 182 0020 0192     		str	r2, [sp, #4]
 183              	.LBE13:
 184              	.LBE23:
 185              		.loc 1 113 0
 186 0022 FFF7FEFF 		bl	tm_stop
 187              	.LVL8:
 188              		.loc 1 114 0
 189 0026 039B     		ldr	r3, [sp, #12]
 190 0028 2360     		str	r3, [r4]
 191              		.loc 1 115 0
 192 002a 06B0     		add	sp, sp, #24
 193              		.cfi_def_cfa_offset 8
 194              		@ sp needed
 195 002c 10BD     		pop	{r4, pc}
 196              	.L14:
 197 002e 00BF     		.align	2
 198              	.L13:
 199 0030 00000000 		.word	.LANCHOR0
 200 0034 001000E0 		.word	-536866816
 201 0038 00000000 		.word	tm_stop
 202 003c 00000000 		.word	tm_start
 203              		.cfi_endproc
 204              	.LFE65:
 205              		.size	tmInit, .-tmInit
 206              		.section	.text.tmObjectInit,"ax",%progbits
 207              		.align	2
 208              		.p2align 4,,15
 209              		.global	tmObjectInit
 210              		.thumb
 211              		.thumb_func
 212              		.type	tmObjectInit, %function
 213              	tmObjectInit:
 214              	.LFB66:
 215              		.loc 1 124 0
 216              		.cfi_startproc
 217              		@ args = 0, pretend = 0, frame = 0
 218              		@ frame_needed = 0, uses_anonymous_args = 0
 219              		@ link register save eliminated.
 220              	.LVL9:
 221 0000 10B4     		push	{r4}
 222              		.cfi_def_cfa_offset 4
 223              		.cfi_offset 4, -4
 224              		.loc 1 127 0
 225 0002 0649     		ldr	r1, .L17
 226              		.loc 1 126 0
 227 0004 064C     		ldr	r4, .L17+4
 228              		.loc 1 128 0
ARM GAS  /var/folders/6q/x_mk5n_j3p7_c40r_2k_78980000gn/T//ccfzD2aX.s 			page 5


 229 0006 0023     		movs	r3, #0
 230              		.loc 1 130 0
 231 0008 4FF0FF32 		mov	r2, #-1
 232              		.loc 1 126 0
 233 000c 0460     		str	r4, [r0]
 234              		.loc 1 127 0
 235 000e 4160     		str	r1, [r0, #4]
 236              		.loc 1 130 0
 237 0010 0261     		str	r2, [r0, #16]
 238              		.loc 1 128 0
 239 0012 8360     		str	r3, [r0, #8]
 240              		.loc 1 129 0
 241 0014 C360     		str	r3, [r0, #12]
 242              		.loc 1 131 0
 243 0016 10BC     		pop	{r4}
 244              		.cfi_restore 4
 245              		.cfi_def_cfa_offset 0
 246 0018 7047     		bx	lr
 247              	.L18:
 248 001a 00BF     		.align	2
 249              	.L17:
 250 001c 00000000 		.word	tm_stop
 251 0020 00000000 		.word	tm_start
 252              		.cfi_endproc
 253              	.LFE66:
 254              		.size	tmObjectInit, .-tmObjectInit
 255              		.section	.bss.measurement_offset,"aw",%nobits
 256              		.align	2
 257              		.set	.LANCHOR0,. + 0
 258              		.type	measurement_offset, %object
 259              		.size	measurement_offset, 4
 260              	measurement_offset:
 261 0000 00000000 		.space	4
 262              		.text
 263              	.Letext0:
 264              		.file 2 "/Users/Luca/src/vexilla/src/gcc-arm-none-eabi-5_4-2016q3/arm-none-eabi/include/machine/_d
 265              		.file 3 "/Users/Luca/src/vexilla/src/gcc-arm-none-eabi-5_4-2016q3/arm-none-eabi/include/sys/_stdin
 266              		.file 4 "../ChibiOS/os/ports/common/ARMCMx/nvic.h"
 267              		.file 5 "../ChibiOS/os/hal/platforms/STM32F1xx/hal_lld.h"
 268              		.file 6 "../ChibiOS/os/hal/include/tm.h"
 269              		.file 7 "../ChibiOS/os/ports/common/ARMCMx/CMSIS/include/core_cm3.h"
 270              		.section	.debug_info,"",%progbits
 271              	.Ldebug_info0:
 272 0000 DB020000 		.4byte	0x2db
 273 0004 0400     		.2byte	0x4
 274 0006 00000000 		.4byte	.Ldebug_abbrev0
 275 000a 04       		.byte	0x4
 276 000b 01       		.uleb128 0x1
 277 000c 16010000 		.4byte	.LASF35
 278 0010 0C       		.byte	0xc
 279 0011 05000000 		.4byte	.LASF36
 280 0015 41020000 		.4byte	.LASF37
 281 0019 50000000 		.4byte	.Ldebug_ranges0+0x50
 282 001d 00000000 		.4byte	0
 283 0021 00000000 		.4byte	.Ldebug_line0
 284 0025 02       		.uleb128 0x2
 285 0026 04       		.byte	0x4
ARM GAS  /var/folders/6q/x_mk5n_j3p7_c40r_2k_78980000gn/T//ccfzD2aX.s 			page 6


 286 0027 05       		.byte	0x5
 287 0028 696E7400 		.ascii	"int\000"
 288 002c 03       		.uleb128 0x3
 289 002d 04       		.byte	0x4
 290 002e 07       		.byte	0x7
 291 002f E4000000 		.4byte	.LASF0
 292 0033 03       		.uleb128 0x3
 293 0034 08       		.byte	0x8
 294 0035 05       		.byte	0x5
 295 0036 01020000 		.4byte	.LASF1
 296 003a 03       		.uleb128 0x3
 297 003b 08       		.byte	0x8
 298 003c 04       		.byte	0x4
 299 003d 75020000 		.4byte	.LASF2
 300 0041 03       		.uleb128 0x3
 301 0042 01       		.byte	0x1
 302 0043 06       		.byte	0x6
 303 0044 81020000 		.4byte	.LASF3
 304 0048 03       		.uleb128 0x3
 305 0049 01       		.byte	0x1
 306 004a 08       		.byte	0x8
 307 004b 62000000 		.4byte	.LASF4
 308 004f 03       		.uleb128 0x3
 309 0050 02       		.byte	0x2
 310 0051 05       		.byte	0x5
 311 0052 2A020000 		.4byte	.LASF5
 312 0056 03       		.uleb128 0x3
 313 0057 02       		.byte	0x2
 314 0058 07       		.byte	0x7
 315 0059 9D000000 		.4byte	.LASF6
 316 005d 04       		.uleb128 0x4
 317 005e 25000000 		.4byte	.LASF8
 318 0062 02       		.byte	0x2
 319 0063 3F       		.byte	0x3f
 320 0064 68000000 		.4byte	0x68
 321 0068 03       		.uleb128 0x3
 322 0069 04       		.byte	0x4
 323 006a 05       		.byte	0x5
 324 006b 6C020000 		.4byte	.LASF7
 325 006f 04       		.uleb128 0x4
 326 0070 D2000000 		.4byte	.LASF9
 327 0074 02       		.byte	0x2
 328 0075 41       		.byte	0x41
 329 0076 7A000000 		.4byte	0x7a
 330 007a 03       		.uleb128 0x3
 331 007b 04       		.byte	0x4
 332 007c 07       		.byte	0x7
 333 007d 7E000000 		.4byte	.LASF10
 334 0081 03       		.uleb128 0x3
 335 0082 08       		.byte	0x8
 336 0083 07       		.byte	0x7
 337 0084 4B000000 		.4byte	.LASF11
 338 0088 04       		.uleb128 0x4
 339 0089 F0010000 		.4byte	.LASF12
 340 008d 03       		.byte	0x3
 341 008e 2C       		.byte	0x2c
 342 008f 5D000000 		.4byte	0x5d
ARM GAS  /var/folders/6q/x_mk5n_j3p7_c40r_2k_78980000gn/T//ccfzD2aX.s 			page 7


 343 0093 04       		.uleb128 0x4
 344 0094 63020000 		.4byte	.LASF13
 345 0098 03       		.byte	0x3
 346 0099 30       		.byte	0x30
 347 009a 6F000000 		.4byte	0x6f
 348 009e 03       		.uleb128 0x3
 349 009f 01       		.byte	0x1
 350 00a0 02       		.byte	0x2
 351 00a1 9D020000 		.4byte	.LASF14
 352 00a5 04       		.uleb128 0x4
 353 00a6 0F020000 		.4byte	.LASF15
 354 00aa 04       		.byte	0x4
 355 00ab 3A       		.byte	0x3a
 356 00ac B0000000 		.4byte	0xb0
 357 00b0 05       		.uleb128 0x5
 358 00b1 93000000 		.4byte	0x93
 359 00b5 03       		.uleb128 0x3
 360 00b6 04       		.byte	0x4
 361 00b7 07       		.byte	0x7
 362 00b8 F8010000 		.4byte	.LASF16
 363 00bc 06       		.uleb128 0x6
 364 00bd 20       		.byte	0x20
 365 00be 04       		.byte	0x4
 366 00bf 0601     		.2byte	0x106
 367 00c1 2E010000 		.4byte	0x12e
 368 00c5 07       		.uleb128 0x7
 369 00c6 0A010000 		.4byte	.LASF17
 370 00ca 04       		.byte	0x4
 371 00cb 0701     		.2byte	0x107
 372 00cd A5000000 		.4byte	0xa5
 373 00d1 00       		.byte	0
 374 00d2 07       		.uleb128 0x7
 375 00d3 70000000 		.4byte	.LASF18
 376 00d7 04       		.byte	0x4
 377 00d8 0801     		.2byte	0x108
 378 00da A5000000 		.4byte	0xa5
 379 00de 04       		.byte	0x4
 380 00df 07       		.uleb128 0x7
 381 00e0 B0000000 		.4byte	.LASF19
 382 00e4 04       		.byte	0x4
 383 00e5 0901     		.2byte	0x109
 384 00e7 A5000000 		.4byte	0xa5
 385 00eb 08       		.byte	0x8
 386 00ec 07       		.uleb128 0x7
 387 00ed 0F010000 		.4byte	.LASF20
 388 00f1 04       		.byte	0x4
 389 00f2 0A01     		.2byte	0x10a
 390 00f4 A5000000 		.4byte	0xa5
 391 00f8 0C       		.byte	0xc
 392 00f9 07       		.uleb128 0x7
 393 00fa 3D000000 		.4byte	.LASF21
 394 00fe 04       		.byte	0x4
 395 00ff 0B01     		.2byte	0x10b
 396 0101 A5000000 		.4byte	0xa5
 397 0105 10       		.byte	0x10
 398 0106 07       		.uleb128 0x7
 399 0107 DD000000 		.4byte	.LASF22
ARM GAS  /var/folders/6q/x_mk5n_j3p7_c40r_2k_78980000gn/T//ccfzD2aX.s 			page 8


 400 010b 04       		.byte	0x4
 401 010c 0C01     		.2byte	0x10c
 402 010e A5000000 		.4byte	0xa5
 403 0112 14       		.byte	0x14
 404 0113 07       		.uleb128 0x7
 405 0114 C4000000 		.4byte	.LASF23
 406 0118 04       		.byte	0x4
 407 0119 0D01     		.2byte	0x10d
 408 011b A5000000 		.4byte	0xa5
 409 011f 18       		.byte	0x18
 410 0120 07       		.uleb128 0x7
 411 0121 20000000 		.4byte	.LASF24
 412 0125 04       		.byte	0x4
 413 0126 0E01     		.2byte	0x10e
 414 0128 A5000000 		.4byte	0xa5
 415 012c 1C       		.byte	0x1c
 416 012d 00       		.byte	0
 417 012e 08       		.uleb128 0x8
 418 012f 39020000 		.4byte	.LASF25
 419 0133 04       		.byte	0x4
 420 0134 0F01     		.2byte	0x10f
 421 0136 BC000000 		.4byte	0xbc
 422 013a 03       		.uleb128 0x3
 423 013b 01       		.byte	0x1
 424 013c 08       		.byte	0x8
 425 013d FC000000 		.4byte	.LASF26
 426 0141 05       		.uleb128 0x5
 427 0142 88000000 		.4byte	0x88
 428 0146 04       		.uleb128 0x4
 429 0147 F1000000 		.4byte	.LASF27
 430 014b 05       		.byte	0x5
 431 014c CE       		.byte	0xce
 432 014d 93000000 		.4byte	0x93
 433 0151 04       		.uleb128 0x4
 434 0152 8D020000 		.4byte	.LASF28
 435 0156 06       		.byte	0x6
 436 0157 45       		.byte	0x45
 437 0158 5C010000 		.4byte	0x15c
 438 015c 09       		.uleb128 0x9
 439 015d 8D020000 		.4byte	.LASF28
 440 0161 14       		.byte	0x14
 441 0162 06       		.byte	0x6
 442 0163 4A       		.byte	0x4a
 443 0164 A5010000 		.4byte	0x1a5
 444 0168 0A       		.uleb128 0xa
 445 0169 37000000 		.4byte	.LASF29
 446 016d 06       		.byte	0x6
 447 016e 4B       		.byte	0x4b
 448 016f B6010000 		.4byte	0x1b6
 449 0173 00       		.byte	0
 450 0174 0A       		.uleb128 0xa
 451 0175 46000000 		.4byte	.LASF30
 452 0179 06       		.byte	0x6
 453 017a 4C       		.byte	0x4c
 454 017b B6010000 		.4byte	0x1b6
 455 017f 04       		.byte	0x4
 456 0180 0A       		.uleb128 0xa
ARM GAS  /var/folders/6q/x_mk5n_j3p7_c40r_2k_78980000gn/T//ccfzD2aX.s 			page 9


 457 0181 00000000 		.4byte	.LASF31
 458 0185 06       		.byte	0x6
 459 0186 4D       		.byte	0x4d
 460 0187 46010000 		.4byte	0x146
 461 018b 08       		.byte	0x8
 462 018c 0A       		.uleb128 0xa
 463 018d CC000000 		.4byte	.LASF32
 464 0191 06       		.byte	0x6
 465 0192 4E       		.byte	0x4e
 466 0193 46010000 		.4byte	0x146
 467 0197 0C       		.byte	0xc
 468 0198 0A       		.uleb128 0xa
 469 0199 34020000 		.4byte	.LASF33
 470 019d 06       		.byte	0x6
 471 019e 4F       		.byte	0x4f
 472 019f 46010000 		.4byte	0x146
 473 01a3 10       		.byte	0x10
 474 01a4 00       		.byte	0
 475 01a5 0B       		.uleb128 0xb
 476 01a6 B0010000 		.4byte	0x1b0
 477 01aa 0C       		.uleb128 0xc
 478 01ab B0010000 		.4byte	0x1b0
 479 01af 00       		.byte	0
 480 01b0 0D       		.uleb128 0xd
 481 01b1 04       		.byte	0x4
 482 01b2 51010000 		.4byte	0x151
 483 01b6 0D       		.uleb128 0xd
 484 01b7 04       		.byte	0x4
 485 01b8 A5010000 		.4byte	0x1a5
 486 01bc 0E       		.uleb128 0xe
 487 01bd 90000000 		.4byte	.LASF38
 488 01c1 01       		.byte	0x1
 489 01c2 7C       		.byte	0x7c
 490 01c3 01       		.byte	0x1
 491 01c4 D4010000 		.4byte	0x1d4
 492 01c8 0F       		.uleb128 0xf
 493 01c9 746D7000 		.ascii	"tmp\000"
 494 01cd 01       		.byte	0x1
 495 01ce 7C       		.byte	0x7c
 496 01cf B0010000 		.4byte	0x1b0
 497 01d3 00       		.byte	0
 498 01d4 10       		.uleb128 0x10
 499 01d5 01010000 		.4byte	.LASF39
 500 01d9 01       		.byte	0x1
 501 01da 45       		.byte	0x45
 502 01db 01       		.byte	0x1
 503 01dc EC010000 		.4byte	0x1ec
 504 01e0 0F       		.uleb128 0xf
 505 01e1 746D7000 		.ascii	"tmp\000"
 506 01e5 01       		.byte	0x1
 507 01e6 45       		.byte	0x45
 508 01e7 B0010000 		.4byte	0x1b0
 509 01eb 00       		.byte	0
 510 01ec 11       		.uleb128 0x11
 511 01ed D4010000 		.4byte	0x1d4
 512 01f1 00000000 		.4byte	.LFB63
 513 01f5 0C000000 		.4byte	.LFE63-.LFB63
ARM GAS  /var/folders/6q/x_mk5n_j3p7_c40r_2k_78980000gn/T//ccfzD2aX.s 			page 10


 514 01f9 01       		.uleb128 0x1
 515 01fa 9C       		.byte	0x9c
 516 01fb 07020000 		.4byte	0x207
 517 01ff 12       		.uleb128 0x12
 518 0200 E0010000 		.4byte	0x1e0
 519 0204 01       		.uleb128 0x1
 520 0205 50       		.byte	0x50
 521 0206 00       		.byte	0
 522 0207 13       		.uleb128 0x13
 523 0208 2F000000 		.4byte	.LASF40
 524 020c 01       		.byte	0x1
 525 020d 51       		.byte	0x51
 526 020e 00000000 		.4byte	.LFB64
 527 0212 2C000000 		.4byte	.LFE64-.LFB64
 528 0216 01       		.uleb128 0x1
 529 0217 9C       		.byte	0x9c
 530 0218 39020000 		.4byte	0x239
 531 021c 14       		.uleb128 0x14
 532 021d 746D7000 		.ascii	"tmp\000"
 533 0221 01       		.byte	0x1
 534 0222 51       		.byte	0x51
 535 0223 B0010000 		.4byte	0x1b0
 536 0227 01       		.uleb128 0x1
 537 0228 50       		.byte	0x50
 538 0229 15       		.uleb128 0x15
 539 022a 6E6F7700 		.ascii	"now\000"
 540 022e 01       		.byte	0x1
 541 022f 53       		.byte	0x53
 542 0230 46010000 		.4byte	0x146
 543 0234 00000000 		.4byte	.LLST0
 544 0238 00       		.byte	0
 545 0239 16       		.uleb128 0x16
 546 023a 77000000 		.4byte	.LASF41
 547 023e 01       		.byte	0x1
 548 023f 68       		.byte	0x68
 549 0240 00000000 		.4byte	.LFB65
 550 0244 40000000 		.4byte	.LFE65-.LFB65
 551 0248 01       		.uleb128 0x1
 552 0249 9C       		.byte	0x9c
 553 024a A6020000 		.4byte	0x2a6
 554 024e 17       		.uleb128 0x17
 555 024f 746D00   		.ascii	"tm\000"
 556 0252 01       		.byte	0x1
 557 0253 69       		.byte	0x69
 558 0254 51010000 		.4byte	0x151
 559 0258 02       		.uleb128 0x2
 560 0259 91       		.byte	0x91
 561 025a 64       		.sleb128 -28
 562 025b 18       		.uleb128 0x18
 563 025c BC010000 		.4byte	0x1bc
 564 0260 08000000 		.4byte	.LBB8
 565 0264 00000000 		.4byte	.Ldebug_ranges0+0
 566 0268 01       		.byte	0x1
 567 0269 6F       		.byte	0x6f
 568 026a 78020000 		.4byte	0x278
 569 026e 19       		.uleb128 0x19
 570 026f C8010000 		.4byte	0x1c8
ARM GAS  /var/folders/6q/x_mk5n_j3p7_c40r_2k_78980000gn/T//ccfzD2aX.s 			page 11


 571 0273 13000000 		.4byte	.LLST1
 572 0277 00       		.byte	0
 573 0278 18       		.uleb128 0x18
 574 0279 D4010000 		.4byte	0x1d4
 575 027d 0C000000 		.4byte	.LBB14
 576 0281 30000000 		.4byte	.Ldebug_ranges0+0x30
 577 0285 01       		.byte	0x1
 578 0286 70       		.byte	0x70
 579 0287 95020000 		.4byte	0x295
 580 028b 19       		.uleb128 0x19
 581 028c E0010000 		.4byte	0x1e0
 582 0290 28000000 		.4byte	.LLST2
 583 0294 00       		.byte	0
 584 0295 1A       		.uleb128 0x1a
 585 0296 26000000 		.4byte	.LVL8
 586 029a 07020000 		.4byte	0x207
 587 029e 1B       		.uleb128 0x1b
 588 029f 01       		.uleb128 0x1
 589 02a0 50       		.byte	0x50
 590 02a1 02       		.uleb128 0x2
 591 02a2 91       		.byte	0x91
 592 02a3 64       		.sleb128 -28
 593 02a4 00       		.byte	0
 594 02a5 00       		.byte	0
 595 02a6 11       		.uleb128 0x11
 596 02a7 BC010000 		.4byte	0x1bc
 597 02ab 00000000 		.4byte	.LFB66
 598 02af 24000000 		.4byte	.LFE66-.LFB66
 599 02b3 01       		.uleb128 0x1
 600 02b4 9C       		.byte	0x9c
 601 02b5 C1020000 		.4byte	0x2c1
 602 02b9 12       		.uleb128 0x12
 603 02ba C8010000 		.4byte	0x1c8
 604 02be 01       		.uleb128 0x1
 605 02bf 50       		.byte	0x50
 606 02c0 00       		.byte	0
 607 02c1 1C       		.uleb128 0x1c
 608 02c2 17020000 		.4byte	.LASF34
 609 02c6 01       		.byte	0x1
 610 02c7 38       		.byte	0x38
 611 02c8 46010000 		.4byte	0x146
 612 02cc 05       		.uleb128 0x5
 613 02cd 03       		.byte	0x3
 614 02ce 00000000 		.4byte	measurement_offset
 615 02d2 1D       		.uleb128 0x1d
 616 02d3 B7000000 		.4byte	.LASF42
 617 02d7 07       		.byte	0x7
 618 02d8 0706     		.2byte	0x607
 619 02da 41010000 		.4byte	0x141
 620 02de 00       		.byte	0
 621              		.section	.debug_abbrev,"",%progbits
 622              	.Ldebug_abbrev0:
 623 0000 01       		.uleb128 0x1
 624 0001 11       		.uleb128 0x11
 625 0002 01       		.byte	0x1
 626 0003 25       		.uleb128 0x25
 627 0004 0E       		.uleb128 0xe
ARM GAS  /var/folders/6q/x_mk5n_j3p7_c40r_2k_78980000gn/T//ccfzD2aX.s 			page 12


 628 0005 13       		.uleb128 0x13
 629 0006 0B       		.uleb128 0xb
 630 0007 03       		.uleb128 0x3
 631 0008 0E       		.uleb128 0xe
 632 0009 1B       		.uleb128 0x1b
 633 000a 0E       		.uleb128 0xe
 634 000b 55       		.uleb128 0x55
 635 000c 17       		.uleb128 0x17
 636 000d 11       		.uleb128 0x11
 637 000e 01       		.uleb128 0x1
 638 000f 10       		.uleb128 0x10
 639 0010 17       		.uleb128 0x17
 640 0011 00       		.byte	0
 641 0012 00       		.byte	0
 642 0013 02       		.uleb128 0x2
 643 0014 24       		.uleb128 0x24
 644 0015 00       		.byte	0
 645 0016 0B       		.uleb128 0xb
 646 0017 0B       		.uleb128 0xb
 647 0018 3E       		.uleb128 0x3e
 648 0019 0B       		.uleb128 0xb
 649 001a 03       		.uleb128 0x3
 650 001b 08       		.uleb128 0x8
 651 001c 00       		.byte	0
 652 001d 00       		.byte	0
 653 001e 03       		.uleb128 0x3
 654 001f 24       		.uleb128 0x24
 655 0020 00       		.byte	0
 656 0021 0B       		.uleb128 0xb
 657 0022 0B       		.uleb128 0xb
 658 0023 3E       		.uleb128 0x3e
 659 0024 0B       		.uleb128 0xb
 660 0025 03       		.uleb128 0x3
 661 0026 0E       		.uleb128 0xe
 662 0027 00       		.byte	0
 663 0028 00       		.byte	0
 664 0029 04       		.uleb128 0x4
 665 002a 16       		.uleb128 0x16
 666 002b 00       		.byte	0
 667 002c 03       		.uleb128 0x3
 668 002d 0E       		.uleb128 0xe
 669 002e 3A       		.uleb128 0x3a
 670 002f 0B       		.uleb128 0xb
 671 0030 3B       		.uleb128 0x3b
 672 0031 0B       		.uleb128 0xb
 673 0032 49       		.uleb128 0x49
 674 0033 13       		.uleb128 0x13
 675 0034 00       		.byte	0
 676 0035 00       		.byte	0
 677 0036 05       		.uleb128 0x5
 678 0037 35       		.uleb128 0x35
 679 0038 00       		.byte	0
 680 0039 49       		.uleb128 0x49
 681 003a 13       		.uleb128 0x13
 682 003b 00       		.byte	0
 683 003c 00       		.byte	0
 684 003d 06       		.uleb128 0x6
ARM GAS  /var/folders/6q/x_mk5n_j3p7_c40r_2k_78980000gn/T//ccfzD2aX.s 			page 13


 685 003e 13       		.uleb128 0x13
 686 003f 01       		.byte	0x1
 687 0040 0B       		.uleb128 0xb
 688 0041 0B       		.uleb128 0xb
 689 0042 3A       		.uleb128 0x3a
 690 0043 0B       		.uleb128 0xb
 691 0044 3B       		.uleb128 0x3b
 692 0045 05       		.uleb128 0x5
 693 0046 01       		.uleb128 0x1
 694 0047 13       		.uleb128 0x13
 695 0048 00       		.byte	0
 696 0049 00       		.byte	0
 697 004a 07       		.uleb128 0x7
 698 004b 0D       		.uleb128 0xd
 699 004c 00       		.byte	0
 700 004d 03       		.uleb128 0x3
 701 004e 0E       		.uleb128 0xe
 702 004f 3A       		.uleb128 0x3a
 703 0050 0B       		.uleb128 0xb
 704 0051 3B       		.uleb128 0x3b
 705 0052 05       		.uleb128 0x5
 706 0053 49       		.uleb128 0x49
 707 0054 13       		.uleb128 0x13
 708 0055 38       		.uleb128 0x38
 709 0056 0B       		.uleb128 0xb
 710 0057 00       		.byte	0
 711 0058 00       		.byte	0
 712 0059 08       		.uleb128 0x8
 713 005a 16       		.uleb128 0x16
 714 005b 00       		.byte	0
 715 005c 03       		.uleb128 0x3
 716 005d 0E       		.uleb128 0xe
 717 005e 3A       		.uleb128 0x3a
 718 005f 0B       		.uleb128 0xb
 719 0060 3B       		.uleb128 0x3b
 720 0061 05       		.uleb128 0x5
 721 0062 49       		.uleb128 0x49
 722 0063 13       		.uleb128 0x13
 723 0064 00       		.byte	0
 724 0065 00       		.byte	0
 725 0066 09       		.uleb128 0x9
 726 0067 13       		.uleb128 0x13
 727 0068 01       		.byte	0x1
 728 0069 03       		.uleb128 0x3
 729 006a 0E       		.uleb128 0xe
 730 006b 0B       		.uleb128 0xb
 731 006c 0B       		.uleb128 0xb
 732 006d 3A       		.uleb128 0x3a
 733 006e 0B       		.uleb128 0xb
 734 006f 3B       		.uleb128 0x3b
 735 0070 0B       		.uleb128 0xb
 736 0071 01       		.uleb128 0x1
 737 0072 13       		.uleb128 0x13
 738 0073 00       		.byte	0
 739 0074 00       		.byte	0
 740 0075 0A       		.uleb128 0xa
 741 0076 0D       		.uleb128 0xd
ARM GAS  /var/folders/6q/x_mk5n_j3p7_c40r_2k_78980000gn/T//ccfzD2aX.s 			page 14


 742 0077 00       		.byte	0
 743 0078 03       		.uleb128 0x3
 744 0079 0E       		.uleb128 0xe
 745 007a 3A       		.uleb128 0x3a
 746 007b 0B       		.uleb128 0xb
 747 007c 3B       		.uleb128 0x3b
 748 007d 0B       		.uleb128 0xb
 749 007e 49       		.uleb128 0x49
 750 007f 13       		.uleb128 0x13
 751 0080 38       		.uleb128 0x38
 752 0081 0B       		.uleb128 0xb
 753 0082 00       		.byte	0
 754 0083 00       		.byte	0
 755 0084 0B       		.uleb128 0xb
 756 0085 15       		.uleb128 0x15
 757 0086 01       		.byte	0x1
 758 0087 27       		.uleb128 0x27
 759 0088 19       		.uleb128 0x19
 760 0089 01       		.uleb128 0x1
 761 008a 13       		.uleb128 0x13
 762 008b 00       		.byte	0
 763 008c 00       		.byte	0
 764 008d 0C       		.uleb128 0xc
 765 008e 05       		.uleb128 0x5
 766 008f 00       		.byte	0
 767 0090 49       		.uleb128 0x49
 768 0091 13       		.uleb128 0x13
 769 0092 00       		.byte	0
 770 0093 00       		.byte	0
 771 0094 0D       		.uleb128 0xd
 772 0095 0F       		.uleb128 0xf
 773 0096 00       		.byte	0
 774 0097 0B       		.uleb128 0xb
 775 0098 0B       		.uleb128 0xb
 776 0099 49       		.uleb128 0x49
 777 009a 13       		.uleb128 0x13
 778 009b 00       		.byte	0
 779 009c 00       		.byte	0
 780 009d 0E       		.uleb128 0xe
 781 009e 2E       		.uleb128 0x2e
 782 009f 01       		.byte	0x1
 783 00a0 3F       		.uleb128 0x3f
 784 00a1 19       		.uleb128 0x19
 785 00a2 03       		.uleb128 0x3
 786 00a3 0E       		.uleb128 0xe
 787 00a4 3A       		.uleb128 0x3a
 788 00a5 0B       		.uleb128 0xb
 789 00a6 3B       		.uleb128 0x3b
 790 00a7 0B       		.uleb128 0xb
 791 00a8 27       		.uleb128 0x27
 792 00a9 19       		.uleb128 0x19
 793 00aa 20       		.uleb128 0x20
 794 00ab 0B       		.uleb128 0xb
 795 00ac 01       		.uleb128 0x1
 796 00ad 13       		.uleb128 0x13
 797 00ae 00       		.byte	0
 798 00af 00       		.byte	0
ARM GAS  /var/folders/6q/x_mk5n_j3p7_c40r_2k_78980000gn/T//ccfzD2aX.s 			page 15


 799 00b0 0F       		.uleb128 0xf
 800 00b1 05       		.uleb128 0x5
 801 00b2 00       		.byte	0
 802 00b3 03       		.uleb128 0x3
 803 00b4 08       		.uleb128 0x8
 804 00b5 3A       		.uleb128 0x3a
 805 00b6 0B       		.uleb128 0xb
 806 00b7 3B       		.uleb128 0x3b
 807 00b8 0B       		.uleb128 0xb
 808 00b9 49       		.uleb128 0x49
 809 00ba 13       		.uleb128 0x13
 810 00bb 00       		.byte	0
 811 00bc 00       		.byte	0
 812 00bd 10       		.uleb128 0x10
 813 00be 2E       		.uleb128 0x2e
 814 00bf 01       		.byte	0x1
 815 00c0 03       		.uleb128 0x3
 816 00c1 0E       		.uleb128 0xe
 817 00c2 3A       		.uleb128 0x3a
 818 00c3 0B       		.uleb128 0xb
 819 00c4 3B       		.uleb128 0x3b
 820 00c5 0B       		.uleb128 0xb
 821 00c6 27       		.uleb128 0x27
 822 00c7 19       		.uleb128 0x19
 823 00c8 20       		.uleb128 0x20
 824 00c9 0B       		.uleb128 0xb
 825 00ca 01       		.uleb128 0x1
 826 00cb 13       		.uleb128 0x13
 827 00cc 00       		.byte	0
 828 00cd 00       		.byte	0
 829 00ce 11       		.uleb128 0x11
 830 00cf 2E       		.uleb128 0x2e
 831 00d0 01       		.byte	0x1
 832 00d1 31       		.uleb128 0x31
 833 00d2 13       		.uleb128 0x13
 834 00d3 11       		.uleb128 0x11
 835 00d4 01       		.uleb128 0x1
 836 00d5 12       		.uleb128 0x12
 837 00d6 06       		.uleb128 0x6
 838 00d7 40       		.uleb128 0x40
 839 00d8 18       		.uleb128 0x18
 840 00d9 9742     		.uleb128 0x2117
 841 00db 19       		.uleb128 0x19
 842 00dc 01       		.uleb128 0x1
 843 00dd 13       		.uleb128 0x13
 844 00de 00       		.byte	0
 845 00df 00       		.byte	0
 846 00e0 12       		.uleb128 0x12
 847 00e1 05       		.uleb128 0x5
 848 00e2 00       		.byte	0
 849 00e3 31       		.uleb128 0x31
 850 00e4 13       		.uleb128 0x13
 851 00e5 02       		.uleb128 0x2
 852 00e6 18       		.uleb128 0x18
 853 00e7 00       		.byte	0
 854 00e8 00       		.byte	0
 855 00e9 13       		.uleb128 0x13
ARM GAS  /var/folders/6q/x_mk5n_j3p7_c40r_2k_78980000gn/T//ccfzD2aX.s 			page 16


 856 00ea 2E       		.uleb128 0x2e
 857 00eb 01       		.byte	0x1
 858 00ec 03       		.uleb128 0x3
 859 00ed 0E       		.uleb128 0xe
 860 00ee 3A       		.uleb128 0x3a
 861 00ef 0B       		.uleb128 0xb
 862 00f0 3B       		.uleb128 0x3b
 863 00f1 0B       		.uleb128 0xb
 864 00f2 27       		.uleb128 0x27
 865 00f3 19       		.uleb128 0x19
 866 00f4 11       		.uleb128 0x11
 867 00f5 01       		.uleb128 0x1
 868 00f6 12       		.uleb128 0x12
 869 00f7 06       		.uleb128 0x6
 870 00f8 40       		.uleb128 0x40
 871 00f9 18       		.uleb128 0x18
 872 00fa 9742     		.uleb128 0x2117
 873 00fc 19       		.uleb128 0x19
 874 00fd 01       		.uleb128 0x1
 875 00fe 13       		.uleb128 0x13
 876 00ff 00       		.byte	0
 877 0100 00       		.byte	0
 878 0101 14       		.uleb128 0x14
 879 0102 05       		.uleb128 0x5
 880 0103 00       		.byte	0
 881 0104 03       		.uleb128 0x3
 882 0105 08       		.uleb128 0x8
 883 0106 3A       		.uleb128 0x3a
 884 0107 0B       		.uleb128 0xb
 885 0108 3B       		.uleb128 0x3b
 886 0109 0B       		.uleb128 0xb
 887 010a 49       		.uleb128 0x49
 888 010b 13       		.uleb128 0x13
 889 010c 02       		.uleb128 0x2
 890 010d 18       		.uleb128 0x18
 891 010e 00       		.byte	0
 892 010f 00       		.byte	0
 893 0110 15       		.uleb128 0x15
 894 0111 34       		.uleb128 0x34
 895 0112 00       		.byte	0
 896 0113 03       		.uleb128 0x3
 897 0114 08       		.uleb128 0x8
 898 0115 3A       		.uleb128 0x3a
 899 0116 0B       		.uleb128 0xb
 900 0117 3B       		.uleb128 0x3b
 901 0118 0B       		.uleb128 0xb
 902 0119 49       		.uleb128 0x49
 903 011a 13       		.uleb128 0x13
 904 011b 02       		.uleb128 0x2
 905 011c 17       		.uleb128 0x17
 906 011d 00       		.byte	0
 907 011e 00       		.byte	0
 908 011f 16       		.uleb128 0x16
 909 0120 2E       		.uleb128 0x2e
 910 0121 01       		.byte	0x1
 911 0122 3F       		.uleb128 0x3f
 912 0123 19       		.uleb128 0x19
ARM GAS  /var/folders/6q/x_mk5n_j3p7_c40r_2k_78980000gn/T//ccfzD2aX.s 			page 17


 913 0124 03       		.uleb128 0x3
 914 0125 0E       		.uleb128 0xe
 915 0126 3A       		.uleb128 0x3a
 916 0127 0B       		.uleb128 0xb
 917 0128 3B       		.uleb128 0x3b
 918 0129 0B       		.uleb128 0xb
 919 012a 27       		.uleb128 0x27
 920 012b 19       		.uleb128 0x19
 921 012c 11       		.uleb128 0x11
 922 012d 01       		.uleb128 0x1
 923 012e 12       		.uleb128 0x12
 924 012f 06       		.uleb128 0x6
 925 0130 40       		.uleb128 0x40
 926 0131 18       		.uleb128 0x18
 927 0132 9742     		.uleb128 0x2117
 928 0134 19       		.uleb128 0x19
 929 0135 01       		.uleb128 0x1
 930 0136 13       		.uleb128 0x13
 931 0137 00       		.byte	0
 932 0138 00       		.byte	0
 933 0139 17       		.uleb128 0x17
 934 013a 34       		.uleb128 0x34
 935 013b 00       		.byte	0
 936 013c 03       		.uleb128 0x3
 937 013d 08       		.uleb128 0x8
 938 013e 3A       		.uleb128 0x3a
 939 013f 0B       		.uleb128 0xb
 940 0140 3B       		.uleb128 0x3b
 941 0141 0B       		.uleb128 0xb
 942 0142 49       		.uleb128 0x49
 943 0143 13       		.uleb128 0x13
 944 0144 02       		.uleb128 0x2
 945 0145 18       		.uleb128 0x18
 946 0146 00       		.byte	0
 947 0147 00       		.byte	0
 948 0148 18       		.uleb128 0x18
 949 0149 1D       		.uleb128 0x1d
 950 014a 01       		.byte	0x1
 951 014b 31       		.uleb128 0x31
 952 014c 13       		.uleb128 0x13
 953 014d 52       		.uleb128 0x52
 954 014e 01       		.uleb128 0x1
 955 014f 55       		.uleb128 0x55
 956 0150 17       		.uleb128 0x17
 957 0151 58       		.uleb128 0x58
 958 0152 0B       		.uleb128 0xb
 959 0153 59       		.uleb128 0x59
 960 0154 0B       		.uleb128 0xb
 961 0155 01       		.uleb128 0x1
 962 0156 13       		.uleb128 0x13
 963 0157 00       		.byte	0
 964 0158 00       		.byte	0
 965 0159 19       		.uleb128 0x19
 966 015a 05       		.uleb128 0x5
 967 015b 00       		.byte	0
 968 015c 31       		.uleb128 0x31
 969 015d 13       		.uleb128 0x13
ARM GAS  /var/folders/6q/x_mk5n_j3p7_c40r_2k_78980000gn/T//ccfzD2aX.s 			page 18


 970 015e 02       		.uleb128 0x2
 971 015f 17       		.uleb128 0x17
 972 0160 00       		.byte	0
 973 0161 00       		.byte	0
 974 0162 1A       		.uleb128 0x1a
 975 0163 898201   		.uleb128 0x4109
 976 0166 01       		.byte	0x1
 977 0167 11       		.uleb128 0x11
 978 0168 01       		.uleb128 0x1
 979 0169 31       		.uleb128 0x31
 980 016a 13       		.uleb128 0x13
 981 016b 00       		.byte	0
 982 016c 00       		.byte	0
 983 016d 1B       		.uleb128 0x1b
 984 016e 8A8201   		.uleb128 0x410a
 985 0171 00       		.byte	0
 986 0172 02       		.uleb128 0x2
 987 0173 18       		.uleb128 0x18
 988 0174 9142     		.uleb128 0x2111
 989 0176 18       		.uleb128 0x18
 990 0177 00       		.byte	0
 991 0178 00       		.byte	0
 992 0179 1C       		.uleb128 0x1c
 993 017a 34       		.uleb128 0x34
 994 017b 00       		.byte	0
 995 017c 03       		.uleb128 0x3
 996 017d 0E       		.uleb128 0xe
 997 017e 3A       		.uleb128 0x3a
 998 017f 0B       		.uleb128 0xb
 999 0180 3B       		.uleb128 0x3b
 1000 0181 0B       		.uleb128 0xb
 1001 0182 49       		.uleb128 0x49
 1002 0183 13       		.uleb128 0x13
 1003 0184 02       		.uleb128 0x2
 1004 0185 18       		.uleb128 0x18
 1005 0186 00       		.byte	0
 1006 0187 00       		.byte	0
 1007 0188 1D       		.uleb128 0x1d
 1008 0189 34       		.uleb128 0x34
 1009 018a 00       		.byte	0
 1010 018b 03       		.uleb128 0x3
 1011 018c 0E       		.uleb128 0xe
 1012 018d 3A       		.uleb128 0x3a
 1013 018e 0B       		.uleb128 0xb
 1014 018f 3B       		.uleb128 0x3b
 1015 0190 05       		.uleb128 0x5
 1016 0191 49       		.uleb128 0x49
 1017 0192 13       		.uleb128 0x13
 1018 0193 3F       		.uleb128 0x3f
 1019 0194 19       		.uleb128 0x19
 1020 0195 3C       		.uleb128 0x3c
 1021 0196 19       		.uleb128 0x19
 1022 0197 00       		.byte	0
 1023 0198 00       		.byte	0
 1024 0199 00       		.byte	0
 1025              		.section	.debug_loc,"",%progbits
 1026              	.Ldebug_loc0:
ARM GAS  /var/folders/6q/x_mk5n_j3p7_c40r_2k_78980000gn/T//ccfzD2aX.s 			page 19


 1027              	.LLST0:
 1028 0000 06000000 		.4byte	.LVL2
 1029 0004 0E000000 		.4byte	.LVL3
 1030 0008 0100     		.2byte	0x1
 1031 000a 52       		.byte	0x52
 1032 000b 00000000 		.4byte	0
 1033 000f 00000000 		.4byte	0
 1034              	.LLST1:
 1035 0013 10000000 		.4byte	.LVL4
 1036 0017 14000000 		.4byte	.LVL5
 1037 001b 0300     		.2byte	0x3
 1038 001d 91       		.byte	0x91
 1039 001e 64       		.sleb128 -28
 1040 001f 9F       		.byte	0x9f
 1041 0020 00000000 		.4byte	0
 1042 0024 00000000 		.4byte	0
 1043              	.LLST2:
 1044 0028 14000000 		.4byte	.LVL5
 1045 002c 1C000000 		.4byte	.LVL6
 1046 0030 0300     		.2byte	0x3
 1047 0032 91       		.byte	0x91
 1048 0033 64       		.sleb128 -28
 1049 0034 9F       		.byte	0x9f
 1050 0035 1C000000 		.4byte	.LVL6
 1051 0039 20000000 		.4byte	.LVL7
 1052 003d 0100     		.2byte	0x1
 1053 003f 50       		.byte	0x50
 1054 0040 00000000 		.4byte	0
 1055 0044 00000000 		.4byte	0
 1056              		.section	.debug_aranges,"",%progbits
 1057 0000 34000000 		.4byte	0x34
 1058 0004 0200     		.2byte	0x2
 1059 0006 00000000 		.4byte	.Ldebug_info0
 1060 000a 04       		.byte	0x4
 1061 000b 00       		.byte	0
 1062 000c 0000     		.2byte	0
 1063 000e 0000     		.2byte	0
 1064 0010 00000000 		.4byte	.LFB63
 1065 0014 0C000000 		.4byte	.LFE63-.LFB63
 1066 0018 00000000 		.4byte	.LFB64
 1067 001c 2C000000 		.4byte	.LFE64-.LFB64
 1068 0020 00000000 		.4byte	.LFB65
 1069 0024 40000000 		.4byte	.LFE65-.LFB65
 1070 0028 00000000 		.4byte	.LFB66
 1071 002c 24000000 		.4byte	.LFE66-.LFB66
 1072 0030 00000000 		.4byte	0
 1073 0034 00000000 		.4byte	0
 1074              		.section	.debug_ranges,"",%progbits
 1075              	.Ldebug_ranges0:
 1076 0000 08000000 		.4byte	.LBB8
 1077 0004 0C000000 		.4byte	.LBE8
 1078 0008 10000000 		.4byte	.LBB18
 1079 000c 14000000 		.4byte	.LBE18
 1080 0010 16000000 		.4byte	.LBB20
 1081 0014 1A000000 		.4byte	.LBE20
 1082 0018 1C000000 		.4byte	.LBB21
 1083 001c 1E000000 		.4byte	.LBE21
ARM GAS  /var/folders/6q/x_mk5n_j3p7_c40r_2k_78980000gn/T//ccfzD2aX.s 			page 20


 1084 0020 20000000 		.4byte	.LBB23
 1085 0024 22000000 		.4byte	.LBE23
 1086 0028 00000000 		.4byte	0
 1087 002c 00000000 		.4byte	0
 1088 0030 0C000000 		.4byte	.LBB14
 1089 0034 0E000000 		.4byte	.LBE14
 1090 0038 14000000 		.4byte	.LBB19
 1091 003c 16000000 		.4byte	.LBE19
 1092 0040 1E000000 		.4byte	.LBB22
 1093 0044 20000000 		.4byte	.LBE22
 1094 0048 00000000 		.4byte	0
 1095 004c 00000000 		.4byte	0
 1096 0050 00000000 		.4byte	.LFB63
 1097 0054 0C000000 		.4byte	.LFE63
 1098 0058 00000000 		.4byte	.LFB64
 1099 005c 2C000000 		.4byte	.LFE64
 1100 0060 00000000 		.4byte	.LFB65
 1101 0064 40000000 		.4byte	.LFE65
 1102 0068 00000000 		.4byte	.LFB66
 1103 006c 24000000 		.4byte	.LFE66
 1104 0070 00000000 		.4byte	0
 1105 0074 00000000 		.4byte	0
 1106              		.section	.debug_line,"",%progbits
 1107              	.Ldebug_line0:
 1108 0000 42020000 		.section	.debug_str,"MS",%progbits,1
 1108      0200BB01 
 1108      00000201 
 1108      FB0E0D00 
 1108      01010101 
 1109              	.LASF31:
 1110 0000 6C617374 		.ascii	"last\000"
 1110      00
 1111              	.LASF36:
 1112 0005 2E2E2F43 		.ascii	"../ChibiOS/os/hal/src/tm.c\000"
 1112      68696269 
 1112      4F532F6F 
 1112      732F6861 
 1112      6C2F7372 
 1113              	.LASF24:
 1114 0020 50435352 		.ascii	"PCSR\000"
 1114      00
 1115              	.LASF8:
 1116 0025 5F5F696E 		.ascii	"__int32_t\000"
 1116      7433325F 
 1116      7400
 1117              	.LASF40:
 1118 002f 746D5F73 		.ascii	"tm_stop\000"
 1118      746F7000 
 1119              	.LASF29:
 1120 0037 73746172 		.ascii	"start\000"
 1120      7400
 1121              	.LASF21:
 1122 003d 534C4545 		.ascii	"SLEEPCNT\000"
 1122      50434E54 
 1122      00
 1123              	.LASF30:
 1124 0046 73746F70 		.ascii	"stop\000"
ARM GAS  /var/folders/6q/x_mk5n_j3p7_c40r_2k_78980000gn/T//ccfzD2aX.s 			page 21


 1124      00
 1125              	.LASF11:
 1126 004b 6C6F6E67 		.ascii	"long long unsigned int\000"
 1126      206C6F6E 
 1126      6720756E 
 1126      7369676E 
 1126      65642069 
 1127              	.LASF4:
 1128 0062 756E7369 		.ascii	"unsigned char\000"
 1128      676E6564 
 1128      20636861 
 1128      7200
 1129              	.LASF18:
 1130 0070 43594343 		.ascii	"CYCCNT\000"
 1130      4E5400
 1131              	.LASF41:
 1132 0077 746D496E 		.ascii	"tmInit\000"
 1132      697400
 1133              	.LASF10:
 1134 007e 6C6F6E67 		.ascii	"long unsigned int\000"
 1134      20756E73 
 1134      69676E65 
 1134      6420696E 
 1134      7400
 1135              	.LASF38:
 1136 0090 746D4F62 		.ascii	"tmObjectInit\000"
 1136      6A656374 
 1136      496E6974 
 1136      00
 1137              	.LASF6:
 1138 009d 73686F72 		.ascii	"short unsigned int\000"
 1138      7420756E 
 1138      7369676E 
 1138      65642069 
 1138      6E7400
 1139              	.LASF19:
 1140 00b0 43504943 		.ascii	"CPICNT\000"
 1140      4E5400
 1141              	.LASF42:
 1142 00b7 49544D5F 		.ascii	"ITM_RxBuffer\000"
 1142      52784275 
 1142      66666572 
 1142      00
 1143              	.LASF23:
 1144 00c4 464F4C44 		.ascii	"FOLDCNT\000"
 1144      434E5400 
 1145              	.LASF32:
 1146 00cc 776F7273 		.ascii	"worst\000"
 1146      7400
 1147              	.LASF9:
 1148 00d2 5F5F7569 		.ascii	"__uint32_t\000"
 1148      6E743332 
 1148      5F7400
 1149              	.LASF22:
 1150 00dd 4C535543 		.ascii	"LSUCNT\000"
 1150      4E5400
 1151              	.LASF0:
ARM GAS  /var/folders/6q/x_mk5n_j3p7_c40r_2k_78980000gn/T//ccfzD2aX.s 			page 22


 1152 00e4 756E7369 		.ascii	"unsigned int\000"
 1152      676E6564 
 1152      20696E74 
 1152      00
 1153              	.LASF27:
 1154 00f1 68616C72 		.ascii	"halrtcnt_t\000"
 1154      74636E74 
 1154      5F7400
 1155              	.LASF26:
 1156 00fc 63686172 		.ascii	"char\000"
 1156      00
 1157              	.LASF39:
 1158 0101 746D5F73 		.ascii	"tm_start\000"
 1158      74617274 
 1158      00
 1159              	.LASF17:
 1160 010a 4354524C 		.ascii	"CTRL\000"
 1160      00
 1161              	.LASF20:
 1162 010f 45584343 		.ascii	"EXCCNT\000"
 1162      4E5400
 1163              	.LASF35:
 1164 0116 474E5520 		.ascii	"GNU C11 5.4.1 20160919 (release) [ARM/embedded-5-br"
 1164      43313120 
 1164      352E342E 
 1164      31203230 
 1164      31363039 
 1165 0149 616E6368 		.ascii	"anch revision 240496] -mcpu=cortex-m3 -mno-thumb-in"
 1165      20726576 
 1165      6973696F 
 1165      6E203234 
 1165      30343936 
 1166 017c 74657277 		.ascii	"terwork -mthumb -ggdb -O2 -fomit-frame-pointer -fal"
 1166      6F726B20 
 1166      2D6D7468 
 1166      756D6220 
 1166      2D676764 
 1167 01af 69676E2D 		.ascii	"ign-functions=16 -ffunction-sections -fdata-section"
 1167      66756E63 
 1167      74696F6E 
 1167      733D3136 
 1167      202D6666 
 1168 01e2 73202D66 		.ascii	"s -fno-common\000"
 1168      6E6F2D63 
 1168      6F6D6D6F 
 1168      6E00
 1169              	.LASF12:
 1170 01f0 696E7433 		.ascii	"int32_t\000"
 1170      325F7400 
 1171              	.LASF16:
 1172 01f8 73697A65 		.ascii	"sizetype\000"
 1172      74797065 
 1172      00
 1173              	.LASF1:
 1174 0201 6C6F6E67 		.ascii	"long long int\000"
 1174      206C6F6E 
 1174      6720696E 
ARM GAS  /var/folders/6q/x_mk5n_j3p7_c40r_2k_78980000gn/T//ccfzD2aX.s 			page 23


 1174      7400
 1175              	.LASF15:
 1176 020f 494F5245 		.ascii	"IOREG32\000"
 1176      47333200 
 1177              	.LASF34:
 1178 0217 6D656173 		.ascii	"measurement_offset\000"
 1178      7572656D 
 1178      656E745F 
 1178      6F666673 
 1178      657400
 1179              	.LASF5:
 1180 022a 73686F72 		.ascii	"short int\000"
 1180      7420696E 
 1180      7400
 1181              	.LASF33:
 1182 0234 62657374 		.ascii	"best\000"
 1182      00
 1183              	.LASF25:
 1184 0239 434D785F 		.ascii	"CMx_DWT\000"
 1184      44575400 
 1185              	.LASF37:
 1186 0241 2F557365 		.ascii	"/Users/Luca/src/vexilla/src/teamA\000"
 1186      72732F4C 
 1186      7563612F 
 1186      7372632F 
 1186      76657869 
 1187              	.LASF13:
 1188 0263 75696E74 		.ascii	"uint32_t\000"
 1188      33325F74 
 1188      00
 1189              	.LASF7:
 1190 026c 6C6F6E67 		.ascii	"long int\000"
 1190      20696E74 
 1190      00
 1191              	.LASF2:
 1192 0275 6C6F6E67 		.ascii	"long double\000"
 1192      20646F75 
 1192      626C6500 
 1193              	.LASF3:
 1194 0281 7369676E 		.ascii	"signed char\000"
 1194      65642063 
 1194      68617200 
 1195              	.LASF28:
 1196 028d 54696D65 		.ascii	"TimeMeasurement\000"
 1196      4D656173 
 1196      7572656D 
 1196      656E7400 
 1197              	.LASF14:
 1198 029d 5F426F6F 		.ascii	"_Bool\000"
 1198      6C00
 1199              		.ident	"GCC: (GNU Tools for ARM Embedded Processors) 5.4.1 20160919 (release) [ARM/embedded-5-bran
ARM GAS  /var/folders/6q/x_mk5n_j3p7_c40r_2k_78980000gn/T//ccfzD2aX.s 			page 24


DEFINED SYMBOLS
                            *ABS*:0000000000000000 tm.c
/var/folders/6q/x_mk5n_j3p7_c40r_2k_78980000gn/T//ccfzD2aX.s:20     .text.tm_start:0000000000000000 $t
/var/folders/6q/x_mk5n_j3p7_c40r_2k_78980000gn/T//ccfzD2aX.s:25     .text.tm_start:0000000000000000 tm_start
/var/folders/6q/x_mk5n_j3p7_c40r_2k_78980000gn/T//ccfzD2aX.s:42     .text.tm_start:0000000000000008 $d
/var/folders/6q/x_mk5n_j3p7_c40r_2k_78980000gn/T//ccfzD2aX.s:47     .text.tm_stop:0000000000000000 $t
/var/folders/6q/x_mk5n_j3p7_c40r_2k_78980000gn/T//ccfzD2aX.s:52     .text.tm_stop:0000000000000000 tm_stop
/var/folders/6q/x_mk5n_j3p7_c40r_2k_78980000gn/T//ccfzD2aX.s:96     .text.tm_stop:0000000000000024 $d
/var/folders/6q/x_mk5n_j3p7_c40r_2k_78980000gn/T//ccfzD2aX.s:102    .text.tmInit:0000000000000000 $t
/var/folders/6q/x_mk5n_j3p7_c40r_2k_78980000gn/T//ccfzD2aX.s:108    .text.tmInit:0000000000000000 tmInit
/var/folders/6q/x_mk5n_j3p7_c40r_2k_78980000gn/T//ccfzD2aX.s:199    .text.tmInit:0000000000000030 $d
/var/folders/6q/x_mk5n_j3p7_c40r_2k_78980000gn/T//ccfzD2aX.s:207    .text.tmObjectInit:0000000000000000 $t
/var/folders/6q/x_mk5n_j3p7_c40r_2k_78980000gn/T//ccfzD2aX.s:213    .text.tmObjectInit:0000000000000000 tmObjectInit
/var/folders/6q/x_mk5n_j3p7_c40r_2k_78980000gn/T//ccfzD2aX.s:250    .text.tmObjectInit:000000000000001c $d
/var/folders/6q/x_mk5n_j3p7_c40r_2k_78980000gn/T//ccfzD2aX.s:256    .bss.measurement_offset:0000000000000000 $d
/var/folders/6q/x_mk5n_j3p7_c40r_2k_78980000gn/T//ccfzD2aX.s:260    .bss.measurement_offset:0000000000000000 measurement_offset
                     .debug_frame:0000000000000010 $d

NO UNDEFINED SYMBOLS
