ARM GAS  /var/folders/6q/x_mk5n_j3p7_c40r_2k_78980000gn/T//ccATRJXd.s 			page 1


   1              		.syntax unified
   2              		.cpu cortex-m3
   3              		.fpu softvfp
   4              		.eabi_attribute 20, 1
   5              		.eabi_attribute 21, 1
   6              		.eabi_attribute 23, 3
   7              		.eabi_attribute 24, 1
   8              		.eabi_attribute 25, 1
   9              		.eabi_attribute 26, 1
  10              		.eabi_attribute 30, 2
  11              		.eabi_attribute 34, 1
  12              		.eabi_attribute 18, 4
  13              		.thumb
  14              		.syntax unified
  15              		.file	"vexaudio.c"
  16              		.text
  17              	.Ltext0:
  18              		.cfi_sections	.debug_frame
  19              		.global	__aeabi_i2f
  20              		.global	__aeabi_fmul
  21              		.global	__aeabi_fadd
  22              		.global	__aeabi_f2uiz
  23              		.section	.text.VSL_CreateSineWave.part.0,"ax",%progbits
  24              		.align	2
  25              		.p2align 4,,15
  26              		.thumb
  27              		.thumb_func
  28              		.type	VSL_CreateSineWave.part.0, %function
  29              	VSL_CreateSineWave.part.0:
  30              	.LFB79:
  31              		.file 1 "../convex-vexilla/cortex/fw/vexaudio.c"
  32              		.loc 1 522 0
  33              		.cfi_startproc
  34              		@ args = 0, pretend = 0, frame = 0
  35              		@ frame_needed = 0, uses_anonymous_args = 0
  36              	.LVL0:
  37 0000 F8B5     		push	{r3, r4, r5, r6, r7, lr}
  38              		.cfi_def_cfa_offset 24
  39              		.cfi_offset 3, -24
  40              		.cfi_offset 4, -20
  41              		.cfi_offset 5, -16
  42              		.cfi_offset 6, -12
  43              		.cfi_offset 7, -8
  44              		.cfi_offset 14, -4
  45 0002 C000     		lsls	r0, r0, #3
  46              	.LVL1:
  47 0004 FFF7FEFF 		bl	__aeabi_i2f
  48              	.LVL2:
  49 0008 0A4D     		ldr	r5, .L7
  50 000a 0646     		mov	r6, r0
  51 000c 0A4F     		ldr	r7, .L7+4
  52              		.loc 1 522 0
  53 000e 0020     		movs	r0, #0
  54 0010 0024     		movs	r4, #0
  55 0012 01E0     		b	.L3
  56              	.LVL3:
  57              	.L6:
ARM GAS  /var/folders/6q/x_mk5n_j3p7_c40r_2k_78980000gn/T//ccATRJXd.s 			page 2


  58 0014 57F8040F 		ldr	r0, [r7, #4]!	@ float
  59              	.LVL4:
  60              	.L3:
  61              		.loc 1 541 0
  62 0018 3146     		mov	r1, r6
  63 001a FFF7FEFF 		bl	__aeabi_fmul
  64              	.LVL5:
  65 001e 3146     		mov	r1, r6
  66 0020 FFF7FEFF 		bl	__aeabi_fadd
  67              	.LVL6:
  68 0024 FFF7FEFF 		bl	__aeabi_f2uiz
  69              	.LVL7:
  70              		.loc 1 533 0
  71 0028 0134     		adds	r4, r4, #1
  72              	.LVL8:
  73 002a 202C     		cmp	r4, #32
  74              		.loc 1 541 0
  75 002c 25F8020F 		strh	r0, [r5, #2]!	@ movhi
  76              		.loc 1 533 0
  77 0030 F0D1     		bne	.L6
  78 0032 F8BD     		pop	{r3, r4, r5, r6, r7, pc}
  79              	.LVL9:
  80              	.L8:
  81              		.align	2
  82              	.L7:
  83 0034 FEFFFFFF 		.word	.LANCHOR0-2
  84 0038 00000000 		.word	.LANCHOR1
  85              		.cfi_endproc
  86              	.LFE79:
  87              		.size	VSL_CreateSineWave.part.0, .-VSL_CreateSineWave.part.0
  88              		.section	.text.VSL_InitTimer.part.1,"ax",%progbits
  89              		.align	2
  90              		.p2align 4,,15
  91              		.thumb
  92              		.thumb_func
  93              		.type	VSL_InitTimer.part.1, %function
  94              	VSL_InitTimer.part.1:
  95              	.LFB80:
  96              		.loc 1 554 0
  97              		.cfi_startproc
  98              		@ args = 0, pretend = 0, frame = 0
  99              		@ frame_needed = 0, uses_anonymous_args = 0
 100              		@ link register save eliminated.
 101              	.LVL10:
 102              		.loc 1 572 0
 103 0000 0E4B     		ldr	r3, .L11
 104              		.loc 1 579 0
 105 0002 0139     		subs	r1, r1, #1
 106              	.LVL11:
 107              		.loc 1 572 0
 108 0004 1A88     		ldrh	r2, [r3]
 109              	.LVL12:
 110              		.loc 1 581 0
 111 0006 0138     		subs	r0, r0, #1
 112              	.LVL13:
 113              		.loc 1 574 0
 114 0008 22F44072 		bic	r2, r2, #768
ARM GAS  /var/folders/6q/x_mk5n_j3p7_c40r_2k_78980000gn/T//ccATRJXd.s 			page 3


 115              	.LVL14:
 116 000c 1204     		lsls	r2, r2, #16
 117              		.loc 1 554 0
 118 000e 10B4     		push	{r4}
 119              		.cfi_def_cfa_offset 4
 120              		.cfi_offset 4, -4
 121              		.loc 1 574 0
 122 0010 120C     		lsrs	r2, r2, #16
 123              	.LVL15:
 124              		.loc 1 584 0
 125 0012 0124     		movs	r4, #1
 126              		.loc 1 579 0
 127 0014 89B2     		uxth	r1, r1
 128              	.LVL16:
 129              		.loc 1 581 0
 130 0016 80B2     		uxth	r0, r0
 131              	.LVL17:
 132              		.loc 1 576 0
 133 0018 1A80     		strh	r2, [r3]	@ movhi
 134              		.loc 1 579 0
 135 001a 9985     		strh	r1, [r3, #44]	@ movhi
 136              		.loc 1 581 0
 137 001c 1885     		strh	r0, [r3, #40]	@ movhi
 138              		.loc 1 584 0
 139 001e 9C82     		strh	r4, [r3, #20]	@ movhi
 140              		.loc 1 588 0
 141 0020 9A88     		ldrh	r2, [r3, #4]
 142              	.LVL18:
 143              		.loc 1 592 0
 144 0022 10BC     		pop	{r4}
 145              		.cfi_restore 4
 146              		.cfi_def_cfa_offset 0
 147              		.loc 1 588 0
 148 0024 22F07002 		bic	r2, r2, #112
 149 0028 1204     		lsls	r2, r2, #16
 150 002a 120C     		lsrs	r2, r2, #16
 151 002c 9A80     		strh	r2, [r3, #4]	@ movhi
 152              		.loc 1 590 0
 153 002e 9A88     		ldrh	r2, [r3, #4]
 154 0030 92B2     		uxth	r2, r2
 155 0032 42F02002 		orr	r2, r2, #32
 156 0036 9A80     		strh	r2, [r3, #4]	@ movhi
 157              		.loc 1 592 0
 158 0038 7047     		bx	lr
 159              	.L12:
 160 003a 00BF     		.align	2
 161              	.L11:
 162 003c 00140040 		.word	1073746944
 163              		.cfi_endproc
 164              	.LFE80:
 165              		.size	VSL_InitTimer.part.1, .-VSL_InitTimer.part.1
 166              		.section	.text.vexAudioStopSound,"ax",%progbits
 167              		.align	2
 168              		.p2align 4,,15
 169              		.global	vexAudioStopSound
 170              		.thumb
 171              		.thumb_func
ARM GAS  /var/folders/6q/x_mk5n_j3p7_c40r_2k_78980000gn/T//ccATRJXd.s 			page 4


 172              		.type	vexAudioStopSound, %function
 173              	vexAudioStopSound:
 174              	.LFB66:
 175              		.loc 1 237 0
 176              		.cfi_startproc
 177              		@ args = 0, pretend = 0, frame = 0
 178              		@ frame_needed = 0, uses_anonymous_args = 0
 179              		@ link register save eliminated.
 180 0000 30B4     		push	{r4, r5}
 181              		.cfi_def_cfa_offset 8
 182              		.cfi_offset 4, -8
 183              		.cfi_offset 5, -4
 184              	.LBB20:
 185              	.LBB21:
 186              		.loc 1 356 0
 187 0002 064B     		ldr	r3, .L15
 188 0004 064C     		ldr	r4, .L15+4
 189 0006 1D68     		ldr	r5, [r3]
 190              	.LBE21:
 191              	.LBE20:
 192              		.loc 1 239 0
 193 0008 064A     		ldr	r2, .L15+8
 194 000a 0023     		movs	r3, #0
 195              	.LBB23:
 196              	.LBB22:
 197              		.loc 1 356 0
 198 000c 2560     		str	r5, [r4]
 199              	.LBE22:
 200              	.LBE23:
 201              		.loc 1 243 0
 202 000e 1946     		mov	r1, r3
 203              		.loc 1 244 0
 204 0010 30BC     		pop	{r4, r5}
 205              		.cfi_restore 5
 206              		.cfi_restore 4
 207              		.cfi_def_cfa_offset 0
 208              		.loc 1 243 0
 209 0012 0548     		ldr	r0, .L15+12
 210              		.loc 1 239 0
 211 0014 1360     		str	r3, [r2]
 212              		.loc 1 243 0
 213 0016 FFF7FEBF 		b	chSemReset
 214              	.LVL19:
 215              	.L16:
 216 001a 00BF     		.align	2
 217              	.L15:
 218 001c 00000000 		.word	.LANCHOR4
 219 0020 00000000 		.word	.LANCHOR3
 220 0024 00000000 		.word	.LANCHOR2
 221 0028 00000000 		.word	.LANCHOR5
 222              		.cfi_endproc
 223              	.LFE66:
 224              		.size	vexAudioStopSound, .-vexAudioStopSound
 225              		.section	.text.vexAudioInitChipToneSong,"ax",%progbits
 226              		.align	2
 227              		.p2align 4,,15
 228              		.global	vexAudioInitChipToneSong
ARM GAS  /var/folders/6q/x_mk5n_j3p7_c40r_2k_78980000gn/T//ccATRJXd.s 			page 5


 229              		.thumb
 230              		.thumb_func
 231              		.type	vexAudioInitChipToneSong, %function
 232              	vexAudioInitChipToneSong:
 233              	.LFB67:
 234              		.loc 1 272 0
 235              		.cfi_startproc
 236              		@ args = 0, pretend = 0, frame = 0
 237              		@ frame_needed = 0, uses_anonymous_args = 0
 238              	.LVL20:
 239 0000 F8B5     		push	{r3, r4, r5, r6, r7, lr}
 240              		.cfi_def_cfa_offset 24
 241              		.cfi_offset 3, -24
 242              		.cfi_offset 4, -20
 243              		.cfi_offset 5, -16
 244              		.cfi_offset 6, -12
 245              		.cfi_offset 7, -8
 246              		.cfi_offset 14, -4
 247              		.loc 1 277 0
 248 0002 1B4E     		ldr	r6, .L33
 249              		.loc 1 272 0
 250 0004 0446     		mov	r4, r0
 251              		.loc 1 277 0
 252 0006 3068     		ldr	r0, [r6]
 253              	.LVL21:
 254              		.loc 1 279 0
 255 0008 1A4D     		ldr	r5, .L33+4
 256              		.loc 1 277 0
 257 000a F8B1     		cbz	r0, .L18
 258              		.loc 1 279 0
 259 000c 2B68     		ldr	r3, [r5]
 260 000e A342     		cmp	r3, r4
 261 0010 18DB     		blt	.L32
 262              		.loc 1 291 0
 263 0012 194E     		ldr	r6, .L33+8
 264              		.loc 1 293 0
 265 0014 1949     		ldr	r1, .L33+12
 266              		.loc 1 294 0
 267 0016 1A4A     		ldr	r2, .L33+16
 268              		.loc 1 291 0
 269 0018 0023     		movs	r3, #0
 270 001a 3360     		str	r3, [r6]
 271              		.loc 1 292 0
 272 001c 2B60     		str	r3, [r5]
 273              		.loc 1 293 0
 274 001e 0B60     		str	r3, [r1]
 275              		.loc 1 294 0
 276 0020 1360     		str	r3, [r2]
 277              	.L24:
 278              	.LVL22:
 279              		.loc 1 301 0 discriminator 1
 280 0022 002C     		cmp	r4, #0
 281 0024 0BDD     		ble	.L23
 282              		.loc 1 301 0 is_stmt 0 discriminator 3
 283 0026 0023     		movs	r3, #0
 284              		.loc 1 303 0 is_stmt 1 discriminator 3
 285 0028 1A46     		mov	r2, r3
ARM GAS  /var/folders/6q/x_mk5n_j3p7_c40r_2k_78980000gn/T//ccATRJXd.s 			page 6


 286 002a 0830     		adds	r0, r0, #8
 287              	.LVL23:
 288              	.L22:
 289              		.loc 1 301 0 discriminator 3
 290 002c 0133     		adds	r3, r3, #1
 291              	.LVL24:
 292 002e 9C42     		cmp	r4, r3
 293              		.loc 1 303 0 discriminator 3
 294 0030 40F8082C 		str	r2, [r0, #-8]
 295              		.loc 1 307 0 discriminator 3
 296 0034 40F8042C 		str	r2, [r0, #-4]
 297 0038 00F10800 		add	r0, r0, #8
 298              	.LVL25:
 299              		.loc 1 301 0 discriminator 3
 300 003c F6D1     		bne	.L22
 301              	.LVL26:
 302              	.L23:
 303              		.loc 1 309 0
 304 003e 2C60     		str	r4, [r5]
 305              		.loc 1 311 0
 306 0040 0120     		movs	r0, #1
 307 0042 F8BD     		pop	{r3, r4, r5, r6, r7, pc}
 308              	.LVL27:
 309              	.L32:
 310              		.loc 1 281 0
 311 0044 FFF7FEFF 		bl	chHeapFree
 312              	.LVL28:
 313              		.loc 1 282 0
 314 0048 0023     		movs	r3, #0
 315 004a 3360     		str	r3, [r6]
 316              	.L18:
 317              		.loc 1 288 0
 318 004c 611C     		adds	r1, r4, #1
 319 004e C900     		lsls	r1, r1, #3
 320 0050 0020     		movs	r0, #0
 321 0052 FFF7FEFF 		bl	chHeapAlloc
 322              	.LVL29:
 323              		.loc 1 291 0
 324 0056 084F     		ldr	r7, .L33+8
 325              		.loc 1 293 0
 326 0058 0849     		ldr	r1, .L33+12
 327              		.loc 1 294 0
 328 005a 094A     		ldr	r2, .L33+16
 329              		.loc 1 291 0
 330 005c 0023     		movs	r3, #0
 331              		.loc 1 288 0
 332 005e 3060     		str	r0, [r6]
 333              		.loc 1 291 0
 334 0060 3B60     		str	r3, [r7]
 335              		.loc 1 292 0
 336 0062 2B60     		str	r3, [r5]
 337              		.loc 1 293 0
 338 0064 0B60     		str	r3, [r1]
 339              		.loc 1 294 0
 340 0066 1360     		str	r3, [r2]
 341              		.loc 1 297 0
 342 0068 0028     		cmp	r0, #0
ARM GAS  /var/folders/6q/x_mk5n_j3p7_c40r_2k_78980000gn/T//ccATRJXd.s 			page 7


 343 006a DAD1     		bne	.L24
 344 006c F8BD     		pop	{r3, r4, r5, r6, r7, pc}
 345              	.LVL30:
 346              	.L34:
 347 006e 00BF     		.align	2
 348              	.L33:
 349 0070 00000000 		.word	.LANCHOR6
 350 0074 00000000 		.word	.LANCHOR7
 351 0078 00000000 		.word	.LANCHOR4
 352 007c 00000000 		.word	.LANCHOR3
 353 0080 00000000 		.word	.LANCHOR8
 354              		.cfi_endproc
 355              	.LFE67:
 356              		.size	vexAudioInitChipToneSong, .-vexAudioInitChipToneSong
 357              		.section	.text.vexAudioDeinitChipToneSong,"ax",%progbits
 358              		.align	2
 359              		.p2align 4,,15
 360              		.global	vexAudioDeinitChipToneSong
 361              		.thumb
 362              		.thumb_func
 363              		.type	vexAudioDeinitChipToneSong, %function
 364              	vexAudioDeinitChipToneSong:
 365              	.LFB68:
 366              		.loc 1 323 0
 367              		.cfi_startproc
 368              		@ args = 0, pretend = 0, frame = 0
 369              		@ frame_needed = 0, uses_anonymous_args = 0
 370 0000 10B5     		push	{r4, lr}
 371              		.cfi_def_cfa_offset 8
 372              		.cfi_offset 4, -8
 373              		.cfi_offset 14, -4
 374              		.loc 1 325 0
 375 0002 054C     		ldr	r4, .L41
 376 0004 2068     		ldr	r0, [r4]
 377 0006 28B1     		cbz	r0, .L35
 378              		.loc 1 327 0
 379 0008 FFF7FEFF 		bl	chHeapFree
 380              	.LVL31:
 381              		.loc 1 329 0
 382 000c 034A     		ldr	r2, .L41+4
 383              		.loc 1 328 0
 384 000e 0023     		movs	r3, #0
 385              		.loc 1 329 0
 386 0010 1360     		str	r3, [r2]
 387              		.loc 1 328 0
 388 0012 2360     		str	r3, [r4]
 389              	.L35:
 390 0014 10BD     		pop	{r4, pc}
 391              	.L42:
 392 0016 00BF     		.align	2
 393              	.L41:
 394 0018 00000000 		.word	.LANCHOR6
 395 001c 00000000 		.word	.LANCHOR7
 396              		.cfi_endproc
 397              	.LFE68:
 398              		.size	vexAudioDeinitChipToneSong, .-vexAudioDeinitChipToneSong
 399              		.section	.text.vexAudioStopChipToneSong,"ax",%progbits
ARM GAS  /var/folders/6q/x_mk5n_j3p7_c40r_2k_78980000gn/T//ccATRJXd.s 			page 8


 400              		.align	2
 401              		.p2align 4,,15
 402              		.global	vexAudioStopChipToneSong
 403              		.thumb
 404              		.thumb_func
 405              		.type	vexAudioStopChipToneSong, %function
 406              	vexAudioStopChipToneSong:
 407              	.LFB70:
 408              		.loc 1 355 0
 409              		.cfi_startproc
 410              		@ args = 0, pretend = 0, frame = 0
 411              		@ frame_needed = 0, uses_anonymous_args = 0
 412              		@ link register save eliminated.
 413              		.loc 1 356 0
 414 0000 024A     		ldr	r2, .L44
 415 0002 034B     		ldr	r3, .L44+4
 416 0004 1268     		ldr	r2, [r2]
 417 0006 1A60     		str	r2, [r3]
 418 0008 7047     		bx	lr
 419              	.L45:
 420 000a 00BF     		.align	2
 421              	.L44:
 422 000c 00000000 		.word	.LANCHOR4
 423 0010 00000000 		.word	.LANCHOR3
 424              		.cfi_endproc
 425              	.LFE70:
 426              		.size	vexAudioStopChipToneSong, .-vexAudioStopChipToneSong
 427              		.section	.text.vexAudioSetNextChipTone,"ax",%progbits
 428              		.align	2
 429              		.p2align 4,,15
 430              		.global	vexAudioSetNextChipTone
 431              		.thumb
 432              		.thumb_func
 433              		.type	vexAudioSetNextChipTone, %function
 434              	vexAudioSetNextChipTone:
 435              	.LFB71:
 436              		.loc 1 368 0
 437              		.cfi_startproc
 438              		@ args = 0, pretend = 0, frame = 0
 439              		@ frame_needed = 0, uses_anonymous_args = 0
 440              		@ link register save eliminated.
 441              	.LVL32:
 442              		.loc 1 371 0
 443 0000 0B4B     		ldr	r3, .L54
 444              		.loc 1 368 0
 445 0002 F0B4     		push	{r4, r5, r6, r7}
 446              		.cfi_def_cfa_offset 16
 447              		.cfi_offset 4, -16
 448              		.cfi_offset 5, -12
 449              		.cfi_offset 6, -8
 450              		.cfi_offset 7, -4
 451              		.loc 1 371 0
 452 0004 1C68     		ldr	r4, [r3]
 453 0006 6CB1     		cbz	r4, .L46
 454              		.loc 1 373 0
 455 0008 0A4D     		ldr	r5, .L54+4
 456 000a 0B4E     		ldr	r6, .L54+8
ARM GAS  /var/folders/6q/x_mk5n_j3p7_c40r_2k_78980000gn/T//ccATRJXd.s 			page 9


 457 000c 2B68     		ldr	r3, [r5]
 458 000e 3668     		ldr	r6, [r6]
 459 0010 B342     		cmp	r3, r6
 460 0012 07DA     		bge	.L46
 461              		.loc 1 375 0
 462 0014 04EBC306 		add	r6, r4, r3, lsl #3
 463              	.LVL33:
 464              		.loc 1 378 0
 465 0018 33B1     		cbz	r3, .L53
 466              	.L48:
 467              		.loc 1 387 0
 468 001a 591C     		adds	r1, r3, #1
 469              	.LVL34:
 470              		.loc 1 381 0
 471 001c 44F83300 		str	r0, [r4, r3, lsl #3]
 472              		.loc 1 387 0
 473 0020 2960     		str	r1, [r5]
 474              		.loc 1 385 0
 475 0022 7260     		str	r2, [r6, #4]
 476              	.LVL35:
 477              	.L46:
 478              		.loc 1 390 0
 479 0024 F0BC     		pop	{r4, r5, r6, r7}
 480              		.cfi_remember_state
 481              		.cfi_restore 7
 482              		.cfi_restore 6
 483              		.cfi_restore 5
 484              		.cfi_restore 4
 485              		.cfi_def_cfa_offset 0
 486 0026 7047     		bx	lr
 487              	.LVL36:
 488              	.L53:
 489              		.cfi_restore_state
 490              		.loc 1 379 0
 491 0028 044F     		ldr	r7, .L54+12
 492 002a 3960     		str	r1, [r7]
 493 002c F5E7     		b	.L48
 494              	.L55:
 495 002e 00BF     		.align	2
 496              	.L54:
 497 0030 00000000 		.word	.LANCHOR6
 498 0034 00000000 		.word	.LANCHOR4
 499 0038 00000000 		.word	.LANCHOR7
 500 003c 00000000 		.word	.LANCHOR9
 501              		.cfi_endproc
 502              	.LFE71:
 503              		.size	vexAudioSetNextChipTone, .-vexAudioSetNextChipTone
 504              		.section	.text.vexAudioDebugChipTone,"ax",%progbits
 505              		.align	2
 506              		.p2align 4,,15
 507              		.global	vexAudioDebugChipTone
 508              		.thumb
 509              		.thumb_func
 510              		.type	vexAudioDebugChipTone, %function
 511              	vexAudioDebugChipTone:
 512              	.LFB72:
 513              		.loc 1 398 0
ARM GAS  /var/folders/6q/x_mk5n_j3p7_c40r_2k_78980000gn/T//ccATRJXd.s 			page 10


 514              		.cfi_startproc
 515              		@ args = 0, pretend = 0, frame = 0
 516              		@ frame_needed = 0, uses_anonymous_args = 0
 517 0000 F8B5     		push	{r3, r4, r5, r6, r7, lr}
 518              		.cfi_def_cfa_offset 24
 519              		.cfi_offset 3, -24
 520              		.cfi_offset 4, -20
 521              		.cfi_offset 5, -16
 522              		.cfi_offset 6, -12
 523              		.cfi_offset 7, -8
 524              		.cfi_offset 14, -4
 525              		.loc 1 402 0
 526 0002 0C4E     		ldr	r6, .L62
 527 0004 3268     		ldr	r2, [r6]
 528 0006 A2B1     		cbz	r2, .L56
 529              	.LVL37:
 530              		.loc 1 404 0 discriminator 1
 531 0008 0B4D     		ldr	r5, .L62+4
 532 000a 2B68     		ldr	r3, [r5]
 533 000c 002B     		cmp	r3, #0
 534 000e 10DD     		ble	.L56
 535 0010 0A4F     		ldr	r7, .L62+8
 536              		.loc 1 404 0 is_stmt 0 discriminator 3
 537 0012 0024     		movs	r4, #0
 538 0014 00E0     		b	.L59
 539              	.LVL38:
 540              	.L61:
 541 0016 3268     		ldr	r2, [r6]
 542              	.LVL39:
 543              	.L59:
 544              		.loc 1 406 0 is_stmt 1 discriminator 3
 545 0018 02EBC403 		add	r3, r2, r4, lsl #3
 546              	.LVL40:
 547              		.loc 1 411 0 discriminator 3
 548 001c 52F83410 		ldr	r1, [r2, r4, lsl #3]
 549 0020 5B68     		ldr	r3, [r3, #4]
 550              	.LVL41:
 551 0022 3A68     		ldr	r2, [r7]
 552              	.LVL42:
 553 0024 0648     		ldr	r0, .L62+12
 554 0026 FFF7FEFF 		bl	vex_printf
 555              	.LVL43:
 556              		.loc 1 404 0 discriminator 3
 557 002a 2B68     		ldr	r3, [r5]
 558 002c 0134     		adds	r4, r4, #1
 559              	.LVL44:
 560 002e A342     		cmp	r3, r4
 561 0030 F1DC     		bgt	.L61
 562              	.LVL45:
 563              	.L56:
 564 0032 F8BD     		pop	{r3, r4, r5, r6, r7, pc}
 565              	.L63:
 566              		.align	2
 567              	.L62:
 568 0034 00000000 		.word	.LANCHOR6
 569 0038 00000000 		.word	.LANCHOR7
 570 003c 00000000 		.word	.LANCHOR9
ARM GAS  /var/folders/6q/x_mk5n_j3p7_c40r_2k_78980000gn/T//ccATRJXd.s 			page 11


 571 0040 00000000 		.word	.LC0
 572              		.cfi_endproc
 573              	.LFE72:
 574              		.size	vexAudioDebugChipTone, .-vexAudioDebugChipTone
 575              		.section	.text.VSL_Factorize,"ax",%progbits
 576              		.align	2
 577              		.p2align 4,,15
 578              		.global	VSL_Factorize
 579              		.thumb
 580              		.thumb_func
 581              		.type	VSL_Factorize, %function
 582              	VSL_Factorize:
 583              	.LFB74:
 584              		.loc 1 472 0
 585              		.cfi_startproc
 586              		@ args = 0, pretend = 0, frame = 0
 587              		@ frame_needed = 0, uses_anonymous_args = 0
 588              		@ link register save eliminated.
 589              	.LVL46:
 590              		.loc 1 475 0
 591 0000 0123     		movs	r3, #1
 592              		.loc 1 477 0
 593 0002 9842     		cmp	r0, r3
 594              		.loc 1 475 0
 595 0004 1360     		str	r3, [r2]
 596 0006 0B60     		str	r3, [r1]
 597              		.loc 1 477 0
 598 0008 21DD     		ble	.L78
 599              		.loc 1 482 0
 600 000a 0228     		cmp	r0, #2
 601 000c 20D0     		beq	.L72
 602              		.loc 1 472 0
 603 000e 30B4     		push	{r4, r5}
 604              		.cfi_def_cfa_offset 8
 605              		.cfi_offset 4, -8
 606              		.cfi_offset 5, -4
 607              		.loc 1 482 0
 608 0010 0223     		movs	r3, #2
 609 0012 0BE0     		b	.L71
 610              	.LVL47:
 611              	.L81:
 612              		.loc 1 487 0
 613 0014 0868     		ldr	r0, [r1]
 614              	.LVL48:
 615 0016 00FB03F0 		mul	r0, r0, r3
 616 001a FF28     		cmp	r0, #255
 617              		.loc 1 490 0
 618 001c C9BF     		itett	gt
 619 001e 1068     		ldrgt	r0, [r2]
 620              		.loc 1 488 0
 621 0020 0860     		strle	r0, [r1]
 622              		.loc 1 490 0
 623 0022 5843     		mulgt	r0, r3, r0
 624 0024 1060     		strgt	r0, [r2]
 625              		.loc 1 492 0
 626 0026 2046     		mov	r0, r4
 627              	.LVL49:
ARM GAS  /var/folders/6q/x_mk5n_j3p7_c40r_2k_78980000gn/T//ccATRJXd.s 			page 12


 628              		.loc 1 482 0
 629 0028 8342     		cmp	r3, r0
 630 002a 0BDA     		bge	.L80
 631              	.LVL50:
 632              	.L71:
 633              		.loc 1 485 0
 634 002c 90FBF3F4 		sdiv	r4, r0, r3
 635 0030 03FB1405 		mls	r5, r3, r4, r0
 636 0034 002D     		cmp	r5, #0
 637 0036 EDD0     		beq	.L81
 638              		.loc 1 497 0
 639 0038 022B     		cmp	r3, #2
 640              		.loc 1 500 0
 641 003a 14BF     		ite	ne
 642 003c 0233     		addne	r3, r3, #2
 643              	.LVL51:
 644              		.loc 1 498 0
 645 003e 0323     		moveq	r3, #3
 646              	.LVL52:
 647              		.loc 1 482 0
 648 0040 8342     		cmp	r3, r0
 649 0042 F3DB     		blt	.L71
 650              	.L80:
 651              		.loc 1 504 0
 652 0044 1168     		ldr	r1, [r2]
 653              	.LVL53:
 654              		.loc 1 505 0
 655 0046 30BC     		pop	{r4, r5}
 656              		.cfi_restore 5
 657              		.cfi_restore 4
 658              		.cfi_def_cfa_offset 0
 659              		.loc 1 504 0
 660 0048 03FB01F3 		mul	r3, r3, r1
 661              	.LVL54:
 662 004c 1360     		str	r3, [r2]
 663              	.L78:
 664              		.loc 1 505 0
 665 004e 7047     		bx	lr
 666              	.LVL55:
 667              	.L72:
 668              		.loc 1 482 0
 669 0050 0346     		mov	r3, r0
 670              		.loc 1 504 0
 671 0052 1168     		ldr	r1, [r2]
 672              	.LVL56:
 673 0054 03FB01F3 		mul	r3, r3, r1
 674 0058 1360     		str	r3, [r2]
 675 005a 7047     		bx	lr
 676              		.cfi_endproc
 677              	.LFE74:
 678              		.size	VSL_Factorize, .-VSL_Factorize
 679              		.section	.text.VSL_CreateSineWave,"ax",%progbits
 680              		.align	2
 681              		.p2align 4,,15
 682              		.global	VSL_CreateSineWave
 683              		.thumb
 684              		.thumb_func
ARM GAS  /var/folders/6q/x_mk5n_j3p7_c40r_2k_78980000gn/T//ccATRJXd.s 			page 13


 685              		.type	VSL_CreateSineWave, %function
 686              	VSL_CreateSineWave:
 687              	.LFB75:
 688              		.loc 1 523 0
 689              		.cfi_startproc
 690              		@ args = 0, pretend = 0, frame = 0
 691              		@ frame_needed = 0, uses_anonymous_args = 0
 692              		@ link register save eliminated.
 693              	.LVL57:
 694              		.loc 1 529 0
 695 0000 FF28     		cmp	r0, #255
 696 0002 01D8     		bhi	.L82
 697 0004 FFF7FEBF 		b	VSL_CreateSineWave.part.0
 698              	.LVL58:
 699              	.L82:
 700 0008 7047     		bx	lr
 701              		.cfi_endproc
 702              	.LFE75:
 703              		.size	VSL_CreateSineWave, .-VSL_CreateSineWave
 704 000a 00BF     		.section	.text.VSL_InitTimer,"ax",%progbits
 705              		.align	2
 706              		.p2align 4,,15
 707              		.global	VSL_InitTimer
 708              		.thumb
 709              		.thumb_func
 710              		.type	VSL_InitTimer, %function
 711              	VSL_InitTimer:
 712              	.LFB76:
 713              		.loc 1 555 0
 714              		.cfi_startproc
 715              		@ args = 0, pretend = 0, frame = 0
 716              		@ frame_needed = 0, uses_anonymous_args = 0
 717              		@ link register save eliminated.
 718              	.LVL59:
 719 0000 30B4     		push	{r4, r5}
 720              		.cfi_def_cfa_offset 8
 721              		.cfi_offset 4, -8
 722              		.cfi_offset 5, -4
 723              		.loc 1 562 0
 724 0002 094C     		ldr	r4, .L93
 725              		.loc 1 565 0
 726 0004 094A     		ldr	r2, .L93+4
 727              		.loc 1 562 0
 728 0006 E369     		ldr	r3, [r4, #28]
 729 0008 43F02003 		orr	r3, r3, #32
 730 000c E361     		str	r3, [r4, #28]
 731              		.loc 1 565 0
 732 000e 1388     		ldrh	r3, [r2]
 733 0010 23F00103 		bic	r3, r3, #1
 734 0014 1B04     		lsls	r3, r3, #16
 735 0016 1B0C     		lsrs	r3, r3, #16
 736 0018 1380     		strh	r3, [r2]	@ movhi
 737              		.loc 1 568 0
 738 001a 19B1     		cbz	r1, .L84
 739              		.loc 1 568 0 is_stmt 0 discriminator 1
 740 001c 10B1     		cbz	r0, .L84
 741              		.loc 1 592 0 is_stmt 1
ARM GAS  /var/folders/6q/x_mk5n_j3p7_c40r_2k_78980000gn/T//ccATRJXd.s 			page 14


 742 001e 30BC     		pop	{r4, r5}
 743              		.cfi_remember_state
 744              		.cfi_restore 5
 745              		.cfi_restore 4
 746              		.cfi_def_cfa_offset 0
 747 0020 FFF7FEBF 		b	VSL_InitTimer.part.1
 748              	.LVL60:
 749              	.L84:
 750              		.cfi_restore_state
 751 0024 30BC     		pop	{r4, r5}
 752              		.cfi_restore 5
 753              		.cfi_restore 4
 754              		.cfi_def_cfa_offset 0
 755 0026 7047     		bx	lr
 756              	.L94:
 757              		.align	2
 758              	.L93:
 759 0028 00100240 		.word	1073876992
 760 002c 00140040 		.word	1073746944
 761              		.cfi_endproc
 762              	.LFE76:
 763              		.size	VSL_InitTimer, .-VSL_InitTimer
 764              		.section	.text.VSL_Init,"ax",%progbits
 765              		.align	2
 766              		.p2align 4,,15
 767              		.global	VSL_Init
 768              		.thumb
 769              		.thumb_func
 770              		.type	VSL_Init, %function
 771              	VSL_Init:
 772              	.LFB77:
 773              		.loc 1 600 0
 774              		.cfi_startproc
 775              		@ args = 0, pretend = 0, frame = 0
 776              		@ frame_needed = 0, uses_anonymous_args = 0
 777              	.LVL61:
 778 0000 38B5     		push	{r3, r4, r5, lr}
 779              		.cfi_def_cfa_offset 16
 780              		.cfi_offset 3, -16
 781              		.cfi_offset 4, -12
 782              		.cfi_offset 5, -8
 783              		.cfi_offset 14, -4
 784              	.LBB35:
 785              	.LBB36:
 786              		.loc 1 562 0
 787 0002 1F4D     		ldr	r5, .L98
 788              	.LBE36:
 789              	.LBE35:
 790              	.LBB38:
 791              	.LBB39:
 792 0004 4020     		movs	r0, #64
 793 0006 FFF7FEFF 		bl	VSL_CreateSineWave.part.0
 794              	.LVL62:
 795              	.LBE39:
 796              	.LBE38:
 797              	.LBB40:
 798              	.LBB37:
ARM GAS  /var/folders/6q/x_mk5n_j3p7_c40r_2k_78980000gn/T//ccATRJXd.s 			page 15


 799 000a EB69     		ldr	r3, [r5, #28]
 800              		.loc 1 565 0
 801 000c 1D4A     		ldr	r2, .L98+4
 802              		.loc 1 562 0
 803 000e 43F02003 		orr	r3, r3, #32
 804 0012 EB61     		str	r3, [r5, #28]
 805              		.loc 1 565 0
 806 0014 1388     		ldrh	r3, [r2]
 807 0016 FA21     		movs	r1, #250
 808 0018 23F00103 		bic	r3, r3, #1
 809 001c 1B04     		lsls	r3, r3, #16
 810 001e 1B0C     		lsrs	r3, r3, #16
 811 0020 1380     		strh	r3, [r2]	@ movhi
 812 0022 0920     		movs	r0, #9
 813 0024 FFF7FEFF 		bl	VSL_InitTimer.part.1
 814              	.LVL63:
 815              	.LBE37:
 816              	.LBE40:
 817              		.loc 1 619 0
 818 0028 EB69     		ldr	r3, [r5, #28]
 819              		.loc 1 623 0
 820 002a 174C     		ldr	r4, .L98+8
 821              		.loc 1 619 0
 822 002c 43F00053 		orr	r3, r3, #536870912
 823 0030 EB61     		str	r3, [r5, #28]
 824              		.loc 1 623 0
 825 0032 2268     		ldr	r2, [r4]
 826              	.LVL64:
 827              		.loc 1 634 0
 828 0034 0023     		movs	r3, #0
 829              		.loc 1 625 0
 830 0036 22F47F62 		bic	r2, r2, #4080
 831              	.LVL65:
 832 003a 22F00E02 		bic	r2, r2, #14
 833              	.LVL66:
 834              		.loc 1 629 0
 835 003e 42F01602 		orr	r2, r2, #22
 836              	.LVL67:
 837              		.loc 1 631 0
 838 0042 2260     		str	r2, [r4]
 839              		.loc 1 634 0
 840 0044 1946     		mov	r1, r3
 841 0046 1A46     		mov	r2, r3
 842              	.LVL68:
 843 0048 1048     		ldr	r0, .L98+12
 844 004a FFF7FEFF 		bl	dmaStreamAllocate
 845              	.LVL69:
 846 004e B0B9     		cbnz	r0, .L95
 847              	.LVL70:
 848              	.LBB41:
 849              	.LBB42:
 850              	.LBB43:
 851              		.loc 1 642 0
 852 0050 42F2B055 		movw	r5, #9648
 853 0054 0E4B     		ldr	r3, .L98+16
 854              		.loc 1 646 0
 855 0056 0F4A     		ldr	r2, .L98+20
ARM GAS  /var/folders/6q/x_mk5n_j3p7_c40r_2k_78980000gn/T//ccATRJXd.s 			page 16


 856              		.loc 1 642 0
 857 0058 DB6E     		ldr	r3, [r3, #108]
 858              		.loc 1 645 0
 859 005a 0F49     		ldr	r1, .L98+24
 860              		.loc 1 644 0
 861 005c 2020     		movs	r0, #32
 862              		.loc 1 642 0
 863 005e 1D60     		str	r5, [r3]
 864              		.loc 1 644 0
 865 0060 5860     		str	r0, [r3, #4]
 866              		.loc 1 645 0
 867 0062 9960     		str	r1, [r3, #8]
 868              		.loc 1 646 0
 869 0064 DA60     		str	r2, [r3, #12]
 870              		.loc 1 649 0
 871 0066 1A68     		ldr	r2, [r3]
 872 0068 42F00102 		orr	r2, r2, #1
 873 006c 1A60     		str	r2, [r3]
 874              		.loc 1 653 0
 875 006e 2368     		ldr	r3, [r4]
 876 0070 43F00103 		orr	r3, r3, #1
 877 0074 2360     		str	r3, [r4]
 878              		.loc 1 656 0
 879 0076 2368     		ldr	r3, [r4]
 880 0078 43F48053 		orr	r3, r3, #4096
 881 007c 2360     		str	r3, [r4]
 882              	.LVL71:
 883              	.L95:
 884 007e 38BD     		pop	{r3, r4, r5, pc}
 885              	.L99:
 886              		.align	2
 887              	.L98:
 888 0080 00100240 		.word	1073876992
 889 0084 00140040 		.word	1073746944
 890 0088 00740040 		.word	1073771520
 891 008c 6C000000 		.word	_stm32_dma_streams+108
 892 0090 00000000 		.word	_stm32_dma_streams
 893 0094 00000000 		.word	.LANCHOR0
 894 0098 08740040 		.word	1073771528
 895              	.LBE43:
 896              	.LBE42:
 897              	.LBE41:
 898              		.cfi_endproc
 899              	.LFE77:
 900              		.size	VSL_Init, .-VSL_Init
 901              		.section	.text.vexAudioPlaySound,"ax",%progbits
 902              		.align	2
 903              		.p2align 4,,15
 904              		.global	vexAudioPlaySound
 905              		.thumb
 906              		.thumb_func
 907              		.type	vexAudioPlaySound, %function
 908              	vexAudioPlaySound:
 909              	.LFB64:
 910              		.loc 1 153 0
 911              		.cfi_startproc
 912              		@ args = 0, pretend = 0, frame = 8
ARM GAS  /var/folders/6q/x_mk5n_j3p7_c40r_2k_78980000gn/T//ccATRJXd.s 			page 17


 913              		@ frame_needed = 0, uses_anonymous_args = 0
 914              	.LVL72:
 915 0000 2DE9F041 		push	{r4, r5, r6, r7, r8, lr}
 916              		.cfi_def_cfa_offset 24
 917              		.cfi_offset 4, -24
 918              		.cfi_offset 5, -20
 919              		.cfi_offset 6, -16
 920              		.cfi_offset 7, -12
 921              		.cfi_offset 8, -8
 922              		.cfi_offset 14, -4
 923              		.loc 1 161 0
 924 0004 DFF8CC80 		ldr	r8, .L115+28
 925              		.loc 1 153 0
 926 0008 84B0     		sub	sp, sp, #16
 927              		.cfi_def_cfa_offset 40
 928              		.loc 1 161 0
 929 000a D8F80070 		ldr	r7, [r8]
 930              		.loc 1 153 0
 931 000e 0446     		mov	r4, r0
 932 0010 0D46     		mov	r5, r1
 933 0012 1646     		mov	r6, r2
 934              		.loc 1 161 0
 935 0014 002F     		cmp	r7, #0
 936 0016 3DD0     		beq	.L113
 937              	.LVL73:
 938              	.L101:
 939              		.loc 1 178 0
 940 0018 274F     		ldr	r7, .L115
 941 001a 3B68     		ldr	r3, [r7]
 942              		.loc 1 171 0
 943 001c 24B3     		cbz	r4, .L102
 944              		.loc 1 178 0
 945 001e 9D42     		cmp	r5, r3
 946 0020 02D0     		beq	.L103
 947              	.LVL74:
 948              	.LBB44:
 949              	.LBB45:
 950              		.loc 1 529 0
 951 0022 FF2D     		cmp	r5, #255
 952 0024 32D9     		bls	.L107
 953              	.LVL75:
 954              	.L104:
 955              	.LBE45:
 956              	.LBE44:
 957              		.loc 1 181 0
 958 0026 3D60     		str	r5, [r7]
 959              	.L103:
 960              		.loc 1 185 0
 961 0028 C72C     		cmp	r4, #199
 962 002a 21DC     		bgt	.L114
 963 002c 42F6F230 		movw	r0, #11250
 964              	.L106:
 965              		.loc 1 189 0
 966 0030 03AA     		add	r2, sp, #12
 967 0032 02A9     		add	r1, sp, #8
 968 0034 FFF7FEFF 		bl	VSL_Factorize
 969              	.LVL76:
ARM GAS  /var/folders/6q/x_mk5n_j3p7_c40r_2k_78980000gn/T//ccATRJXd.s 			page 18


 970              		.loc 1 192 0
 971 0038 0399     		ldr	r1, [sp, #12]
 972 003a 0298     		ldr	r0, [sp, #8]
 973 003c FFF7FEFF 		bl	VSL_InitTimer
 974              	.LVL77:
 975              		.loc 1 195 0
 976 0040 1E49     		ldr	r1, .L115+4
 977              		.loc 1 198 0
 978 0042 1F4A     		ldr	r2, .L115+8
 979              		.loc 1 195 0
 980 0044 0B68     		ldr	r3, [r1]
 981              		.loc 1 201 0
 982 0046 1F4C     		ldr	r4, .L115+12
 983              		.loc 1 195 0
 984 0048 43F00103 		orr	r3, r3, #1
 985 004c 0B60     		str	r3, [r1]
 986              		.loc 1 198 0
 987 004e 1388     		ldrh	r3, [r2]
 988              		.loc 1 203 0
 989 0050 0021     		movs	r1, #0
 990              		.loc 1 198 0
 991 0052 9BB2     		uxth	r3, r3
 992 0054 43F00103 		orr	r3, r3, #1
 993 0058 1380     		strh	r3, [r2]	@ movhi
 994              		.loc 1 203 0
 995 005a 1B48     		ldr	r0, .L115+16
 996              		.loc 1 201 0
 997 005c 2660     		str	r6, [r4]
 998              		.loc 1 203 0
 999 005e FFF7FEFF 		bl	chSemReset
 1000              	.LVL78:
 1001              		.loc 1 205 0
 1002 0062 04B0     		add	sp, sp, #16
 1003              		.cfi_remember_state
 1004              		.cfi_def_cfa_offset 24
 1005              		@ sp needed
 1006 0064 BDE8F081 		pop	{r4, r5, r6, r7, r8, pc}
 1007              	.LVL79:
 1008              	.L102:
 1009              		.cfi_restore_state
 1010              		.loc 1 178 0
 1011 0068 6BB9     		cbnz	r3, .L110
 1012 006a 40F6CA00 		movw	r0, #2250
 1013 006e DFE7     		b	.L106
 1014              	.LVL80:
 1015              	.L114:
 1016              		.loc 1 186 0
 1017 0070 42F21073 		movw	r3, #10000
 1018 0074 9C42     		cmp	r4, r3
 1019 0076 C8BF     		it	gt
 1020 0078 E120     		movgt	r0, #225
 1021 007a D9DC     		bgt	.L106
 1022 007c 134B     		ldr	r3, .L115+20
 1023 007e 6001     		lsls	r0, r4, #5
 1024 0080 93FBF0F0 		sdiv	r0, r3, r0
 1025 0084 D4E7     		b	.L106
 1026              	.LVL81:
ARM GAS  /var/folders/6q/x_mk5n_j3p7_c40r_2k_78980000gn/T//ccATRJXd.s 			page 19


 1027              	.L110:
 1028              		.loc 1 174 0
 1029 0086 2546     		mov	r5, r4
 1030              		.loc 1 173 0
 1031 0088 4FF47A74 		mov	r4, #1000
 1032              	.LVL82:
 1033              	.L107:
 1034              	.LBB47:
 1035              	.LBB46:
 1036 008c 2846     		mov	r0, r5
 1037 008e FFF7FEFF 		bl	VSL_CreateSineWave.part.0
 1038              	.LVL83:
 1039 0092 C8E7     		b	.L104
 1040              	.LVL84:
 1041              	.L113:
 1042              	.LBE46:
 1043              	.LBE47:
 1044              		.loc 1 163 0
 1045 0094 FFF7FEFF 		bl	VSL_Init
 1046              	.LVL85:
 1047              		.loc 1 165 0
 1048 0098 3946     		mov	r1, r7
 1049 009a 0B48     		ldr	r0, .L115+16
 1050 009c FFF7FEFF 		bl	chSemInit
 1051              	.LVL86:
 1052              		.loc 1 166 0
 1053 00a0 0097     		str	r7, [sp]
 1054 00a2 3846     		mov	r0, r7
 1055 00a4 0A4B     		ldr	r3, .L115+24
 1056 00a6 4022     		movs	r2, #64
 1057 00a8 4FF4C071 		mov	r1, #384
 1058 00ac FFF7FEFF 		bl	chThdCreateFromHeap
 1059              	.LVL87:
 1060 00b0 C8F80000 		str	r0, [r8]
 1061 00b4 B0E7     		b	.L101
 1062              	.L116:
 1063 00b6 00BF     		.align	2
 1064              	.L115:
 1065 00b8 00000000 		.word	.LANCHOR11
 1066 00bc 00740040 		.word	1073771520
 1067 00c0 00140040 		.word	1073746944
 1068 00c4 00000000 		.word	.LANCHOR2
 1069 00c8 00000000 		.word	.LANCHOR5
 1070 00cc 00A24A04 		.word	72000000
 1071 00d0 00000000 		.word	vexAudioTask
 1072 00d4 00000000 		.word	.LANCHOR10
 1073              		.cfi_endproc
 1074              	.LFE64:
 1075              		.size	vexAudioPlaySound, .-vexAudioPlaySound
 1076              		.section	.text.vexAudioPlaySoundWait,"ax",%progbits
 1077              		.align	2
 1078              		.p2align 4,,15
 1079              		.global	vexAudioPlaySoundWait
 1080              		.thumb
 1081              		.thumb_func
 1082              		.type	vexAudioPlaySoundWait, %function
 1083              	vexAudioPlaySoundWait:
ARM GAS  /var/folders/6q/x_mk5n_j3p7_c40r_2k_78980000gn/T//ccATRJXd.s 			page 20


 1084              	.LFB65:
 1085              		.loc 1 213 0
 1086              		.cfi_startproc
 1087              		@ args = 0, pretend = 0, frame = 16
 1088              		@ frame_needed = 0, uses_anonymous_args = 0
 1089              	.LVL88:
 1090 0000 F0B5     		push	{r4, r5, r6, r7, lr}
 1091              		.cfi_def_cfa_offset 20
 1092              		.cfi_offset 4, -20
 1093              		.cfi_offset 5, -16
 1094              		.cfi_offset 6, -12
 1095              		.cfi_offset 7, -8
 1096              		.cfi_offset 14, -4
 1097 0002 0546     		mov	r5, r0
 1098 0004 0E46     		mov	r6, r1
 1099 0006 1746     		mov	r7, r2
 1100              		.loc 1 217 0
 1101 0008 0B4C     		ldr	r4, .L119
 1102              		.loc 1 213 0
 1103 000a 85B0     		sub	sp, sp, #20
 1104              		.cfi_def_cfa_offset 40
 1105              		.loc 1 217 0
 1106 000c 2046     		mov	r0, r4
 1107              	.LVL89:
 1108 000e 6946     		mov	r1, sp
 1109              	.LVL90:
 1110 0010 0122     		movs	r2, #1
 1111              	.LVL91:
 1112 0012 FFF7FEFF 		bl	chEvtRegisterMask
 1113              	.LVL92:
 1114              		.loc 1 219 0
 1115 0016 3A46     		mov	r2, r7
 1116 0018 3146     		mov	r1, r6
 1117 001a 2846     		mov	r0, r5
 1118 001c FFF7FEFF 		bl	vexAudioPlaySound
 1119              	.LVL93:
 1120              		.loc 1 222 0
 1121 0020 42F21071 		movw	r1, #10000
 1122 0024 4FF0FF30 		mov	r0, #-1
 1123 0028 FFF7FEFF 		bl	chEvtWaitAnyTimeout
 1124              	.LVL94:
 1125              		.loc 1 225 0
 1126 002c 6946     		mov	r1, sp
 1127 002e 2046     		mov	r0, r4
 1128 0030 FFF7FEFF 		bl	chEvtUnregister
 1129              	.LVL95:
 1130              		.loc 1 226 0
 1131 0034 05B0     		add	sp, sp, #20
 1132              		.cfi_def_cfa_offset 20
 1133              		@ sp needed
 1134 0036 F0BD     		pop	{r4, r5, r6, r7, pc}
 1135              	.LVL96:
 1136              	.L120:
 1137              		.align	2
 1138              	.L119:
 1139 0038 00000000 		.word	.LANCHOR12
 1140              		.cfi_endproc
ARM GAS  /var/folders/6q/x_mk5n_j3p7_c40r_2k_78980000gn/T//ccATRJXd.s 			page 21


 1141              	.LFE65:
 1142              		.size	vexAudioPlaySoundWait, .-vexAudioPlaySoundWait
 1143              		.section	.text.vexAudioPlayNextChipTone,"ax",%progbits
 1144              		.align	2
 1145              		.p2align 4,,15
 1146              		.global	vexAudioPlayNextChipTone
 1147              		.thumb
 1148              		.thumb_func
 1149              		.type	vexAudioPlayNextChipTone, %function
 1150              	vexAudioPlayNextChipTone:
 1151              	.LFB73:
 1152              		.loc 1 426 0
 1153              		.cfi_startproc
 1154              		@ args = 0, pretend = 0, frame = 0
 1155              		@ frame_needed = 0, uses_anonymous_args = 0
 1156              	.LVL97:
 1157 0000 38B5     		push	{r3, r4, r5, lr}
 1158              		.cfi_def_cfa_offset 16
 1159              		.cfi_offset 3, -16
 1160              		.cfi_offset 4, -12
 1161              		.cfi_offset 5, -8
 1162              		.cfi_offset 14, -4
 1163              		.loc 1 431 0
 1164 0002 134B     		ldr	r3, .L133
 1165 0004 1868     		ldr	r0, [r3]
 1166 0006 D0B1     		cbz	r0, .L122
 1167              		.loc 1 435 0
 1168 0008 124B     		ldr	r3, .L133+4
 1169 000a 1868     		ldr	r0, [r3]
 1170 000c B8B1     		cbz	r0, .L122
 1171              		.loc 1 437 0
 1172 000e 124C     		ldr	r4, .L133+8
 1173 0010 124D     		ldr	r5, .L133+12
 1174 0012 2368     		ldr	r3, [r4]
 1175 0014 2A68     		ldr	r2, [r5]
 1176 0016 9342     		cmp	r3, r2
 1177 0018 01DB     		blt	.L131
 1178              		.loc 1 432 0
 1179 001a 0020     		movs	r0, #0
 1180 001c 38BD     		pop	{r3, r4, r5, pc}
 1181              	.L131:
 1182              		.loc 1 444 0
 1183 001e 1049     		ldr	r1, .L133+16
 1184              		.loc 1 439 0
 1185 0020 00EBC302 		add	r2, r0, r3, lsl #3
 1186              	.LVL98:
 1187              		.loc 1 444 0
 1188 0024 5268     		ldr	r2, [r2, #4]
 1189              	.LVL99:
 1190 0026 50F83300 		ldr	r0, [r0, r3, lsl #3]
 1191              	.LVL100:
 1192 002a 0968     		ldr	r1, [r1]
 1193 002c FFF7FEFF 		bl	vexAudioPlaySound
 1194              	.LVL101:
 1195              		.loc 1 447 0
 1196 0030 2368     		ldr	r3, [r4]
 1197              		.loc 1 450 0
ARM GAS  /var/folders/6q/x_mk5n_j3p7_c40r_2k_78980000gn/T//ccATRJXd.s 			page 22


 1198 0032 2A68     		ldr	r2, [r5]
 1199              		.loc 1 447 0
 1200 0034 0133     		adds	r3, r3, #1
 1201              		.loc 1 450 0
 1202 0036 9342     		cmp	r3, r2
 1203              		.loc 1 447 0
 1204 0038 2360     		str	r3, [r4]
 1205              		.loc 1 450 0
 1206 003a 01D0     		beq	.L132
 1207              	.L126:
 1208              		.loc 1 456 0
 1209 003c 0120     		movs	r0, #1
 1210              	.L122:
 1211              		.loc 1 461 0
 1212 003e 38BD     		pop	{r3, r4, r5, pc}
 1213              	.L132:
 1214              	.LBB50:
 1215              		.loc 1 452 0
 1216 0040 084B     		ldr	r3, .L133+20
 1217 0042 1B68     		ldr	r3, [r3]
 1218 0044 002B     		cmp	r3, #0
 1219 0046 F9D0     		beq	.L126
 1220              		.loc 1 453 0
 1221 0048 0023     		movs	r3, #0
 1222 004a 2360     		str	r3, [r4]
 1223 004c 0120     		movs	r0, #1
 1224 004e 38BD     		pop	{r3, r4, r5, pc}
 1225              	.L134:
 1226              		.align	2
 1227              	.L133:
 1228 0050 00000000 		.word	.LANCHOR7
 1229 0054 00000000 		.word	.LANCHOR6
 1230 0058 00000000 		.word	.LANCHOR3
 1231 005c 00000000 		.word	.LANCHOR4
 1232 0060 00000000 		.word	.LANCHOR9
 1233 0064 00000000 		.word	.LANCHOR8
 1234              	.LBE50:
 1235              		.cfi_endproc
 1236              	.LFE73:
 1237              		.size	vexAudioPlayNextChipTone, .-vexAudioPlayNextChipTone
 1238              		.section	.text.vexAudioStartChipToneSong,"ax",%progbits
 1239              		.align	2
 1240              		.p2align 4,,15
 1241              		.global	vexAudioStartChipToneSong
 1242              		.thumb
 1243              		.thumb_func
 1244              		.type	vexAudioStartChipToneSong, %function
 1245              	vexAudioStartChipToneSong:
 1246              	.LFB69:
 1247              		.loc 1 339 0
 1248              		.cfi_startproc
 1249              		@ args = 0, pretend = 0, frame = 0
 1250              		@ frame_needed = 0, uses_anonymous_args = 0
 1251              		@ link register save eliminated.
 1252              	.LVL102:
 1253              		.loc 1 340 0
 1254 0000 054B     		ldr	r3, .L137
ARM GAS  /var/folders/6q/x_mk5n_j3p7_c40r_2k_78980000gn/T//ccATRJXd.s 			page 23


 1255 0002 1B68     		ldr	r3, [r3]
 1256 0004 002B     		cmp	r3, #0
 1257 0006 06DD     		ble	.L135
 1258              		.loc 1 342 0
 1259 0008 044A     		ldr	r2, .L137+4
 1260              		.loc 1 343 0
 1261 000a 054B     		ldr	r3, .L137+8
 1262              		.loc 1 342 0
 1263 000c 0021     		movs	r1, #0
 1264 000e 1160     		str	r1, [r2]
 1265              		.loc 1 343 0
 1266 0010 1860     		str	r0, [r3]
 1267              		.loc 1 345 0
 1268 0012 FFF7FEBF 		b	vexAudioPlayNextChipTone
 1269              	.LVL103:
 1270              	.L135:
 1271 0016 7047     		bx	lr
 1272              	.L138:
 1273              		.align	2
 1274              	.L137:
 1275 0018 00000000 		.word	.LANCHOR7
 1276 001c 00000000 		.word	.LANCHOR3
 1277 0020 00000000 		.word	.LANCHOR8
 1278              		.cfi_endproc
 1279              	.LFE69:
 1280              		.size	vexAudioStartChipToneSong, .-vexAudioStartChipToneSong
 1281              		.section	.text.vexAudioTask,"ax",%progbits
 1282              		.align	2
 1283              		.p2align 4,,15
 1284              		.thumb
 1285              		.thumb_func
 1286              		.type	vexAudioTask, %function
 1287              	vexAudioTask:
 1288              	.LFB63:
 1289              		.loc 1 104 0
 1290              		.cfi_startproc
 1291              		@ args = 0, pretend = 0, frame = 0
 1292              		@ frame_needed = 0, uses_anonymous_args = 0
 1293              	.LVL104:
 1294 0000 2DE9F041 		push	{r4, r5, r6, r7, r8, lr}
 1295              		.cfi_def_cfa_offset 24
 1296              		.cfi_offset 4, -24
 1297              		.cfi_offset 5, -20
 1298              		.cfi_offset 6, -16
 1299              		.cfi_offset 7, -12
 1300              		.cfi_offset 8, -8
 1301              		.cfi_offset 14, -4
 1302              		.loc 1 109 0
 1303 0004 204E     		ldr	r6, .L151
 1304 0006 214A     		ldr	r2, .L151+4
 1305 0008 B369     		ldr	r3, [r6, #24]
 1306              		.loc 1 110 0
 1307 000a 214D     		ldr	r5, .L151+8
 1308              		.loc 1 114 0
 1309 000c 214C     		ldr	r4, .L151+12
 1310              		.loc 1 109 0
 1311 000e 9A61     		str	r2, [r3, #24]
ARM GAS  /var/folders/6q/x_mk5n_j3p7_c40r_2k_78980000gn/T//ccATRJXd.s 			page 24


 1312              		.loc 1 110 0
 1313 0010 2D60     		str	r5, [r5]
 1314              		.loc 1 114 0
 1315 0012 2746     		mov	r7, r4
 1316              		.loc 1 112 0
 1317 0014 14E0     		b	.L140
 1318              	.LVL105:
 1319              	.L150:
 1320              		.loc 1 116 0
 1321 0016 3968     		ldr	r1, [r7]
 1322              	.LVL106:
 1323              		.loc 1 117 0
 1324 0018 C7F80080 		str	r8, [r7]
 1325              		.loc 1 119 0
 1326 001c FFF7FEFF 		bl	chSemWaitTimeout
 1327              	.LVL107:
 1328              	.LBB51:
 1329              		.loc 1 121 0
 1330 0020 2023     		movs	r3, #32
 1331              		.syntax unified
 1332              	@ 121 "../convex-vexilla/cortex/fw/vexaudio.c" 1
 1333 0022 83F31188 		msr     BASEPRI, r3
 1334              	@ 0 "" 2
 1335              		.thumb
 1336              		.syntax unified
 1337              	.LBE51:
 1338              		.loc 1 122 0
 1339 0026 2B68     		ldr	r3, [r5]
 1340              		.loc 1 123 0
 1341 0028 1948     		ldr	r0, .L151+8
 1342              		.loc 1 122 0
 1343 002a AB42     		cmp	r3, r5
 1344 002c 02D0     		beq	.L142
 1345              		.loc 1 123 0
 1346 002e 4146     		mov	r1, r8
 1347 0030 FFF7FEFF 		bl	chEvtBroadcastFlagsI
 1348              	.LVL108:
 1349              	.L142:
 1350              	.LBB52:
 1351              		.loc 1 124 0
 1352 0034 0023     		movs	r3, #0
 1353              		.syntax unified
 1354              	@ 124 "../convex-vexilla/cortex/fw/vexaudio.c" 1
 1355 0036 83F31188 		msr     BASEPRI, r3
 1356              	@ 0 "" 2
 1357              		.thumb
 1358              		.syntax unified
 1359              	.LBE52:
 1360              		.loc 1 126 0
 1361 003a 2368     		ldr	r3, [r4]
 1362 003c 73B1     		cbz	r3, .L148
 1363              	.L144:
 1364 003e B369     		ldr	r3, [r6, #24]
 1365              	.L140:
 1366              		.loc 1 112 0
 1367 0040 5B7F     		ldrb	r3, [r3, #29]	@ zero_extendqisi2
 1368              		.loc 1 119 0
ARM GAS  /var/folders/6q/x_mk5n_j3p7_c40r_2k_78980000gn/T//ccATRJXd.s 			page 25


 1369 0042 1548     		ldr	r0, .L151+16
 1370              		.loc 1 112 0
 1371 0044 03F00403 		and	r3, r3, #4
 1372 0048 03F0FF08 		and	r8, r3, #255
 1373 004c C3B9     		cbnz	r3, .L149
 1374              		.loc 1 114 0
 1375 004e 2368     		ldr	r3, [r4]
 1376 0050 002B     		cmp	r3, #0
 1377 0052 E0D1     		bne	.L150
 1378              		.loc 1 133 0
 1379 0054 1048     		ldr	r0, .L151+16
 1380 0056 FFF7FEFF 		bl	chSemWait
 1381              	.LVL109:
 1382 005a F0E7     		b	.L144
 1383              	.L148:
 1384              		.loc 1 128 0
 1385 005c FFF7FEFF 		bl	vexAudioPlayNextChipTone
 1386              	.LVL110:
 1387              	.LBB53:
 1388              	.LBB54:
 1389              		.loc 1 669 0
 1390 0060 0E49     		ldr	r1, .L151+20
 1391              		.loc 1 671 0
 1392 0062 0F4A     		ldr	r2, .L151+24
 1393              	.LBE54:
 1394              	.LBE53:
 1395              		.loc 1 128 0
 1396 0064 0028     		cmp	r0, #0
 1397 0066 EAD1     		bne	.L144
 1398              	.LBB56:
 1399              	.LBB55:
 1400              		.loc 1 669 0
 1401 0068 0B88     		ldrh	r3, [r1]
 1402 006a 23F00103 		bic	r3, r3, #1
 1403 006e 1B04     		lsls	r3, r3, #16
 1404 0070 1B0C     		lsrs	r3, r3, #16
 1405 0072 0B80     		strh	r3, [r1]	@ movhi
 1406              		.loc 1 671 0
 1407 0074 1368     		ldr	r3, [r2]
 1408 0076 23F00103 		bic	r3, r3, #1
 1409 007a 1360     		str	r3, [r2]
 1410              		.loc 1 673 0
 1411 007c 9060     		str	r0, [r2, #8]
 1412 007e DEE7     		b	.L144
 1413              	.L149:
 1414              	.LBE55:
 1415              	.LBE56:
 1416              		.loc 1 137 0
 1417 0080 0020     		movs	r0, #0
 1418 0082 BDE8F081 		pop	{r4, r5, r6, r7, r8, pc}
 1419              	.L152:
 1420 0086 00BF     		.align	2
 1421              	.L151:
 1422 0088 00000000 		.word	rlist
 1423 008c 0C000000 		.word	.LC1
 1424 0090 00000000 		.word	.LANCHOR12
 1425 0094 00000000 		.word	.LANCHOR2
ARM GAS  /var/folders/6q/x_mk5n_j3p7_c40r_2k_78980000gn/T//ccATRJXd.s 			page 26


 1426 0098 00000000 		.word	.LANCHOR5
 1427 009c 00140040 		.word	1073746944
 1428 00a0 00740040 		.word	1073771520
 1429              		.cfi_endproc
 1430              	.LFE63:
 1431              		.size	vexAudioTask, .-vexAudioTask
 1432              		.section	.text.VSL_Deinit,"ax",%progbits
 1433              		.align	2
 1434              		.p2align 4,,15
 1435              		.global	VSL_Deinit
 1436              		.thumb
 1437              		.thumb_func
 1438              		.type	VSL_Deinit, %function
 1439              	VSL_Deinit:
 1440              	.LFB78:
 1441              		.loc 1 667 0
 1442              		.cfi_startproc
 1443              		@ args = 0, pretend = 0, frame = 0
 1444              		@ frame_needed = 0, uses_anonymous_args = 0
 1445              		@ link register save eliminated.
 1446              		.loc 1 669 0
 1447 0000 0749     		ldr	r1, .L154
 1448              		.loc 1 671 0
 1449 0002 084A     		ldr	r2, .L154+4
 1450              		.loc 1 669 0
 1451 0004 0B88     		ldrh	r3, [r1]
 1452              		.loc 1 673 0
 1453 0006 0020     		movs	r0, #0
 1454              		.loc 1 669 0
 1455 0008 23F00103 		bic	r3, r3, #1
 1456 000c 1B04     		lsls	r3, r3, #16
 1457 000e 1B0C     		lsrs	r3, r3, #16
 1458 0010 0B80     		strh	r3, [r1]	@ movhi
 1459              		.loc 1 671 0
 1460 0012 1368     		ldr	r3, [r2]
 1461 0014 23F00103 		bic	r3, r3, #1
 1462 0018 1360     		str	r3, [r2]
 1463              		.loc 1 673 0
 1464 001a 9060     		str	r0, [r2, #8]
 1465 001c 7047     		bx	lr
 1466              	.L155:
 1467 001e 00BF     		.align	2
 1468              	.L154:
 1469 0020 00140040 		.word	1073746944
 1470 0024 00740040 		.word	1073771520
 1471              		.cfi_endproc
 1472              	.LFE78:
 1473              		.size	VSL_Deinit, .-VSL_Deinit
 1474              		.section	.rodata.sinPreCalc,"a",%progbits
 1475              		.align	2
 1476              		.set	.LANCHOR1,. + 0
 1477              		.type	sinPreCalc, %object
 1478              		.size	sinPreCalc, 128
 1479              	sinPreCalc:
 1480 0000 00000000 		.word	0
 1481 0004 ACC5473E 		.word	1044891052
 1482 0008 A2EEC33E 		.word	1053028002
ARM GAS  /var/folders/6q/x_mk5n_j3p7_c40r_2k_78980000gn/T//ccATRJXd.s 			page 27


 1483 000c D6390E3F 		.word	1057896918
 1484 0010 2905353F 		.word	1060439337
 1485 0014 38DB543F 		.word	1062525752
 1486 0018 66836C3F 		.word	1064076134
 1487 001c 0E157B3F 		.word	1065030926
 1488 0020 0000803F 		.word	1065353216
 1489 0024 0E157B3F 		.word	1065030926
 1490 0028 66836C3F 		.word	1064076134
 1491 002c 38DB543F 		.word	1062525752
 1492 0030 2905353F 		.word	1060439337
 1493 0034 D6390E3F 		.word	1057896918
 1494 0038 A2EEC33E 		.word	1053028002
 1495 003c ACC5473E 		.word	1044891052
 1496 0040 00000000 		.word	0
 1497 0044 ACC547BE 		.word	3192374700
 1498 0048 A2EEC3BE 		.word	3200511650
 1499 004c D6390EBF 		.word	3205380566
 1500 0050 290535BF 		.word	3207922985
 1501 0054 38DB54BF 		.word	3210009400
 1502 0058 66836CBF 		.word	3211559782
 1503 005c 0E157BBF 		.word	3212514574
 1504 0060 000080BF 		.word	3212836864
 1505 0064 0E157BBF 		.word	3212514574
 1506 0068 66836CBF 		.word	3211559782
 1507 006c 38DB54BF 		.word	3210009400
 1508 0070 290535BF 		.word	3207922985
 1509 0074 D6390EBF 		.word	3205380566
 1510 0078 A2EEC3BE 		.word	3200511650
 1511 007c ACC547BE 		.word	3192374700
 1512              		.section	.bss.vslThread,"aw",%nobits
 1513              		.align	2
 1514              		.set	.LANCHOR10,. + 0
 1515              		.type	vslThread, %object
 1516              		.size	vslThread, 4
 1517              	vslThread:
 1518 0000 00000000 		.space	4
 1519              		.section	.bss.Sine12bit,"aw",%nobits
 1520              		.align	2
 1521              		.set	.LANCHOR0,. + 0
 1522              		.type	Sine12bit, %object
 1523              		.size	Sine12bit, 64
 1524              	Sine12bit:
 1525 0000 00000000 		.space	64
 1525      00000000 
 1525      00000000 
 1525      00000000 
 1525      00000000 
 1526              		.section	.bss.vslSem,"aw",%nobits
 1527              		.align	2
 1528              		.set	.LANCHOR5,. + 0
 1529              		.type	vslSem, %object
 1530              		.size	vslSem, 12
 1531              	vslSem:
 1532 0000 00000000 		.space	12
 1532      00000000 
 1532      00000000 
 1533              		.section	.data.current_amplitude.7451,"aw",%progbits
ARM GAS  /var/folders/6q/x_mk5n_j3p7_c40r_2k_78980000gn/T//ccATRJXd.s 			page 28


 1534              		.align	2
 1535              		.set	.LANCHOR11,. + 0
 1536              		.type	current_amplitude.7451, %object
 1537              		.size	current_amplitude.7451, 4
 1538              	current_amplitude.7451:
 1539 0000 40000000 		.word	64
 1540              		.section	.bss.ctPlayPtr,"aw",%nobits
 1541              		.align	2
 1542              		.set	.LANCHOR3,. + 0
 1543              		.type	ctPlayPtr, %object
 1544              		.size	ctPlayPtr, 4
 1545              	ctPlayPtr:
 1546 0000 00000000 		.space	4
 1547              		.section	.bss.ctRepeat,"aw",%nobits
 1548              		.align	2
 1549              		.set	.LANCHOR8,. + 0
 1550              		.type	ctRepeat, %object
 1551              		.size	ctRepeat, 4
 1552              	ctRepeat:
 1553 0000 00000000 		.space	4
 1554              		.section	.bss.ctSetPtr,"aw",%nobits
 1555              		.align	2
 1556              		.set	.LANCHOR4,. + 0
 1557              		.type	ctSetPtr, %object
 1558              		.size	ctSetPtr, 4
 1559              	ctSetPtr:
 1560 0000 00000000 		.space	4
 1561              		.section	.rodata.str1.4,"aMS",%progbits,1
 1562              		.align	2
 1563              	.LC0:
 1564 0000 25642025 		.ascii	"%d %d %d\015\012\000"
 1564      64202564 
 1564      0D0A00
 1565 000b 00       		.space	1
 1566              	.LC1:
 1567 000c 61756469 		.ascii	"audio\000"
 1567      6F00
 1568              		.section	.bss.ctAmplitude,"aw",%nobits
 1569              		.align	2
 1570              		.set	.LANCHOR9,. + 0
 1571              		.type	ctAmplitude, %object
 1572              		.size	ctAmplitude, 4
 1573              	ctAmplitude:
 1574 0000 00000000 		.space	4
 1575              		.section	.bss.VSL_ctarray,"aw",%nobits
 1576              		.align	2
 1577              		.set	.LANCHOR6,. + 0
 1578              		.type	VSL_ctarray, %object
 1579              		.size	VSL_ctarray, 4
 1580              	VSL_ctarray:
 1581 0000 00000000 		.space	4
 1582              		.section	.bss.ctSize,"aw",%nobits
 1583              		.align	2
 1584              		.set	.LANCHOR7,. + 0
 1585              		.type	ctSize, %object
 1586              		.size	ctSize, 4
 1587              	ctSize:
ARM GAS  /var/folders/6q/x_mk5n_j3p7_c40r_2k_78980000gn/T//ccATRJXd.s 			page 29


 1588 0000 00000000 		.space	4
 1589              		.section	.data.sound_done,"aw",%progbits
 1590              		.align	2
 1591              		.set	.LANCHOR12,. + 0
 1592              		.type	sound_done, %object
 1593              		.size	sound_done, 4
 1594              	sound_done:
 1595 0000 00000000 		.word	sound_done
 1596              		.section	.bss.VSL_Counter,"aw",%nobits
 1597              		.align	2
 1598              		.set	.LANCHOR2,. + 0
 1599              		.type	VSL_Counter, %object
 1600              		.size	VSL_Counter, 4
 1601              	VSL_Counter:
 1602 0000 00000000 		.space	4
 1603              		.text
 1604              	.Letext0:
 1605              		.file 2 "/Users/Luca/src/vexilla/src/gcc-arm-none-eabi-5_4-2016q3/arm-none-eabi/include/machine/_d
 1606              		.file 3 "/Users/Luca/src/vexilla/src/gcc-arm-none-eabi-5_4-2016q3/arm-none-eabi/include/sys/_stdin
 1607              		.file 4 "../ChibiOS/os/ports/GCC/ARMCMx/chtypes.h"
 1608              		.file 5 "../ChibiOS/os/kernel/include/chlists.h"
 1609              		.file 6 "../ChibiOS/os/kernel/include/chthreads.h"
 1610              		.file 7 "../ChibiOS/os/ports/GCC/ARMCMx/chcore_v7m.h"
 1611              		.file 8 "../ChibiOS/os/kernel/include/chschd.h"
 1612              		.file 9 "../ChibiOS/os/kernel/include/chsem.h"
 1613              		.file 10 "../ChibiOS/os/kernel/include/chmtx.h"
 1614              		.file 11 "../ChibiOS/os/kernel/include/chevents.h"
 1615              		.file 12 "../ChibiOS/os/hal/platforms/STM32F1xx/stm32f10x.h"
 1616              		.file 13 "../ChibiOS/os/hal/platforms/STM32F1xx/stm32_dma.h"
 1617              		.file 14 "../convex-vexilla/cortex/fw/vexdigital.h"
 1618              		.file 15 "../convex-vexilla/cortex/fw/vexime.h"
 1619              		.file 16 "../convex-vexilla/cortex/fw/vexaudio.h"
 1620              		.file 17 "../ChibiOS/os/ports/common/ARMCMx/CMSIS/include/core_cm3.h"
 1621              		.file 18 "../ChibiOS/os/kernel/include/chheap.h"
 1622              		.file 19 "../convex-vexilla/cortex/fw/vexprintf.h"
 1623              		.file 20 "../ChibiOS/os/kernel/include/chdynamic.h"