ARM GAS  /var/folders/6q/x_mk5n_j3p7_c40r_2k_78980000gn/T//cc6dESLd.s 			page 1


   1              		.syntax unified
   2              		.cpu cortex-m3
   3              		.fpu softvfp
   4              		.eabi_attribute 20, 1
   5              		.eabi_attribute 21, 1
   6              		.eabi_attribute 23, 3
   7              		.eabi_attribute 24, 1
   8              		.eabi_attribute 25, 1
   9              		.eabi_attribute 26, 1
  10              		.eabi_attribute 30, 2
  11              		.eabi_attribute 34, 1
  12              		.eabi_attribute 18, 4
  13              		.thumb
  14              		.syntax unified
  15              		.file	"vexanalog.c"
  16              		.text
  17              	.Ltext0:
  18              		.cfi_sections	.debug_frame
  19              		.section	.text.vexAdcInit,"ax",%progbits
  20              		.align	2
  21              		.p2align 4,,15
  22              		.global	vexAdcInit
  23              		.thumb
  24              		.thumb_func
  25              		.type	vexAdcInit, %function
  26              	vexAdcInit:
  27              	.LFB63:
  28              		.file 1 "../convex-vexilla/cortex/fw/vexanalog.c"
  29              		.loc 1 104 0
  30              		.cfi_startproc
  31              		@ args = 0, pretend = 0, frame = 0
  32              		@ frame_needed = 0, uses_anonymous_args = 0
  33 0000 10B5     		push	{r4, lr}
  34              		.cfi_def_cfa_offset 8
  35              		.cfi_offset 4, -8
  36              		.cfi_offset 14, -4
  37              		.loc 1 107 0
  38 0002 074C     		ldr	r4, .L3
  39              		.loc 1 106 0
  40 0004 FFF7FEFF 		bl	adcInit
  41              	.LVL0:
  42              		.loc 1 107 0
  43 0008 2046     		mov	r0, r4
  44 000a 0649     		ldr	r1, .L3+4
  45 000c FFF7FEFF 		bl	adcStart
  46              	.LVL1:
  47              		.loc 1 110 0
  48 0010 2046     		mov	r0, r4
  49              		.loc 1 111 0
  50 0012 BDE81040 		pop	{r4, lr}
  51              		.cfi_restore 14
  52              		.cfi_restore 4
  53              		.cfi_def_cfa_offset 0
  54              		.loc 1 110 0
  55 0016 0123     		movs	r3, #1
  56 0018 034A     		ldr	r2, .L3+8
  57 001a 0449     		ldr	r1, .L3+12
ARM GAS  /var/folders/6q/x_mk5n_j3p7_c40r_2k_78980000gn/T//cc6dESLd.s 			page 2


  58 001c FFF7FEBF 		b	adcStartConversion
  59              	.LVL2:
  60              	.L4:
  61              		.align	2
  62              	.L3:
  63 0020 00000000 		.word	ADCD1
  64 0024 00000000 		.word	.LANCHOR0
  65 0028 00000000 		.word	.LANCHOR1
  66 002c 00000000 		.word	.LANCHOR2
  67              		.cfi_endproc
  68              	.LFE63:
  69              		.size	vexAdcInit, .-vexAdcInit
  70              		.section	.text.vexAdcGet,"ax",%progbits
  71              		.align	2
  72              		.p2align 4,,15
  73              		.global	vexAdcGet
  74              		.thumb
  75              		.thumb_func
  76              		.type	vexAdcGet, %function
  77              	vexAdcGet:
  78              	.LFB64:
  79              		.loc 1 121 0
  80              		.cfi_startproc
  81              		@ args = 0, pretend = 0, frame = 0
  82              		@ frame_needed = 0, uses_anonymous_args = 0
  83              		@ link register save eliminated.
  84              	.LVL3:
  85              		.loc 1 122 0
  86 0000 83B2     		uxth	r3, r0
  87 0002 072B     		cmp	r3, #7
  88              		.loc 1 125 0
  89 0004 9ABF     		itte	ls
  90 0006 034B     		ldrls	r3, .L9
  91 0008 33F91000 		ldrshls	r0, [r3, r0, lsl #1]
  92              	.LVL4:
  93              		.loc 1 123 0
  94 000c 4FF0FF30 		movhi	r0, #-1
  95              		.loc 1 126 0
  96 0010 7047     		bx	lr
  97              	.L10:
  98 0012 00BF     		.align	2
  99              	.L9:
 100 0014 00000000 		.word	.LANCHOR1
 101              		.cfi_endproc
 102              	.LFE64:
 103              		.size	vexAdcGet, .-vexAdcGet
 104              		.section	.text.vexAdcDebug,"ax",%progbits
 105              		.align	2
 106              		.p2align 4,,15
 107              		.global	vexAdcDebug
 108              		.thumb
 109              		.thumb_func
 110              		.type	vexAdcDebug, %function
 111              	vexAdcDebug:
 112              	.LFB65:
 113              		.loc 1 137 0
 114              		.cfi_startproc
ARM GAS  /var/folders/6q/x_mk5n_j3p7_c40r_2k_78980000gn/T//cc6dESLd.s 			page 3


 115              		@ args = 0, pretend = 0, frame = 0
 116              		@ frame_needed = 0, uses_anonymous_args = 0
 117              	.LVL5:
 118 0000 70B5     		push	{r4, r5, r6, lr}
 119              		.cfi_def_cfa_offset 16
 120              		.cfi_offset 4, -16
 121              		.cfi_offset 5, -12
 122              		.cfi_offset 6, -8
 123              		.cfi_offset 14, -4
 124              		.loc 1 137 0
 125 0002 0646     		mov	r6, r0
 126 0004 064D     		ldr	r5, .L15
 127              		.loc 1 143 0
 128 0006 0024     		movs	r4, #0
 129              	.LVL6:
 130              	.L12:
 131              		.loc 1 144 0 discriminator 3
 132 0008 2246     		mov	r2, r4
 133 000a 35F9023F 		ldrsh	r3, [r5, #2]!
 134 000e 0549     		ldr	r1, .L15+4
 135              		.loc 1 143 0 discriminator 3
 136 0010 0134     		adds	r4, r4, #1
 137              	.LVL7:
 138              		.loc 1 144 0 discriminator 3
 139 0012 3046     		mov	r0, r6
 140 0014 FFF7FEFF 		bl	vex_chprintf
 141              	.LVL8:
 142              		.loc 1 143 0 discriminator 3
 143 0018 082C     		cmp	r4, #8
 144 001a F5D1     		bne	.L12
 145              		.loc 1 145 0
 146 001c 70BD     		pop	{r4, r5, r6, pc}
 147              	.LVL9:
 148              	.L16:
 149 001e 00BF     		.align	2
 150              	.L15:
 151 0020 FEFFFFFF 		.word	.LANCHOR1-2
 152 0024 00000000 		.word	.LC0
 153              		.cfi_endproc
 154              	.LFE65:
 155              		.size	vexAdcDebug, .-vexAdcDebug
 156              		.section	.bss.adccfg,"aw",%nobits
 157              		.align	2
 158              		.set	.LANCHOR0,. + 0
 159              		.type	adccfg, %object
 160              		.size	adccfg, 4
 161              	adccfg:
 162 0000 00000000 		.space	4
 163              		.section	.rodata.str1.4,"aMS",%progbits,1
 164              		.align	2
 165              	.LC0:
 166 0000 6368616E 		.ascii	"channel %d = %4d\015\012\000"
 166      6E656C20 
 166      2564203D 
 166      20253464 
 166      0D0A00
 167              		.section	.data.adccg,"aw",%progbits
ARM GAS  /var/folders/6q/x_mk5n_j3p7_c40r_2k_78980000gn/T//cc6dESLd.s 			page 4


 168              		.align	2
 169              		.set	.LANCHOR2,. + 0
 170              		.type	adccg, %object
 171              		.size	adccg, 40
 172              	adccg:
 173 0000 01       		.byte	1
 174 0001 00       		.space	1
 175 0002 0800     		.short	8
 176 0004 00000000 		.word	0
 177 0008 00000000 		.word	0
 178 000c 00000000 		.word	0
 179 0010 00000000 		.word	0
 180 0014 6D0B0000 		.word	2925
 181 0018 6D0B0000 		.word	2925
 182 001c 00007000 		.word	7340032
 183 0020 6A010000 		.word	362
 184 0024 2088C11A 		.word	448890912
 185              		.section	.bss.samples_buf,"aw",%nobits
 186              		.align	2
 187              		.set	.LANCHOR1,. + 0
 188              		.type	samples_buf, %object
 189              		.size	samples_buf, 16
 190              	samples_buf:
 191 0000 00000000 		.space	16
 191      00000000 
 191      00000000 
 191      00000000 
 192              		.text
 193              	.Letext0:
 194              		.file 2 "/Users/Luca/src/vexilla/src/gcc-arm-none-eabi-5_4-2016q3/lib/gcc/arm-none-eabi/5.4.1/incl
 195              		.file 3 "/Users/Luca/src/vexilla/src/gcc-arm-none-eabi-5_4-2016q3/arm-none-eabi/include/machine/_d
 196              		.file 4 "/Users/Luca/src/vexilla/src/gcc-arm-none-eabi-5_4-2016q3/arm-none-eabi/include/sys/_stdin
 197              		.file 5 "../ChibiOS/os/ports/GCC/ARMCMx/chtypes.h"
 198              		.file 6 "../ChibiOS/os/kernel/include/chlists.h"
 199              		.file 7 "../ChibiOS/os/kernel/include/chthreads.h"
 200              		.file 8 "../ChibiOS/os/ports/GCC/ARMCMx/chcore_v7m.h"
 201              		.file 9 "../ChibiOS/os/kernel/include/chmtx.h"
 202              		.file 10 "../ChibiOS/os/kernel/include/chstreams.h"
 203              		.file 11 "../ChibiOS/os/hal/platforms/STM32F1xx/stm32f10x.h"
 204              		.file 12 "../ChibiOS/os/hal/platforms/STM32F1xx/stm32_dma.h"
 205              		.file 13 "../ChibiOS/os/hal/include/adc.h"
 206              		.file 14 "../ChibiOS/os/hal/platforms/STM32F1xx/adc_lld.h"
 207              		.file 15 "../convex-vexilla/cortex/fw/vexcompat.h"
 208              		.file 16 "../convex-vexilla/cortex/fw/vexdigital.h"
 209              		.file 17 "../convex-vexilla/cortex/fw/vexime.h"
 210              		.file 18 "../ChibiOS/os/ports/common/ARMCMx/CMSIS/include/core_cm3.h"
 211              		.file 19 "../convex-vexilla/cortex/fw/vexprintf.h"