ARM GAS  /var/folders/6q/x_mk5n_j3p7_c40r_2k_78980000gn/T//ccT0mSZo.s 			page 1


   1              		.syntax unified
   2              		.cpu cortex-m3
   3              		.fpu softvfp
   4              		.eabi_attribute 20, 1
   5              		.eabi_attribute 21, 1
   6              		.eabi_attribute 23, 3
   7              		.eabi_attribute 24, 1
   8              		.eabi_attribute 25, 1
   9              		.eabi_attribute 26, 1
  10              		.eabi_attribute 30, 2
  11              		.eabi_attribute 34, 1
  12              		.eabi_attribute 18, 4
  13              		.thumb
  14              		.syntax unified
  15              		.file	"vexbkup.c"
  16              		.text
  17              	.Ltext0:
  18              		.cfi_sections	.debug_frame
  19              		.section	.text.vexBkupInit,"ax",%progbits
  20              		.align	2
  21              		.p2align 4,,15
  22              		.global	vexBkupInit
  23              		.thumb
  24              		.thumb_func
  25              		.type	vexBkupInit, %function
  26              	vexBkupInit:
  27              	.LFB63:
  28              		.file 1 "../convex-vexilla/cortex/fw/vexbkup.c"
  29              		.loc 1 62 0
  30              		.cfi_startproc
  31              		@ args = 0, pretend = 0, frame = 0
  32              		@ frame_needed = 0, uses_anonymous_args = 0
  33              		@ link register save eliminated.
  34              	.LVL0:
  35              		.loc 1 67 0
  36 0000 0549     		ldr	r1, .L2
  37              		.loc 1 69 0
  38 0002 064A     		ldr	r2, .L2+4
  39              		.loc 1 67 0
  40 0004 CB69     		ldr	r3, [r1, #28]
  41 0006 43F0C053 		orr	r3, r3, #402653184
  42 000a CB61     		str	r3, [r1, #28]
  43              		.loc 1 69 0
  44 000c 1368     		ldr	r3, [r2]
  45 000e 43F48073 		orr	r3, r3, #256
  46 0012 1360     		str	r3, [r2]
  47 0014 7047     		bx	lr
  48              	.L3:
  49 0016 00BF     		.align	2
  50              	.L2:
  51 0018 00100240 		.word	1073876992
  52 001c 00700040 		.word	1073770496
  53              		.cfi_endproc
  54              	.LFE63:
  55              		.size	vexBkupInit, .-vexBkupInit
  56              		.section	.text.vexBkupRegisterWrite,"ax",%progbits
  57              		.align	2
ARM GAS  /var/folders/6q/x_mk5n_j3p7_c40r_2k_78980000gn/T//ccT0mSZo.s 			page 2


  58              		.p2align 4,,15
  59              		.global	vexBkupRegisterWrite
  60              		.thumb
  61              		.thumb_func
  62              		.type	vexBkupRegisterWrite, %function
  63              	vexBkupRegisterWrite:
  64              	.LFB64:
  65              		.loc 1 80 0
  66              		.cfi_startproc
  67              		@ args = 0, pretend = 0, frame = 0
  68              		@ frame_needed = 0, uses_anonymous_args = 0
  69              		@ link register save eliminated.
  70              	.LVL1:
  71              		.loc 1 85 0
  72 0000 83B2     		uxth	r3, r0
  73 0002 092B     		cmp	r3, #9
  74 0004 07D9     		bls	.L8
  75              		.loc 1 93 0
  76 0006 0A3B     		subs	r3, r3, #10
  77 0008 1F2B     		cmp	r3, #31
  78 000a 03D8     		bhi	.L4
  79              		.loc 1 95 0
  80 000c 044B     		ldr	r3, .L9
  81              	.LVL2:
  82              		.loc 1 96 0
  83 000e 0A38     		subs	r0, r0, #10
  84              	.LVL3:
  85              		.loc 1 98 0
  86 0010 23F82010 		strh	r1, [r3, r0, lsl #2]	@ movhi
  87              	.LVL4:
  88              	.L4:
  89 0014 7047     		bx	lr
  90              	.LVL5:
  91              	.L8:
  92              		.loc 1 87 0
  93 0016 034B     		ldr	r3, .L9+4
  94              	.LVL6:
  95              		.loc 1 90 0
  96 0018 23F82010 		strh	r1, [r3, r0, lsl #2]	@ movhi
  97 001c 7047     		bx	lr
  98              	.L10:
  99 001e 00BF     		.align	2
 100              	.L9:
 101 0020 406C0040 		.word	1073769536
 102 0024 046C0040 		.word	1073769476
 103              		.cfi_endproc
 104              	.LFE64:
 105              		.size	vexBkupRegisterWrite, .-vexBkupRegisterWrite
 106              		.section	.text.vexBkupRegisterRead,"ax",%progbits
 107              		.align	2
 108              		.p2align 4,,15
 109              		.global	vexBkupRegisterRead
 110              		.thumb
 111              		.thumb_func
 112              		.type	vexBkupRegisterRead, %function
 113              	vexBkupRegisterRead:
 114              	.LFB65:
ARM GAS  /var/folders/6q/x_mk5n_j3p7_c40r_2k_78980000gn/T//ccT0mSZo.s 			page 3


 115              		.loc 1 110 0
 116              		.cfi_startproc
 117              		@ args = 0, pretend = 0, frame = 0
 118              		@ frame_needed = 0, uses_anonymous_args = 0
 119              		@ link register save eliminated.
 120              	.LVL7:
 121              		.loc 1 115 0
 122 0000 83B2     		uxth	r3, r0
 123 0002 092B     		cmp	r3, #9
 124 0004 0AD9     		bls	.L15
 125              		.loc 1 122 0
 126 0006 0A3B     		subs	r3, r3, #10
 127 0008 1F2B     		cmp	r3, #31
 128 000a 05D8     		bhi	.L14
 129              	.LVL8:
 130              	.LBB4:
 131              	.LBB5:
 132              		.loc 1 124 0
 133 000c 064B     		ldr	r3, .L16
 134              	.LVL9:
 135              		.loc 1 125 0
 136 000e 0A38     		subs	r0, r0, #10
 137              	.LVL10:
 138              		.loc 1 126 0
 139 0010 33F82000 		ldrh	r0, [r3, r0, lsl #2]
 140              	.LVL11:
 141 0014 80B2     		uxth	r0, r0
 142              	.LVL12:
 143 0016 7047     		bx	lr
 144              	.LVL13:
 145              	.L14:
 146              	.LBE5:
 147              	.LBE4:
 148              		.loc 1 129 0
 149 0018 0020     		movs	r0, #0
 150              	.LVL14:
 151              		.loc 1 130 0
 152 001a 7047     		bx	lr
 153              	.LVL15:
 154              	.L15:
 155              		.loc 1 117 0
 156 001c 034B     		ldr	r3, .L16+4
 157              	.LVL16:
 158              		.loc 1 119 0
 159 001e 33F82000 		ldrh	r0, [r3, r0, lsl #2]
 160              	.LVL17:
 161 0022 80B2     		uxth	r0, r0
 162 0024 7047     		bx	lr
 163              	.L17:
 164 0026 00BF     		.align	2
 165              	.L16:
 166 0028 406C0040 		.word	1073769536
 167 002c 046C0040 		.word	1073769476
 168              		.cfi_endproc
 169              	.LFE65:
 170              		.size	vexBkupRegisterRead, .-vexBkupRegisterRead
 171              		.section	.text.vexBkupDebug,"ax",%progbits
ARM GAS  /var/folders/6q/x_mk5n_j3p7_c40r_2k_78980000gn/T//ccT0mSZo.s 			page 4


 172              		.align	2
 173              		.p2align 4,,15
 174              		.global	vexBkupDebug
 175              		.thumb
 176              		.thumb_func
 177              		.type	vexBkupDebug, %function
 178              	vexBkupDebug:
 179              	.LFB66:
 180              		.loc 1 141 0
 181              		.cfi_startproc
 182              		@ args = 0, pretend = 0, frame = 0
 183              		@ frame_needed = 0, uses_anonymous_args = 0
 184              	.LVL18:
 185 0000 38B5     		push	{r3, r4, r5, lr}
 186              		.cfi_def_cfa_offset 16
 187              		.cfi_offset 3, -16
 188              		.cfi_offset 4, -12
 189              		.cfi_offset 5, -8
 190              		.cfi_offset 14, -4
 191              		.loc 1 141 0
 192 0002 0546     		mov	r5, r0
 193              		.loc 1 147 0
 194 0004 1F49     		ldr	r1, .L26
 195              	.LVL19:
 196 0006 FFF7FEFF 		bl	vex_chprintf
 197              	.LVL20:
 198              		.loc 1 148 0
 199 000a 2846     		mov	r0, r5
 200 000c 1E49     		ldr	r1, .L26+4
 201 000e FFF7FEFF 		bl	vex_chprintf
 202              	.LVL21:
 203              		.loc 1 149 0
 204 0012 0024     		movs	r4, #0
 205              	.LVL22:
 206              	.L19:
 207              		.loc 1 150 0 discriminator 3
 208 0014 20B2     		sxth	r0, r4
 209 0016 FFF7FEFF 		bl	vexBkupRegisterRead
 210              	.LVL23:
 211              		.loc 1 149 0 discriminator 3
 212 001a 0134     		adds	r4, r4, #1
 213              	.LVL24:
 214              		.loc 1 150 0 discriminator 3
 215 001c 0246     		mov	r2, r0
 216 001e 1B49     		ldr	r1, .L26+8
 217 0020 2846     		mov	r0, r5
 218 0022 FFF7FEFF 		bl	vex_chprintf
 219              	.LVL25:
 220              		.loc 1 149 0 discriminator 3
 221 0026 102C     		cmp	r4, #16
 222 0028 F4D1     		bne	.L19
 223              		.loc 1 151 0
 224 002a 1949     		ldr	r1, .L26+12
 225 002c 2846     		mov	r0, r5
 226 002e FFF7FEFF 		bl	vex_chprintf
 227              	.LVL26:
 228              		.loc 1 152 0
ARM GAS  /var/folders/6q/x_mk5n_j3p7_c40r_2k_78980000gn/T//ccT0mSZo.s 			page 5


 229 0032 1849     		ldr	r1, .L26+16
 230 0034 2846     		mov	r0, r5
 231 0036 FFF7FEFF 		bl	vex_chprintf
 232              	.LVL27:
 233              	.L20:
 234              		.loc 1 154 0 discriminator 3
 235 003a 20B2     		sxth	r0, r4
 236 003c FFF7FEFF 		bl	vexBkupRegisterRead
 237              	.LVL28:
 238              		.loc 1 153 0 discriminator 3
 239 0040 0134     		adds	r4, r4, #1
 240              	.LVL29:
 241              		.loc 1 154 0 discriminator 3
 242 0042 0246     		mov	r2, r0
 243 0044 1149     		ldr	r1, .L26+8
 244 0046 2846     		mov	r0, r5
 245 0048 FFF7FEFF 		bl	vex_chprintf
 246              	.LVL30:
 247              		.loc 1 153 0 discriminator 3
 248 004c 202C     		cmp	r4, #32
 249 004e F4D1     		bne	.L20
 250              		.loc 1 155 0
 251 0050 0F49     		ldr	r1, .L26+12
 252 0052 2846     		mov	r0, r5
 253 0054 FFF7FEFF 		bl	vex_chprintf
 254              	.LVL31:
 255              		.loc 1 156 0
 256 0058 0F49     		ldr	r1, .L26+20
 257 005a 2846     		mov	r0, r5
 258 005c FFF7FEFF 		bl	vex_chprintf
 259              	.LVL32:
 260              	.L21:
 261              		.loc 1 158 0 discriminator 3
 262 0060 20B2     		sxth	r0, r4
 263 0062 FFF7FEFF 		bl	vexBkupRegisterRead
 264              	.LVL33:
 265              		.loc 1 157 0 discriminator 3
 266 0066 0134     		adds	r4, r4, #1
 267              	.LVL34:
 268              		.loc 1 158 0 discriminator 3
 269 0068 0246     		mov	r2, r0
 270 006a 0849     		ldr	r1, .L26+8
 271 006c 2846     		mov	r0, r5
 272 006e FFF7FEFF 		bl	vex_chprintf
 273              	.LVL35:
 274              		.loc 1 157 0 discriminator 3
 275 0072 2A2C     		cmp	r4, #42
 276 0074 F4D1     		bne	.L21
 277              		.loc 1 159 0
 278 0076 2846     		mov	r0, r5
 279              		.loc 1 160 0
 280 0078 BDE83840 		pop	{r3, r4, r5, lr}
 281              		.cfi_restore 14
 282              		.cfi_restore 5
 283              		.cfi_restore 4
 284              		.cfi_restore 3
 285              		.cfi_def_cfa_offset 0
ARM GAS  /var/folders/6q/x_mk5n_j3p7_c40r_2k_78980000gn/T//ccT0mSZo.s 			page 6


 286              	.LVL36:
 287              		.loc 1 159 0
 288 007c 0449     		ldr	r1, .L26+12
 289 007e FFF7FEBF 		b	vex_chprintf
 290              	.LVL37:
 291              	.L27:
 292 0082 00BF     		.align	2
 293              	.L26:
 294 0084 00000000 		.word	.LC0
 295 0088 14000000 		.word	.LC1
 296 008c 1C000000 		.word	.LC2
 297 0090 24000000 		.word	.LC3
 298 0094 28000000 		.word	.LC4
 299 0098 30000000 		.word	.LC5
 300              		.cfi_endproc
 301              	.LFE66:
 302              		.size	vexBkupDebug, .-vexBkupDebug
 303              		.section	.rodata.str1.4,"aMS",%progbits,1
 304              		.align	2
 305              	.LC0:
 306 0000 4261636B 		.ascii	"Backup Registers\015\012\000"
 306      75702052 
 306      65676973 
 306      74657273 
 306      0D0A00
 307 0013 00       		.space	1
 308              	.LC1:
 309 0014 30302D31 		.ascii	"00-15: \000"
 309      353A2000 
 310              	.LC2:
 311 001c 25303258 		.ascii	"%02X \000"
 311      2000
 312 0022 0000     		.space	2
 313              	.LC3:
 314 0024 0D0A00   		.ascii	"\015\012\000"
 315 0027 00       		.space	1
 316              	.LC4:
 317 0028 31362D33 		.ascii	"16-32: \000"
 317      323A2000 
 318              	.LC5:
 319 0030 33322D34 		.ascii	"32-41: \000"
 319      313A2000 
 320              		.text
 321              	.Letext0:
 322              		.file 2 "/Users/Luca/src/vexilla/src/gcc-arm-none-eabi-5_4-2016q3/lib/gcc/arm-none-eabi/5.4.1/incl
 323              		.file 3 "/Users/Luca/src/vexilla/src/gcc-arm-none-eabi-5_4-2016q3/arm-none-eabi/include/machine/_d
 324              		.file 4 "/Users/Luca/src/vexilla/src/gcc-arm-none-eabi-5_4-2016q3/arm-none-eabi/include/sys/_stdin
 325              		.file 5 "../ChibiOS/os/ports/GCC/ARMCMx/chtypes.h"
 326              		.file 6 "../ChibiOS/os/kernel/include/chstreams.h"
 327              		.file 7 "../ChibiOS/os/hal/platforms/STM32F1xx/stm32f10x.h"
 328              		.file 8 "../convex-vexilla/cortex/fw/vexcompat.h"
 329              		.file 9 "../ChibiOS/os/ports/common/ARMCMx/CMSIS/include/core_cm3.h"
 330              		.file 10 "../convex-vexilla/cortex/fw/vexprintf.h"