ARM GAS  /var/folders/6q/x_mk5n_j3p7_c40r_2k_78980000gn/T//ccbqpbV1.s 			page 1


   1              		.syntax unified
   2              		.cpu cortex-m3
   3              		.fpu softvfp
   4              		.eabi_attribute 20, 1
   5              		.eabi_attribute 21, 1
   6              		.eabi_attribute 23, 3
   7              		.eabi_attribute 24, 1
   8              		.eabi_attribute 25, 1
   9              		.eabi_attribute 26, 1
  10              		.eabi_attribute 30, 2
  11              		.eabi_attribute 34, 1
  12              		.eabi_attribute 18, 4
  13              		.thumb
  14              		.syntax unified
  15              		.file	"vexctl.c"
  16              		.text
  17              	.Ltext0:
  18              		.cfi_sections	.debug_frame
  19              		.section	.text.vexControllerCompetitionStateSet,"ax",%progbits
  20              		.align	2
  21              		.p2align 4,,15
  22              		.global	vexControllerCompetitionStateSet
  23              		.thumb
  24              		.thumb_func
  25              		.type	vexControllerCompetitionStateSet, %function
  26              	vexControllerCompetitionStateSet:
  27              	.LFB63:
  28              		.file 1 "../convex-vexilla/cortex/fw/vexctl.c"
  29              		.loc 1 70 0
  30              		.cfi_startproc
  31              		@ args = 0, pretend = 0, frame = 0
  32              		@ frame_needed = 0, uses_anonymous_args = 0
  33              	.LVL0:
  34 0000 38B5     		push	{r3, r4, r5, lr}
  35              		.cfi_def_cfa_offset 16
  36              		.cfi_offset 3, -16
  37              		.cfi_offset 4, -12
  38              		.cfi_offset 5, -8
  39              		.cfi_offset 14, -4
  40              		.loc 1 70 0
  41 0002 0446     		mov	r4, r0
  42 0004 0D46     		mov	r5, r1
  43              		.loc 1 73 0
  44 0006 FFF7FEFF 		bl	vexSpiGetControl
  45              	.LVL1:
  46 000a 0307     		lsls	r3, r0, #28
  47 000c 04D5     		bpl	.L6
  48              		.loc 1 84 0
  49 000e 084A     		ldr	r2, .L7
  50 0010 0023     		movs	r3, #0
  51              		.loc 1 86 0
  52 0012 1846     		mov	r0, r3
  53              		.loc 1 84 0
  54 0014 1380     		strh	r3, [r2]	@ movhi
  55              		.loc 1 87 0
  56 0016 38BD     		pop	{r3, r4, r5, pc}
  57              	.L6:
ARM GAS  /var/folders/6q/x_mk5n_j3p7_c40r_2k_78980000gn/T//ccbqpbV1.s 			page 2


  58              		.loc 1 80 0
  59 0018 054B     		ldr	r3, .L7
  60 001a 2C40     		ands	r4, r4, r5
  61 001c 1988     		ldrh	r1, [r3]
  62 001e 04F0C004 		and	r4, r4, #192
  63 0022 21EA0501 		bic	r1, r1, r5
  64 0026 2143     		orrs	r1, r1, r4
  65 0028 1980     		strh	r1, [r3]	@ movhi
  66              		.loc 1 81 0
  67 002a 0120     		movs	r0, #1
  68 002c 38BD     		pop	{r3, r4, r5, pc}
  69              	.L8:
  70 002e 00BF     		.align	2
  71              	.L7:
  72 0030 00000000 		.word	.LANCHOR0
  73              		.cfi_endproc
  74              	.LFE63:
  75              		.size	vexControllerCompetitionStateSet, .-vexControllerCompetitionStateSet
  76              		.section	.text.vexControllerCompetitonState,"ax",%progbits
  77              		.align	2
  78              		.p2align 4,,15
  79              		.global	vexControllerCompetitonState
  80              		.thumb
  81              		.thumb_func
  82              		.type	vexControllerCompetitonState, %function
  83              	vexControllerCompetitonState:
  84              	.LFB64:
  85              		.loc 1 96 0
  86              		.cfi_startproc
  87              		@ args = 0, pretend = 0, frame = 0
  88              		@ frame_needed = 0, uses_anonymous_args = 0
  89 0000 08B5     		push	{r3, lr}
  90              		.cfi_def_cfa_offset 8
  91              		.cfi_offset 3, -8
  92              		.cfi_offset 14, -4
  93              		.loc 1 97 0
  94 0002 FFF7FEFF 		bl	vexSpiGetControl
  95              	.LVL2:
  96              		.loc 1 105 0
  97 0006 0207     		lsls	r2, r0, #28
  98              		.loc 1 108 0
  99 0008 044B     		ldr	r3, .L14
 100              		.loc 1 105 0
 101 000a 02D5     		bpl	.L13
 102              		.loc 1 112 0
 103 000c 0022     		movs	r2, #0
 104 000e 1A80     		strh	r2, [r3]	@ movhi
 105              		.loc 1 115 0
 106 0010 08BD     		pop	{r3, pc}
 107              	.L13:
 108              		.loc 1 108 0
 109 0012 1B88     		ldrh	r3, [r3]
 110 0014 1843     		orrs	r0, r0, r3
 111              	.LVL3:
 112 0016 80B2     		uxth	r0, r0
 113              	.LVL4:
 114 0018 08BD     		pop	{r3, pc}
ARM GAS  /var/folders/6q/x_mk5n_j3p7_c40r_2k_78980000gn/T//ccbqpbV1.s 			page 3


 115              	.L15:
 116 001a 00BF     		.align	2
 117              	.L14:
 118 001c 00000000 		.word	.LANCHOR0
 119              		.cfi_endproc
 120              	.LFE64:
 121              		.size	vexControllerCompetitonState, .-vexControllerCompetitonState
 122              		.section	.text.vexControllerGet,"ax",%progbits
 123              		.align	2
 124              		.p2align 4,,15
 125              		.global	vexControllerGet
 126              		.thumb
 127              		.thumb_func
 128              		.type	vexControllerGet, %function
 129              	vexControllerGet:
 130              	.LFB65:
 131              		.loc 1 125 0
 132              		.cfi_startproc
 133              		@ args = 0, pretend = 0, frame = 0
 134              		@ frame_needed = 0, uses_anonymous_args = 0
 135              	.LVL5:
 136 0000 10B5     		push	{r4, lr}
 137              		.cfi_def_cfa_offset 8
 138              		.cfi_offset 4, -8
 139              		.cfi_offset 14, -4
 140              		.loc 1 125 0
 141 0002 0446     		mov	r4, r0
 142              		.loc 1 130 0
 143 0004 0306     		lsls	r3, r0, #24
 144              		.loc 1 131 0
 145 0006 54BF     		ite	pl
 146 0008 0120     		movpl	r0, #1
 147              	.LVL6:
 148              		.loc 1 133 0
 149 000a 0220     		movmi	r0, #2
 150              		.loc 1 136 0
 151 000c 04F07F04 		and	r4, r4, #127
 152              		.loc 1 133 0
 153 0010 FFF7FEFF 		bl	vexSpiGetJoystickDataPtr
 154              	.LVL7:
 155              		.loc 1 136 0
 156 0014 172C     		cmp	r4, #23
 157 0016 00F28380 		bhi	.L48
 158 001a DFE804F0 		tbb	[pc, r4]
 159              	.L21:
 160 001e 7B       		.byte	(.L20-.L21)/2
 161 001f 75       		.byte	(.L22-.L21)/2
 162 0020 6F       		.byte	(.L23-.L21)/2
 163 0021 6A       		.byte	(.L24-.L21)/2
 164 0022 66       		.byte	(.L25-.L21)/2
 165 0023 62       		.byte	(.L26-.L21)/2
 166 0024 5E       		.byte	(.L27-.L21)/2
 167 0025 5A       		.byte	(.L28-.L21)/2
 168 0026 56       		.byte	(.L29-.L21)/2
 169 0027 52       		.byte	(.L30-.L21)/2
 170 0028 4E       		.byte	(.L31-.L21)/2
 171 0029 4A       		.byte	(.L32-.L21)/2
ARM GAS  /var/folders/6q/x_mk5n_j3p7_c40r_2k_78980000gn/T//ccbqpbV1.s 			page 4


 172 002a 46       		.byte	(.L33-.L21)/2
 173 002b 42       		.byte	(.L34-.L21)/2
 174 002c 3E       		.byte	(.L35-.L21)/2
 175 002d 3A       		.byte	(.L36-.L21)/2
 176 002e 28       		.byte	(.L37-.L21)/2
 177 002f 24       		.byte	(.L38-.L21)/2
 178 0030 20       		.byte	(.L39-.L21)/2
 179 0031 1A       		.byte	(.L40-.L21)/2
 180 0032 33       		.byte	(.L41-.L21)/2
 181 0033 2C       		.byte	(.L42-.L21)/2
 182 0034 14       		.byte	(.L43-.L21)/2
 183 0035 0C       		.byte	(.L44-.L21)/2
 184              		.p2align 1
 185              	.L44:
 186              		.loc 1 223 0
 187 0036 C379     		ldrb	r3, [r0, #7]	@ zero_extendqisi2
 188 0038 002B     		cmp	r3, #0
 189 003a 6FD1     		bne	.L53
 190 003c 007A     		ldrb	r0, [r0, #8]	@ zero_extendqisi2
 191              	.LVL8:
 192 003e 0030     		adds	r0, r0, #0
 193 0040 18BF     		it	ne
 194 0042 0120     		movne	r0, #1
 195 0044 10BD     		pop	{r4, pc}
 196              	.LVL9:
 197              	.L43:
 198              		.loc 1 218 0
 199 0046 007A     		ldrb	r0, [r0, #8]	@ zero_extendqisi2
 200              	.LVL10:
 201 0048 10F00F00 		ands	r0, r0, #15
 202 004c 18BF     		it	ne
 203 004e 0120     		movne	r0, #1
 204 0050 10BD     		pop	{r4, pc}
 205              	.LVL11:
 206              	.L40:
 207              		.loc 1 209 0
 208 0052 C079     		ldrb	r0, [r0, #7]	@ zero_extendqisi2
 209              	.LVL12:
 210 0054 10F00300 		ands	r0, r0, #3
 211 0058 18BF     		it	ne
 212 005a 0120     		movne	r0, #1
 213 005c 10BD     		pop	{r4, pc}
 214              	.LVL13:
 215              	.L39:
 216              		.loc 1 204 0
 217 005e 8079     		ldrb	r0, [r0, #6]	@ zero_extendqisi2
 218              	.LVL14:
 219 0060 7F38     		subs	r0, r0, #127
 220 0062 00B2     		sxth	r0, r0
 221 0064 10BD     		pop	{r4, pc}
 222              	.LVL15:
 223              	.L38:
 224              		.loc 1 201 0
 225 0066 0079     		ldrb	r0, [r0, #4]	@ zero_extendqisi2
 226              	.LVL16:
 227 0068 7F38     		subs	r0, r0, #127
 228 006a 00B2     		sxth	r0, r0
ARM GAS  /var/folders/6q/x_mk5n_j3p7_c40r_2k_78980000gn/T//ccbqpbV1.s 			page 5


 229 006c 10BD     		pop	{r4, pc}
 230              	.LVL17:
 231              	.L37:
 232              		.loc 1 198 0
 233 006e 4079     		ldrb	r0, [r0, #5]	@ zero_extendqisi2
 234              	.LVL18:
 235              	.L57:
 236 0070 7F38     		subs	r0, r0, #127
 237 0072 00B2     		sxth	r0, r0
 238 0074 10BD     		pop	{r4, pc}
 239              	.LVL19:
 240              	.L42:
 241              		.loc 1 215 0
 242 0076 037A     		ldrb	r3, [r0, #8]	@ zero_extendqisi2
 243 0078 13F0F00F 		tst	r3, #240
 244 007c 14BF     		ite	ne
 245 007e 0120     		movne	r0, #1
 246              	.LVL20:
 247 0080 0020     		moveq	r0, #0
 248 0082 10BD     		pop	{r4, pc}
 249              	.LVL21:
 250              	.L41:
 251              		.loc 1 212 0
 252 0084 C379     		ldrb	r3, [r0, #7]	@ zero_extendqisi2
 253 0086 13F00C0F 		tst	r3, #12
 254 008a 14BF     		ite	ne
 255 008c 0120     		movne	r0, #1
 256              	.LVL22:
 257 008e 0020     		moveq	r0, #0
 258 0090 10BD     		pop	{r4, pc}
 259              	.LVL23:
 260              	.L36:
 261              		.loc 1 193 0
 262 0092 C079     		ldrb	r0, [r0, #7]	@ zero_extendqisi2
 263              	.LVL24:
 264 0094 C0F3C000 		ubfx	r0, r0, #3, #1
 265 0098 10BD     		pop	{r4, pc}
 266              	.LVL25:
 267              	.L35:
 268              		.loc 1 190 0
 269 009a C079     		ldrb	r0, [r0, #7]	@ zero_extendqisi2
 270              	.LVL26:
 271 009c C0F38000 		ubfx	r0, r0, #2, #1
 272 00a0 10BD     		pop	{r4, pc}
 273              	.LVL27:
 274              	.L34:
 275              		.loc 1 186 0
 276 00a2 C079     		ldrb	r0, [r0, #7]	@ zero_extendqisi2
 277              	.LVL28:
 278 00a4 C0F34000 		ubfx	r0, r0, #1, #1
 279 00a8 10BD     		pop	{r4, pc}
 280              	.LVL29:
 281              	.L33:
 282              		.loc 1 183 0
 283 00aa C079     		ldrb	r0, [r0, #7]	@ zero_extendqisi2
 284              	.LVL30:
 285 00ac 00F00100 		and	r0, r0, #1
ARM GAS  /var/folders/6q/x_mk5n_j3p7_c40r_2k_78980000gn/T//ccbqpbV1.s 			page 6


 286 00b0 10BD     		pop	{r4, pc}
 287              	.LVL31:
 288              	.L32:
 289              		.loc 1 179 0
 290 00b2 90F90800 		ldrsb	r0, [r0, #8]
 291              	.LVL32:
 292 00b6 C00F     		lsrs	r0, r0, #31
 293 00b8 10BD     		pop	{r4, pc}
 294              	.LVL33:
 295              	.L31:
 296              		.loc 1 176 0
 297 00ba 007A     		ldrb	r0, [r0, #8]	@ zero_extendqisi2
 298              	.LVL34:
 299 00bc C0F38010 		ubfx	r0, r0, #6, #1
 300 00c0 10BD     		pop	{r4, pc}
 301              	.LVL35:
 302              	.L30:
 303              		.loc 1 173 0
 304 00c2 007A     		ldrb	r0, [r0, #8]	@ zero_extendqisi2
 305              	.LVL36:
 306 00c4 C0F34010 		ubfx	r0, r0, #5, #1
 307 00c8 10BD     		pop	{r4, pc}
 308              	.LVL37:
 309              	.L29:
 310              		.loc 1 170 0
 311 00ca 007A     		ldrb	r0, [r0, #8]	@ zero_extendqisi2
 312              	.LVL38:
 313 00cc C0F30010 		ubfx	r0, r0, #4, #1
 314 00d0 10BD     		pop	{r4, pc}
 315              	.LVL39:
 316              	.L28:
 317              		.loc 1 166 0
 318 00d2 007A     		ldrb	r0, [r0, #8]	@ zero_extendqisi2
 319              	.LVL40:
 320 00d4 C0F3C000 		ubfx	r0, r0, #3, #1
 321 00d8 10BD     		pop	{r4, pc}
 322              	.LVL41:
 323              	.L27:
 324              		.loc 1 163 0
 325 00da 007A     		ldrb	r0, [r0, #8]	@ zero_extendqisi2
 326              	.LVL42:
 327 00dc C0F38000 		ubfx	r0, r0, #2, #1
 328 00e0 10BD     		pop	{r4, pc}
 329              	.LVL43:
 330              	.L26:
 331              		.loc 1 160 0
 332 00e2 007A     		ldrb	r0, [r0, #8]	@ zero_extendqisi2
 333              	.LVL44:
 334 00e4 C0F34000 		ubfx	r0, r0, #1, #1
 335 00e8 10BD     		pop	{r4, pc}
 336              	.LVL45:
 337              	.L25:
 338              		.loc 1 157 0
 339 00ea 007A     		ldrb	r0, [r0, #8]	@ zero_extendqisi2
 340              	.LVL46:
 341 00ec 00F00100 		and	r0, r0, #1
 342 00f0 10BD     		pop	{r4, pc}
ARM GAS  /var/folders/6q/x_mk5n_j3p7_c40r_2k_78980000gn/T//ccbqpbV1.s 			page 7


 343              	.LVL47:
 344              	.L24:
 345              		.loc 1 152 0
 346 00f2 C078     		ldrb	r0, [r0, #3]	@ zero_extendqisi2
 347              	.LVL48:
 348 00f4 FF28     		cmp	r0, #255
 349 00f6 BBD1     		bne	.L57
 350              	.L52:
 351              		.loc 1 140 0
 352 00f8 7F20     		movs	r0, #127
 353              		.loc 1 229 0
 354 00fa 10BD     		pop	{r4, pc}
 355              	.LVL49:
 356              	.L23:
 357              		.loc 1 148 0
 358 00fc 8078     		ldrb	r0, [r0, #2]	@ zero_extendqisi2
 359              	.LVL50:
 360 00fe FF28     		cmp	r0, #255
 361 0100 05D0     		beq	.L51
 362              	.L55:
 363 0102 C0F17F00 		rsb	r0, r0, #127
 364 0106 10BD     		pop	{r4, pc}
 365              	.LVL51:
 366              	.L22:
 367              		.loc 1 144 0
 368 0108 4078     		ldrb	r0, [r0, #1]	@ zero_extendqisi2
 369              	.LVL52:
 370 010a FF28     		cmp	r0, #255
 371 010c F9D1     		bne	.L55
 372              	.L51:
 373 010e 6FF07E00 		mvn	r0, #126
 374              		.loc 1 149 0
 375 0112 10BD     		pop	{r4, pc}
 376              	.LVL53:
 377              	.L20:
 378              		.loc 1 140 0
 379 0114 0078     		ldrb	r0, [r0]	@ zero_extendqisi2
 380              	.LVL54:
 381 0116 FF28     		cmp	r0, #255
 382 0118 AAD1     		bne	.L57
 383 011a EDE7     		b	.L52
 384              	.LVL55:
 385              	.L53:
 386 011c 0120     		movs	r0, #1
 387              	.LVL56:
 388              		.loc 1 223 0
 389 011e 10BD     		pop	{r4, pc}
 390              	.LVL57:
 391              	.L48:
 392              		.loc 1 227 0
 393 0120 0020     		movs	r0, #0
 394              	.LVL58:
 395 0122 10BD     		pop	{r4, pc}
 396              		.cfi_endproc
 397              	.LFE65:
 398              		.size	vexControllerGet, .-vexControllerGet
 399              		.section	.text.vexControllerReleaseWait,"ax",%progbits
ARM GAS  /var/folders/6q/x_mk5n_j3p7_c40r_2k_78980000gn/T//ccbqpbV1.s 			page 8


 400              		.align	2
 401              		.p2align 4,,15
 402              		.global	vexControllerReleaseWait
 403              		.thumb
 404              		.thumb_func
 405              		.type	vexControllerReleaseWait, %function
 406              	vexControllerReleaseWait:
 407              	.LFB66:
 408              		.loc 1 237 0
 409              		.cfi_startproc
 410              		@ args = 0, pretend = 0, frame = 0
 411              		@ frame_needed = 0, uses_anonymous_args = 0
 412              	.LVL59:
 413 0000 38B5     		push	{r3, r4, r5, lr}
 414              		.cfi_def_cfa_offset 16
 415              		.cfi_offset 3, -16
 416              		.cfi_offset 4, -12
 417              		.cfi_offset 5, -8
 418              		.cfi_offset 14, -4
 419              		.loc 1 242 0
 420 0002 00F07F03 		and	r3, r0, #127
 421 0006 032B     		cmp	r3, #3
 422 0008 0CD9     		bls	.L58
 423 000a 0546     		mov	r5, r0
 424 000c C824     		movs	r4, #200
 425 000e 04E0     		b	.L61
 426              	.LVL60:
 427              	.L67:
 428              		.loc 1 251 0 discriminator 2
 429 0010 1920     		movs	r0, #25
 430 0012 FFF7FEFF 		bl	vexSleep
 431              	.LVL61:
 432              		.loc 1 246 0 discriminator 2
 433 0016 013C     		subs	r4, r4, #1
 434              	.LVL62:
 435 0018 04D0     		beq	.L58
 436              	.LVL63:
 437              	.L61:
 438              		.loc 1 248 0
 439 001a 2846     		mov	r0, r5
 440 001c FFF7FEFF 		bl	vexControllerGet
 441              	.LVL64:
 442 0020 0028     		cmp	r0, #0
 443 0022 F5D1     		bne	.L67
 444              	.LVL65:
 445              	.L58:
 446 0024 38BD     		pop	{r3, r4, r5, pc}
 447              		.cfi_endproc
 448              	.LFE66:
 449              		.size	vexControllerReleaseWait, .-vexControllerReleaseWait
 450 0026 00BF     		.section	.bss.vexLocalCompState,"aw",%nobits
 451              		.align	1
 452              		.set	.LANCHOR0,. + 0
 453              		.type	vexLocalCompState, %object
 454              		.size	vexLocalCompState, 2
 455              	vexLocalCompState:
 456 0000 0000     		.space	2
ARM GAS  /var/folders/6q/x_mk5n_j3p7_c40r_2k_78980000gn/T//ccbqpbV1.s 			page 9


 457              		.text
 458              	.Letext0:
 459              		.file 2 "/Users/Luca/src/vexilla/src/gcc-arm-none-eabi-5_4-2016q3/arm-none-eabi/include/machine/_d
 460              		.file 3 "/Users/Luca/src/vexilla/src/gcc-arm-none-eabi-5_4-2016q3/arm-none-eabi/include/sys/_stdin
 461              		.file 4 "../convex-vexilla/cortex/fw/vexdigital.h"
 462              		.file 5 "../convex-vexilla/cortex/fw/vexime.h"
 463              		.file 6 "../convex-vexilla/cortex/fw/vexspi.h"
 464              		.file 7 "../convex-vexilla/cortex/fw/vexctl.h"
 465              		.file 8 "../convex-vexilla/cortex/fw/vex.h"
 466              		.file 9 "../ChibiOS/os/ports/common/ARMCMx/CMSIS/include/core_cm3.h"
 467              		.section	.debug_info,"",%progbits
 468              	.Ldebug_info0:
 469 0000 F6040000 		.4byte	0x4f6
 470 0004 0400     		.2byte	0x4
 471 0006 00000000 		.4byte	.Ldebug_abbrev0
 472 000a 04       		.byte	0x4
 473 000b 01       		.uleb128 0x1
 474 000c C9010000 		.4byte	.LASF114
 475 0010 0C       		.byte	0xc
 476 0011 ED030000 		.4byte	.LASF115
 477 0015 CA050000 		.4byte	.LASF116
 478 0019 00000000 		.4byte	.Ldebug_ranges0+0
 479 001d 00000000 		.4byte	0
 480 0021 00000000 		.4byte	.Ldebug_line0
 481 0025 02       		.uleb128 0x2
 482 0026 04       		.byte	0x4
 483 0027 05       		.byte	0x5
 484 0028 696E7400 		.ascii	"int\000"
 485 002c 03       		.uleb128 0x3
 486 002d 04       		.byte	0x4
 487 002e 07       		.byte	0x7
 488 002f 58010000 		.4byte	.LASF0
 489 0033 03       		.uleb128 0x3
 490 0034 08       		.byte	0x8
 491 0035 05       		.byte	0x5
 492 0036 A0000000 		.4byte	.LASF1
 493 003a 03       		.uleb128 0x3
 494 003b 08       		.byte	0x8
 495 003c 04       		.byte	0x4
 496 003d 99040000 		.4byte	.LASF2
 497 0041 03       		.uleb128 0x3
 498 0042 01       		.byte	0x1
 499 0043 06       		.byte	0x6
 500 0044 AE000000 		.4byte	.LASF3
 501 0048 03       		.uleb128 0x3
 502 0049 01       		.byte	0x1
 503 004a 08       		.byte	0x8
 504 004b DF030000 		.4byte	.LASF4
 505 004f 04       		.uleb128 0x4
 506 0050 1F060000 		.4byte	.LASF6
 507 0054 02       		.byte	0x2
 508 0055 29       		.byte	0x29
 509 0056 5A000000 		.4byte	0x5a
 510 005a 03       		.uleb128 0x3
 511 005b 02       		.byte	0x2
 512 005c 05       		.byte	0x5
 513 005d 3F030000 		.4byte	.LASF5
ARM GAS  /var/folders/6q/x_mk5n_j3p7_c40r_2k_78980000gn/T//ccbqpbV1.s 			page 10


 514 0061 04       		.uleb128 0x4
 515 0062 0C050000 		.4byte	.LASF7
 516 0066 02       		.byte	0x2
 517 0067 2B       		.byte	0x2b
 518 0068 6C000000 		.4byte	0x6c
 519 006c 03       		.uleb128 0x3
 520 006d 02       		.byte	0x2
 521 006e 07       		.byte	0x7
 522 006f A3020000 		.4byte	.LASF8
 523 0073 04       		.uleb128 0x4
 524 0074 54050000 		.4byte	.LASF9
 525 0078 02       		.byte	0x2
 526 0079 3F       		.byte	0x3f
 527 007a 7E000000 		.4byte	0x7e
 528 007e 03       		.uleb128 0x3
 529 007f 04       		.byte	0x4
 530 0080 05       		.byte	0x5
 531 0081 11010000 		.4byte	.LASF10
 532 0085 03       		.uleb128 0x3
 533 0086 04       		.byte	0x4
 534 0087 07       		.byte	0x7
 535 0088 81010000 		.4byte	.LASF11
 536 008c 03       		.uleb128 0x3
 537 008d 08       		.byte	0x8
 538 008e 07       		.byte	0x7
 539 008f 3C000000 		.4byte	.LASF12
 540 0093 04       		.uleb128 0x4
 541 0094 98000000 		.4byte	.LASF13
 542 0098 03       		.byte	0x3
 543 0099 20       		.byte	0x20
 544 009a 4F000000 		.4byte	0x4f
 545 009e 04       		.uleb128 0x4
 546 009f 25010000 		.4byte	.LASF14
 547 00a3 03       		.byte	0x3
 548 00a4 24       		.byte	0x24
 549 00a5 61000000 		.4byte	0x61
 550 00a9 04       		.uleb128 0x4
 551 00aa D7030000 		.4byte	.LASF15
 552 00ae 03       		.byte	0x3
 553 00af 2C       		.byte	0x2c
 554 00b0 73000000 		.4byte	0x73
 555 00b4 03       		.uleb128 0x3
 556 00b5 01       		.byte	0x1
 557 00b6 02       		.byte	0x2
 558 00b7 D1030000 		.4byte	.LASF16
 559 00bb 03       		.uleb128 0x3
 560 00bc 04       		.byte	0x4
 561 00bd 07       		.byte	0x7
 562 00be 65030000 		.4byte	.LASF17
 563 00c2 03       		.uleb128 0x3
 564 00c3 01       		.byte	0x1
 565 00c4 08       		.byte	0x8
 566 00c5 A5040000 		.4byte	.LASF18
 567 00c9 05       		.uleb128 0x5
 568 00ca A9000000 		.4byte	0xa9
 569 00ce 06       		.uleb128 0x6
 570 00cf 01       		.byte	0x1
ARM GAS  /var/folders/6q/x_mk5n_j3p7_c40r_2k_78980000gn/T//ccbqpbV1.s 			page 11


 571 00d0 41000000 		.4byte	0x41
 572 00d4 04       		.byte	0x4
 573 00d5 8D       		.byte	0x8d
 574 00d6 2F010000 		.4byte	0x12f
 575 00da 07       		.uleb128 0x7
 576 00db A4030000 		.4byte	.LASF19
 577 00df 7F       		.sleb128 -1
 578 00e0 08       		.uleb128 0x8
 579 00e1 C1020000 		.4byte	.LASF20
 580 00e5 00       		.byte	0
 581 00e6 08       		.uleb128 0x8
 582 00e7 CF020000 		.4byte	.LASF21
 583 00eb 01       		.byte	0x1
 584 00ec 08       		.uleb128 0x8
 585 00ed DD020000 		.4byte	.LASF22
 586 00f1 02       		.byte	0x2
 587 00f2 08       		.uleb128 0x8
 588 00f3 EB020000 		.4byte	.LASF23
 589 00f7 03       		.byte	0x3
 590 00f8 08       		.uleb128 0x8
 591 00f9 F9020000 		.4byte	.LASF24
 592 00fd 04       		.byte	0x4
 593 00fe 08       		.uleb128 0x8
 594 00ff 07030000 		.4byte	.LASF25
 595 0103 05       		.byte	0x5
 596 0104 08       		.uleb128 0x8
 597 0105 15030000 		.4byte	.LASF26
 598 0109 06       		.byte	0x6
 599 010a 08       		.uleb128 0x8
 600 010b 23030000 		.4byte	.LASF27
 601 010f 07       		.byte	0x7
 602 0110 08       		.uleb128 0x8
 603 0111 31030000 		.4byte	.LASF28
 604 0115 08       		.byte	0x8
 605 0116 08       		.uleb128 0x8
 606 0117 17050000 		.4byte	.LASF29
 607 011b 09       		.byte	0x9
 608 011c 08       		.uleb128 0x8
 609 011d 26050000 		.4byte	.LASF30
 610 0121 0A       		.byte	0xa
 611 0122 08       		.uleb128 0x8
 612 0123 35050000 		.4byte	.LASF31
 613 0127 0B       		.byte	0xb
 614 0128 08       		.uleb128 0x8
 615 0129 53000000 		.4byte	.LASF32
 616 012d 0C       		.byte	0xc
 617 012e 00       		.byte	0
 618 012f 06       		.uleb128 0x6
 619 0130 01       		.byte	0x1
 620 0131 48000000 		.4byte	0x48
 621 0135 04       		.byte	0x4
 622 0136 A2       		.byte	0xa2
 623 0137 48010000 		.4byte	0x148
 624 013b 08       		.uleb128 0x8
 625 013c 67060000 		.4byte	.LASF33
 626 0140 00       		.byte	0
 627 0141 08       		.uleb128 0x8
ARM GAS  /var/folders/6q/x_mk5n_j3p7_c40r_2k_78980000gn/T//ccbqpbV1.s 			page 12


 628 0142 2A000000 		.4byte	.LASF34
 629 0146 01       		.byte	0x1
 630 0147 00       		.byte	0
 631 0148 06       		.uleb128 0x6
 632 0149 01       		.byte	0x1
 633 014a 48000000 		.4byte	0x48
 634 014e 05       		.byte	0x5
 635 014f 46       		.byte	0x46
 636 0150 91010000 		.4byte	0x191
 637 0154 08       		.uleb128 0x8
 638 0155 B5030000 		.4byte	.LASF35
 639 0159 00       		.byte	0
 640 015a 08       		.uleb128 0x8
 641 015b AA040000 		.4byte	.LASF36
 642 015f 01       		.byte	0x1
 643 0160 08       		.uleb128 0x8
 644 0161 B8040000 		.4byte	.LASF37
 645 0165 02       		.byte	0x2
 646 0166 08       		.uleb128 0x8
 647 0167 C6040000 		.4byte	.LASF38
 648 016b 03       		.byte	0x3
 649 016c 08       		.uleb128 0x8
 650 016d D4040000 		.4byte	.LASF39
 651 0171 04       		.byte	0x4
 652 0172 08       		.uleb128 0x8
 653 0173 E2040000 		.4byte	.LASF40
 654 0177 05       		.byte	0x5
 655 0178 08       		.uleb128 0x8
 656 0179 F0040000 		.4byte	.LASF41
 657 017d 06       		.byte	0x6
 658 017e 08       		.uleb128 0x8
 659 017f FE040000 		.4byte	.LASF42
 660 0183 07       		.byte	0x7
 661 0184 08       		.uleb128 0x8
 662 0185 5B040000 		.4byte	.LASF43
 663 0189 08       		.byte	0x8
 664 018a 08       		.uleb128 0x8
 665 018b 34040000 		.4byte	.LASF44
 666 018f 63       		.byte	0x63
 667 0190 00       		.byte	0
 668 0191 09       		.uleb128 0x9
 669 0192 C3030000 		.4byte	.LASF117
 670 0196 0B       		.byte	0xb
 671 0197 06       		.byte	0x6
 672 0198 57       		.byte	0x57
 673 0199 0A020000 		.4byte	0x20a
 674 019d 0A       		.uleb128 0xa
 675 019e 43683100 		.ascii	"Ch1\000"
 676 01a2 06       		.byte	0x6
 677 01a3 58       		.byte	0x58
 678 01a4 C2000000 		.4byte	0xc2
 679 01a8 00       		.byte	0
 680 01a9 0A       		.uleb128 0xa
 681 01aa 43683200 		.ascii	"Ch2\000"
 682 01ae 06       		.byte	0x6
 683 01af 59       		.byte	0x59
 684 01b0 C2000000 		.4byte	0xc2
ARM GAS  /var/folders/6q/x_mk5n_j3p7_c40r_2k_78980000gn/T//ccbqpbV1.s 			page 13


 685 01b4 01       		.byte	0x1
 686 01b5 0A       		.uleb128 0xa
 687 01b6 43683300 		.ascii	"Ch3\000"
 688 01ba 06       		.byte	0x6
 689 01bb 5A       		.byte	0x5a
 690 01bc C2000000 		.4byte	0xc2
 691 01c0 02       		.byte	0x2
 692 01c1 0A       		.uleb128 0xa
 693 01c2 43683400 		.ascii	"Ch4\000"
 694 01c6 06       		.byte	0x6
 695 01c7 5B       		.byte	0x5b
 696 01c8 C2000000 		.4byte	0xc2
 697 01cc 03       		.byte	0x3
 698 01cd 0B       		.uleb128 0xb
 699 01ce 99010000 		.4byte	.LASF45
 700 01d2 06       		.byte	0x6
 701 01d3 5C       		.byte	0x5c
 702 01d4 C2000000 		.4byte	0xc2
 703 01d8 04       		.byte	0x4
 704 01d9 0B       		.uleb128 0xb
 705 01da 93010000 		.4byte	.LASF46
 706 01de 06       		.byte	0x6
 707 01df 5D       		.byte	0x5d
 708 01e0 C2000000 		.4byte	0xc2
 709 01e4 05       		.byte	0x5
 710 01e5 0B       		.uleb128 0xb
 711 01e6 9F010000 		.4byte	.LASF47
 712 01ea 06       		.byte	0x6
 713 01eb 5E       		.byte	0x5e
 714 01ec C2000000 		.4byte	0xc2
 715 01f0 06       		.byte	0x6
 716 01f1 0B       		.uleb128 0xb
 717 01f2 BC020000 		.4byte	.LASF48
 718 01f6 06       		.byte	0x6
 719 01f7 5F       		.byte	0x5f
 720 01f8 0A020000 		.4byte	0x20a
 721 01fc 07       		.byte	0x7
 722 01fd 0A       		.uleb128 0xa
 723 01fe 72657300 		.ascii	"res\000"
 724 0202 06       		.byte	0x6
 725 0203 60       		.byte	0x60
 726 0204 0A020000 		.4byte	0x20a
 727 0208 09       		.byte	0x9
 728 0209 00       		.byte	0
 729 020a 0C       		.uleb128 0xc
 730 020b 48000000 		.4byte	0x48
 731 020f 1A020000 		.4byte	0x21a
 732 0213 0D       		.uleb128 0xd
 733 0214 BB000000 		.4byte	0xbb
 734 0218 01       		.byte	0x1
 735 0219 00       		.byte	0
 736 021a 04       		.uleb128 0x4
 737 021b 2E010000 		.4byte	.LASF49
 738 021f 06       		.byte	0x6
 739 0220 61       		.byte	0x61
 740 0221 91010000 		.4byte	0x191
 741 0225 06       		.uleb128 0x6
ARM GAS  /var/folders/6q/x_mk5n_j3p7_c40r_2k_78980000gn/T//ccbqpbV1.s 			page 14


 742 0226 01       		.byte	0x1
 743 0227 48000000 		.4byte	0x48
 744 022b 07       		.byte	0x7
 745 022c 3F       		.byte	0x3f
 746 022d 52030000 		.4byte	0x352
 747 0231 0E       		.uleb128 0xe
 748 0232 43683100 		.ascii	"Ch1\000"
 749 0236 00       		.byte	0
 750 0237 0E       		.uleb128 0xe
 751 0238 43683200 		.ascii	"Ch2\000"
 752 023c 01       		.byte	0x1
 753 023d 0E       		.uleb128 0xe
 754 023e 43683300 		.ascii	"Ch3\000"
 755 0242 02       		.byte	0x2
 756 0243 0E       		.uleb128 0xe
 757 0244 43683400 		.ascii	"Ch4\000"
 758 0248 03       		.byte	0x3
 759 0249 08       		.uleb128 0x8
 760 024a 5F030000 		.4byte	.LASF50
 761 024e 04       		.byte	0x4
 762 024f 08       		.uleb128 0x8
 763 0250 4E050000 		.4byte	.LASF51
 764 0254 05       		.byte	0x5
 765 0255 08       		.uleb128 0x8
 766 0256 64050000 		.4byte	.LASF52
 767 025a 06       		.byte	0x6
 768 025b 08       		.uleb128 0x8
 769 025c 5E050000 		.4byte	.LASF53
 770 0260 07       		.byte	0x7
 771 0261 08       		.uleb128 0x8
 772 0262 CB030000 		.4byte	.LASF54
 773 0266 08       		.byte	0x8
 774 0267 08       		.uleb128 0x8
 775 0268 24040000 		.4byte	.LASF55
 776 026c 09       		.byte	0x9
 777 026d 08       		.uleb128 0x8
 778 026e 4A040000 		.4byte	.LASF56
 779 0272 0A       		.byte	0xa
 780 0273 08       		.uleb128 0x8
 781 0274 44040000 		.4byte	.LASF57
 782 0278 0B       		.byte	0xb
 783 0279 08       		.uleb128 0x8
 784 027a C3010000 		.4byte	.LASF58
 785 027e 0C       		.byte	0xc
 786 027f 08       		.uleb128 0x8
 787 0280 B6020000 		.4byte	.LASF59
 788 0284 0D       		.byte	0xd
 789 0285 08       		.uleb128 0x8
 790 0286 6E030000 		.4byte	.LASF60
 791 028a 0E       		.byte	0xe
 792 028b 08       		.uleb128 0x8
 793 028c 0B000000 		.4byte	.LASF61
 794 0290 0F       		.byte	0xf
 795 0291 08       		.uleb128 0x8
 796 0292 F7050000 		.4byte	.LASF62
 797 0296 10       		.byte	0x10
 798 0297 08       		.uleb128 0x8
ARM GAS  /var/folders/6q/x_mk5n_j3p7_c40r_2k_78980000gn/T//ccbqpbV1.s 			page 15


 799 0298 FD050000 		.4byte	.LASF63
 800 029c 11       		.byte	0x11
 801 029d 08       		.uleb128 0x8
 802 029e 03060000 		.4byte	.LASF64
 803 02a2 12       		.byte	0x12
 804 02a3 08       		.uleb128 0x8
 805 02a4 6A050000 		.4byte	.LASF65
 806 02a8 13       		.byte	0x13
 807 02a9 08       		.uleb128 0x8
 808 02aa 6F050000 		.4byte	.LASF66
 809 02ae 14       		.byte	0x14
 810 02af 08       		.uleb128 0x8
 811 02b0 74050000 		.4byte	.LASF67
 812 02b4 15       		.byte	0x15
 813 02b5 08       		.uleb128 0x8
 814 02b6 79050000 		.4byte	.LASF68
 815 02ba 16       		.byte	0x16
 816 02bb 08       		.uleb128 0x8
 817 02bc 35010000 		.4byte	.LASF69
 818 02c0 17       		.byte	0x17
 819 02c1 08       		.uleb128 0x8
 820 02c2 74030000 		.4byte	.LASF70
 821 02c6 80       		.byte	0x80
 822 02c7 08       		.uleb128 0x8
 823 02c8 2F060000 		.4byte	.LASF71
 824 02cc 81       		.byte	0x81
 825 02cd 08       		.uleb128 0x8
 826 02ce 21000000 		.4byte	.LASF72
 827 02d2 82       		.byte	0x82
 828 02d3 08       		.uleb128 0x8
 829 02d4 CE000000 		.4byte	.LASF73
 830 02d8 83       		.byte	0x83
 831 02d9 08       		.uleb128 0x8
 832 02da 00000000 		.4byte	.LASF74
 833 02de 84       		.byte	0x84
 834 02df 08       		.uleb128 0x8
 835 02e0 EC050000 		.4byte	.LASF75
 836 02e4 85       		.byte	0x85
 837 02e5 08       		.uleb128 0x8
 838 02e6 50040000 		.4byte	.LASF76
 839 02ea 86       		.byte	0x86
 840 02eb 08       		.uleb128 0x8
 841 02ec 1A010000 		.4byte	.LASF77
 842 02f0 87       		.byte	0x87
 843 02f1 08       		.uleb128 0x8
 844 02f2 54030000 		.4byte	.LASF78
 845 02f6 88       		.byte	0x88
 846 02f7 08       		.uleb128 0x8
 847 02f8 AD010000 		.4byte	.LASF79
 848 02fc 89       		.byte	0x89
 849 02fd 08       		.uleb128 0x8
 850 02fe B8010000 		.4byte	.LASF80
 851 0302 8A       		.byte	0x8a
 852 0303 08       		.uleb128 0x8
 853 0304 51060000 		.4byte	.LASF81
 854 0308 8B       		.byte	0x8b
 855 0309 08       		.uleb128 0x8
ARM GAS  /var/folders/6q/x_mk5n_j3p7_c40r_2k_78980000gn/T//ccbqpbV1.s 			page 16


 856 030a 49030000 		.4byte	.LASF82
 857 030e 8C       		.byte	0x8c
 858 030f 08       		.uleb128 0x8
 859 0310 65010000 		.4byte	.LASF83
 860 0314 8D       		.byte	0x8d
 861 0315 08       		.uleb128 0x8
 862 0316 5C060000 		.4byte	.LASF84
 863 031a 8E       		.byte	0x8e
 864 031b 08       		.uleb128 0x8
 865 031c 8D000000 		.4byte	.LASF85
 866 0320 8F       		.byte	0x8f
 867 0321 08       		.uleb128 0x8
 868 0322 65040000 		.4byte	.LASF86
 869 0326 90       		.byte	0x90
 870 0327 08       		.uleb128 0x8
 871 0328 92050000 		.4byte	.LASF87
 872 032c 91       		.byte	0x91
 873 032d 08       		.uleb128 0x8
 874 032e 46060000 		.4byte	.LASF88
 875 0332 92       		.byte	0x92
 876 0333 08       		.uleb128 0x8
 877 0334 2A040000 		.4byte	.LASF89
 878 0338 93       		.byte	0x93
 879 0339 08       		.uleb128 0x8
 880 033a 44050000 		.4byte	.LASF90
 881 033e 94       		.byte	0x94
 882 033f 08       		.uleb128 0x8
 883 0340 15060000 		.4byte	.LASF91
 884 0344 95       		.byte	0x95
 885 0345 08       		.uleb128 0x8
 886 0346 9D050000 		.4byte	.LASF92
 887 034a 96       		.byte	0x96
 888 034b 08       		.uleb128 0x8
 889 034c 09060000 		.4byte	.LASF93
 890 0350 97       		.byte	0x97
 891 0351 00       		.byte	0
 892 0352 04       		.uleb128 0x4
 893 0353 A7050000 		.4byte	.LASF94
 894 0357 07       		.byte	0x7
 895 0358 51       		.byte	0x51
 896 0359 25020000 		.4byte	0x225
 897 035d 06       		.uleb128 0x6
 898 035e 01       		.byte	0x1
 899 035f 48000000 		.4byte	0x48
 900 0363 07       		.byte	0x7
 901 0364 56       		.byte	0x56
 902 0365 A0030000 		.4byte	0x3a0
 903 0369 08       		.uleb128 0x8
 904 036a B1050000 		.4byte	.LASF95
 905 036e 00       		.byte	0
 906 036f 08       		.uleb128 0x8
 907 0370 7D030000 		.4byte	.LASF96
 908 0374 01       		.byte	0x1
 909 0375 08       		.uleb128 0x8
 910 0376 88030000 		.4byte	.LASF97
 911 037a 02       		.byte	0x2
 912 037b 08       		.uleb128 0x8
ARM GAS  /var/folders/6q/x_mk5n_j3p7_c40r_2k_78980000gn/T//ccbqpbV1.s 			page 17


 913 037c C0050000 		.4byte	.LASF98
 914 0380 04       		.byte	0x4
 915 0381 08       		.uleb128 0x8
 916 0382 41010000 		.4byte	.LASF99
 917 0386 08       		.byte	0x8
 918 0387 08       		.uleb128 0x8
 919 0388 11000000 		.4byte	.LASF100
 920 038c 10       		.byte	0x10
 921 038d 08       		.uleb128 0x8
 922 038e BA000000 		.4byte	.LASF101
 923 0392 20       		.byte	0x20
 924 0393 08       		.uleb128 0x8
 925 0394 7E050000 		.4byte	.LASF102
 926 0398 40       		.byte	0x40
 927 0399 08       		.uleb128 0x8
 928 039a 38060000 		.4byte	.LASF103
 929 039e 80       		.byte	0x80
 930 039f 00       		.byte	0
 931 03a0 0F       		.uleb128 0xf
 932 03a1 F0000000 		.4byte	.LASF105
 933 03a5 01       		.byte	0x1
 934 03a6 45       		.byte	0x45
 935 03a7 93000000 		.4byte	0x93
 936 03ab 00000000 		.4byte	.LFB63
 937 03af 34000000 		.4byte	.LFE63-.LFB63
 938 03b3 01       		.uleb128 0x1
 939 03b4 9C       		.byte	0x9c
 940 03b5 E1030000 		.4byte	0x3e1
 941 03b9 10       		.uleb128 0x10
 942 03ba 63746C00 		.ascii	"ctl\000"
 943 03be 01       		.byte	0x1
 944 03bf 45       		.byte	0x45
 945 03c0 9E000000 		.4byte	0x9e
 946 03c4 00000000 		.4byte	.LLST0
 947 03c8 11       		.uleb128 0x11
 948 03c9 3C010000 		.4byte	.LASF104
 949 03cd 01       		.byte	0x1
 950 03ce 45       		.byte	0x45
 951 03cf 93000000 		.4byte	0x93
 952 03d3 21000000 		.4byte	.LLST1
 953 03d7 12       		.uleb128 0x12
 954 03d8 0A000000 		.4byte	.LVL1
 955 03dc D8040000 		.4byte	0x4d8
 956 03e0 00       		.byte	0
 957 03e1 0F       		.uleb128 0xf
 958 03e2 63000000 		.4byte	.LASF106
 959 03e6 01       		.byte	0x1
 960 03e7 5F       		.byte	0x5f
 961 03e8 9E000000 		.4byte	0x9e
 962 03ec 00000000 		.4byte	.LFB64
 963 03f0 20000000 		.4byte	.LFE64-.LFB64
 964 03f4 01       		.uleb128 0x1
 965 03f5 9C       		.byte	0x9c
 966 03f6 13040000 		.4byte	0x413
 967 03fa 13       		.uleb128 0x13
 968 03fb 63746C00 		.ascii	"ctl\000"
 969 03ff 01       		.byte	0x1
ARM GAS  /var/folders/6q/x_mk5n_j3p7_c40r_2k_78980000gn/T//ccbqpbV1.s 			page 18


 970 0400 61       		.byte	0x61
 971 0401 9E000000 		.4byte	0x9e
 972 0405 42000000 		.4byte	.LLST2
 973 0409 12       		.uleb128 0x12
 974 040a 06000000 		.4byte	.LVL2
 975 040e D8040000 		.4byte	0x4d8
 976 0412 00       		.byte	0
 977 0413 0F       		.uleb128 0xf
 978 0414 93030000 		.4byte	.LASF107
 979 0418 01       		.byte	0x1
 980 0419 7C       		.byte	0x7c
 981 041a 93000000 		.4byte	0x93
 982 041e 00000000 		.4byte	.LFB65
 983 0422 24010000 		.4byte	.LFE65-.LFB65
 984 0426 01       		.uleb128 0x1
 985 0427 9C       		.byte	0x9c
 986 0428 5E040000 		.4byte	0x45e
 987 042c 11       		.uleb128 0x11
 988 042d 29060000 		.4byte	.LASF108
 989 0431 01       		.byte	0x1
 990 0432 7C       		.byte	0x7c
 991 0433 52030000 		.4byte	0x352
 992 0437 60000000 		.4byte	.LLST3
 993 043b 13       		.uleb128 0x13
 994 043c 6A7300   		.ascii	"js\000"
 995 043f 01       		.byte	0x1
 996 0440 7E       		.byte	0x7e
 997 0441 5E040000 		.4byte	0x45e
 998 0445 81000000 		.4byte	.LLST4
 999 0449 14       		.uleb128 0x14
 1000 044a 70040000 		.4byte	.LASF118
 1001 044e 01       		.byte	0x1
 1002 044f 7F       		.byte	0x7f
 1003 0450 93000000 		.4byte	0x93
 1004 0454 12       		.uleb128 0x12
 1005 0455 14000000 		.4byte	.LVL7
 1006 0459 E3040000 		.4byte	0x4e3
 1007 045d 00       		.byte	0
 1008 045e 15       		.uleb128 0x15
 1009 045f 04       		.byte	0x4
 1010 0460 1A020000 		.4byte	0x21a
 1011 0464 16       		.uleb128 0x16
 1012 0465 80040000 		.4byte	.LASF119
 1013 0469 01       		.byte	0x1
 1014 046a EC       		.byte	0xec
 1015 046b 00000000 		.4byte	.LFB66
 1016 046f 26000000 		.4byte	.LFE66-.LFB66
 1017 0473 01       		.uleb128 0x1
 1018 0474 9C       		.byte	0x9c
 1019 0475 BB040000 		.4byte	0x4bb
 1020 0479 11       		.uleb128 0x11
 1021 047a 29060000 		.4byte	.LASF108
 1022 047e 01       		.byte	0x1
 1023 047f EC       		.byte	0xec
 1024 0480 52030000 		.4byte	0x352
 1025 0484 A7010000 		.4byte	.LLST5
 1026 0488 17       		.uleb128 0x17
ARM GAS  /var/folders/6q/x_mk5n_j3p7_c40r_2k_78980000gn/T//ccbqpbV1.s 			page 19


 1027 0489 A5010000 		.4byte	.LASF109
 1028 048d 01       		.byte	0x1
 1029 048e EE       		.byte	0xee
 1030 048f 25000000 		.4byte	0x25
 1031 0493 C8010000 		.4byte	.LLST6
 1032 0497 18       		.uleb128 0x18
 1033 0498 16000000 		.4byte	.LVL61
 1034 049c EE040000 		.4byte	0x4ee
 1035 04a0 AA040000 		.4byte	0x4aa
 1036 04a4 19       		.uleb128 0x19
 1037 04a5 01       		.uleb128 0x1
 1038 04a6 50       		.byte	0x50
 1039 04a7 01       		.uleb128 0x1
 1040 04a8 49       		.byte	0x49
 1041 04a9 00       		.byte	0
 1042 04aa 1A       		.uleb128 0x1a
 1043 04ab 20000000 		.4byte	.LVL64
 1044 04af 13040000 		.4byte	0x413
 1045 04b3 19       		.uleb128 0x19
 1046 04b4 01       		.uleb128 0x1
 1047 04b5 50       		.byte	0x50
 1048 04b6 02       		.uleb128 0x2
 1049 04b7 75       		.byte	0x75
 1050 04b8 00       		.sleb128 0
 1051 04b9 00       		.byte	0
 1052 04ba 00       		.byte	0
 1053 04bb 1B       		.uleb128 0x1b
 1054 04bc 12040000 		.4byte	.LASF110
 1055 04c0 01       		.byte	0x1
 1056 04c1 3B       		.byte	0x3b
 1057 04c2 9E000000 		.4byte	0x9e
 1058 04c6 05       		.uleb128 0x5
 1059 04c7 03       		.byte	0x3
 1060 04c8 00000000 		.4byte	vexLocalCompState
 1061 04cc 1C       		.uleb128 0x1c
 1062 04cd 80000000 		.4byte	.LASF120
 1063 04d1 09       		.byte	0x9
 1064 04d2 0706     		.2byte	0x607
 1065 04d4 C9000000 		.4byte	0xc9
 1066 04d8 1D       		.uleb128 0x1d
 1067 04d9 70010000 		.4byte	.LASF111
 1068 04dd 70010000 		.4byte	.LASF111
 1069 04e1 06       		.byte	0x6
 1070 04e2 B0       		.byte	0xb0
 1071 04e3 1D       		.uleb128 0x1d
 1072 04e4 D7000000 		.4byte	.LASF112
 1073 04e8 D7000000 		.4byte	.LASF112
 1074 04ec 06       		.byte	0x6
 1075 04ed AF       		.byte	0xaf
 1076 04ee 1D       		.uleb128 0x1d
 1077 04ef 77040000 		.4byte	.LASF113
 1078 04f3 77040000 		.4byte	.LASF113
 1079 04f7 08       		.byte	0x8
 1080 04f8 A5       		.byte	0xa5
 1081 04f9 00       		.byte	0
 1082              		.section	.debug_abbrev,"",%progbits
 1083              	.Ldebug_abbrev0:
ARM GAS  /var/folders/6q/x_mk5n_j3p7_c40r_2k_78980000gn/T//ccbqpbV1.s 			page 20


 1084 0000 01       		.uleb128 0x1
 1085 0001 11       		.uleb128 0x11
 1086 0002 01       		.byte	0x1
 1087 0003 25       		.uleb128 0x25
 1088 0004 0E       		.uleb128 0xe
 1089 0005 13       		.uleb128 0x13
 1090 0006 0B       		.uleb128 0xb
 1091 0007 03       		.uleb128 0x3
 1092 0008 0E       		.uleb128 0xe
 1093 0009 1B       		.uleb128 0x1b
 1094 000a 0E       		.uleb128 0xe
 1095 000b 55       		.uleb128 0x55
 1096 000c 17       		.uleb128 0x17
 1097 000d 11       		.uleb128 0x11
 1098 000e 01       		.uleb128 0x1
 1099 000f 10       		.uleb128 0x10
 1100 0010 17       		.uleb128 0x17
 1101 0011 00       		.byte	0
 1102 0012 00       		.byte	0
 1103 0013 02       		.uleb128 0x2
 1104 0014 24       		.uleb128 0x24
 1105 0015 00       		.byte	0
 1106 0016 0B       		.uleb128 0xb
 1107 0017 0B       		.uleb128 0xb
 1108 0018 3E       		.uleb128 0x3e
 1109 0019 0B       		.uleb128 0xb
 1110 001a 03       		.uleb128 0x3
 1111 001b 08       		.uleb128 0x8
 1112 001c 00       		.byte	0
 1113 001d 00       		.byte	0
 1114 001e 03       		.uleb128 0x3
 1115 001f 24       		.uleb128 0x24
 1116 0020 00       		.byte	0
 1117 0021 0B       		.uleb128 0xb
 1118 0022 0B       		.uleb128 0xb
 1119 0023 3E       		.uleb128 0x3e
 1120 0024 0B       		.uleb128 0xb
 1121 0025 03       		.uleb128 0x3
 1122 0026 0E       		.uleb128 0xe
 1123 0027 00       		.byte	0
 1124 0028 00       		.byte	0
 1125 0029 04       		.uleb128 0x4
 1126 002a 16       		.uleb128 0x16
 1127 002b 00       		.byte	0
 1128 002c 03       		.uleb128 0x3
 1129 002d 0E       		.uleb128 0xe
 1130 002e 3A       		.uleb128 0x3a
 1131 002f 0B       		.uleb128 0xb
 1132 0030 3B       		.uleb128 0x3b
 1133 0031 0B       		.uleb128 0xb
 1134 0032 49       		.uleb128 0x49
 1135 0033 13       		.uleb128 0x13
 1136 0034 00       		.byte	0
 1137 0035 00       		.byte	0
 1138 0036 05       		.uleb128 0x5
 1139 0037 35       		.uleb128 0x35
 1140 0038 00       		.byte	0
ARM GAS  /var/folders/6q/x_mk5n_j3p7_c40r_2k_78980000gn/T//ccbqpbV1.s 			page 21


 1141 0039 49       		.uleb128 0x49
 1142 003a 13       		.uleb128 0x13
 1143 003b 00       		.byte	0
 1144 003c 00       		.byte	0
 1145 003d 06       		.uleb128 0x6
 1146 003e 04       		.uleb128 0x4
 1147 003f 01       		.byte	0x1
 1148 0040 0B       		.uleb128 0xb
 1149 0041 0B       		.uleb128 0xb
 1150 0042 49       		.uleb128 0x49
 1151 0043 13       		.uleb128 0x13
 1152 0044 3A       		.uleb128 0x3a
 1153 0045 0B       		.uleb128 0xb
 1154 0046 3B       		.uleb128 0x3b
 1155 0047 0B       		.uleb128 0xb
 1156 0048 01       		.uleb128 0x1
 1157 0049 13       		.uleb128 0x13
 1158 004a 00       		.byte	0
 1159 004b 00       		.byte	0
 1160 004c 07       		.uleb128 0x7
 1161 004d 28       		.uleb128 0x28
 1162 004e 00       		.byte	0
 1163 004f 03       		.uleb128 0x3
 1164 0050 0E       		.uleb128 0xe
 1165 0051 1C       		.uleb128 0x1c
 1166 0052 0D       		.uleb128 0xd
 1167 0053 00       		.byte	0
 1168 0054 00       		.byte	0
 1169 0055 08       		.uleb128 0x8
 1170 0056 28       		.uleb128 0x28
 1171 0057 00       		.byte	0
 1172 0058 03       		.uleb128 0x3
 1173 0059 0E       		.uleb128 0xe
 1174 005a 1C       		.uleb128 0x1c
 1175 005b 0B       		.uleb128 0xb
 1176 005c 00       		.byte	0
 1177 005d 00       		.byte	0
 1178 005e 09       		.uleb128 0x9
 1179 005f 13       		.uleb128 0x13
 1180 0060 01       		.byte	0x1
 1181 0061 03       		.uleb128 0x3
 1182 0062 0E       		.uleb128 0xe
 1183 0063 0B       		.uleb128 0xb
 1184 0064 0B       		.uleb128 0xb
 1185 0065 3A       		.uleb128 0x3a
 1186 0066 0B       		.uleb128 0xb
 1187 0067 3B       		.uleb128 0x3b
 1188 0068 0B       		.uleb128 0xb
 1189 0069 01       		.uleb128 0x1
 1190 006a 13       		.uleb128 0x13
 1191 006b 00       		.byte	0
 1192 006c 00       		.byte	0
 1193 006d 0A       		.uleb128 0xa
 1194 006e 0D       		.uleb128 0xd
 1195 006f 00       		.byte	0
 1196 0070 03       		.uleb128 0x3
 1197 0071 08       		.uleb128 0x8
ARM GAS  /var/folders/6q/x_mk5n_j3p7_c40r_2k_78980000gn/T//ccbqpbV1.s 			page 22


 1198 0072 3A       		.uleb128 0x3a
 1199 0073 0B       		.uleb128 0xb
 1200 0074 3B       		.uleb128 0x3b
 1201 0075 0B       		.uleb128 0xb
 1202 0076 49       		.uleb128 0x49
 1203 0077 13       		.uleb128 0x13
 1204 0078 38       		.uleb128 0x38
 1205 0079 0B       		.uleb128 0xb
 1206 007a 00       		.byte	0
 1207 007b 00       		.byte	0
 1208 007c 0B       		.uleb128 0xb
 1209 007d 0D       		.uleb128 0xd
 1210 007e 00       		.byte	0
 1211 007f 03       		.uleb128 0x3
 1212 0080 0E       		.uleb128 0xe
 1213 0081 3A       		.uleb128 0x3a
 1214 0082 0B       		.uleb128 0xb
 1215 0083 3B       		.uleb128 0x3b
 1216 0084 0B       		.uleb128 0xb
 1217 0085 49       		.uleb128 0x49
 1218 0086 13       		.uleb128 0x13
 1219 0087 38       		.uleb128 0x38
 1220 0088 0B       		.uleb128 0xb
 1221 0089 00       		.byte	0
 1222 008a 00       		.byte	0
 1223 008b 0C       		.uleb128 0xc
 1224 008c 01       		.uleb128 0x1
 1225 008d 01       		.byte	0x1
 1226 008e 49       		.uleb128 0x49
 1227 008f 13       		.uleb128 0x13
 1228 0090 01       		.uleb128 0x1
 1229 0091 13       		.uleb128 0x13
 1230 0092 00       		.byte	0
 1231 0093 00       		.byte	0
 1232 0094 0D       		.uleb128 0xd
 1233 0095 21       		.uleb128 0x21
 1234 0096 00       		.byte	0
 1235 0097 49       		.uleb128 0x49
 1236 0098 13       		.uleb128 0x13
 1237 0099 2F       		.uleb128 0x2f
 1238 009a 0B       		.uleb128 0xb
 1239 009b 00       		.byte	0
 1240 009c 00       		.byte	0
 1241 009d 0E       		.uleb128 0xe
 1242 009e 28       		.uleb128 0x28
 1243 009f 00       		.byte	0
 1244 00a0 03       		.uleb128 0x3
 1245 00a1 08       		.uleb128 0x8
 1246 00a2 1C       		.uleb128 0x1c
 1247 00a3 0B       		.uleb128 0xb
 1248 00a4 00       		.byte	0
 1249 00a5 00       		.byte	0
 1250 00a6 0F       		.uleb128 0xf
 1251 00a7 2E       		.uleb128 0x2e
 1252 00a8 01       		.byte	0x1
 1253 00a9 3F       		.uleb128 0x3f
 1254 00aa 19       		.uleb128 0x19
ARM GAS  /var/folders/6q/x_mk5n_j3p7_c40r_2k_78980000gn/T//ccbqpbV1.s 			page 23


 1255 00ab 03       		.uleb128 0x3
 1256 00ac 0E       		.uleb128 0xe
 1257 00ad 3A       		.uleb128 0x3a
 1258 00ae 0B       		.uleb128 0xb
 1259 00af 3B       		.uleb128 0x3b
 1260 00b0 0B       		.uleb128 0xb
 1261 00b1 27       		.uleb128 0x27
 1262 00b2 19       		.uleb128 0x19
 1263 00b3 49       		.uleb128 0x49
 1264 00b4 13       		.uleb128 0x13
 1265 00b5 11       		.uleb128 0x11
 1266 00b6 01       		.uleb128 0x1
 1267 00b7 12       		.uleb128 0x12
 1268 00b8 06       		.uleb128 0x6
 1269 00b9 40       		.uleb128 0x40
 1270 00ba 18       		.uleb128 0x18
 1271 00bb 9742     		.uleb128 0x2117
 1272 00bd 19       		.uleb128 0x19
 1273 00be 01       		.uleb128 0x1
 1274 00bf 13       		.uleb128 0x13
 1275 00c0 00       		.byte	0
 1276 00c1 00       		.byte	0
 1277 00c2 10       		.uleb128 0x10
 1278 00c3 05       		.uleb128 0x5
 1279 00c4 00       		.byte	0
 1280 00c5 03       		.uleb128 0x3
 1281 00c6 08       		.uleb128 0x8
 1282 00c7 3A       		.uleb128 0x3a
 1283 00c8 0B       		.uleb128 0xb
 1284 00c9 3B       		.uleb128 0x3b
 1285 00ca 0B       		.uleb128 0xb
 1286 00cb 49       		.uleb128 0x49
 1287 00cc 13       		.uleb128 0x13
 1288 00cd 02       		.uleb128 0x2
 1289 00ce 17       		.uleb128 0x17
 1290 00cf 00       		.byte	0
 1291 00d0 00       		.byte	0
 1292 00d1 11       		.uleb128 0x11
 1293 00d2 05       		.uleb128 0x5
 1294 00d3 00       		.byte	0
 1295 00d4 03       		.uleb128 0x3
 1296 00d5 0E       		.uleb128 0xe
 1297 00d6 3A       		.uleb128 0x3a
 1298 00d7 0B       		.uleb128 0xb
 1299 00d8 3B       		.uleb128 0x3b
 1300 00d9 0B       		.uleb128 0xb
 1301 00da 49       		.uleb128 0x49
 1302 00db 13       		.uleb128 0x13
 1303 00dc 02       		.uleb128 0x2
 1304 00dd 17       		.uleb128 0x17
 1305 00de 00       		.byte	0
 1306 00df 00       		.byte	0
 1307 00e0 12       		.uleb128 0x12
 1308 00e1 898201   		.uleb128 0x4109
 1309 00e4 00       		.byte	0
 1310 00e5 11       		.uleb128 0x11
 1311 00e6 01       		.uleb128 0x1
ARM GAS  /var/folders/6q/x_mk5n_j3p7_c40r_2k_78980000gn/T//ccbqpbV1.s 			page 24


 1312 00e7 31       		.uleb128 0x31
 1313 00e8 13       		.uleb128 0x13
 1314 00e9 00       		.byte	0
 1315 00ea 00       		.byte	0
 1316 00eb 13       		.uleb128 0x13
 1317 00ec 34       		.uleb128 0x34
 1318 00ed 00       		.byte	0
 1319 00ee 03       		.uleb128 0x3
 1320 00ef 08       		.uleb128 0x8
 1321 00f0 3A       		.uleb128 0x3a
 1322 00f1 0B       		.uleb128 0xb
 1323 00f2 3B       		.uleb128 0x3b
 1324 00f3 0B       		.uleb128 0xb
 1325 00f4 49       		.uleb128 0x49
 1326 00f5 13       		.uleb128 0x13
 1327 00f6 02       		.uleb128 0x2
 1328 00f7 17       		.uleb128 0x17
 1329 00f8 00       		.byte	0
 1330 00f9 00       		.byte	0
 1331 00fa 14       		.uleb128 0x14
 1332 00fb 34       		.uleb128 0x34
 1333 00fc 00       		.byte	0
 1334 00fd 03       		.uleb128 0x3
 1335 00fe 0E       		.uleb128 0xe
 1336 00ff 3A       		.uleb128 0x3a
 1337 0100 0B       		.uleb128 0xb
 1338 0101 3B       		.uleb128 0x3b
 1339 0102 0B       		.uleb128 0xb
 1340 0103 49       		.uleb128 0x49
 1341 0104 13       		.uleb128 0x13
 1342 0105 00       		.byte	0
 1343 0106 00       		.byte	0
 1344 0107 15       		.uleb128 0x15
 1345 0108 0F       		.uleb128 0xf
 1346 0109 00       		.byte	0
 1347 010a 0B       		.uleb128 0xb
 1348 010b 0B       		.uleb128 0xb
 1349 010c 49       		.uleb128 0x49
 1350 010d 13       		.uleb128 0x13
 1351 010e 00       		.byte	0
 1352 010f 00       		.byte	0
 1353 0110 16       		.uleb128 0x16
 1354 0111 2E       		.uleb128 0x2e
 1355 0112 01       		.byte	0x1
 1356 0113 3F       		.uleb128 0x3f
 1357 0114 19       		.uleb128 0x19
 1358 0115 03       		.uleb128 0x3
 1359 0116 0E       		.uleb128 0xe
 1360 0117 3A       		.uleb128 0x3a
 1361 0118 0B       		.uleb128 0xb
 1362 0119 3B       		.uleb128 0x3b
 1363 011a 0B       		.uleb128 0xb
 1364 011b 27       		.uleb128 0x27
 1365 011c 19       		.uleb128 0x19
 1366 011d 11       		.uleb128 0x11
 1367 011e 01       		.uleb128 0x1
 1368 011f 12       		.uleb128 0x12
ARM GAS  /var/folders/6q/x_mk5n_j3p7_c40r_2k_78980000gn/T//ccbqpbV1.s 			page 25


 1369 0120 06       		.uleb128 0x6
 1370 0121 40       		.uleb128 0x40
 1371 0122 18       		.uleb128 0x18
 1372 0123 9742     		.uleb128 0x2117
 1373 0125 19       		.uleb128 0x19
 1374 0126 01       		.uleb128 0x1
 1375 0127 13       		.uleb128 0x13
 1376 0128 00       		.byte	0
 1377 0129 00       		.byte	0
 1378 012a 17       		.uleb128 0x17
 1379 012b 34       		.uleb128 0x34
 1380 012c 00       		.byte	0
 1381 012d 03       		.uleb128 0x3
 1382 012e 0E       		.uleb128 0xe
 1383 012f 3A       		.uleb128 0x3a
 1384 0130 0B       		.uleb128 0xb
 1385 0131 3B       		.uleb128 0x3b
 1386 0132 0B       		.uleb128 0xb
 1387 0133 49       		.uleb128 0x49
 1388 0134 13       		.uleb128 0x13
 1389 0135 02       		.uleb128 0x2
 1390 0136 17       		.uleb128 0x17
 1391 0137 00       		.byte	0
 1392 0138 00       		.byte	0
 1393 0139 18       		.uleb128 0x18
 1394 013a 898201   		.uleb128 0x4109
 1395 013d 01       		.byte	0x1
 1396 013e 11       		.uleb128 0x11
 1397 013f 01       		.uleb128 0x1
 1398 0140 31       		.uleb128 0x31
 1399 0141 13       		.uleb128 0x13
 1400 0142 01       		.uleb128 0x1
 1401 0143 13       		.uleb128 0x13
 1402 0144 00       		.byte	0
 1403 0145 00       		.byte	0
 1404 0146 19       		.uleb128 0x19
 1405 0147 8A8201   		.uleb128 0x410a
 1406 014a 00       		.byte	0
 1407 014b 02       		.uleb128 0x2
 1408 014c 18       		.uleb128 0x18
 1409 014d 9142     		.uleb128 0x2111
 1410 014f 18       		.uleb128 0x18
 1411 0150 00       		.byte	0
 1412 0151 00       		.byte	0
 1413 0152 1A       		.uleb128 0x1a
 1414 0153 898201   		.uleb128 0x4109
 1415 0156 01       		.byte	0x1
 1416 0157 11       		.uleb128 0x11
 1417 0158 01       		.uleb128 0x1
 1418 0159 31       		.uleb128 0x31
 1419 015a 13       		.uleb128 0x13
 1420 015b 00       		.byte	0
 1421 015c 00       		.byte	0
 1422 015d 1B       		.uleb128 0x1b
 1423 015e 34       		.uleb128 0x34
 1424 015f 00       		.byte	0
 1425 0160 03       		.uleb128 0x3
ARM GAS  /var/folders/6q/x_mk5n_j3p7_c40r_2k_78980000gn/T//ccbqpbV1.s 			page 26


 1426 0161 0E       		.uleb128 0xe
 1427 0162 3A       		.uleb128 0x3a
 1428 0163 0B       		.uleb128 0xb
 1429 0164 3B       		.uleb128 0x3b
 1430 0165 0B       		.uleb128 0xb
 1431 0166 49       		.uleb128 0x49
 1432 0167 13       		.uleb128 0x13
 1433 0168 02       		.uleb128 0x2
 1434 0169 18       		.uleb128 0x18
 1435 016a 00       		.byte	0
 1436 016b 00       		.byte	0
 1437 016c 1C       		.uleb128 0x1c
 1438 016d 34       		.uleb128 0x34
 1439 016e 00       		.byte	0
 1440 016f 03       		.uleb128 0x3
 1441 0170 0E       		.uleb128 0xe
 1442 0171 3A       		.uleb128 0x3a
 1443 0172 0B       		.uleb128 0xb
 1444 0173 3B       		.uleb128 0x3b
 1445 0174 05       		.uleb128 0x5
 1446 0175 49       		.uleb128 0x49
 1447 0176 13       		.uleb128 0x13
 1448 0177 3F       		.uleb128 0x3f
 1449 0178 19       		.uleb128 0x19
 1450 0179 3C       		.uleb128 0x3c
 1451 017a 19       		.uleb128 0x19
 1452 017b 00       		.byte	0
 1453 017c 00       		.byte	0
 1454 017d 1D       		.uleb128 0x1d
 1455 017e 2E       		.uleb128 0x2e
 1456 017f 00       		.byte	0
 1457 0180 3F       		.uleb128 0x3f
 1458 0181 19       		.uleb128 0x19
 1459 0182 3C       		.uleb128 0x3c
 1460 0183 19       		.uleb128 0x19
 1461 0184 6E       		.uleb128 0x6e
 1462 0185 0E       		.uleb128 0xe
 1463 0186 03       		.uleb128 0x3
 1464 0187 0E       		.uleb128 0xe
 1465 0188 3A       		.uleb128 0x3a
 1466 0189 0B       		.uleb128 0xb
 1467 018a 3B       		.uleb128 0x3b
 1468 018b 0B       		.uleb128 0xb
 1469 018c 00       		.byte	0
 1470 018d 00       		.byte	0
 1471 018e 00       		.byte	0
 1472              		.section	.debug_loc,"",%progbits
 1473              	.Ldebug_loc0:
 1474              	.LLST0:
 1475 0000 00000000 		.4byte	.LVL0
 1476 0004 09000000 		.4byte	.LVL1-1
 1477 0008 0100     		.2byte	0x1
 1478 000a 50       		.byte	0x50
 1479 000b 09000000 		.4byte	.LVL1-1
 1480 000f 34000000 		.4byte	.LFE63
 1481 0013 0400     		.2byte	0x4
 1482 0015 F3       		.byte	0xf3
ARM GAS  /var/folders/6q/x_mk5n_j3p7_c40r_2k_78980000gn/T//ccbqpbV1.s 			page 27


 1483 0016 01       		.uleb128 0x1
 1484 0017 50       		.byte	0x50
 1485 0018 9F       		.byte	0x9f
 1486 0019 00000000 		.4byte	0
 1487 001d 00000000 		.4byte	0
 1488              	.LLST1:
 1489 0021 00000000 		.4byte	.LVL0
 1490 0025 09000000 		.4byte	.LVL1-1
 1491 0029 0100     		.2byte	0x1
 1492 002b 51       		.byte	0x51
 1493 002c 09000000 		.4byte	.LVL1-1
 1494 0030 34000000 		.4byte	.LFE63
 1495 0034 0400     		.2byte	0x4
 1496 0036 F3       		.byte	0xf3
 1497 0037 01       		.uleb128 0x1
 1498 0038 51       		.byte	0x51
 1499 0039 9F       		.byte	0x9f
 1500 003a 00000000 		.4byte	0
 1501 003e 00000000 		.4byte	0
 1502              	.LLST2:
 1503 0042 06000000 		.4byte	.LVL2
 1504 0046 16000000 		.4byte	.LVL3
 1505 004a 0100     		.2byte	0x1
 1506 004c 50       		.byte	0x50
 1507 004d 18000000 		.4byte	.LVL4
 1508 0051 20000000 		.4byte	.LFE64
 1509 0055 0100     		.2byte	0x1
 1510 0057 50       		.byte	0x50
 1511 0058 00000000 		.4byte	0
 1512 005c 00000000 		.4byte	0
 1513              	.LLST3:
 1514 0060 00000000 		.4byte	.LVL5
 1515 0064 0A000000 		.4byte	.LVL6
 1516 0068 0100     		.2byte	0x1
 1517 006a 50       		.byte	0x50
 1518 006b 0A000000 		.4byte	.LVL6
 1519 006f 24010000 		.4byte	.LFE65
 1520 0073 0400     		.2byte	0x4
 1521 0075 F3       		.byte	0xf3
 1522 0076 01       		.uleb128 0x1
 1523 0077 50       		.byte	0x50
 1524 0078 9F       		.byte	0x9f
 1525 0079 00000000 		.4byte	0
 1526 007d 00000000 		.4byte	0
 1527              	.LLST4:
 1528 0081 14000000 		.4byte	.LVL7
 1529 0085 3E000000 		.4byte	.LVL8
 1530 0089 0100     		.2byte	0x1
 1531 008b 50       		.byte	0x50
 1532 008c 46000000 		.4byte	.LVL9
 1533 0090 48000000 		.4byte	.LVL10
 1534 0094 0100     		.2byte	0x1
 1535 0096 50       		.byte	0x50
 1536 0097 52000000 		.4byte	.LVL11
 1537 009b 54000000 		.4byte	.LVL12
 1538 009f 0100     		.2byte	0x1
 1539 00a1 50       		.byte	0x50
ARM GAS  /var/folders/6q/x_mk5n_j3p7_c40r_2k_78980000gn/T//ccbqpbV1.s 			page 28


 1540 00a2 5E000000 		.4byte	.LVL13
 1541 00a6 60000000 		.4byte	.LVL14
 1542 00aa 0100     		.2byte	0x1
 1543 00ac 50       		.byte	0x50
 1544 00ad 66000000 		.4byte	.LVL15
 1545 00b1 68000000 		.4byte	.LVL16
 1546 00b5 0100     		.2byte	0x1
 1547 00b7 50       		.byte	0x50
 1548 00b8 6E000000 		.4byte	.LVL17
 1549 00bc 70000000 		.4byte	.LVL18
 1550 00c0 0100     		.2byte	0x1
 1551 00c2 50       		.byte	0x50
 1552 00c3 76000000 		.4byte	.LVL19
 1553 00c7 80000000 		.4byte	.LVL20
 1554 00cb 0100     		.2byte	0x1
 1555 00cd 50       		.byte	0x50
 1556 00ce 84000000 		.4byte	.LVL21
 1557 00d2 8E000000 		.4byte	.LVL22
 1558 00d6 0100     		.2byte	0x1
 1559 00d8 50       		.byte	0x50
 1560 00d9 92000000 		.4byte	.LVL23
 1561 00dd 94000000 		.4byte	.LVL24
 1562 00e1 0100     		.2byte	0x1
 1563 00e3 50       		.byte	0x50
 1564 00e4 9A000000 		.4byte	.LVL25
 1565 00e8 9C000000 		.4byte	.LVL26
 1566 00ec 0100     		.2byte	0x1
 1567 00ee 50       		.byte	0x50
 1568 00ef A2000000 		.4byte	.LVL27
 1569 00f3 A4000000 		.4byte	.LVL28
 1570 00f7 0100     		.2byte	0x1
 1571 00f9 50       		.byte	0x50
 1572 00fa AA000000 		.4byte	.LVL29
 1573 00fe AC000000 		.4byte	.LVL30
 1574 0102 0100     		.2byte	0x1
 1575 0104 50       		.byte	0x50
 1576 0105 B2000000 		.4byte	.LVL31
 1577 0109 B6000000 		.4byte	.LVL32
 1578 010d 0100     		.2byte	0x1
 1579 010f 50       		.byte	0x50
 1580 0110 BA000000 		.4byte	.LVL33
 1581 0114 BC000000 		.4byte	.LVL34
 1582 0118 0100     		.2byte	0x1
 1583 011a 50       		.byte	0x50
 1584 011b C2000000 		.4byte	.LVL35
 1585 011f C4000000 		.4byte	.LVL36
 1586 0123 0100     		.2byte	0x1
 1587 0125 50       		.byte	0x50
 1588 0126 CA000000 		.4byte	.LVL37
 1589 012a CC000000 		.4byte	.LVL38
 1590 012e 0100     		.2byte	0x1
 1591 0130 50       		.byte	0x50
 1592 0131 D2000000 		.4byte	.LVL39
 1593 0135 D4000000 		.4byte	.LVL40
 1594 0139 0100     		.2byte	0x1
 1595 013b 50       		.byte	0x50
 1596 013c DA000000 		.4byte	.LVL41
ARM GAS  /var/folders/6q/x_mk5n_j3p7_c40r_2k_78980000gn/T//ccbqpbV1.s 			page 29


 1597 0140 DC000000 		.4byte	.LVL42
 1598 0144 0100     		.2byte	0x1
 1599 0146 50       		.byte	0x50
 1600 0147 E2000000 		.4byte	.LVL43
 1601 014b E4000000 		.4byte	.LVL44
 1602 014f 0100     		.2byte	0x1
 1603 0151 50       		.byte	0x50
 1604 0152 EA000000 		.4byte	.LVL45
 1605 0156 EC000000 		.4byte	.LVL46
 1606 015a 0100     		.2byte	0x1
 1607 015c 50       		.byte	0x50
 1608 015d F2000000 		.4byte	.LVL47
 1609 0161 F4000000 		.4byte	.LVL48
 1610 0165 0100     		.2byte	0x1
 1611 0167 50       		.byte	0x50
 1612 0168 FC000000 		.4byte	.LVL49
 1613 016c FE000000 		.4byte	.LVL50
 1614 0170 0100     		.2byte	0x1
 1615 0172 50       		.byte	0x50
 1616 0173 08010000 		.4byte	.LVL51
 1617 0177 0A010000 		.4byte	.LVL52
 1618 017b 0100     		.2byte	0x1
 1619 017d 50       		.byte	0x50
 1620 017e 14010000 		.4byte	.LVL53
 1621 0182 16010000 		.4byte	.LVL54
 1622 0186 0100     		.2byte	0x1
 1623 0188 50       		.byte	0x50
 1624 0189 1C010000 		.4byte	.LVL55
 1625 018d 1E010000 		.4byte	.LVL56
 1626 0191 0100     		.2byte	0x1
 1627 0193 50       		.byte	0x50
 1628 0194 20010000 		.4byte	.LVL57
 1629 0198 22010000 		.4byte	.LVL58
 1630 019c 0100     		.2byte	0x1
 1631 019e 50       		.byte	0x50
 1632 019f 00000000 		.4byte	0
 1633 01a3 00000000 		.4byte	0
 1634              	.LLST5:
 1635 01a7 00000000 		.4byte	.LVL59
 1636 01ab 10000000 		.4byte	.LVL60
 1637 01af 0100     		.2byte	0x1
 1638 01b1 50       		.byte	0x50
 1639 01b2 10000000 		.4byte	.LVL60
 1640 01b6 26000000 		.4byte	.LFE66
 1641 01ba 0400     		.2byte	0x4
 1642 01bc F3       		.byte	0xf3
 1643 01bd 01       		.uleb128 0x1
 1644 01be 50       		.byte	0x50
 1645 01bf 9F       		.byte	0x9f
 1646 01c0 00000000 		.4byte	0
 1647 01c4 00000000 		.4byte	0
 1648              	.LLST6:
 1649 01c8 10000000 		.4byte	.LVL60
 1650 01cc 16000000 		.4byte	.LVL61
 1651 01d0 0600     		.2byte	0x6
 1652 01d2 08       		.byte	0x8
 1653 01d3 C8       		.byte	0xc8
ARM GAS  /var/folders/6q/x_mk5n_j3p7_c40r_2k_78980000gn/T//ccbqpbV1.s 			page 30


 1654 01d4 74       		.byte	0x74
 1655 01d5 00       		.sleb128 0
 1656 01d6 1C       		.byte	0x1c
 1657 01d7 9F       		.byte	0x9f
 1658 01d8 16000000 		.4byte	.LVL61
 1659 01dc 18000000 		.4byte	.LVL62
 1660 01e0 0600     		.2byte	0x6
 1661 01e2 08       		.byte	0x8
 1662 01e3 C9       		.byte	0xc9
 1663 01e4 74       		.byte	0x74
 1664 01e5 00       		.sleb128 0
 1665 01e6 1C       		.byte	0x1c
 1666 01e7 9F       		.byte	0x9f
 1667 01e8 18000000 		.4byte	.LVL62
 1668 01ec 24000000 		.4byte	.LVL65
 1669 01f0 0600     		.2byte	0x6
 1670 01f2 08       		.byte	0x8
 1671 01f3 C8       		.byte	0xc8
 1672 01f4 74       		.byte	0x74
 1673 01f5 00       		.sleb128 0
 1674 01f6 1C       		.byte	0x1c
 1675 01f7 9F       		.byte	0x9f
 1676 01f8 00000000 		.4byte	0
 1677 01fc 00000000 		.4byte	0
 1678              		.section	.debug_aranges,"",%progbits
 1679 0000 34000000 		.4byte	0x34
 1680 0004 0200     		.2byte	0x2
 1681 0006 00000000 		.4byte	.Ldebug_info0
 1682 000a 04       		.byte	0x4
 1683 000b 00       		.byte	0
 1684 000c 0000     		.2byte	0
 1685 000e 0000     		.2byte	0
 1686 0010 00000000 		.4byte	.LFB63
 1687 0014 34000000 		.4byte	.LFE63-.LFB63
 1688 0018 00000000 		.4byte	.LFB64
 1689 001c 20000000 		.4byte	.LFE64-.LFB64
 1690 0020 00000000 		.4byte	.LFB65
 1691 0024 24010000 		.4byte	.LFE65-.LFB65
 1692 0028 00000000 		.4byte	.LFB66
 1693 002c 26000000 		.4byte	.LFE66-.LFB66
 1694 0030 00000000 		.4byte	0
 1695 0034 00000000 		.4byte	0
 1696              		.section	.debug_ranges,"",%progbits
 1697              	.Ldebug_ranges0:
 1698 0000 00000000 		.4byte	.LFB63
 1699 0004 34000000 		.4byte	.LFE63
 1700 0008 00000000 		.4byte	.LFB64
 1701 000c 20000000 		.4byte	.LFE64
 1702 0010 00000000 		.4byte	.LFB65
 1703 0014 24010000 		.4byte	.LFE65
 1704 0018 00000000 		.4byte	.LFB66
 1705 001c 26000000 		.4byte	.LFE66
 1706 0020 00000000 		.4byte	0
 1707 0024 00000000 		.4byte	0
 1708              		.section	.debug_line,"",%progbits
 1709              	.Ldebug_line0:
 1710 0000 25020000 		.section	.debug_str,"MS",%progbits,1
ARM GAS  /var/folders/6q/x_mk5n_j3p7_c40r_2k_78980000gn/T//ccbqpbV1.s 			page 31


 1710      02008101 
 1710      00000201 
 1710      FB0E0D00 
 1710      01010101 
 1711              	.LASF74:
 1712 0000 42746E38 		.ascii	"Btn8DXmtr2\000"
 1712      44586D74 
 1712      723200
 1713              	.LASF61:
 1714 000b 42746E36 		.ascii	"Btn6U\000"
 1714      5500
 1715              	.LASF100:
 1716 0011 6B466C61 		.ascii	"kFlagResetSlave\000"
 1716      67526573 
 1716      6574536C 
 1716      61766500 
 1717              	.LASF72:
 1718 0021 43683358 		.ascii	"Ch3Xmtr2\000"
 1718      6D747232 
 1718      00
 1719              	.LASF34:
 1720 002a 6B566578 		.ascii	"kVexDigitalOutput\000"
 1720      44696769 
 1720      74616C4F 
 1720      75747075 
 1720      7400
 1721              	.LASF12:
 1722 003c 6C6F6E67 		.ascii	"long long unsigned int\000"
 1722      206C6F6E 
 1722      6720756E 
 1722      7369676E 
 1722      65642069 
 1723              	.LASF32:
 1724 0053 6B566578 		.ascii	"kVexDigital_Num\000"
 1724      44696769 
 1724      74616C5F 
 1724      4E756D00 
 1725              	.LASF106:
 1726 0063 76657843 		.ascii	"vexControllerCompetitonState\000"
 1726      6F6E7472 
 1726      6F6C6C65 
 1726      72436F6D 
 1726      70657469 
 1727              	.LASF120:
 1728 0080 49544D5F 		.ascii	"ITM_RxBuffer\000"
 1728      52784275 
 1728      66666572 
 1728      00
 1729              	.LASF85:
 1730 008d 42746E36 		.ascii	"Btn6UXmtr2\000"
 1730      55586D74 
 1730      723200
 1731              	.LASF13:
 1732 0098 696E7431 		.ascii	"int16_t\000"
 1732      365F7400 
 1733              	.LASF1:
 1734 00a0 6C6F6E67 		.ascii	"long long int\000"
ARM GAS  /var/folders/6q/x_mk5n_j3p7_c40r_2k_78980000gn/T//ccbqpbV1.s 			page 32


 1734      206C6F6E 
 1734      6720696E 
 1734      7400
 1735              	.LASF3:
 1736 00ae 7369676E 		.ascii	"signed char\000"
 1736      65642063 
 1736      68617200 
 1737              	.LASF101:
 1738 00ba 6B466C61 		.ascii	"kFlagGameController\000"
 1738      6747616D 
 1738      65436F6E 
 1738      74726F6C 
 1738      6C657200 
 1739              	.LASF73:
 1740 00ce 43683458 		.ascii	"Ch4Xmtr2\000"
 1740      6D747232 
 1740      00
 1741              	.LASF112:
 1742 00d7 76657853 		.ascii	"vexSpiGetJoystickDataPtr\000"
 1742      70694765 
 1742      744A6F79 
 1742      73746963 
 1742      6B446174 
 1743              	.LASF105:
 1744 00f0 76657843 		.ascii	"vexControllerCompetitionStateSet\000"
 1744      6F6E7472 
 1744      6F6C6C65 
 1744      72436F6D 
 1744      70657469 
 1745              	.LASF10:
 1746 0111 6C6F6E67 		.ascii	"long int\000"
 1746      20696E74 
 1746      00
 1747              	.LASF77:
 1748 011a 42746E38 		.ascii	"Btn8RXmtr2\000"
 1748      52586D74 
 1748      723200
 1749              	.LASF14:
 1750 0125 75696E74 		.ascii	"uint16_t\000"
 1750      31365F74 
 1750      00
 1751              	.LASF49:
 1752 012e 6A736461 		.ascii	"jsdata\000"
 1752      746100
 1753              	.LASF69:
 1754 0135 42746E41 		.ascii	"BtnAny\000"
 1754      6E7900
 1755              	.LASF104:
 1756 013c 6D61736B 		.ascii	"mask\000"
 1756      00
 1757              	.LASF99:
 1758 0141 6B466C61 		.ascii	"kFlagCompetitionSwitch\000"
 1758      67436F6D 
 1758      70657469 
 1758      74696F6E 
 1758      53776974 
 1759              	.LASF0:
ARM GAS  /var/folders/6q/x_mk5n_j3p7_c40r_2k_78980000gn/T//ccbqpbV1.s 			page 33


 1760 0158 756E7369 		.ascii	"unsigned int\000"
 1760      676E6564 
 1760      20696E74 
 1760      00
 1761              	.LASF83:
 1762 0165 42746E35 		.ascii	"Btn5UXmtr2\000"
 1762      55586D74 
 1762      723200
 1763              	.LASF111:
 1764 0170 76657853 		.ascii	"vexSpiGetControl\000"
 1764      70694765 
 1764      74436F6E 
 1764      74726F6C 
 1764      00
 1765              	.LASF11:
 1766 0181 6C6F6E67 		.ascii	"long unsigned int\000"
 1766      20756E73 
 1766      69676E65 
 1766      6420696E 
 1766      7400
 1767              	.LASF46:
 1768 0193 6163635F 		.ascii	"acc_x\000"
 1768      7800
 1769              	.LASF45:
 1770 0199 6163635F 		.ascii	"acc_y\000"
 1770      7900
 1771              	.LASF47:
 1772 019f 6163635F 		.ascii	"acc_z\000"
 1772      7A00
 1773              	.LASF109:
 1774 01a5 74696D65 		.ascii	"timeout\000"
 1774      6F757400 
 1775              	.LASF79:
 1776 01ad 42746E37 		.ascii	"Btn7LXmtr2\000"
 1776      4C586D74 
 1776      723200
 1777              	.LASF80:
 1778 01b8 42746E37 		.ascii	"Btn7UXmtr2\000"
 1778      55586D74 
 1778      723200
 1779              	.LASF58:
 1780 01c3 42746E35 		.ascii	"Btn5D\000"
 1780      4400
 1781              	.LASF114:
 1782 01c9 474E5520 		.ascii	"GNU C11 5.4.1 20160919 (release) [ARM/embedded-5-br"
 1782      43313120 
 1782      352E342E 
 1782      31203230 
 1782      31363039 
 1783 01fc 616E6368 		.ascii	"anch revision 240496] -mcpu=cortex-m3 -mno-thumb-in"
 1783      20726576 
 1783      6973696F 
 1783      6E203234 
 1783      30343936 
 1784 022f 74657277 		.ascii	"terwork -mthumb -ggdb -O2 -fomit-frame-pointer -fal"
 1784      6F726B20 
 1784      2D6D7468 
ARM GAS  /var/folders/6q/x_mk5n_j3p7_c40r_2k_78980000gn/T//ccbqpbV1.s 			page 34


 1784      756D6220 
 1784      2D676764 
 1785 0262 69676E2D 		.ascii	"ign-functions=16 -ffunction-sections -fdata-section"
 1785      66756E63 
 1785      74696F6E 
 1785      733D3136 
 1785      202D6666 
 1786 0295 73202D66 		.ascii	"s -fno-common\000"
 1786      6E6F2D63 
 1786      6F6D6D6F 
 1786      6E00
 1787              	.LASF8:
 1788 02a3 73686F72 		.ascii	"short unsigned int\000"
 1788      7420756E 
 1788      7369676E 
 1788      65642069 
 1788      6E7400
 1789              	.LASF59:
 1790 02b6 42746E35 		.ascii	"Btn5U\000"
 1790      5500
 1791              	.LASF48:
 1792 02bc 62746E73 		.ascii	"btns\000"
 1792      00
 1793              	.LASF20:
 1794 02c1 6B566578 		.ascii	"kVexDigital_1\000"
 1794      44696769 
 1794      74616C5F 
 1794      3100
 1795              	.LASF21:
 1796 02cf 6B566578 		.ascii	"kVexDigital_2\000"
 1796      44696769 
 1796      74616C5F 
 1796      3200
 1797              	.LASF22:
 1798 02dd 6B566578 		.ascii	"kVexDigital_3\000"
 1798      44696769 
 1798      74616C5F 
 1798      3300
 1799              	.LASF23:
 1800 02eb 6B566578 		.ascii	"kVexDigital_4\000"
 1800      44696769 
 1800      74616C5F 
 1800      3400
 1801              	.LASF24:
 1802 02f9 6B566578 		.ascii	"kVexDigital_5\000"
 1802      44696769 
 1802      74616C5F 
 1802      3500
 1803              	.LASF25:
 1804 0307 6B566578 		.ascii	"kVexDigital_6\000"
 1804      44696769 
 1804      74616C5F 
 1804      3600
 1805              	.LASF26:
 1806 0315 6B566578 		.ascii	"kVexDigital_7\000"
 1806      44696769 
 1806      74616C5F 
ARM GAS  /var/folders/6q/x_mk5n_j3p7_c40r_2k_78980000gn/T//ccbqpbV1.s 			page 35


 1806      3700
 1807              	.LASF27:
 1808 0323 6B566578 		.ascii	"kVexDigital_8\000"
 1808      44696769 
 1808      74616C5F 
 1808      3800
 1809              	.LASF28:
 1810 0331 6B566578 		.ascii	"kVexDigital_9\000"
 1810      44696769 
 1810      74616C5F 
 1810      3900
 1811              	.LASF5:
 1812 033f 73686F72 		.ascii	"short int\000"
 1812      7420696E 
 1812      7400
 1813              	.LASF82:
 1814 0349 42746E35 		.ascii	"Btn5DXmtr2\000"
 1814      44586D74 
 1814      723200
 1815              	.LASF78:
 1816 0354 42746E37 		.ascii	"Btn7DXmtr2\000"
 1816      44586D74 
 1816      723200
 1817              	.LASF50:
 1818 035f 42746E38 		.ascii	"Btn8D\000"
 1818      4400
 1819              	.LASF17:
 1820 0365 73697A65 		.ascii	"sizetype\000"
 1820      74797065 
 1820      00
 1821              	.LASF60:
 1822 036e 42746E36 		.ascii	"Btn6D\000"
 1822      4400
 1823              	.LASF70:
 1824 0374 43683158 		.ascii	"Ch1Xmtr2\000"
 1824      6D747232 
 1824      00
 1825              	.LASF96:
 1826 037d 6B466C61 		.ascii	"kFlagXmit1\000"
 1826      67586D69 
 1826      743100
 1827              	.LASF97:
 1828 0388 6B466C61 		.ascii	"kFlagXmit2\000"
 1828      67586D69 
 1828      743200
 1829              	.LASF107:
 1830 0393 76657843 		.ascii	"vexControllerGet\000"
 1830      6F6E7472 
 1830      6F6C6C65 
 1830      72476574 
 1830      00
 1831              	.LASF19:
 1832 03a4 6B566578 		.ascii	"kVexDigital_None\000"
 1832      44696769 
 1832      74616C5F 
 1832      4E6F6E65 
 1832      00
ARM GAS  /var/folders/6q/x_mk5n_j3p7_c40r_2k_78980000gn/T//ccbqpbV1.s 			page 36


 1833              	.LASF35:
 1834 03b5 6B496D65 		.ascii	"kImeChannel_1\000"
 1834      4368616E 
 1834      6E656C5F 
 1834      3100
 1835              	.LASF117:
 1836 03c3 5F6A7364 		.ascii	"_jsdata\000"
 1836      61746100 
 1837              	.LASF54:
 1838 03cb 42746E37 		.ascii	"Btn7D\000"
 1838      4400
 1839              	.LASF16:
 1840 03d1 5F426F6F 		.ascii	"_Bool\000"
 1840      6C00
 1841              	.LASF15:
 1842 03d7 696E7433 		.ascii	"int32_t\000"
 1842      325F7400 
 1843              	.LASF4:
 1844 03df 756E7369 		.ascii	"unsigned char\000"
 1844      676E6564 
 1844      20636861 
 1844      7200
 1845              	.LASF115:
 1846 03ed 2E2E2F63 		.ascii	"../convex-vexilla/cortex/fw/vexctl.c\000"
 1846      6F6E7665 
 1846      782D7665 
 1846      78696C6C 
 1846      612F636F 
 1847              	.LASF110:
 1848 0412 7665784C 		.ascii	"vexLocalCompState\000"
 1848      6F63616C 
 1848      436F6D70 
 1848      53746174 
 1848      6500
 1849              	.LASF55:
 1850 0424 42746E37 		.ascii	"Btn7L\000"
 1850      4C00
 1851              	.LASF89:
 1852 042a 42746E35 		.ascii	"Btn5Xmtr2\000"
 1852      586D7472 
 1852      3200
 1853              	.LASF44:
 1854 0434 6B496D65 		.ascii	"kImeChannelNone\000"
 1854      4368616E 
 1854      6E656C4E 
 1854      6F6E6500 
 1855              	.LASF57:
 1856 0444 42746E37 		.ascii	"Btn7R\000"
 1856      5200
 1857              	.LASF56:
 1858 044a 42746E37 		.ascii	"Btn7U\000"
 1858      5500
 1859              	.LASF76:
 1860 0450 42746E38 		.ascii	"Btn8UXmtr2\000"
 1860      55586D74 
 1860      723200
 1861              	.LASF43:
ARM GAS  /var/folders/6q/x_mk5n_j3p7_c40r_2k_78980000gn/T//ccbqpbV1.s 			page 37


 1862 045b 6B496D65 		.ascii	"kImeTotal\000"
 1862      546F7461 
 1862      6C00
 1863              	.LASF86:
 1864 0465 4163636C 		.ascii	"AcclXXmtr2\000"
 1864      58586D74 
 1864      723200
 1865              	.LASF118:
 1866 0470 616E616C 		.ascii	"analog\000"
 1866      6F6700
 1867              	.LASF113:
 1868 0477 76657853 		.ascii	"vexSleep\000"
 1868      6C656570 
 1868      00
 1869              	.LASF119:
 1870 0480 76657843 		.ascii	"vexControllerReleaseWait\000"
 1870      6F6E7472 
 1870      6F6C6C65 
 1870      7252656C 
 1870      65617365 
 1871              	.LASF2:
 1872 0499 6C6F6E67 		.ascii	"long double\000"
 1872      20646F75 
 1872      626C6500 
 1873              	.LASF18:
 1874 04a5 63686172 		.ascii	"char\000"
 1874      00
 1875              	.LASF36:
 1876 04aa 6B496D65 		.ascii	"kImeChannel_2\000"
 1876      4368616E 
 1876      6E656C5F 
 1876      3200
 1877              	.LASF37:
 1878 04b8 6B496D65 		.ascii	"kImeChannel_3\000"
 1878      4368616E 
 1878      6E656C5F 
 1878      3300
 1879              	.LASF38:
 1880 04c6 6B496D65 		.ascii	"kImeChannel_4\000"
 1880      4368616E 
 1880      6E656C5F 
 1880      3400
 1881              	.LASF39:
 1882 04d4 6B496D65 		.ascii	"kImeChannel_5\000"
 1882      4368616E 
 1882      6E656C5F 
 1882      3500
 1883              	.LASF40:
 1884 04e2 6B496D65 		.ascii	"kImeChannel_6\000"
 1884      4368616E 
 1884      6E656C5F 
 1884      3600
 1885              	.LASF41:
 1886 04f0 6B496D65 		.ascii	"kImeChannel_7\000"
 1886      4368616E 
 1886      6E656C5F 
 1886      3700
ARM GAS  /var/folders/6q/x_mk5n_j3p7_c40r_2k_78980000gn/T//ccbqpbV1.s 			page 38


 1887              	.LASF42:
 1888 04fe 6B496D65 		.ascii	"kImeChannel_8\000"
 1888      4368616E 
 1888      6E656C5F 
 1888      3800
 1889              	.LASF7:
 1890 050c 5F5F7569 		.ascii	"__uint16_t\000"
 1890      6E743136 
 1890      5F7400
 1891              	.LASF29:
 1892 0517 6B566578 		.ascii	"kVexDigital_10\000"
 1892      44696769 
 1892      74616C5F 
 1892      313000
 1893              	.LASF30:
 1894 0526 6B566578 		.ascii	"kVexDigital_11\000"
 1894      44696769 
 1894      74616C5F 
 1894      313100
 1895              	.LASF31:
 1896 0535 6B566578 		.ascii	"kVexDigital_12\000"
 1896      44696769 
 1896      74616C5F 
 1896      313200
 1897              	.LASF90:
 1898 0544 42746E36 		.ascii	"Btn6Xmtr2\000"
 1898      586D7472 
 1898      3200
 1899              	.LASF51:
 1900 054e 42746E38 		.ascii	"Btn8L\000"
 1900      4C00
 1901              	.LASF9:
 1902 0554 5F5F696E 		.ascii	"__int32_t\000"
 1902      7433325F 
 1902      7400
 1903              	.LASF53:
 1904 055e 42746E38 		.ascii	"Btn8R\000"
 1904      5200
 1905              	.LASF52:
 1906 0564 42746E38 		.ascii	"Btn8U\000"
 1906      5500
 1907              	.LASF65:
 1908 056a 42746E35 		.ascii	"Btn5\000"
 1908      00
 1909              	.LASF66:
 1910 056f 42746E36 		.ascii	"Btn6\000"
 1910      00
 1911              	.LASF67:
 1912 0574 42746E37 		.ascii	"Btn7\000"
 1912      00
 1913              	.LASF68:
 1914 0579 42746E38 		.ascii	"Btn8\000"
 1914      00
 1915              	.LASF102:
 1916 057e 6B466C61 		.ascii	"kFlagAutonomousMode\000"
 1916      67417574 
 1916      6F6E6F6D 
ARM GAS  /var/folders/6q/x_mk5n_j3p7_c40r_2k_78980000gn/T//ccbqpbV1.s 			page 39


 1916      6F75734D 
 1916      6F646500 
 1917              	.LASF87:
 1918 0592 4163636C 		.ascii	"AcclYXmtr2\000"
 1918      59586D74 
 1918      723200
 1919              	.LASF92:
 1920 059d 42746E38 		.ascii	"Btn8mXtr2\000"
 1920      6D587472 
 1920      3200
 1921              	.LASF94:
 1922 05a7 7443746C 		.ascii	"tCtlIndex\000"
 1922      496E6465 
 1922      7800
 1923              	.LASF95:
 1924 05b1 6B466C61 		.ascii	"kFlagNoXmiters\000"
 1924      674E6F58 
 1924      6D697465 
 1924      727300
 1925              	.LASF98:
 1926 05c0 6B466C61 		.ascii	"kFlagBit2\000"
 1926      67426974 
 1926      3200
 1927              	.LASF116:
 1928 05ca 2F557365 		.ascii	"/Users/Luca/src/vexilla/src/teamA\000"
 1928      72732F4C 
 1928      7563612F 
 1928      7372632F 
 1928      76657869 
 1929              	.LASF75:
 1930 05ec 42746E38 		.ascii	"Btn8LXmtr2\000"
 1930      4C586D74 
 1930      723200
 1931              	.LASF62:
 1932 05f7 4163636C 		.ascii	"AcclX\000"
 1932      5800
 1933              	.LASF63:
 1934 05fd 4163636C 		.ascii	"AcclY\000"
 1934      5900
 1935              	.LASF64:
 1936 0603 4163636C 		.ascii	"AcclZ\000"
 1936      5A00
 1937              	.LASF93:
 1938 0609 42746E41 		.ascii	"BtnAnyXmtr2\000"
 1938      6E79586D 
 1938      74723200 
 1939              	.LASF91:
 1940 0615 42746E37 		.ascii	"Btn7Xmtr2\000"
 1940      586D7472 
 1940      3200
 1941              	.LASF6:
 1942 061f 5F5F696E 		.ascii	"__int16_t\000"
 1942      7431365F 
 1942      7400
 1943              	.LASF108:
 1944 0629 696E6465 		.ascii	"index\000"
 1944      7800
ARM GAS  /var/folders/6q/x_mk5n_j3p7_c40r_2k_78980000gn/T//ccbqpbV1.s 			page 40


 1945              	.LASF71:
 1946 062f 43683258 		.ascii	"Ch2Xmtr2\000"
 1946      6D747232 
 1946      00
 1947              	.LASF103:
 1948 0638 6B466C61 		.ascii	"kFlagDisabled\000"
 1948      67446973 
 1948      61626C65 
 1948      6400
 1949              	.LASF88:
 1950 0646 4163636C 		.ascii	"AcclZXmtr2\000"
 1950      5A586D74 
 1950      723200
 1951              	.LASF81:
 1952 0651 42746E37 		.ascii	"Btn7RXmtr2\000"
 1952      52586D74 
 1952      723200
 1953              	.LASF84:
 1954 065c 42746E36 		.ascii	"Btn6DXmtr2\000"
 1954      44586D74 
 1954      723200
 1955              	.LASF33:
 1956 0667 6B566578 		.ascii	"kVexDigitalInput\000"
 1956      44696769 
 1956      74616C49 
 1956      6E707574 
 1956      00
 1957              		.ident	"GCC: (GNU Tools for ARM Embedded Processors) 5.4.1 20160919 (release) [ARM/embedded-5-bran
ARM GAS  /var/folders/6q/x_mk5n_j3p7_c40r_2k_78980000gn/T//ccbqpbV1.s 			page 41


DEFINED SYMBOLS
                            *ABS*:0000000000000000 vexctl.c
/var/folders/6q/x_mk5n_j3p7_c40r_2k_78980000gn/T//ccbqpbV1.s:20     .text.vexControllerCompetitionStateSet:0000000000000000 $t
/var/folders/6q/x_mk5n_j3p7_c40r_2k_78980000gn/T//ccbqpbV1.s:26     .text.vexControllerCompetitionStateSet:0000000000000000 vexControllerCompetitionStateSet
/var/folders/6q/x_mk5n_j3p7_c40r_2k_78980000gn/T//ccbqpbV1.s:72     .text.vexControllerCompetitionStateSet:0000000000000030 $d
/var/folders/6q/x_mk5n_j3p7_c40r_2k_78980000gn/T//ccbqpbV1.s:77     .text.vexControllerCompetitonState:0000000000000000 $t
/var/folders/6q/x_mk5n_j3p7_c40r_2k_78980000gn/T//ccbqpbV1.s:83     .text.vexControllerCompetitonState:0000000000000000 vexControllerCompetitonState
/var/folders/6q/x_mk5n_j3p7_c40r_2k_78980000gn/T//ccbqpbV1.s:118    .text.vexControllerCompetitonState:000000000000001c $d
/var/folders/6q/x_mk5n_j3p7_c40r_2k_78980000gn/T//ccbqpbV1.s:123    .text.vexControllerGet:0000000000000000 $t
/var/folders/6q/x_mk5n_j3p7_c40r_2k_78980000gn/T//ccbqpbV1.s:129    .text.vexControllerGet:0000000000000000 vexControllerGet
/var/folders/6q/x_mk5n_j3p7_c40r_2k_78980000gn/T//ccbqpbV1.s:160    .text.vexControllerGet:000000000000001e $d
/var/folders/6q/x_mk5n_j3p7_c40r_2k_78980000gn/T//ccbqpbV1.s:184    .text.vexControllerGet:0000000000000036 $t
/var/folders/6q/x_mk5n_j3p7_c40r_2k_78980000gn/T//ccbqpbV1.s:400    .text.vexControllerReleaseWait:0000000000000000 $t
/var/folders/6q/x_mk5n_j3p7_c40r_2k_78980000gn/T//ccbqpbV1.s:406    .text.vexControllerReleaseWait:0000000000000000 vexControllerReleaseWait
/var/folders/6q/x_mk5n_j3p7_c40r_2k_78980000gn/T//ccbqpbV1.s:451    .bss.vexLocalCompState:0000000000000000 $d
/var/folders/6q/x_mk5n_j3p7_c40r_2k_78980000gn/T//ccbqpbV1.s:455    .bss.vexLocalCompState:0000000000000000 vexLocalCompState
                     .debug_frame:0000000000000010 $d

UNDEFINED SYMBOLS
vexSpiGetControl
vexSpiGetJoystickDataPtr
vexSleep
