ARM GAS  /var/folders/6q/x_mk5n_j3p7_c40r_2k_78980000gn/T//ccQ0DOJS.s 			page 1


   1              		.syntax unified
   2              		.cpu cortex-m3
   3              		.fpu softvfp
   4              		.eabi_attribute 20, 1
   5              		.eabi_attribute 21, 1
   6              		.eabi_attribute 23, 3
   7              		.eabi_attribute 24, 1
   8              		.eabi_attribute 25, 1
   9              		.eabi_attribute 26, 1
  10              		.eabi_attribute 30, 2
  11              		.eabi_attribute 34, 1
  12              		.eabi_attribute 18, 4
  13              		.thumb
  14              		.syntax unified
  15              		.file	"vexconfig.c"
  16              		.text
  17              	.Ltext0:
  18              		.cfi_sections	.debug_frame
  19              		.section	.text.vexDigitalConfigure,"ax",%progbits
  20              		.align	2
  21              		.p2align 4,,15
  22              		.global	vexDigitalConfigure
  23              		.thumb
  24              		.thumb_func
  25              		.type	vexDigitalConfigure, %function
  26              	vexDigitalConfigure:
  27              	.LFB63:
  28              		.file 1 "../convex-vexilla/cortex/fw/vexconfig.c"
  29              		.loc 1 83 0
  30              		.cfi_startproc
  31              		@ args = 0, pretend = 0, frame = 0
  32              		@ frame_needed = 0, uses_anonymous_args = 0
  33              	.LVL0:
  34 0000 2DE9F047 		push	{r4, r5, r6, r7, r8, r9, r10, lr}
  35              		.cfi_def_cfa_offset 32
  36              		.cfi_offset 4, -32
  37              		.cfi_offset 5, -28
  38              		.cfi_offset 6, -24
  39              		.cfi_offset 7, -20
  40              		.cfi_offset 8, -16
  41              		.cfi_offset 9, -12
  42              		.cfi_offset 10, -8
  43              		.cfi_offset 14, -4
  44              		.loc 1 89 0
  45 0004 0028     		cmp	r0, #0
  46 0006 00F08F80 		beq	.L16
  47              		.loc 1 98 0
  48 000a 0029     		cmp	r1, #0
  49 000c 0E46     		mov	r6, r1
  50              	.LVL1:
  51 000e 40F38780 		ble	.L1
  52 0012 474F     		ldr	r7, .L37
  53              	.LVL2:
  54              	.L2:
  55 0014 00F10608 		add	r8, r0, #6
  56              		.loc 1 90 0
  57 0018 4546     		mov	r5, r8
ARM GAS  /var/folders/6q/x_mk5n_j3p7_c40r_2k_78980000gn/T//ccQ0DOJS.s 			page 2


  58 001a 4FF00009 		mov	r9, #0
  59 001e 1CE0     		b	.L12
  60              	.LVL3:
  61              	.L3:
  62              		.loc 1 104 0
  63 0020 0129     		cmp	r1, #1
  64 0022 26D0     		beq	.L31
  65              	.L4:
  66              		.loc 1 108 0
  67 0024 0A29     		cmp	r1, #10
  68 0026 2CD0     		beq	.L32
  69              	.L26:
  70              		.loc 1 119 0
  71 0028 0C29     		cmp	r1, #12
  72 002a 4ED0     		beq	.L15
  73              	.L8:
  74              		.loc 1 130 0
  75 002c 0E29     		cmp	r1, #14
  76 002e 70D0     		beq	.L33
  77              	.L11:
  78              		.loc 1 138 0 discriminator 2
  79 0030 15F9063C 		ldrsb	r3, [r5, #-6]
  80 0034 09F10109 		add	r9, r9, #1
  81              	.LVL4:
  82 0038 15F8050C 		ldrb	r0, [r5, #-5]	@ zero_extendqisi2
  83              		.loc 1 140 0 discriminator 2
  84 003c 35F8022C 		ldrh	r2, [r5, #-2]
  85              		.loc 1 138 0 discriminator 2
  86 0040 03EB4303 		add	r3, r3, r3, lsl #1
  87              		.loc 1 98 0 discriminator 2
  88 0044 4FFA89F9 		sxtb	r9, r9
  89              		.loc 1 138 0 discriminator 2
  90 0048 07EB4303 		add	r3, r7, r3, lsl #1
  91              		.loc 1 98 0 discriminator 2
  92 004c 4E45     		cmp	r6, r9
  93              		.loc 1 138 0 discriminator 2
  94 004e 5870     		strb	r0, [r3, #1]
  95              		.loc 1 139 0 discriminator 2
  96 0050 9970     		strb	r1, [r3, #2]
  97              		.loc 1 140 0 discriminator 2
  98 0052 9A80     		strh	r2, [r3, #4]	@ movhi
  99 0054 05F10605 		add	r5, r5, #6
 100              	.LVL5:
 101              		.loc 1 98 0 discriminator 2
 102 0058 64DD     		ble	.L34
 103              	.LVL6:
 104              	.L12:
 105              		.loc 1 101 0
 106 005a 15F8041C 		ldrb	r1, [r5, #-4]	@ zero_extendqisi2
 107 005e 0029     		cmp	r1, #0
 108 0060 DED1     		bne	.L3
 109              		.loc 1 102 0
 110 0062 15F9060C 		ldrsb	r0, [r5, #-6]
 111 0066 FFF7FEFF 		bl	vexDigitalModeSet
 112              	.LVL7:
 113 006a 15F8041C 		ldrb	r1, [r5, #-4]	@ zero_extendqisi2
 114              		.loc 1 104 0
ARM GAS  /var/folders/6q/x_mk5n_j3p7_c40r_2k_78980000gn/T//ccQ0DOJS.s 			page 3


 115 006e 0129     		cmp	r1, #1
 116 0070 D8D1     		bne	.L4
 117              	.L31:
 118              		.loc 1 105 0
 119 0072 15F9060C 		ldrsb	r0, [r5, #-6]
 120 0076 FFF7FEFF 		bl	vexDigitalModeSet
 121              	.LVL8:
 122 007a 15F8041C 		ldrb	r1, [r5, #-4]	@ zero_extendqisi2
 123              		.loc 1 108 0
 124 007e 0A29     		cmp	r1, #10
 125 0080 D2D1     		bne	.L26
 126              	.L32:
 127 0082 C246     		mov	r10, r8
 128 0084 0024     		movs	r4, #0
 129 0086 05E0     		b	.L6
 130              	.LVL9:
 131              	.L5:
 132 0088 0134     		adds	r4, r4, #1
 133              	.LVL10:
 134              		.loc 1 111 0 discriminator 2
 135 008a 64B2     		sxtb	r4, r4
 136 008c A642     		cmp	r6, r4
 137 008e 0AF1060A 		add	r10, r10, #6
 138              	.LVL11:
 139 0092 16DD     		ble	.L35
 140              	.LVL12:
 141              	.L6:
 142              		.loc 1 113 0
 143 0094 1AF8043C 		ldrb	r3, [r10, #-4]	@ zero_extendqisi2
 144 0098 0B2B     		cmp	r3, #11
 145 009a F5D1     		bne	.L5
 146              		.loc 1 113 0 is_stmt 0 discriminator 1
 147 009c 35F8023C 		ldrh	r3, [r5, #-2]
 148 00a0 3AF8020C 		ldrh	r0, [r10, #-2]
 149 00a4 9842     		cmp	r0, r3
 150 00a6 EFD1     		bne	.L5
 151 00a8 0134     		adds	r4, r4, #1
 152              	.LVL13:
 153              		.loc 1 114 0 is_stmt 1
 154 00aa 1AF9062C 		ldrsb	r2, [r10, #-6]
 155 00ae C0B2     		uxtb	r0, r0
 156 00b0 15F9061C 		ldrsb	r1, [r5, #-6]
 157              		.loc 1 111 0
 158 00b4 64B2     		sxtb	r4, r4
 159              		.loc 1 114 0
 160 00b6 FFF7FEFF 		bl	vexEncoderAdd
 161              	.LVL14:
 162              		.loc 1 111 0
 163 00ba A642     		cmp	r6, r4
 164 00bc 0AF1060A 		add	r10, r10, #6
 165              	.LVL15:
 166 00c0 E8DC     		bgt	.L6
 167              	.LVL16:
 168              	.L35:
 169              		.loc 1 119 0
 170 00c2 15F8041C 		ldrb	r1, [r5, #-4]	@ zero_extendqisi2
 171 00c6 0C29     		cmp	r1, #12
ARM GAS  /var/folders/6q/x_mk5n_j3p7_c40r_2k_78980000gn/T//ccQ0DOJS.s 			page 4


 172 00c8 B0D1     		bne	.L8
 173              	.L15:
 174              	.LVL17:
 175              		.loc 1 108 0
 176 00ca C246     		mov	r10, r8
 177 00cc 0024     		movs	r4, #0
 178 00ce 05E0     		b	.L10
 179              	.LVL18:
 180              	.L9:
 181 00d0 0134     		adds	r4, r4, #1
 182              	.LVL19:
 183              		.loc 1 122 0 discriminator 2
 184 00d2 64B2     		sxtb	r4, r4
 185 00d4 A642     		cmp	r6, r4
 186 00d6 0AF1060A 		add	r10, r10, #6
 187              	.LVL20:
 188 00da 16DD     		ble	.L36
 189              	.LVL21:
 190              	.L10:
 191              		.loc 1 124 0
 192 00dc 1AF8043C 		ldrb	r3, [r10, #-4]	@ zero_extendqisi2
 193 00e0 0D2B     		cmp	r3, #13
 194 00e2 F5D1     		bne	.L9
 195              		.loc 1 124 0 is_stmt 0 discriminator 1
 196 00e4 35F8023C 		ldrh	r3, [r5, #-2]
 197 00e8 3AF8020C 		ldrh	r0, [r10, #-2]
 198 00ec 9842     		cmp	r0, r3
 199 00ee EFD1     		bne	.L9
 200 00f0 0134     		adds	r4, r4, #1
 201              	.LVL22:
 202              		.loc 1 125 0 is_stmt 1
 203 00f2 1AF9062C 		ldrsb	r2, [r10, #-6]
 204 00f6 C0B2     		uxtb	r0, r0
 205 00f8 15F9061C 		ldrsb	r1, [r5, #-6]
 206              		.loc 1 122 0
 207 00fc 64B2     		sxtb	r4, r4
 208              		.loc 1 125 0
 209 00fe FFF7FEFF 		bl	vexSonarAdd
 210              	.LVL23:
 211              		.loc 1 122 0
 212 0102 A642     		cmp	r6, r4
 213 0104 0AF1060A 		add	r10, r10, #6
 214              	.LVL24:
 215 0108 E8DC     		bgt	.L10
 216              	.LVL25:
 217              	.L36:
 218 010a 15F8041C 		ldrb	r1, [r5, #-4]	@ zero_extendqisi2
 219              		.loc 1 130 0
 220 010e 0E29     		cmp	r1, #14
 221 0110 8ED1     		bne	.L11
 222              	.L33:
 223              		.loc 1 132 0
 224 0112 15F9060C 		ldrsb	r0, [r5, #-6]
 225 0116 FFF7FEFF 		bl	vexDigitalIntrSet
 226              	.LVL26:
 227 011a 15F8041C 		ldrb	r1, [r5, #-4]	@ zero_extendqisi2
 228 011e 87E7     		b	.L11
ARM GAS  /var/folders/6q/x_mk5n_j3p7_c40r_2k_78980000gn/T//ccQ0DOJS.s 			page 5


 229              	.LVL27:
 230              	.L1:
 231 0120 BDE8F087 		pop	{r4, r5, r6, r7, r8, r9, r10, pc}
 232              	.LVL28:
 233              	.L34:
 234 0124 BDE8F087 		pop	{r4, r5, r6, r7, r8, r9, r10, pc}
 235              	.LVL29:
 236              	.L16:
 237              		.loc 1 90 0
 238 0128 014F     		ldr	r7, .L37
 239              		.loc 1 91 0
 240 012a 0C26     		movs	r6, #12
 241              		.loc 1 90 0
 242 012c 3846     		mov	r0, r7
 243              	.LVL30:
 244 012e 71E7     		b	.L2
 245              	.L38:
 246              		.align	2
 247              	.L37:
 248 0130 00000000 		.word	.LANCHOR0
 249              		.cfi_endproc
 250              	.LFE63:
 251              		.size	vexDigitalConfigure, .-vexDigitalConfigure
 252              		.section	.text.vexDigitalTypeGet,"ax",%progbits
 253              		.align	2
 254              		.p2align 4,,15
 255              		.global	vexDigitalTypeGet
 256              		.thumb
 257              		.thumb_func
 258              		.type	vexDigitalTypeGet, %function
 259              	vexDigitalTypeGet:
 260              	.LFB64:
 261              		.loc 1 152 0
 262              		.cfi_startproc
 263              		@ args = 0, pretend = 0, frame = 0
 264              		@ frame_needed = 0, uses_anonymous_args = 0
 265              		@ link register save eliminated.
 266              	.LVL31:
 267              		.loc 1 153 0
 268 0000 0B28     		cmp	r0, #11
 269 0002 06DC     		bgt	.L41
 270              		.loc 1 156 0
 271 0004 044B     		ldr	r3, .L42
 272 0006 00EB4000 		add	r0, r0, r0, lsl #1
 273              	.LVL32:
 274 000a 03EB4000 		add	r0, r3, r0, lsl #1
 275 000e 4078     		ldrb	r0, [r0, #1]	@ zero_extendqisi2
 276 0010 7047     		bx	lr
 277              	.LVL33:
 278              	.L41:
 279              		.loc 1 154 0
 280 0012 0020     		movs	r0, #0
 281              	.LVL34:
 282              		.loc 1 157 0
 283 0014 7047     		bx	lr
 284              	.L43:
 285 0016 00BF     		.align	2
ARM GAS  /var/folders/6q/x_mk5n_j3p7_c40r_2k_78980000gn/T//ccQ0DOJS.s 			page 6


 286              	.L42:
 287 0018 00000000 		.word	.LANCHOR0
 288              		.cfi_endproc
 289              	.LFE64:
 290              		.size	vexDigitalTypeGet, .-vexDigitalTypeGet
 291              		.section	.text.vexDigitalTypeGetName,"ax",%progbits
 292              		.align	2
 293              		.p2align 4,,15
 294              		.global	vexDigitalTypeGetName
 295              		.thumb
 296              		.thumb_func
 297              		.type	vexDigitalTypeGetName, %function
 298              	vexDigitalTypeGetName:
 299              	.LFB65:
 300              		.loc 1 167 0
 301              		.cfi_startproc
 302              		@ args = 0, pretend = 0, frame = 0
 303              		@ frame_needed = 0, uses_anonymous_args = 0
 304              	.LVL35:
 305              		.loc 1 170 0
 306 0000 0B28     		cmp	r0, #11
 307 0002 3FDC     		bgt	.L53
 308              		.loc 1 173 0
 309 0004 4100     		lsls	r1, r0, #1
 310 0006 204A     		ldr	r2, .L59
 311 0008 0B18     		adds	r3, r1, r0
 312 000a 02EB4303 		add	r3, r2, r3, lsl #1
 313 000e 5B78     		ldrb	r3, [r3, #1]	@ zero_extendqisi2
 314              		.loc 1 167 0
 315 0010 00B5     		push	{lr}
 316              		.cfi_def_cfa_offset 4
 317              		.cfi_offset 14, -4
 318              		.loc 1 173 0
 319 0012 013B     		subs	r3, r3, #1
 320 0014 072B     		cmp	r3, #7
 321 0016 32D8     		bhi	.L46
 322 0018 DFE803F0 		tbb	[pc, r3]
 323              	.L47:
 324 001c 04       		.byte	(.L54-.L47)/2
 325 001d 07       		.byte	(.L48-.L47)/2
 326 001e 0A       		.byte	(.L49-.L47)/2
 327 001f 16       		.byte	(.L50-.L47)/2
 328 0020 22       		.byte	(.L51-.L47)/2
 329 0021 31       		.byte	(.L46-.L47)/2
 330 0022 31       		.byte	(.L46-.L47)/2
 331 0023 2E       		.byte	(.L52-.L47)/2
 332              		.p2align 1
 333              	.L54:
 334              		.loc 1 176 0
 335 0024 1948     		ldr	r0, .L59+4
 336              	.LVL36:
 337              		.loc 1 209 0
 338 0026 5DF804FB 		ldr	pc, [sp], #4
 339              	.LVL37:
 340              	.L48:
 341              		.loc 1 179 0
 342 002a 1948     		ldr	r0, .L59+8
ARM GAS  /var/folders/6q/x_mk5n_j3p7_c40r_2k_78980000gn/T//ccQ0DOJS.s 			page 7


 343              	.LVL38:
 344 002c 5DF804FB 		ldr	pc, [sp], #4
 345              	.LVL39:
 346              	.L49:
 347              		.loc 1 185 0
 348 0030 0844     		add	r0, r0, r1
 349              	.LVL40:
 350 0032 02EB4000 		add	r0, r2, r0, lsl #1
 351 0036 8078     		ldrb	r0, [r0, #2]	@ zero_extendqisi2
 352              		.loc 1 186 0
 353 0038 164B     		ldr	r3, .L59+12
 354 003a 174A     		ldr	r2, .L59+16
 355 003c 0A28     		cmp	r0, #10
 356 003e 14BF     		ite	ne
 357 0040 1846     		movne	r0, r3
 358 0042 1046     		moveq	r0, r2
 359 0044 5DF804FB 		ldr	pc, [sp], #4
 360              	.LVL41:
 361              	.L50:
 362              		.loc 1 191 0
 363 0048 0844     		add	r0, r0, r1
 364              	.LVL42:
 365 004a 02EB4000 		add	r0, r2, r0, lsl #1
 366 004e 8078     		ldrb	r0, [r0, #2]	@ zero_extendqisi2
 367              		.loc 1 192 0
 368 0050 104B     		ldr	r3, .L59+12
 369 0052 124A     		ldr	r2, .L59+20
 370 0054 0C28     		cmp	r0, #12
 371 0056 14BF     		ite	ne
 372 0058 1846     		movne	r0, r3
 373 005a 1046     		moveq	r0, r2
 374 005c 5DF804FB 		ldr	pc, [sp], #4
 375              	.LVL43:
 376              	.L51:
 377              		.loc 1 198 0
 378 0060 0844     		add	r0, r0, r1
 379              	.LVL44:
 380 0062 02EB4000 		add	r0, r2, r0, lsl #1
 381 0066 8078     		ldrb	r0, [r0, #2]	@ zero_extendqisi2
 382              		.loc 1 199 0
 383 0068 0A4B     		ldr	r3, .L59+12
 384 006a 0D4A     		ldr	r2, .L59+24
 385 006c 0C28     		cmp	r0, #12
 386 006e 14BF     		ite	ne
 387 0070 1846     		movne	r0, r3
 388 0072 1046     		moveq	r0, r2
 389 0074 5DF804FB 		ldr	pc, [sp], #4
 390              	.LVL45:
 391              	.L52:
 392              		.loc 1 182 0
 393 0078 0A48     		ldr	r0, .L59+28
 394              	.LVL46:
 395              		.loc 1 183 0
 396 007a 5DF804FB 		ldr	pc, [sp], #4
 397              	.LVL47:
 398              	.L46:
 399              		.loc 1 204 0
ARM GAS  /var/folders/6q/x_mk5n_j3p7_c40r_2k_78980000gn/T//ccQ0DOJS.s 			page 8


 400 007e 0A48     		ldr	r0, .L59+32
 401              	.LVL48:
 402              		.loc 1 205 0
 403 0080 5DF804FB 		ldr	pc, [sp], #4
 404              	.LVL49:
 405              	.L53:
 406              		.cfi_def_cfa_offset 0
 407              		.cfi_restore 14
 408              		.loc 1 171 0
 409 0084 0020     		movs	r0, #0
 410              	.LVL50:
 411              		.loc 1 209 0
 412 0086 7047     		bx	lr
 413              	.L60:
 414              		.align	2
 415              	.L59:
 416 0088 00000000 		.word	.LANCHOR0
 417 008c 08000000 		.word	.LC1
 418 0090 00000000 		.word	.LC0
 419 0094 34000000 		.word	.LC6
 420 0098 20000000 		.word	.LC4
 421 009c 18000000 		.word	.LC3
 422 00a0 10000000 		.word	.LC2
 423 00a4 38000000 		.word	.LC7
 424 00a8 28000000 		.word	.LC5
 425              		.cfi_endproc
 426              	.LFE65:
 427              		.size	vexDigitalTypeGetName, .-vexDigitalTypeGetName
 428              		.section	.text.vexDigitalChannelGet,"ax",%progbits
 429              		.align	2
 430              		.p2align 4,,15
 431              		.global	vexDigitalChannelGet
 432              		.thumb
 433              		.thumb_func
 434              		.type	vexDigitalChannelGet, %function
 435              	vexDigitalChannelGet:
 436              	.LFB66:
 437              		.loc 1 219 0
 438              		.cfi_startproc
 439              		@ args = 0, pretend = 0, frame = 0
 440              		@ frame_needed = 0, uses_anonymous_args = 0
 441              		@ link register save eliminated.
 442              	.LVL51:
 443              		.loc 1 220 0
 444 0000 0B28     		cmp	r0, #11
 445 0002 06DC     		bgt	.L63
 446              		.loc 1 223 0
 447 0004 044B     		ldr	r3, .L64
 448 0006 00EB4000 		add	r0, r0, r0, lsl #1
 449              	.LVL52:
 450 000a 03EB4000 		add	r0, r3, r0, lsl #1
 451 000e 8088     		ldrh	r0, [r0, #4]
 452 0010 7047     		bx	lr
 453              	.LVL53:
 454              	.L63:
 455              		.loc 1 221 0
 456 0012 0020     		movs	r0, #0
ARM GAS  /var/folders/6q/x_mk5n_j3p7_c40r_2k_78980000gn/T//ccQ0DOJS.s 			page 9


 457              	.LVL54:
 458              		.loc 1 224 0
 459 0014 7047     		bx	lr
 460              	.L65:
 461 0016 00BF     		.align	2
 462              	.L64:
 463 0018 00000000 		.word	.LANCHOR0
 464              		.cfi_endproc
 465              	.LFE66:
 466              		.size	vexDigitalChannelGet, .-vexDigitalChannelGet
 467              		.section	.text.vexDigitalCfgGet,"ax",%progbits
 468              		.align	2
 469              		.p2align 4,,15
 470              		.global	vexDigitalCfgGet
 471              		.thumb
 472              		.thumb_func
 473              		.type	vexDigitalCfgGet, %function
 474              	vexDigitalCfgGet:
 475              	.LFB67:
 476              		.loc 1 236 0
 477              		.cfi_startproc
 478              		@ args = 0, pretend = 0, frame = 0
 479              		@ frame_needed = 0, uses_anonymous_args = 0
 480              		@ link register save eliminated.
 481              	.LVL55:
 482              		.loc 1 237 0
 483 0000 0B28     		cmp	r0, #11
 484 0002 06DC     		bgt	.L68
 485              		.loc 1 240 0
 486 0004 044B     		ldr	r3, .L69
 487 0006 00EB4000 		add	r0, r0, r0, lsl #1
 488              	.LVL56:
 489 000a 03EB4000 		add	r0, r3, r0, lsl #1
 490 000e 8078     		ldrb	r0, [r0, #2]	@ zero_extendqisi2
 491 0010 7047     		bx	lr
 492              	.LVL57:
 493              	.L68:
 494              		.loc 1 238 0
 495 0012 0020     		movs	r0, #0
 496              	.LVL58:
 497              		.loc 1 241 0
 498 0014 7047     		bx	lr
 499              	.L70:
 500 0016 00BF     		.align	2
 501              	.L69:
 502 0018 00000000 		.word	.LANCHOR0
 503              		.cfi_endproc
 504              	.LFE67:
 505              		.size	vexDigitalCfgGet, .-vexDigitalCfgGet
 506              		.section	.text.vexMotorConfigure,"ax",%progbits
 507              		.align	2
 508              		.p2align 4,,15
 509              		.global	vexMotorConfigure
 510              		.thumb
 511              		.thumb_func
 512              		.type	vexMotorConfigure, %function
 513              	vexMotorConfigure:
ARM GAS  /var/folders/6q/x_mk5n_j3p7_c40r_2k_78980000gn/T//ccQ0DOJS.s 			page 10


 514              	.LFB68:
 515              		.loc 1 252 0
 516              		.cfi_startproc
 517              		@ args = 0, pretend = 0, frame = 0
 518              		@ frame_needed = 0, uses_anonymous_args = 0
 519              	.LVL59:
 520              		.loc 1 256 0
 521 0000 0028     		cmp	r0, #0
 522 0002 5AD0     		beq	.L80
 523              	.LVL60:
 524              		.loc 1 263 0 discriminator 1
 525 0004 0029     		cmp	r1, #0
 526 0006 58DD     		ble	.L80
 527              		.loc 1 252 0
 528 0008 38B5     		push	{r3, r4, r5, lr}
 529              		.cfi_def_cfa_offset 16
 530              		.cfi_offset 3, -16
 531              		.cfi_offset 4, -12
 532              		.cfi_offset 5, -8
 533              		.cfi_offset 14, -4
 534 000a 4D1E     		subs	r5, r1, #1
 535 000c ADB2     		uxth	r5, r5
 536 000e 05EB4505 		add	r5, r5, r5, lsl #1
 537 0012 00EB4505 		add	r5, r0, r5, lsl #1
 538 0016 0C35     		adds	r5, r5, #12
 539 0018 841D     		adds	r4, r0, #6
 540 001a 25E0     		b	.L77
 541              	.LVL61:
 542              	.L82:
 543              		.loc 1 271 0
 544 001c 062B     		cmp	r3, #6
 545 001e 20D1     		bne	.L74
 546              		.loc 1 275 0
 547 0020 14F9061C 		ldrsb	r1, [r4, #-6]
 548 0024 14F8020C 		ldrb	r0, [r4, #-2]	@ zero_extendqisi2
 549 0028 FFF7FEFF 		bl	vexImeSetMotor
 550              	.LVL62:
 551              		.loc 1 277 0
 552 002c 14F8051C 		ldrb	r1, [r4, #-5]	@ zero_extendqisi2
 553 0030 14F8020C 		ldrb	r0, [r4, #-2]	@ zero_extendqisi2
 554 0034 FFF7FEFF 		bl	vexImeSetType
 555              	.LVL63:
 556              		.loc 1 279 0
 557 0038 34F9022C 		ldrsh	r2, [r4, #-2]
 558 003c 1F49     		ldr	r1, .L83
 559 003e 14F9060C 		ldrsb	r0, [r4, #-6]
 560 0042 FFF7FEFF 		bl	vexMotorPositionGetCallback
 561              	.LVL64:
 562              		.loc 1 281 0
 563 0046 34F9022C 		ldrsh	r2, [r4, #-2]
 564 004a 1D49     		ldr	r1, .L83+4
 565 004c 14F9060C 		ldrsb	r0, [r4, #-6]
 566 0050 FFF7FEFF 		bl	vexMotorPositionSetCallback
 567              	.LVL65:
 568              		.loc 1 283 0
 569 0054 34F9022C 		ldrsh	r2, [r4, #-2]
 570 0058 1A49     		ldr	r1, .L83+8
ARM GAS  /var/folders/6q/x_mk5n_j3p7_c40r_2k_78980000gn/T//ccQ0DOJS.s 			page 11


 571 005a 14F9060C 		ldrsb	r0, [r4, #-6]
 572 005e FFF7FEFF 		bl	vexMotorEncoderIdCallback
 573              	.LVL66:
 574              	.L74:
 575 0062 0634     		adds	r4, r4, #6
 576              	.LVL67:
 577              		.loc 1 263 0 discriminator 2
 578 0064 AC42     		cmp	r4, r5
 579 0066 27D0     		beq	.L81
 580              	.LVL68:
 581              	.L77:
 582              		.loc 1 266 0
 583 0068 14F8051C 		ldrb	r1, [r4, #-5]	@ zero_extendqisi2
 584 006c 14F9060C 		ldrsb	r0, [r4, #-6]
 585 0070 FFF7FEFF 		bl	vexMotorTypeSet
 586              	.LVL69:
 587              		.loc 1 269 0
 588 0074 14F8041C 		ldrb	r1, [r4, #-4]	@ zero_extendqisi2
 589 0078 14F9060C 		ldrsb	r0, [r4, #-6]
 590 007c FFF7FEFF 		bl	vexMotorDirectionSet
 591              	.LVL70:
 592              		.loc 1 271 0
 593 0080 14F8033C 		ldrb	r3, [r4, #-3]	@ zero_extendqisi2
 594 0084 032B     		cmp	r3, #3
 595 0086 C9D1     		bne	.L82
 596              		.loc 1 288 0
 597 0088 34F9022C 		ldrsh	r2, [r4, #-2]
 598 008c 14F9060C 		ldrsb	r0, [r4, #-6]
 599 0090 0D49     		ldr	r1, .L83+12
 600 0092 FFF7FEFF 		bl	vexMotorPositionGetCallback
 601              	.LVL71:
 602              		.loc 1 290 0
 603 0096 34F9022C 		ldrsh	r2, [r4, #-2]
 604 009a 14F9060C 		ldrsb	r0, [r4, #-6]
 605 009e 0B49     		ldr	r1, .L83+16
 606 00a0 FFF7FEFF 		bl	vexMotorPositionSetCallback
 607              	.LVL72:
 608 00a4 0634     		adds	r4, r4, #6
 609              	.LVL73:
 610              		.loc 1 292 0
 611 00a6 34F9082C 		ldrsh	r2, [r4, #-8]
 612 00aa 14F90C0C 		ldrsb	r0, [r4, #-12]
 613 00ae 0849     		ldr	r1, .L83+20
 614 00b0 FFF7FEFF 		bl	vexMotorEncoderIdCallback
 615              	.LVL74:
 616              		.loc 1 263 0
 617 00b4 AC42     		cmp	r4, r5
 618 00b6 D7D1     		bne	.L77
 619              	.L81:
 620 00b8 38BD     		pop	{r3, r4, r5, pc}
 621              	.LVL75:
 622              	.L80:
 623              		.cfi_def_cfa_offset 0
 624              		.cfi_restore 3
 625              		.cfi_restore 4
 626              		.cfi_restore 5
 627              		.cfi_restore 14
ARM GAS  /var/folders/6q/x_mk5n_j3p7_c40r_2k_78980000gn/T//ccQ0DOJS.s 			page 12


 628 00ba 7047     		bx	lr
 629              	.L84:
 630              		.align	2
 631              	.L83:
 632 00bc 00000000 		.word	vexImeGetCount
 633 00c0 00000000 		.word	vexImeSetCount
 634 00c4 00000000 		.word	vexImeGetId
 635 00c8 00000000 		.word	vexEncoderGet
 636 00cc 00000000 		.word	vexEncoderSet
 637 00d0 00000000 		.word	vexEncoderGetId
 638              		.cfi_endproc
 639              	.LFE68:
 640              		.size	vexMotorConfigure, .-vexMotorConfigure
 641              		.section	.data.vexDefConfig,"aw",%progbits
 642              		.align	2
 643              		.set	.LANCHOR0,. + 0
 644              		.type	vexDefConfig, %object
 645              		.size	vexDefConfig, 72
 646              	vexDefConfig:
 647 0000 00       		.byte	0
 648 0001 01       		.byte	1
 649 0002 00       		.byte	0
 650 0003 00       		.space	1
 651 0004 0000     		.short	0
 652 0006 01       		.byte	1
 653 0007 01       		.byte	1
 654 0008 00       		.byte	0
 655 0009 00       		.space	1
 656 000a 0000     		.short	0
 657 000c 02       		.byte	2
 658 000d 01       		.byte	1
 659 000e 00       		.byte	0
 660 000f 00       		.space	1
 661 0010 0000     		.short	0
 662 0012 03       		.byte	3
 663 0013 01       		.byte	1
 664 0014 00       		.byte	0
 665 0015 00       		.space	1
 666 0016 0000     		.short	0
 667 0018 04       		.byte	4
 668 0019 01       		.byte	1
 669 001a 00       		.byte	0
 670 001b 00       		.space	1
 671 001c 0000     		.short	0
 672 001e 05       		.byte	5
 673 001f 01       		.byte	1
 674 0020 00       		.byte	0
 675 0021 00       		.space	1
 676 0022 0000     		.short	0
 677 0024 06       		.byte	6
 678 0025 01       		.byte	1
 679 0026 00       		.byte	0
 680 0027 00       		.space	1
 681 0028 0000     		.short	0
 682 002a 07       		.byte	7
 683 002b 01       		.byte	1
 684 002c 00       		.byte	0
ARM GAS  /var/folders/6q/x_mk5n_j3p7_c40r_2k_78980000gn/T//ccQ0DOJS.s 			page 13


 685 002d 00       		.space	1
 686 002e 0000     		.short	0
 687 0030 08       		.byte	8
 688 0031 01       		.byte	1
 689 0032 00       		.byte	0
 690 0033 00       		.space	1
 691 0034 0000     		.short	0
 692 0036 09       		.byte	9
 693 0037 01       		.byte	1
 694 0038 00       		.byte	0
 695 0039 00       		.space	1
 696 003a 0000     		.short	0
 697 003c 0A       		.byte	10
 698 003d 01       		.byte	1
 699 003e 00       		.byte	0
 700 003f 00       		.space	1
 701 0040 0000     		.short	0
 702 0042 0B       		.byte	11
 703 0043 01       		.byte	1
 704 0044 00       		.byte	0
 705 0045 00       		.space	1
 706 0046 0000     		.short	0
 707              		.section	.rodata.str1.4,"aMS",%progbits,1
 708              		.align	2
 709              	.LC0:
 710 0000 4F757470 		.ascii	"Output\000"
 710      757400
 711 0007 00       		.space	1
 712              	.LC1:
 713 0008 496E7075 		.ascii	"Input\000"
 713      7400
 714 000e 0000     		.space	2
 715              	.LC2:
 716 0010 536F6E61 		.ascii	"SonarIn\000"
 716      72496E00 
 717              	.LC3:
 718 0018 536F6E61 		.ascii	"SonarCm\000"
 718      72436D00 
 719              	.LC4:
 720 0020 456E636F 		.ascii	"Encoder\000"
 720      64657200 
 721              	.LC5:
 722 0028 556E6465 		.ascii	"Undefined\000"
 722      66696E65 
 722      6400
 723 0032 0000     		.space	2
 724              	.LC6:
 725 0034 00       		.ascii	"\000"
 726 0035 000000   		.space	3
 727              	.LC7:
 728 0038 496E7472 		.ascii	"Intrpt\000"
 728      707400
 729              		.text
 730              	.Letext0:
 731              		.file 2 "/Users/Luca/src/vexilla/src/gcc-arm-none-eabi-5_4-2016q3/arm-none-eabi/include/machine/_d
 732              		.file 3 "/Users/Luca/src/vexilla/src/gcc-arm-none-eabi-5_4-2016q3/arm-none-eabi/include/sys/_stdin
 733              		.file 4 "../ChibiOS/os/ports/GCC/ARMCMx/chtypes.h"
ARM GAS  /var/folders/6q/x_mk5n_j3p7_c40r_2k_78980000gn/T//ccQ0DOJS.s 			page 14


 734              		.file 5 "../convex-vexilla/cortex/fw/vexdigital.h"
 735              		.file 6 "../convex-vexilla/cortex/fw/vexmotor.h"
 736              		.file 7 "../convex-vexilla/cortex/fw/vexime.h"
 737              		.file 8 "../convex-vexilla/cortex/fw/vexconfig.h"
 738              		.file 9 "../convex-vexilla/cortex/fw/vexencoder.h"
 739              		.file 10 "../convex-vexilla/cortex/fw/vexsonar.h"
 740              		.file 11 "../ChibiOS/os/ports/common/ARMCMx/CMSIS/include/core_cm3.h"
 741              		.section	.debug_info,"",%progbits
 742              	.Ldebug_info0:
 743 0000 3B060000 		.4byte	0x63b
 744 0004 0400     		.2byte	0x4
 745 0006 00000000 		.4byte	.Ldebug_abbrev0
 746 000a 04       		.byte	0x4
 747 000b 01       		.uleb128 0x1
 748 000c 5C020000 		.4byte	.LASF117
 749 0010 0C       		.byte	0xc
 750 0011 EF030000 		.4byte	.LASF118
 751 0015 F3060000 		.4byte	.LASF119
 752 0019 00000000 		.4byte	.Ldebug_ranges0+0
 753 001d 00000000 		.4byte	0
 754 0021 00000000 		.4byte	.Ldebug_line0
 755 0025 02       		.uleb128 0x2
 756 0026 04       		.byte	0x4
 757 0027 05       		.byte	0x5
 758 0028 696E7400 		.ascii	"int\000"
 759 002c 03       		.uleb128 0x3
 760 002d 04       		.byte	0x4
 761 002e 07       		.byte	0x7
 762 002f BF010000 		.4byte	.LASF0
 763 0033 03       		.uleb128 0x3
 764 0034 08       		.byte	0x8
 765 0035 05       		.byte	0x5
 766 0036 CC000000 		.4byte	.LASF1
 767 003a 03       		.uleb128 0x3
 768 003b 08       		.byte	0x8
 769 003c 04       		.byte	0x4
 770 003d 9B040000 		.4byte	.LASF2
 771 0041 03       		.uleb128 0x3
 772 0042 01       		.byte	0x1
 773 0043 06       		.byte	0x6
 774 0044 DA000000 		.4byte	.LASF3
 775 0048 03       		.uleb128 0x3
 776 0049 01       		.byte	0x1
 777 004a 08       		.byte	0x8
 778 004b 4B050000 		.4byte	.LASF4
 779 004f 04       		.uleb128 0x4
 780 0050 53070000 		.4byte	.LASF6
 781 0054 02       		.byte	0x2
 782 0055 29       		.byte	0x29
 783 0056 5A000000 		.4byte	0x5a
 784 005a 03       		.uleb128 0x3
 785 005b 02       		.byte	0x2
 786 005c 05       		.byte	0x5
 787 005d 69050000 		.4byte	.LASF5
 788 0061 04       		.uleb128 0x4
 789 0062 55060000 		.4byte	.LASF7
 790 0066 02       		.byte	0x2
ARM GAS  /var/folders/6q/x_mk5n_j3p7_c40r_2k_78980000gn/T//ccQ0DOJS.s 			page 15


 791 0067 2B       		.byte	0x2b
 792 0068 6C000000 		.4byte	0x6c
 793 006c 03       		.uleb128 0x3
 794 006d 02       		.byte	0x2
 795 006e 07       		.byte	0x7
 796 006f 36030000 		.4byte	.LASF8
 797 0073 04       		.uleb128 0x4
 798 0074 8D060000 		.4byte	.LASF9
 799 0078 02       		.byte	0x2
 800 0079 3F       		.byte	0x3f
 801 007a 7E000000 		.4byte	0x7e
 802 007e 03       		.uleb128 0x3
 803 007f 04       		.byte	0x4
 804 0080 05       		.byte	0x5
 805 0081 FC000000 		.4byte	.LASF10
 806 0085 03       		.uleb128 0x3
 807 0086 04       		.byte	0x4
 808 0087 07       		.byte	0x7
 809 0088 DC050000 		.4byte	.LASF11
 810 008c 03       		.uleb128 0x3
 811 008d 08       		.byte	0x8
 812 008e 07       		.byte	0x7
 813 008f 6E000000 		.4byte	.LASF12
 814 0093 04       		.uleb128 0x4
 815 0094 C4000000 		.4byte	.LASF13
 816 0098 03       		.byte	0x3
 817 0099 20       		.byte	0x20
 818 009a 4F000000 		.4byte	0x4f
 819 009e 04       		.uleb128 0x4
 820 009f 16010000 		.4byte	.LASF14
 821 00a3 03       		.byte	0x3
 822 00a4 24       		.byte	0x24
 823 00a5 61000000 		.4byte	0x61
 824 00a9 04       		.uleb128 0x4
 825 00aa 43050000 		.4byte	.LASF15
 826 00ae 03       		.byte	0x3
 827 00af 2C       		.byte	0x2c
 828 00b0 73000000 		.4byte	0x73
 829 00b4 04       		.uleb128 0x4
 830 00b5 E6000000 		.4byte	.LASF16
 831 00b9 04       		.byte	0x4
 832 00ba 2B       		.byte	0x2b
 833 00bb BF000000 		.4byte	0xbf
 834 00bf 03       		.uleb128 0x3
 835 00c0 01       		.byte	0x1
 836 00c1 02       		.byte	0x2
 837 00c2 3D050000 		.4byte	.LASF17
 838 00c6 03       		.uleb128 0x3
 839 00c7 04       		.byte	0x4
 840 00c8 07       		.byte	0x7
 841 00c9 74040000 		.4byte	.LASF18
 842 00cd 03       		.uleb128 0x3
 843 00ce 01       		.byte	0x1
 844 00cf 08       		.byte	0x8
 845 00d0 EE050000 		.4byte	.LASF19
 846 00d4 05       		.uleb128 0x5
 847 00d5 A9000000 		.4byte	0xa9
ARM GAS  /var/folders/6q/x_mk5n_j3p7_c40r_2k_78980000gn/T//ccQ0DOJS.s 			page 16


 848 00d9 06       		.uleb128 0x6
 849 00da 01       		.byte	0x1
 850 00db 41000000 		.4byte	0x41
 851 00df 05       		.byte	0x5
 852 00e0 8D       		.byte	0x8d
 853 00e1 3A010000 		.4byte	0x13a
 854 00e5 07       		.uleb128 0x7
 855 00e6 05010000 		.4byte	.LASF20
 856 00ea 7F       		.sleb128 -1
 857 00eb 08       		.uleb128 0x8
 858 00ec 7F030000 		.4byte	.LASF21
 859 00f0 00       		.byte	0
 860 00f1 08       		.uleb128 0x8
 861 00f2 8D030000 		.4byte	.LASF22
 862 00f6 01       		.byte	0x1
 863 00f7 08       		.uleb128 0x8
 864 00f8 9B030000 		.4byte	.LASF23
 865 00fc 02       		.byte	0x2
 866 00fd 08       		.uleb128 0x8
 867 00fe A9030000 		.4byte	.LASF24
 868 0102 03       		.byte	0x3
 869 0103 08       		.uleb128 0x8
 870 0104 B7030000 		.4byte	.LASF25
 871 0108 04       		.byte	0x4
 872 0109 08       		.uleb128 0x8
 873 010a C5030000 		.4byte	.LASF26
 874 010e 05       		.byte	0x5
 875 010f 08       		.uleb128 0x8
 876 0110 D3030000 		.4byte	.LASF27
 877 0114 06       		.byte	0x6
 878 0115 08       		.uleb128 0x8
 879 0116 E1030000 		.4byte	.LASF28
 880 011a 07       		.byte	0x7
 881 011b 08       		.uleb128 0x8
 882 011c 3C010000 		.4byte	.LASF29
 883 0120 08       		.byte	0x8
 884 0121 08       		.uleb128 0x8
 885 0122 60060000 		.4byte	.LASF30
 886 0126 09       		.byte	0x9
 887 0127 08       		.uleb128 0x8
 888 0128 6F060000 		.4byte	.LASF31
 889 012c 0A       		.byte	0xa
 890 012d 08       		.uleb128 0x8
 891 012e 7E060000 		.4byte	.LASF32
 892 0132 0B       		.byte	0xb
 893 0133 08       		.uleb128 0x8
 894 0134 85000000 		.4byte	.LASF33
 895 0138 0C       		.byte	0xc
 896 0139 00       		.byte	0
 897 013a 04       		.uleb128 0x4
 898 013b A1070000 		.4byte	.LASF34
 899 013f 05       		.byte	0x5
 900 0140 9D       		.byte	0x9d
 901 0141 D9000000 		.4byte	0xd9
 902 0145 06       		.uleb128 0x6
 903 0146 01       		.byte	0x1
 904 0147 48000000 		.4byte	0x48
ARM GAS  /var/folders/6q/x_mk5n_j3p7_c40r_2k_78980000gn/T//ccQ0DOJS.s 			page 17


 905 014b 05       		.byte	0x5
 906 014c A2       		.byte	0xa2
 907 014d 5E010000 		.4byte	0x15e
 908 0151 08       		.uleb128 0x8
 909 0152 90070000 		.4byte	.LASF35
 910 0156 00       		.byte	0
 911 0157 08       		.uleb128 0x8
 912 0158 5C000000 		.4byte	.LASF36
 913 015c 01       		.byte	0x1
 914 015d 00       		.byte	0
 915 015e 06       		.uleb128 0x6
 916 015f 01       		.byte	0x1
 917 0160 48000000 		.4byte	0x48
 918 0164 06       		.byte	0x6
 919 0165 63       		.byte	0x63
 920 0166 89010000 		.4byte	0x189
 921 016a 08       		.uleb128 0x8
 922 016b CA040000 		.4byte	.LASF37
 923 016f 00       		.byte	0
 924 0170 08       		.uleb128 0x8
 925 0171 1A000000 		.4byte	.LASF38
 926 0175 01       		.byte	0x1
 927 0176 08       		.uleb128 0x8
 928 0177 F9040000 		.4byte	.LASF39
 929 017b 02       		.byte	0x2
 930 017c 08       		.uleb128 0x8
 931 017d EB040000 		.4byte	.LASF40
 932 0181 03       		.byte	0x3
 933 0182 08       		.uleb128 0x8
 934 0183 DD040000 		.4byte	.LASF41
 935 0187 04       		.byte	0x4
 936 0188 00       		.byte	0
 937 0189 04       		.uleb128 0x4
 938 018a 23050000 		.4byte	.LASF42
 939 018e 06       		.byte	0x6
 940 018f 69       		.byte	0x69
 941 0190 5E010000 		.4byte	0x15e
 942 0194 06       		.uleb128 0x6
 943 0195 01       		.byte	0x1
 944 0196 41000000 		.4byte	0x41
 945 019a 06       		.byte	0x6
 946 019b 6E       		.byte	0x6e
 947 019c E9010000 		.4byte	0x1e9
 948 01a0 07       		.uleb128 0x7
 949 01a1 34070000 		.4byte	.LASF43
 950 01a5 7F       		.sleb128 -1
 951 01a6 08       		.uleb128 0x8
 952 01a7 DE010000 		.4byte	.LASF44
 953 01ab 00       		.byte	0
 954 01ac 08       		.uleb128 0x8
 955 01ad EA010000 		.4byte	.LASF45
 956 01b1 01       		.byte	0x1
 957 01b2 08       		.uleb128 0x8
 958 01b3 F6010000 		.4byte	.LASF46
 959 01b7 02       		.byte	0x2
 960 01b8 08       		.uleb128 0x8
 961 01b9 02020000 		.4byte	.LASF47
ARM GAS  /var/folders/6q/x_mk5n_j3p7_c40r_2k_78980000gn/T//ccQ0DOJS.s 			page 18


 962 01bd 03       		.byte	0x3
 963 01be 08       		.uleb128 0x8
 964 01bf 0E020000 		.4byte	.LASF48
 965 01c3 04       		.byte	0x4
 966 01c4 08       		.uleb128 0x8
 967 01c5 1A020000 		.4byte	.LASF49
 968 01c9 05       		.byte	0x5
 969 01ca 08       		.uleb128 0x8
 970 01cb 26020000 		.4byte	.LASF50
 971 01cf 06       		.byte	0x6
 972 01d0 08       		.uleb128 0x8
 973 01d1 32020000 		.4byte	.LASF51
 974 01d5 07       		.byte	0x7
 975 01d6 08       		.uleb128 0x8
 976 01d7 3E020000 		.4byte	.LASF52
 977 01db 08       		.byte	0x8
 978 01dc 08       		.uleb128 0x8
 979 01dd 2F010000 		.4byte	.LASF53
 980 01e1 09       		.byte	0x9
 981 01e2 08       		.uleb128 0x8
 982 01e3 49030000 		.4byte	.LASF54
 983 01e7 0A       		.byte	0xa
 984 01e8 00       		.byte	0
 985 01e9 04       		.uleb128 0x4
 986 01ea 4C040000 		.4byte	.LASF55
 987 01ee 06       		.byte	0x6
 988 01ef 7C       		.byte	0x7c
 989 01f0 94010000 		.4byte	0x194
 990 01f4 06       		.uleb128 0x6
 991 01f5 01       		.byte	0x1
 992 01f6 48000000 		.4byte	0x48
 993 01fa 07       		.byte	0x7
 994 01fb 46       		.byte	0x46
 995 01fc 3D020000 		.4byte	0x23d
 996 0200 08       		.uleb128 0x8
 997 0201 15050000 		.4byte	.LASF56
 998 0205 00       		.byte	0
 999 0206 08       		.uleb128 0x8
 1000 0207 F3050000 		.4byte	.LASF57
 1001 020b 01       		.byte	0x1
 1002 020c 08       		.uleb128 0x8
 1003 020d 01060000 		.4byte	.LASF58
 1004 0211 02       		.byte	0x2
 1005 0212 08       		.uleb128 0x8
 1006 0213 0F060000 		.4byte	.LASF59
 1007 0217 03       		.byte	0x3
 1008 0218 08       		.uleb128 0x8
 1009 0219 1D060000 		.4byte	.LASF60
 1010 021d 04       		.byte	0x4
 1011 021e 08       		.uleb128 0x8
 1012 021f 2B060000 		.4byte	.LASF61
 1013 0223 05       		.byte	0x5
 1014 0224 08       		.uleb128 0x8
 1015 0225 39060000 		.4byte	.LASF62
 1016 0229 06       		.byte	0x6
 1017 022a 08       		.uleb128 0x8
 1018 022b 47060000 		.4byte	.LASF63
ARM GAS  /var/folders/6q/x_mk5n_j3p7_c40r_2k_78980000gn/T//ccQ0DOJS.s 			page 19


 1019 022f 07       		.byte	0x7
 1020 0230 08       		.uleb128 0x8
 1021 0231 7D010000 		.4byte	.LASF64
 1022 0235 08       		.byte	0x8
 1023 0236 08       		.uleb128 0x8
 1024 0237 59050000 		.4byte	.LASF65
 1025 023b 63       		.byte	0x63
 1026 023c 00       		.byte	0
 1027 023d 06       		.uleb128 0x6
 1028 023e 01       		.byte	0x1
 1029 023f 48000000 		.4byte	0x48
 1030 0243 08       		.byte	0x8
 1031 0244 3A       		.byte	0x3a
 1032 0245 80020000 		.4byte	0x280
 1033 0249 08       		.uleb128 0x8
 1034 024a 6E010000 		.4byte	.LASF66
 1035 024e 00       		.byte	0
 1036 024f 08       		.uleb128 0x8
 1037 0250 3D000000 		.4byte	.LASF67
 1038 0254 01       		.byte	0x1
 1039 0255 08       		.uleb128 0x8
 1040 0256 56010000 		.4byte	.LASF68
 1041 025a 02       		.byte	0x2
 1042 025b 08       		.uleb128 0x8
 1043 025c AF060000 		.4byte	.LASF69
 1044 0260 03       		.byte	0x3
 1045 0261 08       		.uleb128 0x8
 1046 0262 C5060000 		.4byte	.LASF70
 1047 0266 04       		.byte	0x4
 1048 0267 08       		.uleb128 0x8
 1049 0268 5D070000 		.4byte	.LASF71
 1050 026c 05       		.byte	0x5
 1051 026d 08       		.uleb128 0x8
 1052 026e 07050000 		.4byte	.LASF72
 1053 0272 06       		.byte	0x6
 1054 0273 08       		.uleb128 0x8
 1055 0274 97060000 		.4byte	.LASF73
 1056 0278 07       		.byte	0x7
 1057 0279 08       		.uleb128 0x8
 1058 027a 20070000 		.4byte	.LASF74
 1059 027e 08       		.byte	0x8
 1060 027f 00       		.byte	0
 1061 0280 04       		.uleb128 0x4
 1062 0281 56030000 		.4byte	.LASF75
 1063 0285 08       		.byte	0x8
 1064 0286 45       		.byte	0x45
 1065 0287 3D020000 		.4byte	0x23d
 1066 028b 06       		.uleb128 0x6
 1067 028c 01       		.byte	0x1
 1068 028d 48000000 		.4byte	0x48
 1069 0291 08       		.byte	0x8
 1070 0292 50       		.byte	0x50
 1071 0293 C2020000 		.4byte	0x2c2
 1072 0297 08       		.uleb128 0x8
 1073 0298 43070000 		.4byte	.LASF76
 1074 029c 00       		.byte	0
 1075 029d 08       		.uleb128 0x8
ARM GAS  /var/folders/6q/x_mk5n_j3p7_c40r_2k_78980000gn/T//ccQ0DOJS.s 			page 20


 1076 029e 27000000 		.4byte	.LASF77
 1077 02a2 01       		.byte	0x1
 1078 02a3 08       		.uleb128 0x8
 1079 02a4 87010000 		.4byte	.LASF78
 1080 02a8 0A       		.byte	0xa
 1081 02a9 08       		.uleb128 0x8
 1082 02aa 9A010000 		.4byte	.LASF79
 1083 02ae 0B       		.byte	0xb
 1084 02af 08       		.uleb128 0x8
 1085 02b0 73050000 		.4byte	.LASF80
 1086 02b4 0C       		.byte	0xc
 1087 02b5 08       		.uleb128 0x8
 1088 02b6 62040000 		.4byte	.LASF81
 1089 02ba 0D       		.byte	0xd
 1090 02bb 08       		.uleb128 0x8
 1091 02bc A2000000 		.4byte	.LASF82
 1092 02c0 0E       		.byte	0xe
 1093 02c1 00       		.byte	0
 1094 02c2 04       		.uleb128 0x4
 1095 02c3 CC010000 		.4byte	.LASF83
 1096 02c7 08       		.byte	0x8
 1097 02c8 59       		.byte	0x59
 1098 02c9 8B020000 		.4byte	0x28b
 1099 02cd 09       		.uleb128 0x9
 1100 02ce 00000000 		.4byte	.LASF87
 1101 02d2 06       		.byte	0x6
 1102 02d3 08       		.byte	0x8
 1103 02d4 5F       		.byte	0x5f
 1104 02d5 0A030000 		.4byte	0x30a
 1105 02d9 0A       		.uleb128 0xa
 1106 02da 70696E00 		.ascii	"pin\000"
 1107 02de 08       		.byte	0x8
 1108 02df 60       		.byte	0x60
 1109 02e0 3A010000 		.4byte	0x13a
 1110 02e4 00       		.byte	0
 1111 02e5 0B       		.uleb128 0xb
 1112 02e6 38000000 		.4byte	.LASF84
 1113 02ea 08       		.byte	0x8
 1114 02eb 61       		.byte	0x61
 1115 02ec 80020000 		.4byte	0x280
 1116 02f0 01       		.byte	0x1
 1117 02f1 0A       		.uleb128 0xa
 1118 02f2 63666700 		.ascii	"cfg\000"
 1119 02f6 08       		.byte	0x8
 1120 02f7 62       		.byte	0x62
 1121 02f8 C2020000 		.4byte	0x2c2
 1122 02fc 02       		.byte	0x2
 1123 02fd 0B       		.uleb128 0xb
 1124 02fe D7050000 		.4byte	.LASF85
 1125 0302 08       		.byte	0x8
 1126 0303 63       		.byte	0x63
 1127 0304 9E000000 		.4byte	0x9e
 1128 0308 04       		.byte	0x4
 1129 0309 00       		.byte	0
 1130 030a 04       		.uleb128 0x4
 1131 030b 15070000 		.4byte	.LASF86
 1132 030f 08       		.byte	0x8
ARM GAS  /var/folders/6q/x_mk5n_j3p7_c40r_2k_78980000gn/T//ccQ0DOJS.s 			page 21


 1133 0310 64       		.byte	0x64
 1134 0311 CD020000 		.4byte	0x2cd
 1135 0315 09       		.uleb128 0x9
 1136 0316 71070000 		.4byte	.LASF88
 1137 031a 06       		.byte	0x6
 1138 031b 08       		.byte	0x8
 1139 031c 6F       		.byte	0x6f
 1140 031d 5E030000 		.4byte	0x35e
 1141 0321 0B       		.uleb128 0xb
 1142 0322 65030000 		.4byte	.LASF89
 1143 0326 08       		.byte	0x8
 1144 0327 70       		.byte	0x70
 1145 0328 E9010000 		.4byte	0x1e9
 1146 032c 00       		.byte	0
 1147 032d 0B       		.uleb128 0xb
 1148 032e 4A010000 		.4byte	.LASF90
 1149 0332 08       		.byte	0x8
 1150 0333 71       		.byte	0x71
 1151 0334 89010000 		.4byte	0x189
 1152 0338 01       		.byte	0x1
 1153 0339 0B       		.uleb128 0xb
 1154 033a 92040000 		.4byte	.LASF91
 1155 033e 08       		.byte	0x8
 1156 033f 72       		.byte	0x72
 1157 0340 B4000000 		.4byte	0xb4
 1158 0344 02       		.byte	0x2
 1159 0345 0B       		.uleb128 0xb
 1160 0346 50010000 		.4byte	.LASF92
 1161 034a 08       		.byte	0x8
 1162 034b 73       		.byte	0x73
 1163 034c 80020000 		.4byte	0x280
 1164 0350 03       		.byte	0x3
 1165 0351 0B       		.uleb128 0xb
 1166 0352 CA050000 		.4byte	.LASF93
 1167 0356 08       		.byte	0x8
 1168 0357 74       		.byte	0x74
 1169 0358 93000000 		.4byte	0x93
 1170 035c 04       		.byte	0x4
 1171 035d 00       		.byte	0
 1172 035e 04       		.uleb128 0x4
 1173 035f 56040000 		.4byte	.LASF94
 1174 0363 08       		.byte	0x8
 1175 0364 75       		.byte	0x75
 1176 0365 15030000 		.4byte	0x315
 1177 0369 0C       		.uleb128 0xc
 1178 036a 04       		.byte	0x4
 1179 036b CD000000 		.4byte	0xcd
 1180 036f 0D       		.uleb128 0xd
 1181 0370 B6050000 		.4byte	.LASF103
 1182 0374 01       		.byte	0x1
 1183 0375 52       		.byte	0x52
 1184 0376 00000000 		.4byte	.LFB63
 1185 037a 34010000 		.4byte	.LFE63-.LFB63
 1186 037e 01       		.uleb128 0x1
 1187 037f 9C       		.byte	0x9c
 1188 0380 26040000 		.4byte	0x426
 1189 0384 0E       		.uleb128 0xe
ARM GAS  /var/folders/6q/x_mk5n_j3p7_c40r_2k_78980000gn/T//ccQ0DOJS.s 			page 22


 1190 0385 63666700 		.ascii	"cfg\000"
 1191 0389 01       		.byte	0x1
 1192 038a 52       		.byte	0x52
 1193 038b 26040000 		.4byte	0x426
 1194 038f 00000000 		.4byte	.LLST0
 1195 0393 0F       		.uleb128 0xf
 1196 0394 54000000 		.4byte	.LASF95
 1197 0398 01       		.byte	0x1
 1198 0399 52       		.byte	0x52
 1199 039a 93000000 		.4byte	0x93
 1200 039e 53000000 		.4byte	.LLST1
 1201 03a2 10       		.uleb128 0x10
 1202 03a3 D2050000 		.4byte	.LASF96
 1203 03a7 01       		.byte	0x1
 1204 03a8 54       		.byte	0x54
 1205 03a9 26040000 		.4byte	0x426
 1206 03ad 98000000 		.4byte	.LLST2
 1207 03b1 10       		.uleb128 0x10
 1208 03b2 40040000 		.4byte	.LASF97
 1209 03b6 01       		.byte	0x1
 1210 03b7 54       		.byte	0x54
 1211 03b8 26040000 		.4byte	0x426
 1212 03bc B6000000 		.4byte	.LLST3
 1213 03c0 10       		.uleb128 0x10
 1214 03c1 46040000 		.4byte	.LASF98
 1215 03c5 01       		.byte	0x1
 1216 03c6 54       		.byte	0x54
 1217 03c7 26040000 		.4byte	0x426
 1218 03cb 06010000 		.4byte	.LLST4
 1219 03cf 11       		.uleb128 0x11
 1220 03d0 6900     		.ascii	"i\000"
 1221 03d2 01       		.byte	0x1
 1222 03d3 55       		.byte	0x55
 1223 03d4 3A010000 		.4byte	0x13a
 1224 03d8 88010000 		.4byte	.LLST5
 1225 03dc 11       		.uleb128 0x11
 1226 03dd 6A00     		.ascii	"j\000"
 1227 03df 01       		.byte	0x1
 1228 03e0 56       		.byte	0x56
 1229 03e1 3A010000 		.4byte	0x13a
 1230 03e5 BE010000 		.4byte	.LLST6
 1231 03e9 11       		.uleb128 0x11
 1232 03ea 6C656E00 		.ascii	"len\000"
 1233 03ee 01       		.byte	0x1
 1234 03ef 57       		.byte	0x57
 1235 03f0 93000000 		.4byte	0x93
 1236 03f4 E8010000 		.4byte	.LLST7
 1237 03f8 12       		.uleb128 0x12
 1238 03f9 6A000000 		.4byte	.LVL7
 1239 03fd C5050000 		.4byte	0x5c5
 1240 0401 12       		.uleb128 0x12
 1241 0402 7A000000 		.4byte	.LVL8
 1242 0406 C5050000 		.4byte	0x5c5
 1243 040a 12       		.uleb128 0x12
 1244 040b BA000000 		.4byte	.LVL14
 1245 040f D0050000 		.4byte	0x5d0
 1246 0413 12       		.uleb128 0x12
ARM GAS  /var/folders/6q/x_mk5n_j3p7_c40r_2k_78980000gn/T//ccQ0DOJS.s 			page 23


 1247 0414 02010000 		.4byte	.LVL23
 1248 0418 DB050000 		.4byte	0x5db
 1249 041c 12       		.uleb128 0x12
 1250 041d 1A010000 		.4byte	.LVL26
 1251 0421 E6050000 		.4byte	0x5e6
 1252 0425 00       		.byte	0
 1253 0426 0C       		.uleb128 0xc
 1254 0427 04       		.byte	0x4
 1255 0428 0A030000 		.4byte	0x30a
 1256 042c 13       		.uleb128 0x13
 1257 042d A7040000 		.4byte	.LASF99
 1258 0431 01       		.byte	0x1
 1259 0432 97       		.byte	0x97
 1260 0433 80020000 		.4byte	0x280
 1261 0437 00000000 		.4byte	.LFB64
 1262 043b 1C000000 		.4byte	.LFE64-.LFB64
 1263 043f 01       		.uleb128 0x1
 1264 0440 9C       		.byte	0x9c
 1265 0441 55040000 		.4byte	0x455
 1266 0445 0E       		.uleb128 0xe
 1267 0446 70696E00 		.ascii	"pin\000"
 1268 044a 01       		.byte	0x1
 1269 044b 97       		.byte	0x97
 1270 044c 3A010000 		.4byte	0x13a
 1271 0450 1C020000 		.4byte	.LLST8
 1272 0454 00       		.byte	0
 1273 0455 13       		.uleb128 0x13
 1274 0456 A0050000 		.4byte	.LASF100
 1275 045a 01       		.byte	0x1
 1276 045b A6       		.byte	0xa6
 1277 045c 69030000 		.4byte	0x369
 1278 0460 00000000 		.4byte	.LFB65
 1279 0464 AC000000 		.4byte	.LFE65-.LFB65
 1280 0468 01       		.uleb128 0x1
 1281 0469 9C       		.byte	0x9c
 1282 046a 8B040000 		.4byte	0x48b
 1283 046e 0E       		.uleb128 0xe
 1284 046f 70696E00 		.ascii	"pin\000"
 1285 0473 01       		.byte	0x1
 1286 0474 A6       		.byte	0xa6
 1287 0475 3A010000 		.4byte	0x13a
 1288 0479 56020000 		.4byte	.LLST9
 1289 047d 11       		.uleb128 0x11
 1290 047e 7000     		.ascii	"p\000"
 1291 0480 01       		.byte	0x1
 1292 0481 A8       		.byte	0xa8
 1293 0482 69030000 		.4byte	0x369
 1294 0486 26030000 		.4byte	.LLST10
 1295 048a 00       		.byte	0
 1296 048b 13       		.uleb128 0x13
 1297 048c 6A030000 		.4byte	.LASF101
 1298 0490 01       		.byte	0x1
 1299 0491 DA       		.byte	0xda
 1300 0492 9E000000 		.4byte	0x9e
 1301 0496 00000000 		.4byte	.LFB66
 1302 049a 1C000000 		.4byte	.LFE66-.LFB66
 1303 049e 01       		.uleb128 0x1
ARM GAS  /var/folders/6q/x_mk5n_j3p7_c40r_2k_78980000gn/T//ccQ0DOJS.s 			page 24


 1304 049f 9C       		.byte	0x9c
 1305 04a0 B4040000 		.4byte	0x4b4
 1306 04a4 0E       		.uleb128 0xe
 1307 04a5 70696E00 		.ascii	"pin\000"
 1308 04a9 01       		.byte	0x1
 1309 04aa DA       		.byte	0xda
 1310 04ab 3A010000 		.4byte	0x13a
 1311 04af 66030000 		.4byte	.LLST11
 1312 04b3 00       		.byte	0
 1313 04b4 13       		.uleb128 0x13
 1314 04b5 B9040000 		.4byte	.LASF102
 1315 04b9 01       		.byte	0x1
 1316 04ba EB       		.byte	0xeb
 1317 04bb 9E000000 		.4byte	0x9e
 1318 04bf 00000000 		.4byte	.LFB67
 1319 04c3 1C000000 		.4byte	.LFE67-.LFB67
 1320 04c7 01       		.uleb128 0x1
 1321 04c8 9C       		.byte	0x9c
 1322 04c9 DD040000 		.4byte	0x4dd
 1323 04cd 0E       		.uleb128 0xe
 1324 04ce 70696E00 		.ascii	"pin\000"
 1325 04d2 01       		.byte	0x1
 1326 04d3 EB       		.byte	0xeb
 1327 04d4 3A010000 		.4byte	0x13a
 1328 04d8 A0030000 		.4byte	.LLST12
 1329 04dc 00       		.byte	0
 1330 04dd 0D       		.uleb128 0xd
 1331 04de 7E070000 		.4byte	.LASF104
 1332 04e2 01       		.byte	0x1
 1333 04e3 FB       		.byte	0xfb
 1334 04e4 00000000 		.4byte	.LFB68
 1335 04e8 D4000000 		.4byte	.LFE68-.LFB68
 1336 04ec 01       		.uleb128 0x1
 1337 04ed 9C       		.byte	0x9c
 1338 04ee 92050000 		.4byte	0x592
 1339 04f2 0E       		.uleb128 0xe
 1340 04f3 63666700 		.ascii	"cfg\000"
 1341 04f7 01       		.byte	0x1
 1342 04f8 FB       		.byte	0xfb
 1343 04f9 92050000 		.4byte	0x592
 1344 04fd DA030000 		.4byte	.LLST13
 1345 0501 0F       		.uleb128 0xf
 1346 0502 54000000 		.4byte	.LASF95
 1347 0506 01       		.byte	0x1
 1348 0507 FB       		.byte	0xfb
 1349 0508 93000000 		.4byte	0x93
 1350 050c 06040000 		.4byte	.LLST14
 1351 0510 10       		.uleb128 0x10
 1352 0511 D2050000 		.4byte	.LASF96
 1353 0515 01       		.byte	0x1
 1354 0516 FD       		.byte	0xfd
 1355 0517 92050000 		.4byte	0x592
 1356 051b 32040000 		.4byte	.LLST15
 1357 051f 11       		.uleb128 0x11
 1358 0520 6900     		.ascii	"i\000"
 1359 0522 01       		.byte	0x1
 1360 0523 FE       		.byte	0xfe
ARM GAS  /var/folders/6q/x_mk5n_j3p7_c40r_2k_78980000gn/T//ccQ0DOJS.s 			page 25


 1361 0524 93000000 		.4byte	0x93
 1362 0528 77040000 		.4byte	.LLST16
 1363 052c 14       		.uleb128 0x14
 1364 052d 6C656E00 		.ascii	"len\000"
 1365 0531 01       		.byte	0x1
 1366 0532 FE       		.byte	0xfe
 1367 0533 93000000 		.4byte	0x93
 1368 0537 12       		.uleb128 0x12
 1369 0538 2C000000 		.4byte	.LVL62
 1370 053c F1050000 		.4byte	0x5f1
 1371 0540 12       		.uleb128 0x12
 1372 0541 38000000 		.4byte	.LVL63
 1373 0545 FC050000 		.4byte	0x5fc
 1374 0549 12       		.uleb128 0x12
 1375 054a 46000000 		.4byte	.LVL64
 1376 054e 07060000 		.4byte	0x607
 1377 0552 12       		.uleb128 0x12
 1378 0553 54000000 		.4byte	.LVL65
 1379 0557 12060000 		.4byte	0x612
 1380 055b 12       		.uleb128 0x12
 1381 055c 62000000 		.4byte	.LVL66
 1382 0560 1D060000 		.4byte	0x61d
 1383 0564 12       		.uleb128 0x12
 1384 0565 74000000 		.4byte	.LVL69
 1385 0569 28060000 		.4byte	0x628
 1386 056d 12       		.uleb128 0x12
 1387 056e 80000000 		.4byte	.LVL70
 1388 0572 33060000 		.4byte	0x633
 1389 0576 12       		.uleb128 0x12
 1390 0577 96000000 		.4byte	.LVL71
 1391 057b 07060000 		.4byte	0x607
 1392 057f 12       		.uleb128 0x12
 1393 0580 A4000000 		.4byte	.LVL72
 1394 0584 12060000 		.4byte	0x612
 1395 0588 12       		.uleb128 0x12
 1396 0589 B4000000 		.4byte	.LVL74
 1397 058d 1D060000 		.4byte	0x61d
 1398 0591 00       		.byte	0
 1399 0592 0C       		.uleb128 0xc
 1400 0593 04       		.byte	0x4
 1401 0594 5E030000 		.4byte	0x35e
 1402 0598 15       		.uleb128 0x15
 1403 0599 0A030000 		.4byte	0x30a
 1404 059d A8050000 		.4byte	0x5a8
 1405 05a1 16       		.uleb128 0x16
 1406 05a2 C6000000 		.4byte	0xc6
 1407 05a6 0B       		.byte	0xb
 1408 05a7 00       		.byte	0
 1409 05a8 17       		.uleb128 0x17
 1410 05a9 33040000 		.4byte	.LASF105
 1411 05ad 01       		.byte	0x1
 1412 05ae 3B       		.byte	0x3b
 1413 05af 98050000 		.4byte	0x598
 1414 05b3 05       		.uleb128 0x5
 1415 05b4 03       		.byte	0x3
 1416 05b5 00000000 		.4byte	vexDefConfig
 1417 05b9 18       		.uleb128 0x18
ARM GAS  /var/folders/6q/x_mk5n_j3p7_c40r_2k_78980000gn/T//ccQ0DOJS.s 			page 26


 1418 05ba 95000000 		.4byte	.LASF120
 1419 05be 0B       		.byte	0xb
 1420 05bf 0706     		.2byte	0x607
 1421 05c1 D4000000 		.4byte	0xd4
 1422 05c5 19       		.uleb128 0x19
 1423 05c6 4A020000 		.4byte	.LASF106
 1424 05ca 4A020000 		.4byte	.LASF106
 1425 05ce 05       		.byte	0x5
 1426 05cf C1       		.byte	0xc1
 1427 05d0 19       		.uleb128 0x19
 1428 05d1 B6000000 		.4byte	.LASF107
 1429 05d5 B6000000 		.4byte	.LASF107
 1430 05d9 09       		.byte	0x9
 1431 05da 5E       		.byte	0x5e
 1432 05db 19       		.uleb128 0x19
 1433 05dc 31050000 		.4byte	.LASF108
 1434 05e0 31050000 		.4byte	.LASF108
 1435 05e4 0A       		.byte	0xa
 1436 05e5 5F       		.byte	0x5f
 1437 05e6 19       		.uleb128 0x19
 1438 05e7 AD010000 		.4byte	.LASF109
 1439 05eb AD010000 		.4byte	.LASF109
 1440 05ef 05       		.byte	0x5
 1441 05f0 C6       		.byte	0xc6
 1442 05f1 19       		.uleb128 0x19
 1443 05f2 ED000000 		.4byte	.LASF110
 1444 05f6 ED000000 		.4byte	.LASF110
 1445 05fa 07       		.byte	0x7
 1446 05fb BA       		.byte	0xba
 1447 05fc 19       		.uleb128 0x19
 1448 05fd 0C000000 		.4byte	.LASF111
 1449 0601 0C000000 		.4byte	.LASF111
 1450 0605 07       		.byte	0x7
 1451 0606 B9       		.byte	0xb9
 1452 0607 19       		.uleb128 0x19
 1453 0608 D7060000 		.4byte	.LASF112
 1454 060c D7060000 		.4byte	.LASF112
 1455 0610 06       		.byte	0x6
 1456 0611 9D       		.byte	0x9d
 1457 0612 19       		.uleb128 0x19
 1458 0613 17040000 		.4byte	.LASF113
 1459 0617 17040000 		.4byte	.LASF113
 1460 061b 06       		.byte	0x6
 1461 061c 9E       		.byte	0x9e
 1462 061d 19       		.uleb128 0x19
 1463 061e 86050000 		.4byte	.LASF114
 1464 0622 86050000 		.4byte	.LASF114
 1465 0626 06       		.byte	0x6
 1466 0627 9F       		.byte	0x9f
 1467 0628 19       		.uleb128 0x19
 1468 0629 1F010000 		.4byte	.LASF115
 1469 062d 1F010000 		.4byte	.LASF115
 1470 0631 06       		.byte	0x6
 1471 0632 96       		.byte	0x96
 1472 0633 19       		.uleb128 0x19
 1473 0634 7D040000 		.4byte	.LASF116
 1474 0638 7D040000 		.4byte	.LASF116
ARM GAS  /var/folders/6q/x_mk5n_j3p7_c40r_2k_78980000gn/T//ccQ0DOJS.s 			page 27


 1475 063c 06       		.byte	0x6
 1476 063d 98       		.byte	0x98
 1477 063e 00       		.byte	0
 1478              		.section	.debug_abbrev,"",%progbits
 1479              	.Ldebug_abbrev0:
 1480 0000 01       		.uleb128 0x1
 1481 0001 11       		.uleb128 0x11
 1482 0002 01       		.byte	0x1
 1483 0003 25       		.uleb128 0x25
 1484 0004 0E       		.uleb128 0xe
 1485 0005 13       		.uleb128 0x13
 1486 0006 0B       		.uleb128 0xb
 1487 0007 03       		.uleb128 0x3
 1488 0008 0E       		.uleb128 0xe
 1489 0009 1B       		.uleb128 0x1b
 1490 000a 0E       		.uleb128 0xe
 1491 000b 55       		.uleb128 0x55
 1492 000c 17       		.uleb128 0x17
 1493 000d 11       		.uleb128 0x11
 1494 000e 01       		.uleb128 0x1
 1495 000f 10       		.uleb128 0x10
 1496 0010 17       		.uleb128 0x17
 1497 0011 00       		.byte	0
 1498 0012 00       		.byte	0
 1499 0013 02       		.uleb128 0x2
 1500 0014 24       		.uleb128 0x24
 1501 0015 00       		.byte	0
 1502 0016 0B       		.uleb128 0xb
 1503 0017 0B       		.uleb128 0xb
 1504 0018 3E       		.uleb128 0x3e
 1505 0019 0B       		.uleb128 0xb
 1506 001a 03       		.uleb128 0x3
 1507 001b 08       		.uleb128 0x8
 1508 001c 00       		.byte	0
 1509 001d 00       		.byte	0
 1510 001e 03       		.uleb128 0x3
 1511 001f 24       		.uleb128 0x24
 1512 0020 00       		.byte	0
 1513 0021 0B       		.uleb128 0xb
 1514 0022 0B       		.uleb128 0xb
 1515 0023 3E       		.uleb128 0x3e
 1516 0024 0B       		.uleb128 0xb
 1517 0025 03       		.uleb128 0x3
 1518 0026 0E       		.uleb128 0xe
 1519 0027 00       		.byte	0
 1520 0028 00       		.byte	0
 1521 0029 04       		.uleb128 0x4
 1522 002a 16       		.uleb128 0x16
 1523 002b 00       		.byte	0
 1524 002c 03       		.uleb128 0x3
 1525 002d 0E       		.uleb128 0xe
 1526 002e 3A       		.uleb128 0x3a
 1527 002f 0B       		.uleb128 0xb
 1528 0030 3B       		.uleb128 0x3b
 1529 0031 0B       		.uleb128 0xb
 1530 0032 49       		.uleb128 0x49
 1531 0033 13       		.uleb128 0x13
ARM GAS  /var/folders/6q/x_mk5n_j3p7_c40r_2k_78980000gn/T//ccQ0DOJS.s 			page 28


 1532 0034 00       		.byte	0
 1533 0035 00       		.byte	0
 1534 0036 05       		.uleb128 0x5
 1535 0037 35       		.uleb128 0x35
 1536 0038 00       		.byte	0
 1537 0039 49       		.uleb128 0x49
 1538 003a 13       		.uleb128 0x13
 1539 003b 00       		.byte	0
 1540 003c 00       		.byte	0
 1541 003d 06       		.uleb128 0x6
 1542 003e 04       		.uleb128 0x4
 1543 003f 01       		.byte	0x1
 1544 0040 0B       		.uleb128 0xb
 1545 0041 0B       		.uleb128 0xb
 1546 0042 49       		.uleb128 0x49
 1547 0043 13       		.uleb128 0x13
 1548 0044 3A       		.uleb128 0x3a
 1549 0045 0B       		.uleb128 0xb
 1550 0046 3B       		.uleb128 0x3b
 1551 0047 0B       		.uleb128 0xb
 1552 0048 01       		.uleb128 0x1
 1553 0049 13       		.uleb128 0x13
 1554 004a 00       		.byte	0
 1555 004b 00       		.byte	0
 1556 004c 07       		.uleb128 0x7
 1557 004d 28       		.uleb128 0x28
 1558 004e 00       		.byte	0
 1559 004f 03       		.uleb128 0x3
 1560 0050 0E       		.uleb128 0xe
 1561 0051 1C       		.uleb128 0x1c
 1562 0052 0D       		.uleb128 0xd
 1563 0053 00       		.byte	0
 1564 0054 00       		.byte	0
 1565 0055 08       		.uleb128 0x8
 1566 0056 28       		.uleb128 0x28
 1567 0057 00       		.byte	0
 1568 0058 03       		.uleb128 0x3
 1569 0059 0E       		.uleb128 0xe
 1570 005a 1C       		.uleb128 0x1c
 1571 005b 0B       		.uleb128 0xb
 1572 005c 00       		.byte	0
 1573 005d 00       		.byte	0
 1574 005e 09       		.uleb128 0x9
 1575 005f 13       		.uleb128 0x13
 1576 0060 01       		.byte	0x1
 1577 0061 03       		.uleb128 0x3
 1578 0062 0E       		.uleb128 0xe
 1579 0063 0B       		.uleb128 0xb
 1580 0064 0B       		.uleb128 0xb
 1581 0065 3A       		.uleb128 0x3a
 1582 0066 0B       		.uleb128 0xb
 1583 0067 3B       		.uleb128 0x3b
 1584 0068 0B       		.uleb128 0xb
 1585 0069 01       		.uleb128 0x1
 1586 006a 13       		.uleb128 0x13
 1587 006b 00       		.byte	0
 1588 006c 00       		.byte	0
ARM GAS  /var/folders/6q/x_mk5n_j3p7_c40r_2k_78980000gn/T//ccQ0DOJS.s 			page 29


 1589 006d 0A       		.uleb128 0xa
 1590 006e 0D       		.uleb128 0xd
 1591 006f 00       		.byte	0
 1592 0070 03       		.uleb128 0x3
 1593 0071 08       		.uleb128 0x8
 1594 0072 3A       		.uleb128 0x3a
 1595 0073 0B       		.uleb128 0xb
 1596 0074 3B       		.uleb128 0x3b
 1597 0075 0B       		.uleb128 0xb
 1598 0076 49       		.uleb128 0x49
 1599 0077 13       		.uleb128 0x13
 1600 0078 38       		.uleb128 0x38
 1601 0079 0B       		.uleb128 0xb
 1602 007a 00       		.byte	0
 1603 007b 00       		.byte	0
 1604 007c 0B       		.uleb128 0xb
 1605 007d 0D       		.uleb128 0xd
 1606 007e 00       		.byte	0
 1607 007f 03       		.uleb128 0x3
 1608 0080 0E       		.uleb128 0xe
 1609 0081 3A       		.uleb128 0x3a
 1610 0082 0B       		.uleb128 0xb
 1611 0083 3B       		.uleb128 0x3b
 1612 0084 0B       		.uleb128 0xb
 1613 0085 49       		.uleb128 0x49
 1614 0086 13       		.uleb128 0x13
 1615 0087 38       		.uleb128 0x38
 1616 0088 0B       		.uleb128 0xb
 1617 0089 00       		.byte	0
 1618 008a 00       		.byte	0
 1619 008b 0C       		.uleb128 0xc
 1620 008c 0F       		.uleb128 0xf
 1621 008d 00       		.byte	0
 1622 008e 0B       		.uleb128 0xb
 1623 008f 0B       		.uleb128 0xb
 1624 0090 49       		.uleb128 0x49
 1625 0091 13       		.uleb128 0x13
 1626 0092 00       		.byte	0
 1627 0093 00       		.byte	0
 1628 0094 0D       		.uleb128 0xd
 1629 0095 2E       		.uleb128 0x2e
 1630 0096 01       		.byte	0x1
 1631 0097 3F       		.uleb128 0x3f
 1632 0098 19       		.uleb128 0x19
 1633 0099 03       		.uleb128 0x3
 1634 009a 0E       		.uleb128 0xe
 1635 009b 3A       		.uleb128 0x3a
 1636 009c 0B       		.uleb128 0xb
 1637 009d 3B       		.uleb128 0x3b
 1638 009e 0B       		.uleb128 0xb
 1639 009f 27       		.uleb128 0x27
 1640 00a0 19       		.uleb128 0x19
 1641 00a1 11       		.uleb128 0x11
 1642 00a2 01       		.uleb128 0x1
 1643 00a3 12       		.uleb128 0x12
 1644 00a4 06       		.uleb128 0x6
 1645 00a5 40       		.uleb128 0x40
ARM GAS  /var/folders/6q/x_mk5n_j3p7_c40r_2k_78980000gn/T//ccQ0DOJS.s 			page 30


 1646 00a6 18       		.uleb128 0x18
 1647 00a7 9742     		.uleb128 0x2117
 1648 00a9 19       		.uleb128 0x19
 1649 00aa 01       		.uleb128 0x1
 1650 00ab 13       		.uleb128 0x13
 1651 00ac 00       		.byte	0
 1652 00ad 00       		.byte	0
 1653 00ae 0E       		.uleb128 0xe
 1654 00af 05       		.uleb128 0x5
 1655 00b0 00       		.byte	0
 1656 00b1 03       		.uleb128 0x3
 1657 00b2 08       		.uleb128 0x8
 1658 00b3 3A       		.uleb128 0x3a
 1659 00b4 0B       		.uleb128 0xb
 1660 00b5 3B       		.uleb128 0x3b
 1661 00b6 0B       		.uleb128 0xb
 1662 00b7 49       		.uleb128 0x49
 1663 00b8 13       		.uleb128 0x13
 1664 00b9 02       		.uleb128 0x2
 1665 00ba 17       		.uleb128 0x17
 1666 00bb 00       		.byte	0
 1667 00bc 00       		.byte	0
 1668 00bd 0F       		.uleb128 0xf
 1669 00be 05       		.uleb128 0x5
 1670 00bf 00       		.byte	0
 1671 00c0 03       		.uleb128 0x3
 1672 00c1 0E       		.uleb128 0xe
 1673 00c2 3A       		.uleb128 0x3a
 1674 00c3 0B       		.uleb128 0xb
 1675 00c4 3B       		.uleb128 0x3b
 1676 00c5 0B       		.uleb128 0xb
 1677 00c6 49       		.uleb128 0x49
 1678 00c7 13       		.uleb128 0x13
 1679 00c8 02       		.uleb128 0x2
 1680 00c9 17       		.uleb128 0x17
 1681 00ca 00       		.byte	0
 1682 00cb 00       		.byte	0
 1683 00cc 10       		.uleb128 0x10
 1684 00cd 34       		.uleb128 0x34
 1685 00ce 00       		.byte	0
 1686 00cf 03       		.uleb128 0x3
 1687 00d0 0E       		.uleb128 0xe
 1688 00d1 3A       		.uleb128 0x3a
 1689 00d2 0B       		.uleb128 0xb
 1690 00d3 3B       		.uleb128 0x3b
 1691 00d4 0B       		.uleb128 0xb
 1692 00d5 49       		.uleb128 0x49
 1693 00d6 13       		.uleb128 0x13
 1694 00d7 02       		.uleb128 0x2
 1695 00d8 17       		.uleb128 0x17
 1696 00d9 00       		.byte	0
 1697 00da 00       		.byte	0
 1698 00db 11       		.uleb128 0x11
 1699 00dc 34       		.uleb128 0x34
 1700 00dd 00       		.byte	0
 1701 00de 03       		.uleb128 0x3
 1702 00df 08       		.uleb128 0x8
ARM GAS  /var/folders/6q/x_mk5n_j3p7_c40r_2k_78980000gn/T//ccQ0DOJS.s 			page 31


 1703 00e0 3A       		.uleb128 0x3a
 1704 00e1 0B       		.uleb128 0xb
 1705 00e2 3B       		.uleb128 0x3b
 1706 00e3 0B       		.uleb128 0xb
 1707 00e4 49       		.uleb128 0x49
 1708 00e5 13       		.uleb128 0x13
 1709 00e6 02       		.uleb128 0x2
 1710 00e7 17       		.uleb128 0x17
 1711 00e8 00       		.byte	0
 1712 00e9 00       		.byte	0
 1713 00ea 12       		.uleb128 0x12
 1714 00eb 898201   		.uleb128 0x4109
 1715 00ee 00       		.byte	0
 1716 00ef 11       		.uleb128 0x11
 1717 00f0 01       		.uleb128 0x1
 1718 00f1 31       		.uleb128 0x31
 1719 00f2 13       		.uleb128 0x13
 1720 00f3 00       		.byte	0
 1721 00f4 00       		.byte	0
 1722 00f5 13       		.uleb128 0x13
 1723 00f6 2E       		.uleb128 0x2e
 1724 00f7 01       		.byte	0x1
 1725 00f8 3F       		.uleb128 0x3f
 1726 00f9 19       		.uleb128 0x19
 1727 00fa 03       		.uleb128 0x3
 1728 00fb 0E       		.uleb128 0xe
 1729 00fc 3A       		.uleb128 0x3a
 1730 00fd 0B       		.uleb128 0xb
 1731 00fe 3B       		.uleb128 0x3b
 1732 00ff 0B       		.uleb128 0xb
 1733 0100 27       		.uleb128 0x27
 1734 0101 19       		.uleb128 0x19
 1735 0102 49       		.uleb128 0x49
 1736 0103 13       		.uleb128 0x13
 1737 0104 11       		.uleb128 0x11
 1738 0105 01       		.uleb128 0x1
 1739 0106 12       		.uleb128 0x12
 1740 0107 06       		.uleb128 0x6
 1741 0108 40       		.uleb128 0x40
 1742 0109 18       		.uleb128 0x18
 1743 010a 9742     		.uleb128 0x2117
 1744 010c 19       		.uleb128 0x19
 1745 010d 01       		.uleb128 0x1
 1746 010e 13       		.uleb128 0x13
 1747 010f 00       		.byte	0
 1748 0110 00       		.byte	0
 1749 0111 14       		.uleb128 0x14
 1750 0112 34       		.uleb128 0x34
 1751 0113 00       		.byte	0
 1752 0114 03       		.uleb128 0x3
 1753 0115 08       		.uleb128 0x8
 1754 0116 3A       		.uleb128 0x3a
 1755 0117 0B       		.uleb128 0xb
 1756 0118 3B       		.uleb128 0x3b
 1757 0119 0B       		.uleb128 0xb
 1758 011a 49       		.uleb128 0x49
 1759 011b 13       		.uleb128 0x13
ARM GAS  /var/folders/6q/x_mk5n_j3p7_c40r_2k_78980000gn/T//ccQ0DOJS.s 			page 32


 1760 011c 00       		.byte	0
 1761 011d 00       		.byte	0
 1762 011e 15       		.uleb128 0x15
 1763 011f 01       		.uleb128 0x1
 1764 0120 01       		.byte	0x1
 1765 0121 49       		.uleb128 0x49
 1766 0122 13       		.uleb128 0x13
 1767 0123 01       		.uleb128 0x1
 1768 0124 13       		.uleb128 0x13
 1769 0125 00       		.byte	0
 1770 0126 00       		.byte	0
 1771 0127 16       		.uleb128 0x16
 1772 0128 21       		.uleb128 0x21
 1773 0129 00       		.byte	0
 1774 012a 49       		.uleb128 0x49
 1775 012b 13       		.uleb128 0x13
 1776 012c 2F       		.uleb128 0x2f
 1777 012d 0B       		.uleb128 0xb
 1778 012e 00       		.byte	0
 1779 012f 00       		.byte	0
 1780 0130 17       		.uleb128 0x17
 1781 0131 34       		.uleb128 0x34
 1782 0132 00       		.byte	0
 1783 0133 03       		.uleb128 0x3
 1784 0134 0E       		.uleb128 0xe
 1785 0135 3A       		.uleb128 0x3a
 1786 0136 0B       		.uleb128 0xb
 1787 0137 3B       		.uleb128 0x3b
 1788 0138 0B       		.uleb128 0xb
 1789 0139 49       		.uleb128 0x49
 1790 013a 13       		.uleb128 0x13
 1791 013b 02       		.uleb128 0x2
 1792 013c 18       		.uleb128 0x18
 1793 013d 00       		.byte	0
 1794 013e 00       		.byte	0
 1795 013f 18       		.uleb128 0x18
 1796 0140 34       		.uleb128 0x34
 1797 0141 00       		.byte	0
 1798 0142 03       		.uleb128 0x3
 1799 0143 0E       		.uleb128 0xe
 1800 0144 3A       		.uleb128 0x3a
 1801 0145 0B       		.uleb128 0xb
 1802 0146 3B       		.uleb128 0x3b
 1803 0147 05       		.uleb128 0x5
 1804 0148 49       		.uleb128 0x49
 1805 0149 13       		.uleb128 0x13
 1806 014a 3F       		.uleb128 0x3f
 1807 014b 19       		.uleb128 0x19
 1808 014c 3C       		.uleb128 0x3c
 1809 014d 19       		.uleb128 0x19
 1810 014e 00       		.byte	0
 1811 014f 00       		.byte	0
 1812 0150 19       		.uleb128 0x19
 1813 0151 2E       		.uleb128 0x2e
 1814 0152 00       		.byte	0
 1815 0153 3F       		.uleb128 0x3f
 1816 0154 19       		.uleb128 0x19
ARM GAS  /var/folders/6q/x_mk5n_j3p7_c40r_2k_78980000gn/T//ccQ0DOJS.s 			page 33


 1817 0155 3C       		.uleb128 0x3c
 1818 0156 19       		.uleb128 0x19
 1819 0157 6E       		.uleb128 0x6e
 1820 0158 0E       		.uleb128 0xe
 1821 0159 03       		.uleb128 0x3
 1822 015a 0E       		.uleb128 0xe
 1823 015b 3A       		.uleb128 0x3a
 1824 015c 0B       		.uleb128 0xb
 1825 015d 3B       		.uleb128 0x3b
 1826 015e 0B       		.uleb128 0xb
 1827 015f 00       		.byte	0
 1828 0160 00       		.byte	0
 1829 0161 00       		.byte	0
 1830              		.section	.debug_loc,"",%progbits
 1831              	.Ldebug_loc0:
 1832              	.LLST0:
 1833 0000 00000000 		.4byte	.LVL0
 1834 0004 14000000 		.4byte	.LVL2
 1835 0008 0100     		.2byte	0x1
 1836 000a 50       		.byte	0x50
 1837 000b 14000000 		.4byte	.LVL2
 1838 000f 20010000 		.4byte	.LVL27
 1839 0013 0400     		.2byte	0x4
 1840 0015 F3       		.byte	0xf3
 1841 0016 01       		.uleb128 0x1
 1842 0017 50       		.byte	0x50
 1843 0018 9F       		.byte	0x9f
 1844 0019 20010000 		.4byte	.LVL27
 1845 001d 24010000 		.4byte	.LVL28
 1846 0021 0100     		.2byte	0x1
 1847 0023 50       		.byte	0x50
 1848 0024 24010000 		.4byte	.LVL28
 1849 0028 28010000 		.4byte	.LVL29
 1850 002c 0400     		.2byte	0x4
 1851 002e F3       		.byte	0xf3
 1852 002f 01       		.uleb128 0x1
 1853 0030 50       		.byte	0x50
 1854 0031 9F       		.byte	0x9f
 1855 0032 28010000 		.4byte	.LVL29
 1856 0036 2E010000 		.4byte	.LVL30
 1857 003a 0100     		.2byte	0x1
 1858 003c 50       		.byte	0x50
 1859 003d 2E010000 		.4byte	.LVL30
 1860 0041 34010000 		.4byte	.LFE63
 1861 0045 0400     		.2byte	0x4
 1862 0047 F3       		.byte	0xf3
 1863 0048 01       		.uleb128 0x1
 1864 0049 50       		.byte	0x50
 1865 004a 9F       		.byte	0x9f
 1866 004b 00000000 		.4byte	0
 1867 004f 00000000 		.4byte	0
 1868              	.LLST1:
 1869 0053 00000000 		.4byte	.LVL0
 1870 0057 20000000 		.4byte	.LVL3
 1871 005b 0100     		.2byte	0x1
 1872 005d 51       		.byte	0x51
 1873 005e 20000000 		.4byte	.LVL3
ARM GAS  /var/folders/6q/x_mk5n_j3p7_c40r_2k_78980000gn/T//ccQ0DOJS.s 			page 34


 1874 0062 20010000 		.4byte	.LVL27
 1875 0066 0400     		.2byte	0x4
 1876 0068 F3       		.byte	0xf3
 1877 0069 01       		.uleb128 0x1
 1878 006a 51       		.byte	0x51
 1879 006b 9F       		.byte	0x9f
 1880 006c 20010000 		.4byte	.LVL27
 1881 0070 24010000 		.4byte	.LVL28
 1882 0074 0100     		.2byte	0x1
 1883 0076 51       		.byte	0x51
 1884 0077 24010000 		.4byte	.LVL28
 1885 007b 28010000 		.4byte	.LVL29
 1886 007f 0400     		.2byte	0x4
 1887 0081 F3       		.byte	0xf3
 1888 0082 01       		.uleb128 0x1
 1889 0083 51       		.byte	0x51
 1890 0084 9F       		.byte	0x9f
 1891 0085 28010000 		.4byte	.LVL29
 1892 0089 34010000 		.4byte	.LFE63
 1893 008d 0100     		.2byte	0x1
 1894 008f 51       		.byte	0x51
 1895 0090 00000000 		.4byte	0
 1896 0094 00000000 		.4byte	0
 1897              	.LLST2:
 1898 0098 0E000000 		.4byte	.LVL1
 1899 009c 14000000 		.4byte	.LVL2
 1900 00a0 0100     		.2byte	0x1
 1901 00a2 50       		.byte	0x50
 1902 00a3 20010000 		.4byte	.LVL27
 1903 00a7 24010000 		.4byte	.LVL28
 1904 00ab 0100     		.2byte	0x1
 1905 00ad 50       		.byte	0x50
 1906 00ae 00000000 		.4byte	0
 1907 00b2 00000000 		.4byte	0
 1908              	.LLST3:
 1909 00b6 0E000000 		.4byte	.LVL1
 1910 00ba 14000000 		.4byte	.LVL2
 1911 00be 0100     		.2byte	0x1
 1912 00c0 50       		.byte	0x50
 1913 00c1 20000000 		.4byte	.LVL3
 1914 00c5 38000000 		.4byte	.LVL4
 1915 00c9 0300     		.2byte	0x3
 1916 00cb 75       		.byte	0x75
 1917 00cc 7A       		.sleb128 -6
 1918 00cd 9F       		.byte	0x9f
 1919 00ce 38000000 		.4byte	.LVL4
 1920 00d2 58000000 		.4byte	.LVL5
 1921 00d6 0100     		.2byte	0x1
 1922 00d8 55       		.byte	0x55
 1923 00d9 58000000 		.4byte	.LVL5
 1924 00dd 20010000 		.4byte	.LVL27
 1925 00e1 0300     		.2byte	0x3
 1926 00e3 75       		.byte	0x75
 1927 00e4 7A       		.sleb128 -6
 1928 00e5 9F       		.byte	0x9f
 1929 00e6 20010000 		.4byte	.LVL27
 1930 00ea 24010000 		.4byte	.LVL28
ARM GAS  /var/folders/6q/x_mk5n_j3p7_c40r_2k_78980000gn/T//ccQ0DOJS.s 			page 35


 1931 00ee 0100     		.2byte	0x1
 1932 00f0 50       		.byte	0x50
 1933 00f1 24010000 		.4byte	.LVL28
 1934 00f5 28010000 		.4byte	.LVL29
 1935 00f9 0300     		.2byte	0x3
 1936 00fb 75       		.byte	0x75
 1937 00fc 7A       		.sleb128 -6
 1938 00fd 9F       		.byte	0x9f
 1939 00fe 00000000 		.4byte	0
 1940 0102 00000000 		.4byte	0
 1941              	.LLST4:
 1942 0106 88000000 		.4byte	.LVL9
 1943 010a 8A000000 		.4byte	.LVL10
 1944 010e 0300     		.2byte	0x3
 1945 0110 7A       		.byte	0x7a
 1946 0111 7A       		.sleb128 -6
 1947 0112 9F       		.byte	0x9f
 1948 0113 8A000000 		.4byte	.LVL10
 1949 0117 92000000 		.4byte	.LVL11
 1950 011b 0100     		.2byte	0x1
 1951 011d 5A       		.byte	0x5a
 1952 011e 92000000 		.4byte	.LVL11
 1953 0122 BA000000 		.4byte	.LVL14
 1954 0126 0300     		.2byte	0x3
 1955 0128 7A       		.byte	0x7a
 1956 0129 7A       		.sleb128 -6
 1957 012a 9F       		.byte	0x9f
 1958 012b BA000000 		.4byte	.LVL14
 1959 012f C0000000 		.4byte	.LVL15
 1960 0133 0100     		.2byte	0x1
 1961 0135 5A       		.byte	0x5a
 1962 0136 C0000000 		.4byte	.LVL15
 1963 013a C2000000 		.4byte	.LVL16
 1964 013e 0300     		.2byte	0x3
 1965 0140 7A       		.byte	0x7a
 1966 0141 7A       		.sleb128 -6
 1967 0142 9F       		.byte	0x9f
 1968 0143 D0000000 		.4byte	.LVL18
 1969 0147 D2000000 		.4byte	.LVL19
 1970 014b 0300     		.2byte	0x3
 1971 014d 7A       		.byte	0x7a
 1972 014e 7A       		.sleb128 -6
 1973 014f 9F       		.byte	0x9f
 1974 0150 D2000000 		.4byte	.LVL19
 1975 0154 DA000000 		.4byte	.LVL20
 1976 0158 0100     		.2byte	0x1
 1977 015a 5A       		.byte	0x5a
 1978 015b DA000000 		.4byte	.LVL20
 1979 015f 02010000 		.4byte	.LVL23
 1980 0163 0300     		.2byte	0x3
 1981 0165 7A       		.byte	0x7a
 1982 0166 7A       		.sleb128 -6
 1983 0167 9F       		.byte	0x9f
 1984 0168 02010000 		.4byte	.LVL23
 1985 016c 08010000 		.4byte	.LVL24
 1986 0170 0100     		.2byte	0x1
 1987 0172 5A       		.byte	0x5a
ARM GAS  /var/folders/6q/x_mk5n_j3p7_c40r_2k_78980000gn/T//ccQ0DOJS.s 			page 36


 1988 0173 08010000 		.4byte	.LVL24
 1989 0177 0A010000 		.4byte	.LVL25
 1990 017b 0300     		.2byte	0x3
 1991 017d 7A       		.byte	0x7a
 1992 017e 7A       		.sleb128 -6
 1993 017f 9F       		.byte	0x9f
 1994 0180 00000000 		.4byte	0
 1995 0184 00000000 		.4byte	0
 1996              	.LLST5:
 1997 0188 0E000000 		.4byte	.LVL1
 1998 018c 20000000 		.4byte	.LVL3
 1999 0190 0200     		.2byte	0x2
 2000 0192 30       		.byte	0x30
 2001 0193 9F       		.byte	0x9f
 2002 0194 20000000 		.4byte	.LVL3
 2003 0198 20010000 		.4byte	.LVL27
 2004 019c 0100     		.2byte	0x1
 2005 019e 59       		.byte	0x59
 2006 019f 20010000 		.4byte	.LVL27
 2007 01a3 24010000 		.4byte	.LVL28
 2008 01a7 0200     		.2byte	0x2
 2009 01a9 30       		.byte	0x30
 2010 01aa 9F       		.byte	0x9f
 2011 01ab 24010000 		.4byte	.LVL28
 2012 01af 28010000 		.4byte	.LVL29
 2013 01b3 0100     		.2byte	0x1
 2014 01b5 59       		.byte	0x59
 2015 01b6 00000000 		.4byte	0
 2016 01ba 00000000 		.4byte	0
 2017              	.LLST6:
 2018 01be 88000000 		.4byte	.LVL9
 2019 01c2 AA000000 		.4byte	.LVL13
 2020 01c6 0100     		.2byte	0x1
 2021 01c8 54       		.byte	0x54
 2022 01c9 CA000000 		.4byte	.LVL17
 2023 01cd D0000000 		.4byte	.LVL18
 2024 01d1 0200     		.2byte	0x2
 2025 01d3 30       		.byte	0x30
 2026 01d4 9F       		.byte	0x9f
 2027 01d5 D0000000 		.4byte	.LVL18
 2028 01d9 F2000000 		.4byte	.LVL22
 2029 01dd 0100     		.2byte	0x1
 2030 01df 54       		.byte	0x54
 2031 01e0 00000000 		.4byte	0
 2032 01e4 00000000 		.4byte	0
 2033              	.LLST7:
 2034 01e8 0E000000 		.4byte	.LVL1
 2035 01ec 14000000 		.4byte	.LVL2
 2036 01f0 0100     		.2byte	0x1
 2037 01f2 51       		.byte	0x51
 2038 01f3 14000000 		.4byte	.LVL2
 2039 01f7 20010000 		.4byte	.LVL27
 2040 01fb 0100     		.2byte	0x1
 2041 01fd 56       		.byte	0x56
 2042 01fe 20010000 		.4byte	.LVL27
 2043 0202 24010000 		.4byte	.LVL28
 2044 0206 0100     		.2byte	0x1
ARM GAS  /var/folders/6q/x_mk5n_j3p7_c40r_2k_78980000gn/T//ccQ0DOJS.s 			page 37


 2045 0208 51       		.byte	0x51
 2046 0209 24010000 		.4byte	.LVL28
 2047 020d 28010000 		.4byte	.LVL29
 2048 0211 0100     		.2byte	0x1
 2049 0213 56       		.byte	0x56
 2050 0214 00000000 		.4byte	0
 2051 0218 00000000 		.4byte	0
 2052              	.LLST8:
 2053 021c 00000000 		.4byte	.LVL31
 2054 0220 0A000000 		.4byte	.LVL32
 2055 0224 0100     		.2byte	0x1
 2056 0226 50       		.byte	0x50
 2057 0227 0A000000 		.4byte	.LVL32
 2058 022b 12000000 		.4byte	.LVL33
 2059 022f 0400     		.2byte	0x4
 2060 0231 F3       		.byte	0xf3
 2061 0232 01       		.uleb128 0x1
 2062 0233 50       		.byte	0x50
 2063 0234 9F       		.byte	0x9f
 2064 0235 12000000 		.4byte	.LVL33
 2065 0239 14000000 		.4byte	.LVL34
 2066 023d 0100     		.2byte	0x1
 2067 023f 50       		.byte	0x50
 2068 0240 14000000 		.4byte	.LVL34
 2069 0244 1C000000 		.4byte	.LFE64
 2070 0248 0400     		.2byte	0x4
 2071 024a F3       		.byte	0xf3
 2072 024b 01       		.uleb128 0x1
 2073 024c 50       		.byte	0x50
 2074 024d 9F       		.byte	0x9f
 2075 024e 00000000 		.4byte	0
 2076 0252 00000000 		.4byte	0
 2077              	.LLST9:
 2078 0256 00000000 		.4byte	.LVL35
 2079 025a 26000000 		.4byte	.LVL36
 2080 025e 0100     		.2byte	0x1
 2081 0260 50       		.byte	0x50
 2082 0261 26000000 		.4byte	.LVL36
 2083 0265 2A000000 		.4byte	.LVL37
 2084 0269 0400     		.2byte	0x4
 2085 026b F3       		.byte	0xf3
 2086 026c 01       		.uleb128 0x1
 2087 026d 50       		.byte	0x50
 2088 026e 9F       		.byte	0x9f
 2089 026f 2A000000 		.4byte	.LVL37
 2090 0273 2C000000 		.4byte	.LVL38
 2091 0277 0100     		.2byte	0x1
 2092 0279 50       		.byte	0x50
 2093 027a 2C000000 		.4byte	.LVL38
 2094 027e 30000000 		.4byte	.LVL39
 2095 0282 0400     		.2byte	0x4
 2096 0284 F3       		.byte	0xf3
 2097 0285 01       		.uleb128 0x1
 2098 0286 50       		.byte	0x50
 2099 0287 9F       		.byte	0x9f
 2100 0288 30000000 		.4byte	.LVL39
 2101 028c 32000000 		.4byte	.LVL40
ARM GAS  /var/folders/6q/x_mk5n_j3p7_c40r_2k_78980000gn/T//ccQ0DOJS.s 			page 38


 2102 0290 0100     		.2byte	0x1
 2103 0292 50       		.byte	0x50
 2104 0293 32000000 		.4byte	.LVL40
 2105 0297 48000000 		.4byte	.LVL41
 2106 029b 0400     		.2byte	0x4
 2107 029d F3       		.byte	0xf3
 2108 029e 01       		.uleb128 0x1
 2109 029f 50       		.byte	0x50
 2110 02a0 9F       		.byte	0x9f
 2111 02a1 48000000 		.4byte	.LVL41
 2112 02a5 4A000000 		.4byte	.LVL42
 2113 02a9 0100     		.2byte	0x1
 2114 02ab 50       		.byte	0x50
 2115 02ac 4A000000 		.4byte	.LVL42
 2116 02b0 60000000 		.4byte	.LVL43
 2117 02b4 0400     		.2byte	0x4
 2118 02b6 F3       		.byte	0xf3
 2119 02b7 01       		.uleb128 0x1
 2120 02b8 50       		.byte	0x50
 2121 02b9 9F       		.byte	0x9f
 2122 02ba 60000000 		.4byte	.LVL43
 2123 02be 62000000 		.4byte	.LVL44
 2124 02c2 0100     		.2byte	0x1
 2125 02c4 50       		.byte	0x50
 2126 02c5 62000000 		.4byte	.LVL44
 2127 02c9 78000000 		.4byte	.LVL45
 2128 02cd 0400     		.2byte	0x4
 2129 02cf F3       		.byte	0xf3
 2130 02d0 01       		.uleb128 0x1
 2131 02d1 50       		.byte	0x50
 2132 02d2 9F       		.byte	0x9f
 2133 02d3 78000000 		.4byte	.LVL45
 2134 02d7 7A000000 		.4byte	.LVL46
 2135 02db 0100     		.2byte	0x1
 2136 02dd 50       		.byte	0x50
 2137 02de 7A000000 		.4byte	.LVL46
 2138 02e2 7E000000 		.4byte	.LVL47
 2139 02e6 0400     		.2byte	0x4
 2140 02e8 F3       		.byte	0xf3
 2141 02e9 01       		.uleb128 0x1
 2142 02ea 50       		.byte	0x50
 2143 02eb 9F       		.byte	0x9f
 2144 02ec 7E000000 		.4byte	.LVL47
 2145 02f0 80000000 		.4byte	.LVL48
 2146 02f4 0100     		.2byte	0x1
 2147 02f6 50       		.byte	0x50
 2148 02f7 80000000 		.4byte	.LVL48
 2149 02fb 84000000 		.4byte	.LVL49
 2150 02ff 0400     		.2byte	0x4
 2151 0301 F3       		.byte	0xf3
 2152 0302 01       		.uleb128 0x1
 2153 0303 50       		.byte	0x50
 2154 0304 9F       		.byte	0x9f
 2155 0305 84000000 		.4byte	.LVL49
 2156 0309 86000000 		.4byte	.LVL50
 2157 030d 0100     		.2byte	0x1
 2158 030f 50       		.byte	0x50
ARM GAS  /var/folders/6q/x_mk5n_j3p7_c40r_2k_78980000gn/T//ccQ0DOJS.s 			page 39


 2159 0310 86000000 		.4byte	.LVL50
 2160 0314 AC000000 		.4byte	.LFE65
 2161 0318 0400     		.2byte	0x4
 2162 031a F3       		.byte	0xf3
 2163 031b 01       		.uleb128 0x1
 2164 031c 50       		.byte	0x50
 2165 031d 9F       		.byte	0x9f
 2166 031e 00000000 		.4byte	0
 2167 0322 00000000 		.4byte	0
 2168              	.LLST10:
 2169 0326 00000000 		.4byte	.LVL35
 2170 032a 78000000 		.4byte	.LVL45
 2171 032e 0200     		.2byte	0x2
 2172 0330 30       		.byte	0x30
 2173 0331 9F       		.byte	0x9f
 2174 0332 78000000 		.4byte	.LVL45
 2175 0336 7E000000 		.4byte	.LVL47
 2176 033a 0600     		.2byte	0x6
 2177 033c 03       		.byte	0x3
 2178 033d 38000000 		.4byte	.LC7
 2179 0341 9F       		.byte	0x9f
 2180 0342 7E000000 		.4byte	.LVL47
 2181 0346 84000000 		.4byte	.LVL49
 2182 034a 0600     		.2byte	0x6
 2183 034c 03       		.byte	0x3
 2184 034d 28000000 		.4byte	.LC5
 2185 0351 9F       		.byte	0x9f
 2186 0352 84000000 		.4byte	.LVL49
 2187 0356 AC000000 		.4byte	.LFE65
 2188 035a 0200     		.2byte	0x2
 2189 035c 30       		.byte	0x30
 2190 035d 9F       		.byte	0x9f
 2191 035e 00000000 		.4byte	0
 2192 0362 00000000 		.4byte	0
 2193              	.LLST11:
 2194 0366 00000000 		.4byte	.LVL51
 2195 036a 0A000000 		.4byte	.LVL52
 2196 036e 0100     		.2byte	0x1
 2197 0370 50       		.byte	0x50
 2198 0371 0A000000 		.4byte	.LVL52
 2199 0375 12000000 		.4byte	.LVL53
 2200 0379 0400     		.2byte	0x4
 2201 037b F3       		.byte	0xf3
 2202 037c 01       		.uleb128 0x1
 2203 037d 50       		.byte	0x50
 2204 037e 9F       		.byte	0x9f
 2205 037f 12000000 		.4byte	.LVL53
 2206 0383 14000000 		.4byte	.LVL54
 2207 0387 0100     		.2byte	0x1
 2208 0389 50       		.byte	0x50
 2209 038a 14000000 		.4byte	.LVL54
 2210 038e 1C000000 		.4byte	.LFE66
 2211 0392 0400     		.2byte	0x4
 2212 0394 F3       		.byte	0xf3
 2213 0395 01       		.uleb128 0x1
 2214 0396 50       		.byte	0x50
 2215 0397 9F       		.byte	0x9f
ARM GAS  /var/folders/6q/x_mk5n_j3p7_c40r_2k_78980000gn/T//ccQ0DOJS.s 			page 40


 2216 0398 00000000 		.4byte	0
 2217 039c 00000000 		.4byte	0
 2218              	.LLST12:
 2219 03a0 00000000 		.4byte	.LVL55
 2220 03a4 0A000000 		.4byte	.LVL56
 2221 03a8 0100     		.2byte	0x1
 2222 03aa 50       		.byte	0x50
 2223 03ab 0A000000 		.4byte	.LVL56
 2224 03af 12000000 		.4byte	.LVL57
 2225 03b3 0400     		.2byte	0x4
 2226 03b5 F3       		.byte	0xf3
 2227 03b6 01       		.uleb128 0x1
 2228 03b7 50       		.byte	0x50
 2229 03b8 9F       		.byte	0x9f
 2230 03b9 12000000 		.4byte	.LVL57
 2231 03bd 14000000 		.4byte	.LVL58
 2232 03c1 0100     		.2byte	0x1
 2233 03c3 50       		.byte	0x50
 2234 03c4 14000000 		.4byte	.LVL58
 2235 03c8 1C000000 		.4byte	.LFE67
 2236 03cc 0400     		.2byte	0x4
 2237 03ce F3       		.byte	0xf3
 2238 03cf 01       		.uleb128 0x1
 2239 03d0 50       		.byte	0x50
 2240 03d1 9F       		.byte	0x9f
 2241 03d2 00000000 		.4byte	0
 2242 03d6 00000000 		.4byte	0
 2243              	.LLST13:
 2244 03da 00000000 		.4byte	.LVL59
 2245 03de 1C000000 		.4byte	.LVL61
 2246 03e2 0100     		.2byte	0x1
 2247 03e4 50       		.byte	0x50
 2248 03e5 1C000000 		.4byte	.LVL61
 2249 03e9 BA000000 		.4byte	.LVL75
 2250 03ed 0400     		.2byte	0x4
 2251 03ef F3       		.byte	0xf3
 2252 03f0 01       		.uleb128 0x1
 2253 03f1 50       		.byte	0x50
 2254 03f2 9F       		.byte	0x9f
 2255 03f3 BA000000 		.4byte	.LVL75
 2256 03f7 D4000000 		.4byte	.LFE68
 2257 03fb 0100     		.2byte	0x1
 2258 03fd 50       		.byte	0x50
 2259 03fe 00000000 		.4byte	0
 2260 0402 00000000 		.4byte	0
 2261              	.LLST14:
 2262 0406 00000000 		.4byte	.LVL59
 2263 040a 1C000000 		.4byte	.LVL61
 2264 040e 0100     		.2byte	0x1
 2265 0410 51       		.byte	0x51
 2266 0411 1C000000 		.4byte	.LVL61
 2267 0415 BA000000 		.4byte	.LVL75
 2268 0419 0400     		.2byte	0x4
 2269 041b F3       		.byte	0xf3
 2270 041c 01       		.uleb128 0x1
 2271 041d 51       		.byte	0x51
 2272 041e 9F       		.byte	0x9f
ARM GAS  /var/folders/6q/x_mk5n_j3p7_c40r_2k_78980000gn/T//ccQ0DOJS.s 			page 41


 2273 041f BA000000 		.4byte	.LVL75
 2274 0423 D4000000 		.4byte	.LFE68
 2275 0427 0100     		.2byte	0x1
 2276 0429 51       		.byte	0x51
 2277 042a 00000000 		.4byte	0
 2278 042e 00000000 		.4byte	0
 2279              	.LLST15:
 2280 0432 04000000 		.4byte	.LVL60
 2281 0436 1C000000 		.4byte	.LVL61
 2282 043a 0100     		.2byte	0x1
 2283 043c 50       		.byte	0x50
 2284 043d 1C000000 		.4byte	.LVL61
 2285 0441 62000000 		.4byte	.LVL66
 2286 0445 0300     		.2byte	0x3
 2287 0447 74       		.byte	0x74
 2288 0448 7A       		.sleb128 -6
 2289 0449 9F       		.byte	0x9f
 2290 044a 62000000 		.4byte	.LVL66
 2291 044e 64000000 		.4byte	.LVL67
 2292 0452 0100     		.2byte	0x1
 2293 0454 54       		.byte	0x54
 2294 0455 64000000 		.4byte	.LVL67
 2295 0459 A6000000 		.4byte	.LVL73
 2296 045d 0300     		.2byte	0x3
 2297 045f 74       		.byte	0x74
 2298 0460 7A       		.sleb128 -6
 2299 0461 9F       		.byte	0x9f
 2300 0462 A6000000 		.4byte	.LVL73
 2301 0466 B4000000 		.4byte	.LVL74
 2302 046a 0300     		.2byte	0x3
 2303 046c 74       		.byte	0x74
 2304 046d 74       		.sleb128 -12
 2305 046e 9F       		.byte	0x9f
 2306 046f 00000000 		.4byte	0
 2307 0473 00000000 		.4byte	0
 2308              	.LLST16:
 2309 0477 04000000 		.4byte	.LVL60
 2310 047b 1C000000 		.4byte	.LVL61
 2311 047f 0200     		.2byte	0x2
 2312 0481 30       		.byte	0x30
 2313 0482 9F       		.byte	0x9f
 2314 0483 00000000 		.4byte	0
 2315 0487 00000000 		.4byte	0
 2316              		.section	.debug_aranges,"",%progbits
 2317 0000 44000000 		.4byte	0x44
 2318 0004 0200     		.2byte	0x2
 2319 0006 00000000 		.4byte	.Ldebug_info0
 2320 000a 04       		.byte	0x4
 2321 000b 00       		.byte	0
 2322 000c 0000     		.2byte	0
 2323 000e 0000     		.2byte	0
 2324 0010 00000000 		.4byte	.LFB63
 2325 0014 34010000 		.4byte	.LFE63-.LFB63
 2326 0018 00000000 		.4byte	.LFB64
 2327 001c 1C000000 		.4byte	.LFE64-.LFB64
 2328 0020 00000000 		.4byte	.LFB65
 2329 0024 AC000000 		.4byte	.LFE65-.LFB65
ARM GAS  /var/folders/6q/x_mk5n_j3p7_c40r_2k_78980000gn/T//ccQ0DOJS.s 			page 42


 2330 0028 00000000 		.4byte	.LFB66
 2331 002c 1C000000 		.4byte	.LFE66-.LFB66
 2332 0030 00000000 		.4byte	.LFB67
 2333 0034 1C000000 		.4byte	.LFE67-.LFB67
 2334 0038 00000000 		.4byte	.LFB68
 2335 003c D4000000 		.4byte	.LFE68-.LFB68
 2336 0040 00000000 		.4byte	0
 2337 0044 00000000 		.4byte	0
 2338              		.section	.debug_ranges,"",%progbits
 2339              	.Ldebug_ranges0:
 2340 0000 00000000 		.4byte	.LFB63
 2341 0004 34010000 		.4byte	.LFE63
 2342 0008 00000000 		.4byte	.LFB64
 2343 000c 1C000000 		.4byte	.LFE64
 2344 0010 00000000 		.4byte	.LFB65
 2345 0014 AC000000 		.4byte	.LFE65
 2346 0018 00000000 		.4byte	.LFB66
 2347 001c 1C000000 		.4byte	.LFE66
 2348 0020 00000000 		.4byte	.LFB67
 2349 0024 1C000000 		.4byte	.LFE67
 2350 0028 00000000 		.4byte	.LFB68
 2351 002c D4000000 		.4byte	.LFE68
 2352 0030 00000000 		.4byte	0
 2353 0034 00000000 		.4byte	0
 2354              		.section	.debug_line,"",%progbits
 2355              	.Ldebug_line0:
 2356 0000 01030000 		.section	.debug_str,"MS",%progbits,1
 2356      0200CA01 
 2356      00000201 
 2356      FB0E0D00 
 2356      01010101 
 2357              	.LASF87:
 2358 0000 5F766578 		.ascii	"_vexDigiCfg\000"
 2358      44696769 
 2358      43666700 
 2359              	.LASF111:
 2360 000c 76657849 		.ascii	"vexImeSetType\000"
 2360      6D655365 
 2360      74547970 
 2360      6500
 2361              	.LASF38:
 2362 001a 6B566578 		.ascii	"kVexMotor269\000"
 2362      4D6F746F 
 2362      72323639 
 2362      00
 2363              	.LASF77:
 2364 0027 6B566578 		.ascii	"kVexConfigOutput\000"
 2364      436F6E66 
 2364      69674F75 
 2364      74707574 
 2364      00
 2365              	.LASF84:
 2366 0038 74797065 		.ascii	"type\000"
 2366      00
 2367              	.LASF67:
 2368 003d 6B566578 		.ascii	"kVexSensorDigitalInput\000"
 2368      53656E73 
ARM GAS  /var/folders/6q/x_mk5n_j3p7_c40r_2k_78980000gn/T//ccQ0DOJS.s 			page 43


 2368      6F724469 
 2368      67697461 
 2368      6C496E70 
 2369              	.LASF95:
 2370 0054 6366675F 		.ascii	"cfg_num\000"
 2370      6E756D00 
 2371              	.LASF36:
 2372 005c 6B566578 		.ascii	"kVexDigitalOutput\000"
 2372      44696769 
 2372      74616C4F 
 2372      75747075 
 2372      7400
 2373              	.LASF12:
 2374 006e 6C6F6E67 		.ascii	"long long unsigned int\000"
 2374      206C6F6E 
 2374      6720756E 
 2374      7369676E 
 2374      65642069 
 2375              	.LASF33:
 2376 0085 6B566578 		.ascii	"kVexDigital_Num\000"
 2376      44696769 
 2376      74616C5F 
 2376      4E756D00 
 2377              	.LASF120:
 2378 0095 49544D5F 		.ascii	"ITM_RxBuffer\000"
 2378      52784275 
 2378      66666572 
 2378      00
 2379              	.LASF82:
 2380 00a2 6B566578 		.ascii	"kVexConfigInterrupt\000"
 2380      436F6E66 
 2380      6967496E 
 2380      74657272 
 2380      75707400 
 2381              	.LASF107:
 2382 00b6 76657845 		.ascii	"vexEncoderAdd\000"
 2382      6E636F64 
 2382      65724164 
 2382      6400
 2383              	.LASF13:
 2384 00c4 696E7431 		.ascii	"int16_t\000"
 2384      365F7400 
 2385              	.LASF1:
 2386 00cc 6C6F6E67 		.ascii	"long long int\000"
 2386      206C6F6E 
 2386      6720696E 
 2386      7400
 2387              	.LASF3:
 2388 00da 7369676E 		.ascii	"signed char\000"
 2388      65642063 
 2388      68617200 
 2389              	.LASF16:
 2390 00e6 626F6F6C 		.ascii	"bool_t\000"
 2390      5F7400
 2391              	.LASF110:
 2392 00ed 76657849 		.ascii	"vexImeSetMotor\000"
 2392      6D655365 
ARM GAS  /var/folders/6q/x_mk5n_j3p7_c40r_2k_78980000gn/T//ccQ0DOJS.s 			page 44


 2392      744D6F74 
 2392      6F7200
 2393              	.LASF10:
 2394 00fc 6C6F6E67 		.ascii	"long int\000"
 2394      20696E74 
 2394      00
 2395              	.LASF20:
 2396 0105 6B566578 		.ascii	"kVexDigital_None\000"
 2396      44696769 
 2396      74616C5F 
 2396      4E6F6E65 
 2396      00
 2397              	.LASF14:
 2398 0116 75696E74 		.ascii	"uint16_t\000"
 2398      31365F74 
 2398      00
 2399              	.LASF115:
 2400 011f 7665784D 		.ascii	"vexMotorTypeSet\000"
 2400      6F746F72 
 2400      54797065 
 2400      53657400 
 2401              	.LASF53:
 2402 012f 6B566578 		.ascii	"kVexMotor_10\000"
 2402      4D6F746F 
 2402      725F3130 
 2402      00
 2403              	.LASF29:
 2404 013c 6B566578 		.ascii	"kVexDigital_9\000"
 2404      44696769 
 2404      74616C5F 
 2404      3900
 2405              	.LASF90:
 2406 014a 6D747970 		.ascii	"mtype\000"
 2406      6500
 2407              	.LASF92:
 2408 0150 73747970 		.ascii	"stype\000"
 2408      6500
 2409              	.LASF68:
 2410 0156 6B566578 		.ascii	"kVexSensorDigitalOutput\000"
 2410      53656E73 
 2410      6F724469 
 2410      67697461 
 2410      6C4F7574 
 2411              	.LASF66:
 2412 016e 6B566578 		.ascii	"kVexSensorNone\000"
 2412      53656E73 
 2412      6F724E6F 
 2412      6E6500
 2413              	.LASF64:
 2414 017d 6B496D65 		.ascii	"kImeTotal\000"
 2414      546F7461 
 2414      6C00
 2415              	.LASF78:
 2416 0187 6B566578 		.ascii	"kVexConfigQuadEnc1\000"
 2416      436F6E66 
 2416      69675175 
 2416      6164456E 
ARM GAS  /var/folders/6q/x_mk5n_j3p7_c40r_2k_78980000gn/T//ccQ0DOJS.s 			page 45


 2416      633100
 2417              	.LASF79:
 2418 019a 6B566578 		.ascii	"kVexConfigQuadEnc2\000"
 2418      436F6E66 
 2418      69675175 
 2418      6164456E 
 2418      633200
 2419              	.LASF109:
 2420 01ad 76657844 		.ascii	"vexDigitalIntrSet\000"
 2420      69676974 
 2420      616C496E 
 2420      74725365 
 2420      7400
 2421              	.LASF0:
 2422 01bf 756E7369 		.ascii	"unsigned int\000"
 2422      676E6564 
 2422      20696E74 
 2422      00
 2423              	.LASF83:
 2424 01cc 74566578 		.ascii	"tVexDigitalConfig\000"
 2424      44696769 
 2424      74616C43 
 2424      6F6E6669 
 2424      6700
 2425              	.LASF44:
 2426 01de 6B566578 		.ascii	"kVexMotor_1\000"
 2426      4D6F746F 
 2426      725F3100 
 2427              	.LASF45:
 2428 01ea 6B566578 		.ascii	"kVexMotor_2\000"
 2428      4D6F746F 
 2428      725F3200 
 2429              	.LASF46:
 2430 01f6 6B566578 		.ascii	"kVexMotor_3\000"
 2430      4D6F746F 
 2430      725F3300 
 2431              	.LASF47:
 2432 0202 6B566578 		.ascii	"kVexMotor_4\000"
 2432      4D6F746F 
 2432      725F3400 
 2433              	.LASF48:
 2434 020e 6B566578 		.ascii	"kVexMotor_5\000"
 2434      4D6F746F 
 2434      725F3500 
 2435              	.LASF49:
 2436 021a 6B566578 		.ascii	"kVexMotor_6\000"
 2436      4D6F746F 
 2436      725F3600 
 2437              	.LASF50:
 2438 0226 6B566578 		.ascii	"kVexMotor_7\000"
 2438      4D6F746F 
 2438      725F3700 
 2439              	.LASF51:
 2440 0232 6B566578 		.ascii	"kVexMotor_8\000"
 2440      4D6F746F 
 2440      725F3800 
 2441              	.LASF52:
ARM GAS  /var/folders/6q/x_mk5n_j3p7_c40r_2k_78980000gn/T//ccQ0DOJS.s 			page 46


 2442 023e 6B566578 		.ascii	"kVexMotor_9\000"
 2442      4D6F746F 
 2442      725F3900 
 2443              	.LASF106:
 2444 024a 76657844 		.ascii	"vexDigitalModeSet\000"
 2444      69676974 
 2444      616C4D6F 
 2444      64655365 
 2444      7400
 2445              	.LASF117:
 2446 025c 474E5520 		.ascii	"GNU C11 5.4.1 20160919 (release) [ARM/embedded-5-br"
 2446      43313120 
 2446      352E342E 
 2446      31203230 
 2446      31363039 
 2447 028f 616E6368 		.ascii	"anch revision 240496] -mcpu=cortex-m3 -mno-thumb-in"
 2447      20726576 
 2447      6973696F 
 2447      6E203234 
 2447      30343936 
 2448 02c2 74657277 		.ascii	"terwork -mthumb -ggdb -O2 -fomit-frame-pointer -fal"
 2448      6F726B20 
 2448      2D6D7468 
 2448      756D6220 
 2448      2D676764 
 2449 02f5 69676E2D 		.ascii	"ign-functions=16 -ffunction-sections -fdata-section"
 2449      66756E63 
 2449      74696F6E 
 2449      733D3136 
 2449      202D6666 
 2450 0328 73202D66 		.ascii	"s -fno-common\000"
 2450      6E6F2D63 
 2450      6F6D6D6F 
 2450      6E00
 2451              	.LASF8:
 2452 0336 73686F72 		.ascii	"short unsigned int\000"
 2452      7420756E 
 2452      7369676E 
 2452      65642069 
 2452      6E7400
 2453              	.LASF54:
 2454 0349 6B566578 		.ascii	"kVexMotorNum\000"
 2454      4D6F746F 
 2454      724E756D 
 2454      00
 2455              	.LASF75:
 2456 0356 74566578 		.ascii	"tVexSensorType\000"
 2456      53656E73 
 2456      6F725479 
 2456      706500
 2457              	.LASF89:
 2458 0365 706F7274 		.ascii	"port\000"
 2458      00
 2459              	.LASF101:
 2460 036a 76657844 		.ascii	"vexDigitalChannelGet\000"
 2460      69676974 
 2460      616C4368 
ARM GAS  /var/folders/6q/x_mk5n_j3p7_c40r_2k_78980000gn/T//ccQ0DOJS.s 			page 47


 2460      616E6E65 
 2460      6C476574 
 2461              	.LASF21:
 2462 037f 6B566578 		.ascii	"kVexDigital_1\000"
 2462      44696769 
 2462      74616C5F 
 2462      3100
 2463              	.LASF22:
 2464 038d 6B566578 		.ascii	"kVexDigital_2\000"
 2464      44696769 
 2464      74616C5F 
 2464      3200
 2465              	.LASF23:
 2466 039b 6B566578 		.ascii	"kVexDigital_3\000"
 2466      44696769 
 2466      74616C5F 
 2466      3300
 2467              	.LASF24:
 2468 03a9 6B566578 		.ascii	"kVexDigital_4\000"
 2468      44696769 
 2468      74616C5F 
 2468      3400
 2469              	.LASF25:
 2470 03b7 6B566578 		.ascii	"kVexDigital_5\000"
 2470      44696769 
 2470      74616C5F 
 2470      3500
 2471              	.LASF26:
 2472 03c5 6B566578 		.ascii	"kVexDigital_6\000"
 2472      44696769 
 2472      74616C5F 
 2472      3600
 2473              	.LASF27:
 2474 03d3 6B566578 		.ascii	"kVexDigital_7\000"
 2474      44696769 
 2474      74616C5F 
 2474      3700
 2475              	.LASF28:
 2476 03e1 6B566578 		.ascii	"kVexDigital_8\000"
 2476      44696769 
 2476      74616C5F 
 2476      3800
 2477              	.LASF118:
 2478 03ef 2E2E2F63 		.ascii	"../convex-vexilla/cortex/fw/vexconfig.c\000"
 2478      6F6E7665 
 2478      782D7665 
 2478      78696C6C 
 2478      612F636F 
 2479              	.LASF113:
 2480 0417 7665784D 		.ascii	"vexMotorPositionSetCallback\000"
 2480      6F746F72 
 2480      506F7369 
 2480      74696F6E 
 2480      53657443 
 2481              	.LASF105:
 2482 0433 76657844 		.ascii	"vexDefConfig\000"
 2482      6566436F 
ARM GAS  /var/folders/6q/x_mk5n_j3p7_c40r_2k_78980000gn/T//ccQ0DOJS.s 			page 48


 2482      6E666967 
 2482      00
 2483              	.LASF97:
 2484 0440 5F636667 		.ascii	"_cfg1\000"
 2484      3100
 2485              	.LASF98:
 2486 0446 5F636667 		.ascii	"_cfg2\000"
 2486      3200
 2487              	.LASF55:
 2488 044c 74566578 		.ascii	"tVexMotor\000"
 2488      4D6F746F 
 2488      7200
 2489              	.LASF94:
 2490 0456 7665784D 		.ascii	"vexMotorCfg\000"
 2490      6F746F72 
 2490      43666700 
 2491              	.LASF81:
 2492 0462 6B566578 		.ascii	"kVexConfigSonarIn\000"
 2492      436F6E66 
 2492      6967536F 
 2492      6E617249 
 2492      6E00
 2493              	.LASF18:
 2494 0474 73697A65 		.ascii	"sizetype\000"
 2494      74797065 
 2494      00
 2495              	.LASF116:
 2496 047d 7665784D 		.ascii	"vexMotorDirectionSet\000"
 2496      6F746F72 
 2496      44697265 
 2496      6374696F 
 2496      6E536574 
 2497              	.LASF91:
 2498 0492 72657665 		.ascii	"reversed\000"
 2498      72736564 
 2498      00
 2499              	.LASF2:
 2500 049b 6C6F6E67 		.ascii	"long double\000"
 2500      20646F75 
 2500      626C6500 
 2501              	.LASF99:
 2502 04a7 76657844 		.ascii	"vexDigitalTypeGet\000"
 2502      69676974 
 2502      616C5479 
 2502      70654765 
 2502      7400
 2503              	.LASF102:
 2504 04b9 76657844 		.ascii	"vexDigitalCfgGet\000"
 2504      69676974 
 2504      616C4366 
 2504      67476574 
 2504      00
 2505              	.LASF37:
 2506 04ca 6B566578 		.ascii	"kVexMotorUndefined\000"
 2506      4D6F746F 
 2506      72556E64 
 2506      6566696E 
ARM GAS  /var/folders/6q/x_mk5n_j3p7_c40r_2k_78980000gn/T//ccQ0DOJS.s 			page 49


 2506      656400
 2507              	.LASF41:
 2508 04dd 6B566578 		.ascii	"kVexMotor393R\000"
 2508      4D6F746F 
 2508      72333933 
 2508      5200
 2509              	.LASF40:
 2510 04eb 6B566578 		.ascii	"kVexMotor393S\000"
 2510      4D6F746F 
 2510      72333933 
 2510      5300
 2511              	.LASF39:
 2512 04f9 6B566578 		.ascii	"kVexMotor393T\000"
 2512      4D6F746F 
 2512      72333933 
 2512      5400
 2513              	.LASF72:
 2514 0507 6B566578 		.ascii	"kVexSensorIME\000"
 2514      53656E73 
 2514      6F72494D 
 2514      4500
 2515              	.LASF56:
 2516 0515 6B496D65 		.ascii	"kImeChannel_1\000"
 2516      4368616E 
 2516      6E656C5F 
 2516      3100
 2517              	.LASF42:
 2518 0523 74566578 		.ascii	"tVexMotorType\000"
 2518      4D6F746F 
 2518      72547970 
 2518      6500
 2519              	.LASF108:
 2520 0531 76657853 		.ascii	"vexSonarAdd\000"
 2520      6F6E6172 
 2520      41646400 
 2521              	.LASF17:
 2522 053d 5F426F6F 		.ascii	"_Bool\000"
 2522      6C00
 2523              	.LASF15:
 2524 0543 696E7433 		.ascii	"int32_t\000"
 2524      325F7400 
 2525              	.LASF4:
 2526 054b 756E7369 		.ascii	"unsigned char\000"
 2526      676E6564 
 2526      20636861 
 2526      7200
 2527              	.LASF65:
 2528 0559 6B496D65 		.ascii	"kImeChannelNone\000"
 2528      4368616E 
 2528      6E656C4E 
 2528      6F6E6500 
 2529              	.LASF5:
 2530 0569 73686F72 		.ascii	"short int\000"
 2530      7420696E 
 2530      7400
 2531              	.LASF80:
 2532 0573 6B566578 		.ascii	"kVexConfigSonarOut\000"
ARM GAS  /var/folders/6q/x_mk5n_j3p7_c40r_2k_78980000gn/T//ccQ0DOJS.s 			page 50


 2532      436F6E66 
 2532      6967536F 
 2532      6E61724F 
 2532      757400
 2533              	.LASF114:
 2534 0586 7665784D 		.ascii	"vexMotorEncoderIdCallback\000"
 2534      6F746F72 
 2534      456E636F 
 2534      64657249 
 2534      6443616C 
 2535              	.LASF100:
 2536 05a0 76657844 		.ascii	"vexDigitalTypeGetName\000"
 2536      69676974 
 2536      616C5479 
 2536      70654765 
 2536      744E616D 
 2537              	.LASF103:
 2538 05b6 76657844 		.ascii	"vexDigitalConfigure\000"
 2538      69676974 
 2538      616C436F 
 2538      6E666967 
 2538      75726500 
 2539              	.LASF93:
 2540 05ca 6368616E 		.ascii	"channel\000"
 2540      6E656C00 
 2541              	.LASF96:
 2542 05d2 5F636667 		.ascii	"_cfg\000"
 2542      00
 2543              	.LASF85:
 2544 05d7 6368616E 		.ascii	"chan\000"
 2544      00
 2545              	.LASF11:
 2546 05dc 6C6F6E67 		.ascii	"long unsigned int\000"
 2546      20756E73 
 2546      69676E65 
 2546      6420696E 
 2546      7400
 2547              	.LASF19:
 2548 05ee 63686172 		.ascii	"char\000"
 2548      00
 2549              	.LASF57:
 2550 05f3 6B496D65 		.ascii	"kImeChannel_2\000"
 2550      4368616E 
 2550      6E656C5F 
 2550      3200
 2551              	.LASF58:
 2552 0601 6B496D65 		.ascii	"kImeChannel_3\000"
 2552      4368616E 
 2552      6E656C5F 
 2552      3300
 2553              	.LASF59:
 2554 060f 6B496D65 		.ascii	"kImeChannel_4\000"
 2554      4368616E 
 2554      6E656C5F 
 2554      3400
 2555              	.LASF60:
 2556 061d 6B496D65 		.ascii	"kImeChannel_5\000"
ARM GAS  /var/folders/6q/x_mk5n_j3p7_c40r_2k_78980000gn/T//ccQ0DOJS.s 			page 51


 2556      4368616E 
 2556      6E656C5F 
 2556      3500
 2557              	.LASF61:
 2558 062b 6B496D65 		.ascii	"kImeChannel_6\000"
 2558      4368616E 
 2558      6E656C5F 
 2558      3600
 2559              	.LASF62:
 2560 0639 6B496D65 		.ascii	"kImeChannel_7\000"
 2560      4368616E 
 2560      6E656C5F 
 2560      3700
 2561              	.LASF63:
 2562 0647 6B496D65 		.ascii	"kImeChannel_8\000"
 2562      4368616E 
 2562      6E656C5F 
 2562      3800
 2563              	.LASF7:
 2564 0655 5F5F7569 		.ascii	"__uint16_t\000"
 2564      6E743136 
 2564      5F7400
 2565              	.LASF30:
 2566 0660 6B566578 		.ascii	"kVexDigital_10\000"
 2566      44696769 
 2566      74616C5F 
 2566      313000
 2567              	.LASF31:
 2568 066f 6B566578 		.ascii	"kVexDigital_11\000"
 2568      44696769 
 2568      74616C5F 
 2568      313100
 2569              	.LASF32:
 2570 067e 6B566578 		.ascii	"kVexDigital_12\000"
 2570      44696769 
 2570      74616C5F 
 2570      313200
 2571              	.LASF9:
 2572 068d 5F5F696E 		.ascii	"__int32_t\000"
 2572      7433325F 
 2572      7400
 2573              	.LASF73:
 2574 0697 6B566578 		.ascii	"kVexSensorPotentiometer\000"
 2574      53656E73 
 2574      6F72506F 
 2574      74656E74 
 2574      696F6D65 
 2575              	.LASF69:
 2576 06af 6B566578 		.ascii	"kVexSensorQuadEncoder\000"
 2576      53656E73 
 2576      6F725175 
 2576      6164456E 
 2576      636F6465 
 2577              	.LASF70:
 2578 06c5 6B566578 		.ascii	"kVexSensorSonarCm\000"
 2578      53656E73 
 2578      6F72536F 
ARM GAS  /var/folders/6q/x_mk5n_j3p7_c40r_2k_78980000gn/T//ccQ0DOJS.s 			page 52


 2578      6E617243 
 2578      6D00
 2579              	.LASF112:
 2580 06d7 7665784D 		.ascii	"vexMotorPositionGetCallback\000"
 2580      6F746F72 
 2580      506F7369 
 2580      74696F6E 
 2580      47657443 
 2581              	.LASF119:
 2582 06f3 2F557365 		.ascii	"/Users/Luca/src/vexilla/src/teamA\000"
 2582      72732F4C 
 2582      7563612F 
 2582      7372632F 
 2582      76657869 
 2583              	.LASF86:
 2584 0715 76657844 		.ascii	"vexDigiCfg\000"
 2584      69676943 
 2584      666700
 2585              	.LASF74:
 2586 0720 6B566578 		.ascii	"kVexSensorInterrupt\000"
 2586      53656E73 
 2586      6F72496E 
 2586      74657272 
 2586      75707400 
 2587              	.LASF43:
 2588 0734 6B566578 		.ascii	"kVexMotor_None\000"
 2588      4D6F746F 
 2588      725F4E6F 
 2588      6E6500
 2589              	.LASF76:
 2590 0743 6B566578 		.ascii	"kVexConfigInput\000"
 2590      436F6E66 
 2590      6967496E 
 2590      70757400 
 2591              	.LASF6:
 2592 0753 5F5F696E 		.ascii	"__int16_t\000"
 2592      7431365F 
 2592      7400
 2593              	.LASF71:
 2594 075d 6B566578 		.ascii	"kVexSensorSonarInch\000"
 2594      53656E73 
 2594      6F72536F 
 2594      6E617249 
 2594      6E636800 
 2595              	.LASF88:
 2596 0771 5F766578 		.ascii	"_vexMotorCfg\000"
 2596      4D6F746F 
 2596      72436667 
 2596      00
 2597              	.LASF104:
 2598 077e 7665784D 		.ascii	"vexMotorConfigure\000"
 2598      6F746F72 
 2598      436F6E66 
 2598      69677572 
 2598      6500
 2599              	.LASF35:
 2600 0790 6B566578 		.ascii	"kVexDigitalInput\000"
ARM GAS  /var/folders/6q/x_mk5n_j3p7_c40r_2k_78980000gn/T//ccQ0DOJS.s 			page 53


 2600      44696769 
 2600      74616C49 
 2600      6E707574 
 2600      00
 2601              	.LASF34:
 2602 07a1 74566578 		.ascii	"tVexDigitalPin\000"
 2602      44696769 
 2602      74616C50 
 2602      696E00
 2603              		.ident	"GCC: (GNU Tools for ARM Embedded Processors) 5.4.1 20160919 (release) [ARM/embedded-5-bran
ARM GAS  /var/folders/6q/x_mk5n_j3p7_c40r_2k_78980000gn/T//ccQ0DOJS.s 			page 54


DEFINED SYMBOLS
                            *ABS*:0000000000000000 vexconfig.c
/var/folders/6q/x_mk5n_j3p7_c40r_2k_78980000gn/T//ccQ0DOJS.s:20     .text.vexDigitalConfigure:0000000000000000 $t
/var/folders/6q/x_mk5n_j3p7_c40r_2k_78980000gn/T//ccQ0DOJS.s:26     .text.vexDigitalConfigure:0000000000000000 vexDigitalConfigure
/var/folders/6q/x_mk5n_j3p7_c40r_2k_78980000gn/T//ccQ0DOJS.s:248    .text.vexDigitalConfigure:0000000000000130 $d
/var/folders/6q/x_mk5n_j3p7_c40r_2k_78980000gn/T//ccQ0DOJS.s:253    .text.vexDigitalTypeGet:0000000000000000 $t
/var/folders/6q/x_mk5n_j3p7_c40r_2k_78980000gn/T//ccQ0DOJS.s:259    .text.vexDigitalTypeGet:0000000000000000 vexDigitalTypeGet
/var/folders/6q/x_mk5n_j3p7_c40r_2k_78980000gn/T//ccQ0DOJS.s:287    .text.vexDigitalTypeGet:0000000000000018 $d
/var/folders/6q/x_mk5n_j3p7_c40r_2k_78980000gn/T//ccQ0DOJS.s:292    .text.vexDigitalTypeGetName:0000000000000000 $t
/var/folders/6q/x_mk5n_j3p7_c40r_2k_78980000gn/T//ccQ0DOJS.s:298    .text.vexDigitalTypeGetName:0000000000000000 vexDigitalTypeGetName
/var/folders/6q/x_mk5n_j3p7_c40r_2k_78980000gn/T//ccQ0DOJS.s:324    .text.vexDigitalTypeGetName:000000000000001c $d
/var/folders/6q/x_mk5n_j3p7_c40r_2k_78980000gn/T//ccQ0DOJS.s:332    .text.vexDigitalTypeGetName:0000000000000024 $t
/var/folders/6q/x_mk5n_j3p7_c40r_2k_78980000gn/T//ccQ0DOJS.s:416    .text.vexDigitalTypeGetName:0000000000000088 $d
/var/folders/6q/x_mk5n_j3p7_c40r_2k_78980000gn/T//ccQ0DOJS.s:429    .text.vexDigitalChannelGet:0000000000000000 $t
/var/folders/6q/x_mk5n_j3p7_c40r_2k_78980000gn/T//ccQ0DOJS.s:435    .text.vexDigitalChannelGet:0000000000000000 vexDigitalChannelGet
/var/folders/6q/x_mk5n_j3p7_c40r_2k_78980000gn/T//ccQ0DOJS.s:463    .text.vexDigitalChannelGet:0000000000000018 $d
/var/folders/6q/x_mk5n_j3p7_c40r_2k_78980000gn/T//ccQ0DOJS.s:468    .text.vexDigitalCfgGet:0000000000000000 $t
/var/folders/6q/x_mk5n_j3p7_c40r_2k_78980000gn/T//ccQ0DOJS.s:474    .text.vexDigitalCfgGet:0000000000000000 vexDigitalCfgGet
/var/folders/6q/x_mk5n_j3p7_c40r_2k_78980000gn/T//ccQ0DOJS.s:502    .text.vexDigitalCfgGet:0000000000000018 $d
/var/folders/6q/x_mk5n_j3p7_c40r_2k_78980000gn/T//ccQ0DOJS.s:507    .text.vexMotorConfigure:0000000000000000 $t
/var/folders/6q/x_mk5n_j3p7_c40r_2k_78980000gn/T//ccQ0DOJS.s:513    .text.vexMotorConfigure:0000000000000000 vexMotorConfigure
/var/folders/6q/x_mk5n_j3p7_c40r_2k_78980000gn/T//ccQ0DOJS.s:632    .text.vexMotorConfigure:00000000000000bc $d
/var/folders/6q/x_mk5n_j3p7_c40r_2k_78980000gn/T//ccQ0DOJS.s:642    .data.vexDefConfig:0000000000000000 $d
/var/folders/6q/x_mk5n_j3p7_c40r_2k_78980000gn/T//ccQ0DOJS.s:646    .data.vexDefConfig:0000000000000000 vexDefConfig
/var/folders/6q/x_mk5n_j3p7_c40r_2k_78980000gn/T//ccQ0DOJS.s:708    .rodata.str1.4:0000000000000000 $d
                     .debug_frame:0000000000000010 $d

UNDEFINED SYMBOLS
vexDigitalModeSet
vexEncoderAdd
vexSonarAdd
vexDigitalIntrSet
vexImeSetMotor
vexImeSetType
vexMotorPositionGetCallback
vexMotorPositionSetCallback
vexMotorEncoderIdCallback
vexMotorTypeSet
vexMotorDirectionSet
vexImeGetCount
vexImeSetCount
vexImeGetId
vexEncoderGet
vexEncoderSet
vexEncoderGetId
