ARM GAS  /var/folders/6q/x_mk5n_j3p7_c40r_2k_78980000gn/T//ccQ0DOJS.s 			page 1


   1              		.syntax unified
   2              		.cpu cortex-m3
   3              		.fpu softvfp
   4              		.eabi_attribute 20, 1
   5              		.eabi_attribute 21, 1
   6              		.eabi_attribute 23, 3
   7              		.eabi_attribute 24, 1
   8              		.eabi_attribute 25, 1
   9              		.eabi_attribute 26, 1
  10              		.eabi_attribute 30, 2
  11              		.eabi_attribute 34, 1
  12              		.eabi_attribute 18, 4
  13              		.thumb
  14              		.syntax unified
  15              		.file	"vexconfig.c"
  16              		.text
  17              	.Ltext0:
  18              		.cfi_sections	.debug_frame
  19              		.section	.text.vexDigitalConfigure,"ax",%progbits
  20              		.align	2
  21              		.p2align 4,,15
  22              		.global	vexDigitalConfigure
  23              		.thumb
  24              		.thumb_func
  25              		.type	vexDigitalConfigure, %function
  26              	vexDigitalConfigure:
  27              	.LFB63:
  28              		.file 1 "../convex-vexilla/cortex/fw/vexconfig.c"
  29              		.loc 1 83 0
  30              		.cfi_startproc
  31              		@ args = 0, pretend = 0, frame = 0
  32              		@ frame_needed = 0, uses_anonymous_args = 0
  33              	.LVL0:
  34 0000 2DE9F047 		push	{r4, r5, r6, r7, r8, r9, r10, lr}
  35              		.cfi_def_cfa_offset 32
  36              		.cfi_offset 4, -32
  37              		.cfi_offset 5, -28
  38              		.cfi_offset 6, -24
  39              		.cfi_offset 7, -20
  40              		.cfi_offset 8, -16
  41              		.cfi_offset 9, -12
  42              		.cfi_offset 10, -8
  43              		.cfi_offset 14, -4
  44              		.loc 1 89 0
  45 0004 0028     		cmp	r0, #0
  46 0006 00F08F80 		beq	.L16
  47              		.loc 1 98 0
  48 000a 0029     		cmp	r1, #0
  49 000c 0E46     		mov	r6, r1
  50              	.LVL1:
  51 000e 40F38780 		ble	.L1
  52 0012 474F     		ldr	r7, .L37
  53              	.LVL2:
  54              	.L2:
  55 0014 00F10608 		add	r8, r0, #6
  56              		.loc 1 90 0
  57 0018 4546     		mov	r5, r8
ARM GAS  /var/folders/6q/x_mk5n_j3p7_c40r_2k_78980000gn/T//ccQ0DOJS.s 			page 2


  58 001a 4FF00009 		mov	r9, #0
  59 001e 1CE0     		b	.L12
  60              	.LVL3:
  61              	.L3:
  62              		.loc 1 104 0
  63 0020 0129     		cmp	r1, #1
  64 0022 26D0     		beq	.L31
  65              	.L4:
  66              		.loc 1 108 0
  67 0024 0A29     		cmp	r1, #10
  68 0026 2CD0     		beq	.L32
  69              	.L26:
  70              		.loc 1 119 0
  71 0028 0C29     		cmp	r1, #12
  72 002a 4ED0     		beq	.L15
  73              	.L8:
  74              		.loc 1 130 0
  75 002c 0E29     		cmp	r1, #14
  76 002e 70D0     		beq	.L33
  77              	.L11:
  78              		.loc 1 138 0 discriminator 2
  79 0030 15F9063C 		ldrsb	r3, [r5, #-6]
  80 0034 09F10109 		add	r9, r9, #1
  81              	.LVL4:
  82 0038 15F8050C 		ldrb	r0, [r5, #-5]	@ zero_extendqisi2
  83              		.loc 1 140 0 discriminator 2
  84 003c 35F8022C 		ldrh	r2, [r5, #-2]
  85              		.loc 1 138 0 discriminator 2
  86 0040 03EB4303 		add	r3, r3, r3, lsl #1
  87              		.loc 1 98 0 discriminator 2
  88 0044 4FFA89F9 		sxtb	r9, r9
  89              		.loc 1 138 0 discriminator 2
  90 0048 07EB4303 		add	r3, r7, r3, lsl #1
  91              		.loc 1 98 0 discriminator 2
  92 004c 4E45     		cmp	r6, r9
  93              		.loc 1 138 0 discriminator 2
  94 004e 5870     		strb	r0, [r3, #1]
  95              		.loc 1 139 0 discriminator 2
  96 0050 9970     		strb	r1, [r3, #2]
  97              		.loc 1 140 0 discriminator 2
  98 0052 9A80     		strh	r2, [r3, #4]	@ movhi
  99 0054 05F10605 		add	r5, r5, #6
 100              	.LVL5:
 101              		.loc 1 98 0 discriminator 2
 102 0058 64DD     		ble	.L34
 103              	.LVL6:
 104              	.L12:
 105              		.loc 1 101 0
 106 005a 15F8041C 		ldrb	r1, [r5, #-4]	@ zero_extendqisi2
 107 005e 0029     		cmp	r1, #0
 108 0060 DED1     		bne	.L3
 109              		.loc 1 102 0
 110 0062 15F9060C 		ldrsb	r0, [r5, #-6]
 111 0066 FFF7FEFF 		bl	vexDigitalModeSet
 112              	.LVL7:
 113 006a 15F8041C 		ldrb	r1, [r5, #-4]	@ zero_extendqisi2
 114              		.loc 1 104 0
ARM GAS  /var/folders/6q/x_mk5n_j3p7_c40r_2k_78980000gn/T//ccQ0DOJS.s 			page 3


 115 006e 0129     		cmp	r1, #1
 116 0070 D8D1     		bne	.L4
 117              	.L31:
 118              		.loc 1 105 0
 119 0072 15F9060C 		ldrsb	r0, [r5, #-6]
 120 0076 FFF7FEFF 		bl	vexDigitalModeSet
 121              	.LVL8:
 122 007a 15F8041C 		ldrb	r1, [r5, #-4]	@ zero_extendqisi2
 123              		.loc 1 108 0
 124 007e 0A29     		cmp	r1, #10
 125 0080 D2D1     		bne	.L26
 126              	.L32:
 127 0082 C246     		mov	r10, r8
 128 0084 0024     		movs	r4, #0
 129 0086 05E0     		b	.L6
 130              	.LVL9:
 131              	.L5:
 132 0088 0134     		adds	r4, r4, #1
 133              	.LVL10:
 134              		.loc 1 111 0 discriminator 2
 135 008a 64B2     		sxtb	r4, r4
 136 008c A642     		cmp	r6, r4
 137 008e 0AF1060A 		add	r10, r10, #6
 138              	.LVL11:
 139 0092 16DD     		ble	.L35
 140              	.LVL12:
 141              	.L6:
 142              		.loc 1 113 0
 143 0094 1AF8043C 		ldrb	r3, [r10, #-4]	@ zero_extendqisi2
 144 0098 0B2B     		cmp	r3, #11
 145 009a F5D1     		bne	.L5
 146              		.loc 1 113 0 is_stmt 0 discriminator 1
 147 009c 35F8023C 		ldrh	r3, [r5, #-2]
 148 00a0 3AF8020C 		ldrh	r0, [r10, #-2]
 149 00a4 9842     		cmp	r0, r3
 150 00a6 EFD1     		bne	.L5
 151 00a8 0134     		adds	r4, r4, #1
 152              	.LVL13:
 153              		.loc 1 114 0 is_stmt 1
 154 00aa 1AF9062C 		ldrsb	r2, [r10, #-6]
 155 00ae C0B2     		uxtb	r0, r0
 156 00b0 15F9061C 		ldrsb	r1, [r5, #-6]
 157              		.loc 1 111 0
 158 00b4 64B2     		sxtb	r4, r4
 159              		.loc 1 114 0
 160 00b6 FFF7FEFF 		bl	vexEncoderAdd
 161              	.LVL14:
 162              		.loc 1 111 0
 163 00ba A642     		cmp	r6, r4
 164 00bc 0AF1060A 		add	r10, r10, #6
 165              	.LVL15:
 166 00c0 E8DC     		bgt	.L6
 167              	.LVL16:
 168              	.L35:
 169              		.loc 1 119 0
 170 00c2 15F8041C 		ldrb	r1, [r5, #-4]	@ zero_extendqisi2
 171 00c6 0C29     		cmp	r1, #12
ARM GAS  /var/folders/6q/x_mk5n_j3p7_c40r_2k_78980000gn/T//ccQ0DOJS.s 			page 4


 172 00c8 B0D1     		bne	.L8
 173              	.L15:
 174              	.LVL17:
 175              		.loc 1 108 0
 176 00ca C246     		mov	r10, r8
 177 00cc 0024     		movs	r4, #0
 178 00ce 05E0     		b	.L10
 179              	.LVL18:
 180              	.L9:
 181 00d0 0134     		adds	r4, r4, #1
 182              	.LVL19:
 183              		.loc 1 122 0 discriminator 2
 184 00d2 64B2     		sxtb	r4, r4
 185 00d4 A642     		cmp	r6, r4
 186 00d6 0AF1060A 		add	r10, r10, #6
 187              	.LVL20:
 188 00da 16DD     		ble	.L36
 189              	.LVL21:
 190              	.L10:
 191              		.loc 1 124 0
 192 00dc 1AF8043C 		ldrb	r3, [r10, #-4]	@ zero_extendqisi2
 193 00e0 0D2B     		cmp	r3, #13
 194 00e2 F5D1     		bne	.L9
 195              		.loc 1 124 0 is_stmt 0 discriminator 1
 196 00e4 35F8023C 		ldrh	r3, [r5, #-2]
 197 00e8 3AF8020C 		ldrh	r0, [r10, #-2]
 198 00ec 9842     		cmp	r0, r3
 199 00ee EFD1     		bne	.L9
 200 00f0 0134     		adds	r4, r4, #1
 201              	.LVL22:
 202              		.loc 1 125 0 is_stmt 1
 203 00f2 1AF9062C 		ldrsb	r2, [r10, #-6]
 204 00f6 C0B2     		uxtb	r0, r0
 205 00f8 15F9061C 		ldrsb	r1, [r5, #-6]
 206              		.loc 1 122 0
 207 00fc 64B2     		sxtb	r4, r4
 208              		.loc 1 125 0
 209 00fe FFF7FEFF 		bl	vexSonarAdd
 210              	.LVL23:
 211              		.loc 1 122 0
 212 0102 A642     		cmp	r6, r4
 213 0104 0AF1060A 		add	r10, r10, #6
 214              	.LVL24:
 215 0108 E8DC     		bgt	.L10
 216              	.LVL25:
 217              	.L36:
 218 010a 15F8041C 		ldrb	r1, [r5, #-4]	@ zero_extendqisi2
 219              		.loc 1 130 0
 220 010e 0E29     		cmp	r1, #14
 221 0110 8ED1     		bne	.L11
 222              	.L33:
 223              		.loc 1 132 0
 224 0112 15F9060C 		ldrsb	r0, [r5, #-6]
 225 0116 FFF7FEFF 		bl	vexDigitalIntrSet
 226              	.LVL26:
 227 011a 15F8041C 		ldrb	r1, [r5, #-4]	@ zero_extendqisi2
 228 011e 87E7     		b	.L11
ARM GAS  /var/folders/6q/x_mk5n_j3p7_c40r_2k_78980000gn/T//ccQ0DOJS.s 			page 5


 229              	.LVL27:
 230              	.L1:
 231 0120 BDE8F087 		pop	{r4, r5, r6, r7, r8, r9, r10, pc}
 232              	.LVL28:
 233              	.L34:
 234 0124 BDE8F087 		pop	{r4, r5, r6, r7, r8, r9, r10, pc}
 235              	.LVL29:
 236              	.L16:
 237              		.loc 1 90 0
 238 0128 014F     		ldr	r7, .L37
 239              		.loc 1 91 0
 240 012a 0C26     		movs	r6, #12
 241              		.loc 1 90 0
 242 012c 3846     		mov	r0, r7
 243              	.LVL30:
 244 012e 71E7     		b	.L2
 245              	.L38:
 246              		.align	2
 247              	.L37:
 248 0130 00000000 		.word	.LANCHOR0
 249              		.cfi_endproc
 250              	.LFE63:
 251              		.size	vexDigitalConfigure, .-vexDigitalConfigure
 252              		.section	.text.vexDigitalTypeGet,"ax",%progbits
 253              		.align	2
 254              		.p2align 4,,15
 255              		.global	vexDigitalTypeGet
 256              		.thumb
 257              		.thumb_func
 258              		.type	vexDigitalTypeGet, %function
 259              	vexDigitalTypeGet:
 260              	.LFB64:
 261              		.loc 1 152 0
 262              		.cfi_startproc
 263              		@ args = 0, pretend = 0, frame = 0
 264              		@ frame_needed = 0, uses_anonymous_args = 0
 265              		@ link register save eliminated.
 266              	.LVL31:
 267              		.loc 1 153 0
 268 0000 0B28     		cmp	r0, #11
 269 0002 06DC     		bgt	.L41
 270              		.loc 1 156 0
 271 0004 044B     		ldr	r3, .L42
 272 0006 00EB4000 		add	r0, r0, r0, lsl #1
 273              	.LVL32:
 274 000a 03EB4000 		add	r0, r3, r0, lsl #1
 275 000e 4078     		ldrb	r0, [r0, #1]	@ zero_extendqisi2
 276 0010 7047     		bx	lr
 277              	.LVL33:
 278              	.L41:
 279              		.loc 1 154 0
 280 0012 0020     		movs	r0, #0
 281              	.LVL34:
 282              		.loc 1 157 0
 283 0014 7047     		bx	lr
 284              	.L43:
 285 0016 00BF     		.align	2
ARM GAS  /var/folders/6q/x_mk5n_j3p7_c40r_2k_78980000gn/T//ccQ0DOJS.s 			page 6


 286              	.L42:
 287 0018 00000000 		.word	.LANCHOR0
 288              		.cfi_endproc
 289              	.LFE64:
 290              		.size	vexDigitalTypeGet, .-vexDigitalTypeGet
 291              		.section	.text.vexDigitalTypeGetName,"ax",%progbits
 292              		.align	2
 293              		.p2align 4,,15
 294              		.global	vexDigitalTypeGetName
 295              		.thumb
 296              		.thumb_func
 297              		.type	vexDigitalTypeGetName, %function
 298              	vexDigitalTypeGetName:
 299              	.LFB65:
 300              		.loc 1 167 0
 301              		.cfi_startproc
 302              		@ args = 0, pretend = 0, frame = 0
 303              		@ frame_needed = 0, uses_anonymous_args = 0
 304              	.LVL35:
 305              		.loc 1 170 0
 306 0000 0B28     		cmp	r0, #11
 307 0002 3FDC     		bgt	.L53
 308              		.loc 1 173 0
 309 0004 4100     		lsls	r1, r0, #1
 310 0006 204A     		ldr	r2, .L59
 311 0008 0B18     		adds	r3, r1, r0
 312 000a 02EB4303 		add	r3, r2, r3, lsl #1
 313 000e 5B78     		ldrb	r3, [r3, #1]	@ zero_extendqisi2
 314              		.loc 1 167 0
 315 0010 00B5     		push	{lr}
 316              		.cfi_def_cfa_offset 4
 317              		.cfi_offset 14, -4
 318              		.loc 1 173 0
 319 0012 013B     		subs	r3, r3, #1
 320 0014 072B     		cmp	r3, #7
 321 0016 32D8     		bhi	.L46
 322 0018 DFE803F0 		tbb	[pc, r3]
 323              	.L47:
 324 001c 04       		.byte	(.L54-.L47)/2
 325 001d 07       		.byte	(.L48-.L47)/2
 326 001e 0A       		.byte	(.L49-.L47)/2
 327 001f 16       		.byte	(.L50-.L47)/2
 328 0020 22       		.byte	(.L51-.L47)/2
 329 0021 31       		.byte	(.L46-.L47)/2
 330 0022 31       		.byte	(.L46-.L47)/2
 331 0023 2E       		.byte	(.L52-.L47)/2
 332              		.p2align 1
 333              	.L54:
 334              		.loc 1 176 0
 335 0024 1948     		ldr	r0, .L59+4
 336              	.LVL36:
 337              		.loc 1 209 0
 338 0026 5DF804FB 		ldr	pc, [sp], #4
 339              	.LVL37:
 340              	.L48:
 341              		.loc 1 179 0
 342 002a 1948     		ldr	r0, .L59+8
ARM GAS  /var/folders/6q/x_mk5n_j3p7_c40r_2k_78980000gn/T//ccQ0DOJS.s 			page 7


 343              	.LVL38:
 344 002c 5DF804FB 		ldr	pc, [sp], #4
 345              	.LVL39:
 346              	.L49:
 347              		.loc 1 185 0
 348 0030 0844     		add	r0, r0, r1
 349              	.LVL40:
 350 0032 02EB4000 		add	r0, r2, r0, lsl #1
 351 0036 8078     		ldrb	r0, [r0, #2]	@ zero_extendqisi2
 352              		.loc 1 186 0
 353 0038 164B     		ldr	r3, .L59+12
 354 003a 174A     		ldr	r2, .L59+16
 355 003c 0A28     		cmp	r0, #10
 356 003e 14BF     		ite	ne
 357 0040 1846     		movne	r0, r3
 358 0042 1046     		moveq	r0, r2
 359 0044 5DF804FB 		ldr	pc, [sp], #4
 360              	.LVL41:
 361              	.L50:
 362              		.loc 1 191 0
 363 0048 0844     		add	r0, r0, r1
 364              	.LVL42:
 365 004a 02EB4000 		add	r0, r2, r0, lsl #1
 366 004e 8078     		ldrb	r0, [r0, #2]	@ zero_extendqisi2
 367              		.loc 1 192 0
 368 0050 104B     		ldr	r3, .L59+12
 369 0052 124A     		ldr	r2, .L59+20
 370 0054 0C28     		cmp	r0, #12
 371 0056 14BF     		ite	ne
 372 0058 1846     		movne	r0, r3
 373 005a 1046     		moveq	r0, r2
 374 005c 5DF804FB 		ldr	pc, [sp], #4
 375              	.LVL43:
 376              	.L51:
 377              		.loc 1 198 0
 378 0060 0844     		add	r0, r0, r1
 379              	.LVL44:
 380 0062 02EB4000 		add	r0, r2, r0, lsl #1
 381 0066 8078     		ldrb	r0, [r0, #2]	@ zero_extendqisi2
 382              		.loc 1 199 0
 383 0068 0A4B     		ldr	r3, .L59+12
 384 006a 0D4A     		ldr	r2, .L59+24
 385 006c 0C28     		cmp	r0, #12
 386 006e 14BF     		ite	ne
 387 0070 1846     		movne	r0, r3
 388 0072 1046     		moveq	r0, r2
 389 0074 5DF804FB 		ldr	pc, [sp], #4
 390              	.LVL45:
 391              	.L52:
 392              		.loc 1 182 0
 393 0078 0A48     		ldr	r0, .L59+28
 394              	.LVL46:
 395              		.loc 1 183 0
 396 007a 5DF804FB 		ldr	pc, [sp], #4
 397              	.LVL47:
 398              	.L46:
 399              		.loc 1 204 0
ARM GAS  /var/folders/6q/x_mk5n_j3p7_c40r_2k_78980000gn/T//ccQ0DOJS.s 			page 8


 400 007e 0A48     		ldr	r0, .L59+32
 401              	.LVL48:
 402              		.loc 1 205 0
 403 0080 5DF804FB 		ldr	pc, [sp], #4
 404              	.LVL49:
 405              	.L53:
 406              		.cfi_def_cfa_offset 0
 407              		.cfi_restore 14
 408              		.loc 1 171 0
 409 0084 0020     		movs	r0, #0
 410              	.LVL50:
 411              		.loc 1 209 0
 412 0086 7047     		bx	lr
 413              	.L60:
 414              		.align	2
 415              	.L59:
 416 0088 00000000 		.word	.LANCHOR0
 417 008c 08000000 		.word	.LC1
 418 0090 00000000 		.word	.LC0
 419 0094 34000000 		.word	.LC6
 420 0098 20000000 		.word	.LC4
 421 009c 18000000 		.word	.LC3
 422 00a0 10000000 		.word	.LC2
 423 00a4 38000000 		.word	.LC7
 424 00a8 28000000 		.word	.LC5
 425              		.cfi_endproc
 426              	.LFE65:
 427              		.size	vexDigitalTypeGetName, .-vexDigitalTypeGetName
 428              		.section	.text.vexDigitalChannelGet,"ax",%progbits
 429              		.align	2
 430              		.p2align 4,,15
 431              		.global	vexDigitalChannelGet
 432              		.thumb
 433              		.thumb_func
 434              		.type	vexDigitalChannelGet, %function
 435              	vexDigitalChannelGet:
 436              	.LFB66:
 437              		.loc 1 219 0
 438              		.cfi_startproc
 439              		@ args = 0, pretend = 0, frame = 0
 440              		@ frame_needed = 0, uses_anonymous_args = 0
 441              		@ link register save eliminated.
 442              	.LVL51:
 443              		.loc 1 220 0
 444 0000 0B28     		cmp	r0, #11
 445 0002 06DC     		bgt	.L63
 446              		.loc 1 223 0
 447 0004 044B     		ldr	r3, .L64
 448 0006 00EB4000 		add	r0, r0, r0, lsl #1
 449              	.LVL52:
 450 000a 03EB4000 		add	r0, r3, r0, lsl #1
 451 000e 8088     		ldrh	r0, [r0, #4]
 452 0010 7047     		bx	lr
 453              	.LVL53:
 454              	.L63:
 455              		.loc 1 221 0
 456 0012 0020     		movs	r0, #0
ARM GAS  /var/folders/6q/x_mk5n_j3p7_c40r_2k_78980000gn/T//ccQ0DOJS.s 			page 9


 457              	.LVL54:
 458              		.loc 1 224 0
 459 0014 7047     		bx	lr
 460              	.L65:
 461 0016 00BF     		.align	2
 462              	.L64:
 463 0018 00000000 		.word	.LANCHOR0
 464              		.cfi_endproc
 465              	.LFE66:
 466              		.size	vexDigitalChannelGet, .-vexDigitalChannelGet
 467              		.section	.text.vexDigitalCfgGet,"ax",%progbits
 468              		.align	2
 469              		.p2align 4,,15
 470              		.global	vexDigitalCfgGet
 471              		.thumb
 472              		.thumb_func
 473              		.type	vexDigitalCfgGet, %function
 474              	vexDigitalCfgGet:
 475              	.LFB67:
 476              		.loc 1 236 0
 477              		.cfi_startproc
 478              		@ args = 0, pretend = 0, frame = 0
 479              		@ frame_needed = 0, uses_anonymous_args = 0
 480              		@ link register save eliminated.
 481              	.LVL55:
 482              		.loc 1 237 0
 483 0000 0B28     		cmp	r0, #11
 484 0002 06DC     		bgt	.L68
 485              		.loc 1 240 0
 486 0004 044B     		ldr	r3, .L69
 487 0006 00EB4000 		add	r0, r0, r0, lsl #1
 488              	.LVL56:
 489 000a 03EB4000 		add	r0, r3, r0, lsl #1
 490 000e 8078     		ldrb	r0, [r0, #2]	@ zero_extendqisi2
 491 0010 7047     		bx	lr
 492              	.LVL57:
 493              	.L68:
 494              		.loc 1 238 0
 495 0012 0020     		movs	r0, #0
 496              	.LVL58:
 497              		.loc 1 241 0
 498 0014 7047     		bx	lr
 499              	.L70:
 500 0016 00BF     		.align	2
 501              	.L69:
 502 0018 00000000 		.word	.LANCHOR0
 503              		.cfi_endproc
 504              	.LFE67:
 505              		.size	vexDigitalCfgGet, .-vexDigitalCfgGet
 506              		.section	.text.vexMotorConfigure,"ax",%progbits
 507              		.align	2
 508              		.p2align 4,,15
 509              		.global	vexMotorConfigure
 510              		.thumb
 511              		.thumb_func
 512              		.type	vexMotorConfigure, %function
 513              	vexMotorConfigure:
ARM GAS  /var/folders/6q/x_mk5n_j3p7_c40r_2k_78980000gn/T//ccQ0DOJS.s 			page 10


 514              	.LFB68:
 515              		.loc 1 252 0
 516              		.cfi_startproc
 517              		@ args = 0, pretend = 0, frame = 0
 518              		@ frame_needed = 0, uses_anonymous_args = 0
 519              	.LVL59:
 520              		.loc 1 256 0
 521 0000 0028     		cmp	r0, #0
 522 0002 5AD0     		beq	.L80
 523              	.LVL60:
 524              		.loc 1 263 0 discriminator 1
 525 0004 0029     		cmp	r1, #0
 526 0006 58DD     		ble	.L80
 527              		.loc 1 252 0
 528 0008 38B5     		push	{r3, r4, r5, lr}
 529              		.cfi_def_cfa_offset 16
 530              		.cfi_offset 3, -16
 531              		.cfi_offset 4, -12
 532              		.cfi_offset 5, -8
 533              		.cfi_offset 14, -4
 534 000a 4D1E     		subs	r5, r1, #1
 535 000c ADB2     		uxth	r5, r5
 536 000e 05EB4505 		add	r5, r5, r5, lsl #1
 537 0012 00EB4505 		add	r5, r0, r5, lsl #1
 538 0016 0C35     		adds	r5, r5, #12
 539 0018 841D     		adds	r4, r0, #6
 540 001a 25E0     		b	.L77
 541              	.LVL61:
 542              	.L82:
 543              		.loc 1 271 0
 544 001c 062B     		cmp	r3, #6
 545 001e 20D1     		bne	.L74
 546              		.loc 1 275 0
 547 0020 14F9061C 		ldrsb	r1, [r4, #-6]
 548 0024 14F8020C 		ldrb	r0, [r4, #-2]	@ zero_extendqisi2
 549 0028 FFF7FEFF 		bl	vexImeSetMotor
 550              	.LVL62:
 551              		.loc 1 277 0
 552 002c 14F8051C 		ldrb	r1, [r4, #-5]	@ zero_extendqisi2
 553 0030 14F8020C 		ldrb	r0, [r4, #-2]	@ zero_extendqisi2
 554 0034 FFF7FEFF 		bl	vexImeSetType
 555              	.LVL63:
 556              		.loc 1 279 0
 557 0038 34F9022C 		ldrsh	r2, [r4, #-2]
 558 003c 1F49     		ldr	r1, .L83
 559 003e 14F9060C 		ldrsb	r0, [r4, #-6]
 560 0042 FFF7FEFF 		bl	vexMotorPositionGetCallback
 561              	.LVL64:
 562              		.loc 1 281 0
 563 0046 34F9022C 		ldrsh	r2, [r4, #-2]
 564 004a 1D49     		ldr	r1, .L83+4
 565 004c 14F9060C 		ldrsb	r0, [r4, #-6]
 566 0050 FFF7FEFF 		bl	vexMotorPositionSetCallback
 567              	.LVL65:
 568              		.loc 1 283 0
 569 0054 34F9022C 		ldrsh	r2, [r4, #-2]
 570 0058 1A49     		ldr	r1, .L83+8
ARM GAS  /var/folders/6q/x_mk5n_j3p7_c40r_2k_78980000gn/T//ccQ0DOJS.s 			page 11


 571 005a 14F9060C 		ldrsb	r0, [r4, #-6]
 572 005e FFF7FEFF 		bl	vexMotorEncoderIdCallback
 573              	.LVL66:
 574              	.L74:
 575 0062 0634     		adds	r4, r4, #6
 576              	.LVL67:
 577              		.loc 1 263 0 discriminator 2
 578 0064 AC42     		cmp	r4, r5
 579 0066 27D0     		beq	.L81
 580              	.LVL68:
 581              	.L77:
 582              		.loc 1 266 0
 583 0068 14F8051C 		ldrb	r1, [r4, #-5]	@ zero_extendqisi2
 584 006c 14F9060C 		ldrsb	r0, [r4, #-6]
 585 0070 FFF7FEFF 		bl	vexMotorTypeSet
 586              	.LVL69:
 587              		.loc 1 269 0
 588 0074 14F8041C 		ldrb	r1, [r4, #-4]	@ zero_extendqisi2
 589 0078 14F9060C 		ldrsb	r0, [r4, #-6]
 590 007c FFF7FEFF 		bl	vexMotorDirectionSet
 591              	.LVL70:
 592              		.loc 1 271 0
 593 0080 14F8033C 		ldrb	r3, [r4, #-3]	@ zero_extendqisi2
 594 0084 032B     		cmp	r3, #3
 595 0086 C9D1     		bne	.L82
 596              		.loc 1 288 0
 597 0088 34F9022C 		ldrsh	r2, [r4, #-2]
 598 008c 14F9060C 		ldrsb	r0, [r4, #-6]
 599 0090 0D49     		ldr	r1, .L83+12
 600 0092 FFF7FEFF 		bl	vexMotorPositionGetCallback
 601              	.LVL71:
 602              		.loc 1 290 0
 603 0096 34F9022C 		ldrsh	r2, [r4, #-2]
 604 009a 14F9060C 		ldrsb	r0, [r4, #-6]
 605 009e 0B49     		ldr	r1, .L83+16
 606 00a0 FFF7FEFF 		bl	vexMotorPositionSetCallback
 607              	.LVL72:
 608 00a4 0634     		adds	r4, r4, #6
 609              	.LVL73:
 610              		.loc 1 292 0
 611 00a6 34F9082C 		ldrsh	r2, [r4, #-8]
 612 00aa 14F90C0C 		ldrsb	r0, [r4, #-12]
 613 00ae 0849     		ldr	r1, .L83+20
 614 00b0 FFF7FEFF 		bl	vexMotorEncoderIdCallback
 615              	.LVL74:
 616              		.loc 1 263 0
 617 00b4 AC42     		cmp	r4, r5
 618 00b6 D7D1     		bne	.L77
 619              	.L81:
 620 00b8 38BD     		pop	{r3, r4, r5, pc}
 621              	.LVL75:
 622              	.L80:
 623              		.cfi_def_cfa_offset 0
 624              		.cfi_restore 3
 625              		.cfi_restore 4
 626              		.cfi_restore 5
 627              		.cfi_restore 14
ARM GAS  /var/folders/6q/x_mk5n_j3p7_c40r_2k_78980000gn/T//ccQ0DOJS.s 			page 12


 628 00ba 7047     		bx	lr
 629              	.L84:
 630              		.align	2
 631              	.L83:
 632 00bc 00000000 		.word	vexImeGetCount
 633 00c0 00000000 		.word	vexImeSetCount
 634 00c4 00000000 		.word	vexImeGetId
 635 00c8 00000000 		.word	vexEncoderGet
 636 00cc 00000000 		.word	vexEncoderSet
 637 00d0 00000000 		.word	vexEncoderGetId
 638              		.cfi_endproc
 639              	.LFE68:
 640              		.size	vexMotorConfigure, .-vexMotorConfigure
 641              		.section	.data.vexDefConfig,"aw",%progbits
 642              		.align	2
 643              		.set	.LANCHOR0,. + 0
 644              		.type	vexDefConfig, %object
 645              		.size	vexDefConfig, 72
 646              	vexDefConfig:
 647 0000 00       		.byte	0
 648 0001 01       		.byte	1
 649 0002 00       		.byte	0
 650 0003 00       		.space	1
 651 0004 0000     		.short	0
 652 0006 01       		.byte	1
 653 0007 01       		.byte	1
 654 0008 00       		.byte	0
 655 0009 00       		.space	1
 656 000a 0000     		.short	0
 657 000c 02       		.byte	2
 658 000d 01       		.byte	1
 659 000e 00       		.byte	0
 660 000f 00       		.space	1
 661 0010 0000     		.short	0
 662 0012 03       		.byte	3
 663 0013 01       		.byte	1
 664 0014 00       		.byte	0
 665 0015 00       		.space	1
 666 0016 0000     		.short	0
 667 0018 04       		.byte	4
 668 0019 01       		.byte	1
 669 001a 00       		.byte	0
 670 001b 00       		.space	1
 671 001c 0000     		.short	0
 672 001e 05       		.byte	5
 673 001f 01       		.byte	1
 674 0020 00       		.byte	0
 675 0021 00       		.space	1
 676 0022 0000     		.short	0
 677 0024 06       		.byte	6
 678 0025 01       		.byte	1
 679 0026 00       		.byte	0
 680 0027 00       		.space	1
 681 0028 0000     		.short	0
 682 002a 07       		.byte	7
 683 002b 01       		.byte	1
 684 002c 00       		.byte	0
ARM GAS  /var/folders/6q/x_mk5n_j3p7_c40r_2k_78980000gn/T//ccQ0DOJS.s 			page 13


 685 002d 00       		.space	1
 686 002e 0000     		.short	0
 687 0030 08       		.byte	8
 688 0031 01       		.byte	1
 689 0032 00       		.byte	0
 690 0033 00       		.space	1
 691 0034 0000     		.short	0
 692 0036 09       		.byte	9
 693 0037 01       		.byte	1
 694 0038 00       		.byte	0
 695 0039 00       		.space	1
 696 003a 0000     		.short	0
 697 003c 0A       		.byte	10
 698 003d 01       		.byte	1
 699 003e 00       		.byte	0
 700 003f 00       		.space	1
 701 0040 0000     		.short	0
 702 0042 0B       		.byte	11
 703 0043 01       		.byte	1
 704 0044 00       		.byte	0
 705 0045 00       		.space	1
 706 0046 0000     		.short	0
 707              		.section	.rodata.str1.4,"aMS",%progbits,1
 708              		.align	2
 709              	.LC0:
 710 0000 4F757470 		.ascii	"Output\000"
 710      757400
 711 0007 00       		.space	1
 712              	.LC1:
 713 0008 496E7075 		.ascii	"Input\000"
 713      7400
 714 000e 0000     		.space	2
 715              	.LC2:
 716 0010 536F6E61 		.ascii	"SonarIn\000"
 716      72496E00 
 717              	.LC3:
 718 0018 536F6E61 		.ascii	"SonarCm\000"
 718      72436D00 
 719              	.LC4:
 720 0020 456E636F 		.ascii	"Encoder\000"
 720      64657200 
 721              	.LC5:
 722 0028 556E6465 		.ascii	"Undefined\000"
 722      66696E65 
 722      6400
 723 0032 0000     		.space	2
 724              	.LC6:
 725 0034 00       		.ascii	"\000"
 726 0035 000000   		.space	3
 727              	.LC7:
 728 0038 496E7472 		.ascii	"Intrpt\000"
 728      707400
 729              		.text
 730              	.Letext0:
 731              		.file 2 "/Users/Luca/src/vexilla/src/gcc-arm-none-eabi-5_4-2016q3/arm-none-eabi/include/machine/_d
 732              		.file 3 "/Users/Luca/src/vexilla/src/gcc-arm-none-eabi-5_4-2016q3/arm-none-eabi/include/sys/_stdin
 733              		.file 4 "../ChibiOS/os/ports/GCC/ARMCMx/chtypes.h"
ARM GAS  /var/folders/6q/x_mk5n_j3p7_c40r_2k_78980000gn/T//ccQ0DOJS.s 			page 14


 734              		.file 5 "../convex-vexilla/cortex/fw/vexdigital.h"
 735              		.file 6 "../convex-vexilla/cortex/fw/vexmotor.h"
 736              		.file 7 "../convex-vexilla/cortex/fw/vexime.h"
 737              		.file 8 "../convex-vexilla/cortex/fw/vexconfig.h"
 738              		.file 9 "../convex-vexilla/cortex/fw/vexencoder.h"
 739              		.file 10 "../convex-vexilla/cortex/fw/vexsonar.h"
 740              		.file 11 "../ChibiOS/os/ports/common/ARMCMx/CMSIS/include/core_cm3.h"