ARM GAS  /var/folders/6q/x_mk5n_j3p7_c40r_2k_78980000gn/T//ccbqpbV1.s 			page 1


   1              		.syntax unified
   2              		.cpu cortex-m3
   3              		.fpu softvfp
   4              		.eabi_attribute 20, 1
   5              		.eabi_attribute 21, 1
   6              		.eabi_attribute 23, 3
   7              		.eabi_attribute 24, 1
   8              		.eabi_attribute 25, 1
   9              		.eabi_attribute 26, 1
  10              		.eabi_attribute 30, 2
  11              		.eabi_attribute 34, 1
  12              		.eabi_attribute 18, 4
  13              		.thumb
  14              		.syntax unified
  15              		.file	"vexctl.c"
  16              		.text
  17              	.Ltext0:
  18              		.cfi_sections	.debug_frame
  19              		.section	.text.vexControllerCompetitionStateSet,"ax",%progbits
  20              		.align	2
  21              		.p2align 4,,15
  22              		.global	vexControllerCompetitionStateSet
  23              		.thumb
  24              		.thumb_func
  25              		.type	vexControllerCompetitionStateSet, %function
  26              	vexControllerCompetitionStateSet:
  27              	.LFB63:
  28              		.file 1 "../convex-vexilla/cortex/fw/vexctl.c"
  29              		.loc 1 70 0
  30              		.cfi_startproc
  31              		@ args = 0, pretend = 0, frame = 0
  32              		@ frame_needed = 0, uses_anonymous_args = 0
  33              	.LVL0:
  34 0000 38B5     		push	{r3, r4, r5, lr}
  35              		.cfi_def_cfa_offset 16
  36              		.cfi_offset 3, -16
  37              		.cfi_offset 4, -12
  38              		.cfi_offset 5, -8
  39              		.cfi_offset 14, -4
  40              		.loc 1 70 0
  41 0002 0446     		mov	r4, r0
  42 0004 0D46     		mov	r5, r1
  43              		.loc 1 73 0
  44 0006 FFF7FEFF 		bl	vexSpiGetControl
  45              	.LVL1:
  46 000a 0307     		lsls	r3, r0, #28
  47 000c 04D5     		bpl	.L6
  48              		.loc 1 84 0
  49 000e 084A     		ldr	r2, .L7
  50 0010 0023     		movs	r3, #0
  51              		.loc 1 86 0
  52 0012 1846     		mov	r0, r3
  53              		.loc 1 84 0
  54 0014 1380     		strh	r3, [r2]	@ movhi
  55              		.loc 1 87 0
  56 0016 38BD     		pop	{r3, r4, r5, pc}
  57              	.L6:
ARM GAS  /var/folders/6q/x_mk5n_j3p7_c40r_2k_78980000gn/T//ccbqpbV1.s 			page 2


  58              		.loc 1 80 0
  59 0018 054B     		ldr	r3, .L7
  60 001a 2C40     		ands	r4, r4, r5
  61 001c 1988     		ldrh	r1, [r3]
  62 001e 04F0C004 		and	r4, r4, #192
  63 0022 21EA0501 		bic	r1, r1, r5
  64 0026 2143     		orrs	r1, r1, r4
  65 0028 1980     		strh	r1, [r3]	@ movhi
  66              		.loc 1 81 0
  67 002a 0120     		movs	r0, #1
  68 002c 38BD     		pop	{r3, r4, r5, pc}
  69              	.L8:
  70 002e 00BF     		.align	2
  71              	.L7:
  72 0030 00000000 		.word	.LANCHOR0
  73              		.cfi_endproc
  74              	.LFE63:
  75              		.size	vexControllerCompetitionStateSet, .-vexControllerCompetitionStateSet
  76              		.section	.text.vexControllerCompetitonState,"ax",%progbits
  77              		.align	2
  78              		.p2align 4,,15
  79              		.global	vexControllerCompetitonState
  80              		.thumb
  81              		.thumb_func
  82              		.type	vexControllerCompetitonState, %function
  83              	vexControllerCompetitonState:
  84              	.LFB64:
  85              		.loc 1 96 0
  86              		.cfi_startproc
  87              		@ args = 0, pretend = 0, frame = 0
  88              		@ frame_needed = 0, uses_anonymous_args = 0
  89 0000 08B5     		push	{r3, lr}
  90              		.cfi_def_cfa_offset 8
  91              		.cfi_offset 3, -8
  92              		.cfi_offset 14, -4
  93              		.loc 1 97 0
  94 0002 FFF7FEFF 		bl	vexSpiGetControl
  95              	.LVL2:
  96              		.loc 1 105 0
  97 0006 0207     		lsls	r2, r0, #28
  98              		.loc 1 108 0
  99 0008 044B     		ldr	r3, .L14
 100              		.loc 1 105 0
 101 000a 02D5     		bpl	.L13
 102              		.loc 1 112 0
 103 000c 0022     		movs	r2, #0
 104 000e 1A80     		strh	r2, [r3]	@ movhi
 105              		.loc 1 115 0
 106 0010 08BD     		pop	{r3, pc}
 107              	.L13:
 108              		.loc 1 108 0
 109 0012 1B88     		ldrh	r3, [r3]
 110 0014 1843     		orrs	r0, r0, r3
 111              	.LVL3:
 112 0016 80B2     		uxth	r0, r0
 113              	.LVL4:
 114 0018 08BD     		pop	{r3, pc}
ARM GAS  /var/folders/6q/x_mk5n_j3p7_c40r_2k_78980000gn/T//ccbqpbV1.s 			page 3


 115              	.L15:
 116 001a 00BF     		.align	2
 117              	.L14:
 118 001c 00000000 		.word	.LANCHOR0
 119              		.cfi_endproc
 120              	.LFE64:
 121              		.size	vexControllerCompetitonState, .-vexControllerCompetitonState
 122              		.section	.text.vexControllerGet,"ax",%progbits
 123              		.align	2
 124              		.p2align 4,,15
 125              		.global	vexControllerGet
 126              		.thumb
 127              		.thumb_func
 128              		.type	vexControllerGet, %function
 129              	vexControllerGet:
 130              	.LFB65:
 131              		.loc 1 125 0
 132              		.cfi_startproc
 133              		@ args = 0, pretend = 0, frame = 0
 134              		@ frame_needed = 0, uses_anonymous_args = 0
 135              	.LVL5:
 136 0000 10B5     		push	{r4, lr}
 137              		.cfi_def_cfa_offset 8
 138              		.cfi_offset 4, -8
 139              		.cfi_offset 14, -4
 140              		.loc 1 125 0
 141 0002 0446     		mov	r4, r0
 142              		.loc 1 130 0
 143 0004 0306     		lsls	r3, r0, #24
 144              		.loc 1 131 0
 145 0006 54BF     		ite	pl
 146 0008 0120     		movpl	r0, #1
 147              	.LVL6:
 148              		.loc 1 133 0
 149 000a 0220     		movmi	r0, #2
 150              		.loc 1 136 0
 151 000c 04F07F04 		and	r4, r4, #127
 152              		.loc 1 133 0
 153 0010 FFF7FEFF 		bl	vexSpiGetJoystickDataPtr
 154              	.LVL7:
 155              		.loc 1 136 0
 156 0014 172C     		cmp	r4, #23
 157 0016 00F28380 		bhi	.L48
 158 001a DFE804F0 		tbb	[pc, r4]
 159              	.L21:
 160 001e 7B       		.byte	(.L20-.L21)/2
 161 001f 75       		.byte	(.L22-.L21)/2
 162 0020 6F       		.byte	(.L23-.L21)/2
 163 0021 6A       		.byte	(.L24-.L21)/2
 164 0022 66       		.byte	(.L25-.L21)/2
 165 0023 62       		.byte	(.L26-.L21)/2
 166 0024 5E       		.byte	(.L27-.L21)/2
 167 0025 5A       		.byte	(.L28-.L21)/2
 168 0026 56       		.byte	(.L29-.L21)/2
 169 0027 52       		.byte	(.L30-.L21)/2
 170 0028 4E       		.byte	(.L31-.L21)/2
 171 0029 4A       		.byte	(.L32-.L21)/2
ARM GAS  /var/folders/6q/x_mk5n_j3p7_c40r_2k_78980000gn/T//ccbqpbV1.s 			page 4


 172 002a 46       		.byte	(.L33-.L21)/2
 173 002b 42       		.byte	(.L34-.L21)/2
 174 002c 3E       		.byte	(.L35-.L21)/2
 175 002d 3A       		.byte	(.L36-.L21)/2
 176 002e 28       		.byte	(.L37-.L21)/2
 177 002f 24       		.byte	(.L38-.L21)/2
 178 0030 20       		.byte	(.L39-.L21)/2
 179 0031 1A       		.byte	(.L40-.L21)/2
 180 0032 33       		.byte	(.L41-.L21)/2
 181 0033 2C       		.byte	(.L42-.L21)/2
 182 0034 14       		.byte	(.L43-.L21)/2
 183 0035 0C       		.byte	(.L44-.L21)/2
 184              		.p2align 1
 185              	.L44:
 186              		.loc 1 223 0
 187 0036 C379     		ldrb	r3, [r0, #7]	@ zero_extendqisi2
 188 0038 002B     		cmp	r3, #0
 189 003a 6FD1     		bne	.L53
 190 003c 007A     		ldrb	r0, [r0, #8]	@ zero_extendqisi2
 191              	.LVL8:
 192 003e 0030     		adds	r0, r0, #0
 193 0040 18BF     		it	ne
 194 0042 0120     		movne	r0, #1
 195 0044 10BD     		pop	{r4, pc}
 196              	.LVL9:
 197              	.L43:
 198              		.loc 1 218 0
 199 0046 007A     		ldrb	r0, [r0, #8]	@ zero_extendqisi2
 200              	.LVL10:
 201 0048 10F00F00 		ands	r0, r0, #15
 202 004c 18BF     		it	ne
 203 004e 0120     		movne	r0, #1
 204 0050 10BD     		pop	{r4, pc}
 205              	.LVL11:
 206              	.L40:
 207              		.loc 1 209 0
 208 0052 C079     		ldrb	r0, [r0, #7]	@ zero_extendqisi2
 209              	.LVL12:
 210 0054 10F00300 		ands	r0, r0, #3
 211 0058 18BF     		it	ne
 212 005a 0120     		movne	r0, #1
 213 005c 10BD     		pop	{r4, pc}
 214              	.LVL13:
 215              	.L39:
 216              		.loc 1 204 0
 217 005e 8079     		ldrb	r0, [r0, #6]	@ zero_extendqisi2
 218              	.LVL14:
 219 0060 7F38     		subs	r0, r0, #127
 220 0062 00B2     		sxth	r0, r0
 221 0064 10BD     		pop	{r4, pc}
 222              	.LVL15:
 223              	.L38:
 224              		.loc 1 201 0
 225 0066 0079     		ldrb	r0, [r0, #4]	@ zero_extendqisi2
 226              	.LVL16:
 227 0068 7F38     		subs	r0, r0, #127
 228 006a 00B2     		sxth	r0, r0
ARM GAS  /var/folders/6q/x_mk5n_j3p7_c40r_2k_78980000gn/T//ccbqpbV1.s 			page 5


 229 006c 10BD     		pop	{r4, pc}
 230              	.LVL17:
 231              	.L37:
 232              		.loc 1 198 0
 233 006e 4079     		ldrb	r0, [r0, #5]	@ zero_extendqisi2
 234              	.LVL18:
 235              	.L57:
 236 0070 7F38     		subs	r0, r0, #127
 237 0072 00B2     		sxth	r0, r0
 238 0074 10BD     		pop	{r4, pc}
 239              	.LVL19:
 240              	.L42:
 241              		.loc 1 215 0
 242 0076 037A     		ldrb	r3, [r0, #8]	@ zero_extendqisi2
 243 0078 13F0F00F 		tst	r3, #240
 244 007c 14BF     		ite	ne
 245 007e 0120     		movne	r0, #1
 246              	.LVL20:
 247 0080 0020     		moveq	r0, #0
 248 0082 10BD     		pop	{r4, pc}
 249              	.LVL21:
 250              	.L41:
 251              		.loc 1 212 0
 252 0084 C379     		ldrb	r3, [r0, #7]	@ zero_extendqisi2
 253 0086 13F00C0F 		tst	r3, #12
 254 008a 14BF     		ite	ne
 255 008c 0120     		movne	r0, #1
 256              	.LVL22:
 257 008e 0020     		moveq	r0, #0
 258 0090 10BD     		pop	{r4, pc}
 259              	.LVL23:
 260              	.L36:
 261              		.loc 1 193 0
 262 0092 C079     		ldrb	r0, [r0, #7]	@ zero_extendqisi2
 263              	.LVL24:
 264 0094 C0F3C000 		ubfx	r0, r0, #3, #1
 265 0098 10BD     		pop	{r4, pc}
 266              	.LVL25:
 267              	.L35:
 268              		.loc 1 190 0
 269 009a C079     		ldrb	r0, [r0, #7]	@ zero_extendqisi2
 270              	.LVL26:
 271 009c C0F38000 		ubfx	r0, r0, #2, #1
 272 00a0 10BD     		pop	{r4, pc}
 273              	.LVL27:
 274              	.L34:
 275              		.loc 1 186 0
 276 00a2 C079     		ldrb	r0, [r0, #7]	@ zero_extendqisi2
 277              	.LVL28:
 278 00a4 C0F34000 		ubfx	r0, r0, #1, #1
 279 00a8 10BD     		pop	{r4, pc}
 280              	.LVL29:
 281              	.L33:
 282              		.loc 1 183 0
 283 00aa C079     		ldrb	r0, [r0, #7]	@ zero_extendqisi2
 284              	.LVL30:
 285 00ac 00F00100 		and	r0, r0, #1
ARM GAS  /var/folders/6q/x_mk5n_j3p7_c40r_2k_78980000gn/T//ccbqpbV1.s 			page 6


 286 00b0 10BD     		pop	{r4, pc}
 287              	.LVL31:
 288              	.L32:
 289              		.loc 1 179 0
 290 00b2 90F90800 		ldrsb	r0, [r0, #8]
 291              	.LVL32:
 292 00b6 C00F     		lsrs	r0, r0, #31
 293 00b8 10BD     		pop	{r4, pc}
 294              	.LVL33:
 295              	.L31:
 296              		.loc 1 176 0
 297 00ba 007A     		ldrb	r0, [r0, #8]	@ zero_extendqisi2
 298              	.LVL34:
 299 00bc C0F38010 		ubfx	r0, r0, #6, #1
 300 00c0 10BD     		pop	{r4, pc}
 301              	.LVL35:
 302              	.L30:
 303              		.loc 1 173 0
 304 00c2 007A     		ldrb	r0, [r0, #8]	@ zero_extendqisi2
 305              	.LVL36:
 306 00c4 C0F34010 		ubfx	r0, r0, #5, #1
 307 00c8 10BD     		pop	{r4, pc}
 308              	.LVL37:
 309              	.L29:
 310              		.loc 1 170 0
 311 00ca 007A     		ldrb	r0, [r0, #8]	@ zero_extendqisi2
 312              	.LVL38:
 313 00cc C0F30010 		ubfx	r0, r0, #4, #1
 314 00d0 10BD     		pop	{r4, pc}
 315              	.LVL39:
 316              	.L28:
 317              		.loc 1 166 0
 318 00d2 007A     		ldrb	r0, [r0, #8]	@ zero_extendqisi2
 319              	.LVL40:
 320 00d4 C0F3C000 		ubfx	r0, r0, #3, #1
 321 00d8 10BD     		pop	{r4, pc}
 322              	.LVL41:
 323              	.L27:
 324              		.loc 1 163 0
 325 00da 007A     		ldrb	r0, [r0, #8]	@ zero_extendqisi2
 326              	.LVL42:
 327 00dc C0F38000 		ubfx	r0, r0, #2, #1
 328 00e0 10BD     		pop	{r4, pc}
 329              	.LVL43:
 330              	.L26:
 331              		.loc 1 160 0
 332 00e2 007A     		ldrb	r0, [r0, #8]	@ zero_extendqisi2
 333              	.LVL44:
 334 00e4 C0F34000 		ubfx	r0, r0, #1, #1
 335 00e8 10BD     		pop	{r4, pc}
 336              	.LVL45:
 337              	.L25:
 338              		.loc 1 157 0
 339 00ea 007A     		ldrb	r0, [r0, #8]	@ zero_extendqisi2
 340              	.LVL46:
 341 00ec 00F00100 		and	r0, r0, #1
 342 00f0 10BD     		pop	{r4, pc}
ARM GAS  /var/folders/6q/x_mk5n_j3p7_c40r_2k_78980000gn/T//ccbqpbV1.s 			page 7


 343              	.LVL47:
 344              	.L24:
 345              		.loc 1 152 0
 346 00f2 C078     		ldrb	r0, [r0, #3]	@ zero_extendqisi2
 347              	.LVL48:
 348 00f4 FF28     		cmp	r0, #255
 349 00f6 BBD1     		bne	.L57
 350              	.L52:
 351              		.loc 1 140 0
 352 00f8 7F20     		movs	r0, #127
 353              		.loc 1 229 0
 354 00fa 10BD     		pop	{r4, pc}
 355              	.LVL49:
 356              	.L23:
 357              		.loc 1 148 0
 358 00fc 8078     		ldrb	r0, [r0, #2]	@ zero_extendqisi2
 359              	.LVL50:
 360 00fe FF28     		cmp	r0, #255
 361 0100 05D0     		beq	.L51
 362              	.L55:
 363 0102 C0F17F00 		rsb	r0, r0, #127
 364 0106 10BD     		pop	{r4, pc}
 365              	.LVL51:
 366              	.L22:
 367              		.loc 1 144 0
 368 0108 4078     		ldrb	r0, [r0, #1]	@ zero_extendqisi2
 369              	.LVL52:
 370 010a FF28     		cmp	r0, #255
 371 010c F9D1     		bne	.L55
 372              	.L51:
 373 010e 6FF07E00 		mvn	r0, #126
 374              		.loc 1 149 0
 375 0112 10BD     		pop	{r4, pc}
 376              	.LVL53:
 377              	.L20:
 378              		.loc 1 140 0
 379 0114 0078     		ldrb	r0, [r0]	@ zero_extendqisi2
 380              	.LVL54:
 381 0116 FF28     		cmp	r0, #255
 382 0118 AAD1     		bne	.L57
 383 011a EDE7     		b	.L52
 384              	.LVL55:
 385              	.L53:
 386 011c 0120     		movs	r0, #1
 387              	.LVL56:
 388              		.loc 1 223 0
 389 011e 10BD     		pop	{r4, pc}
 390              	.LVL57:
 391              	.L48:
 392              		.loc 1 227 0
 393 0120 0020     		movs	r0, #0
 394              	.LVL58:
 395 0122 10BD     		pop	{r4, pc}
 396              		.cfi_endproc
 397              	.LFE65:
 398              		.size	vexControllerGet, .-vexControllerGet
 399              		.section	.text.vexControllerReleaseWait,"ax",%progbits
ARM GAS  /var/folders/6q/x_mk5n_j3p7_c40r_2k_78980000gn/T//ccbqpbV1.s 			page 8


 400              		.align	2
 401              		.p2align 4,,15
 402              		.global	vexControllerReleaseWait
 403              		.thumb
 404              		.thumb_func
 405              		.type	vexControllerReleaseWait, %function
 406              	vexControllerReleaseWait:
 407              	.LFB66:
 408              		.loc 1 237 0
 409              		.cfi_startproc
 410              		@ args = 0, pretend = 0, frame = 0
 411              		@ frame_needed = 0, uses_anonymous_args = 0
 412              	.LVL59:
 413 0000 38B5     		push	{r3, r4, r5, lr}
 414              		.cfi_def_cfa_offset 16
 415              		.cfi_offset 3, -16
 416              		.cfi_offset 4, -12
 417              		.cfi_offset 5, -8
 418              		.cfi_offset 14, -4
 419              		.loc 1 242 0
 420 0002 00F07F03 		and	r3, r0, #127
 421 0006 032B     		cmp	r3, #3
 422 0008 0CD9     		bls	.L58
 423 000a 0546     		mov	r5, r0
 424 000c C824     		movs	r4, #200
 425 000e 04E0     		b	.L61
 426              	.LVL60:
 427              	.L67:
 428              		.loc 1 251 0 discriminator 2
 429 0010 1920     		movs	r0, #25
 430 0012 FFF7FEFF 		bl	vexSleep
 431              	.LVL61:
 432              		.loc 1 246 0 discriminator 2
 433 0016 013C     		subs	r4, r4, #1
 434              	.LVL62:
 435 0018 04D0     		beq	.L58
 436              	.LVL63:
 437              	.L61:
 438              		.loc 1 248 0
 439 001a 2846     		mov	r0, r5
 440 001c FFF7FEFF 		bl	vexControllerGet
 441              	.LVL64:
 442 0020 0028     		cmp	r0, #0
 443 0022 F5D1     		bne	.L67
 444              	.LVL65:
 445              	.L58:
 446 0024 38BD     		pop	{r3, r4, r5, pc}
 447              		.cfi_endproc
 448              	.LFE66:
 449              		.size	vexControllerReleaseWait, .-vexControllerReleaseWait
 450 0026 00BF     		.section	.bss.vexLocalCompState,"aw",%nobits
 451              		.align	1
 452              		.set	.LANCHOR0,. + 0
 453              		.type	vexLocalCompState, %object
 454              		.size	vexLocalCompState, 2
 455              	vexLocalCompState:
 456 0000 0000     		.space	2
ARM GAS  /var/folders/6q/x_mk5n_j3p7_c40r_2k_78980000gn/T//ccbqpbV1.s 			page 9


 457              		.text
 458              	.Letext0:
 459              		.file 2 "/Users/Luca/src/vexilla/src/gcc-arm-none-eabi-5_4-2016q3/arm-none-eabi/include/machine/_d
 460              		.file 3 "/Users/Luca/src/vexilla/src/gcc-arm-none-eabi-5_4-2016q3/arm-none-eabi/include/sys/_stdin
 461              		.file 4 "../convex-vexilla/cortex/fw/vexdigital.h"
 462              		.file 5 "../convex-vexilla/cortex/fw/vexime.h"
 463              		.file 6 "../convex-vexilla/cortex/fw/vexspi.h"
 464              		.file 7 "../convex-vexilla/cortex/fw/vexctl.h"
 465              		.file 8 "../convex-vexilla/cortex/fw/vex.h"
 466              		.file 9 "../ChibiOS/os/ports/common/ARMCMx/CMSIS/include/core_cm3.h"