ARM GAS  /var/folders/6q/x_mk5n_j3p7_c40r_2k_78980000gn/T//cc0VacPJ.s 			page 1


   1              		.syntax unified
   2              		.cpu cortex-m3
   3              		.fpu softvfp
   4              		.eabi_attribute 20, 1
   5              		.eabi_attribute 21, 1
   6              		.eabi_attribute 23, 3
   7              		.eabi_attribute 24, 1
   8              		.eabi_attribute 25, 1
   9              		.eabi_attribute 26, 1
  10              		.eabi_attribute 30, 2
  11              		.eabi_attribute 34, 1
  12              		.eabi_attribute 18, 4
  13              		.thumb
  14              		.syntax unified
  15              		.file	"vexext.c"
  16              		.text
  17              	.Ltext0:
  18              		.cfi_sections	.debug_frame
  19              		.section	.text.vexExtSet,"ax",%progbits
  20              		.align	2
  21              		.p2align 4,,15
  22              		.global	vexExtSet
  23              		.thumb
  24              		.thumb_func
  25              		.type	vexExtSet, %function
  26              	vexExtSet:
  27              	.LFB63:
  28              		.file 1 "../convex-vexilla/cortex/fw/vexext.c"
  29              		.loc 1 188 0
  30              		.cfi_startproc
  31              		@ args = 0, pretend = 0, frame = 0
  32              		@ frame_needed = 0, uses_anonymous_args = 0
  33              		@ link register save eliminated.
  34              	.LVL0:
  35 0000 70B4     		push	{r4, r5, r6}
  36              		.cfi_def_cfa_offset 12
  37              		.cfi_offset 4, -12
  38              		.cfi_offset 5, -8
  39              		.cfi_offset 6, -4
  40              		.loc 1 189 0
  41 0002 114D     		ldr	r5, .L8
  42              		.loc 1 195 0
  43 0004 0729     		cmp	r1, #7
  44              		.loc 1 189 0
  45 0006 55F83140 		ldr	r4, [r5, r1, lsl #3]
  46              		.loc 1 190 0
  47 000a 05EBC106 		add	r6, r5, r1, lsl #3
  48              		.loc 1 189 0
  49 000e 04F0F004 		and	r4, r4, #240
  50 0012 42EA0402 		orr	r2, r2, r4
  51              	.LVL1:
  52 0016 45F83120 		str	r2, [r5, r1, lsl #3]
  53              		.loc 1 190 0
  54 001a 7360     		str	r3, [r6, #4]
  55              		.loc 1 195 0
  56 001c 01D0     		beq	.L6
  57              	.LVL2:
ARM GAS  /var/folders/6q/x_mk5n_j3p7_c40r_2k_78980000gn/T//cc0VacPJ.s 			page 2


  58              	.L1:
  59              		.loc 1 205 0
  60 001e 70BC     		pop	{r4, r5, r6}
  61              		.cfi_remember_state
  62              		.cfi_restore 6
  63              		.cfi_restore 5
  64              		.cfi_restore 4
  65              		.cfi_def_cfa_offset 0
  66              	.LVL3:
  67 0020 7047     		bx	lr
  68              	.LVL4:
  69              	.L6:
  70              		.cfi_restore_state
  71              		.loc 1 197 0
  72 0022 0A4B     		ldr	r3, .L8+4
  73              	.LVL5:
  74 0024 9842     		cmp	r0, r3
  75 0026 08D0     		beq	.L7
  76              		.loc 1 199 0
  77 0028 094B     		ldr	r3, .L8+8
  78 002a 9842     		cmp	r0, r3
  79 002c F7D1     		bne	.L1
  80              		.loc 1 200 0
  81 002e 22F0F002 		bic	r2, r2, #240
  82 0032 42F02002 		orr	r2, r2, #32
  83 0036 AA63     		str	r2, [r5, #56]
  84              		.loc 1 205 0
  85 0038 F1E7     		b	.L1
  86              	.L7:
  87              		.loc 1 198 0
  88 003a 22F0F002 		bic	r2, r2, #240
  89 003e 42F04002 		orr	r2, r2, #64
  90 0042 AA63     		str	r2, [r5, #56]
  91 0044 EBE7     		b	.L1
  92              	.L9:
  93 0046 00BF     		.align	2
  94              	.L8:
  95 0048 00000000 		.word	.LANCHOR0
  96 004c 00180140 		.word	1073813504
  97 0050 00100140 		.word	1073811456
  98              		.cfi_endproc
  99              	.LFE63:
 100              		.size	vexExtSet, .-vexExtSet
 101              		.section	.text.vexExtIrqInit,"ax",%progbits
 102              		.align	2
 103              		.p2align 4,,15
 104              		.global	vexExtIrqInit
 105              		.thumb
 106              		.thumb_func
 107              		.type	vexExtIrqInit, %function
 108              	vexExtIrqInit:
 109              	.LFB64:
 110              		.loc 1 216 0
 111              		.cfi_startproc
 112              		@ args = 0, pretend = 0, frame = 0
 113              		@ frame_needed = 0, uses_anonymous_args = 0
 114              		@ link register save eliminated.
ARM GAS  /var/folders/6q/x_mk5n_j3p7_c40r_2k_78980000gn/T//cc0VacPJ.s 			page 3


 115              		.loc 1 218 0
 116 0000 0149     		ldr	r1, .L11
 117 0002 0248     		ldr	r0, .L11+4
 118 0004 FFF7FEBF 		b	extStart
 119              	.LVL6:
 120              	.L12:
 121              		.align	2
 122              	.L11:
 123 0008 00000000 		.word	.LANCHOR0
 124 000c 00000000 		.word	EXTD1
 125              		.cfi_endproc
 126              	.LFE64:
 127              		.size	vexExtIrqInit, .-vexExtIrqInit
 128              		.section	.data.vexExtCfg,"aw",%progbits
 129              		.align	2
 130              		.set	.LANCHOR0,. + 0
 131              		.type	vexExtCfg, %object
 132              		.size	vexExtCfg, 152
 133              	vexExtCfg:
 134 0000 30000000 		.word	48
 135 0004 00000000 		.word	0
 136 0008 30000000 		.word	48
 137 000c 00000000 		.word	0
 138 0010 00000000 		.word	0
 139 0014 00000000 		.word	0
 140 0018 00000000 		.word	0
 141 001c 00000000 		.word	0
 142 0020 00000000 		.word	0
 143 0024 00000000 		.word	0
 144 0028 00000000 		.word	0
 145 002c 00000000 		.word	0
 146 0030 20000000 		.word	32
 147 0034 00000000 		.word	0
 148 0038 20000000 		.word	32
 149 003c 00000000 		.word	0
 150 0040 40000000 		.word	64
 151 0044 00000000 		.word	0
 152 0048 40000000 		.word	64
 153 004c 00000000 		.word	0
 154 0050 40000000 		.word	64
 155 0054 00000000 		.word	0
 156 0058 40000000 		.word	64
 157 005c 00000000 		.word	0
 158 0060 40000000 		.word	64
 159 0064 00000000 		.word	0
 160 0068 40000000 		.word	64
 161 006c 00000000 		.word	0
 162 0070 40000000 		.word	64
 163 0074 00000000 		.word	0
 164 0078 00000000 		.word	0
 165 007c 00000000 		.word	0
 166 0080 00000000 		.space	24
 166      00000000 
 166      00000000 
 166      00000000 
 166      00000000 
 167              		.text
ARM GAS  /var/folders/6q/x_mk5n_j3p7_c40r_2k_78980000gn/T//cc0VacPJ.s 			page 4


 168              	.Letext0:
 169              		.file 2 "/Users/Luca/src/vexilla/src/gcc-arm-none-eabi-5_4-2016q3/arm-none-eabi/include/machine/_d
 170              		.file 3 "/Users/Luca/src/vexilla/src/gcc-arm-none-eabi-5_4-2016q3/arm-none-eabi/include/sys/_stdin
 171              		.file 4 "../ChibiOS/os/hal/platforms/STM32F1xx/stm32f10x.h"
 172              		.file 5 "../ChibiOS/os/hal/platforms/STM32/GPIOv1/pal_lld.h"
 173              		.file 6 "../ChibiOS/os/hal/include/ext.h"
 174              		.file 7 "../ChibiOS/os/hal/platforms/STM32/ext_lld.h"
 175              		.file 8 "../convex-vexilla/cortex/fw/vexdigital.h"
 176              		.file 9 "../convex-vexilla/cortex/fw/vexime.h"
 177              		.file 10 "../ChibiOS/os/ports/common/ARMCMx/CMSIS/include/core_cm3.h"
 178              		.section	.debug_info,"",%progbits
 179              	.Ldebug_info0:
 180 0000 B0030000 		.4byte	0x3b0
 181 0004 0400     		.2byte	0x4
 182 0006 00000000 		.4byte	.Ldebug_abbrev0
 183 000a 04       		.byte	0x4
 184 000b 01       		.uleb128 0x1
 185 000c 06010000 		.4byte	.LASF68
 186 0010 0C       		.byte	0xc
 187 0011 E0010000 		.4byte	.LASF69
 188 0015 55020000 		.4byte	.LASF70
 189 0019 00000000 		.4byte	.Ldebug_ranges0+0
 190 001d 00000000 		.4byte	0
 191 0021 00000000 		.4byte	.Ldebug_line0
 192 0025 02       		.uleb128 0x2
 193 0026 04       		.byte	0x4
 194 0027 07       		.byte	0x7
 195 0028 58040000 		.4byte	.LASF0
 196 002c 03       		.uleb128 0x3
 197 002d 04       		.byte	0x4
 198 002e 05       		.byte	0x5
 199 002f 696E7400 		.ascii	"int\000"
 200 0033 02       		.uleb128 0x2
 201 0034 08       		.byte	0x8
 202 0035 05       		.byte	0x5
 203 0036 3E020000 		.4byte	.LASF1
 204 003a 02       		.uleb128 0x2
 205 003b 08       		.byte	0x8
 206 003c 04       		.byte	0x4
 207 003d B1020000 		.4byte	.LASF2
 208 0041 02       		.uleb128 0x2
 209 0042 01       		.byte	0x1
 210 0043 06       		.byte	0x6
 211 0044 32020000 		.4byte	.LASF3
 212 0048 02       		.uleb128 0x2
 213 0049 01       		.byte	0x1
 214 004a 08       		.byte	0x8
 215 004b BD020000 		.4byte	.LASF4
 216 004f 02       		.uleb128 0x2
 217 0050 02       		.byte	0x2
 218 0051 05       		.byte	0x5
 219 0052 8F000000 		.4byte	.LASF5
 220 0056 04       		.uleb128 0x4
 221 0057 C6000000 		.4byte	.LASF7
 222 005b 02       		.byte	0x2
 223 005c 2B       		.byte	0x2b
 224 005d 61000000 		.4byte	0x61
ARM GAS  /var/folders/6q/x_mk5n_j3p7_c40r_2k_78980000gn/T//cc0VacPJ.s 			page 5


 225 0061 02       		.uleb128 0x2
 226 0062 02       		.byte	0x2
 227 0063 07       		.byte	0x7
 228 0064 33030000 		.4byte	.LASF6
 229 0068 04       		.uleb128 0x4
 230 0069 0C040000 		.4byte	.LASF8
 231 006d 02       		.byte	0x2
 232 006e 3F       		.byte	0x3f
 233 006f 73000000 		.4byte	0x73
 234 0073 02       		.uleb128 0x2
 235 0074 04       		.byte	0x4
 236 0075 05       		.byte	0x5
 237 0076 4C020000 		.4byte	.LASF9
 238 007a 04       		.uleb128 0x4
 239 007b B6000000 		.4byte	.LASF10
 240 007f 02       		.byte	0x2
 241 0080 41       		.byte	0x41
 242 0081 85000000 		.4byte	0x85
 243 0085 02       		.uleb128 0x2
 244 0086 04       		.byte	0x4
 245 0087 07       		.byte	0x7
 246 0088 EF030000 		.4byte	.LASF11
 247 008c 02       		.uleb128 0x2
 248 008d 08       		.byte	0x8
 249 008e 07       		.byte	0x7
 250 008f F2020000 		.4byte	.LASF12
 251 0093 02       		.uleb128 0x2
 252 0094 04       		.byte	0x4
 253 0095 07       		.byte	0x7
 254 0096 99000000 		.4byte	.LASF13
 255 009a 02       		.uleb128 0x2
 256 009b 01       		.byte	0x1
 257 009c 08       		.byte	0x8
 258 009d 57030000 		.4byte	.LASF14
 259 00a1 04       		.uleb128 0x4
 260 00a2 1C030000 		.4byte	.LASF15
 261 00a6 03       		.byte	0x3
 262 00a7 24       		.byte	0x24
 263 00a8 56000000 		.4byte	0x56
 264 00ac 04       		.uleb128 0x4
 265 00ad 78030000 		.4byte	.LASF16
 266 00b1 03       		.byte	0x3
 267 00b2 2C       		.byte	0x2c
 268 00b3 68000000 		.4byte	0x68
 269 00b7 04       		.uleb128 0x4
 270 00b8 09030000 		.4byte	.LASF17
 271 00bc 03       		.byte	0x3
 272 00bd 30       		.byte	0x30
 273 00be 7A000000 		.4byte	0x7a
 274 00c2 02       		.uleb128 0x2
 275 00c3 01       		.byte	0x1
 276 00c4 02       		.byte	0x2
 277 00c5 CC030000 		.4byte	.LASF18
 278 00c9 05       		.uleb128 0x5
 279 00ca B7000000 		.4byte	0xb7
 280 00ce 05       		.uleb128 0x5
 281 00cf AC000000 		.4byte	0xac
ARM GAS  /var/folders/6q/x_mk5n_j3p7_c40r_2k_78980000gn/T//cc0VacPJ.s 			page 6


 282 00d3 06       		.uleb128 0x6
 283 00d4 1C       		.byte	0x1c
 284 00d5 04       		.byte	0x4
 285 00d6 F803     		.2byte	0x3f8
 286 00d8 38010000 		.4byte	0x138
 287 00dc 07       		.uleb128 0x7
 288 00dd 43524C00 		.ascii	"CRL\000"
 289 00e1 04       		.byte	0x4
 290 00e2 FA03     		.2byte	0x3fa
 291 00e4 C9000000 		.4byte	0xc9
 292 00e8 00       		.byte	0
 293 00e9 07       		.uleb128 0x7
 294 00ea 43524800 		.ascii	"CRH\000"
 295 00ee 04       		.byte	0x4
 296 00ef FB03     		.2byte	0x3fb
 297 00f1 C9000000 		.4byte	0xc9
 298 00f5 04       		.byte	0x4
 299 00f6 07       		.uleb128 0x7
 300 00f7 49445200 		.ascii	"IDR\000"
 301 00fb 04       		.byte	0x4
 302 00fc FC03     		.2byte	0x3fc
 303 00fe C9000000 		.4byte	0xc9
 304 0102 08       		.byte	0x8
 305 0103 07       		.uleb128 0x7
 306 0104 4F445200 		.ascii	"ODR\000"
 307 0108 04       		.byte	0x4
 308 0109 FD03     		.2byte	0x3fd
 309 010b C9000000 		.4byte	0xc9
 310 010f 0C       		.byte	0xc
 311 0110 08       		.uleb128 0x8
 312 0111 77020000 		.4byte	.LASF19
 313 0115 04       		.byte	0x4
 314 0116 FE03     		.2byte	0x3fe
 315 0118 C9000000 		.4byte	0xc9
 316 011c 10       		.byte	0x10
 317 011d 07       		.uleb128 0x7
 318 011e 42525200 		.ascii	"BRR\000"
 319 0122 04       		.byte	0x4
 320 0123 FF03     		.2byte	0x3ff
 321 0125 C9000000 		.4byte	0xc9
 322 0129 14       		.byte	0x14
 323 012a 08       		.uleb128 0x8
 324 012b 65040000 		.4byte	.LASF20
 325 012f 04       		.byte	0x4
 326 0130 0004     		.2byte	0x400
 327 0132 C9000000 		.4byte	0xc9
 328 0136 18       		.byte	0x18
 329 0137 00       		.byte	0
 330 0138 09       		.uleb128 0x9
 331 0139 00000000 		.4byte	.LASF21
 332 013d 04       		.byte	0x4
 333 013e 0104     		.2byte	0x401
 334 0140 D3000000 		.4byte	0xd3
 335 0144 04       		.uleb128 0x4
 336 0145 A6020000 		.4byte	.LASF22
 337 0149 05       		.byte	0x5
 338 014a 7A       		.byte	0x7a
ARM GAS  /var/folders/6q/x_mk5n_j3p7_c40r_2k_78980000gn/T//cc0VacPJ.s 			page 7


 339 014b 4F010000 		.4byte	0x14f
 340 014f 0A       		.uleb128 0xa
 341 0150 04       		.byte	0x4
 342 0151 38010000 		.4byte	0x138
 343 0155 0B       		.uleb128 0xb
 344 0156 01       		.byte	0x1
 345 0157 48000000 		.4byte	0x48
 346 015b 06       		.byte	0x6
 347 015c 4A       		.byte	0x4a
 348 015d 74010000 		.4byte	0x174
 349 0161 0C       		.uleb128 0xc
 350 0162 E7020000 		.4byte	.LASF23
 351 0166 00       		.byte	0
 352 0167 0C       		.uleb128 0xc
 353 0168 DA000000 		.4byte	.LASF24
 354 016c 01       		.byte	0x1
 355 016d 0C       		.uleb128 0xc
 356 016e 7C020000 		.4byte	.LASF25
 357 0172 02       		.byte	0x2
 358 0173 00       		.byte	0
 359 0174 04       		.uleb128 0x4
 360 0175 01040000 		.4byte	.LASF26
 361 0179 06       		.byte	0x6
 362 017a 4E       		.byte	0x4e
 363 017b 55010000 		.4byte	0x155
 364 017f 04       		.uleb128 0x4
 365 0180 41040000 		.4byte	.LASF27
 366 0184 06       		.byte	0x6
 367 0185 53       		.byte	0x53
 368 0186 8A010000 		.4byte	0x18a
 369 018a 0D       		.uleb128 0xd
 370 018b 41040000 		.4byte	.LASF27
 371 018f 08       		.byte	0x8
 372 0190 07       		.byte	0x7
 373 0191 71       		.byte	0x71
 374 0192 AF010000 		.4byte	0x1af
 375 0196 0E       		.uleb128 0xe
 376 0197 5F000000 		.4byte	.LASF28
 377 019b 07       		.byte	0x7
 378 019c 75       		.byte	0x75
 379 019d 74010000 		.4byte	0x174
 380 01a1 00       		.byte	0
 381 01a2 0E       		.uleb128 0xe
 382 01a3 F5000000 		.4byte	.LASF29
 383 01a7 07       		.byte	0x7
 384 01a8 79       		.byte	0x79
 385 01a9 3C020000 		.4byte	0x23c
 386 01ad 04       		.byte	0x4
 387 01ae 00       		.byte	0
 388 01af 04       		.uleb128 0x4
 389 01b0 34040000 		.4byte	.LASF30
 390 01b4 07       		.byte	0x7
 391 01b5 47       		.byte	0x47
 392 01b6 B7000000 		.4byte	0xb7
 393 01ba 04       		.uleb128 0x4
 394 01bb CB020000 		.4byte	.LASF31
 395 01bf 07       		.byte	0x7
ARM GAS  /var/folders/6q/x_mk5n_j3p7_c40r_2k_78980000gn/T//cc0VacPJ.s 			page 8


 396 01c0 4F       		.byte	0x4f
 397 01c1 C5010000 		.4byte	0x1c5
 398 01c5 0A       		.uleb128 0xa
 399 01c6 04       		.byte	0x4
 400 01c7 CB010000 		.4byte	0x1cb
 401 01cb 0F       		.uleb128 0xf
 402 01cc DB010000 		.4byte	0x1db
 403 01d0 10       		.uleb128 0x10
 404 01d1 DB010000 		.4byte	0x1db
 405 01d5 10       		.uleb128 0x10
 406 01d6 AF010000 		.4byte	0x1af
 407 01da 00       		.byte	0
 408 01db 0A       		.uleb128 0xa
 409 01dc 04       		.byte	0x4
 410 01dd 7F010000 		.4byte	0x17f
 411 01e1 11       		.uleb128 0x11
 412 01e2 08       		.byte	0x8
 413 01e3 07       		.byte	0x7
 414 01e4 54       		.byte	0x54
 415 01e5 01020000 		.4byte	0x201
 416 01e9 0E       		.uleb128 0xe
 417 01ea C1000000 		.4byte	.LASF32
 418 01ee 07       		.byte	0x7
 419 01ef 58       		.byte	0x58
 420 01f0 B7000000 		.4byte	0xb7
 421 01f4 00       		.byte	0
 422 01f5 12       		.uleb128 0x12
 423 01f6 636200   		.ascii	"cb\000"
 424 01f9 07       		.byte	0x7
 425 01fa 5F       		.byte	0x5f
 426 01fb BA010000 		.4byte	0x1ba
 427 01ff 04       		.byte	0x4
 428 0200 00       		.byte	0
 429 0201 04       		.uleb128 0x4
 430 0202 46030000 		.4byte	.LASF33
 431 0206 07       		.byte	0x7
 432 0207 60       		.byte	0x60
 433 0208 E1010000 		.4byte	0x1e1
 434 020c 11       		.uleb128 0x11
 435 020d 98       		.byte	0x98
 436 020e 07       		.byte	0x7
 437 020f 66       		.byte	0x66
 438 0210 21020000 		.4byte	0x221
 439 0214 0E       		.uleb128 0xe
 440 0215 D1000000 		.4byte	.LASF34
 441 0219 07       		.byte	0x7
 442 021a 6A       		.byte	0x6a
 443 021b 21020000 		.4byte	0x221
 444 021f 00       		.byte	0
 445 0220 00       		.byte	0
 446 0221 13       		.uleb128 0x13
 447 0222 01020000 		.4byte	0x201
 448 0226 31020000 		.4byte	0x231
 449 022a 14       		.uleb128 0x14
 450 022b 93000000 		.4byte	0x93
 451 022f 12       		.byte	0x12
 452 0230 00       		.byte	0
ARM GAS  /var/folders/6q/x_mk5n_j3p7_c40r_2k_78980000gn/T//cc0VacPJ.s 			page 9


 453 0231 04       		.uleb128 0x4
 454 0232 12030000 		.4byte	.LASF35
 455 0236 07       		.byte	0x7
 456 0237 6C       		.byte	0x6c
 457 0238 0C020000 		.4byte	0x20c
 458 023c 0A       		.uleb128 0xa
 459 023d 04       		.byte	0x4
 460 023e 42020000 		.4byte	0x242
 461 0242 15       		.uleb128 0x15
 462 0243 31020000 		.4byte	0x231
 463 0247 0B       		.uleb128 0xb
 464 0248 01       		.byte	0x1
 465 0249 41000000 		.4byte	0x41
 466 024d 08       		.byte	0x8
 467 024e 8D       		.byte	0x8d
 468 024f A8020000 		.4byte	0x2a8
 469 0253 16       		.uleb128 0x16
 470 0254 0D000000 		.4byte	.LASF36
 471 0258 7F       		.sleb128 -1
 472 0259 0C       		.uleb128 0xc
 473 025a 5C030000 		.4byte	.LASF37
 474 025e 00       		.byte	0
 475 025f 0C       		.uleb128 0xc
 476 0260 6A030000 		.4byte	.LASF38
 477 0264 01       		.byte	0x1
 478 0265 0C       		.uleb128 0xc
 479 0266 98020000 		.4byte	.LASF39
 480 026a 02       		.byte	0x2
 481 026b 0C       		.uleb128 0xc
 482 026c 80030000 		.4byte	.LASF40
 483 0270 03       		.byte	0x3
 484 0271 0C       		.uleb128 0xc
 485 0272 8E030000 		.4byte	.LASF41
 486 0276 04       		.byte	0x4
 487 0277 0C       		.uleb128 0xc
 488 0278 9C030000 		.4byte	.LASF42
 489 027c 05       		.byte	0x5
 490 027d 0C       		.uleb128 0xc
 491 027e 25030000 		.4byte	.LASF43
 492 0282 06       		.byte	0x6
 493 0283 0C       		.uleb128 0xc
 494 0284 B0030000 		.4byte	.LASF44
 495 0288 07       		.byte	0x7
 496 0289 0C       		.uleb128 0xc
 497 028a BE030000 		.4byte	.LASF45
 498 028e 08       		.byte	0x8
 499 028f 0C       		.uleb128 0xc
 500 0290 05020000 		.4byte	.LASF46
 501 0294 09       		.byte	0x9
 502 0295 0C       		.uleb128 0xc
 503 0296 14020000 		.4byte	.LASF47
 504 029a 0A       		.byte	0xa
 505 029b 0C       		.uleb128 0xc
 506 029c 23020000 		.4byte	.LASF48
 507 02a0 0B       		.byte	0xb
 508 02a1 0C       		.uleb128 0xc
 509 02a2 24040000 		.4byte	.LASF49
ARM GAS  /var/folders/6q/x_mk5n_j3p7_c40r_2k_78980000gn/T//cc0VacPJ.s 			page 10


 510 02a6 0C       		.byte	0xc
 511 02a7 00       		.byte	0
 512 02a8 0B       		.uleb128 0xb
 513 02a9 01       		.byte	0x1
 514 02aa 48000000 		.4byte	0x48
 515 02ae 08       		.byte	0x8
 516 02af A2       		.byte	0xa2
 517 02b0 C1020000 		.4byte	0x2c1
 518 02b4 0C       		.uleb128 0xc
 519 02b5 87020000 		.4byte	.LASF50
 520 02b9 00       		.byte	0
 521 02ba 0C       		.uleb128 0xc
 522 02bb E3000000 		.4byte	.LASF51
 523 02bf 01       		.byte	0x1
 524 02c0 00       		.byte	0
 525 02c1 0B       		.uleb128 0xb
 526 02c2 01       		.byte	0x1
 527 02c3 48000000 		.4byte	0x48
 528 02c7 09       		.byte	0x9
 529 02c8 46       		.byte	0x46
 530 02c9 0A030000 		.4byte	0x30a
 531 02cd 0C       		.uleb128 0xc
 532 02ce 27000000 		.4byte	.LASF52
 533 02d2 00       		.byte	0
 534 02d3 0C       		.uleb128 0xc
 535 02d4 35000000 		.4byte	.LASF53
 536 02d8 01       		.byte	0x1
 537 02d9 0C       		.uleb128 0xc
 538 02da 43000000 		.4byte	.LASF54
 539 02de 02       		.byte	0x2
 540 02df 0C       		.uleb128 0xc
 541 02e0 51000000 		.4byte	.LASF55
 542 02e4 03       		.byte	0x3
 543 02e5 0C       		.uleb128 0xc
 544 02e6 D9020000 		.4byte	.LASF56
 545 02ea 04       		.byte	0x4
 546 02eb 0C       		.uleb128 0xc
 547 02ec 65000000 		.4byte	.LASF57
 548 02f0 05       		.byte	0x5
 549 02f1 0C       		.uleb128 0xc
 550 02f2 73000000 		.4byte	.LASF58
 551 02f6 06       		.byte	0x6
 552 02f7 0C       		.uleb128 0xc
 553 02f8 81000000 		.4byte	.LASF59
 554 02fc 07       		.byte	0x7
 555 02fd 0C       		.uleb128 0xc
 556 02fe A2000000 		.4byte	.LASF60
 557 0302 08       		.byte	0x8
 558 0303 0C       		.uleb128 0xc
 559 0304 DA030000 		.4byte	.LASF61
 560 0308 63       		.byte	0x63
 561 0309 00       		.byte	0
 562 030a 17       		.uleb128 0x17
 563 030b AC000000 		.4byte	.LASF64
 564 030f 01       		.byte	0x1
 565 0310 BB       		.byte	0xbb
 566 0311 00000000 		.4byte	.LFB63
ARM GAS  /var/folders/6q/x_mk5n_j3p7_c40r_2k_78980000gn/T//cc0VacPJ.s 			page 11


 567 0315 54000000 		.4byte	.LFE63-.LFB63
 568 0319 01       		.uleb128 0x1
 569 031a 9C       		.byte	0x9c
 570 031b 57030000 		.4byte	0x357
 571 031f 18       		.uleb128 0x18
 572 0320 EA030000 		.4byte	.LASF62
 573 0324 01       		.byte	0x1
 574 0325 BB       		.byte	0xbb
 575 0326 44010000 		.4byte	0x144
 576 032a 01       		.uleb128 0x1
 577 032b 50       		.byte	0x50
 578 032c 18       		.uleb128 0x18
 579 032d D2030000 		.4byte	.LASF63
 580 0331 01       		.byte	0x1
 581 0332 BB       		.byte	0xbb
 582 0333 A1000000 		.4byte	0xa1
 583 0337 01       		.uleb128 0x1
 584 0338 51       		.byte	0x51
 585 0339 19       		.uleb128 0x19
 586 033a C1000000 		.4byte	.LASF32
 587 033e 01       		.byte	0x1
 588 033f BB       		.byte	0xbb
 589 0340 B7000000 		.4byte	0xb7
 590 0344 00000000 		.4byte	.LLST0
 591 0348 1A       		.uleb128 0x1a
 592 0349 636200   		.ascii	"cb\000"
 593 034c 01       		.byte	0x1
 594 034d BB       		.byte	0xbb
 595 034e BA010000 		.4byte	0x1ba
 596 0352 21000000 		.4byte	.LLST1
 597 0356 00       		.byte	0
 598 0357 17       		.uleb128 0x17
 599 0358 16040000 		.4byte	.LASF65
 600 035c 01       		.byte	0x1
 601 035d D7       		.byte	0xd7
 602 035e 00000000 		.4byte	.LFB64
 603 0362 10000000 		.4byte	.LFE64-.LFB64
 604 0366 01       		.uleb128 0x1
 605 0367 9C       		.byte	0x9c
 606 0368 80030000 		.4byte	0x380
 607 036c 1B       		.uleb128 0x1b
 608 036d 08000000 		.4byte	.LVL6
 609 0371 A8030000 		.4byte	0x3a8
 610 0375 1C       		.uleb128 0x1c
 611 0376 01       		.uleb128 0x1
 612 0377 51       		.byte	0x51
 613 0378 05       		.uleb128 0x5
 614 0379 03       		.byte	0x3
 615 037a 00000000 		.4byte	.LANCHOR0
 616 037e 00       		.byte	0
 617 037f 00       		.byte	0
 618 0380 1D       		.uleb128 0x1d
 619 0381 FC000000 		.4byte	.LASF71
 620 0385 01       		.byte	0x1
 621 0386 68       		.byte	0x68
 622 0387 31020000 		.4byte	0x231
 623 038b 05       		.uleb128 0x5
ARM GAS  /var/folders/6q/x_mk5n_j3p7_c40r_2k_78980000gn/T//cc0VacPJ.s 			page 12


 624 038c 03       		.byte	0x3
 625 038d 00000000 		.4byte	vexExtCfg
 626 0391 1E       		.uleb128 0x1e
 627 0392 4B040000 		.4byte	.LASF66
 628 0396 0A       		.byte	0xa
 629 0397 0706     		.2byte	0x607
 630 0399 CE000000 		.4byte	0xce
 631 039d 1F       		.uleb128 0x1f
 632 039e AA030000 		.4byte	.LASF67
 633 03a2 07       		.byte	0x7
 634 03a3 86       		.byte	0x86
 635 03a4 7F010000 		.4byte	0x17f
 636 03a8 20       		.uleb128 0x20
 637 03a9 1E000000 		.4byte	.LASF72
 638 03ad 1E000000 		.4byte	.LASF72
 639 03b1 06       		.byte	0x6
 640 03b2 92       		.byte	0x92
 641 03b3 00       		.byte	0
 642              		.section	.debug_abbrev,"",%progbits
 643              	.Ldebug_abbrev0:
 644 0000 01       		.uleb128 0x1
 645 0001 11       		.uleb128 0x11
 646 0002 01       		.byte	0x1
 647 0003 25       		.uleb128 0x25
 648 0004 0E       		.uleb128 0xe
 649 0005 13       		.uleb128 0x13
 650 0006 0B       		.uleb128 0xb
 651 0007 03       		.uleb128 0x3
 652 0008 0E       		.uleb128 0xe
 653 0009 1B       		.uleb128 0x1b
 654 000a 0E       		.uleb128 0xe
 655 000b 55       		.uleb128 0x55
 656 000c 17       		.uleb128 0x17
 657 000d 11       		.uleb128 0x11
 658 000e 01       		.uleb128 0x1
 659 000f 10       		.uleb128 0x10
 660 0010 17       		.uleb128 0x17
 661 0011 00       		.byte	0
 662 0012 00       		.byte	0
 663 0013 02       		.uleb128 0x2
 664 0014 24       		.uleb128 0x24
 665 0015 00       		.byte	0
 666 0016 0B       		.uleb128 0xb
 667 0017 0B       		.uleb128 0xb
 668 0018 3E       		.uleb128 0x3e
 669 0019 0B       		.uleb128 0xb
 670 001a 03       		.uleb128 0x3
 671 001b 0E       		.uleb128 0xe
 672 001c 00       		.byte	0
 673 001d 00       		.byte	0
 674 001e 03       		.uleb128 0x3
 675 001f 24       		.uleb128 0x24
 676 0020 00       		.byte	0
 677 0021 0B       		.uleb128 0xb
 678 0022 0B       		.uleb128 0xb
 679 0023 3E       		.uleb128 0x3e
 680 0024 0B       		.uleb128 0xb
ARM GAS  /var/folders/6q/x_mk5n_j3p7_c40r_2k_78980000gn/T//cc0VacPJ.s 			page 13


 681 0025 03       		.uleb128 0x3
 682 0026 08       		.uleb128 0x8
 683 0027 00       		.byte	0
 684 0028 00       		.byte	0
 685 0029 04       		.uleb128 0x4
 686 002a 16       		.uleb128 0x16
 687 002b 00       		.byte	0
 688 002c 03       		.uleb128 0x3
 689 002d 0E       		.uleb128 0xe
 690 002e 3A       		.uleb128 0x3a
 691 002f 0B       		.uleb128 0xb
 692 0030 3B       		.uleb128 0x3b
 693 0031 0B       		.uleb128 0xb
 694 0032 49       		.uleb128 0x49
 695 0033 13       		.uleb128 0x13
 696 0034 00       		.byte	0
 697 0035 00       		.byte	0
 698 0036 05       		.uleb128 0x5
 699 0037 35       		.uleb128 0x35
 700 0038 00       		.byte	0
 701 0039 49       		.uleb128 0x49
 702 003a 13       		.uleb128 0x13
 703 003b 00       		.byte	0
 704 003c 00       		.byte	0
 705 003d 06       		.uleb128 0x6
 706 003e 13       		.uleb128 0x13
 707 003f 01       		.byte	0x1
 708 0040 0B       		.uleb128 0xb
 709 0041 0B       		.uleb128 0xb
 710 0042 3A       		.uleb128 0x3a
 711 0043 0B       		.uleb128 0xb
 712 0044 3B       		.uleb128 0x3b
 713 0045 05       		.uleb128 0x5
 714 0046 01       		.uleb128 0x1
 715 0047 13       		.uleb128 0x13
 716 0048 00       		.byte	0
 717 0049 00       		.byte	0
 718 004a 07       		.uleb128 0x7
 719 004b 0D       		.uleb128 0xd
 720 004c 00       		.byte	0
 721 004d 03       		.uleb128 0x3
 722 004e 08       		.uleb128 0x8
 723 004f 3A       		.uleb128 0x3a
 724 0050 0B       		.uleb128 0xb
 725 0051 3B       		.uleb128 0x3b
 726 0052 05       		.uleb128 0x5
 727 0053 49       		.uleb128 0x49
 728 0054 13       		.uleb128 0x13
 729 0055 38       		.uleb128 0x38
 730 0056 0B       		.uleb128 0xb
 731 0057 00       		.byte	0
 732 0058 00       		.byte	0
 733 0059 08       		.uleb128 0x8
 734 005a 0D       		.uleb128 0xd
 735 005b 00       		.byte	0
 736 005c 03       		.uleb128 0x3
 737 005d 0E       		.uleb128 0xe
ARM GAS  /var/folders/6q/x_mk5n_j3p7_c40r_2k_78980000gn/T//cc0VacPJ.s 			page 14


 738 005e 3A       		.uleb128 0x3a
 739 005f 0B       		.uleb128 0xb
 740 0060 3B       		.uleb128 0x3b
 741 0061 05       		.uleb128 0x5
 742 0062 49       		.uleb128 0x49
 743 0063 13       		.uleb128 0x13
 744 0064 38       		.uleb128 0x38
 745 0065 0B       		.uleb128 0xb
 746 0066 00       		.byte	0
 747 0067 00       		.byte	0
 748 0068 09       		.uleb128 0x9
 749 0069 16       		.uleb128 0x16
 750 006a 00       		.byte	0
 751 006b 03       		.uleb128 0x3
 752 006c 0E       		.uleb128 0xe
 753 006d 3A       		.uleb128 0x3a
 754 006e 0B       		.uleb128 0xb
 755 006f 3B       		.uleb128 0x3b
 756 0070 05       		.uleb128 0x5
 757 0071 49       		.uleb128 0x49
 758 0072 13       		.uleb128 0x13
 759 0073 00       		.byte	0
 760 0074 00       		.byte	0
 761 0075 0A       		.uleb128 0xa
 762 0076 0F       		.uleb128 0xf
 763 0077 00       		.byte	0
 764 0078 0B       		.uleb128 0xb
 765 0079 0B       		.uleb128 0xb
 766 007a 49       		.uleb128 0x49
 767 007b 13       		.uleb128 0x13
 768 007c 00       		.byte	0
 769 007d 00       		.byte	0
 770 007e 0B       		.uleb128 0xb
 771 007f 04       		.uleb128 0x4
 772 0080 01       		.byte	0x1
 773 0081 0B       		.uleb128 0xb
 774 0082 0B       		.uleb128 0xb
 775 0083 49       		.uleb128 0x49
 776 0084 13       		.uleb128 0x13
 777 0085 3A       		.uleb128 0x3a
 778 0086 0B       		.uleb128 0xb
 779 0087 3B       		.uleb128 0x3b
 780 0088 0B       		.uleb128 0xb
 781 0089 01       		.uleb128 0x1
 782 008a 13       		.uleb128 0x13
 783 008b 00       		.byte	0
 784 008c 00       		.byte	0
 785 008d 0C       		.uleb128 0xc
 786 008e 28       		.uleb128 0x28
 787 008f 00       		.byte	0
 788 0090 03       		.uleb128 0x3
 789 0091 0E       		.uleb128 0xe
 790 0092 1C       		.uleb128 0x1c
 791 0093 0B       		.uleb128 0xb
 792 0094 00       		.byte	0
 793 0095 00       		.byte	0
 794 0096 0D       		.uleb128 0xd
ARM GAS  /var/folders/6q/x_mk5n_j3p7_c40r_2k_78980000gn/T//cc0VacPJ.s 			page 15


 795 0097 13       		.uleb128 0x13
 796 0098 01       		.byte	0x1
 797 0099 03       		.uleb128 0x3
 798 009a 0E       		.uleb128 0xe
 799 009b 0B       		.uleb128 0xb
 800 009c 0B       		.uleb128 0xb
 801 009d 3A       		.uleb128 0x3a
 802 009e 0B       		.uleb128 0xb
 803 009f 3B       		.uleb128 0x3b
 804 00a0 0B       		.uleb128 0xb
 805 00a1 01       		.uleb128 0x1
 806 00a2 13       		.uleb128 0x13
 807 00a3 00       		.byte	0
 808 00a4 00       		.byte	0
 809 00a5 0E       		.uleb128 0xe
 810 00a6 0D       		.uleb128 0xd
 811 00a7 00       		.byte	0
 812 00a8 03       		.uleb128 0x3
 813 00a9 0E       		.uleb128 0xe
 814 00aa 3A       		.uleb128 0x3a
 815 00ab 0B       		.uleb128 0xb
 816 00ac 3B       		.uleb128 0x3b
 817 00ad 0B       		.uleb128 0xb
 818 00ae 49       		.uleb128 0x49
 819 00af 13       		.uleb128 0x13
 820 00b0 38       		.uleb128 0x38
 821 00b1 0B       		.uleb128 0xb
 822 00b2 00       		.byte	0
 823 00b3 00       		.byte	0
 824 00b4 0F       		.uleb128 0xf
 825 00b5 15       		.uleb128 0x15
 826 00b6 01       		.byte	0x1
 827 00b7 27       		.uleb128 0x27
 828 00b8 19       		.uleb128 0x19
 829 00b9 01       		.uleb128 0x1
 830 00ba 13       		.uleb128 0x13
 831 00bb 00       		.byte	0
 832 00bc 00       		.byte	0
 833 00bd 10       		.uleb128 0x10
 834 00be 05       		.uleb128 0x5
 835 00bf 00       		.byte	0
 836 00c0 49       		.uleb128 0x49
 837 00c1 13       		.uleb128 0x13
 838 00c2 00       		.byte	0
 839 00c3 00       		.byte	0
 840 00c4 11       		.uleb128 0x11
 841 00c5 13       		.uleb128 0x13
 842 00c6 01       		.byte	0x1
 843 00c7 0B       		.uleb128 0xb
 844 00c8 0B       		.uleb128 0xb
 845 00c9 3A       		.uleb128 0x3a
 846 00ca 0B       		.uleb128 0xb
 847 00cb 3B       		.uleb128 0x3b
 848 00cc 0B       		.uleb128 0xb
 849 00cd 01       		.uleb128 0x1
 850 00ce 13       		.uleb128 0x13
 851 00cf 00       		.byte	0
ARM GAS  /var/folders/6q/x_mk5n_j3p7_c40r_2k_78980000gn/T//cc0VacPJ.s 			page 16


 852 00d0 00       		.byte	0
 853 00d1 12       		.uleb128 0x12
 854 00d2 0D       		.uleb128 0xd
 855 00d3 00       		.byte	0
 856 00d4 03       		.uleb128 0x3
 857 00d5 08       		.uleb128 0x8
 858 00d6 3A       		.uleb128 0x3a
 859 00d7 0B       		.uleb128 0xb
 860 00d8 3B       		.uleb128 0x3b
 861 00d9 0B       		.uleb128 0xb
 862 00da 49       		.uleb128 0x49
 863 00db 13       		.uleb128 0x13
 864 00dc 38       		.uleb128 0x38
 865 00dd 0B       		.uleb128 0xb
 866 00de 00       		.byte	0
 867 00df 00       		.byte	0
 868 00e0 13       		.uleb128 0x13
 869 00e1 01       		.uleb128 0x1
 870 00e2 01       		.byte	0x1
 871 00e3 49       		.uleb128 0x49
 872 00e4 13       		.uleb128 0x13
 873 00e5 01       		.uleb128 0x1
 874 00e6 13       		.uleb128 0x13
 875 00e7 00       		.byte	0
 876 00e8 00       		.byte	0
 877 00e9 14       		.uleb128 0x14
 878 00ea 21       		.uleb128 0x21
 879 00eb 00       		.byte	0
 880 00ec 49       		.uleb128 0x49
 881 00ed 13       		.uleb128 0x13
 882 00ee 2F       		.uleb128 0x2f
 883 00ef 0B       		.uleb128 0xb
 884 00f0 00       		.byte	0
 885 00f1 00       		.byte	0
 886 00f2 15       		.uleb128 0x15
 887 00f3 26       		.uleb128 0x26
 888 00f4 00       		.byte	0
 889 00f5 49       		.uleb128 0x49
 890 00f6 13       		.uleb128 0x13
 891 00f7 00       		.byte	0
 892 00f8 00       		.byte	0
 893 00f9 16       		.uleb128 0x16
 894 00fa 28       		.uleb128 0x28
 895 00fb 00       		.byte	0
 896 00fc 03       		.uleb128 0x3
 897 00fd 0E       		.uleb128 0xe
 898 00fe 1C       		.uleb128 0x1c
 899 00ff 0D       		.uleb128 0xd
 900 0100 00       		.byte	0
 901 0101 00       		.byte	0
 902 0102 17       		.uleb128 0x17
 903 0103 2E       		.uleb128 0x2e
 904 0104 01       		.byte	0x1
 905 0105 3F       		.uleb128 0x3f
 906 0106 19       		.uleb128 0x19
 907 0107 03       		.uleb128 0x3
 908 0108 0E       		.uleb128 0xe
ARM GAS  /var/folders/6q/x_mk5n_j3p7_c40r_2k_78980000gn/T//cc0VacPJ.s 			page 17


 909 0109 3A       		.uleb128 0x3a
 910 010a 0B       		.uleb128 0xb
 911 010b 3B       		.uleb128 0x3b
 912 010c 0B       		.uleb128 0xb
 913 010d 27       		.uleb128 0x27
 914 010e 19       		.uleb128 0x19
 915 010f 11       		.uleb128 0x11
 916 0110 01       		.uleb128 0x1
 917 0111 12       		.uleb128 0x12
 918 0112 06       		.uleb128 0x6
 919 0113 40       		.uleb128 0x40
 920 0114 18       		.uleb128 0x18
 921 0115 9742     		.uleb128 0x2117
 922 0117 19       		.uleb128 0x19
 923 0118 01       		.uleb128 0x1
 924 0119 13       		.uleb128 0x13
 925 011a 00       		.byte	0
 926 011b 00       		.byte	0
 927 011c 18       		.uleb128 0x18
 928 011d 05       		.uleb128 0x5
 929 011e 00       		.byte	0
 930 011f 03       		.uleb128 0x3
 931 0120 0E       		.uleb128 0xe
 932 0121 3A       		.uleb128 0x3a
 933 0122 0B       		.uleb128 0xb
 934 0123 3B       		.uleb128 0x3b
 935 0124 0B       		.uleb128 0xb
 936 0125 49       		.uleb128 0x49
 937 0126 13       		.uleb128 0x13
 938 0127 02       		.uleb128 0x2
 939 0128 18       		.uleb128 0x18
 940 0129 00       		.byte	0
 941 012a 00       		.byte	0
 942 012b 19       		.uleb128 0x19
 943 012c 05       		.uleb128 0x5
 944 012d 00       		.byte	0
 945 012e 03       		.uleb128 0x3
 946 012f 0E       		.uleb128 0xe
 947 0130 3A       		.uleb128 0x3a
 948 0131 0B       		.uleb128 0xb
 949 0132 3B       		.uleb128 0x3b
 950 0133 0B       		.uleb128 0xb
 951 0134 49       		.uleb128 0x49
 952 0135 13       		.uleb128 0x13
 953 0136 02       		.uleb128 0x2
 954 0137 17       		.uleb128 0x17
 955 0138 00       		.byte	0
 956 0139 00       		.byte	0
 957 013a 1A       		.uleb128 0x1a
 958 013b 05       		.uleb128 0x5
 959 013c 00       		.byte	0
 960 013d 03       		.uleb128 0x3
 961 013e 08       		.uleb128 0x8
 962 013f 3A       		.uleb128 0x3a
 963 0140 0B       		.uleb128 0xb
 964 0141 3B       		.uleb128 0x3b
 965 0142 0B       		.uleb128 0xb
ARM GAS  /var/folders/6q/x_mk5n_j3p7_c40r_2k_78980000gn/T//cc0VacPJ.s 			page 18


 966 0143 49       		.uleb128 0x49
 967 0144 13       		.uleb128 0x13
 968 0145 02       		.uleb128 0x2
 969 0146 17       		.uleb128 0x17
 970 0147 00       		.byte	0
 971 0148 00       		.byte	0
 972 0149 1B       		.uleb128 0x1b
 973 014a 898201   		.uleb128 0x4109
 974 014d 01       		.byte	0x1
 975 014e 11       		.uleb128 0x11
 976 014f 01       		.uleb128 0x1
 977 0150 9542     		.uleb128 0x2115
 978 0152 19       		.uleb128 0x19
 979 0153 31       		.uleb128 0x31
 980 0154 13       		.uleb128 0x13
 981 0155 00       		.byte	0
 982 0156 00       		.byte	0
 983 0157 1C       		.uleb128 0x1c
 984 0158 8A8201   		.uleb128 0x410a
 985 015b 00       		.byte	0
 986 015c 02       		.uleb128 0x2
 987 015d 18       		.uleb128 0x18
 988 015e 9142     		.uleb128 0x2111
 989 0160 18       		.uleb128 0x18
 990 0161 00       		.byte	0
 991 0162 00       		.byte	0
 992 0163 1D       		.uleb128 0x1d
 993 0164 34       		.uleb128 0x34
 994 0165 00       		.byte	0
 995 0166 03       		.uleb128 0x3
 996 0167 0E       		.uleb128 0xe
 997 0168 3A       		.uleb128 0x3a
 998 0169 0B       		.uleb128 0xb
 999 016a 3B       		.uleb128 0x3b
 1000 016b 0B       		.uleb128 0xb
 1001 016c 49       		.uleb128 0x49
 1002 016d 13       		.uleb128 0x13
 1003 016e 02       		.uleb128 0x2
 1004 016f 18       		.uleb128 0x18
 1005 0170 00       		.byte	0
 1006 0171 00       		.byte	0
 1007 0172 1E       		.uleb128 0x1e
 1008 0173 34       		.uleb128 0x34
 1009 0174 00       		.byte	0
 1010 0175 03       		.uleb128 0x3
 1011 0176 0E       		.uleb128 0xe
 1012 0177 3A       		.uleb128 0x3a
 1013 0178 0B       		.uleb128 0xb
 1014 0179 3B       		.uleb128 0x3b
 1015 017a 05       		.uleb128 0x5
 1016 017b 49       		.uleb128 0x49
 1017 017c 13       		.uleb128 0x13
 1018 017d 3F       		.uleb128 0x3f
 1019 017e 19       		.uleb128 0x19
 1020 017f 3C       		.uleb128 0x3c
 1021 0180 19       		.uleb128 0x19
 1022 0181 00       		.byte	0
ARM GAS  /var/folders/6q/x_mk5n_j3p7_c40r_2k_78980000gn/T//cc0VacPJ.s 			page 19


 1023 0182 00       		.byte	0
 1024 0183 1F       		.uleb128 0x1f
 1025 0184 34       		.uleb128 0x34
 1026 0185 00       		.byte	0
 1027 0186 03       		.uleb128 0x3
 1028 0187 0E       		.uleb128 0xe
 1029 0188 3A       		.uleb128 0x3a
 1030 0189 0B       		.uleb128 0xb
 1031 018a 3B       		.uleb128 0x3b
 1032 018b 0B       		.uleb128 0xb
 1033 018c 49       		.uleb128 0x49
 1034 018d 13       		.uleb128 0x13
 1035 018e 3F       		.uleb128 0x3f
 1036 018f 19       		.uleb128 0x19
 1037 0190 3C       		.uleb128 0x3c
 1038 0191 19       		.uleb128 0x19
 1039 0192 00       		.byte	0
 1040 0193 00       		.byte	0
 1041 0194 20       		.uleb128 0x20
 1042 0195 2E       		.uleb128 0x2e
 1043 0196 00       		.byte	0
 1044 0197 3F       		.uleb128 0x3f
 1045 0198 19       		.uleb128 0x19
 1046 0199 3C       		.uleb128 0x3c
 1047 019a 19       		.uleb128 0x19
 1048 019b 6E       		.uleb128 0x6e
 1049 019c 0E       		.uleb128 0xe
 1050 019d 03       		.uleb128 0x3
 1051 019e 0E       		.uleb128 0xe
 1052 019f 3A       		.uleb128 0x3a
 1053 01a0 0B       		.uleb128 0xb
 1054 01a1 3B       		.uleb128 0x3b
 1055 01a2 0B       		.uleb128 0xb
 1056 01a3 00       		.byte	0
 1057 01a4 00       		.byte	0
 1058 01a5 00       		.byte	0
 1059              		.section	.debug_loc,"",%progbits
 1060              	.Ldebug_loc0:
 1061              	.LLST0:
 1062 0000 00000000 		.4byte	.LVL0
 1063 0004 16000000 		.4byte	.LVL1
 1064 0008 0100     		.2byte	0x1
 1065 000a 52       		.byte	0x52
 1066 000b 16000000 		.4byte	.LVL1
 1067 000f 54000000 		.4byte	.LFE63
 1068 0013 0400     		.2byte	0x4
 1069 0015 F3       		.byte	0xf3
 1070 0016 01       		.uleb128 0x1
 1071 0017 52       		.byte	0x52
 1072 0018 9F       		.byte	0x9f
 1073 0019 00000000 		.4byte	0
 1074 001d 00000000 		.4byte	0
 1075              	.LLST1:
 1076 0021 00000000 		.4byte	.LVL0
 1077 0025 1E000000 		.4byte	.LVL2
 1078 0029 0100     		.2byte	0x1
 1079 002b 53       		.byte	0x53
ARM GAS  /var/folders/6q/x_mk5n_j3p7_c40r_2k_78980000gn/T//cc0VacPJ.s 			page 20


 1080 002c 1E000000 		.4byte	.LVL2
 1081 0030 20000000 		.4byte	.LVL3
 1082 0034 0200     		.2byte	0x2
 1083 0036 76       		.byte	0x76
 1084 0037 04       		.sleb128 4
 1085 0038 20000000 		.4byte	.LVL3
 1086 003c 22000000 		.4byte	.LVL4
 1087 0040 0A00     		.2byte	0xa
 1088 0042 71       		.byte	0x71
 1089 0043 00       		.sleb128 0
 1090 0044 33       		.byte	0x33
 1091 0045 24       		.byte	0x24
 1092 0046 03       		.byte	0x3
 1093 0047 04000000 		.4byte	.LANCHOR0+4
 1094 004b 22       		.byte	0x22
 1095 004c 22000000 		.4byte	.LVL4
 1096 0050 24000000 		.4byte	.LVL5
 1097 0054 0100     		.2byte	0x1
 1098 0056 53       		.byte	0x53
 1099 0057 24000000 		.4byte	.LVL5
 1100 005b 54000000 		.4byte	.LFE63
 1101 005f 0200     		.2byte	0x2
 1102 0061 76       		.byte	0x76
 1103 0062 04       		.sleb128 4
 1104 0063 00000000 		.4byte	0
 1105 0067 00000000 		.4byte	0
 1106              		.section	.debug_aranges,"",%progbits
 1107 0000 24000000 		.4byte	0x24
 1108 0004 0200     		.2byte	0x2
 1109 0006 00000000 		.4byte	.Ldebug_info0
 1110 000a 04       		.byte	0x4
 1111 000b 00       		.byte	0
 1112 000c 0000     		.2byte	0
 1113 000e 0000     		.2byte	0
 1114 0010 00000000 		.4byte	.LFB63
 1115 0014 54000000 		.4byte	.LFE63-.LFB63
 1116 0018 00000000 		.4byte	.LFB64
 1117 001c 10000000 		.4byte	.LFE64-.LFB64
 1118 0020 00000000 		.4byte	0
 1119 0024 00000000 		.4byte	0
 1120              		.section	.debug_ranges,"",%progbits
 1121              	.Ldebug_ranges0:
 1122 0000 00000000 		.4byte	.LFB63
 1123 0004 54000000 		.4byte	.LFE63
 1124 0008 00000000 		.4byte	.LFB64
 1125 000c 10000000 		.4byte	.LFE64
 1126 0010 00000000 		.4byte	0
 1127 0014 00000000 		.4byte	0
 1128              		.section	.debug_line,"",%progbits
 1129              	.Ldebug_line0:
 1130 0000 59020000 		.section	.debug_str,"MS",%progbits,1
 1130      02001D02 
 1130      00000201 
 1130      FB0E0D00 
 1130      01010101 
 1131              	.LASF21:
 1132 0000 4750494F 		.ascii	"GPIO_TypeDef\000"
ARM GAS  /var/folders/6q/x_mk5n_j3p7_c40r_2k_78980000gn/T//cc0VacPJ.s 			page 21


 1132      5F547970 
 1132      65446566 
 1132      00
 1133              	.LASF36:
 1134 000d 6B566578 		.ascii	"kVexDigital_None\000"
 1134      44696769 
 1134      74616C5F 
 1134      4E6F6E65 
 1134      00
 1135              	.LASF72:
 1136 001e 65787453 		.ascii	"extStart\000"
 1136      74617274 
 1136      00
 1137              	.LASF52:
 1138 0027 6B496D65 		.ascii	"kImeChannel_1\000"
 1138      4368616E 
 1138      6E656C5F 
 1138      3100
 1139              	.LASF53:
 1140 0035 6B496D65 		.ascii	"kImeChannel_2\000"
 1140      4368616E 
 1140      6E656C5F 
 1140      3200
 1141              	.LASF54:
 1142 0043 6B496D65 		.ascii	"kImeChannel_3\000"
 1142      4368616E 
 1142      6E656C5F 
 1142      3300
 1143              	.LASF55:
 1144 0051 6B496D65 		.ascii	"kImeChannel_4\000"
 1144      4368616E 
 1144      6E656C5F 
 1144      3400
 1145              	.LASF28:
 1146 005f 73746174 		.ascii	"state\000"
 1146      6500
 1147              	.LASF57:
 1148 0065 6B496D65 		.ascii	"kImeChannel_6\000"
 1148      4368616E 
 1148      6E656C5F 
 1148      3600
 1149              	.LASF58:
 1150 0073 6B496D65 		.ascii	"kImeChannel_7\000"
 1150      4368616E 
 1150      6E656C5F 
 1150      3700
 1151              	.LASF59:
 1152 0081 6B496D65 		.ascii	"kImeChannel_8\000"
 1152      4368616E 
 1152      6E656C5F 
 1152      3800
 1153              	.LASF5:
 1154 008f 73686F72 		.ascii	"short int\000"
 1154      7420696E 
 1154      7400
 1155              	.LASF13:
 1156 0099 73697A65 		.ascii	"sizetype\000"
ARM GAS  /var/folders/6q/x_mk5n_j3p7_c40r_2k_78980000gn/T//cc0VacPJ.s 			page 22


 1156      74797065 
 1156      00
 1157              	.LASF60:
 1158 00a2 6B496D65 		.ascii	"kImeTotal\000"
 1158      546F7461 
 1158      6C00
 1159              	.LASF64:
 1160 00ac 76657845 		.ascii	"vexExtSet\000"
 1160      78745365 
 1160      7400
 1161              	.LASF10:
 1162 00b6 5F5F7569 		.ascii	"__uint32_t\000"
 1162      6E743332 
 1162      5F7400
 1163              	.LASF32:
 1164 00c1 6D6F6465 		.ascii	"mode\000"
 1164      00
 1165              	.LASF7:
 1166 00c6 5F5F7569 		.ascii	"__uint16_t\000"
 1166      6E743136 
 1166      5F7400
 1167              	.LASF34:
 1168 00d1 6368616E 		.ascii	"channels\000"
 1168      6E656C73 
 1168      00
 1169              	.LASF24:
 1170 00da 4558545F 		.ascii	"EXT_STOP\000"
 1170      53544F50 
 1170      00
 1171              	.LASF51:
 1172 00e3 6B566578 		.ascii	"kVexDigitalOutput\000"
 1172      44696769 
 1172      74616C4F 
 1172      75747075 
 1172      7400
 1173              	.LASF29:
 1174 00f5 636F6E66 		.ascii	"config\000"
 1174      696700
 1175              	.LASF71:
 1176 00fc 76657845 		.ascii	"vexExtCfg\000"
 1176      78744366 
 1176      6700
 1177              	.LASF68:
 1178 0106 474E5520 		.ascii	"GNU C11 5.4.1 20160919 (release) [ARM/embedded-5-br"
 1178      43313120 
 1178      352E342E 
 1178      31203230 
 1178      31363039 
 1179 0139 616E6368 		.ascii	"anch revision 240496] -mcpu=cortex-m3 -mno-thumb-in"
 1179      20726576 
 1179      6973696F 
 1179      6E203234 
 1179      30343936 
 1180 016c 74657277 		.ascii	"terwork -mthumb -ggdb -O2 -fomit-frame-pointer -fal"
 1180      6F726B20 
 1180      2D6D7468 
 1180      756D6220 
ARM GAS  /var/folders/6q/x_mk5n_j3p7_c40r_2k_78980000gn/T//cc0VacPJ.s 			page 23


 1180      2D676764 
 1181 019f 69676E2D 		.ascii	"ign-functions=16 -ffunction-sections -fdata-section"
 1181      66756E63 
 1181      74696F6E 
 1181      733D3136 
 1181      202D6666 
 1182 01d2 73202D66 		.ascii	"s -fno-common\000"
 1182      6E6F2D63 
 1182      6F6D6D6F 
 1182      6E00
 1183              	.LASF69:
 1184 01e0 2E2E2F63 		.ascii	"../convex-vexilla/cortex/fw/vexext.c\000"
 1184      6F6E7665 
 1184      782D7665 
 1184      78696C6C 
 1184      612F636F 
 1185              	.LASF46:
 1186 0205 6B566578 		.ascii	"kVexDigital_10\000"
 1186      44696769 
 1186      74616C5F 
 1186      313000
 1187              	.LASF47:
 1188 0214 6B566578 		.ascii	"kVexDigital_11\000"
 1188      44696769 
 1188      74616C5F 
 1188      313100
 1189              	.LASF48:
 1190 0223 6B566578 		.ascii	"kVexDigital_12\000"
 1190      44696769 
 1190      74616C5F 
 1190      313200
 1191              	.LASF3:
 1192 0232 7369676E 		.ascii	"signed char\000"
 1192      65642063 
 1192      68617200 
 1193              	.LASF1:
 1194 023e 6C6F6E67 		.ascii	"long long int\000"
 1194      206C6F6E 
 1194      6720696E 
 1194      7400
 1195              	.LASF9:
 1196 024c 6C6F6E67 		.ascii	"long int\000"
 1196      20696E74 
 1196      00
 1197              	.LASF70:
 1198 0255 2F557365 		.ascii	"/Users/Luca/src/vexilla/src/teamA\000"
 1198      72732F4C 
 1198      7563612F 
 1198      7372632F 
 1198      76657869 
 1199              	.LASF19:
 1200 0277 42535252 		.ascii	"BSRR\000"
 1200      00
 1201              	.LASF25:
 1202 027c 4558545F 		.ascii	"EXT_ACTIVE\000"
 1202      41435449 
 1202      564500
ARM GAS  /var/folders/6q/x_mk5n_j3p7_c40r_2k_78980000gn/T//cc0VacPJ.s 			page 24


 1203              	.LASF50:
 1204 0287 6B566578 		.ascii	"kVexDigitalInput\000"
 1204      44696769 
 1204      74616C49 
 1204      6E707574 
 1204      00
 1205              	.LASF39:
 1206 0298 6B566578 		.ascii	"kVexDigital_3\000"
 1206      44696769 
 1206      74616C5F 
 1206      3300
 1207              	.LASF22:
 1208 02a6 696F706F 		.ascii	"ioportid_t\000"
 1208      72746964 
 1208      5F7400
 1209              	.LASF2:
 1210 02b1 6C6F6E67 		.ascii	"long double\000"
 1210      20646F75 
 1210      626C6500 
 1211              	.LASF4:
 1212 02bd 756E7369 		.ascii	"unsigned char\000"
 1212      676E6564 
 1212      20636861 
 1212      7200
 1213              	.LASF31:
 1214 02cb 65787463 		.ascii	"extcallback_t\000"
 1214      616C6C62 
 1214      61636B5F 
 1214      7400
 1215              	.LASF56:
 1216 02d9 6B496D65 		.ascii	"kImeChannel_5\000"
 1216      4368616E 
 1216      6E656C5F 
 1216      3500
 1217              	.LASF23:
 1218 02e7 4558545F 		.ascii	"EXT_UNINIT\000"
 1218      554E494E 
 1218      495400
 1219              	.LASF12:
 1220 02f2 6C6F6E67 		.ascii	"long long unsigned int\000"
 1220      206C6F6E 
 1220      6720756E 
 1220      7369676E 
 1220      65642069 
 1221              	.LASF17:
 1222 0309 75696E74 		.ascii	"uint32_t\000"
 1222      33325F74 
 1222      00
 1223              	.LASF35:
 1224 0312 45585443 		.ascii	"EXTConfig\000"
 1224      6F6E6669 
 1224      6700
 1225              	.LASF15:
 1226 031c 75696E74 		.ascii	"uint16_t\000"
 1226      31365F74 
 1226      00
 1227              	.LASF43:
ARM GAS  /var/folders/6q/x_mk5n_j3p7_c40r_2k_78980000gn/T//cc0VacPJ.s 			page 25


 1228 0325 6B566578 		.ascii	"kVexDigital_7\000"
 1228      44696769 
 1228      74616C5F 
 1228      3700
 1229              	.LASF6:
 1230 0333 73686F72 		.ascii	"short unsigned int\000"
 1230      7420756E 
 1230      7369676E 
 1230      65642069 
 1230      6E7400
 1231              	.LASF33:
 1232 0346 45585443 		.ascii	"EXTChannelConfig\000"
 1232      68616E6E 
 1232      656C436F 
 1232      6E666967 
 1232      00
 1233              	.LASF14:
 1234 0357 63686172 		.ascii	"char\000"
 1234      00
 1235              	.LASF37:
 1236 035c 6B566578 		.ascii	"kVexDigital_1\000"
 1236      44696769 
 1236      74616C5F 
 1236      3100
 1237              	.LASF38:
 1238 036a 6B566578 		.ascii	"kVexDigital_2\000"
 1238      44696769 
 1238      74616C5F 
 1238      3200
 1239              	.LASF16:
 1240 0378 696E7433 		.ascii	"int32_t\000"
 1240      325F7400 
 1241              	.LASF40:
 1242 0380 6B566578 		.ascii	"kVexDigital_4\000"
 1242      44696769 
 1242      74616C5F 
 1242      3400
 1243              	.LASF41:
 1244 038e 6B566578 		.ascii	"kVexDigital_5\000"
 1244      44696769 
 1244      74616C5F 
 1244      3500
 1245              	.LASF42:
 1246 039c 6B566578 		.ascii	"kVexDigital_6\000"
 1246      44696769 
 1246      74616C5F 
 1246      3600
 1247              	.LASF67:
 1248 03aa 45585444 		.ascii	"EXTD1\000"
 1248      3100
 1249              	.LASF44:
 1250 03b0 6B566578 		.ascii	"kVexDigital_8\000"
 1250      44696769 
 1250      74616C5F 
 1250      3800
 1251              	.LASF45:
 1252 03be 6B566578 		.ascii	"kVexDigital_9\000"
ARM GAS  /var/folders/6q/x_mk5n_j3p7_c40r_2k_78980000gn/T//cc0VacPJ.s 			page 26


 1252      44696769 
 1252      74616C5F 
 1252      3900
 1253              	.LASF18:
 1254 03cc 5F426F6F 		.ascii	"_Bool\000"
 1254      6C00
 1255              	.LASF63:
 1256 03d2 6368616E 		.ascii	"channel\000"
 1256      6E656C00 
 1257              	.LASF61:
 1258 03da 6B496D65 		.ascii	"kImeChannelNone\000"
 1258      4368616E 
 1258      6E656C4E 
 1258      6F6E6500 
 1259              	.LASF62:
 1260 03ea 706F7274 		.ascii	"port\000"
 1260      00
 1261              	.LASF11:
 1262 03ef 6C6F6E67 		.ascii	"long unsigned int\000"
 1262      20756E73 
 1262      69676E65 
 1262      6420696E 
 1262      7400
 1263              	.LASF26:
 1264 0401 65787473 		.ascii	"extstate_t\000"
 1264      74617465 
 1264      5F7400
 1265              	.LASF8:
 1266 040c 5F5F696E 		.ascii	"__int32_t\000"
 1266      7433325F 
 1266      7400
 1267              	.LASF65:
 1268 0416 76657845 		.ascii	"vexExtIrqInit\000"
 1268      78744972 
 1268      71496E69 
 1268      7400
 1269              	.LASF49:
 1270 0424 6B566578 		.ascii	"kVexDigital_Num\000"
 1270      44696769 
 1270      74616C5F 
 1270      4E756D00 
 1271              	.LASF30:
 1272 0434 65787063 		.ascii	"expchannel_t\000"
 1272      68616E6E 
 1272      656C5F74 
 1272      00
 1273              	.LASF27:
 1274 0441 45585444 		.ascii	"EXTDriver\000"
 1274      72697665 
 1274      7200
 1275              	.LASF66:
 1276 044b 49544D5F 		.ascii	"ITM_RxBuffer\000"
 1276      52784275 
 1276      66666572 
 1276      00
 1277              	.LASF0:
 1278 0458 756E7369 		.ascii	"unsigned int\000"
ARM GAS  /var/folders/6q/x_mk5n_j3p7_c40r_2k_78980000gn/T//cc0VacPJ.s 			page 27


 1278      676E6564 
 1278      20696E74 
 1278      00
 1279              	.LASF20:
 1280 0465 4C434B52 		.ascii	"LCKR\000"
 1280      00
 1281              		.ident	"GCC: (GNU Tools for ARM Embedded Processors) 5.4.1 20160919 (release) [ARM/embedded-5-bran
ARM GAS  /var/folders/6q/x_mk5n_j3p7_c40r_2k_78980000gn/T//cc0VacPJ.s 			page 28


DEFINED SYMBOLS
                            *ABS*:0000000000000000 vexext.c
/var/folders/6q/x_mk5n_j3p7_c40r_2k_78980000gn/T//cc0VacPJ.s:20     .text.vexExtSet:0000000000000000 $t
/var/folders/6q/x_mk5n_j3p7_c40r_2k_78980000gn/T//cc0VacPJ.s:26     .text.vexExtSet:0000000000000000 vexExtSet
/var/folders/6q/x_mk5n_j3p7_c40r_2k_78980000gn/T//cc0VacPJ.s:95     .text.vexExtSet:0000000000000048 $d
/var/folders/6q/x_mk5n_j3p7_c40r_2k_78980000gn/T//cc0VacPJ.s:102    .text.vexExtIrqInit:0000000000000000 $t
/var/folders/6q/x_mk5n_j3p7_c40r_2k_78980000gn/T//cc0VacPJ.s:108    .text.vexExtIrqInit:0000000000000000 vexExtIrqInit
/var/folders/6q/x_mk5n_j3p7_c40r_2k_78980000gn/T//cc0VacPJ.s:123    .text.vexExtIrqInit:0000000000000008 $d
/var/folders/6q/x_mk5n_j3p7_c40r_2k_78980000gn/T//cc0VacPJ.s:129    .data.vexExtCfg:0000000000000000 $d
/var/folders/6q/x_mk5n_j3p7_c40r_2k_78980000gn/T//cc0VacPJ.s:133    .data.vexExtCfg:0000000000000000 vexExtCfg
                     .debug_frame:0000000000000010 $d

UNDEFINED SYMBOLS
extStart
EXTD1
