ARM GAS  /var/folders/6q/x_mk5n_j3p7_c40r_2k_78980000gn/T//ccDDDywd.s 			page 1


   1              		.syntax unified
   2              		.cpu cortex-m3
   3              		.fpu softvfp
   4              		.eabi_attribute 20, 1
   5              		.eabi_attribute 21, 1
   6              		.eabi_attribute 23, 3
   7              		.eabi_attribute 24, 1
   8              		.eabi_attribute 25, 1
   9              		.eabi_attribute 26, 1
  10              		.eabi_attribute 30, 2
  11              		.eabi_attribute 34, 1
  12              		.eabi_attribute 18, 4
  13              		.thumb
  14              		.syntax unified
  15              		.file	"vexencoder.c"
  16              		.text
  17              	.Ltext0:
  18              		.cfi_sections	.debug_frame
  19              		.section	.text._vqe_1_cb_a,"ax",%progbits
  20              		.align	2
  21              		.p2align 4,,15
  22              		.thumb
  23              		.thumb_func
  24              		.type	_vqe_1_cb_a, %function
  25              	_vqe_1_cb_a:
  26              	.LFB65:
  27              		.file 1 "../convex-vexilla/cortex/fw/vexencoder.c"
  28              		.loc 1 108 0
  29              		.cfi_startproc
  30              		@ args = 0, pretend = 0, frame = 0
  31              		@ frame_needed = 0, uses_anonymous_args = 0
  32              		@ link register save eliminated.
  33              	.LVL0:
  34 0000 10B4     		push	{r4}
  35              		.cfi_def_cfa_offset 4
  36              		.cfi_offset 4, -4
  37              	.LBB42:
  38              		.loc 1 112 0
  39 0002 2023     		movs	r3, #32
  40              		.syntax unified
  41              	@ 112 "../convex-vexilla/cortex/fw/vexencoder.c" 1
  42 0004 83F31188 		msr     BASEPRI, r3
  43              	@ 0 "" 2
  44              	.LVL1:
  45              		.thumb
  46              		.syntax unified
  47              	.LBE42:
  48              	.LBB43:
  49              	.LBB44:
  50              		.loc 1 79 0
  51 0008 0D4B     		ldr	r3, .L6
  52 000a D968     		ldr	r1, [r3, #12]
  53              	.LVL2:
  54              		.loc 1 80 0
  55 000c 5A69     		ldr	r2, [r3, #20]
  56              		.loc 1 79 0
  57 000e 8968     		ldr	r1, [r1, #8]
ARM GAS  /var/folders/6q/x_mk5n_j3p7_c40r_2k_78980000gn/T//ccDDDywd.s 			page 2


  58              	.LVL3:
  59              		.loc 1 83 0
  60 0010 B3F91040 		ldrsh	r4, [r3, #16]
  61              		.loc 1 80 0
  62 0014 9268     		ldr	r2, [r2, #8]
  63              	.LVL4:
  64              		.loc 1 83 0
  65 0016 B3F91800 		ldrsh	r0, [r3, #24]
  66              	.LVL5:
  67 001a E140     		lsrs	r1, r1, r4
  68              	.LVL6:
  69 001c C240     		lsrs	r2, r2, r0
  70              	.LVL7:
  71 001e 01F00101 		and	r1, r1, #1
  72 0022 02F00102 		and	r2, r2, #1
  73 0026 9142     		cmp	r1, r2
  74 0028 1A68     		ldr	r2, [r3]
  75 002a 14BF     		ite	ne
  76 002c 02F1FF32 		addne	r2, r2, #-1
  77 0030 0132     		addeq	r2, r2, #1
  78 0032 1A60     		str	r2, [r3]
  79              	.LVL8:
  80              	.LBE44:
  81              	.LBE43:
  82              	.LBB45:
  83              		.loc 1 117 0
  84 0034 0023     		movs	r3, #0
  85              		.syntax unified
  86              	@ 117 "../convex-vexilla/cortex/fw/vexencoder.c" 1
  87 0036 83F31188 		msr     BASEPRI, r3
  88              	@ 0 "" 2
  89              		.thumb
  90              		.syntax unified
  91              	.LBE45:
  92              		.loc 1 118 0
  93 003a 10BC     		pop	{r4}
  94              		.cfi_restore 4
  95              		.cfi_def_cfa_offset 0
  96 003c 7047     		bx	lr
  97              	.L7:
  98 003e 00BF     		.align	2
  99              	.L6:
 100 0040 00000000 		.word	.LANCHOR0
 101              		.cfi_endproc
 102              	.LFE65:
 103              		.size	_vqe_1_cb_a, .-_vqe_1_cb_a
 104              		.section	.text._vqe_1_cb_b,"ax",%progbits
 105              		.align	2
 106              		.p2align 4,,15
 107              		.thumb
 108              		.thumb_func
 109              		.type	_vqe_1_cb_b, %function
 110              	_vqe_1_cb_b:
 111              	.LFB66:
 112              		.loc 1 125 0
 113              		.cfi_startproc
 114              		@ args = 0, pretend = 0, frame = 0
ARM GAS  /var/folders/6q/x_mk5n_j3p7_c40r_2k_78980000gn/T//ccDDDywd.s 			page 3


 115              		@ frame_needed = 0, uses_anonymous_args = 0
 116              		@ link register save eliminated.
 117              	.LVL9:
 118 0000 10B4     		push	{r4}
 119              		.cfi_def_cfa_offset 4
 120              		.cfi_offset 4, -4
 121              	.LBB46:
 122              		.loc 1 129 0
 123 0002 2023     		movs	r3, #32
 124              		.syntax unified
 125              	@ 129 "../convex-vexilla/cortex/fw/vexencoder.c" 1
 126 0004 83F31188 		msr     BASEPRI, r3
 127              	@ 0 "" 2
 128              	.LVL10:
 129              		.thumb
 130              		.syntax unified
 131              	.LBE46:
 132              	.LBB47:
 133              	.LBB48:
 134              		.loc 1 96 0
 135 0008 0D4B     		ldr	r3, .L12
 136 000a D968     		ldr	r1, [r3, #12]
 137              	.LVL11:
 138              		.loc 1 97 0
 139 000c 5A69     		ldr	r2, [r3, #20]
 140              		.loc 1 96 0
 141 000e 8968     		ldr	r1, [r1, #8]
 142              	.LVL12:
 143              		.loc 1 100 0
 144 0010 B3F91040 		ldrsh	r4, [r3, #16]
 145              		.loc 1 97 0
 146 0014 9268     		ldr	r2, [r2, #8]
 147              	.LVL13:
 148              		.loc 1 100 0
 149 0016 B3F91800 		ldrsh	r0, [r3, #24]
 150              	.LVL14:
 151 001a E140     		lsrs	r1, r1, r4
 152              	.LVL15:
 153 001c C240     		lsrs	r2, r2, r0
 154              	.LVL16:
 155 001e 01F00101 		and	r1, r1, #1
 156 0022 02F00102 		and	r2, r2, #1
 157 0026 9142     		cmp	r1, r2
 158 0028 1A68     		ldr	r2, [r3]
 159 002a 14BF     		ite	ne
 160 002c 0132     		addne	r2, r2, #1
 161 002e 02F1FF32 		addeq	r2, r2, #-1
 162 0032 1A60     		str	r2, [r3]
 163              	.LVL17:
 164              	.LBE48:
 165              	.LBE47:
 166              	.LBB49:
 167              		.loc 1 134 0
 168 0034 0023     		movs	r3, #0
 169              		.syntax unified
 170              	@ 134 "../convex-vexilla/cortex/fw/vexencoder.c" 1
 171 0036 83F31188 		msr     BASEPRI, r3
ARM GAS  /var/folders/6q/x_mk5n_j3p7_c40r_2k_78980000gn/T//ccDDDywd.s 			page 4


 172              	@ 0 "" 2
 173              		.thumb
 174              		.syntax unified
 175              	.LBE49:
 176              		.loc 1 135 0
 177 003a 10BC     		pop	{r4}
 178              		.cfi_restore 4
 179              		.cfi_def_cfa_offset 0
 180 003c 7047     		bx	lr
 181              	.L13:
 182 003e 00BF     		.align	2
 183              	.L12:
 184 0040 00000000 		.word	.LANCHOR0
 185              		.cfi_endproc
 186              	.LFE66:
 187              		.size	_vqe_1_cb_b, .-_vqe_1_cb_b
 188              		.section	.text._vqe_2_cb_a,"ax",%progbits
 189              		.align	2
 190              		.p2align 4,,15
 191              		.thumb
 192              		.thumb_func
 193              		.type	_vqe_2_cb_a, %function
 194              	_vqe_2_cb_a:
 195              	.LFB67:
 196              		.loc 1 142 0
 197              		.cfi_startproc
 198              		@ args = 0, pretend = 0, frame = 0
 199              		@ frame_needed = 0, uses_anonymous_args = 0
 200              		@ link register save eliminated.
 201              	.LVL18:
 202 0000 10B4     		push	{r4}
 203              		.cfi_def_cfa_offset 4
 204              		.cfi_offset 4, -4
 205              	.LBB50:
 206              		.loc 1 146 0
 207 0002 2023     		movs	r3, #32
 208              		.syntax unified
 209              	@ 146 "../convex-vexilla/cortex/fw/vexencoder.c" 1
 210 0004 83F31188 		msr     BASEPRI, r3
 211              	@ 0 "" 2
 212              	.LVL19:
 213              		.thumb
 214              		.syntax unified
 215              	.LBE50:
 216              	.LBB51:
 217              	.LBB52:
 218              		.loc 1 79 0
 219 0008 0D4B     		ldr	r3, .L18
 220 000a 996A     		ldr	r1, [r3, #40]
 221              	.LVL20:
 222              		.loc 1 80 0
 223 000c 1A6B     		ldr	r2, [r3, #48]
 224              		.loc 1 79 0
 225 000e 8968     		ldr	r1, [r1, #8]
 226              	.LVL21:
 227              		.loc 1 83 0
 228 0010 B3F92C40 		ldrsh	r4, [r3, #44]
ARM GAS  /var/folders/6q/x_mk5n_j3p7_c40r_2k_78980000gn/T//ccDDDywd.s 			page 5


 229              		.loc 1 80 0
 230 0014 9268     		ldr	r2, [r2, #8]
 231              	.LVL22:
 232              		.loc 1 83 0
 233 0016 B3F93400 		ldrsh	r0, [r3, #52]
 234              	.LVL23:
 235 001a E140     		lsrs	r1, r1, r4
 236              	.LVL24:
 237 001c C240     		lsrs	r2, r2, r0
 238              	.LVL25:
 239 001e 01F00101 		and	r1, r1, #1
 240 0022 02F00102 		and	r2, r2, #1
 241 0026 9142     		cmp	r1, r2
 242 0028 DA69     		ldr	r2, [r3, #28]
 243 002a 14BF     		ite	ne
 244 002c 02F1FF32 		addne	r2, r2, #-1
 245 0030 0132     		addeq	r2, r2, #1
 246 0032 DA61     		str	r2, [r3, #28]
 247              	.LVL26:
 248              	.LBE52:
 249              	.LBE51:
 250              	.LBB53:
 251              		.loc 1 151 0
 252 0034 0023     		movs	r3, #0
 253              		.syntax unified
 254              	@ 151 "../convex-vexilla/cortex/fw/vexencoder.c" 1
 255 0036 83F31188 		msr     BASEPRI, r3
 256              	@ 0 "" 2
 257              		.thumb
 258              		.syntax unified
 259              	.LBE53:
 260              		.loc 1 152 0
 261 003a 10BC     		pop	{r4}
 262              		.cfi_restore 4
 263              		.cfi_def_cfa_offset 0
 264 003c 7047     		bx	lr
 265              	.L19:
 266 003e 00BF     		.align	2
 267              	.L18:
 268 0040 00000000 		.word	.LANCHOR0
 269              		.cfi_endproc
 270              	.LFE67:
 271              		.size	_vqe_2_cb_a, .-_vqe_2_cb_a
 272              		.section	.text._vqe_2_cb_b,"ax",%progbits
 273              		.align	2
 274              		.p2align 4,,15
 275              		.thumb
 276              		.thumb_func
 277              		.type	_vqe_2_cb_b, %function
 278              	_vqe_2_cb_b:
 279              	.LFB68:
 280              		.loc 1 159 0
 281              		.cfi_startproc
 282              		@ args = 0, pretend = 0, frame = 0
 283              		@ frame_needed = 0, uses_anonymous_args = 0
 284              		@ link register save eliminated.
 285              	.LVL27:
ARM GAS  /var/folders/6q/x_mk5n_j3p7_c40r_2k_78980000gn/T//ccDDDywd.s 			page 6


 286 0000 10B4     		push	{r4}
 287              		.cfi_def_cfa_offset 4
 288              		.cfi_offset 4, -4
 289              	.LBB54:
 290              		.loc 1 163 0
 291 0002 2023     		movs	r3, #32
 292              		.syntax unified
 293              	@ 163 "../convex-vexilla/cortex/fw/vexencoder.c" 1
 294 0004 83F31188 		msr     BASEPRI, r3
 295              	@ 0 "" 2
 296              	.LVL28:
 297              		.thumb
 298              		.syntax unified
 299              	.LBE54:
 300              	.LBB55:
 301              	.LBB56:
 302              		.loc 1 96 0
 303 0008 0D4B     		ldr	r3, .L24
 304 000a 996A     		ldr	r1, [r3, #40]
 305              	.LVL29:
 306              		.loc 1 97 0
 307 000c 1A6B     		ldr	r2, [r3, #48]
 308              		.loc 1 96 0
 309 000e 8968     		ldr	r1, [r1, #8]
 310              	.LVL30:
 311              		.loc 1 100 0
 312 0010 B3F92C40 		ldrsh	r4, [r3, #44]
 313              		.loc 1 97 0
 314 0014 9268     		ldr	r2, [r2, #8]
 315              	.LVL31:
 316              		.loc 1 100 0
 317 0016 B3F93400 		ldrsh	r0, [r3, #52]
 318              	.LVL32:
 319 001a E140     		lsrs	r1, r1, r4
 320              	.LVL33:
 321 001c C240     		lsrs	r2, r2, r0
 322              	.LVL34:
 323 001e 01F00101 		and	r1, r1, #1
 324 0022 02F00102 		and	r2, r2, #1
 325 0026 9142     		cmp	r1, r2
 326 0028 DA69     		ldr	r2, [r3, #28]
 327 002a 14BF     		ite	ne
 328 002c 0132     		addne	r2, r2, #1
 329 002e 02F1FF32 		addeq	r2, r2, #-1
 330 0032 DA61     		str	r2, [r3, #28]
 331              	.LVL35:
 332              	.LBE56:
 333              	.LBE55:
 334              	.LBB57:
 335              		.loc 1 168 0
 336 0034 0023     		movs	r3, #0
 337              		.syntax unified
 338              	@ 168 "../convex-vexilla/cortex/fw/vexencoder.c" 1
 339 0036 83F31188 		msr     BASEPRI, r3
 340              	@ 0 "" 2
 341              		.thumb
 342              		.syntax unified
ARM GAS  /var/folders/6q/x_mk5n_j3p7_c40r_2k_78980000gn/T//ccDDDywd.s 			page 7


 343              	.LBE57:
 344              		.loc 1 169 0
 345 003a 10BC     		pop	{r4}
 346              		.cfi_restore 4
 347              		.cfi_def_cfa_offset 0
 348 003c 7047     		bx	lr
 349              	.L25:
 350 003e 00BF     		.align	2
 351              	.L24:
 352 0040 00000000 		.word	.LANCHOR0
 353              		.cfi_endproc
 354              	.LFE68:
 355              		.size	_vqe_2_cb_b, .-_vqe_2_cb_b
 356              		.section	.text._vqe_3_cb_a,"ax",%progbits
 357              		.align	2
 358              		.p2align 4,,15
 359              		.thumb
 360              		.thumb_func
 361              		.type	_vqe_3_cb_a, %function
 362              	_vqe_3_cb_a:
 363              	.LFB69:
 364              		.loc 1 176 0
 365              		.cfi_startproc
 366              		@ args = 0, pretend = 0, frame = 0
 367              		@ frame_needed = 0, uses_anonymous_args = 0
 368              		@ link register save eliminated.
 369              	.LVL36:
 370 0000 10B4     		push	{r4}
 371              		.cfi_def_cfa_offset 4
 372              		.cfi_offset 4, -4
 373              	.LBB58:
 374              		.loc 1 180 0
 375 0002 2023     		movs	r3, #32
 376              		.syntax unified
 377              	@ 180 "../convex-vexilla/cortex/fw/vexencoder.c" 1
 378 0004 83F31188 		msr     BASEPRI, r3
 379              	@ 0 "" 2
 380              	.LVL37:
 381              		.thumb
 382              		.syntax unified
 383              	.LBE58:
 384              	.LBB59:
 385              	.LBB60:
 386              		.loc 1 79 0
 387 0008 0D4B     		ldr	r3, .L30
 388 000a 596C     		ldr	r1, [r3, #68]
 389              	.LVL38:
 390              		.loc 1 80 0
 391 000c DA6C     		ldr	r2, [r3, #76]
 392              		.loc 1 79 0
 393 000e 8968     		ldr	r1, [r1, #8]
 394              	.LVL39:
 395              		.loc 1 83 0
 396 0010 B3F94840 		ldrsh	r4, [r3, #72]
 397              		.loc 1 80 0
 398 0014 9268     		ldr	r2, [r2, #8]
 399              	.LVL40:
ARM GAS  /var/folders/6q/x_mk5n_j3p7_c40r_2k_78980000gn/T//ccDDDywd.s 			page 8


 400              		.loc 1 83 0
 401 0016 B3F95000 		ldrsh	r0, [r3, #80]
 402              	.LVL41:
 403 001a E140     		lsrs	r1, r1, r4
 404              	.LVL42:
 405 001c C240     		lsrs	r2, r2, r0
 406              	.LVL43:
 407 001e 01F00101 		and	r1, r1, #1
 408 0022 02F00102 		and	r2, r2, #1
 409 0026 9142     		cmp	r1, r2
 410 0028 9A6B     		ldr	r2, [r3, #56]
 411 002a 14BF     		ite	ne
 412 002c 02F1FF32 		addne	r2, r2, #-1
 413 0030 0132     		addeq	r2, r2, #1
 414 0032 9A63     		str	r2, [r3, #56]
 415              	.LVL44:
 416              	.LBE60:
 417              	.LBE59:
 418              	.LBB61:
 419              		.loc 1 185 0
 420 0034 0023     		movs	r3, #0
 421              		.syntax unified
 422              	@ 185 "../convex-vexilla/cortex/fw/vexencoder.c" 1
 423 0036 83F31188 		msr     BASEPRI, r3
 424              	@ 0 "" 2
 425              		.thumb
 426              		.syntax unified
 427              	.LBE61:
 428              		.loc 1 186 0
 429 003a 10BC     		pop	{r4}
 430              		.cfi_restore 4
 431              		.cfi_def_cfa_offset 0
 432 003c 7047     		bx	lr
 433              	.L31:
 434 003e 00BF     		.align	2
 435              	.L30:
 436 0040 00000000 		.word	.LANCHOR0
 437              		.cfi_endproc
 438              	.LFE69:
 439              		.size	_vqe_3_cb_a, .-_vqe_3_cb_a
 440              		.section	.text._vqe_3_cb_b,"ax",%progbits
 441              		.align	2
 442              		.p2align 4,,15
 443              		.thumb
 444              		.thumb_func
 445              		.type	_vqe_3_cb_b, %function
 446              	_vqe_3_cb_b:
 447              	.LFB70:
 448              		.loc 1 193 0
 449              		.cfi_startproc
 450              		@ args = 0, pretend = 0, frame = 0
 451              		@ frame_needed = 0, uses_anonymous_args = 0
 452              		@ link register save eliminated.
 453              	.LVL45:
 454 0000 10B4     		push	{r4}
 455              		.cfi_def_cfa_offset 4
 456              		.cfi_offset 4, -4
ARM GAS  /var/folders/6q/x_mk5n_j3p7_c40r_2k_78980000gn/T//ccDDDywd.s 			page 9


 457              	.LBB62:
 458              		.loc 1 197 0
 459 0002 2023     		movs	r3, #32
 460              		.syntax unified
 461              	@ 197 "../convex-vexilla/cortex/fw/vexencoder.c" 1
 462 0004 83F31188 		msr     BASEPRI, r3
 463              	@ 0 "" 2
 464              	.LVL46:
 465              		.thumb
 466              		.syntax unified
 467              	.LBE62:
 468              	.LBB63:
 469              	.LBB64:
 470              		.loc 1 96 0
 471 0008 0D4B     		ldr	r3, .L36
 472 000a 596C     		ldr	r1, [r3, #68]
 473              	.LVL47:
 474              		.loc 1 97 0
 475 000c DA6C     		ldr	r2, [r3, #76]
 476              		.loc 1 96 0
 477 000e 8968     		ldr	r1, [r1, #8]
 478              	.LVL48:
 479              		.loc 1 100 0
 480 0010 B3F94840 		ldrsh	r4, [r3, #72]
 481              		.loc 1 97 0
 482 0014 9268     		ldr	r2, [r2, #8]
 483              	.LVL49:
 484              		.loc 1 100 0
 485 0016 B3F95000 		ldrsh	r0, [r3, #80]
 486              	.LVL50:
 487 001a E140     		lsrs	r1, r1, r4
 488              	.LVL51:
 489 001c C240     		lsrs	r2, r2, r0
 490              	.LVL52:
 491 001e 01F00101 		and	r1, r1, #1
 492 0022 02F00102 		and	r2, r2, #1
 493 0026 9142     		cmp	r1, r2
 494 0028 9A6B     		ldr	r2, [r3, #56]
 495 002a 14BF     		ite	ne
 496 002c 0132     		addne	r2, r2, #1
 497 002e 02F1FF32 		addeq	r2, r2, #-1
 498 0032 9A63     		str	r2, [r3, #56]
 499              	.LVL53:
 500              	.LBE64:
 501              	.LBE63:
 502              	.LBB65:
 503              		.loc 1 202 0
 504 0034 0023     		movs	r3, #0
 505              		.syntax unified
 506              	@ 202 "../convex-vexilla/cortex/fw/vexencoder.c" 1
 507 0036 83F31188 		msr     BASEPRI, r3
 508              	@ 0 "" 2
 509              		.thumb
 510              		.syntax unified
 511              	.LBE65:
 512              		.loc 1 203 0
 513 003a 10BC     		pop	{r4}
ARM GAS  /var/folders/6q/x_mk5n_j3p7_c40r_2k_78980000gn/T//ccDDDywd.s 			page 10


 514              		.cfi_restore 4
 515              		.cfi_def_cfa_offset 0
 516 003c 7047     		bx	lr
 517              	.L37:
 518 003e 00BF     		.align	2
 519              	.L36:
 520 0040 00000000 		.word	.LANCHOR0
 521              		.cfi_endproc
 522              	.LFE70:
 523              		.size	_vqe_3_cb_b, .-_vqe_3_cb_b
 524              		.section	.text._vqe_4_cb_a,"ax",%progbits
 525              		.align	2
 526              		.p2align 4,,15
 527              		.thumb
 528              		.thumb_func
 529              		.type	_vqe_4_cb_a, %function
 530              	_vqe_4_cb_a:
 531              	.LFB71:
 532              		.loc 1 207 0
 533              		.cfi_startproc
 534              		@ args = 0, pretend = 0, frame = 0
 535              		@ frame_needed = 0, uses_anonymous_args = 0
 536              		@ link register save eliminated.
 537              	.LVL54:
 538 0000 10B4     		push	{r4}
 539              		.cfi_def_cfa_offset 4
 540              		.cfi_offset 4, -4
 541              	.LBB66:
 542              		.loc 1 211 0
 543 0002 2023     		movs	r3, #32
 544              		.syntax unified
 545              	@ 211 "../convex-vexilla/cortex/fw/vexencoder.c" 1
 546 0004 83F31188 		msr     BASEPRI, r3
 547              	@ 0 "" 2
 548              	.LVL55:
 549              		.thumb
 550              		.syntax unified
 551              	.LBE66:
 552              	.LBB67:
 553              	.LBB68:
 554              		.loc 1 79 0
 555 0008 0D4B     		ldr	r3, .L42
 556 000a 196E     		ldr	r1, [r3, #96]
 557              	.LVL56:
 558              		.loc 1 80 0
 559 000c 9A6E     		ldr	r2, [r3, #104]
 560              		.loc 1 79 0
 561 000e 8968     		ldr	r1, [r1, #8]
 562              	.LVL57:
 563              		.loc 1 83 0
 564 0010 B3F96440 		ldrsh	r4, [r3, #100]
 565              		.loc 1 80 0
 566 0014 9268     		ldr	r2, [r2, #8]
 567              	.LVL58:
 568              		.loc 1 83 0
 569 0016 B3F96C00 		ldrsh	r0, [r3, #108]
 570              	.LVL59:
ARM GAS  /var/folders/6q/x_mk5n_j3p7_c40r_2k_78980000gn/T//ccDDDywd.s 			page 11


 571 001a E140     		lsrs	r1, r1, r4
 572              	.LVL60:
 573 001c C240     		lsrs	r2, r2, r0
 574              	.LVL61:
 575 001e 01F00101 		and	r1, r1, #1
 576 0022 02F00102 		and	r2, r2, #1
 577 0026 9142     		cmp	r1, r2
 578 0028 5A6D     		ldr	r2, [r3, #84]
 579 002a 14BF     		ite	ne
 580 002c 02F1FF32 		addne	r2, r2, #-1
 581 0030 0132     		addeq	r2, r2, #1
 582 0032 5A65     		str	r2, [r3, #84]
 583              	.LVL62:
 584              	.LBE68:
 585              	.LBE67:
 586              	.LBB69:
 587              		.loc 1 216 0
 588 0034 0023     		movs	r3, #0
 589              		.syntax unified
 590              	@ 216 "../convex-vexilla/cortex/fw/vexencoder.c" 1
 591 0036 83F31188 		msr     BASEPRI, r3
 592              	@ 0 "" 2
 593              		.thumb
 594              		.syntax unified
 595              	.LBE69:
 596              		.loc 1 217 0
 597 003a 10BC     		pop	{r4}
 598              		.cfi_restore 4
 599              		.cfi_def_cfa_offset 0
 600 003c 7047     		bx	lr
 601              	.L43:
 602 003e 00BF     		.align	2
 603              	.L42:
 604 0040 00000000 		.word	.LANCHOR0
 605              		.cfi_endproc
 606              	.LFE71:
 607              		.size	_vqe_4_cb_a, .-_vqe_4_cb_a
 608              		.section	.text._vqe_4_cb_b,"ax",%progbits
 609              		.align	2
 610              		.p2align 4,,15
 611              		.thumb
 612              		.thumb_func
 613              		.type	_vqe_4_cb_b, %function
 614              	_vqe_4_cb_b:
 615              	.LFB72:
 616              		.loc 1 224 0
 617              		.cfi_startproc
 618              		@ args = 0, pretend = 0, frame = 0
 619              		@ frame_needed = 0, uses_anonymous_args = 0
 620              		@ link register save eliminated.
 621              	.LVL63:
 622 0000 10B4     		push	{r4}
 623              		.cfi_def_cfa_offset 4
 624              		.cfi_offset 4, -4
 625              	.LBB70:
 626              		.loc 1 228 0
 627 0002 2023     		movs	r3, #32
ARM GAS  /var/folders/6q/x_mk5n_j3p7_c40r_2k_78980000gn/T//ccDDDywd.s 			page 12


 628              		.syntax unified
 629              	@ 228 "../convex-vexilla/cortex/fw/vexencoder.c" 1
 630 0004 83F31188 		msr     BASEPRI, r3
 631              	@ 0 "" 2
 632              	.LVL64:
 633              		.thumb
 634              		.syntax unified
 635              	.LBE70:
 636              	.LBB71:
 637              	.LBB72:
 638              		.loc 1 96 0
 639 0008 0D4B     		ldr	r3, .L48
 640 000a 196E     		ldr	r1, [r3, #96]
 641              	.LVL65:
 642              		.loc 1 97 0
 643 000c 9A6E     		ldr	r2, [r3, #104]
 644              		.loc 1 96 0
 645 000e 8968     		ldr	r1, [r1, #8]
 646              	.LVL66:
 647              		.loc 1 100 0
 648 0010 B3F96440 		ldrsh	r4, [r3, #100]
 649              		.loc 1 97 0
 650 0014 9268     		ldr	r2, [r2, #8]
 651              	.LVL67:
 652              		.loc 1 100 0
 653 0016 B3F96C00 		ldrsh	r0, [r3, #108]
 654              	.LVL68:
 655 001a E140     		lsrs	r1, r1, r4
 656              	.LVL69:
 657 001c C240     		lsrs	r2, r2, r0
 658              	.LVL70:
 659 001e 01F00101 		and	r1, r1, #1
 660 0022 02F00102 		and	r2, r2, #1
 661 0026 9142     		cmp	r1, r2
 662 0028 5A6D     		ldr	r2, [r3, #84]
 663 002a 14BF     		ite	ne
 664 002c 0132     		addne	r2, r2, #1
 665 002e 02F1FF32 		addeq	r2, r2, #-1
 666 0032 5A65     		str	r2, [r3, #84]
 667              	.LVL71:
 668              	.LBE72:
 669              	.LBE71:
 670              	.LBB73:
 671              		.loc 1 233 0
 672 0034 0023     		movs	r3, #0
 673              		.syntax unified
 674              	@ 233 "../convex-vexilla/cortex/fw/vexencoder.c" 1
 675 0036 83F31188 		msr     BASEPRI, r3
 676              	@ 0 "" 2
 677              		.thumb
 678              		.syntax unified
 679              	.LBE73:
 680              		.loc 1 234 0
 681 003a 10BC     		pop	{r4}
 682              		.cfi_restore 4
 683              		.cfi_def_cfa_offset 0
 684 003c 7047     		bx	lr
ARM GAS  /var/folders/6q/x_mk5n_j3p7_c40r_2k_78980000gn/T//ccDDDywd.s 			page 13


 685              	.L49:
 686 003e 00BF     		.align	2
 687              	.L48:
 688 0040 00000000 		.word	.LANCHOR0
 689              		.cfi_endproc
 690              	.LFE72:
 691              		.size	_vqe_4_cb_b, .-_vqe_4_cb_b
 692              		.section	.text._vqe_5_cb_a,"ax",%progbits
 693              		.align	2
 694              		.p2align 4,,15
 695              		.thumb
 696              		.thumb_func
 697              		.type	_vqe_5_cb_a, %function
 698              	_vqe_5_cb_a:
 699              	.LFB73:
 700              		.loc 1 238 0
 701              		.cfi_startproc
 702              		@ args = 0, pretend = 0, frame = 0
 703              		@ frame_needed = 0, uses_anonymous_args = 0
 704              		@ link register save eliminated.
 705              	.LVL72:
 706 0000 10B4     		push	{r4}
 707              		.cfi_def_cfa_offset 4
 708              		.cfi_offset 4, -4
 709              	.LBB74:
 710              		.loc 1 242 0
 711 0002 2023     		movs	r3, #32
 712              		.syntax unified
 713              	@ 242 "../convex-vexilla/cortex/fw/vexencoder.c" 1
 714 0004 83F31188 		msr     BASEPRI, r3
 715              	@ 0 "" 2
 716              	.LVL73:
 717              		.thumb
 718              		.syntax unified
 719              	.LBE74:
 720              	.LBB75:
 721              	.LBB76:
 722              		.loc 1 79 0
 723 0008 0D4B     		ldr	r3, .L54
 724 000a D96F     		ldr	r1, [r3, #124]
 725              	.LVL74:
 726              		.loc 1 80 0
 727 000c D3F88420 		ldr	r2, [r3, #132]
 728              		.loc 1 79 0
 729 0010 8968     		ldr	r1, [r1, #8]
 730              	.LVL75:
 731              		.loc 1 83 0
 732 0012 B3F98040 		ldrsh	r4, [r3, #128]
 733              		.loc 1 80 0
 734 0016 9268     		ldr	r2, [r2, #8]
 735              	.LVL76:
 736              		.loc 1 83 0
 737 0018 B3F98800 		ldrsh	r0, [r3, #136]
 738              	.LVL77:
 739 001c E140     		lsrs	r1, r1, r4
 740              	.LVL78:
 741 001e C240     		lsrs	r2, r2, r0
ARM GAS  /var/folders/6q/x_mk5n_j3p7_c40r_2k_78980000gn/T//ccDDDywd.s 			page 14


 742              	.LVL79:
 743 0020 01F00101 		and	r1, r1, #1
 744 0024 02F00102 		and	r2, r2, #1
 745 0028 9142     		cmp	r1, r2
 746 002a 1A6F     		ldr	r2, [r3, #112]
 747 002c 14BF     		ite	ne
 748 002e 02F1FF32 		addne	r2, r2, #-1
 749 0032 0132     		addeq	r2, r2, #1
 750 0034 1A67     		str	r2, [r3, #112]
 751              	.LVL80:
 752              	.LBE76:
 753              	.LBE75:
 754              	.LBB77:
 755              		.loc 1 247 0
 756 0036 0023     		movs	r3, #0
 757              		.syntax unified
 758              	@ 247 "../convex-vexilla/cortex/fw/vexencoder.c" 1
 759 0038 83F31188 		msr     BASEPRI, r3
 760              	@ 0 "" 2
 761              		.thumb
 762              		.syntax unified
 763              	.LBE77:
 764              		.loc 1 248 0
 765 003c 10BC     		pop	{r4}
 766              		.cfi_restore 4
 767              		.cfi_def_cfa_offset 0
 768 003e 7047     		bx	lr
 769              	.L55:
 770              		.align	2
 771              	.L54:
 772 0040 00000000 		.word	.LANCHOR0
 773              		.cfi_endproc
 774              	.LFE73:
 775              		.size	_vqe_5_cb_a, .-_vqe_5_cb_a
 776              		.section	.text._vqe_5_cb_b,"ax",%progbits
 777              		.align	2
 778              		.p2align 4,,15
 779              		.thumb
 780              		.thumb_func
 781              		.type	_vqe_5_cb_b, %function
 782              	_vqe_5_cb_b:
 783              	.LFB74:
 784              		.loc 1 255 0
 785              		.cfi_startproc
 786              		@ args = 0, pretend = 0, frame = 0
 787              		@ frame_needed = 0, uses_anonymous_args = 0
 788              		@ link register save eliminated.
 789              	.LVL81:
 790 0000 10B4     		push	{r4}
 791              		.cfi_def_cfa_offset 4
 792              		.cfi_offset 4, -4
 793              	.LBB78:
 794              		.loc 1 259 0
 795 0002 2023     		movs	r3, #32
 796              		.syntax unified
 797              	@ 259 "../convex-vexilla/cortex/fw/vexencoder.c" 1
 798 0004 83F31188 		msr     BASEPRI, r3
ARM GAS  /var/folders/6q/x_mk5n_j3p7_c40r_2k_78980000gn/T//ccDDDywd.s 			page 15


 799              	@ 0 "" 2
 800              	.LVL82:
 801              		.thumb
 802              		.syntax unified
 803              	.LBE78:
 804              	.LBB79:
 805              	.LBB80:
 806              		.loc 1 96 0
 807 0008 0D4B     		ldr	r3, .L60
 808 000a D96F     		ldr	r1, [r3, #124]
 809              	.LVL83:
 810              		.loc 1 97 0
 811 000c D3F88420 		ldr	r2, [r3, #132]
 812              		.loc 1 96 0
 813 0010 8968     		ldr	r1, [r1, #8]
 814              	.LVL84:
 815              		.loc 1 100 0
 816 0012 B3F98040 		ldrsh	r4, [r3, #128]
 817              		.loc 1 97 0
 818 0016 9268     		ldr	r2, [r2, #8]
 819              	.LVL85:
 820              		.loc 1 100 0
 821 0018 B3F98800 		ldrsh	r0, [r3, #136]
 822              	.LVL86:
 823 001c E140     		lsrs	r1, r1, r4
 824              	.LVL87:
 825 001e C240     		lsrs	r2, r2, r0
 826              	.LVL88:
 827 0020 01F00101 		and	r1, r1, #1
 828 0024 02F00102 		and	r2, r2, #1
 829 0028 9142     		cmp	r1, r2
 830 002a 1A6F     		ldr	r2, [r3, #112]
 831 002c 14BF     		ite	ne
 832 002e 0132     		addne	r2, r2, #1
 833 0030 02F1FF32 		addeq	r2, r2, #-1
 834 0034 1A67     		str	r2, [r3, #112]
 835              	.LVL89:
 836              	.LBE80:
 837              	.LBE79:
 838              	.LBB81:
 839              		.loc 1 264 0
 840 0036 0023     		movs	r3, #0
 841              		.syntax unified
 842              	@ 264 "../convex-vexilla/cortex/fw/vexencoder.c" 1
 843 0038 83F31188 		msr     BASEPRI, r3
 844              	@ 0 "" 2
 845              		.thumb
 846              		.syntax unified
 847              	.LBE81:
 848              		.loc 1 265 0
 849 003c 10BC     		pop	{r4}
 850              		.cfi_restore 4
 851              		.cfi_def_cfa_offset 0
 852 003e 7047     		bx	lr
 853              	.L61:
 854              		.align	2
 855              	.L60:
ARM GAS  /var/folders/6q/x_mk5n_j3p7_c40r_2k_78980000gn/T//ccDDDywd.s 			page 16


 856 0040 00000000 		.word	.LANCHOR0
 857              		.cfi_endproc
 858              	.LFE74:
 859              		.size	_vqe_5_cb_b, .-_vqe_5_cb_b
 860              		.section	.text.vexEncoderInit,"ax",%progbits
 861              		.align	2
 862              		.p2align 4,,15
 863              		.global	vexEncoderInit
 864              		.thumb
 865              		.thumb_func
 866              		.type	vexEncoderInit, %function
 867              	vexEncoderInit:
 868              	.LFB75:
 869              		.loc 1 292 0
 870              		.cfi_startproc
 871              		@ args = 0, pretend = 0, frame = 0
 872              		@ frame_needed = 0, uses_anonymous_args = 0
 873              		@ link register save eliminated.
 874              	.LVL90:
 875 0000 10B4     		push	{r4}
 876              		.cfi_def_cfa_offset 4
 877              		.cfi_offset 4, -4
 878 0002 094C     		ldr	r4, .L66
 879              		.loc 1 292 0
 880 0004 0023     		movs	r3, #0
 881 0006 2246     		mov	r2, r4
 882              		.loc 1 297 0
 883 0008 1946     		mov	r1, r3
 884              	.LVL91:
 885              	.L63:
 886              		.loc 1 298 0 discriminator 3
 887 000a C3EBC300 		rsb	r0, r3, r3, lsl #3
 888 000e 0133     		adds	r3, r3, #1
 889              	.LVL92:
 890              		.loc 1 295 0 discriminator 3
 891 0010 052B     		cmp	r3, #5
 892              		.loc 1 297 0 discriminator 3
 893 0012 1181     		strh	r1, [r2, #8]	@ movhi
 894              		.loc 1 298 0 discriminator 3
 895 0014 44F82010 		str	r1, [r4, r0, lsl #2]
 896 0018 02F11C02 		add	r2, r2, #28
 897              		.loc 1 299 0 discriminator 3
 898 001c 42F8181C 		str	r1, [r2, #-24]
 899              		.loc 1 295 0 discriminator 3
 900 0020 F3D1     		bne	.L63
 901              		.loc 1 301 0
 902 0022 10BC     		pop	{r4}
 903              		.cfi_restore 4
 904              		.cfi_def_cfa_offset 0
 905 0024 7047     		bx	lr
 906              	.L67:
 907 0026 00BF     		.align	2
 908              	.L66:
 909 0028 00000000 		.word	.LANCHOR0
 910              		.cfi_endproc
 911              	.LFE75:
 912              		.size	vexEncoderInit, .-vexEncoderInit
ARM GAS  /var/folders/6q/x_mk5n_j3p7_c40r_2k_78980000gn/T//ccDDDywd.s 			page 17


 913              		.section	.text.vexEncoderAdd,"ax",%progbits
 914              		.align	2
 915              		.p2align 4,,15
 916              		.global	vexEncoderAdd
 917              		.thumb
 918              		.thumb_func
 919              		.type	vexEncoderAdd, %function
 920              	vexEncoderAdd:
 921              	.LFB76:
 922              		.loc 1 315 0
 923              		.cfi_startproc
 924              		@ args = 0, pretend = 0, frame = 0
 925              		@ frame_needed = 0, uses_anonymous_args = 0
 926              	.LVL93:
 927              		.loc 1 316 0
 928 0000 0428     		cmp	r0, #4
 929 0002 03D8     		bhi	.L71
 930              		.loc 1 319 0
 931 0004 0B29     		cmp	r1, #11
 932 0006 01DC     		bgt	.L71
 933              		.loc 1 321 0
 934 0008 0B2A     		cmp	r2, #11
 935 000a 00DD     		ble	.L72
 936              	.L71:
 937 000c 7047     		bx	lr
 938              	.L72:
 939              		.loc 1 315 0
 940 000e 2DE9F843 		push	{r3, r4, r5, r6, r7, r8, r9, lr}
 941              		.cfi_def_cfa_offset 32
 942              		.cfi_offset 3, -32
 943              		.cfi_offset 4, -28
 944              		.cfi_offset 5, -24
 945              		.cfi_offset 6, -20
 946              		.cfi_offset 7, -16
 947              		.cfi_offset 8, -12
 948              		.cfi_offset 9, -8
 949              		.cfi_offset 14, -4
 950 0012 0D46     		mov	r5, r1
 951 0014 0446     		mov	r4, r0
 952 0016 1646     		mov	r6, r2
 953              		.loc 1 325 0
 954 0018 C0EBC003 		rsb	r3, r0, r0, lsl #3
 955 001c 204A     		ldr	r2, .L73
 956              	.LVL94:
 957 001e 9B00     		lsls	r3, r3, #2
 958 0020 D718     		adds	r7, r2, r3
 959 0022 4FF00009 		mov	r9, #0
 960              		.loc 1 329 0
 961 0026 2846     		mov	r0, r5
 962              	.LVL95:
 963              		.loc 1 325 0
 964 0028 42F80390 		str	r9, [r2, r3]
 965              		.loc 1 329 0
 966 002c 4946     		mov	r1, r9
 967              	.LVL96:
 968              		.loc 1 326 0
 969 002e C7F80490 		str	r9, [r7, #4]
ARM GAS  /var/folders/6q/x_mk5n_j3p7_c40r_2k_78980000gn/T//ccDDDywd.s 			page 18


 970              		.loc 1 329 0
 971 0032 FFF7FEFF 		bl	vexDigitalModeSet
 972              	.LVL97:
 973              		.loc 1 331 0
 974 0036 DFF87480 		ldr	r8, .L73+12
 975 003a 05EB4503 		add	r3, r5, r5, lsl #1
 976 003e 9B00     		lsls	r3, r3, #2
 977              		.loc 1 332 0
 978 0040 08EB0302 		add	r2, r8, r3
 979              		.loc 1 331 0
 980 0044 58F803E0 		ldr	lr, [r8, r3]
 981              		.loc 1 332 0
 982 0048 B2F90420 		ldrsh	r2, [r2, #4]
 983              		.loc 1 333 0
 984 004c 154B     		ldr	r3, .L73+4
 985 004e 7046     		mov	r0, lr
 986 0050 91B2     		uxth	r1, r2
 987 0052 53F82430 		ldr	r3, [r3, r4, lsl #2]
 988              		.loc 1 331 0
 989 0056 C7F80CE0 		str	lr, [r7, #12]
 990              		.loc 1 330 0
 991 005a BD72     		strb	r5, [r7, #10]
 992              		.loc 1 332 0
 993 005c 3A82     		strh	r2, [r7, #16]	@ movhi
 994              		.loc 1 333 0
 995 005e 0322     		movs	r2, #3
 996 0060 FFF7FEFF 		bl	vexExtSet
 997              	.LVL98:
 998              		.loc 1 336 0
 999 0064 4946     		mov	r1, r9
 1000 0066 3046     		mov	r0, r6
 1001 0068 FFF7FEFF 		bl	vexDigitalModeSet
 1002              	.LVL99:
 1003              		.loc 1 338 0
 1004 006c 06EB4603 		add	r3, r6, r6, lsl #1
 1005 0070 9B00     		lsls	r3, r3, #2
 1006              		.loc 1 339 0
 1007 0072 08EB0302 		add	r2, r8, r3
 1008 0076 B2F904E0 		ldrsh	lr, [r2, #4]
 1009              		.loc 1 338 0
 1010 007a 58F80350 		ldr	r5, [r8, r3]
 1011              		.loc 1 340 0
 1012 007e 0A4B     		ldr	r3, .L73+8
 1013 0080 1FFA8EF1 		uxth	r1, lr
 1014 0084 53F82430 		ldr	r3, [r3, r4, lsl #2]
 1015 0088 2846     		mov	r0, r5
 1016 008a 0322     		movs	r2, #3
 1017              		.loc 1 337 0
 1018 008c FE72     		strb	r6, [r7, #11]
 1019              		.loc 1 339 0
 1020 008e A7F818E0 		strh	lr, [r7, #24]	@ movhi
 1021              		.loc 1 338 0
 1022 0092 7D61     		str	r5, [r7, #20]
 1023              		.loc 1 340 0
 1024 0094 FFF7FEFF 		bl	vexExtSet
 1025              	.LVL100:
 1026              		.loc 1 342 0
ARM GAS  /var/folders/6q/x_mk5n_j3p7_c40r_2k_78980000gn/T//ccDDDywd.s 			page 19


 1027 0098 0123     		movs	r3, #1
 1028 009a 3B81     		strh	r3, [r7, #8]	@ movhi
 1029 009c BDE8F883 		pop	{r3, r4, r5, r6, r7, r8, r9, pc}
 1030              	.L74:
 1031              		.align	2
 1032              	.L73:
 1033 00a0 00000000 		.word	.LANCHOR0
 1034 00a4 00000000 		.word	.LANCHOR1
 1035 00a8 00000000 		.word	.LANCHOR2
 1036 00ac 00000000 		.word	vexioDefinition
 1037              		.cfi_endproc
 1038              	.LFE76:
 1039              		.size	vexEncoderAdd, .-vexEncoderAdd
 1040              		.section	.text.vexEncoderStart,"ax",%progbits
 1041              		.align	2
 1042              		.p2align 4,,15
 1043              		.global	vexEncoderStart
 1044              		.thumb
 1045              		.thumb_func
 1046              		.type	vexEncoderStart, %function
 1047              	vexEncoderStart:
 1048              	.LFB77:
 1049              		.loc 1 352 0
 1050              		.cfi_startproc
 1051              		@ args = 0, pretend = 0, frame = 0
 1052              		@ frame_needed = 0, uses_anonymous_args = 0
 1053              	.LVL101:
 1054              		.loc 1 353 0
 1055 0000 0B4B     		ldr	r3, .L79
 1056 0002 C0EBC000 		rsb	r0, r0, r0, lsl #3
 1057              	.LVL102:
 1058              		.loc 1 352 0
 1059 0006 10B5     		push	{r4, lr}
 1060              		.cfi_def_cfa_offset 8
 1061              		.cfi_offset 4, -8
 1062              		.cfi_offset 14, -4
 1063              		.loc 1 353 0
 1064 0008 03EB8004 		add	r4, r3, r0, lsl #2
 1065 000c B4F90830 		ldrsh	r3, [r4, #8]
 1066 0010 012B     		cmp	r3, #1
 1067 0012 00D0     		beq	.L78
 1068 0014 10BD     		pop	{r4, pc}
 1069              	.L78:
 1070              		.loc 1 355 0
 1071 0016 B4F91010 		ldrsh	r1, [r4, #16]
 1072 001a 0648     		ldr	r0, .L79+4
 1073 001c FFF7FEFF 		bl	extChannelEnable
 1074              	.LVL103:
 1075              		.loc 1 356 0
 1076 0020 B4F91810 		ldrsh	r1, [r4, #24]
 1077 0024 0348     		ldr	r0, .L79+4
 1078              		.loc 1 358 0
 1079 0026 BDE81040 		pop	{r4, lr}
 1080              		.cfi_restore 14
 1081              		.cfi_restore 4
 1082              		.cfi_def_cfa_offset 0
 1083              		.loc 1 356 0
ARM GAS  /var/folders/6q/x_mk5n_j3p7_c40r_2k_78980000gn/T//ccDDDywd.s 			page 20


 1084 002a FFF7FEBF 		b	extChannelEnable
 1085              	.LVL104:
 1086              	.L80:
 1087 002e 00BF     		.align	2
 1088              	.L79:
 1089 0030 00000000 		.word	.LANCHOR0
 1090 0034 00000000 		.word	EXTD1
 1091              		.cfi_endproc
 1092              	.LFE77:
 1093              		.size	vexEncoderStart, .-vexEncoderStart
 1094              		.section	.text.vexEncoderStop,"ax",%progbits
 1095              		.align	2
 1096              		.p2align 4,,15
 1097              		.global	vexEncoderStop
 1098              		.thumb
 1099              		.thumb_func
 1100              		.type	vexEncoderStop, %function
 1101              	vexEncoderStop:
 1102              	.LFB78:
 1103              		.loc 1 367 0
 1104              		.cfi_startproc
 1105              		@ args = 0, pretend = 0, frame = 0
 1106              		@ frame_needed = 0, uses_anonymous_args = 0
 1107              	.LVL105:
 1108              		.loc 1 368 0
 1109 0000 0B4B     		ldr	r3, .L85
 1110 0002 C0EBC000 		rsb	r0, r0, r0, lsl #3
 1111              	.LVL106:
 1112              		.loc 1 367 0
 1113 0006 10B5     		push	{r4, lr}
 1114              		.cfi_def_cfa_offset 8
 1115              		.cfi_offset 4, -8
 1116              		.cfi_offset 14, -4
 1117              		.loc 1 368 0
 1118 0008 03EB8004 		add	r4, r3, r0, lsl #2
 1119 000c B4F90830 		ldrsh	r3, [r4, #8]
 1120 0010 012B     		cmp	r3, #1
 1121 0012 00D0     		beq	.L84
 1122 0014 10BD     		pop	{r4, pc}
 1123              	.L84:
 1124              		.loc 1 370 0
 1125 0016 B4F91010 		ldrsh	r1, [r4, #16]
 1126 001a 0648     		ldr	r0, .L85+4
 1127 001c FFF7FEFF 		bl	extChannelDisable
 1128              	.LVL107:
 1129              		.loc 1 371 0
 1130 0020 B4F91810 		ldrsh	r1, [r4, #24]
 1131 0024 0348     		ldr	r0, .L85+4
 1132              		.loc 1 373 0
 1133 0026 BDE81040 		pop	{r4, lr}
 1134              		.cfi_restore 14
 1135              		.cfi_restore 4
 1136              		.cfi_def_cfa_offset 0
 1137              		.loc 1 371 0
 1138 002a FFF7FEBF 		b	extChannelDisable
 1139              	.LVL108:
 1140              	.L86:
ARM GAS  /var/folders/6q/x_mk5n_j3p7_c40r_2k_78980000gn/T//ccDDDywd.s 			page 21


 1141 002e 00BF     		.align	2
 1142              	.L85:
 1143 0030 00000000 		.word	.LANCHOR0
 1144 0034 00000000 		.word	EXTD1
 1145              		.cfi_endproc
 1146              	.LFE78:
 1147              		.size	vexEncoderStop, .-vexEncoderStop
 1148              		.section	.text.vexEncoderStartAll,"ax",%progbits
 1149              		.align	2
 1150              		.p2align 4,,15
 1151              		.global	vexEncoderStartAll
 1152              		.thumb
 1153              		.thumb_func
 1154              		.type	vexEncoderStartAll, %function
 1155              	vexEncoderStartAll:
 1156              	.LFB79:
 1157              		.loc 1 381 0
 1158              		.cfi_startproc
 1159              		@ args = 0, pretend = 0, frame = 0
 1160              		@ frame_needed = 0, uses_anonymous_args = 0
 1161              	.LVL109:
 1162 0000 10B5     		push	{r4, lr}
 1163              		.cfi_def_cfa_offset 8
 1164              		.cfi_offset 4, -8
 1165              		.cfi_offset 14, -4
 1166              		.loc 1 381 0
 1167 0002 0024     		movs	r4, #0
 1168              	.LVL110:
 1169              	.L88:
 1170              		.loc 1 385 0 discriminator 3
 1171 0004 E0B2     		uxtb	r0, r4
 1172 0006 0134     		adds	r4, r4, #1
 1173              	.LVL111:
 1174 0008 FFF7FEFF 		bl	vexEncoderStart
 1175              	.LVL112:
 1176              		.loc 1 384 0 discriminator 3
 1177 000c 052C     		cmp	r4, #5
 1178 000e F9D1     		bne	.L88
 1179              		.loc 1 386 0
 1180 0010 10BD     		pop	{r4, pc}
 1181              		.cfi_endproc
 1182              	.LFE79:
 1183              		.size	vexEncoderStartAll, .-vexEncoderStartAll
 1184 0012 00BF     		.section	.text.vexEncoderGet,"ax",%progbits
 1185              		.align	2
 1186              		.p2align 4,,15
 1187              		.global	vexEncoderGet
 1188              		.thumb
 1189              		.thumb_func
 1190              		.type	vexEncoderGet, %function
 1191              	vexEncoderGet:
 1192              	.LFB80:
 1193              		.loc 1 402 0
 1194              		.cfi_startproc
 1195              		@ args = 0, pretend = 0, frame = 0
 1196              		@ frame_needed = 0, uses_anonymous_args = 0
 1197              		@ link register save eliminated.
ARM GAS  /var/folders/6q/x_mk5n_j3p7_c40r_2k_78980000gn/T//ccDDDywd.s 			page 22


 1198              	.LVL113:
 1199              		.loc 1 403 0
 1200 0000 83B2     		uxth	r3, r0
 1201 0002 042B     		cmp	r3, #4
 1202 0004 08D8     		bhi	.L93
 1203              		.loc 1 406 0
 1204 0006 054A     		ldr	r2, .L94
 1205 0008 C0EBC000 		rsb	r0, r0, r0, lsl #3
 1206              	.LVL114:
 1207 000c 8300     		lsls	r3, r0, #2
 1208              	.LVL115:
 1209 000e D118     		adds	r1, r2, r3
 1210 0010 4868     		ldr	r0, [r1, #4]
 1211 0012 D358     		ldr	r3, [r2, r3]
 1212 0014 181A     		subs	r0, r3, r0
 1213 0016 7047     		bx	lr
 1214              	.LVL116:
 1215              	.L93:
 1216              		.loc 1 404 0
 1217 0018 0020     		movs	r0, #0
 1218              	.LVL117:
 1219              		.loc 1 407 0
 1220 001a 7047     		bx	lr
 1221              	.L95:
 1222              		.align	2
 1223              	.L94:
 1224 001c 00000000 		.word	.LANCHOR0
 1225              		.cfi_endproc
 1226              	.LFE80:
 1227              		.size	vexEncoderGet, .-vexEncoderGet
 1228              		.section	.text.vexEncoderSet,"ax",%progbits
 1229              		.align	2
 1230              		.p2align 4,,15
 1231              		.global	vexEncoderSet
 1232              		.thumb
 1233              		.thumb_func
 1234              		.type	vexEncoderSet, %function
 1235              	vexEncoderSet:
 1236              	.LFB81:
 1237              		.loc 1 421 0
 1238              		.cfi_startproc
 1239              		@ args = 0, pretend = 0, frame = 0
 1240              		@ frame_needed = 0, uses_anonymous_args = 0
 1241              		@ link register save eliminated.
 1242              	.LVL118:
 1243              		.loc 1 422 0
 1244 0000 83B2     		uxth	r3, r0
 1245 0002 042B     		cmp	r3, #4
 1246 0004 07D8     		bhi	.L96
 1247              		.loc 1 425 0
 1248 0006 044A     		ldr	r2, .L98
 1249 0008 C0EBC000 		rsb	r0, r0, r0, lsl #3
 1250              	.LVL119:
 1251 000c 8000     		lsls	r0, r0, #2
 1252 000e 1358     		ldr	r3, [r2, r0]
 1253              	.LVL120:
 1254 0010 1044     		add	r0, r0, r2
ARM GAS  /var/folders/6q/x_mk5n_j3p7_c40r_2k_78980000gn/T//ccDDDywd.s 			page 23


 1255 0012 591A     		subs	r1, r3, r1
 1256              	.LVL121:
 1257 0014 4160     		str	r1, [r0, #4]
 1258              	.L96:
 1259 0016 7047     		bx	lr
 1260              	.L99:
 1261              		.align	2
 1262              	.L98:
 1263 0018 00000000 		.word	.LANCHOR0
 1264              		.cfi_endproc
 1265              	.LFE81:
 1266              		.size	vexEncoderSet, .-vexEncoderSet
 1267              		.section	.text.vexEncoderGetId,"ax",%progbits
 1268              		.align	2
 1269              		.p2align 4,,15
 1270              		.global	vexEncoderGetId
 1271              		.thumb
 1272              		.thumb_func
 1273              		.type	vexEncoderGetId, %function
 1274              	vexEncoderGetId:
 1275              	.LFB82:
 1276              		.loc 1 442 0
 1277              		.cfi_startproc
 1278              		@ args = 0, pretend = 0, frame = 0
 1279              		@ frame_needed = 0, uses_anonymous_args = 0
 1280              		@ link register save eliminated.
 1281              	.LVL122:
 1282              		.loc 1 443 0
 1283 0000 0428     		cmp	r0, #4
 1284 0002 07DC     		bgt	.L102
 1285              		.loc 1 447 0
 1286 0004 054B     		ldr	r3, .L103
 1287 0006 C0EBC000 		rsb	r0, r0, r0, lsl #3
 1288              	.LVL123:
 1289 000a 03EB8000 		add	r0, r3, r0, lsl #2
 1290 000e 90F90A00 		ldrsb	r0, [r0, #10]
 1291 0012 7047     		bx	lr
 1292              	.LVL124:
 1293              	.L102:
 1294              		.loc 1 444 0
 1295 0014 4FF0FF30 		mov	r0, #-1
 1296              	.LVL125:
 1297              		.loc 1 448 0
 1298 0018 7047     		bx	lr
 1299              	.L104:
 1300 001a 00BF     		.align	2
 1301              	.L103:
 1302 001c 00000000 		.word	.LANCHOR0
 1303              		.cfi_endproc
 1304              	.LFE82:
 1305              		.size	vexEncoderGetId, .-vexEncoderGetId
 1306              		.section	.text.vexEncoderDebug,"ax",%progbits
 1307              		.align	2
 1308              		.p2align 4,,15
 1309              		.global	vexEncoderDebug
 1310              		.thumb
 1311              		.thumb_func
ARM GAS  /var/folders/6q/x_mk5n_j3p7_c40r_2k_78980000gn/T//ccDDDywd.s 			page 24


 1312              		.type	vexEncoderDebug, %function
 1313              	vexEncoderDebug:
 1314              	.LFB83:
 1315              		.loc 1 459 0
 1316              		.cfi_startproc
 1317              		@ args = 0, pretend = 0, frame = 0
 1318              		@ frame_needed = 0, uses_anonymous_args = 0
 1319              	.LVL126:
 1320 0000 F0B5     		push	{r4, r5, r6, r7, lr}
 1321              		.cfi_def_cfa_offset 20
 1322              		.cfi_offset 4, -20
 1323              		.cfi_offset 5, -16
 1324              		.cfi_offset 6, -12
 1325              		.cfi_offset 7, -8
 1326              		.cfi_offset 14, -4
 1327 0002 0B4E     		ldr	r6, .L109
 1328 0004 0746     		mov	r7, r0
 1329 0006 3546     		mov	r5, r6
 1330 0008 83B0     		sub	sp, sp, #12
 1331              		.cfi_def_cfa_offset 32
 1332              		.loc 1 459 0
 1333 000a 0024     		movs	r4, #0
 1334              	.LVL127:
 1335              	.L106:
 1336              		.loc 1 466 0 discriminator 3
 1337 000c 6A68     		ldr	r2, [r5, #4]
 1338 000e C4EBC403 		rsb	r3, r4, r4, lsl #3
 1339 0012 0092     		str	r2, [sp]
 1340 0014 56F82330 		ldr	r3, [r6, r3, lsl #2]
 1341 0018 2246     		mov	r2, r4
 1342 001a 0649     		ldr	r1, .L109+4
 1343 001c 0134     		adds	r4, r4, #1
 1344              	.LVL128:
 1345 001e 3846     		mov	r0, r7
 1346 0020 FFF7FEFF 		bl	vex_chprintf
 1347              	.LVL129:
 1348              		.loc 1 465 0 discriminator 3
 1349 0024 052C     		cmp	r4, #5
 1350 0026 05F11C05 		add	r5, r5, #28
 1351 002a EFD1     		bne	.L106
 1352              		.loc 1 467 0
 1353 002c 03B0     		add	sp, sp, #12
 1354              		.cfi_def_cfa_offset 20
 1355              		@ sp needed
 1356 002e F0BD     		pop	{r4, r5, r6, r7, pc}
 1357              	.LVL130:
 1358              	.L110:
 1359              		.align	2
 1360              	.L109:
 1361 0030 00000000 		.word	.LANCHOR0
 1362 0034 00000000 		.word	.LC0
 1363              		.cfi_endproc
 1364              	.LFE83:
 1365              		.size	vexEncoderDebug, .-vexEncoderDebug
 1366              		.section	.rodata._vqe_cb_a,"a",%progbits
 1367              		.align	2
 1368              		.set	.LANCHOR1,. + 0
ARM GAS  /var/folders/6q/x_mk5n_j3p7_c40r_2k_78980000gn/T//ccDDDywd.s 			page 25


 1369              		.type	_vqe_cb_a, %object
 1370              		.size	_vqe_cb_a, 20
 1371              	_vqe_cb_a:
 1372 0000 00000000 		.word	_vqe_1_cb_a
 1373 0004 00000000 		.word	_vqe_2_cb_a
 1374 0008 00000000 		.word	_vqe_3_cb_a
 1375 000c 00000000 		.word	_vqe_4_cb_a
 1376 0010 00000000 		.word	_vqe_5_cb_a
 1377              		.section	.rodata._vqe_cb_b,"a",%progbits
 1378              		.align	2
 1379              		.set	.LANCHOR2,. + 0
 1380              		.type	_vqe_cb_b, %object
 1381              		.size	_vqe_cb_b, 20
 1382              	_vqe_cb_b:
 1383 0000 00000000 		.word	_vqe_1_cb_b
 1384 0004 00000000 		.word	_vqe_2_cb_b
 1385 0008 00000000 		.word	_vqe_3_cb_b
 1386 000c 00000000 		.word	_vqe_4_cb_b
 1387 0010 00000000 		.word	_vqe_5_cb_b
 1388              		.section	.rodata.str1.4,"aMS",%progbits,1
 1389              		.align	2
 1390              	.LC0:
 1391 0000 45256420 		.ascii	"E%d %8ld  %8ld\015\012\000"
 1391      25386C64 
 1391      20202538 
 1391      6C640D0A 
 1391      00
 1392              		.section	.bss.vexQuadEncoders,"aw",%nobits
 1393              		.align	2
 1394              		.set	.LANCHOR0,. + 0
 1395              		.type	vexQuadEncoders, %object
 1396              		.size	vexQuadEncoders, 140
 1397              	vexQuadEncoders:
 1398 0000 00000000 		.space	140
 1398      00000000 
 1398      00000000 
 1398      00000000 
 1398      00000000 
 1399              		.text
 1400              	.Letext0:
 1401              		.file 2 "/Users/Luca/src/vexilla/src/gcc-arm-none-eabi-5_4-2016q3/lib/gcc/arm-none-eabi/5.4.1/incl
 1402              		.file 3 "/Users/Luca/src/vexilla/src/gcc-arm-none-eabi-5_4-2016q3/arm-none-eabi/include/machine/_d
 1403              		.file 4 "/Users/Luca/src/vexilla/src/gcc-arm-none-eabi-5_4-2016q3/arm-none-eabi/include/sys/_stdin
 1404              		.file 5 "../ChibiOS/os/ports/GCC/ARMCMx/chtypes.h"
 1405              		.file 6 "../ChibiOS/os/kernel/include/chstreams.h"
 1406              		.file 7 "../ChibiOS/os/hal/platforms/STM32F1xx/stm32f10x.h"
 1407              		.file 8 "../ChibiOS/os/hal/platforms/STM32/GPIOv1/pal_lld.h"
 1408              		.file 9 "../ChibiOS/os/hal/include/ext.h"
 1409              		.file 10 "../ChibiOS/os/hal/platforms/STM32/ext_lld.h"
 1410              		.file 11 "../convex-vexilla/cortex/fw/vexcompat.h"
 1411              		.file 12 "../convex-vexilla/cortex/fw/vexdigital.h"
 1412              		.file 13 "../convex-vexilla/cortex/fw/vexencoder.h"
 1413              		.file 14 "../convex-vexilla/cortex/fw/vexime.h"
 1414              		.file 15 "../ChibiOS/os/ports/common/ARMCMx/CMSIS/include/core_cm3.h"
 1415              		.file 16 "../convex-vexilla/cortex/fw/vexprintf.h"