ARM GAS  /var/folders/6q/x_mk5n_j3p7_c40r_2k_78980000gn/T//cc0VacPJ.s 			page 1


   1              		.syntax unified
   2              		.cpu cortex-m3
   3              		.fpu softvfp
   4              		.eabi_attribute 20, 1
   5              		.eabi_attribute 21, 1
   6              		.eabi_attribute 23, 3
   7              		.eabi_attribute 24, 1
   8              		.eabi_attribute 25, 1
   9              		.eabi_attribute 26, 1
  10              		.eabi_attribute 30, 2
  11              		.eabi_attribute 34, 1
  12              		.eabi_attribute 18, 4
  13              		.thumb
  14              		.syntax unified
  15              		.file	"vexext.c"
  16              		.text
  17              	.Ltext0:
  18              		.cfi_sections	.debug_frame
  19              		.section	.text.vexExtSet,"ax",%progbits
  20              		.align	2
  21              		.p2align 4,,15
  22              		.global	vexExtSet
  23              		.thumb
  24              		.thumb_func
  25              		.type	vexExtSet, %function
  26              	vexExtSet:
  27              	.LFB63:
  28              		.file 1 "../convex-vexilla/cortex/fw/vexext.c"
  29              		.loc 1 188 0
  30              		.cfi_startproc
  31              		@ args = 0, pretend = 0, frame = 0
  32              		@ frame_needed = 0, uses_anonymous_args = 0
  33              		@ link register save eliminated.
  34              	.LVL0:
  35 0000 70B4     		push	{r4, r5, r6}
  36              		.cfi_def_cfa_offset 12
  37              		.cfi_offset 4, -12
  38              		.cfi_offset 5, -8
  39              		.cfi_offset 6, -4
  40              		.loc 1 189 0
  41 0002 114D     		ldr	r5, .L8
  42              		.loc 1 195 0
  43 0004 0729     		cmp	r1, #7
  44              		.loc 1 189 0
  45 0006 55F83140 		ldr	r4, [r5, r1, lsl #3]
  46              		.loc 1 190 0
  47 000a 05EBC106 		add	r6, r5, r1, lsl #3
  48              		.loc 1 189 0
  49 000e 04F0F004 		and	r4, r4, #240
  50 0012 42EA0402 		orr	r2, r2, r4
  51              	.LVL1:
  52 0016 45F83120 		str	r2, [r5, r1, lsl #3]
  53              		.loc 1 190 0
  54 001a 7360     		str	r3, [r6, #4]
  55              		.loc 1 195 0
  56 001c 01D0     		beq	.L6
  57              	.LVL2:
ARM GAS  /var/folders/6q/x_mk5n_j3p7_c40r_2k_78980000gn/T//cc0VacPJ.s 			page 2


  58              	.L1:
  59              		.loc 1 205 0
  60 001e 70BC     		pop	{r4, r5, r6}
  61              		.cfi_remember_state
  62              		.cfi_restore 6
  63              		.cfi_restore 5
  64              		.cfi_restore 4
  65              		.cfi_def_cfa_offset 0
  66              	.LVL3:
  67 0020 7047     		bx	lr
  68              	.LVL4:
  69              	.L6:
  70              		.cfi_restore_state
  71              		.loc 1 197 0
  72 0022 0A4B     		ldr	r3, .L8+4
  73              	.LVL5:
  74 0024 9842     		cmp	r0, r3
  75 0026 08D0     		beq	.L7
  76              		.loc 1 199 0
  77 0028 094B     		ldr	r3, .L8+8
  78 002a 9842     		cmp	r0, r3
  79 002c F7D1     		bne	.L1
  80              		.loc 1 200 0
  81 002e 22F0F002 		bic	r2, r2, #240
  82 0032 42F02002 		orr	r2, r2, #32
  83 0036 AA63     		str	r2, [r5, #56]
  84              		.loc 1 205 0
  85 0038 F1E7     		b	.L1
  86              	.L7:
  87              		.loc 1 198 0
  88 003a 22F0F002 		bic	r2, r2, #240
  89 003e 42F04002 		orr	r2, r2, #64
  90 0042 AA63     		str	r2, [r5, #56]
  91 0044 EBE7     		b	.L1
  92              	.L9:
  93 0046 00BF     		.align	2
  94              	.L8:
  95 0048 00000000 		.word	.LANCHOR0
  96 004c 00180140 		.word	1073813504
  97 0050 00100140 		.word	1073811456
  98              		.cfi_endproc
  99              	.LFE63:
 100              		.size	vexExtSet, .-vexExtSet
 101              		.section	.text.vexExtIrqInit,"ax",%progbits
 102              		.align	2
 103              		.p2align 4,,15
 104              		.global	vexExtIrqInit
 105              		.thumb
 106              		.thumb_func
 107              		.type	vexExtIrqInit, %function
 108              	vexExtIrqInit:
 109              	.LFB64:
 110              		.loc 1 216 0
 111              		.cfi_startproc
 112              		@ args = 0, pretend = 0, frame = 0
 113              		@ frame_needed = 0, uses_anonymous_args = 0
 114              		@ link register save eliminated.
ARM GAS  /var/folders/6q/x_mk5n_j3p7_c40r_2k_78980000gn/T//cc0VacPJ.s 			page 3


 115              		.loc 1 218 0
 116 0000 0149     		ldr	r1, .L11
 117 0002 0248     		ldr	r0, .L11+4
 118 0004 FFF7FEBF 		b	extStart
 119              	.LVL6:
 120              	.L12:
 121              		.align	2
 122              	.L11:
 123 0008 00000000 		.word	.LANCHOR0
 124 000c 00000000 		.word	EXTD1
 125              		.cfi_endproc
 126              	.LFE64:
 127              		.size	vexExtIrqInit, .-vexExtIrqInit
 128              		.section	.data.vexExtCfg,"aw",%progbits
 129              		.align	2
 130              		.set	.LANCHOR0,. + 0
 131              		.type	vexExtCfg, %object
 132              		.size	vexExtCfg, 152
 133              	vexExtCfg:
 134 0000 30000000 		.word	48
 135 0004 00000000 		.word	0
 136 0008 30000000 		.word	48
 137 000c 00000000 		.word	0
 138 0010 00000000 		.word	0
 139 0014 00000000 		.word	0
 140 0018 00000000 		.word	0
 141 001c 00000000 		.word	0
 142 0020 00000000 		.word	0
 143 0024 00000000 		.word	0
 144 0028 00000000 		.word	0
 145 002c 00000000 		.word	0
 146 0030 20000000 		.word	32
 147 0034 00000000 		.word	0
 148 0038 20000000 		.word	32
 149 003c 00000000 		.word	0
 150 0040 40000000 		.word	64
 151 0044 00000000 		.word	0
 152 0048 40000000 		.word	64
 153 004c 00000000 		.word	0
 154 0050 40000000 		.word	64
 155 0054 00000000 		.word	0
 156 0058 40000000 		.word	64
 157 005c 00000000 		.word	0
 158 0060 40000000 		.word	64
 159 0064 00000000 		.word	0
 160 0068 40000000 		.word	64
 161 006c 00000000 		.word	0
 162 0070 40000000 		.word	64
 163 0074 00000000 		.word	0
 164 0078 00000000 		.word	0
 165 007c 00000000 		.word	0
 166 0080 00000000 		.space	24
 166      00000000 
 166      00000000 
 166      00000000 
 166      00000000 
 167              		.text
ARM GAS  /var/folders/6q/x_mk5n_j3p7_c40r_2k_78980000gn/T//cc0VacPJ.s 			page 4


 168              	.Letext0:
 169              		.file 2 "/Users/Luca/src/vexilla/src/gcc-arm-none-eabi-5_4-2016q3/arm-none-eabi/include/machine/_d
 170              		.file 3 "/Users/Luca/src/vexilla/src/gcc-arm-none-eabi-5_4-2016q3/arm-none-eabi/include/sys/_stdin
 171              		.file 4 "../ChibiOS/os/hal/platforms/STM32F1xx/stm32f10x.h"
 172              		.file 5 "../ChibiOS/os/hal/platforms/STM32/GPIOv1/pal_lld.h"
 173              		.file 6 "../ChibiOS/os/hal/include/ext.h"
 174              		.file 7 "../ChibiOS/os/hal/platforms/STM32/ext_lld.h"
 175              		.file 8 "../convex-vexilla/cortex/fw/vexdigital.h"
 176              		.file 9 "../convex-vexilla/cortex/fw/vexime.h"
 177              		.file 10 "../ChibiOS/os/ports/common/ARMCMx/CMSIS/include/core_cm3.h"