ARM GAS  /var/folders/6q/x_mk5n_j3p7_c40r_2k_78980000gn/T//ccZUHTwE.s 			page 1


   1              		.syntax unified
   2              		.cpu cortex-m3
   3              		.fpu softvfp
   4              		.eabi_attribute 20, 1
   5              		.eabi_attribute 21, 1
   6              		.eabi_attribute 23, 3
   7              		.eabi_attribute 24, 1
   8              		.eabi_attribute 25, 1
   9              		.eabi_attribute 26, 1
  10              		.eabi_attribute 30, 2
  11              		.eabi_attribute 34, 1
  12              		.eabi_attribute 18, 4
  13              		.thumb
  14              		.syntax unified
  15              		.file	"vexflash.c"
  16              		.text
  17              	.Ltext0:
  18              		.cfi_sections	.debug_frame
  19              		.section	.text.vexFlashUserParamRead,"ax",%progbits
  20              		.align	2
  21              		.p2align 4,,15
  22              		.global	vexFlashUserParamRead
  23              		.thumb
  24              		.thumb_func
  25              		.type	vexFlashUserParamRead, %function
  26              	vexFlashUserParamRead:
  27              	.LFB64:
  28              		.file 1 "../convex-vexilla/cortex/opt/vexflash.c"
  29              		.loc 1 106 0
  30              		.cfi_startproc
  31              		@ args = 0, pretend = 0, frame = 0
  32              		@ frame_needed = 0, uses_anonymous_args = 0
  33              		@ link register save eliminated.
  34              	.LVL0:
  35 0000 10B4     		push	{r4}
  36              		.cfi_def_cfa_offset 4
  37              		.cfi_offset 4, -4
  38              	.LBB6:
  39              	.LBB7:
  40              		.loc 1 84 0
  41 0002 184B     		ldr	r3, .L18
  42              		.loc 1 87 0
  43 0004 184C     		ldr	r4, .L18+4
  44              		.loc 1 79 0
  45 0006 4FF0FF32 		mov	r2, #-1
  46 000a 02E0     		b	.L3
  47              	.LVL1:
  48              	.L16:
  49              		.loc 1 87 0
  50 000c A342     		cmp	r3, r4
  51 000e 02B2     		sxth	r2, r0
  52              	.LVL2:
  53 0010 25D0     		beq	.L15
  54              	.LVL3:
  55              	.L3:
  56              		.loc 1 89 0
  57 0012 53F8041B 		ldr	r1, [r3], #4
ARM GAS  /var/folders/6q/x_mk5n_j3p7_c40r_2k_78980000gn/T//ccZUHTwE.s 			page 2


  58              	.LVL4:
  59 0016 501C     		adds	r0, r2, #1
  60 0018 0131     		adds	r1, r1, #1
  61 001a F7D1     		bne	.L16
  62              	.LVL5:
  63              	.LBE7:
  64              	.LBE6:
  65              		.loc 1 111 0
  66 001c 1348     		ldr	r0, .L18+8
  67              		.loc 1 113 0
  68 001e 531C     		adds	r3, r2, #1
  69              		.loc 1 111 0
  70 0020 0262     		str	r2, [r0, #32]
  71              		.loc 1 113 0
  72 0022 0FD0     		beq	.L17
  73              	.L5:
  74              		.loc 1 125 0
  75 0024 124B     		ldr	r3, .L18+12
  76 0026 1349     		ldr	r1, .L18+16
  77 0028 1344     		add	r3, r3, r2
  78 002a 5B01     		lsls	r3, r3, #5
  79              	.LVL6:
  80              		.loc 1 128 0
  81 002c 4362     		str	r3, [r0, #36]
  82              	.LVL7:
  83 002e 03F12000 		add	r0, r3, #32
  84              	.LVL8:
  85              	.L7:
  86              		.loc 1 132 0 discriminator 3
  87 0032 53F8042B 		ldr	r2, [r3], #4
  88              	.LVL9:
  89              		.loc 1 131 0 discriminator 3
  90 0036 9842     		cmp	r0, r3
  91              		.loc 1 132 0 discriminator 3
  92 0038 41F8042F 		str	r2, [r1, #4]!
  93              	.LVL10:
  94              		.loc 1 131 0 discriminator 3
  95 003c F9D1     		bne	.L7
  96              		.loc 1 136 0
  97 003e 0B48     		ldr	r0, .L18+8
  98 0040 10BC     		pop	{r4}
  99              		.cfi_remember_state
 100              		.cfi_restore 4
 101              		.cfi_def_cfa_offset 0
 102 0042 7047     		bx	lr
 103              	.LVL11:
 104              	.L17:
 105              		.cfi_restore_state
 106              		.loc 1 120 0 discriminator 1
 107 0044 0023     		movs	r3, #0
 108              		.loc 1 117 0 discriminator 1
 109 0046 0260     		str	r2, [r0]
 110              	.LVL12:
 111 0048 4260     		str	r2, [r0, #4]
 112              	.LVL13:
 113 004a 8260     		str	r2, [r0, #8]
 114              	.LVL14:
ARM GAS  /var/folders/6q/x_mk5n_j3p7_c40r_2k_78980000gn/T//ccZUHTwE.s 			page 3


 115 004c C260     		str	r2, [r0, #12]
 116              	.LVL15:
 117 004e 0261     		str	r2, [r0, #16]
 118              	.LVL16:
 119 0050 4261     		str	r2, [r0, #20]
 120              	.LVL17:
 121 0052 8261     		str	r2, [r0, #24]
 122              	.LVL18:
 123 0054 C261     		str	r2, [r0, #28]
 124              	.LVL19:
 125              		.loc 1 120 0 discriminator 1
 126 0056 4362     		str	r3, [r0, #36]
 127              		.loc 1 136 0 discriminator 1
 128 0058 10BC     		pop	{r4}
 129              		.cfi_remember_state
 130              		.cfi_restore 4
 131              		.cfi_def_cfa_offset 0
 132 005a 0448     		ldr	r0, .L18+8
 133 005c 7047     		bx	lr
 134              	.LVL20:
 135              	.L15:
 136              		.cfi_restore_state
 137              		.loc 1 111 0
 138 005e 0348     		ldr	r0, .L18+8
 139 0060 0262     		str	r2, [r0, #32]
 140 0062 DFE7     		b	.L5
 141              	.L19:
 142              		.align	2
 143              	.L18:
 144 0064 00F00508 		.word	134606848
 145 0068 00F10508 		.word	134607104
 146 006c 00000000 		.word	.LANCHOR0
 147 0070 882F4000 		.word	4206472
 148 0074 FCFFFFFF 		.word	.LANCHOR0-4
 149              		.cfi_endproc
 150              	.LFE64:
 151              		.size	vexFlashUserParamRead, .-vexFlashUserParamRead
 152              		.section	.text.vexFlashUserParamWrite,"ax",%progbits
 153              		.align	2
 154              		.p2align 4,,15
 155              		.global	vexFlashUserParamWrite
 156              		.thumb
 157              		.thumb_func
 158              		.type	vexFlashUserParamWrite, %function
 159              	vexFlashUserParamWrite:
 160              	.LFB65:
 161              		.loc 1 146 0
 162              		.cfi_startproc
 163              		@ args = 0, pretend = 0, frame = 8
 164              		@ frame_needed = 0, uses_anonymous_args = 0
 165              	.LVL21:
 166 0000 F0B5     		push	{r4, r5, r6, r7, lr}
 167              		.cfi_def_cfa_offset 20
 168              		.cfi_offset 4, -20
 169              		.cfi_offset 5, -16
 170              		.cfi_offset 6, -12
 171              		.cfi_offset 7, -8
ARM GAS  /var/folders/6q/x_mk5n_j3p7_c40r_2k_78980000gn/T//ccZUHTwE.s 			page 4


 172              		.cfi_offset 14, -4
 173              		.loc 1 155 0
 174 0002 0423     		movs	r3, #4
 175              		.loc 1 146 0
 176 0004 83B0     		sub	sp, sp, #12
 177              		.cfi_def_cfa_offset 32
 178              		.loc 1 155 0
 179 0006 8DF80730 		strb	r3, [sp, #7]
 180              		.loc 1 159 0
 181 000a 0028     		cmp	r0, #0
 182 000c 5FD0     		beq	.L28
 183              		.loc 1 163 0
 184 000e 314A     		ldr	r2, .L40
 185 0010 B2F90030 		ldrsh	r3, [r2]
 186 0014 1F2B     		cmp	r3, #31
 187 0016 54DC     		bgt	.L29
 188              		.loc 1 167 0
 189 0018 0133     		adds	r3, r3, #1
 190 001a 1380     		strh	r3, [r2]	@ movhi
 191 001c 0646     		mov	r6, r0
 192              		.loc 1 170 0
 193 001e FFF7FEFF 		bl	FLASH_UnlockBank1
 194              	.LVL22:
 195              		.loc 1 173 0
 196 0022 3420     		movs	r0, #52
 197 0024 FFF7FEFF 		bl	FLASH_ClearFlag
 198              	.LVL23:
 199              	.LBB8:
 200              	.LBB9:
 201              		.loc 1 87 0
 202 0028 2B4D     		ldr	r5, .L40+4
 203              		.loc 1 84 0
 204 002a 2C4B     		ldr	r3, .L40+8
 205              		.loc 1 79 0
 206 002c 4FF0FF32 		mov	r2, #-1
 207 0030 02E0     		b	.L23
 208              	.LVL24:
 209              	.L39:
 210              		.loc 1 87 0
 211 0032 AB42     		cmp	r3, r5
 212 0034 22B2     		sxth	r2, r4
 213              	.LVL25:
 214 0036 04D0     		beq	.L22
 215              	.LVL26:
 216              	.L23:
 217              		.loc 1 89 0
 218 0038 53F8041B 		ldr	r1, [r3], #4
 219              	.LVL27:
 220 003c 541C     		adds	r4, r2, #1
 221 003e 0131     		adds	r1, r1, #1
 222 0040 F7D1     		bne	.L39
 223              	.LVL28:
 224              	.L22:
 225              	.LBE9:
 226              	.LBE8:
 227              		.loc 1 179 0
 228 0042 531C     		adds	r3, r2, #1
ARM GAS  /var/folders/6q/x_mk5n_j3p7_c40r_2k_78980000gn/T//ccZUHTwE.s 			page 5


 229              		.loc 1 182 0
 230 0044 372B     		cmp	r3, #55
 231              		.loc 1 179 0
 232 0046 3362     		str	r3, [r6, #32]
 233              		.loc 1 182 0
 234 0048 2ADC     		bgt	.L24
 235 004a 254D     		ldr	r5, .L40+12
 236 004c 1544     		add	r5, r5, r2
 237 004e 6D01     		lsls	r5, r5, #5
 238 0050 2B46     		mov	r3, r5
 239              	.L25:
 240              	.LVL29:
 241              		.loc 1 202 0
 242 0052 3446     		mov	r4, r6
 243              		.loc 1 199 0
 244 0054 7362     		str	r3, [r6, #36]
 245              	.LVL30:
 246 0056 AD1B     		subs	r5, r5, r6
 247 0058 06F12007 		add	r7, r6, #32
 248              	.LVL31:
 249              	.L27:
 250 005c 6019     		adds	r0, r4, r5
 251              	.LVL32:
 252              		.loc 1 205 0
 253 005e 54F8041B 		ldr	r1, [r4], #4
 254              	.LVL33:
 255 0062 FFF7FEFF 		bl	FLASH_ProgramWord
 256              	.LVL34:
 257 0066 8DF80700 		strb	r0, [sp, #7]
 258              		.loc 1 211 0
 259 006a 9DF80730 		ldrb	r3, [sp, #7]	@ zero_extendqisi2
 260 006e 042B     		cmp	r3, #4
 261 0070 24D1     		bne	.L31
 262              		.loc 1 202 0 discriminator 2
 263 0072 BC42     		cmp	r4, r7
 264 0074 F2D1     		bne	.L27
 265              		.loc 1 150 0
 266 0076 0124     		movs	r4, #1
 267              	.LVL35:
 268              	.L26:
 269              		.loc 1 220 0
 270 0078 306A     		ldr	r0, [r6, #32]
 271 007a 0021     		movs	r1, #0
 272 007c 00F10070 		add	r0, r0, #33554432
 273 0080 00F5BE30 		add	r0, r0, #97280
 274 0084 8000     		lsls	r0, r0, #2
 275 0086 FFF7FEFF 		bl	FLASH_ProgramWord
 276              	.LVL36:
 277 008a 8DF80700 		strb	r0, [sp, #7]
 278              		.loc 1 223 0
 279 008e 9DF80730 		ldrb	r3, [sp, #7]	@ zero_extendqisi2
 280 0092 042B     		cmp	r3, #4
 281 0094 0CBF     		ite	eq
 282 0096 2046     		moveq	r0, r4
 283 0098 4FF0FF30 		movne	r0, #-1
 284              	.LVL37:
 285              	.L21:
ARM GAS  /var/folders/6q/x_mk5n_j3p7_c40r_2k_78980000gn/T//ccZUHTwE.s 			page 6


 286              		.loc 1 227 0
 287 009c 03B0     		add	sp, sp, #12
 288              		.cfi_remember_state
 289              		.cfi_def_cfa_offset 20
 290              		@ sp needed
 291 009e F0BD     		pop	{r4, r5, r6, r7, pc}
 292              	.LVL38:
 293              	.L24:
 294              		.cfi_restore_state
 295              		.loc 1 185 0
 296 00a0 0E48     		ldr	r0, .L40+8
 297 00a2 FFF7FEFF 		bl	FLASH_ErasePage
 298              	.LVL39:
 299 00a6 8DF80700 		strb	r0, [sp, #7]
 300              		.loc 1 188 0
 301 00aa 9DF80730 		ldrb	r3, [sp, #7]	@ zero_extendqisi2
 302 00ae 042B     		cmp	r3, #4
 303 00b0 0AD1     		bne	.L30
 304              		.loc 1 192 0
 305 00b2 094B     		ldr	r3, .L40+4
 306 00b4 0022     		movs	r2, #0
 307 00b6 1D46     		mov	r5, r3
 308 00b8 3262     		str	r2, [r6, #32]
 309 00ba CAE7     		b	.L25
 310              	.LVL40:
 311              	.L31:
 312              		.loc 1 213 0
 313 00bc 4FF0FF34 		mov	r4, #-1
 314              	.LVL41:
 315 00c0 DAE7     		b	.L26
 316              	.LVL42:
 317              	.L29:
 318              		.loc 1 164 0
 319 00c2 6FF00100 		mvn	r0, #1
 320              	.LVL43:
 321 00c6 E9E7     		b	.L21
 322              	.LVL44:
 323              	.L30:
 324              		.loc 1 189 0
 325 00c8 6FF00200 		mvn	r0, #2
 326 00cc E6E7     		b	.L21
 327              	.LVL45:
 328              	.L28:
 329              		.loc 1 160 0
 330 00ce 6FF00400 		mvn	r0, #4
 331              	.LVL46:
 332 00d2 E3E7     		b	.L21
 333              	.L41:
 334              		.align	2
 335              	.L40:
 336 00d4 00000000 		.word	.LANCHOR1
 337 00d8 00F10508 		.word	134607104
 338 00dc 00F00508 		.word	134606848
 339 00e0 892F4000 		.word	4206473
 340              		.cfi_endproc
 341              	.LFE65:
 342              		.size	vexFlashUserParamWrite, .-vexFlashUserParamWrite
ARM GAS  /var/folders/6q/x_mk5n_j3p7_c40r_2k_78980000gn/T//ccZUHTwE.s 			page 7


 343              		.section	.text.vexFlashUserParamInit,"ax",%progbits
 344              		.align	2
 345              		.p2align 4,,15
 346              		.global	vexFlashUserParamInit
 347              		.thumb
 348              		.thumb_func
 349              		.type	vexFlashUserParamInit, %function
 350              	vexFlashUserParamInit:
 351              	.LFB66:
 352              		.loc 1 236 0
 353              		.cfi_startproc
 354              		@ args = 0, pretend = 0, frame = 8
 355              		@ frame_needed = 0, uses_anonymous_args = 0
 356 0000 00B5     		push	{lr}
 357              		.cfi_def_cfa_offset 4
 358              		.cfi_offset 14, -4
 359              		.loc 1 240 0
 360 0002 0F4B     		ldr	r3, .L47
 361              		.loc 1 236 0
 362 0004 83B0     		sub	sp, sp, #12
 363              		.cfi_def_cfa_offset 16
 364              		.loc 1 240 0
 365 0006 B3F90020 		ldrsh	r2, [r3]
 366              		.loc 1 238 0
 367 000a 0421     		movs	r1, #4
 368 000c 8DF80710 		strb	r1, [sp, #7]
 369              		.loc 1 240 0
 370 0010 92B9     		cbnz	r2, .L44
 371              		.loc 1 243 0
 372 0012 0122     		movs	r2, #1
 373 0014 1A80     		strh	r2, [r3]	@ movhi
 374              		.loc 1 246 0
 375 0016 FFF7FEFF 		bl	FLASH_UnlockBank1
 376              	.LVL47:
 377              		.loc 1 249 0
 378 001a 0A48     		ldr	r0, .L47+4
 379 001c FFF7FEFF 		bl	FLASH_ErasePage
 380              	.LVL48:
 381 0020 8DF80700 		strb	r0, [sp, #7]
 382              		.loc 1 252 0
 383 0024 9DF80730 		ldrb	r3, [sp, #7]	@ zero_extendqisi2
 384 0028 042B     		cmp	r3, #4
 385              		.loc 1 260 0
 386 002a 14BF     		ite	ne
 387 002c 6FF00200 		mvnne	r0, #2
 388 0030 0120     		moveq	r0, #1
 389              	.L43:
 390              		.loc 1 261 0
 391 0032 03B0     		add	sp, sp, #12
 392              		.cfi_remember_state
 393              		.cfi_def_cfa_offset 4
 394              		@ sp needed
 395 0034 5DF804FB 		ldr	pc, [sp], #4
 396              	.L44:
 397              		.cfi_restore_state
 398              		.loc 1 257 0
 399 0038 6FF00300 		mvn	r0, #3
ARM GAS  /var/folders/6q/x_mk5n_j3p7_c40r_2k_78980000gn/T//ccZUHTwE.s 			page 8


 400 003c F9E7     		b	.L43
 401              	.L48:
 402 003e 00BF     		.align	2
 403              	.L47:
 404 0040 00000000 		.word	.LANCHOR2
 405 0044 00F00508 		.word	134606848
 406              		.cfi_endproc
 407              	.LFE66:
 408              		.size	vexFlashUserParamInit, .-vexFlashUserParamInit
 409              		.section	.bss.erase_done.7546,"aw",%nobits
 410              		.align	1
 411              		.set	.LANCHOR2,. + 0
 412              		.type	erase_done.7546, %object
 413              		.size	erase_done.7546, 2
 414              	erase_done.7546:
 415 0000 0000     		.space	2
 416              		.section	.bss.params,"aw",%nobits
 417              		.align	2
 418              		.set	.LANCHOR0,. + 0
 419              		.type	params, %object
 420              		.size	params, 40
 421              	params:
 422 0000 00000000 		.space	40
 422      00000000 
 422      00000000 
 422      00000000 
 422      00000000 
 423              		.section	.bss.user_param_write_limit.7539,"aw",%nobits
 424              		.align	1
 425              		.set	.LANCHOR1,. + 0
 426              		.type	user_param_write_limit.7539, %object
 427              		.size	user_param_write_limit.7539, 2
 428              	user_param_write_limit.7539:
 429 0000 0000     		.space	2
 430              		.text
 431              	.Letext0:
 432              		.file 2 "/Users/Luca/src/vexilla/src/gcc-arm-none-eabi-5_4-2016q3/arm-none-eabi/include/machine/_d
 433              		.file 3 "/Users/Luca/src/vexilla/src/gcc-arm-none-eabi-5_4-2016q3/arm-none-eabi/include/sys/_stdin
 434              		.file 4 "../convex-vexilla/cortex/fw/vexdigital.h"
 435              		.file 5 "../convex-vexilla/cortex/fw/vexime.h"
 436              		.file 6 "../convex-vexilla/cortex/opt/stm32f10x_flash.h"
 437              		.file 7 "../convex-vexilla/cortex/opt/vexflash.h"
 438              		.file 8 "../ChibiOS/os/ports/common/ARMCMx/CMSIS/include/core_cm3.h"