ARM GAS  /var/folders/6q/x_mk5n_j3p7_c40r_2k_78980000gn/T//ccZUHTwE.s 			page 1


   1              		.syntax unified
   2              		.cpu cortex-m3
   3              		.fpu softvfp
   4              		.eabi_attribute 20, 1
   5              		.eabi_attribute 21, 1
   6              		.eabi_attribute 23, 3
   7              		.eabi_attribute 24, 1
   8              		.eabi_attribute 25, 1
   9              		.eabi_attribute 26, 1
  10              		.eabi_attribute 30, 2
  11              		.eabi_attribute 34, 1
  12              		.eabi_attribute 18, 4
  13              		.thumb
  14              		.syntax unified
  15              		.file	"vexflash.c"
  16              		.text
  17              	.Ltext0:
  18              		.cfi_sections	.debug_frame
  19              		.section	.text.vexFlashUserParamRead,"ax",%progbits
  20              		.align	2
  21              		.p2align 4,,15
  22              		.global	vexFlashUserParamRead
  23              		.thumb
  24              		.thumb_func
  25              		.type	vexFlashUserParamRead, %function
  26              	vexFlashUserParamRead:
  27              	.LFB64:
  28              		.file 1 "../convex-vexilla/cortex/opt/vexflash.c"
  29              		.loc 1 106 0
  30              		.cfi_startproc
  31              		@ args = 0, pretend = 0, frame = 0
  32              		@ frame_needed = 0, uses_anonymous_args = 0
  33              		@ link register save eliminated.
  34              	.LVL0:
  35 0000 10B4     		push	{r4}
  36              		.cfi_def_cfa_offset 4
  37              		.cfi_offset 4, -4
  38              	.LBB6:
  39              	.LBB7:
  40              		.loc 1 84 0
  41 0002 184B     		ldr	r3, .L18
  42              		.loc 1 87 0
  43 0004 184C     		ldr	r4, .L18+4
  44              		.loc 1 79 0
  45 0006 4FF0FF32 		mov	r2, #-1
  46 000a 02E0     		b	.L3
  47              	.LVL1:
  48              	.L16:
  49              		.loc 1 87 0
  50 000c A342     		cmp	r3, r4
  51 000e 02B2     		sxth	r2, r0
  52              	.LVL2:
  53 0010 25D0     		beq	.L15
  54              	.LVL3:
  55              	.L3:
  56              		.loc 1 89 0
  57 0012 53F8041B 		ldr	r1, [r3], #4
ARM GAS  /var/folders/6q/x_mk5n_j3p7_c40r_2k_78980000gn/T//ccZUHTwE.s 			page 2


  58              	.LVL4:
  59 0016 501C     		adds	r0, r2, #1
  60 0018 0131     		adds	r1, r1, #1
  61 001a F7D1     		bne	.L16
  62              	.LVL5:
  63              	.LBE7:
  64              	.LBE6:
  65              		.loc 1 111 0
  66 001c 1348     		ldr	r0, .L18+8
  67              		.loc 1 113 0
  68 001e 531C     		adds	r3, r2, #1
  69              		.loc 1 111 0
  70 0020 0262     		str	r2, [r0, #32]
  71              		.loc 1 113 0
  72 0022 0FD0     		beq	.L17
  73              	.L5:
  74              		.loc 1 125 0
  75 0024 124B     		ldr	r3, .L18+12
  76 0026 1349     		ldr	r1, .L18+16
  77 0028 1344     		add	r3, r3, r2
  78 002a 5B01     		lsls	r3, r3, #5
  79              	.LVL6:
  80              		.loc 1 128 0
  81 002c 4362     		str	r3, [r0, #36]
  82              	.LVL7:
  83 002e 03F12000 		add	r0, r3, #32
  84              	.LVL8:
  85              	.L7:
  86              		.loc 1 132 0 discriminator 3
  87 0032 53F8042B 		ldr	r2, [r3], #4
  88              	.LVL9:
  89              		.loc 1 131 0 discriminator 3
  90 0036 9842     		cmp	r0, r3
  91              		.loc 1 132 0 discriminator 3
  92 0038 41F8042F 		str	r2, [r1, #4]!
  93              	.LVL10:
  94              		.loc 1 131 0 discriminator 3
  95 003c F9D1     		bne	.L7
  96              		.loc 1 136 0
  97 003e 0B48     		ldr	r0, .L18+8
  98 0040 10BC     		pop	{r4}
  99              		.cfi_remember_state
 100              		.cfi_restore 4
 101              		.cfi_def_cfa_offset 0
 102 0042 7047     		bx	lr
 103              	.LVL11:
 104              	.L17:
 105              		.cfi_restore_state
 106              		.loc 1 120 0 discriminator 1
 107 0044 0023     		movs	r3, #0
 108              		.loc 1 117 0 discriminator 1
 109 0046 0260     		str	r2, [r0]
 110              	.LVL12:
 111 0048 4260     		str	r2, [r0, #4]
 112              	.LVL13:
 113 004a 8260     		str	r2, [r0, #8]
 114              	.LVL14:
ARM GAS  /var/folders/6q/x_mk5n_j3p7_c40r_2k_78980000gn/T//ccZUHTwE.s 			page 3


 115 004c C260     		str	r2, [r0, #12]
 116              	.LVL15:
 117 004e 0261     		str	r2, [r0, #16]
 118              	.LVL16:
 119 0050 4261     		str	r2, [r0, #20]
 120              	.LVL17:
 121 0052 8261     		str	r2, [r0, #24]
 122              	.LVL18:
 123 0054 C261     		str	r2, [r0, #28]
 124              	.LVL19:
 125              		.loc 1 120 0 discriminator 1
 126 0056 4362     		str	r3, [r0, #36]
 127              		.loc 1 136 0 discriminator 1
 128 0058 10BC     		pop	{r4}
 129              		.cfi_remember_state
 130              		.cfi_restore 4
 131              		.cfi_def_cfa_offset 0
 132 005a 0448     		ldr	r0, .L18+8
 133 005c 7047     		bx	lr
 134              	.LVL20:
 135              	.L15:
 136              		.cfi_restore_state
 137              		.loc 1 111 0
 138 005e 0348     		ldr	r0, .L18+8
 139 0060 0262     		str	r2, [r0, #32]
 140 0062 DFE7     		b	.L5
 141              	.L19:
 142              		.align	2
 143              	.L18:
 144 0064 00F00508 		.word	134606848
 145 0068 00F10508 		.word	134607104
 146 006c 00000000 		.word	.LANCHOR0
 147 0070 882F4000 		.word	4206472
 148 0074 FCFFFFFF 		.word	.LANCHOR0-4
 149              		.cfi_endproc
 150              	.LFE64:
 151              		.size	vexFlashUserParamRead, .-vexFlashUserParamRead
 152              		.section	.text.vexFlashUserParamWrite,"ax",%progbits
 153              		.align	2
 154              		.p2align 4,,15
 155              		.global	vexFlashUserParamWrite
 156              		.thumb
 157              		.thumb_func
 158              		.type	vexFlashUserParamWrite, %function
 159              	vexFlashUserParamWrite:
 160              	.LFB65:
 161              		.loc 1 146 0
 162              		.cfi_startproc
 163              		@ args = 0, pretend = 0, frame = 8
 164              		@ frame_needed = 0, uses_anonymous_args = 0
 165              	.LVL21:
 166 0000 F0B5     		push	{r4, r5, r6, r7, lr}
 167              		.cfi_def_cfa_offset 20
 168              		.cfi_offset 4, -20
 169              		.cfi_offset 5, -16
 170              		.cfi_offset 6, -12
 171              		.cfi_offset 7, -8
ARM GAS  /var/folders/6q/x_mk5n_j3p7_c40r_2k_78980000gn/T//ccZUHTwE.s 			page 4


 172              		.cfi_offset 14, -4
 173              		.loc 1 155 0
 174 0002 0423     		movs	r3, #4
 175              		.loc 1 146 0
 176 0004 83B0     		sub	sp, sp, #12
 177              		.cfi_def_cfa_offset 32
 178              		.loc 1 155 0
 179 0006 8DF80730 		strb	r3, [sp, #7]
 180              		.loc 1 159 0
 181 000a 0028     		cmp	r0, #0
 182 000c 5FD0     		beq	.L28
 183              		.loc 1 163 0
 184 000e 314A     		ldr	r2, .L40
 185 0010 B2F90030 		ldrsh	r3, [r2]
 186 0014 1F2B     		cmp	r3, #31
 187 0016 54DC     		bgt	.L29
 188              		.loc 1 167 0
 189 0018 0133     		adds	r3, r3, #1
 190 001a 1380     		strh	r3, [r2]	@ movhi
 191 001c 0646     		mov	r6, r0
 192              		.loc 1 170 0
 193 001e FFF7FEFF 		bl	FLASH_UnlockBank1
 194              	.LVL22:
 195              		.loc 1 173 0
 196 0022 3420     		movs	r0, #52
 197 0024 FFF7FEFF 		bl	FLASH_ClearFlag
 198              	.LVL23:
 199              	.LBB8:
 200              	.LBB9:
 201              		.loc 1 87 0
 202 0028 2B4D     		ldr	r5, .L40+4
 203              		.loc 1 84 0
 204 002a 2C4B     		ldr	r3, .L40+8
 205              		.loc 1 79 0
 206 002c 4FF0FF32 		mov	r2, #-1
 207 0030 02E0     		b	.L23
 208              	.LVL24:
 209              	.L39:
 210              		.loc 1 87 0
 211 0032 AB42     		cmp	r3, r5
 212 0034 22B2     		sxth	r2, r4
 213              	.LVL25:
 214 0036 04D0     		beq	.L22
 215              	.LVL26:
 216              	.L23:
 217              		.loc 1 89 0
 218 0038 53F8041B 		ldr	r1, [r3], #4
 219              	.LVL27:
 220 003c 541C     		adds	r4, r2, #1
 221 003e 0131     		adds	r1, r1, #1
 222 0040 F7D1     		bne	.L39
 223              	.LVL28:
 224              	.L22:
 225              	.LBE9:
 226              	.LBE8:
 227              		.loc 1 179 0
 228 0042 531C     		adds	r3, r2, #1
ARM GAS  /var/folders/6q/x_mk5n_j3p7_c40r_2k_78980000gn/T//ccZUHTwE.s 			page 5


 229              		.loc 1 182 0
 230 0044 372B     		cmp	r3, #55
 231              		.loc 1 179 0
 232 0046 3362     		str	r3, [r6, #32]
 233              		.loc 1 182 0
 234 0048 2ADC     		bgt	.L24
 235 004a 254D     		ldr	r5, .L40+12
 236 004c 1544     		add	r5, r5, r2
 237 004e 6D01     		lsls	r5, r5, #5
 238 0050 2B46     		mov	r3, r5
 239              	.L25:
 240              	.LVL29:
 241              		.loc 1 202 0
 242 0052 3446     		mov	r4, r6
 243              		.loc 1 199 0
 244 0054 7362     		str	r3, [r6, #36]
 245              	.LVL30:
 246 0056 AD1B     		subs	r5, r5, r6
 247 0058 06F12007 		add	r7, r6, #32
 248              	.LVL31:
 249              	.L27:
 250 005c 6019     		adds	r0, r4, r5
 251              	.LVL32:
 252              		.loc 1 205 0
 253 005e 54F8041B 		ldr	r1, [r4], #4
 254              	.LVL33:
 255 0062 FFF7FEFF 		bl	FLASH_ProgramWord
 256              	.LVL34:
 257 0066 8DF80700 		strb	r0, [sp, #7]
 258              		.loc 1 211 0
 259 006a 9DF80730 		ldrb	r3, [sp, #7]	@ zero_extendqisi2
 260 006e 042B     		cmp	r3, #4
 261 0070 24D1     		bne	.L31
 262              		.loc 1 202 0 discriminator 2
 263 0072 BC42     		cmp	r4, r7
 264 0074 F2D1     		bne	.L27
 265              		.loc 1 150 0
 266 0076 0124     		movs	r4, #1
 267              	.LVL35:
 268              	.L26:
 269              		.loc 1 220 0
 270 0078 306A     		ldr	r0, [r6, #32]
 271 007a 0021     		movs	r1, #0
 272 007c 00F10070 		add	r0, r0, #33554432
 273 0080 00F5BE30 		add	r0, r0, #97280
 274 0084 8000     		lsls	r0, r0, #2
 275 0086 FFF7FEFF 		bl	FLASH_ProgramWord
 276              	.LVL36:
 277 008a 8DF80700 		strb	r0, [sp, #7]
 278              		.loc 1 223 0
 279 008e 9DF80730 		ldrb	r3, [sp, #7]	@ zero_extendqisi2
 280 0092 042B     		cmp	r3, #4
 281 0094 0CBF     		ite	eq
 282 0096 2046     		moveq	r0, r4
 283 0098 4FF0FF30 		movne	r0, #-1
 284              	.LVL37:
 285              	.L21:
ARM GAS  /var/folders/6q/x_mk5n_j3p7_c40r_2k_78980000gn/T//ccZUHTwE.s 			page 6


 286              		.loc 1 227 0
 287 009c 03B0     		add	sp, sp, #12
 288              		.cfi_remember_state
 289              		.cfi_def_cfa_offset 20
 290              		@ sp needed
 291 009e F0BD     		pop	{r4, r5, r6, r7, pc}
 292              	.LVL38:
 293              	.L24:
 294              		.cfi_restore_state
 295              		.loc 1 185 0
 296 00a0 0E48     		ldr	r0, .L40+8
 297 00a2 FFF7FEFF 		bl	FLASH_ErasePage
 298              	.LVL39:
 299 00a6 8DF80700 		strb	r0, [sp, #7]
 300              		.loc 1 188 0
 301 00aa 9DF80730 		ldrb	r3, [sp, #7]	@ zero_extendqisi2
 302 00ae 042B     		cmp	r3, #4
 303 00b0 0AD1     		bne	.L30
 304              		.loc 1 192 0
 305 00b2 094B     		ldr	r3, .L40+4
 306 00b4 0022     		movs	r2, #0
 307 00b6 1D46     		mov	r5, r3
 308 00b8 3262     		str	r2, [r6, #32]
 309 00ba CAE7     		b	.L25
 310              	.LVL40:
 311              	.L31:
 312              		.loc 1 213 0
 313 00bc 4FF0FF34 		mov	r4, #-1
 314              	.LVL41:
 315 00c0 DAE7     		b	.L26
 316              	.LVL42:
 317              	.L29:
 318              		.loc 1 164 0
 319 00c2 6FF00100 		mvn	r0, #1
 320              	.LVL43:
 321 00c6 E9E7     		b	.L21
 322              	.LVL44:
 323              	.L30:
 324              		.loc 1 189 0
 325 00c8 6FF00200 		mvn	r0, #2
 326 00cc E6E7     		b	.L21
 327              	.LVL45:
 328              	.L28:
 329              		.loc 1 160 0
 330 00ce 6FF00400 		mvn	r0, #4
 331              	.LVL46:
 332 00d2 E3E7     		b	.L21
 333              	.L41:
 334              		.align	2
 335              	.L40:
 336 00d4 00000000 		.word	.LANCHOR1
 337 00d8 00F10508 		.word	134607104
 338 00dc 00F00508 		.word	134606848
 339 00e0 892F4000 		.word	4206473
 340              		.cfi_endproc
 341              	.LFE65:
 342              		.size	vexFlashUserParamWrite, .-vexFlashUserParamWrite
ARM GAS  /var/folders/6q/x_mk5n_j3p7_c40r_2k_78980000gn/T//ccZUHTwE.s 			page 7


 343              		.section	.text.vexFlashUserParamInit,"ax",%progbits
 344              		.align	2
 345              		.p2align 4,,15
 346              		.global	vexFlashUserParamInit
 347              		.thumb
 348              		.thumb_func
 349              		.type	vexFlashUserParamInit, %function
 350              	vexFlashUserParamInit:
 351              	.LFB66:
 352              		.loc 1 236 0
 353              		.cfi_startproc
 354              		@ args = 0, pretend = 0, frame = 8
 355              		@ frame_needed = 0, uses_anonymous_args = 0
 356 0000 00B5     		push	{lr}
 357              		.cfi_def_cfa_offset 4
 358              		.cfi_offset 14, -4
 359              		.loc 1 240 0
 360 0002 0F4B     		ldr	r3, .L47
 361              		.loc 1 236 0
 362 0004 83B0     		sub	sp, sp, #12
 363              		.cfi_def_cfa_offset 16
 364              		.loc 1 240 0
 365 0006 B3F90020 		ldrsh	r2, [r3]
 366              		.loc 1 238 0
 367 000a 0421     		movs	r1, #4
 368 000c 8DF80710 		strb	r1, [sp, #7]
 369              		.loc 1 240 0
 370 0010 92B9     		cbnz	r2, .L44
 371              		.loc 1 243 0
 372 0012 0122     		movs	r2, #1
 373 0014 1A80     		strh	r2, [r3]	@ movhi
 374              		.loc 1 246 0
 375 0016 FFF7FEFF 		bl	FLASH_UnlockBank1
 376              	.LVL47:
 377              		.loc 1 249 0
 378 001a 0A48     		ldr	r0, .L47+4
 379 001c FFF7FEFF 		bl	FLASH_ErasePage
 380              	.LVL48:
 381 0020 8DF80700 		strb	r0, [sp, #7]
 382              		.loc 1 252 0
 383 0024 9DF80730 		ldrb	r3, [sp, #7]	@ zero_extendqisi2
 384 0028 042B     		cmp	r3, #4
 385              		.loc 1 260 0
 386 002a 14BF     		ite	ne
 387 002c 6FF00200 		mvnne	r0, #2
 388 0030 0120     		moveq	r0, #1
 389              	.L43:
 390              		.loc 1 261 0
 391 0032 03B0     		add	sp, sp, #12
 392              		.cfi_remember_state
 393              		.cfi_def_cfa_offset 4
 394              		@ sp needed
 395 0034 5DF804FB 		ldr	pc, [sp], #4
 396              	.L44:
 397              		.cfi_restore_state
 398              		.loc 1 257 0
 399 0038 6FF00300 		mvn	r0, #3
ARM GAS  /var/folders/6q/x_mk5n_j3p7_c40r_2k_78980000gn/T//ccZUHTwE.s 			page 8


 400 003c F9E7     		b	.L43
 401              	.L48:
 402 003e 00BF     		.align	2
 403              	.L47:
 404 0040 00000000 		.word	.LANCHOR2
 405 0044 00F00508 		.word	134606848
 406              		.cfi_endproc
 407              	.LFE66:
 408              		.size	vexFlashUserParamInit, .-vexFlashUserParamInit
 409              		.section	.bss.erase_done.7546,"aw",%nobits
 410              		.align	1
 411              		.set	.LANCHOR2,. + 0
 412              		.type	erase_done.7546, %object
 413              		.size	erase_done.7546, 2
 414              	erase_done.7546:
 415 0000 0000     		.space	2
 416              		.section	.bss.params,"aw",%nobits
 417              		.align	2
 418              		.set	.LANCHOR0,. + 0
 419              		.type	params, %object
 420              		.size	params, 40
 421              	params:
 422 0000 00000000 		.space	40
 422      00000000 
 422      00000000 
 422      00000000 
 422      00000000 
 423              		.section	.bss.user_param_write_limit.7539,"aw",%nobits
 424              		.align	1
 425              		.set	.LANCHOR1,. + 0
 426              		.type	user_param_write_limit.7539, %object
 427              		.size	user_param_write_limit.7539, 2
 428              	user_param_write_limit.7539:
 429 0000 0000     		.space	2
 430              		.text
 431              	.Letext0:
 432              		.file 2 "/Users/Luca/src/vexilla/src/gcc-arm-none-eabi-5_4-2016q3/arm-none-eabi/include/machine/_d
 433              		.file 3 "/Users/Luca/src/vexilla/src/gcc-arm-none-eabi-5_4-2016q3/arm-none-eabi/include/sys/_stdin
 434              		.file 4 "../convex-vexilla/cortex/fw/vexdigital.h"
 435              		.file 5 "../convex-vexilla/cortex/fw/vexime.h"
 436              		.file 6 "../convex-vexilla/cortex/opt/stm32f10x_flash.h"
 437              		.file 7 "../convex-vexilla/cortex/opt/vexflash.h"
 438              		.file 8 "../ChibiOS/os/ports/common/ARMCMx/CMSIS/include/core_cm3.h"
 439              		.section	.debug_info,"",%progbits
 440              	.Ldebug_info0:
 441 0000 90040000 		.4byte	0x490
 442 0004 0400     		.2byte	0x4
 443 0006 00000000 		.4byte	.Ldebug_abbrev0
 444 000a 04       		.byte	0x4
 445 000b 01       		.uleb128 0x1
 446 000c 29010000 		.4byte	.LASF68
 447 0010 0C       		.byte	0xc
 448 0011 78020000 		.4byte	.LASF69
 449 0015 B0040000 		.4byte	.LASF70
 450 0019 00000000 		.4byte	.Ldebug_ranges0+0
 451 001d 00000000 		.4byte	0
 452 0021 00000000 		.4byte	.Ldebug_line0
ARM GAS  /var/folders/6q/x_mk5n_j3p7_c40r_2k_78980000gn/T//ccZUHTwE.s 			page 9


 453 0025 02       		.uleb128 0x2
 454 0026 04       		.byte	0x4
 455 0027 05       		.byte	0x5
 456 0028 696E7400 		.ascii	"int\000"
 457 002c 03       		.uleb128 0x3
 458 002d 04       		.byte	0x4
 459 002e 07       		.byte	0x7
 460 002f 8C040000 		.4byte	.LASF0
 461 0033 03       		.uleb128 0x3
 462 0034 08       		.byte	0x8
 463 0035 05       		.byte	0x5
 464 0036 6A020000 		.4byte	.LASF1
 465 003a 03       		.uleb128 0x3
 466 003b 08       		.byte	0x8
 467 003c 04       		.byte	0x4
 468 003d C6020000 		.4byte	.LASF2
 469 0041 03       		.uleb128 0x3
 470 0042 01       		.byte	0x1
 471 0043 06       		.byte	0x6
 472 0044 EF020000 		.4byte	.LASF3
 473 0048 03       		.uleb128 0x3
 474 0049 01       		.byte	0x1
 475 004a 08       		.byte	0x8
 476 004b E1020000 		.4byte	.LASF4
 477 004f 04       		.uleb128 0x4
 478 0050 28040000 		.4byte	.LASF6
 479 0054 02       		.byte	0x2
 480 0055 29       		.byte	0x29
 481 0056 5A000000 		.4byte	0x5a
 482 005a 03       		.uleb128 0x3
 483 005b 02       		.byte	0x2
 484 005c 05       		.byte	0x5
 485 005d A7000000 		.4byte	.LASF5
 486 0061 04       		.uleb128 0x4
 487 0062 F0000000 		.4byte	.LASF7
 488 0066 02       		.byte	0x2
 489 0067 2B       		.byte	0x2b
 490 0068 6C000000 		.4byte	0x6c
 491 006c 03       		.uleb128 0x3
 492 006d 02       		.byte	0x2
 493 006e 07       		.byte	0x7
 494 006f 61030000 		.4byte	.LASF8
 495 0073 04       		.uleb128 0x4
 496 0074 1E040000 		.4byte	.LASF9
 497 0078 02       		.byte	0x2
 498 0079 3F       		.byte	0x3f
 499 007a 7E000000 		.4byte	0x7e
 500 007e 03       		.uleb128 0x3
 501 007f 04       		.byte	0x4
 502 0080 05       		.byte	0x5
 503 0081 A0020000 		.4byte	.LASF10
 504 0085 04       		.uleb128 0x4
 505 0086 E5000000 		.4byte	.LASF11
 506 008a 02       		.byte	0x2
 507 008b 41       		.byte	0x41
 508 008c 90000000 		.4byte	0x90
 509 0090 03       		.uleb128 0x3
ARM GAS  /var/folders/6q/x_mk5n_j3p7_c40r_2k_78980000gn/T//ccZUHTwE.s 			page 10


 510 0091 04       		.byte	0x4
 511 0092 07       		.byte	0x7
 512 0093 0C040000 		.4byte	.LASF12
 513 0097 03       		.uleb128 0x3
 514 0098 08       		.byte	0x8
 515 0099 07       		.byte	0x7
 516 009a FB020000 		.4byte	.LASF13
 517 009e 04       		.uleb128 0x4
 518 009f 77040000 		.4byte	.LASF14
 519 00a3 03       		.byte	0x3
 520 00a4 20       		.byte	0x20
 521 00a5 4F000000 		.4byte	0x4f
 522 00a9 04       		.uleb128 0x4
 523 00aa 80030000 		.4byte	.LASF15
 524 00ae 03       		.byte	0x3
 525 00af 24       		.byte	0x24
 526 00b0 61000000 		.4byte	0x61
 527 00b4 04       		.uleb128 0x4
 528 00b5 A5030000 		.4byte	.LASF16
 529 00b9 03       		.byte	0x3
 530 00ba 2C       		.byte	0x2c
 531 00bb 73000000 		.4byte	0x73
 532 00bf 04       		.uleb128 0x4
 533 00c0 12030000 		.4byte	.LASF17
 534 00c4 03       		.byte	0x3
 535 00c5 30       		.byte	0x30
 536 00c6 85000000 		.4byte	0x85
 537 00ca 03       		.uleb128 0x3
 538 00cb 01       		.byte	0x1
 539 00cc 02       		.byte	0x2
 540 00cd 01040000 		.4byte	.LASF18
 541 00d1 05       		.uleb128 0x5
 542 00d2 04       		.byte	0x4
 543 00d3 03       		.uleb128 0x3
 544 00d4 04       		.byte	0x4
 545 00d5 07       		.byte	0x7
 546 00d6 BC000000 		.4byte	.LASF19
 547 00da 03       		.uleb128 0x3
 548 00db 01       		.byte	0x1
 549 00dc 08       		.byte	0x8
 550 00dd 7B030000 		.4byte	.LASF20
 551 00e1 06       		.uleb128 0x6
 552 00e2 B4000000 		.4byte	0xb4
 553 00e6 07       		.uleb128 0x7
 554 00e7 01       		.byte	0x1
 555 00e8 41000000 		.4byte	0x41
 556 00ec 04       		.byte	0x4
 557 00ed 8D       		.byte	0x8d
 558 00ee 47010000 		.4byte	0x147
 559 00f2 08       		.uleb128 0x8
 560 00f3 00000000 		.4byte	.LASF21
 561 00f7 7F       		.sleb128 -1
 562 00f8 09       		.uleb128 0x9
 563 00f9 89030000 		.4byte	.LASF22
 564 00fd 00       		.byte	0
 565 00fe 09       		.uleb128 0x9
 566 00ff 97030000 		.4byte	.LASF23
ARM GAS  /var/folders/6q/x_mk5n_j3p7_c40r_2k_78980000gn/T//ccZUHTwE.s 			page 11


 567 0103 01       		.byte	0x1
 568 0104 09       		.uleb128 0x9
 569 0105 2B030000 		.4byte	.LASF24
 570 0109 02       		.byte	0x2
 571 010a 09       		.uleb128 0x9
 572 010b AD030000 		.4byte	.LASF25
 573 010f 03       		.byte	0x3
 574 0110 09       		.uleb128 0x9
 575 0111 BB030000 		.4byte	.LASF26
 576 0115 04       		.byte	0x4
 577 0116 09       		.uleb128 0x9
 578 0117 C9030000 		.4byte	.LASF27
 579 011b 05       		.byte	0x5
 580 011c 09       		.uleb128 0x9
 581 011d D7030000 		.4byte	.LASF28
 582 0121 06       		.byte	0x6
 583 0122 09       		.uleb128 0x9
 584 0123 E5030000 		.4byte	.LASF29
 585 0127 07       		.byte	0x7
 586 0128 09       		.uleb128 0x9
 587 0129 F3030000 		.4byte	.LASF30
 588 012d 08       		.byte	0x8
 589 012e 09       		.uleb128 0x9
 590 012f 10020000 		.4byte	.LASF31
 591 0133 09       		.byte	0x9
 592 0134 09       		.uleb128 0x9
 593 0135 1F020000 		.4byte	.LASF32
 594 0139 0A       		.byte	0xa
 595 013a 09       		.uleb128 0x9
 596 013b 2E020000 		.4byte	.LASF33
 597 013f 0B       		.byte	0xb
 598 0140 09       		.uleb128 0x9
 599 0141 55040000 		.4byte	.LASF34
 600 0145 0C       		.byte	0xc
 601 0146 00       		.byte	0
 602 0147 07       		.uleb128 0x7
 603 0148 01       		.byte	0x1
 604 0149 48000000 		.4byte	0x48
 605 014d 04       		.byte	0x4
 606 014e A2       		.byte	0xa2
 607 014f 60010000 		.4byte	0x160
 608 0153 09       		.uleb128 0x9
 609 0154 AE020000 		.4byte	.LASF35
 610 0158 00       		.byte	0
 611 0159 09       		.uleb128 0x9
 612 015a 0B010000 		.4byte	.LASF36
 613 015e 01       		.byte	0x1
 614 015f 00       		.byte	0
 615 0160 07       		.uleb128 0x7
 616 0161 01       		.byte	0x1
 617 0162 48000000 		.4byte	0x48
 618 0166 05       		.byte	0x5
 619 0167 46       		.byte	0x46
 620 0168 A9010000 		.4byte	0x1a9
 621 016c 09       		.uleb128 0x9
 622 016d 37000000 		.4byte	.LASF37
 623 0171 00       		.byte	0
ARM GAS  /var/folders/6q/x_mk5n_j3p7_c40r_2k_78980000gn/T//ccZUHTwE.s 			page 12


 624 0172 09       		.uleb128 0x9
 625 0173 45000000 		.4byte	.LASF38
 626 0177 01       		.byte	0x1
 627 0178 09       		.uleb128 0x9
 628 0179 53000000 		.4byte	.LASF39
 629 017d 02       		.byte	0x2
 630 017e 09       		.uleb128 0x9
 631 017f 61000000 		.4byte	.LASF40
 632 0183 03       		.byte	0x3
 633 0184 09       		.uleb128 0x9
 634 0185 6F000000 		.4byte	.LASF41
 635 0189 04       		.byte	0x4
 636 018a 09       		.uleb128 0x9
 637 018b 7D000000 		.4byte	.LASF42
 638 018f 05       		.byte	0x5
 639 0190 09       		.uleb128 0x9
 640 0191 8B000000 		.4byte	.LASF43
 641 0195 06       		.byte	0x6
 642 0196 09       		.uleb128 0x9
 643 0197 99000000 		.4byte	.LASF44
 644 019b 07       		.byte	0x7
 645 019c 09       		.uleb128 0x9
 646 019d C5000000 		.4byte	.LASF45
 647 01a1 08       		.byte	0x8
 648 01a2 09       		.uleb128 0x9
 649 01a3 11000000 		.4byte	.LASF46
 650 01a7 63       		.byte	0x63
 651 01a8 00       		.byte	0
 652 01a9 0A       		.uleb128 0xa
 653 01aa 48000000 		.4byte	0x48
 654 01ae B9010000 		.4byte	0x1b9
 655 01b2 0B       		.uleb128 0xb
 656 01b3 D3000000 		.4byte	0xd3
 657 01b7 1F       		.byte	0x1f
 658 01b8 00       		.byte	0
 659 01b9 07       		.uleb128 0x7
 660 01ba 01       		.byte	0x1
 661 01bb 48000000 		.4byte	0x48
 662 01bf 06       		.byte	0x6
 663 01c0 33       		.byte	0x33
 664 01c1 E4010000 		.4byte	0x1e4
 665 01c5 09       		.uleb128 0x9
 666 01c6 48030000 		.4byte	.LASF47
 667 01ca 01       		.byte	0x1
 668 01cb 09       		.uleb128 0x9
 669 01cc D2020000 		.4byte	.LASF48
 670 01d0 02       		.byte	0x2
 671 01d1 09       		.uleb128 0x9
 672 01d2 FB000000 		.4byte	.LASF49
 673 01d6 03       		.byte	0x3
 674 01d7 09       		.uleb128 0x9
 675 01d8 39030000 		.4byte	.LASF50
 676 01dc 04       		.byte	0x4
 677 01dd 09       		.uleb128 0x9
 678 01de 53030000 		.4byte	.LASF51
 679 01e2 05       		.byte	0x5
 680 01e3 00       		.byte	0
ARM GAS  /var/folders/6q/x_mk5n_j3p7_c40r_2k_78980000gn/T//ccZUHTwE.s 			page 13


 681 01e4 04       		.uleb128 0x4
 682 01e5 03020000 		.4byte	.LASF52
 683 01e9 06       		.byte	0x6
 684 01ea 39       		.byte	0x39
 685 01eb B9010000 		.4byte	0x1b9
 686 01ef 0C       		.uleb128 0xc
 687 01f0 1D010000 		.4byte	.LASF71
 688 01f4 28       		.byte	0x28
 689 01f5 07       		.byte	0x7
 690 01f6 45       		.byte	0x45
 691 01f7 20020000 		.4byte	0x220
 692 01fb 0D       		.uleb128 0xd
 693 01fc 07040000 		.4byte	.LASF53
 694 0200 07       		.byte	0x7
 695 0201 47       		.byte	0x47
 696 0202 A9010000 		.4byte	0x1a9
 697 0206 00       		.byte	0
 698 0207 0D       		.uleb128 0xd
 699 0208 74030000 		.4byte	.LASF54
 700 020c 07       		.byte	0x7
 701 020d 4A       		.byte	0x4a
 702 020e 25000000 		.4byte	0x25
 703 0212 20       		.byte	0x20
 704 0213 0D       		.uleb128 0xd
 705 0214 A9020000 		.4byte	.LASF55
 706 0218 07       		.byte	0x7
 707 0219 4B       		.byte	0x4b
 708 021a D1000000 		.4byte	0xd1
 709 021e 24       		.byte	0x24
 710 021f 00       		.byte	0
 711 0220 04       		.uleb128 0x4
 712 0221 5F020000 		.4byte	.LASF56
 713 0225 07       		.byte	0x7
 714 0226 4C       		.byte	0x4c
 715 0227 EF010000 		.4byte	0x1ef
 716 022b 0E       		.uleb128 0xe
 717 022c D2040000 		.4byte	.LASF72
 718 0230 01       		.byte	0x1
 719 0231 4C       		.byte	0x4c
 720 0232 9E000000 		.4byte	0x9e
 721 0236 01       		.byte	0x1
 722 0237 59020000 		.4byte	0x259
 723 023b 0F       		.uleb128 0xf
 724 023c 7000     		.ascii	"p\000"
 725 023e 01       		.byte	0x1
 726 023f 4E       		.byte	0x4e
 727 0240 59020000 		.4byte	0x259
 728 0244 10       		.uleb128 0x10
 729 0245 74030000 		.4byte	.LASF54
 730 0249 01       		.byte	0x1
 731 024a 4F       		.byte	0x4f
 732 024b 9E000000 		.4byte	0x9e
 733 024f 0F       		.uleb128 0xf
 734 0250 6900     		.ascii	"i\000"
 735 0252 01       		.byte	0x1
 736 0253 50       		.byte	0x50
 737 0254 9E000000 		.4byte	0x9e
ARM GAS  /var/folders/6q/x_mk5n_j3p7_c40r_2k_78980000gn/T//ccZUHTwE.s 			page 14


 738 0258 00       		.byte	0
 739 0259 11       		.uleb128 0x11
 740 025a 04       		.byte	0x4
 741 025b BF000000 		.4byte	0xbf
 742 025f 12       		.uleb128 0x12
 743 0260 21000000 		.4byte	.LASF57
 744 0264 01       		.byte	0x1
 745 0265 69       		.byte	0x69
 746 0266 D5020000 		.4byte	0x2d5
 747 026a 00000000 		.4byte	.LFB64
 748 026e 78000000 		.4byte	.LFE64-.LFB64
 749 0272 01       		.uleb128 0x1
 750 0273 9C       		.byte	0x9c
 751 0274 D5020000 		.4byte	0x2d5
 752 0278 13       		.uleb128 0x13
 753 0279 7000     		.ascii	"p\000"
 754 027b 01       		.byte	0x1
 755 027c 6B       		.byte	0x6b
 756 027d 59020000 		.4byte	0x259
 757 0281 00000000 		.4byte	.LLST0
 758 0285 13       		.uleb128 0x13
 759 0286 7100     		.ascii	"q\000"
 760 0288 01       		.byte	0x1
 761 0289 6C       		.byte	0x6c
 762 028a 59020000 		.4byte	0x259
 763 028e 4B000000 		.4byte	.LLST1
 764 0292 13       		.uleb128 0x13
 765 0293 6900     		.ascii	"i\000"
 766 0295 01       		.byte	0x1
 767 0296 6D       		.byte	0x6d
 768 0297 A9000000 		.4byte	0xa9
 769 029b 27010000 		.4byte	.LLST2
 770 029f 14       		.uleb128 0x14
 771 02a0 2B020000 		.4byte	0x22b
 772 02a4 02000000 		.4byte	.LBB6
 773 02a8 1A000000 		.4byte	.LBE6-.LBB6
 774 02ac 01       		.byte	0x1
 775 02ad 6F       		.byte	0x6f
 776 02ae 15       		.uleb128 0x15
 777 02af 02000000 		.4byte	.LBB7
 778 02b3 1A000000 		.4byte	.LBE7-.LBB7
 779 02b7 16       		.uleb128 0x16
 780 02b8 3B020000 		.4byte	0x23b
 781 02bc A7010000 		.4byte	.LLST3
 782 02c0 16       		.uleb128 0x16
 783 02c1 44020000 		.4byte	0x244
 784 02c5 E4010000 		.4byte	.LLST4
 785 02c9 16       		.uleb128 0x16
 786 02ca 4F020000 		.4byte	0x24f
 787 02ce 04020000 		.4byte	.LLST5
 788 02d2 00       		.byte	0
 789 02d3 00       		.byte	0
 790 02d4 00       		.byte	0
 791 02d5 11       		.uleb128 0x11
 792 02d6 04       		.byte	0x4
 793 02d7 20020000 		.4byte	0x220
 794 02db 12       		.uleb128 0x12
ARM GAS  /var/folders/6q/x_mk5n_j3p7_c40r_2k_78980000gn/T//ccZUHTwE.s 			page 15


 795 02dc 99040000 		.4byte	.LASF58
 796 02e0 01       		.byte	0x1
 797 02e1 91       		.byte	0x91
 798 02e2 9E000000 		.4byte	0x9e
 799 02e6 00000000 		.4byte	.LFB65
 800 02ea E4000000 		.4byte	.LFE65-.LFB65
 801 02ee 01       		.uleb128 0x1
 802 02ef 9C       		.byte	0x9c
 803 02f0 EC030000 		.4byte	0x3ec
 804 02f4 17       		.uleb128 0x17
 805 02f5 7500     		.ascii	"u\000"
 806 02f7 01       		.byte	0x1
 807 02f8 91       		.byte	0x91
 808 02f9 D5020000 		.4byte	0x2d5
 809 02fd 25020000 		.4byte	.LLST6
 810 0301 13       		.uleb128 0x13
 811 0302 7000     		.ascii	"p\000"
 812 0304 01       		.byte	0x1
 813 0305 93       		.byte	0x93
 814 0306 BF000000 		.4byte	0xbf
 815 030a 99020000 		.4byte	.LLST7
 816 030e 13       		.uleb128 0x13
 817 030f 7100     		.ascii	"q\000"
 818 0311 01       		.byte	0x1
 819 0312 94       		.byte	0x94
 820 0313 59020000 		.4byte	0x259
 821 0317 18030000 		.4byte	.LLST8
 822 031b 13       		.uleb128 0x13
 823 031c 6900     		.ascii	"i\000"
 824 031e 01       		.byte	0x1
 825 031f 95       		.byte	0x95
 826 0320 A9000000 		.4byte	0xa9
 827 0324 59030000 		.4byte	.LLST9
 828 0328 13       		.uleb128 0x13
 829 0329 72657400 		.ascii	"ret\000"
 830 032d 01       		.byte	0x1
 831 032e 96       		.byte	0x96
 832 032f 9E000000 		.4byte	0x9e
 833 0333 6D030000 		.4byte	.LLST10
 834 0337 18       		.uleb128 0x18
 835 0338 3E040000 		.4byte	.LASF59
 836 033c 01       		.byte	0x1
 837 033d 99       		.byte	0x99
 838 033e 9E000000 		.4byte	0x9e
 839 0342 05       		.uleb128 0x5
 840 0343 03       		.byte	0x3
 841 0344 00000000 		.4byte	user_param_write_limit.7539
 842 0348 18       		.uleb128 0x18
 843 0349 32040000 		.4byte	.LASF60
 844 034d 01       		.byte	0x1
 845 034e 9B       		.byte	0x9b
 846 034f EC030000 		.4byte	0x3ec
 847 0353 02       		.uleb128 0x2
 848 0354 91       		.byte	0x91
 849 0355 67       		.sleb128 -25
 850 0356 19       		.uleb128 0x19
 851 0357 2B020000 		.4byte	0x22b
ARM GAS  /var/folders/6q/x_mk5n_j3p7_c40r_2k_78980000gn/T//ccZUHTwE.s 			page 16


 852 035b 28000000 		.4byte	.LBB8
 853 035f 1A000000 		.4byte	.LBE8-.LBB8
 854 0363 01       		.byte	0x1
 855 0364 B0       		.byte	0xb0
 856 0365 8F030000 		.4byte	0x38f
 857 0369 15       		.uleb128 0x15
 858 036a 28000000 		.4byte	.LBB9
 859 036e 1A000000 		.4byte	.LBE9-.LBB9
 860 0372 16       		.uleb128 0x16
 861 0373 3B020000 		.4byte	0x23b
 862 0377 98030000 		.4byte	.LLST11
 863 037b 16       		.uleb128 0x16
 864 037c 44020000 		.4byte	0x244
 865 0380 D5030000 		.4byte	.LLST12
 866 0384 16       		.uleb128 0x16
 867 0385 4F020000 		.4byte	0x24f
 868 0389 F5030000 		.4byte	.LLST13
 869 038d 00       		.byte	0
 870 038e 00       		.byte	0
 871 038f 1A       		.uleb128 0x1a
 872 0390 22000000 		.4byte	.LVL22
 873 0394 63040000 		.4byte	0x463
 874 0398 1B       		.uleb128 0x1b
 875 0399 28000000 		.4byte	.LVL23
 876 039d 6F040000 		.4byte	0x46f
 877 03a1 AC030000 		.4byte	0x3ac
 878 03a5 1C       		.uleb128 0x1c
 879 03a6 01       		.uleb128 0x1
 880 03a7 50       		.byte	0x50
 881 03a8 02       		.uleb128 0x2
 882 03a9 08       		.byte	0x8
 883 03aa 34       		.byte	0x34
 884 03ab 00       		.byte	0
 885 03ac 1B       		.uleb128 0x1b
 886 03ad 66000000 		.4byte	.LVL34
 887 03b1 7B040000 		.4byte	0x47b
 888 03b5 C5030000 		.4byte	0x3c5
 889 03b9 1C       		.uleb128 0x1c
 890 03ba 01       		.uleb128 0x1
 891 03bb 50       		.byte	0x50
 892 03bc 07       		.uleb128 0x7
 893 03bd 74       		.byte	0x74
 894 03be 00       		.sleb128 0
 895 03bf 75       		.byte	0x75
 896 03c0 00       		.sleb128 0
 897 03c1 22       		.byte	0x22
 898 03c2 34       		.byte	0x34
 899 03c3 1C       		.byte	0x1c
 900 03c4 00       		.byte	0
 901 03c5 1B       		.uleb128 0x1b
 902 03c6 8A000000 		.4byte	.LVL36
 903 03ca 7B040000 		.4byte	0x47b
 904 03ce D8030000 		.4byte	0x3d8
 905 03d2 1C       		.uleb128 0x1c
 906 03d3 01       		.uleb128 0x1
 907 03d4 51       		.byte	0x51
 908 03d5 01       		.uleb128 0x1
ARM GAS  /var/folders/6q/x_mk5n_j3p7_c40r_2k_78980000gn/T//ccZUHTwE.s 			page 17


 909 03d6 30       		.byte	0x30
 910 03d7 00       		.byte	0
 911 03d8 1D       		.uleb128 0x1d
 912 03d9 A6000000 		.4byte	.LVL39
 913 03dd 87040000 		.4byte	0x487
 914 03e1 1C       		.uleb128 0x1c
 915 03e2 01       		.uleb128 0x1
 916 03e3 50       		.byte	0x50
 917 03e4 05       		.uleb128 0x5
 918 03e5 0C       		.byte	0xc
 919 03e6 00F00508 		.4byte	0x805f000
 920 03ea 00       		.byte	0
 921 03eb 00       		.byte	0
 922 03ec 06       		.uleb128 0x6
 923 03ed E4010000 		.4byte	0x1e4
 924 03f1 12       		.uleb128 0x12
 925 03f2 CF000000 		.4byte	.LASF61
 926 03f6 01       		.byte	0x1
 927 03f7 EB       		.byte	0xeb
 928 03f8 9E000000 		.4byte	0x9e
 929 03fc 00000000 		.4byte	.LFB66
 930 0400 48000000 		.4byte	.LFE66-.LFB66
 931 0404 01       		.uleb128 0x1
 932 0405 9C       		.byte	0x9c
 933 0406 46040000 		.4byte	0x446
 934 040a 18       		.uleb128 0x18
 935 040b B1000000 		.4byte	.LASF62
 936 040f 01       		.byte	0x1
 937 0410 ED       		.byte	0xed
 938 0411 9E000000 		.4byte	0x9e
 939 0415 05       		.uleb128 0x5
 940 0416 03       		.byte	0x3
 941 0417 00000000 		.4byte	erase_done.7546
 942 041b 18       		.uleb128 0x18
 943 041c 32040000 		.4byte	.LASF60
 944 0420 01       		.byte	0x1
 945 0421 EE       		.byte	0xee
 946 0422 EC030000 		.4byte	0x3ec
 947 0426 02       		.uleb128 0x2
 948 0427 91       		.byte	0x91
 949 0428 77       		.sleb128 -9
 950 0429 1A       		.uleb128 0x1a
 951 042a 1A000000 		.4byte	.LVL47
 952 042e 63040000 		.4byte	0x463
 953 0432 1D       		.uleb128 0x1d
 954 0433 20000000 		.4byte	.LVL48
 955 0437 87040000 		.4byte	0x487
 956 043b 1C       		.uleb128 0x1c
 957 043c 01       		.uleb128 0x1
 958 043d 50       		.byte	0x50
 959 043e 05       		.uleb128 0x5
 960 043f 0C       		.byte	0xc
 961 0440 00F00508 		.4byte	0x805f000
 962 0444 00       		.byte	0
 963 0445 00       		.byte	0
 964 0446 18       		.uleb128 0x18
 965 0447 BF020000 		.4byte	.LASF63
ARM GAS  /var/folders/6q/x_mk5n_j3p7_c40r_2k_78980000gn/T//ccZUHTwE.s 			page 18


 966 044b 01       		.byte	0x1
 967 044c 44       		.byte	0x44
 968 044d 20020000 		.4byte	0x220
 969 0451 05       		.uleb128 0x5
 970 0452 03       		.byte	0x3
 971 0453 00000000 		.4byte	params
 972 0457 1E       		.uleb128 0x1e
 973 0458 7F040000 		.4byte	.LASF73
 974 045c 08       		.byte	0x8
 975 045d 0706     		.2byte	0x607
 976 045f E1000000 		.4byte	0xe1
 977 0463 1F       		.uleb128 0x1f
 978 0464 4D020000 		.4byte	.LASF64
 979 0468 4D020000 		.4byte	.LASF64
 980 046c 06       		.byte	0x6
 981 046d 8901     		.2byte	0x189
 982 046f 1F       		.uleb128 0x1f
 983 0470 1B030000 		.4byte	.LASF65
 984 0474 1B030000 		.4byte	.LASF65
 985 0478 06       		.byte	0x6
 986 0479 8401     		.2byte	0x184
 987 047b 1F       		.uleb128 0x1f
 988 047c 65040000 		.4byte	.LASF66
 989 0480 65040000 		.4byte	.LASF66
 990 0484 06       		.byte	0x6
 991 0485 7801     		.2byte	0x178
 992 0487 1F       		.uleb128 0x1f
 993 0488 3D020000 		.4byte	.LASF67
 994 048c 3D020000 		.4byte	.LASF67
 995 0490 06       		.byte	0x6
 996 0491 7501     		.2byte	0x175
 997 0493 00       		.byte	0
 998              		.section	.debug_abbrev,"",%progbits
 999              	.Ldebug_abbrev0:
 1000 0000 01       		.uleb128 0x1
 1001 0001 11       		.uleb128 0x11
 1002 0002 01       		.byte	0x1
 1003 0003 25       		.uleb128 0x25
 1004 0004 0E       		.uleb128 0xe
 1005 0005 13       		.uleb128 0x13
 1006 0006 0B       		.uleb128 0xb
 1007 0007 03       		.uleb128 0x3
 1008 0008 0E       		.uleb128 0xe
 1009 0009 1B       		.uleb128 0x1b
 1010 000a 0E       		.uleb128 0xe
 1011 000b 55       		.uleb128 0x55
 1012 000c 17       		.uleb128 0x17
 1013 000d 11       		.uleb128 0x11
 1014 000e 01       		.uleb128 0x1
 1015 000f 10       		.uleb128 0x10
 1016 0010 17       		.uleb128 0x17
 1017 0011 00       		.byte	0
 1018 0012 00       		.byte	0
 1019 0013 02       		.uleb128 0x2
 1020 0014 24       		.uleb128 0x24
 1021 0015 00       		.byte	0
 1022 0016 0B       		.uleb128 0xb
ARM GAS  /var/folders/6q/x_mk5n_j3p7_c40r_2k_78980000gn/T//ccZUHTwE.s 			page 19


 1023 0017 0B       		.uleb128 0xb
 1024 0018 3E       		.uleb128 0x3e
 1025 0019 0B       		.uleb128 0xb
 1026 001a 03       		.uleb128 0x3
 1027 001b 08       		.uleb128 0x8
 1028 001c 00       		.byte	0
 1029 001d 00       		.byte	0
 1030 001e 03       		.uleb128 0x3
 1031 001f 24       		.uleb128 0x24
 1032 0020 00       		.byte	0
 1033 0021 0B       		.uleb128 0xb
 1034 0022 0B       		.uleb128 0xb
 1035 0023 3E       		.uleb128 0x3e
 1036 0024 0B       		.uleb128 0xb
 1037 0025 03       		.uleb128 0x3
 1038 0026 0E       		.uleb128 0xe
 1039 0027 00       		.byte	0
 1040 0028 00       		.byte	0
 1041 0029 04       		.uleb128 0x4
 1042 002a 16       		.uleb128 0x16
 1043 002b 00       		.byte	0
 1044 002c 03       		.uleb128 0x3
 1045 002d 0E       		.uleb128 0xe
 1046 002e 3A       		.uleb128 0x3a
 1047 002f 0B       		.uleb128 0xb
 1048 0030 3B       		.uleb128 0x3b
 1049 0031 0B       		.uleb128 0xb
 1050 0032 49       		.uleb128 0x49
 1051 0033 13       		.uleb128 0x13
 1052 0034 00       		.byte	0
 1053 0035 00       		.byte	0
 1054 0036 05       		.uleb128 0x5
 1055 0037 0F       		.uleb128 0xf
 1056 0038 00       		.byte	0
 1057 0039 0B       		.uleb128 0xb
 1058 003a 0B       		.uleb128 0xb
 1059 003b 00       		.byte	0
 1060 003c 00       		.byte	0
 1061 003d 06       		.uleb128 0x6
 1062 003e 35       		.uleb128 0x35
 1063 003f 00       		.byte	0
 1064 0040 49       		.uleb128 0x49
 1065 0041 13       		.uleb128 0x13
 1066 0042 00       		.byte	0
 1067 0043 00       		.byte	0
 1068 0044 07       		.uleb128 0x7
 1069 0045 04       		.uleb128 0x4
 1070 0046 01       		.byte	0x1
 1071 0047 0B       		.uleb128 0xb
 1072 0048 0B       		.uleb128 0xb
 1073 0049 49       		.uleb128 0x49
 1074 004a 13       		.uleb128 0x13
 1075 004b 3A       		.uleb128 0x3a
 1076 004c 0B       		.uleb128 0xb
 1077 004d 3B       		.uleb128 0x3b
 1078 004e 0B       		.uleb128 0xb
 1079 004f 01       		.uleb128 0x1
ARM GAS  /var/folders/6q/x_mk5n_j3p7_c40r_2k_78980000gn/T//ccZUHTwE.s 			page 20


 1080 0050 13       		.uleb128 0x13
 1081 0051 00       		.byte	0
 1082 0052 00       		.byte	0
 1083 0053 08       		.uleb128 0x8
 1084 0054 28       		.uleb128 0x28
 1085 0055 00       		.byte	0
 1086 0056 03       		.uleb128 0x3
 1087 0057 0E       		.uleb128 0xe
 1088 0058 1C       		.uleb128 0x1c
 1089 0059 0D       		.uleb128 0xd
 1090 005a 00       		.byte	0
 1091 005b 00       		.byte	0
 1092 005c 09       		.uleb128 0x9
 1093 005d 28       		.uleb128 0x28
 1094 005e 00       		.byte	0
 1095 005f 03       		.uleb128 0x3
 1096 0060 0E       		.uleb128 0xe
 1097 0061 1C       		.uleb128 0x1c
 1098 0062 0B       		.uleb128 0xb
 1099 0063 00       		.byte	0
 1100 0064 00       		.byte	0
 1101 0065 0A       		.uleb128 0xa
 1102 0066 01       		.uleb128 0x1
 1103 0067 01       		.byte	0x1
 1104 0068 49       		.uleb128 0x49
 1105 0069 13       		.uleb128 0x13
 1106 006a 01       		.uleb128 0x1
 1107 006b 13       		.uleb128 0x13
 1108 006c 00       		.byte	0
 1109 006d 00       		.byte	0
 1110 006e 0B       		.uleb128 0xb
 1111 006f 21       		.uleb128 0x21
 1112 0070 00       		.byte	0
 1113 0071 49       		.uleb128 0x49
 1114 0072 13       		.uleb128 0x13
 1115 0073 2F       		.uleb128 0x2f
 1116 0074 0B       		.uleb128 0xb
 1117 0075 00       		.byte	0
 1118 0076 00       		.byte	0
 1119 0077 0C       		.uleb128 0xc
 1120 0078 13       		.uleb128 0x13
 1121 0079 01       		.byte	0x1
 1122 007a 03       		.uleb128 0x3
 1123 007b 0E       		.uleb128 0xe
 1124 007c 0B       		.uleb128 0xb
 1125 007d 0B       		.uleb128 0xb
 1126 007e 3A       		.uleb128 0x3a
 1127 007f 0B       		.uleb128 0xb
 1128 0080 3B       		.uleb128 0x3b
 1129 0081 0B       		.uleb128 0xb
 1130 0082 01       		.uleb128 0x1
 1131 0083 13       		.uleb128 0x13
 1132 0084 00       		.byte	0
 1133 0085 00       		.byte	0
 1134 0086 0D       		.uleb128 0xd
 1135 0087 0D       		.uleb128 0xd
 1136 0088 00       		.byte	0
ARM GAS  /var/folders/6q/x_mk5n_j3p7_c40r_2k_78980000gn/T//ccZUHTwE.s 			page 21


 1137 0089 03       		.uleb128 0x3
 1138 008a 0E       		.uleb128 0xe
 1139 008b 3A       		.uleb128 0x3a
 1140 008c 0B       		.uleb128 0xb
 1141 008d 3B       		.uleb128 0x3b
 1142 008e 0B       		.uleb128 0xb
 1143 008f 49       		.uleb128 0x49
 1144 0090 13       		.uleb128 0x13
 1145 0091 38       		.uleb128 0x38
 1146 0092 0B       		.uleb128 0xb
 1147 0093 00       		.byte	0
 1148 0094 00       		.byte	0
 1149 0095 0E       		.uleb128 0xe
 1150 0096 2E       		.uleb128 0x2e
 1151 0097 01       		.byte	0x1
 1152 0098 03       		.uleb128 0x3
 1153 0099 0E       		.uleb128 0xe
 1154 009a 3A       		.uleb128 0x3a
 1155 009b 0B       		.uleb128 0xb
 1156 009c 3B       		.uleb128 0x3b
 1157 009d 0B       		.uleb128 0xb
 1158 009e 27       		.uleb128 0x27
 1159 009f 19       		.uleb128 0x19
 1160 00a0 49       		.uleb128 0x49
 1161 00a1 13       		.uleb128 0x13
 1162 00a2 20       		.uleb128 0x20
 1163 00a3 0B       		.uleb128 0xb
 1164 00a4 01       		.uleb128 0x1
 1165 00a5 13       		.uleb128 0x13
 1166 00a6 00       		.byte	0
 1167 00a7 00       		.byte	0
 1168 00a8 0F       		.uleb128 0xf
 1169 00a9 34       		.uleb128 0x34
 1170 00aa 00       		.byte	0
 1171 00ab 03       		.uleb128 0x3
 1172 00ac 08       		.uleb128 0x8
 1173 00ad 3A       		.uleb128 0x3a
 1174 00ae 0B       		.uleb128 0xb
 1175 00af 3B       		.uleb128 0x3b
 1176 00b0 0B       		.uleb128 0xb
 1177 00b1 49       		.uleb128 0x49
 1178 00b2 13       		.uleb128 0x13
 1179 00b3 00       		.byte	0
 1180 00b4 00       		.byte	0
 1181 00b5 10       		.uleb128 0x10
 1182 00b6 34       		.uleb128 0x34
 1183 00b7 00       		.byte	0
 1184 00b8 03       		.uleb128 0x3
 1185 00b9 0E       		.uleb128 0xe
 1186 00ba 3A       		.uleb128 0x3a
 1187 00bb 0B       		.uleb128 0xb
 1188 00bc 3B       		.uleb128 0x3b
 1189 00bd 0B       		.uleb128 0xb
 1190 00be 49       		.uleb128 0x49
 1191 00bf 13       		.uleb128 0x13
 1192 00c0 00       		.byte	0
 1193 00c1 00       		.byte	0
ARM GAS  /var/folders/6q/x_mk5n_j3p7_c40r_2k_78980000gn/T//ccZUHTwE.s 			page 22


 1194 00c2 11       		.uleb128 0x11
 1195 00c3 0F       		.uleb128 0xf
 1196 00c4 00       		.byte	0
 1197 00c5 0B       		.uleb128 0xb
 1198 00c6 0B       		.uleb128 0xb
 1199 00c7 49       		.uleb128 0x49
 1200 00c8 13       		.uleb128 0x13
 1201 00c9 00       		.byte	0
 1202 00ca 00       		.byte	0
 1203 00cb 12       		.uleb128 0x12
 1204 00cc 2E       		.uleb128 0x2e
 1205 00cd 01       		.byte	0x1
 1206 00ce 3F       		.uleb128 0x3f
 1207 00cf 19       		.uleb128 0x19
 1208 00d0 03       		.uleb128 0x3
 1209 00d1 0E       		.uleb128 0xe
 1210 00d2 3A       		.uleb128 0x3a
 1211 00d3 0B       		.uleb128 0xb
 1212 00d4 3B       		.uleb128 0x3b
 1213 00d5 0B       		.uleb128 0xb
 1214 00d6 27       		.uleb128 0x27
 1215 00d7 19       		.uleb128 0x19
 1216 00d8 49       		.uleb128 0x49
 1217 00d9 13       		.uleb128 0x13
 1218 00da 11       		.uleb128 0x11
 1219 00db 01       		.uleb128 0x1
 1220 00dc 12       		.uleb128 0x12
 1221 00dd 06       		.uleb128 0x6
 1222 00de 40       		.uleb128 0x40
 1223 00df 18       		.uleb128 0x18
 1224 00e0 9742     		.uleb128 0x2117
 1225 00e2 19       		.uleb128 0x19
 1226 00e3 01       		.uleb128 0x1
 1227 00e4 13       		.uleb128 0x13
 1228 00e5 00       		.byte	0
 1229 00e6 00       		.byte	0
 1230 00e7 13       		.uleb128 0x13
 1231 00e8 34       		.uleb128 0x34
 1232 00e9 00       		.byte	0
 1233 00ea 03       		.uleb128 0x3
 1234 00eb 08       		.uleb128 0x8
 1235 00ec 3A       		.uleb128 0x3a
 1236 00ed 0B       		.uleb128 0xb
 1237 00ee 3B       		.uleb128 0x3b
 1238 00ef 0B       		.uleb128 0xb
 1239 00f0 49       		.uleb128 0x49
 1240 00f1 13       		.uleb128 0x13
 1241 00f2 02       		.uleb128 0x2
 1242 00f3 17       		.uleb128 0x17
 1243 00f4 00       		.byte	0
 1244 00f5 00       		.byte	0
 1245 00f6 14       		.uleb128 0x14
 1246 00f7 1D       		.uleb128 0x1d
 1247 00f8 01       		.byte	0x1
 1248 00f9 31       		.uleb128 0x31
 1249 00fa 13       		.uleb128 0x13
 1250 00fb 11       		.uleb128 0x11
ARM GAS  /var/folders/6q/x_mk5n_j3p7_c40r_2k_78980000gn/T//ccZUHTwE.s 			page 23


 1251 00fc 01       		.uleb128 0x1
 1252 00fd 12       		.uleb128 0x12
 1253 00fe 06       		.uleb128 0x6
 1254 00ff 58       		.uleb128 0x58
 1255 0100 0B       		.uleb128 0xb
 1256 0101 59       		.uleb128 0x59
 1257 0102 0B       		.uleb128 0xb
 1258 0103 00       		.byte	0
 1259 0104 00       		.byte	0
 1260 0105 15       		.uleb128 0x15
 1261 0106 0B       		.uleb128 0xb
 1262 0107 01       		.byte	0x1
 1263 0108 11       		.uleb128 0x11
 1264 0109 01       		.uleb128 0x1
 1265 010a 12       		.uleb128 0x12
 1266 010b 06       		.uleb128 0x6
 1267 010c 00       		.byte	0
 1268 010d 00       		.byte	0
 1269 010e 16       		.uleb128 0x16
 1270 010f 34       		.uleb128 0x34
 1271 0110 00       		.byte	0
 1272 0111 31       		.uleb128 0x31
 1273 0112 13       		.uleb128 0x13
 1274 0113 02       		.uleb128 0x2
 1275 0114 17       		.uleb128 0x17
 1276 0115 00       		.byte	0
 1277 0116 00       		.byte	0
 1278 0117 17       		.uleb128 0x17
 1279 0118 05       		.uleb128 0x5
 1280 0119 00       		.byte	0
 1281 011a 03       		.uleb128 0x3
 1282 011b 08       		.uleb128 0x8
 1283 011c 3A       		.uleb128 0x3a
 1284 011d 0B       		.uleb128 0xb
 1285 011e 3B       		.uleb128 0x3b
 1286 011f 0B       		.uleb128 0xb
 1287 0120 49       		.uleb128 0x49
 1288 0121 13       		.uleb128 0x13
 1289 0122 02       		.uleb128 0x2
 1290 0123 17       		.uleb128 0x17
 1291 0124 00       		.byte	0
 1292 0125 00       		.byte	0
 1293 0126 18       		.uleb128 0x18
 1294 0127 34       		.uleb128 0x34
 1295 0128 00       		.byte	0
 1296 0129 03       		.uleb128 0x3
 1297 012a 0E       		.uleb128 0xe
 1298 012b 3A       		.uleb128 0x3a
 1299 012c 0B       		.uleb128 0xb
 1300 012d 3B       		.uleb128 0x3b
 1301 012e 0B       		.uleb128 0xb
 1302 012f 49       		.uleb128 0x49
 1303 0130 13       		.uleb128 0x13
 1304 0131 02       		.uleb128 0x2
 1305 0132 18       		.uleb128 0x18
 1306 0133 00       		.byte	0
 1307 0134 00       		.byte	0
ARM GAS  /var/folders/6q/x_mk5n_j3p7_c40r_2k_78980000gn/T//ccZUHTwE.s 			page 24


 1308 0135 19       		.uleb128 0x19
 1309 0136 1D       		.uleb128 0x1d
 1310 0137 01       		.byte	0x1
 1311 0138 31       		.uleb128 0x31
 1312 0139 13       		.uleb128 0x13
 1313 013a 11       		.uleb128 0x11
 1314 013b 01       		.uleb128 0x1
 1315 013c 12       		.uleb128 0x12
 1316 013d 06       		.uleb128 0x6
 1317 013e 58       		.uleb128 0x58
 1318 013f 0B       		.uleb128 0xb
 1319 0140 59       		.uleb128 0x59
 1320 0141 0B       		.uleb128 0xb
 1321 0142 01       		.uleb128 0x1
 1322 0143 13       		.uleb128 0x13
 1323 0144 00       		.byte	0
 1324 0145 00       		.byte	0
 1325 0146 1A       		.uleb128 0x1a
 1326 0147 898201   		.uleb128 0x4109
 1327 014a 00       		.byte	0
 1328 014b 11       		.uleb128 0x11
 1329 014c 01       		.uleb128 0x1
 1330 014d 31       		.uleb128 0x31
 1331 014e 13       		.uleb128 0x13
 1332 014f 00       		.byte	0
 1333 0150 00       		.byte	0
 1334 0151 1B       		.uleb128 0x1b
 1335 0152 898201   		.uleb128 0x4109
 1336 0155 01       		.byte	0x1
 1337 0156 11       		.uleb128 0x11
 1338 0157 01       		.uleb128 0x1
 1339 0158 31       		.uleb128 0x31
 1340 0159 13       		.uleb128 0x13
 1341 015a 01       		.uleb128 0x1
 1342 015b 13       		.uleb128 0x13
 1343 015c 00       		.byte	0
 1344 015d 00       		.byte	0
 1345 015e 1C       		.uleb128 0x1c
 1346 015f 8A8201   		.uleb128 0x410a
 1347 0162 00       		.byte	0
 1348 0163 02       		.uleb128 0x2
 1349 0164 18       		.uleb128 0x18
 1350 0165 9142     		.uleb128 0x2111
 1351 0167 18       		.uleb128 0x18
 1352 0168 00       		.byte	0
 1353 0169 00       		.byte	0
 1354 016a 1D       		.uleb128 0x1d
 1355 016b 898201   		.uleb128 0x4109
 1356 016e 01       		.byte	0x1
 1357 016f 11       		.uleb128 0x11
 1358 0170 01       		.uleb128 0x1
 1359 0171 31       		.uleb128 0x31
 1360 0172 13       		.uleb128 0x13
 1361 0173 00       		.byte	0
 1362 0174 00       		.byte	0
 1363 0175 1E       		.uleb128 0x1e
 1364 0176 34       		.uleb128 0x34
ARM GAS  /var/folders/6q/x_mk5n_j3p7_c40r_2k_78980000gn/T//ccZUHTwE.s 			page 25


 1365 0177 00       		.byte	0
 1366 0178 03       		.uleb128 0x3
 1367 0179 0E       		.uleb128 0xe
 1368 017a 3A       		.uleb128 0x3a
 1369 017b 0B       		.uleb128 0xb
 1370 017c 3B       		.uleb128 0x3b
 1371 017d 05       		.uleb128 0x5
 1372 017e 49       		.uleb128 0x49
 1373 017f 13       		.uleb128 0x13
 1374 0180 3F       		.uleb128 0x3f
 1375 0181 19       		.uleb128 0x19
 1376 0182 3C       		.uleb128 0x3c
 1377 0183 19       		.uleb128 0x19
 1378 0184 00       		.byte	0
 1379 0185 00       		.byte	0
 1380 0186 1F       		.uleb128 0x1f
 1381 0187 2E       		.uleb128 0x2e
 1382 0188 00       		.byte	0
 1383 0189 3F       		.uleb128 0x3f
 1384 018a 19       		.uleb128 0x19
 1385 018b 3C       		.uleb128 0x3c
 1386 018c 19       		.uleb128 0x19
 1387 018d 6E       		.uleb128 0x6e
 1388 018e 0E       		.uleb128 0xe
 1389 018f 03       		.uleb128 0x3
 1390 0190 0E       		.uleb128 0xe
 1391 0191 3A       		.uleb128 0x3a
 1392 0192 0B       		.uleb128 0xb
 1393 0193 3B       		.uleb128 0x3b
 1394 0194 05       		.uleb128 0x5
 1395 0195 00       		.byte	0
 1396 0196 00       		.byte	0
 1397 0197 00       		.byte	0
 1398              		.section	.debug_loc,"",%progbits
 1399              	.Ldebug_loc0:
 1400              	.LLST0:
 1401 0000 00000000 		.4byte	.LVL0
 1402 0004 2C000000 		.4byte	.LVL6
 1403 0008 0600     		.2byte	0x6
 1404 000a 0C       		.byte	0xc
 1405 000b 00F00508 		.4byte	0x805f000
 1406 000f 9F       		.byte	0x9f
 1407 0010 2C000000 		.4byte	.LVL6
 1408 0014 36000000 		.4byte	.LVL9
 1409 0018 0100     		.2byte	0x1
 1410 001a 53       		.byte	0x53
 1411 001b 36000000 		.4byte	.LVL9
 1412 001f 3C000000 		.4byte	.LVL10
 1413 0023 0300     		.2byte	0x3
 1414 0025 73       		.byte	0x73
 1415 0026 7C       		.sleb128 -4
 1416 0027 9F       		.byte	0x9f
 1417 0028 3C000000 		.4byte	.LVL10
 1418 002c 44000000 		.4byte	.LVL11
 1419 0030 0100     		.2byte	0x1
 1420 0032 53       		.byte	0x53
 1421 0033 44000000 		.4byte	.LVL11
ARM GAS  /var/folders/6q/x_mk5n_j3p7_c40r_2k_78980000gn/T//ccZUHTwE.s 			page 26


 1422 0037 78000000 		.4byte	.LFE64
 1423 003b 0600     		.2byte	0x6
 1424 003d 0C       		.byte	0xc
 1425 003e 00F00508 		.4byte	0x805f000
 1426 0042 9F       		.byte	0x9f
 1427 0043 00000000 		.4byte	0
 1428 0047 00000000 		.4byte	0
 1429              	.LLST1:
 1430 004b 00000000 		.4byte	.LVL0
 1431 004f 32000000 		.4byte	.LVL8
 1432 0053 0600     		.2byte	0x6
 1433 0055 03       		.byte	0x3
 1434 0056 00000000 		.4byte	params
 1435 005a 9F       		.byte	0x9f
 1436 005b 32000000 		.4byte	.LVL8
 1437 005f 36000000 		.4byte	.LVL9
 1438 0063 1000     		.2byte	0x10
 1439 0065 73       		.byte	0x73
 1440 0066 00       		.sleb128 0
 1441 0067 03       		.byte	0x3
 1442 0068 24000000 		.4byte	params+36
 1443 006c 06       		.byte	0x6
 1444 006d 1C       		.byte	0x1c
 1445 006e 03       		.byte	0x3
 1446 006f 04000000 		.4byte	params+4
 1447 0073 22       		.byte	0x22
 1448 0074 9F       		.byte	0x9f
 1449 0075 36000000 		.4byte	.LVL9
 1450 0079 44000000 		.4byte	.LVL11
 1451 007d 1000     		.2byte	0x10
 1452 007f 73       		.byte	0x73
 1453 0080 00       		.sleb128 0
 1454 0081 03       		.byte	0x3
 1455 0082 24000000 		.4byte	params+36
 1456 0086 06       		.byte	0x6
 1457 0087 1C       		.byte	0x1c
 1458 0088 03       		.byte	0x3
 1459 0089 00000000 		.4byte	params
 1460 008d 22       		.byte	0x22
 1461 008e 9F       		.byte	0x9f
 1462 008f 44000000 		.4byte	.LVL11
 1463 0093 48000000 		.4byte	.LVL12
 1464 0097 0600     		.2byte	0x6
 1465 0099 03       		.byte	0x3
 1466 009a 04000000 		.4byte	params+4
 1467 009e 9F       		.byte	0x9f
 1468 009f 48000000 		.4byte	.LVL12
 1469 00a3 4A000000 		.4byte	.LVL13
 1470 00a7 0600     		.2byte	0x6
 1471 00a9 03       		.byte	0x3
 1472 00aa 08000000 		.4byte	params+8
 1473 00ae 9F       		.byte	0x9f
 1474 00af 4A000000 		.4byte	.LVL13
 1475 00b3 4C000000 		.4byte	.LVL14
 1476 00b7 0600     		.2byte	0x6
 1477 00b9 03       		.byte	0x3
 1478 00ba 0C000000 		.4byte	params+12
ARM GAS  /var/folders/6q/x_mk5n_j3p7_c40r_2k_78980000gn/T//ccZUHTwE.s 			page 27


 1479 00be 9F       		.byte	0x9f
 1480 00bf 4C000000 		.4byte	.LVL14
 1481 00c3 4E000000 		.4byte	.LVL15
 1482 00c7 0600     		.2byte	0x6
 1483 00c9 03       		.byte	0x3
 1484 00ca 10000000 		.4byte	params+16
 1485 00ce 9F       		.byte	0x9f
 1486 00cf 4E000000 		.4byte	.LVL15
 1487 00d3 50000000 		.4byte	.LVL16
 1488 00d7 0600     		.2byte	0x6
 1489 00d9 03       		.byte	0x3
 1490 00da 14000000 		.4byte	params+20
 1491 00de 9F       		.byte	0x9f
 1492 00df 50000000 		.4byte	.LVL16
 1493 00e3 52000000 		.4byte	.LVL17
 1494 00e7 0600     		.2byte	0x6
 1495 00e9 03       		.byte	0x3
 1496 00ea 18000000 		.4byte	params+24
 1497 00ee 9F       		.byte	0x9f
 1498 00ef 52000000 		.4byte	.LVL17
 1499 00f3 54000000 		.4byte	.LVL18
 1500 00f7 0600     		.2byte	0x6
 1501 00f9 03       		.byte	0x3
 1502 00fa 1C000000 		.4byte	params+28
 1503 00fe 9F       		.byte	0x9f
 1504 00ff 54000000 		.4byte	.LVL18
 1505 0103 5E000000 		.4byte	.LVL20
 1506 0107 0600     		.2byte	0x6
 1507 0109 03       		.byte	0x3
 1508 010a 20000000 		.4byte	params+32
 1509 010e 9F       		.byte	0x9f
 1510 010f 5E000000 		.4byte	.LVL20
 1511 0113 78000000 		.4byte	.LFE64
 1512 0117 0600     		.2byte	0x6
 1513 0119 03       		.byte	0x3
 1514 011a 00000000 		.4byte	params
 1515 011e 9F       		.byte	0x9f
 1516 011f 00000000 		.4byte	0
 1517 0123 00000000 		.4byte	0
 1518              	.LLST2:
 1519 0127 2E000000 		.4byte	.LVL7
 1520 012b 32000000 		.4byte	.LVL8
 1521 012f 0200     		.2byte	0x2
 1522 0131 30       		.byte	0x30
 1523 0132 9F       		.byte	0x9f
 1524 0133 44000000 		.4byte	.LVL11
 1525 0137 48000000 		.4byte	.LVL12
 1526 013b 0200     		.2byte	0x2
 1527 013d 30       		.byte	0x30
 1528 013e 9F       		.byte	0x9f
 1529 013f 48000000 		.4byte	.LVL12
 1530 0143 4A000000 		.4byte	.LVL13
 1531 0147 0200     		.2byte	0x2
 1532 0149 31       		.byte	0x31
 1533 014a 9F       		.byte	0x9f
 1534 014b 4A000000 		.4byte	.LVL13
 1535 014f 4C000000 		.4byte	.LVL14
ARM GAS  /var/folders/6q/x_mk5n_j3p7_c40r_2k_78980000gn/T//ccZUHTwE.s 			page 28


 1536 0153 0200     		.2byte	0x2
 1537 0155 32       		.byte	0x32
 1538 0156 9F       		.byte	0x9f
 1539 0157 4C000000 		.4byte	.LVL14
 1540 015b 4E000000 		.4byte	.LVL15
 1541 015f 0200     		.2byte	0x2
 1542 0161 33       		.byte	0x33
 1543 0162 9F       		.byte	0x9f
 1544 0163 4E000000 		.4byte	.LVL15
 1545 0167 50000000 		.4byte	.LVL16
 1546 016b 0200     		.2byte	0x2
 1547 016d 34       		.byte	0x34
 1548 016e 9F       		.byte	0x9f
 1549 016f 50000000 		.4byte	.LVL16
 1550 0173 52000000 		.4byte	.LVL17
 1551 0177 0200     		.2byte	0x2
 1552 0179 35       		.byte	0x35
 1553 017a 9F       		.byte	0x9f
 1554 017b 52000000 		.4byte	.LVL17
 1555 017f 54000000 		.4byte	.LVL18
 1556 0183 0200     		.2byte	0x2
 1557 0185 36       		.byte	0x36
 1558 0186 9F       		.byte	0x9f
 1559 0187 54000000 		.4byte	.LVL18
 1560 018b 56000000 		.4byte	.LVL19
 1561 018f 0200     		.2byte	0x2
 1562 0191 37       		.byte	0x37
 1563 0192 9F       		.byte	0x9f
 1564 0193 56000000 		.4byte	.LVL19
 1565 0197 5E000000 		.4byte	.LVL20
 1566 019b 0200     		.2byte	0x2
 1567 019d 38       		.byte	0x38
 1568 019e 9F       		.byte	0x9f
 1569 019f 00000000 		.4byte	0
 1570 01a3 00000000 		.4byte	0
 1571              	.LLST3:
 1572 01a7 00000000 		.4byte	.LVL0
 1573 01ab 0C000000 		.4byte	.LVL1
 1574 01af 0600     		.2byte	0x6
 1575 01b1 0C       		.byte	0xc
 1576 01b2 00F00508 		.4byte	0x805f000
 1577 01b6 9F       		.byte	0x9f
 1578 01b7 0C000000 		.4byte	.LVL1
 1579 01bb 10000000 		.4byte	.LVL2
 1580 01bf 0300     		.2byte	0x3
 1581 01c1 73       		.byte	0x73
 1582 01c2 7C       		.sleb128 -4
 1583 01c3 9F       		.byte	0x9f
 1584 01c4 10000000 		.4byte	.LVL2
 1585 01c8 16000000 		.4byte	.LVL4
 1586 01cc 0100     		.2byte	0x1
 1587 01ce 53       		.byte	0x53
 1588 01cf 16000000 		.4byte	.LVL4
 1589 01d3 1C000000 		.4byte	.LVL5
 1590 01d7 0300     		.2byte	0x3
 1591 01d9 73       		.byte	0x73
 1592 01da 7C       		.sleb128 -4
ARM GAS  /var/folders/6q/x_mk5n_j3p7_c40r_2k_78980000gn/T//ccZUHTwE.s 			page 29


 1593 01db 9F       		.byte	0x9f
 1594 01dc 00000000 		.4byte	0
 1595 01e0 00000000 		.4byte	0
 1596              	.LLST4:
 1597 01e4 00000000 		.4byte	.LVL0
 1598 01e8 0C000000 		.4byte	.LVL1
 1599 01ec 0300     		.2byte	0x3
 1600 01ee 09       		.byte	0x9
 1601 01ef FF       		.byte	0xff
 1602 01f0 9F       		.byte	0x9f
 1603 01f1 0C000000 		.4byte	.LVL1
 1604 01f5 1C000000 		.4byte	.LVL5
 1605 01f9 0100     		.2byte	0x1
 1606 01fb 52       		.byte	0x52
 1607 01fc 00000000 		.4byte	0
 1608 0200 00000000 		.4byte	0
 1609              	.LLST5:
 1610 0204 00000000 		.4byte	.LVL0
 1611 0208 0C000000 		.4byte	.LVL1
 1612 020c 0200     		.2byte	0x2
 1613 020e 30       		.byte	0x30
 1614 020f 9F       		.byte	0x9f
 1615 0210 0C000000 		.4byte	.LVL1
 1616 0214 1C000000 		.4byte	.LVL5
 1617 0218 0300     		.2byte	0x3
 1618 021a 72       		.byte	0x72
 1619 021b 01       		.sleb128 1
 1620 021c 9F       		.byte	0x9f
 1621 021d 00000000 		.4byte	0
 1622 0221 00000000 		.4byte	0
 1623              	.LLST6:
 1624 0225 00000000 		.4byte	.LVL21
 1625 0229 21000000 		.4byte	.LVL22-1
 1626 022d 0100     		.2byte	0x1
 1627 022f 50       		.byte	0x50
 1628 0230 21000000 		.4byte	.LVL22-1
 1629 0234 9C000000 		.4byte	.LVL37
 1630 0238 0100     		.2byte	0x1
 1631 023a 56       		.byte	0x56
 1632 023b 9C000000 		.4byte	.LVL37
 1633 023f A0000000 		.4byte	.LVL38
 1634 0243 0400     		.2byte	0x4
 1635 0245 F3       		.byte	0xf3
 1636 0246 01       		.uleb128 0x1
 1637 0247 50       		.byte	0x50
 1638 0248 9F       		.byte	0x9f
 1639 0249 A0000000 		.4byte	.LVL38
 1640 024d C2000000 		.4byte	.LVL42
 1641 0251 0100     		.2byte	0x1
 1642 0253 56       		.byte	0x56
 1643 0254 C2000000 		.4byte	.LVL42
 1644 0258 C6000000 		.4byte	.LVL43
 1645 025c 0100     		.2byte	0x1
 1646 025e 50       		.byte	0x50
 1647 025f C6000000 		.4byte	.LVL43
 1648 0263 C8000000 		.4byte	.LVL44
 1649 0267 0400     		.2byte	0x4
ARM GAS  /var/folders/6q/x_mk5n_j3p7_c40r_2k_78980000gn/T//ccZUHTwE.s 			page 30


 1650 0269 F3       		.byte	0xf3
 1651 026a 01       		.uleb128 0x1
 1652 026b 50       		.byte	0x50
 1653 026c 9F       		.byte	0x9f
 1654 026d C8000000 		.4byte	.LVL44
 1655 0271 CE000000 		.4byte	.LVL45
 1656 0275 0100     		.2byte	0x1
 1657 0277 56       		.byte	0x56
 1658 0278 CE000000 		.4byte	.LVL45
 1659 027c D2000000 		.4byte	.LVL46
 1660 0280 0100     		.2byte	0x1
 1661 0282 50       		.byte	0x50
 1662 0283 D2000000 		.4byte	.LVL46
 1663 0287 E4000000 		.4byte	.LFE65
 1664 028b 0400     		.2byte	0x4
 1665 028d F3       		.byte	0xf3
 1666 028e 01       		.uleb128 0x1
 1667 028f 50       		.byte	0x50
 1668 0290 9F       		.byte	0x9f
 1669 0291 00000000 		.4byte	0
 1670 0295 00000000 		.4byte	0
 1671              	.LLST7:
 1672 0299 00000000 		.4byte	.LVL21
 1673 029d 52000000 		.4byte	.LVL29
 1674 02a1 0600     		.2byte	0x6
 1675 02a3 0C       		.byte	0xc
 1676 02a4 00F00508 		.4byte	0x805f000
 1677 02a8 9F       		.byte	0x9f
 1678 02a9 52000000 		.4byte	.LVL29
 1679 02ad 5C000000 		.4byte	.LVL31
 1680 02b1 0B00     		.2byte	0xb
 1681 02b3 76       		.byte	0x76
 1682 02b4 20       		.sleb128 32
 1683 02b5 06       		.byte	0x6
 1684 02b6 23       		.byte	0x23
 1685 02b7 88DF8002 		.uleb128 0x402f88
 1686 02bb 35       		.byte	0x35
 1687 02bc 24       		.byte	0x24
 1688 02bd 9F       		.byte	0x9f
 1689 02be 5E000000 		.4byte	.LVL32
 1690 02c2 65000000 		.4byte	.LVL34-1
 1691 02c6 0100     		.2byte	0x1
 1692 02c8 50       		.byte	0x50
 1693 02c9 65000000 		.4byte	.LVL34-1
 1694 02cd 66000000 		.4byte	.LVL34
 1695 02d1 0800     		.2byte	0x8
 1696 02d3 74       		.byte	0x74
 1697 02d4 00       		.sleb128 0
 1698 02d5 75       		.byte	0x75
 1699 02d6 00       		.sleb128 0
 1700 02d7 22       		.byte	0x22
 1701 02d8 34       		.byte	0x34
 1702 02d9 1C       		.byte	0x1c
 1703 02da 9F       		.byte	0x9f
 1704 02db 78000000 		.4byte	.LVL35
 1705 02df 89000000 		.4byte	.LVL36-1
 1706 02e3 0B00     		.2byte	0xb
ARM GAS  /var/folders/6q/x_mk5n_j3p7_c40r_2k_78980000gn/T//ccZUHTwE.s 			page 31


 1707 02e5 76       		.byte	0x76
 1708 02e6 20       		.sleb128 32
 1709 02e7 06       		.byte	0x6
 1710 02e8 23       		.byte	0x23
 1711 02e9 80F88510 		.uleb128 0x2017c00
 1712 02ed 32       		.byte	0x32
 1713 02ee 24       		.byte	0x24
 1714 02ef 9F       		.byte	0x9f
 1715 02f0 A0000000 		.4byte	.LVL38
 1716 02f4 BC000000 		.4byte	.LVL40
 1717 02f8 0600     		.2byte	0x6
 1718 02fa 0C       		.byte	0xc
 1719 02fb 00F00508 		.4byte	0x805f000
 1720 02ff 9F       		.byte	0x9f
 1721 0300 C2000000 		.4byte	.LVL42
 1722 0304 E4000000 		.4byte	.LFE65
 1723 0308 0600     		.2byte	0x6
 1724 030a 0C       		.byte	0xc
 1725 030b 00F00508 		.4byte	0x805f000
 1726 030f 9F       		.byte	0x9f
 1727 0310 00000000 		.4byte	0
 1728 0314 00000000 		.4byte	0
 1729              	.LLST8:
 1730 0318 56000000 		.4byte	.LVL30
 1731 031c 5C000000 		.4byte	.LVL31
 1732 0320 0100     		.2byte	0x1
 1733 0322 56       		.byte	0x56
 1734 0323 5C000000 		.4byte	.LVL31
 1735 0327 62000000 		.4byte	.LVL33
 1736 032b 0100     		.2byte	0x1
 1737 032d 54       		.byte	0x54
 1738 032e 62000000 		.4byte	.LVL33
 1739 0332 66000000 		.4byte	.LVL34
 1740 0336 0300     		.2byte	0x3
 1741 0338 74       		.byte	0x74
 1742 0339 7C       		.sleb128 -4
 1743 033a 9F       		.byte	0x9f
 1744 033b 66000000 		.4byte	.LVL34
 1745 033f 78000000 		.4byte	.LVL35
 1746 0343 0100     		.2byte	0x1
 1747 0345 54       		.byte	0x54
 1748 0346 BC000000 		.4byte	.LVL40
 1749 034a C0000000 		.4byte	.LVL41
 1750 034e 0100     		.2byte	0x1
 1751 0350 54       		.byte	0x54
 1752 0351 00000000 		.4byte	0
 1753 0355 00000000 		.4byte	0
 1754              	.LLST9:
 1755 0359 56000000 		.4byte	.LVL30
 1756 035d 5C000000 		.4byte	.LVL31
 1757 0361 0200     		.2byte	0x2
 1758 0363 30       		.byte	0x30
 1759 0364 9F       		.byte	0x9f
 1760 0365 00000000 		.4byte	0
 1761 0369 00000000 		.4byte	0
 1762              	.LLST10:
 1763 036d 00000000 		.4byte	.LVL21
ARM GAS  /var/folders/6q/x_mk5n_j3p7_c40r_2k_78980000gn/T//ccZUHTwE.s 			page 32


 1764 0371 78000000 		.4byte	.LVL35
 1765 0375 0200     		.2byte	0x2
 1766 0377 31       		.byte	0x31
 1767 0378 9F       		.byte	0x9f
 1768 0379 78000000 		.4byte	.LVL35
 1769 037d 9C000000 		.4byte	.LVL37
 1770 0381 0100     		.2byte	0x1
 1771 0383 54       		.byte	0x54
 1772 0384 A0000000 		.4byte	.LVL38
 1773 0388 E4000000 		.4byte	.LFE65
 1774 038c 0200     		.2byte	0x2
 1775 038e 31       		.byte	0x31
 1776 038f 9F       		.byte	0x9f
 1777 0390 00000000 		.4byte	0
 1778 0394 00000000 		.4byte	0
 1779              	.LLST11:
 1780 0398 28000000 		.4byte	.LVL23
 1781 039c 32000000 		.4byte	.LVL24
 1782 03a0 0600     		.2byte	0x6
 1783 03a2 0C       		.byte	0xc
 1784 03a3 00F00508 		.4byte	0x805f000
 1785 03a7 9F       		.byte	0x9f
 1786 03a8 32000000 		.4byte	.LVL24
 1787 03ac 36000000 		.4byte	.LVL25
 1788 03b0 0300     		.2byte	0x3
 1789 03b2 73       		.byte	0x73
 1790 03b3 7C       		.sleb128 -4
 1791 03b4 9F       		.byte	0x9f
 1792 03b5 36000000 		.4byte	.LVL25
 1793 03b9 3C000000 		.4byte	.LVL27
 1794 03bd 0100     		.2byte	0x1
 1795 03bf 53       		.byte	0x53
 1796 03c0 3C000000 		.4byte	.LVL27
 1797 03c4 42000000 		.4byte	.LVL28
 1798 03c8 0300     		.2byte	0x3
 1799 03ca 73       		.byte	0x73
 1800 03cb 7C       		.sleb128 -4
 1801 03cc 9F       		.byte	0x9f
 1802 03cd 00000000 		.4byte	0
 1803 03d1 00000000 		.4byte	0
 1804              	.LLST12:
 1805 03d5 28000000 		.4byte	.LVL23
 1806 03d9 32000000 		.4byte	.LVL24
 1807 03dd 0300     		.2byte	0x3
 1808 03df 09       		.byte	0x9
 1809 03e0 FF       		.byte	0xff
 1810 03e1 9F       		.byte	0x9f
 1811 03e2 32000000 		.4byte	.LVL24
 1812 03e6 42000000 		.4byte	.LVL28
 1813 03ea 0100     		.2byte	0x1
 1814 03ec 52       		.byte	0x52
 1815 03ed 00000000 		.4byte	0
 1816 03f1 00000000 		.4byte	0
 1817              	.LLST13:
 1818 03f5 28000000 		.4byte	.LVL23
 1819 03f9 32000000 		.4byte	.LVL24
 1820 03fd 0200     		.2byte	0x2
ARM GAS  /var/folders/6q/x_mk5n_j3p7_c40r_2k_78980000gn/T//ccZUHTwE.s 			page 33


 1821 03ff 30       		.byte	0x30
 1822 0400 9F       		.byte	0x9f
 1823 0401 32000000 		.4byte	.LVL24
 1824 0405 42000000 		.4byte	.LVL28
 1825 0409 0300     		.2byte	0x3
 1826 040b 72       		.byte	0x72
 1827 040c 01       		.sleb128 1
 1828 040d 9F       		.byte	0x9f
 1829 040e 00000000 		.4byte	0
 1830 0412 00000000 		.4byte	0
 1831              		.section	.debug_aranges,"",%progbits
 1832 0000 2C000000 		.4byte	0x2c
 1833 0004 0200     		.2byte	0x2
 1834 0006 00000000 		.4byte	.Ldebug_info0
 1835 000a 04       		.byte	0x4
 1836 000b 00       		.byte	0
 1837 000c 0000     		.2byte	0
 1838 000e 0000     		.2byte	0
 1839 0010 00000000 		.4byte	.LFB64
 1840 0014 78000000 		.4byte	.LFE64-.LFB64
 1841 0018 00000000 		.4byte	.LFB65
 1842 001c E4000000 		.4byte	.LFE65-.LFB65
 1843 0020 00000000 		.4byte	.LFB66
 1844 0024 48000000 		.4byte	.LFE66-.LFB66
 1845 0028 00000000 		.4byte	0
 1846 002c 00000000 		.4byte	0
 1847              		.section	.debug_ranges,"",%progbits
 1848              	.Ldebug_ranges0:
 1849 0000 00000000 		.4byte	.LFB64
 1850 0004 78000000 		.4byte	.LFE64
 1851 0008 00000000 		.4byte	.LFB65
 1852 000c E4000000 		.4byte	.LFE65
 1853 0010 00000000 		.4byte	.LFB66
 1854 0014 48000000 		.4byte	.LFE66
 1855 0018 00000000 		.4byte	0
 1856 001c 00000000 		.4byte	0
 1857              		.section	.debug_line,"",%progbits
 1858              	.Ldebug_line0:
 1859 0000 6B020000 		.section	.debug_str,"MS",%progbits,1
 1859      0200A201 
 1859      00000201 
 1859      FB0E0D00 
 1859      01010101 
 1860              	.LASF21:
 1861 0000 6B566578 		.ascii	"kVexDigital_None\000"
 1861      44696769 
 1861      74616C5F 
 1861      4E6F6E65 
 1861      00
 1862              	.LASF46:
 1863 0011 6B496D65 		.ascii	"kImeChannelNone\000"
 1863      4368616E 
 1863      6E656C4E 
 1863      6F6E6500 
 1864              	.LASF57:
 1865 0021 76657846 		.ascii	"vexFlashUserParamRead\000"
 1865      6C617368 
ARM GAS  /var/folders/6q/x_mk5n_j3p7_c40r_2k_78980000gn/T//ccZUHTwE.s 			page 34


 1865      55736572 
 1865      50617261 
 1865      6D526561 
 1866              	.LASF37:
 1867 0037 6B496D65 		.ascii	"kImeChannel_1\000"
 1867      4368616E 
 1867      6E656C5F 
 1867      3100
 1868              	.LASF38:
 1869 0045 6B496D65 		.ascii	"kImeChannel_2\000"
 1869      4368616E 
 1869      6E656C5F 
 1869      3200
 1870              	.LASF39:
 1871 0053 6B496D65 		.ascii	"kImeChannel_3\000"
 1871      4368616E 
 1871      6E656C5F 
 1871      3300
 1872              	.LASF40:
 1873 0061 6B496D65 		.ascii	"kImeChannel_4\000"
 1873      4368616E 
 1873      6E656C5F 
 1873      3400
 1874              	.LASF41:
 1875 006f 6B496D65 		.ascii	"kImeChannel_5\000"
 1875      4368616E 
 1875      6E656C5F 
 1875      3500
 1876              	.LASF42:
 1877 007d 6B496D65 		.ascii	"kImeChannel_6\000"
 1877      4368616E 
 1877      6E656C5F 
 1877      3600
 1878              	.LASF43:
 1879 008b 6B496D65 		.ascii	"kImeChannel_7\000"
 1879      4368616E 
 1879      6E656C5F 
 1879      3700
 1880              	.LASF44:
 1881 0099 6B496D65 		.ascii	"kImeChannel_8\000"
 1881      4368616E 
 1881      6E656C5F 
 1881      3800
 1882              	.LASF5:
 1883 00a7 73686F72 		.ascii	"short int\000"
 1883      7420696E 
 1883      7400
 1884              	.LASF62:
 1885 00b1 65726173 		.ascii	"erase_done\000"
 1885      655F646F 
 1885      6E6500
 1886              	.LASF19:
 1887 00bc 73697A65 		.ascii	"sizetype\000"
 1887      74797065 
 1887      00
 1888              	.LASF45:
 1889 00c5 6B496D65 		.ascii	"kImeTotal\000"
ARM GAS  /var/folders/6q/x_mk5n_j3p7_c40r_2k_78980000gn/T//ccZUHTwE.s 			page 35


 1889      546F7461 
 1889      6C00
 1890              	.LASF61:
 1891 00cf 76657846 		.ascii	"vexFlashUserParamInit\000"
 1891      6C617368 
 1891      55736572 
 1891      50617261 
 1891      6D496E69 
 1892              	.LASF11:
 1893 00e5 5F5F7569 		.ascii	"__uint32_t\000"
 1893      6E743332 
 1893      5F7400
 1894              	.LASF7:
 1895 00f0 5F5F7569 		.ascii	"__uint16_t\000"
 1895      6E743136 
 1895      5F7400
 1896              	.LASF49:
 1897 00fb 464C4153 		.ascii	"FLASH_ERROR_WRP\000"
 1897      485F4552 
 1897      524F525F 
 1897      57525000 
 1898              	.LASF36:
 1899 010b 6B566578 		.ascii	"kVexDigitalOutput\000"
 1899      44696769 
 1899      74616C4F 
 1899      75747075 
 1899      7400
 1900              	.LASF71:
 1901 011d 5F757365 		.ascii	"_user_param\000"
 1901      725F7061 
 1901      72616D00 
 1902              	.LASF68:
 1903 0129 474E5520 		.ascii	"GNU C11 5.4.1 20160919 (release) [ARM/embedded-5-br"
 1903      43313120 
 1903      352E342E 
 1903      31203230 
 1903      31363039 
 1904 015c 616E6368 		.ascii	"anch revision 240496] -mcpu=cortex-m3 -mno-thumb-in"
 1904      20726576 
 1904      6973696F 
 1904      6E203234 
 1904      30343936 
 1905 018f 74657277 		.ascii	"terwork -mthumb -ggdb -O2 -fomit-frame-pointer -fal"
 1905      6F726B20 
 1905      2D6D7468 
 1905      756D6220 
 1905      2D676764 
 1906 01c2 69676E2D 		.ascii	"ign-functions=16 -ffunction-sections -fdata-section"
 1906      66756E63 
 1906      74696F6E 
 1906      733D3136 
 1906      202D6666 
 1907 01f5 73202D66 		.ascii	"s -fno-common\000"
 1907      6E6F2D63 
 1907      6F6D6D6F 
 1907      6E00
 1908              	.LASF52:
ARM GAS  /var/folders/6q/x_mk5n_j3p7_c40r_2k_78980000gn/T//ccZUHTwE.s 			page 36


 1909 0203 464C4153 		.ascii	"FLASH_Status\000"
 1909      485F5374 
 1909      61747573 
 1909      00
 1910              	.LASF31:
 1911 0210 6B566578 		.ascii	"kVexDigital_10\000"
 1911      44696769 
 1911      74616C5F 
 1911      313000
 1912              	.LASF32:
 1913 021f 6B566578 		.ascii	"kVexDigital_11\000"
 1913      44696769 
 1913      74616C5F 
 1913      313100
 1914              	.LASF33:
 1915 022e 6B566578 		.ascii	"kVexDigital_12\000"
 1915      44696769 
 1915      74616C5F 
 1915      313200
 1916              	.LASF67:
 1917 023d 464C4153 		.ascii	"FLASH_ErasePage\000"
 1917      485F4572 
 1917      61736550 
 1917      61676500 
 1918              	.LASF64:
 1919 024d 464C4153 		.ascii	"FLASH_UnlockBank1\000"
 1919      485F556E 
 1919      6C6F636B 
 1919      42616E6B 
 1919      3100
 1920              	.LASF56:
 1921 025f 75736572 		.ascii	"user_param\000"
 1921      5F706172 
 1921      616D00
 1922              	.LASF1:
 1923 026a 6C6F6E67 		.ascii	"long long int\000"
 1923      206C6F6E 
 1923      6720696E 
 1923      7400
 1924              	.LASF69:
 1925 0278 2E2E2F63 		.ascii	"../convex-vexilla/cortex/opt/vexflash.c\000"
 1925      6F6E7665 
 1925      782D7665 
 1925      78696C6C 
 1925      612F636F 
 1926              	.LASF10:
 1927 02a0 6C6F6E67 		.ascii	"long int\000"
 1927      20696E74 
 1927      00
 1928              	.LASF55:
 1929 02a9 61646472 		.ascii	"addr\000"
 1929      00
 1930              	.LASF35:
 1931 02ae 6B566578 		.ascii	"kVexDigitalInput\000"
 1931      44696769 
 1931      74616C49 
 1931      6E707574 
ARM GAS  /var/folders/6q/x_mk5n_j3p7_c40r_2k_78980000gn/T//ccZUHTwE.s 			page 37


 1931      00
 1932              	.LASF63:
 1933 02bf 70617261 		.ascii	"params\000"
 1933      6D7300
 1934              	.LASF2:
 1935 02c6 6C6F6E67 		.ascii	"long double\000"
 1935      20646F75 
 1935      626C6500 
 1936              	.LASF48:
 1937 02d2 464C4153 		.ascii	"FLASH_ERROR_PG\000"
 1937      485F4552 
 1937      524F525F 
 1937      504700
 1938              	.LASF4:
 1939 02e1 756E7369 		.ascii	"unsigned char\000"
 1939      676E6564 
 1939      20636861 
 1939      7200
 1940              	.LASF3:
 1941 02ef 7369676E 		.ascii	"signed char\000"
 1941      65642063 
 1941      68617200 
 1942              	.LASF13:
 1943 02fb 6C6F6E67 		.ascii	"long long unsigned int\000"
 1943      206C6F6E 
 1943      6720756E 
 1943      7369676E 
 1943      65642069 
 1944              	.LASF17:
 1945 0312 75696E74 		.ascii	"uint32_t\000"
 1945      33325F74 
 1945      00
 1946              	.LASF65:
 1947 031b 464C4153 		.ascii	"FLASH_ClearFlag\000"
 1947      485F436C 
 1947      65617246 
 1947      6C616700 
 1948              	.LASF24:
 1949 032b 6B566578 		.ascii	"kVexDigital_3\000"
 1949      44696769 
 1949      74616C5F 
 1949      3300
 1950              	.LASF50:
 1951 0339 464C4153 		.ascii	"FLASH_COMPLETE\000"
 1951      485F434F 
 1951      4D504C45 
 1951      544500
 1952              	.LASF47:
 1953 0348 464C4153 		.ascii	"FLASH_BUSY\000"
 1953      485F4255 
 1953      535900
 1954              	.LASF51:
 1955 0353 464C4153 		.ascii	"FLASH_TIMEOUT\000"
 1955      485F5449 
 1955      4D454F55 
 1955      5400
 1956              	.LASF8:
ARM GAS  /var/folders/6q/x_mk5n_j3p7_c40r_2k_78980000gn/T//ccZUHTwE.s 			page 38


 1957 0361 73686F72 		.ascii	"short unsigned int\000"
 1957      7420756E 
 1957      7369676E 
 1957      65642069 
 1957      6E7400
 1958              	.LASF54:
 1959 0374 6F666673 		.ascii	"offset\000"
 1959      657400
 1960              	.LASF20:
 1961 037b 63686172 		.ascii	"char\000"
 1961      00
 1962              	.LASF15:
 1963 0380 75696E74 		.ascii	"uint16_t\000"
 1963      31365F74 
 1963      00
 1964              	.LASF22:
 1965 0389 6B566578 		.ascii	"kVexDigital_1\000"
 1965      44696769 
 1965      74616C5F 
 1965      3100
 1966              	.LASF23:
 1967 0397 6B566578 		.ascii	"kVexDigital_2\000"
 1967      44696769 
 1967      74616C5F 
 1967      3200
 1968              	.LASF16:
 1969 03a5 696E7433 		.ascii	"int32_t\000"
 1969      325F7400 
 1970              	.LASF25:
 1971 03ad 6B566578 		.ascii	"kVexDigital_4\000"
 1971      44696769 
 1971      74616C5F 
 1971      3400
 1972              	.LASF26:
 1973 03bb 6B566578 		.ascii	"kVexDigital_5\000"
 1973      44696769 
 1973      74616C5F 
 1973      3500
 1974              	.LASF27:
 1975 03c9 6B566578 		.ascii	"kVexDigital_6\000"
 1975      44696769 
 1975      74616C5F 
 1975      3600
 1976              	.LASF28:
 1977 03d7 6B566578 		.ascii	"kVexDigital_7\000"
 1977      44696769 
 1977      74616C5F 
 1977      3700
 1978              	.LASF29:
 1979 03e5 6B566578 		.ascii	"kVexDigital_8\000"
 1979      44696769 
 1979      74616C5F 
 1979      3800
 1980              	.LASF30:
 1981 03f3 6B566578 		.ascii	"kVexDigital_9\000"
 1981      44696769 
 1981      74616C5F 
ARM GAS  /var/folders/6q/x_mk5n_j3p7_c40r_2k_78980000gn/T//ccZUHTwE.s 			page 39


 1981      3900
 1982              	.LASF18:
 1983 0401 5F426F6F 		.ascii	"_Bool\000"
 1983      6C00
 1984              	.LASF53:
 1985 0407 64617461 		.ascii	"data\000"
 1985      00
 1986              	.LASF12:
 1987 040c 6C6F6E67 		.ascii	"long unsigned int\000"
 1987      20756E73 
 1987      69676E65 
 1987      6420696E 
 1987      7400
 1988              	.LASF9:
 1989 041e 5F5F696E 		.ascii	"__int32_t\000"
 1989      7433325F 
 1989      7400
 1990              	.LASF6:
 1991 0428 5F5F696E 		.ascii	"__int16_t\000"
 1991      7431365F 
 1991      7400
 1992              	.LASF60:
 1993 0432 464C4153 		.ascii	"FLASHStatus\000"
 1993      48537461 
 1993      74757300 
 1994              	.LASF59:
 1995 043e 75736572 		.ascii	"user_param_write_limit\000"
 1995      5F706172 
 1995      616D5F77 
 1995      72697465 
 1995      5F6C696D 
 1996              	.LASF34:
 1997 0455 6B566578 		.ascii	"kVexDigital_Num\000"
 1997      44696769 
 1997      74616C5F 
 1997      4E756D00 
 1998              	.LASF66:
 1999 0465 464C4153 		.ascii	"FLASH_ProgramWord\000"
 1999      485F5072 
 1999      6F677261 
 1999      6D576F72 
 1999      6400
 2000              	.LASF14:
 2001 0477 696E7431 		.ascii	"int16_t\000"
 2001      365F7400 
 2002              	.LASF73:
 2003 047f 49544D5F 		.ascii	"ITM_RxBuffer\000"
 2003      52784275 
 2003      66666572 
 2003      00
 2004              	.LASF0:
 2005 048c 756E7369 		.ascii	"unsigned int\000"
 2005      676E6564 
 2005      20696E74 
 2005      00
 2006              	.LASF58:
 2007 0499 76657846 		.ascii	"vexFlashUserParamWrite\000"
ARM GAS  /var/folders/6q/x_mk5n_j3p7_c40r_2k_78980000gn/T//ccZUHTwE.s 			page 40


 2007      6C617368 
 2007      55736572 
 2007      50617261 
 2007      6D577269 
 2008              	.LASF70:
 2009 04b0 2F557365 		.ascii	"/Users/Luca/src/vexilla/src/teamA\000"
 2009      72732F4C 
 2009      7563612F 
 2009      7372632F 
 2009      76657869 
 2010              	.LASF72:
 2011 04d2 76657846 		.ascii	"vexFlashUserParamGetOffset\000"
 2011      6C617368 
 2011      55736572 
 2011      50617261 
 2011      6D476574 
 2012              		.ident	"GCC: (GNU Tools for ARM Embedded Processors) 5.4.1 20160919 (release) [ARM/embedded-5-bran
ARM GAS  /var/folders/6q/x_mk5n_j3p7_c40r_2k_78980000gn/T//ccZUHTwE.s 			page 41


DEFINED SYMBOLS
                            *ABS*:0000000000000000 vexflash.c
/var/folders/6q/x_mk5n_j3p7_c40r_2k_78980000gn/T//ccZUHTwE.s:20     .text.vexFlashUserParamRead:0000000000000000 $t
/var/folders/6q/x_mk5n_j3p7_c40r_2k_78980000gn/T//ccZUHTwE.s:26     .text.vexFlashUserParamRead:0000000000000000 vexFlashUserParamRead
/var/folders/6q/x_mk5n_j3p7_c40r_2k_78980000gn/T//ccZUHTwE.s:144    .text.vexFlashUserParamRead:0000000000000064 $d
/var/folders/6q/x_mk5n_j3p7_c40r_2k_78980000gn/T//ccZUHTwE.s:153    .text.vexFlashUserParamWrite:0000000000000000 $t
/var/folders/6q/x_mk5n_j3p7_c40r_2k_78980000gn/T//ccZUHTwE.s:159    .text.vexFlashUserParamWrite:0000000000000000 vexFlashUserParamWrite
/var/folders/6q/x_mk5n_j3p7_c40r_2k_78980000gn/T//ccZUHTwE.s:336    .text.vexFlashUserParamWrite:00000000000000d4 $d
/var/folders/6q/x_mk5n_j3p7_c40r_2k_78980000gn/T//ccZUHTwE.s:344    .text.vexFlashUserParamInit:0000000000000000 $t
/var/folders/6q/x_mk5n_j3p7_c40r_2k_78980000gn/T//ccZUHTwE.s:350    .text.vexFlashUserParamInit:0000000000000000 vexFlashUserParamInit
/var/folders/6q/x_mk5n_j3p7_c40r_2k_78980000gn/T//ccZUHTwE.s:404    .text.vexFlashUserParamInit:0000000000000040 $d
/var/folders/6q/x_mk5n_j3p7_c40r_2k_78980000gn/T//ccZUHTwE.s:410    .bss.erase_done.7546:0000000000000000 $d
/var/folders/6q/x_mk5n_j3p7_c40r_2k_78980000gn/T//ccZUHTwE.s:414    .bss.erase_done.7546:0000000000000000 erase_done.7546
/var/folders/6q/x_mk5n_j3p7_c40r_2k_78980000gn/T//ccZUHTwE.s:417    .bss.params:0000000000000000 $d
/var/folders/6q/x_mk5n_j3p7_c40r_2k_78980000gn/T//ccZUHTwE.s:421    .bss.params:0000000000000000 params
/var/folders/6q/x_mk5n_j3p7_c40r_2k_78980000gn/T//ccZUHTwE.s:424    .bss.user_param_write_limit.7539:0000000000000000 $d
/var/folders/6q/x_mk5n_j3p7_c40r_2k_78980000gn/T//ccZUHTwE.s:428    .bss.user_param_write_limit.7539:0000000000000000 user_param_write_limit.7539
                     .debug_frame:0000000000000010 $d

UNDEFINED SYMBOLS
FLASH_UnlockBank1
FLASH_ClearFlag
FLASH_ProgramWord
FLASH_ErasePage
