ARM GAS  /var/folders/6q/x_mk5n_j3p7_c40r_2k_78980000gn/T//ccJvHgvD.s 			page 1


   1              		.syntax unified
   2              		.cpu cortex-m3
   3              		.fpu softvfp
   4              		.eabi_attribute 20, 1
   5              		.eabi_attribute 21, 1
   6              		.eabi_attribute 23, 3
   7              		.eabi_attribute 24, 1
   8              		.eabi_attribute 25, 1
   9              		.eabi_attribute 26, 1
  10              		.eabi_attribute 30, 2
  11              		.eabi_attribute 34, 1
  12              		.eabi_attribute 18, 4
  13              		.thumb
  14              		.syntax unified
  15              		.file	"vexime.c"
  16              		.text
  17              	.Ltext0:
  18              		.cfi_sections	.debug_frame
  19              		.section	.text.vexImeGetCount,"ax",%progbits
  20              		.align	2
  21              		.p2align 4,,15
  22              		.global	vexImeGetCount
  23              		.thumb
  24              		.thumb_func
  25              		.type	vexImeGetCount, %function
  26              	vexImeGetCount:
  27              	.LFB64:
  28              		.file 1 "../convex-vexilla/cortex/fw/vexime.c"
  29              		.loc 1 85 0
  30              		.cfi_startproc
  31              		@ args = 0, pretend = 0, frame = 0
  32              		@ frame_needed = 0, uses_anonymous_args = 0
  33              		@ link register save eliminated.
  34              	.LVL0:
  35              		.loc 1 86 0
  36 0000 C3B2     		uxtb	r3, r0
  37 0002 072B     		cmp	r3, #7
  38 0004 09D8     		bhi	.L3
  39              	.LVL1:
  40              	.LBB6:
  41              	.LBB7:
  42              		.loc 1 89 0
  43 0006 064B     		ldr	r3, .L6
  44 0008 6C22     		movs	r2, #108
  45 000a 02FB0033 		mla	r3, r2, r0, r3
  46 000e D88B     		ldrh	r0, [r3, #30]
  47              	.LVL2:
  48 0010 20B1     		cbz	r0, .L2
  49              		.loc 1 90 0
  50 0012 5A6E     		ldr	r2, [r3, #100]
  51 0014 986E     		ldr	r0, [r3, #104]
  52 0016 101A     		subs	r0, r2, r0
  53 0018 7047     		bx	lr
  54              	.LVL3:
  55              	.L3:
  56              	.LBE7:
  57              	.LBE6:
ARM GAS  /var/folders/6q/x_mk5n_j3p7_c40r_2k_78980000gn/T//ccJvHgvD.s 			page 2


  58              		.loc 1 87 0
  59 001a 0020     		movs	r0, #0
  60              	.LVL4:
  61              	.L2:
  62              		.loc 1 93 0
  63 001c 7047     		bx	lr
  64              	.L7:
  65 001e 00BF     		.align	2
  66              	.L6:
  67 0020 00000000 		.word	.LANCHOR0
  68              		.cfi_endproc
  69              	.LFE64:
  70              		.size	vexImeGetCount, .-vexImeGetCount
  71              		.section	.text.vexImeSetCount,"ax",%progbits
  72              		.align	2
  73              		.p2align 4,,15
  74              		.global	vexImeSetCount
  75              		.thumb
  76              		.thumb_func
  77              		.type	vexImeSetCount, %function
  78              	vexImeSetCount:
  79              	.LFB65:
  80              		.loc 1 104 0
  81              		.cfi_startproc
  82              		@ args = 0, pretend = 0, frame = 0
  83              		@ frame_needed = 0, uses_anonymous_args = 0
  84              		@ link register save eliminated.
  85              	.LVL5:
  86              		.loc 1 105 0
  87 0000 C3B2     		uxtb	r3, r0
  88 0002 072B     		cmp	r3, #7
  89 0004 08D8     		bhi	.L8
  90              		.loc 1 108 0
  91 0006 054B     		ldr	r3, .L13
  92 0008 6C22     		movs	r2, #108
  93 000a 02FB0030 		mla	r0, r2, r0, r3
  94              	.LVL6:
  95 000e C38B     		ldrh	r3, [r0, #30]
  96 0010 13B1     		cbz	r3, .L8
  97              		.loc 1 109 0
  98 0012 436E     		ldr	r3, [r0, #100]
  99 0014 5B1A     		subs	r3, r3, r1
 100 0016 8366     		str	r3, [r0, #104]
 101              	.L8:
 102 0018 7047     		bx	lr
 103              	.L14:
 104 001a 00BF     		.align	2
 105              	.L13:
 106 001c 00000000 		.word	.LANCHOR0
 107              		.cfi_endproc
 108              	.LFE65:
 109              		.size	vexImeSetCount, .-vexImeSetCount
 110              		.section	.text.vexImeGetId,"ax",%progbits
 111              		.align	2
 112              		.p2align 4,,15
 113              		.global	vexImeGetId
 114              		.thumb
ARM GAS  /var/folders/6q/x_mk5n_j3p7_c40r_2k_78980000gn/T//ccJvHgvD.s 			page 3


 115              		.thumb_func
 116              		.type	vexImeGetId, %function
 117              	vexImeGetId:
 118              	.LFB66:
 119              		.loc 1 123 0
 120              		.cfi_startproc
 121              		@ args = 0, pretend = 0, frame = 0
 122              		@ frame_needed = 0, uses_anonymous_args = 0
 123              		@ link register save eliminated.
 124              	.LVL7:
 125              		.loc 1 124 0
 126 0000 C3B2     		uxtb	r3, r0
 127 0002 072B     		cmp	r3, #7
 128 0004 05D8     		bhi	.L17
 129              		.loc 1 128 0
 130 0006 044B     		ldr	r3, .L18
 131 0008 6C22     		movs	r2, #108
 132 000a 02FB0030 		mla	r0, r2, r0, r3
 133              	.LVL8:
 134 000e 007F     		ldrb	r0, [r0, #28]	@ zero_extendqisi2
 135 0010 7047     		bx	lr
 136              	.LVL9:
 137              	.L17:
 138              		.loc 1 125 0
 139 0012 4FF0FF30 		mov	r0, #-1
 140              	.LVL10:
 141              		.loc 1 129 0
 142 0016 7047     		bx	lr
 143              	.L19:
 144              		.align	2
 145              	.L18:
 146 0018 00000000 		.word	.LANCHOR0
 147              		.cfi_endproc
 148              	.LFE66:
 149              		.size	vexImeGetId, .-vexImeGetId
 150              		.section	.text.vexImeGetPtr,"ax",%progbits
 151              		.align	2
 152              		.p2align 4,,15
 153              		.global	vexImeGetPtr
 154              		.thumb
 155              		.thumb_func
 156              		.type	vexImeGetPtr, %function
 157              	vexImeGetPtr:
 158              	.LFB67:
 159              		.loc 1 139 0
 160              		.cfi_startproc
 161              		@ args = 0, pretend = 0, frame = 0
 162              		@ frame_needed = 0, uses_anonymous_args = 0
 163              		@ link register save eliminated.
 164              	.LVL11:
 165              		.loc 1 140 0
 166 0000 0728     		cmp	r0, #7
 167 0002 05D8     		bhi	.L22
 168              		.loc 1 144 0
 169 0004 034B     		ldr	r3, .L23
 170 0006 6C22     		movs	r2, #108
 171 0008 02FB0030 		mla	r0, r2, r0, r3
ARM GAS  /var/folders/6q/x_mk5n_j3p7_c40r_2k_78980000gn/T//ccJvHgvD.s 			page 4


 172              	.LVL12:
 173 000c 1C30     		adds	r0, r0, #28
 174 000e 7047     		bx	lr
 175              	.LVL13:
 176              	.L22:
 177              		.loc 1 141 0
 178 0010 0020     		movs	r0, #0
 179              	.LVL14:
 180              		.loc 1 145 0
 181 0012 7047     		bx	lr
 182              	.L24:
 183              		.align	2
 184              	.L23:
 185 0014 00000000 		.word	.LANCHOR0
 186              		.cfi_endproc
 187              	.LFE67:
 188              		.size	vexImeGetPtr, .-vexImeGetPtr
 189              		.section	.text.vexImeGetChannelMax,"ax",%progbits
 190              		.align	2
 191              		.p2align 4,,15
 192              		.global	vexImeGetChannelMax
 193              		.thumb
 194              		.thumb_func
 195              		.type	vexImeGetChannelMax, %function
 196              	vexImeGetChannelMax:
 197              	.LFB68:
 198              		.loc 1 154 0
 199              		.cfi_startproc
 200              		@ args = 0, pretend = 0, frame = 0
 201              		@ frame_needed = 0, uses_anonymous_args = 0
 202              		@ link register save eliminated.
 203              		.loc 1 155 0
 204 0000 014B     		ldr	r3, .L26
 205              		.loc 1 156 0
 206 0002 B3F90800 		ldrsh	r0, [r3, #8]
 207 0006 7047     		bx	lr
 208              	.L27:
 209              		.align	2
 210              	.L26:
 211 0008 00000000 		.word	.LANCHOR0
 212              		.cfi_endproc
 213              	.LFE68:
 214              		.size	vexImeGetChannelMax, .-vexImeGetChannelMax
 215              		.section	.text.vexImeSetType,"ax",%progbits
 216              		.align	2
 217              		.p2align 4,,15
 218              		.global	vexImeSetType
 219              		.thumb
 220              		.thumb_func
 221              		.type	vexImeSetType, %function
 222              	vexImeSetType:
 223              	.LFB69:
 224              		.loc 1 169 0
 225              		.cfi_startproc
 226              		@ args = 0, pretend = 0, frame = 0
 227              		@ frame_needed = 0, uses_anonymous_args = 0
 228              		@ link register save eliminated.
ARM GAS  /var/folders/6q/x_mk5n_j3p7_c40r_2k_78980000gn/T//ccJvHgvD.s 			page 5


 229              	.LVL15:
 230              		.loc 1 170 0
 231 0000 0728     		cmp	r0, #7
 232 0002 0CD8     		bhi	.L28
 233              		.loc 1 189 0
 234 0004 0C4B     		ldr	r3, .L36
 235 0006 6C22     		movs	r2, #108
 236              		.loc 1 174 0
 237 0008 0139     		subs	r1, r1, #1
 238              	.LVL16:
 239              		.loc 1 189 0
 240 000a 02FB0030 		mla	r0, r2, r0, r3
 241              	.LVL17:
 242              		.loc 1 174 0
 243 000e 0329     		cmp	r1, #3
 244 0010 03D8     		bhi	.L30
 245 0012 DFE801F0 		tbb	[pc, r1]
 246              	.L32:
 247 0016 08       		.byte	(.L31-.L32)/2
 248 0017 0B       		.byte	(.L33-.L32)/2
 249 0018 0E       		.byte	(.L34-.L32)/2
 250 0019 05       		.byte	(.L35-.L32)/2
 251              		.p2align 1
 252              	.L30:
 253              		.loc 1 189 0
 254 001a 1023     		movs	r3, #16
 255 001c 4377     		strb	r3, [r0, #29]
 256              	.L28:
 257 001e 7047     		bx	lr
 258              	.L35:
 259              		.loc 1 186 0
 260 0020 0323     		movs	r3, #3
 261 0022 4377     		strb	r3, [r0, #29]
 262              		.loc 1 187 0
 263 0024 7047     		bx	lr
 264              	.L31:
 265              		.loc 1 177 0
 266 0026 0023     		movs	r3, #0
 267 0028 4377     		strb	r3, [r0, #29]
 268              		.loc 1 178 0
 269 002a 7047     		bx	lr
 270              	.L33:
 271              		.loc 1 180 0
 272 002c 0123     		movs	r3, #1
 273 002e 4377     		strb	r3, [r0, #29]
 274              		.loc 1 181 0
 275 0030 7047     		bx	lr
 276              	.L34:
 277              		.loc 1 183 0
 278 0032 0223     		movs	r3, #2
 279 0034 4377     		strb	r3, [r0, #29]
 280              		.loc 1 184 0
 281 0036 7047     		bx	lr
 282              	.L37:
 283              		.align	2
 284              	.L36:
 285 0038 00000000 		.word	.LANCHOR0
ARM GAS  /var/folders/6q/x_mk5n_j3p7_c40r_2k_78980000gn/T//ccJvHgvD.s 			page 6


 286              		.cfi_endproc
 287              	.LFE69:
 288              		.size	vexImeSetType, .-vexImeSetType
 289              		.section	.text.vexImeSetMotor,"ax",%progbits
 290              		.align	2
 291              		.p2align 4,,15
 292              		.global	vexImeSetMotor
 293              		.thumb
 294              		.thumb_func
 295              		.type	vexImeSetMotor, %function
 296              	vexImeSetMotor:
 297              	.LFB70:
 298              		.loc 1 202 0
 299              		.cfi_startproc
 300              		@ args = 0, pretend = 0, frame = 0
 301              		@ frame_needed = 0, uses_anonymous_args = 0
 302              		@ link register save eliminated.
 303              	.LVL18:
 304              		.loc 1 203 0
 305 0000 0728     		cmp	r0, #7
 306 0002 06D8     		bhi	.L38
 307              		.loc 1 205 0
 308 0004 0929     		cmp	r1, #9
 309 0006 04DC     		bgt	.L38
 310              		.loc 1 209 0
 311 0008 024B     		ldr	r3, .L40
 312 000a 6C22     		movs	r2, #108
 313 000c 02FB0030 		mla	r0, r2, r0, r3
 314              	.LVL19:
 315 0010 0184     		strh	r1, [r0, #32]	@ movhi
 316              	.L38:
 317 0012 7047     		bx	lr
 318              	.L41:
 319              		.align	2
 320              	.L40:
 321 0014 00000000 		.word	.LANCHOR0
 322              		.cfi_endproc
 323              	.LFE70:
 324              		.size	vexImeSetMotor, .-vexImeSetMotor
 325              		.section	.text.vexImeMotorGetCount,"ax",%progbits
 326              		.align	2
 327              		.p2align 4,,15
 328              		.global	vexImeMotorGetCount
 329              		.thumb
 330              		.thumb_func
 331              		.type	vexImeMotorGetCount, %function
 332              	vexImeMotorGetCount:
 333              	.LFB71:
 334              		.loc 1 221 0
 335              		.cfi_startproc
 336              		@ args = 0, pretend = 0, frame = 0
 337              		@ frame_needed = 0, uses_anonymous_args = 0
 338              		@ link register save eliminated.
 339              	.LVL20:
 340              		.loc 1 224 0
 341 0000 0928     		cmp	r0, #9
 342 0002 0DDC     		bgt	.L46
ARM GAS  /var/folders/6q/x_mk5n_j3p7_c40r_2k_78980000gn/T//ccJvHgvD.s 			page 7


 343              		.loc 1 221 0
 344 0004 10B4     		push	{r4}
 345              		.cfi_def_cfa_offset 4
 346              		.cfi_offset 4, -4
 347 0006 0C4C     		ldr	r4, .L52
 348              		.loc 1 224 0
 349 0008 0023     		movs	r3, #0
 350 000a 2246     		mov	r2, r4
 351              	.L45:
 352              	.LVL21:
 353              		.loc 1 230 0
 354 000c 118C     		ldrh	r1, [r2, #32]
 355 000e 6C32     		adds	r2, r2, #108
 356 0010 8142     		cmp	r1, r0
 357 0012 07D0     		beq	.L51
 358 0014 0133     		adds	r3, r3, #1
 359              	.LVL22:
 360              		.loc 1 228 0 discriminator 2
 361 0016 082B     		cmp	r3, #8
 362 0018 F8D1     		bne	.L45
 363              		.loc 1 225 0
 364 001a 0020     		movs	r0, #0
 365              	.LVL23:
 366              	.L43:
 367              		.loc 1 235 0
 368 001c 10BC     		pop	{r4}
 369              		.cfi_restore 4
 370              		.cfi_def_cfa_offset 0
 371 001e 7047     		bx	lr
 372              	.LVL24:
 373              	.L46:
 374              		.loc 1 225 0
 375 0020 0020     		movs	r0, #0
 376              	.LVL25:
 377 0022 7047     		bx	lr
 378              	.LVL26:
 379              	.L51:
 380              		.cfi_def_cfa_offset 4
 381              		.cfi_offset 4, -4
 382              	.LBB12:
 383              	.LBB13:
 384              	.LBB14:
 385              		.loc 1 89 0
 386 0024 6C22     		movs	r2, #108
 387 0026 02FB0343 		mla	r3, r2, r3, r4
 388              	.LVL27:
 389 002a D88B     		ldrh	r0, [r3, #30]
 390              	.LVL28:
 391 002c 0028     		cmp	r0, #0
 392 002e F5D0     		beq	.L43
 393              		.loc 1 90 0
 394 0030 5A6E     		ldr	r2, [r3, #100]
 395 0032 986E     		ldr	r0, [r3, #104]
 396 0034 101A     		subs	r0, r2, r0
 397 0036 F1E7     		b	.L43
 398              	.L53:
 399              		.align	2
ARM GAS  /var/folders/6q/x_mk5n_j3p7_c40r_2k_78980000gn/T//ccJvHgvD.s 			page 8


 400              	.L52:
 401 0038 00000000 		.word	.LANCHOR0
 402              	.LBE14:
 403              	.LBE13:
 404              	.LBE12:
 405              		.cfi_endproc
 406              	.LFE71:
 407              		.size	vexImeMotorGetCount, .-vexImeMotorGetCount
 408              		.section	.text.vexImeInit,"ax",%progbits
 409              		.align	2
 410              		.p2align 4,,15
 411              		.global	vexImeInit
 412              		.thumb
 413              		.thumb_func
 414              		.type	vexImeInit, %function
 415              	vexImeInit:
 416              	.LFB73:
 417              		.loc 1 313 0
 418              		.cfi_startproc
 419              		@ args = 0, pretend = 0, frame = 0
 420              		@ frame_needed = 0, uses_anonymous_args = 0
 421              	.LVL29:
 422 0000 F0B5     		push	{r4, r5, r6, r7, lr}
 423              		.cfi_def_cfa_offset 20
 424              		.cfi_offset 4, -20
 425              		.cfi_offset 5, -16
 426              		.cfi_offset 6, -12
 427              		.cfi_offset 7, -8
 428              		.cfi_offset 14, -4
 429 0002 0646     		mov	r6, r0
 430 0004 0F46     		mov	r7, r1
 431 0006 83B0     		sub	sp, sp, #12
 432              		.cfi_def_cfa_offset 32
 433              		.loc 1 318 0
 434 0008 1249     		ldr	r1, .L58
 435              	.LVL30:
 436 000a FFF7FEFF 		bl	i2cStart
 437              	.LVL31:
 438              		.loc 1 321 0
 439 000e 1249     		ldr	r1, .L58+4
 440              		.loc 1 326 0
 441 0010 0025     		movs	r5, #0
 442 0012 0B46     		mov	r3, r1
 443              		.loc 1 336 0
 444 0014 2A46     		mov	r2, r5
 445              		.loc 1 339 0
 446 0016 4FF6FF74 		movw	r4, #65535
 447              		.loc 1 321 0
 448 001a 81E8C000 		stmia	r1, {r6, r7}
 449 001e 01F55870 		add	r0, r1, #864
 450              		.loc 1 326 0
 451 0022 CD81     		strh	r5, [r1, #14]	@ movhi
 452              		.loc 1 327 0
 453 0024 4D82     		strh	r5, [r1, #18]	@ movhi
 454              		.loc 1 328 0
 455 0026 0D82     		strh	r5, [r1, #16]	@ movhi
 456              		.loc 1 331 0
ARM GAS  /var/folders/6q/x_mk5n_j3p7_c40r_2k_78980000gn/T//ccJvHgvD.s 			page 9


 457 0028 4D83     		strh	r5, [r1, #26]	@ movhi
 458              	.LVL32:
 459              	.L55:
 460              		.loc 1 336 0 discriminator 3
 461 002a 1A77     		strb	r2, [r3, #28]
 462              		.loc 1 337 0 discriminator 3
 463 002c C3F88020 		str	r2, [r3, #128]
 464              		.loc 1 338 0 discriminator 3
 465 0030 C3F88420 		str	r2, [r3, #132]
 466              		.loc 1 339 0 discriminator 3
 467 0034 1C84     		strh	r4, [r3, #32]	@ movhi
 468 0036 6C33     		adds	r3, r3, #108
 469              		.loc 1 334 0 discriminator 3
 470 0038 8342     		cmp	r3, r0
 471              		.loc 1 336 0 discriminator 3
 472 003a 4FF00001 		mov	r1, #0
 473              		.loc 1 334 0 discriminator 3
 474 003e F4D1     		bne	.L55
 475              		.loc 1 343 0
 476 0040 0091     		str	r1, [sp]
 477 0042 064B     		ldr	r3, .L58+8
 478 0044 4922     		movs	r2, #73
 479 0046 4FF42071 		mov	r1, #640
 480 004a 0548     		ldr	r0, .L58+12
 481 004c FFF7FEFF 		bl	chThdCreateStatic
 482              	.LVL33:
 483              		.loc 1 344 0
 484 0050 03B0     		add	sp, sp, #12
 485              		.cfi_def_cfa_offset 20
 486              		@ sp needed
 487 0052 F0BD     		pop	{r4, r5, r6, r7, pc}
 488              	.LVL34:
 489              	.L59:
 490              		.align	2
 491              	.L58:
 492 0054 00000000 		.word	.LANCHOR1
 493 0058 00000000 		.word	.LANCHOR0
 494 005c 00000000 		.word	vexImeTask
 495 0060 00000000 		.word	.LANCHOR2
 496              		.cfi_endproc
 497              	.LFE73:
 498              		.size	vexImeInit, .-vexImeInit
 499              		.section	.text.vexIMEDataInit,"ax",%progbits
 500              		.align	2
 501              		.p2align 4,,15
 502              		.global	vexIMEDataInit
 503              		.thumb
 504              		.thumb_func
 505              		.type	vexIMEDataInit, %function
 506              	vexIMEDataInit:
 507              	.LFB75:
 508              		.loc 1 405 0
 509              		.cfi_startproc
 510              		@ args = 0, pretend = 0, frame = 0
 511              		@ frame_needed = 0, uses_anonymous_args = 0
 512              		@ link register save eliminated.
 513              	.LVL35:
ARM GAS  /var/folders/6q/x_mk5n_j3p7_c40r_2k_78980000gn/T//ccJvHgvD.s 			page 10


 514 0000 F0B4     		push	{r4, r5, r6, r7}
 515              		.cfi_def_cfa_offset 16
 516              		.cfi_offset 4, -16
 517              		.cfi_offset 5, -12
 518              		.cfi_offset 6, -8
 519              		.cfi_offset 7, -4
 520              		.loc 1 407 0
 521 0002 0023     		movs	r3, #0
 522              		.loc 1 406 0
 523 0004 6027     		movs	r7, #96
 524              		.loc 1 416 0
 525 0006 4FF0FE46 		mov	r6, #2130706432
 526              		.loc 1 406 0
 527 000a 0770     		strb	r7, [r0]
 528              		.loc 1 416 0
 529 000c C665     		str	r6, [r0, #92]
 530              		.loc 1 407 0
 531 000e 4380     		strh	r3, [r0, #2]	@ movhi
 532              		.loc 1 409 0
 533 0010 C0F80630 		str	r3, [r0, #6]	@ unaligned
 534 0014 C0F80A30 		str	r3, [r0, #10]	@ unaligned
 535 0018 C0F80E30 		str	r3, [r0, #14]	@ unaligned
 536 001c C0F81230 		str	r3, [r0, #18]	@ unaligned
 537              		.loc 1 410 0
 538 0020 C0F81630 		str	r3, [r0, #22]	@ unaligned
 539 0024 C0F81A30 		str	r3, [r0, #26]	@ unaligned
 540 0028 C0F81E30 		str	r3, [r0, #30]	@ unaligned
 541 002c C0F82230 		str	r3, [r0, #34]	@ unaligned
 542              		.loc 1 411 0
 543 0030 C0F82630 		str	r3, [r0, #38]	@ unaligned
 544 0034 C0F82A30 		str	r3, [r0, #42]	@ unaligned
 545 0038 C0F82E30 		str	r3, [r0, #46]	@ unaligned
 546 003c C0F83230 		str	r3, [r0, #50]	@ unaligned
 547              		.loc 1 412 0
 548 0040 C0F83630 		str	r3, [r0, #54]	@ unaligned
 549 0044 C0F83A30 		str	r3, [r0, #58]	@ unaligned
 550 0048 C0F83E30 		str	r3, [r0, #62]	@ unaligned
 551 004c C0F84230 		str	r3, [r0, #66]	@ unaligned
 552              		.loc 1 414 0
 553 0050 8364     		str	r3, [r0, #72]
 554              		.loc 1 415 0
 555 0052 C364     		str	r3, [r0, #76]
 556              		.loc 1 417 0
 557 0054 0365     		str	r3, [r0, #80]
 558              		.loc 1 418 0
 559 0056 F0BC     		pop	{r4, r5, r6, r7}
 560              		.cfi_restore 7
 561              		.cfi_restore 6
 562              		.cfi_restore 5
 563              		.cfi_restore 4
 564              		.cfi_def_cfa_offset 0
 565 0058 7047     		bx	lr
 566              		.cfi_endproc
 567              	.LFE75:
 568              		.size	vexIMEDataInit, .-vexIMEDataInit
 569 005a 00BF     		.section	.text.vexIMEResetAll,"ax",%progbits
 570              		.align	2
ARM GAS  /var/folders/6q/x_mk5n_j3p7_c40r_2k_78980000gn/T//ccJvHgvD.s 			page 11


 571              		.p2align 4,,15
 572              		.global	vexIMEResetAll
 573              		.thumb
 574              		.thumb_func
 575              		.type	vexIMEResetAll, %function
 576              	vexIMEResetAll:
 577              	.LFB88:
 578              		.loc 1 871 0
 579              		.cfi_startproc
 580              		@ args = 0, pretend = 0, frame = 8
 581              		@ frame_needed = 0, uses_anonymous_args = 0
 582              	.LVL36:
 583 0000 30B5     		push	{r4, r5, lr}
 584              		.cfi_def_cfa_offset 12
 585              		.cfi_offset 4, -12
 586              		.cfi_offset 5, -8
 587              		.cfi_offset 14, -4
 588              		.loc 1 880 0
 589 0002 114C     		ldr	r4, .L64
 590              		.loc 1 871 0
 591 0004 87B0     		sub	sp, sp, #28
 592              		.cfi_def_cfa_offset 40
 593              		.loc 1 876 0
 594 0006 4E22     		movs	r2, #78
 595              		.loc 1 880 0
 596 0008 2068     		ldr	r0, [r4]
 597              		.loc 1 877 0
 598 000a CA23     		movs	r3, #202
 599              		.loc 1 878 0
 600 000c 0325     		movs	r5, #3
 601              		.loc 1 876 0
 602 000e 8DF81420 		strb	r2, [sp, #20]
 603              		.loc 1 877 0
 604 0012 8DF81530 		strb	r3, [sp, #21]
 605              		.loc 1 878 0
 606 0016 8DF81650 		strb	r5, [sp, #22]
 607              		.loc 1 880 0
 608 001a FFF7FEFF 		bl	i2cAcquireBus
 609              	.LVL37:
 610              		.loc 1 881 0
 611 001e 0021     		movs	r1, #0
 612 0020 0422     		movs	r2, #4
 613 0022 2B46     		mov	r3, r5
 614 0024 0191     		str	r1, [sp, #4]
 615 0026 0091     		str	r1, [sp]
 616 0028 0292     		str	r2, [sp, #8]
 617 002a 2068     		ldr	r0, [r4]
 618 002c 05AA     		add	r2, sp, #20
 619 002e FFF7FEFF 		bl	i2cMasterTransmitTimeout
 620              	.LVL38:
 621 0032 0546     		mov	r5, r0
 622              	.LVL39:
 623              		.loc 1 882 0
 624 0034 2068     		ldr	r0, [r4]
 625              	.LVL40:
 626 0036 FFF7FEFF 		bl	i2cReleaseBus
 627              	.LVL41:
ARM GAS  /var/folders/6q/x_mk5n_j3p7_c40r_2k_78980000gn/T//ccJvHgvD.s 			page 12


 628              		.loc 1 885 0
 629 003a 6420     		movs	r0, #100
 630 003c FFF7FEFF 		bl	chThdSleep
 631              	.LVL42:
 632              		.loc 1 888 0
 633 0040 2846     		mov	r0, r5
 634 0042 07B0     		add	sp, sp, #28
 635              		.cfi_def_cfa_offset 12
 636              		@ sp needed
 637 0044 30BD     		pop	{r4, r5, pc}
 638              	.LVL43:
 639              	.L65:
 640 0046 00BF     		.align	2
 641              	.L64:
 642 0048 00000000 		.word	.LANCHOR0
 643              		.cfi_endproc
 644              	.LFE88:
 645              		.size	vexIMEResetAll, .-vexIMEResetAll
 646              		.section	.text.vexIMEHandleErrors,"ax",%progbits
 647              		.align	2
 648              		.p2align 4,,15
 649              		.global	vexIMEHandleErrors
 650              		.thumb
 651              		.thumb_func
 652              		.type	vexIMEHandleErrors, %function
 653              	vexIMEHandleErrors:
 654              	.LFB89:
 655              		.loc 1 900 0
 656              		.cfi_startproc
 657              		@ args = 0, pretend = 0, frame = 0
 658              		@ frame_needed = 0, uses_anonymous_args = 0
 659              	.LVL44:
 660              		.loc 1 903 0
 661 0000 0130     		adds	r0, r0, #1
 662              	.LVL45:
 663              		.loc 1 900 0
 664 0002 38B5     		push	{r3, r4, r5, lr}
 665              		.cfi_def_cfa_offset 16
 666              		.cfi_offset 3, -16
 667              		.cfi_offset 4, -12
 668              		.cfi_offset 5, -8
 669              		.cfi_offset 14, -4
 670              		.loc 1 900 0
 671 0004 0C46     		mov	r4, r1
 672              		.loc 1 903 0
 673 0006 20D0     		beq	.L89
 674              	.LVL46:
 675              	.L67:
 676              		.loc 1 919 0
 677 0008 94B1     		cbz	r4, .L68
 678              		.loc 1 921 0
 679 000a 184B     		ldr	r3, .L90
 680 000c DA8A     		ldrh	r2, [r3, #22]
 681 000e 0132     		adds	r2, r2, #1
 682 0010 92B2     		uxth	r2, r2
 683              		.loc 1 923 0
 684 0012 052A     		cmp	r2, #5
ARM GAS  /var/folders/6q/x_mk5n_j3p7_c40r_2k_78980000gn/T//ccJvHgvD.s 			page 13


 685              		.loc 1 921 0
 686 0014 DA82     		strh	r2, [r3, #22]	@ movhi
 687              		.loc 1 926 0
 688 0016 04BF     		itt	eq
 689 0018 0122     		moveq	r2, #1
 690 001a 1A83     		strheq	r2, [r3, #24]	@ movhi
 691              		.loc 1 931 0
 692 001c 6007     		lsls	r0, r4, #29
 693 001e 02D5     		bpl	.L70
 694              		.loc 1 932 0
 695 0020 DA89     		ldrh	r2, [r3, #14]
 696 0022 0132     		adds	r2, r2, #1
 697 0024 DA81     		strh	r2, [r3, #14]	@ movhi
 698              	.L70:
 699              		.loc 1 933 0
 700 0026 A107     		lsls	r1, r4, #30
 701 0028 02D5     		bpl	.L68
 702              		.loc 1 934 0
 703 002a 5A8A     		ldrh	r2, [r3, #18]
 704 002c 0132     		adds	r2, r2, #1
 705 002e 5A82     		strh	r2, [r3, #18]	@ movhi
 706              	.L68:
 707              		.loc 1 935 0
 708 0030 E207     		lsls	r2, r4, #31
 709 0032 03D5     		bpl	.L71
 710              		.loc 1 936 0
 711 0034 0D4A     		ldr	r2, .L90
 712 0036 138A     		ldrh	r3, [r2, #16]
 713 0038 0133     		adds	r3, r3, #1
 714 003a 1382     		strh	r3, [r2, #16]	@ movhi
 715              	.L71:
 716              		.loc 1 937 0
 717 003c A306     		lsls	r3, r4, #26
 718 003e 03D5     		bpl	.L66
 719              		.loc 1 938 0
 720 0040 0A4A     		ldr	r2, .L90
 721 0042 938A     		ldrh	r3, [r2, #20]
 722 0044 0133     		adds	r3, r3, #1
 723 0046 9382     		strh	r3, [r2, #20]	@ movhi
 724              	.L66:
 725 0048 38BD     		pop	{r3, r4, r5, pc}
 726              	.LVL47:
 727              	.L89:
 728              		.loc 1 906 0
 729 004a 084D     		ldr	r5, .L90
 730 004c AB89     		ldrh	r3, [r5, #12]
 731              		.loc 1 908 0
 732 004e 2868     		ldr	r0, [r5]
 733              		.loc 1 906 0
 734 0050 0133     		adds	r3, r3, #1
 735 0052 AB81     		strh	r3, [r5, #12]	@ movhi
 736              		.loc 1 908 0
 737 0054 FFF7FEFF 		bl	i2cStop
 738              	.LVL48:
 739              		.loc 1 910 0
 740 0058 6420     		movs	r0, #100
 741 005a FFF7FEFF 		bl	chThdSleep
ARM GAS  /var/folders/6q/x_mk5n_j3p7_c40r_2k_78980000gn/T//ccJvHgvD.s 			page 14


 742              	.LVL49:
 743              		.loc 1 912 0
 744 005e 2868     		ldr	r0, [r5]
 745 0060 0349     		ldr	r1, .L90+4
 746 0062 FFF7FEFF 		bl	i2cStart
 747              	.LVL50:
 748              		.loc 1 914 0
 749 0066 0123     		movs	r3, #1
 750 0068 2B83     		strh	r3, [r5, #24]	@ movhi
 751 006a CDE7     		b	.L67
 752              	.L91:
 753              		.align	2
 754              	.L90:
 755 006c 00000000 		.word	.LANCHOR0
 756 0070 00000000 		.word	.LANCHOR1
 757              		.cfi_endproc
 758              	.LFE89:
 759              		.size	vexIMEHandleErrors, .-vexIMEHandleErrors
 760              		.section	.text.vexIMEGetVersion,"ax",%progbits
 761              		.align	2
 762              		.p2align 4,,15
 763              		.global	vexIMEGetVersion
 764              		.thumb
 765              		.thumb_func
 766              		.type	vexIMEGetVersion, %function
 767              	vexIMEGetVersion:
 768              	.LFB77:
 769              		.loc 1 529 0
 770              		.cfi_startproc
 771              		@ args = 0, pretend = 0, frame = 8
 772              		@ frame_needed = 0, uses_anonymous_args = 0
 773              	.LVL51:
 774 0000 2DE9F041 		push	{r4, r5, r6, r7, r8, lr}
 775              		.cfi_def_cfa_offset 24
 776              		.cfi_offset 4, -24
 777              		.cfi_offset 5, -20
 778              		.cfi_offset 6, -16
 779              		.cfi_offset 7, -12
 780              		.cfi_offset 8, -8
 781              		.cfi_offset 14, -4
 782 0004 8846     		mov	r8, r1
 783 0006 0746     		mov	r7, r0
 784              		.loc 1 533 0
 785 0008 124C     		ldr	r4, .L98
 786              		.loc 1 529 0
 787 000a 86B0     		sub	sp, sp, #24
 788              		.cfi_def_cfa_offset 48
 789              		.loc 1 531 0
 790 000c 06AD     		add	r5, sp, #24
 791 000e 0023     		movs	r3, #0
 792              		.loc 1 533 0
 793 0010 2068     		ldr	r0, [r4]
 794              	.LVL52:
 795              		.loc 1 531 0
 796 0012 05F8013D 		strb	r3, [r5, #-1]!
 797              		.loc 1 534 0
 798 0016 0426     		movs	r6, #4
ARM GAS  /var/folders/6q/x_mk5n_j3p7_c40r_2k_78980000gn/T//ccJvHgvD.s 			page 15


 799              		.loc 1 533 0
 800 0018 FFF7FEFF 		bl	i2cAcquireBus
 801              	.LVL53:
 802              		.loc 1 534 0
 803 001c 0823     		movs	r3, #8
 804 001e 2A46     		mov	r2, r5
 805 0020 0193     		str	r3, [sp, #4]
 806 0022 2068     		ldr	r0, [r4]
 807 0024 CDF80080 		str	r8, [sp]
 808 0028 7908     		lsrs	r1, r7, #1
 809 002a 0296     		str	r6, [sp, #8]
 810 002c 0123     		movs	r3, #1
 811 002e FFF7FEFF 		bl	i2cMasterTransmitTimeout
 812              	.LVL54:
 813 0032 0546     		mov	r5, r0
 814              	.LVL55:
 815              		.loc 1 535 0
 816 0034 2068     		ldr	r0, [r4]
 817              	.LVL56:
 818 0036 FFF7FEFF 		bl	i2cReleaseBus
 819              	.LVL57:
 820              		.loc 1 537 0
 821 003a 35B1     		cbz	r5, .L93
 822              		.loc 1 538 0
 823 003c 2068     		ldr	r0, [r4]
 824 003e FFF7FEFF 		bl	i2cGetErrors
 825              	.LVL58:
 826              		.loc 1 539 0
 827 0042 0146     		mov	r1, r0
 828 0044 2846     		mov	r0, r5
 829 0046 FFF7FEFF 		bl	vexIMEHandleErrors
 830              	.LVL59:
 831              	.L93:
 832              		.loc 1 543 0
 833 004a 2846     		mov	r0, r5
 834 004c 06B0     		add	sp, sp, #24
 835              		.cfi_def_cfa_offset 24
 836              		@ sp needed
 837 004e BDE8F081 		pop	{r4, r5, r6, r7, r8, pc}
 838              	.LVL60:
 839              	.L99:
 840 0052 00BF     		.align	2
 841              	.L98:
 842 0054 00000000 		.word	.LANCHOR0
 843              		.cfi_endproc
 844              	.LFE77:
 845              		.size	vexIMEGetVersion, .-vexIMEGetVersion
 846              		.section	.text.vexIMEGetVendor,"ax",%progbits
 847              		.align	2
 848              		.p2align 4,,15
 849              		.global	vexIMEGetVendor
 850              		.thumb
 851              		.thumb_func
 852              		.type	vexIMEGetVendor, %function
 853              	vexIMEGetVendor:
 854              	.LFB78:
 855              		.loc 1 558 0
ARM GAS  /var/folders/6q/x_mk5n_j3p7_c40r_2k_78980000gn/T//ccJvHgvD.s 			page 16


 856              		.cfi_startproc
 857              		@ args = 0, pretend = 0, frame = 8
 858              		@ frame_needed = 0, uses_anonymous_args = 0
 859              	.LVL61:
 860 0000 2DE9F041 		push	{r4, r5, r6, r7, r8, lr}
 861              		.cfi_def_cfa_offset 24
 862              		.cfi_offset 4, -24
 863              		.cfi_offset 5, -20
 864              		.cfi_offset 6, -16
 865              		.cfi_offset 7, -12
 866              		.cfi_offset 8, -8
 867              		.cfi_offset 14, -4
 868 0004 8846     		mov	r8, r1
 869 0006 0746     		mov	r7, r0
 870              		.loc 1 562 0
 871 0008 114C     		ldr	r4, .L106
 872              		.loc 1 558 0
 873 000a 86B0     		sub	sp, sp, #24
 874              		.cfi_def_cfa_offset 48
 875              		.loc 1 560 0
 876 000c 06AD     		add	r5, sp, #24
 877 000e 0826     		movs	r6, #8
 878              		.loc 1 562 0
 879 0010 2068     		ldr	r0, [r4]
 880              	.LVL62:
 881              		.loc 1 560 0
 882 0012 05F8016D 		strb	r6, [r5, #-1]!
 883              		.loc 1 562 0
 884 0016 FFF7FEFF 		bl	i2cAcquireBus
 885              	.LVL63:
 886              		.loc 1 563 0
 887 001a 0423     		movs	r3, #4
 888 001c 2A46     		mov	r2, r5
 889 001e 0293     		str	r3, [sp, #8]
 890 0020 2068     		ldr	r0, [r4]
 891 0022 CDF80080 		str	r8, [sp]
 892 0026 0196     		str	r6, [sp, #4]
 893 0028 7908     		lsrs	r1, r7, #1
 894 002a 0123     		movs	r3, #1
 895 002c FFF7FEFF 		bl	i2cMasterTransmitTimeout
 896              	.LVL64:
 897 0030 0546     		mov	r5, r0
 898              	.LVL65:
 899              		.loc 1 564 0
 900 0032 2068     		ldr	r0, [r4]
 901              	.LVL66:
 902 0034 FFF7FEFF 		bl	i2cReleaseBus
 903              	.LVL67:
 904              		.loc 1 566 0
 905 0038 35B1     		cbz	r5, .L101
 906              		.loc 1 567 0
 907 003a 2068     		ldr	r0, [r4]
 908 003c FFF7FEFF 		bl	i2cGetErrors
 909              	.LVL68:
 910              		.loc 1 568 0
 911 0040 0146     		mov	r1, r0
 912 0042 2846     		mov	r0, r5
ARM GAS  /var/folders/6q/x_mk5n_j3p7_c40r_2k_78980000gn/T//ccJvHgvD.s 			page 17


 913 0044 FFF7FEFF 		bl	vexIMEHandleErrors
 914              	.LVL69:
 915              	.L101:
 916              		.loc 1 572 0
 917 0048 2846     		mov	r0, r5
 918 004a 06B0     		add	sp, sp, #24
 919              		.cfi_def_cfa_offset 24
 920              		@ sp needed
 921 004c BDE8F081 		pop	{r4, r5, r6, r7, r8, pc}
 922              	.LVL70:
 923              	.L107:
 924              		.align	2
 925              	.L106:
 926 0050 00000000 		.word	.LANCHOR0
 927              		.cfi_endproc
 928              	.LFE78:
 929              		.size	vexIMEGetVendor, .-vexIMEGetVendor
 930              		.section	.text.vexIMEGetDeviceId,"ax",%progbits
 931              		.align	2
 932              		.p2align 4,,15
 933              		.global	vexIMEGetDeviceId
 934              		.thumb
 935              		.thumb_func
 936              		.type	vexIMEGetDeviceId, %function
 937              	vexIMEGetDeviceId:
 938              	.LFB79:
 939              		.loc 1 587 0
 940              		.cfi_startproc
 941              		@ args = 0, pretend = 0, frame = 8
 942              		@ frame_needed = 0, uses_anonymous_args = 0
 943              	.LVL71:
 944 0000 2DE9F041 		push	{r4, r5, r6, r7, r8, lr}
 945              		.cfi_def_cfa_offset 24
 946              		.cfi_offset 4, -24
 947              		.cfi_offset 5, -20
 948              		.cfi_offset 6, -16
 949              		.cfi_offset 7, -12
 950              		.cfi_offset 8, -8
 951              		.cfi_offset 14, -4
 952 0004 8846     		mov	r8, r1
 953 0006 0746     		mov	r7, r0
 954              		.loc 1 591 0
 955 0008 124C     		ldr	r4, .L114
 956              		.loc 1 587 0
 957 000a 86B0     		sub	sp, sp, #24
 958              		.cfi_def_cfa_offset 48
 959              		.loc 1 589 0
 960 000c 06AD     		add	r5, sp, #24
 961 000e 1023     		movs	r3, #16
 962              		.loc 1 591 0
 963 0010 2068     		ldr	r0, [r4]
 964              	.LVL72:
 965              		.loc 1 589 0
 966 0012 05F8013D 		strb	r3, [r5, #-1]!
 967              		.loc 1 592 0
 968 0016 0426     		movs	r6, #4
 969              		.loc 1 591 0
ARM GAS  /var/folders/6q/x_mk5n_j3p7_c40r_2k_78980000gn/T//ccJvHgvD.s 			page 18


 970 0018 FFF7FEFF 		bl	i2cAcquireBus
 971              	.LVL73:
 972              		.loc 1 592 0
 973 001c 0823     		movs	r3, #8
 974 001e 2A46     		mov	r2, r5
 975 0020 0193     		str	r3, [sp, #4]
 976 0022 2068     		ldr	r0, [r4]
 977 0024 CDF80080 		str	r8, [sp]
 978 0028 7908     		lsrs	r1, r7, #1
 979 002a 0296     		str	r6, [sp, #8]
 980 002c 0123     		movs	r3, #1
 981 002e FFF7FEFF 		bl	i2cMasterTransmitTimeout
 982              	.LVL74:
 983 0032 0546     		mov	r5, r0
 984              	.LVL75:
 985              		.loc 1 593 0
 986 0034 2068     		ldr	r0, [r4]
 987              	.LVL76:
 988 0036 FFF7FEFF 		bl	i2cReleaseBus
 989              	.LVL77:
 990              		.loc 1 595 0
 991 003a 35B1     		cbz	r5, .L109
 992              		.loc 1 596 0
 993 003c 2068     		ldr	r0, [r4]
 994 003e FFF7FEFF 		bl	i2cGetErrors
 995              	.LVL78:
 996              		.loc 1 597 0
 997 0042 0146     		mov	r1, r0
 998 0044 2846     		mov	r0, r5
 999 0046 FFF7FEFF 		bl	vexIMEHandleErrors
 1000              	.LVL79:
 1001              	.L109:
 1002              		.loc 1 601 0
 1003 004a 2846     		mov	r0, r5
 1004 004c 06B0     		add	sp, sp, #24
 1005              		.cfi_def_cfa_offset 24
 1006              		@ sp needed
 1007 004e BDE8F081 		pop	{r4, r5, r6, r7, r8, pc}
 1008              	.LVL80:
 1009              	.L115:
 1010 0052 00BF     		.align	2
 1011              	.L114:
 1012 0054 00000000 		.word	.LANCHOR0
 1013              		.cfi_endproc
 1014              	.LFE79:
 1015              		.size	vexIMEGetDeviceId, .-vexIMEGetDeviceId
 1016              		.section	.text.vexIMEGetStatus,"ax",%progbits
 1017              		.align	2
 1018              		.p2align 4,,15
 1019              		.global	vexIMEGetStatus
 1020              		.thumb
 1021              		.thumb_func
 1022              		.type	vexIMEGetStatus, %function
 1023              	vexIMEGetStatus:
 1024              	.LFB80:
 1025              		.loc 1 616 0
 1026              		.cfi_startproc
ARM GAS  /var/folders/6q/x_mk5n_j3p7_c40r_2k_78980000gn/T//ccJvHgvD.s 			page 19


 1027              		@ args = 0, pretend = 0, frame = 8
 1028              		@ frame_needed = 0, uses_anonymous_args = 0
 1029              	.LVL81:
 1030 0000 F0B5     		push	{r4, r5, r6, r7, lr}
 1031              		.cfi_def_cfa_offset 20
 1032              		.cfi_offset 4, -20
 1033              		.cfi_offset 5, -16
 1034              		.cfi_offset 6, -12
 1035              		.cfi_offset 7, -8
 1036              		.cfi_offset 14, -4
 1037 0002 0F46     		mov	r7, r1
 1038 0004 0646     		mov	r6, r0
 1039              		.loc 1 620 0
 1040 0006 114C     		ldr	r4, .L122
 1041              		.loc 1 616 0
 1042 0008 87B0     		sub	sp, sp, #28
 1043              		.cfi_def_cfa_offset 48
 1044              		.loc 1 618 0
 1045 000a 06AD     		add	r5, sp, #24
 1046 000c 2023     		movs	r3, #32
 1047              		.loc 1 620 0
 1048 000e 2068     		ldr	r0, [r4]
 1049              	.LVL82:
 1050              		.loc 1 618 0
 1051 0010 05F8013D 		strb	r3, [r5, #-1]!
 1052              		.loc 1 620 0
 1053 0014 FFF7FEFF 		bl	i2cAcquireBus
 1054              	.LVL83:
 1055              		.loc 1 621 0
 1056 0018 0423     		movs	r3, #4
 1057 001a 2A46     		mov	r2, r5
 1058 001c 0293     		str	r3, [sp, #8]
 1059 001e 0193     		str	r3, [sp, #4]
 1060 0020 2068     		ldr	r0, [r4]
 1061 0022 0097     		str	r7, [sp]
 1062 0024 7108     		lsrs	r1, r6, #1
 1063 0026 0123     		movs	r3, #1
 1064 0028 FFF7FEFF 		bl	i2cMasterTransmitTimeout
 1065              	.LVL84:
 1066 002c 0546     		mov	r5, r0
 1067              	.LVL85:
 1068              		.loc 1 622 0
 1069 002e 2068     		ldr	r0, [r4]
 1070              	.LVL86:
 1071 0030 FFF7FEFF 		bl	i2cReleaseBus
 1072              	.LVL87:
 1073              		.loc 1 624 0
 1074 0034 35B1     		cbz	r5, .L117
 1075              		.loc 1 625 0
 1076 0036 2068     		ldr	r0, [r4]
 1077 0038 FFF7FEFF 		bl	i2cGetErrors
 1078              	.LVL88:
 1079              		.loc 1 626 0
 1080 003c 0146     		mov	r1, r0
 1081 003e 2846     		mov	r0, r5
 1082 0040 FFF7FEFF 		bl	vexIMEHandleErrors
 1083              	.LVL89:
ARM GAS  /var/folders/6q/x_mk5n_j3p7_c40r_2k_78980000gn/T//ccJvHgvD.s 			page 20


 1084              	.L117:
 1085              		.loc 1 630 0
 1086 0044 2846     		mov	r0, r5
 1087 0046 07B0     		add	sp, sp, #28
 1088              		.cfi_def_cfa_offset 20
 1089              		@ sp needed
 1090 0048 F0BD     		pop	{r4, r5, r6, r7, pc}
 1091              	.LVL90:
 1092              	.L123:
 1093 004a 00BF     		.align	2
 1094              	.L122:
 1095 004c 00000000 		.word	.LANCHOR0
 1096              		.cfi_endproc
 1097              	.LFE80:
 1098              		.size	vexIMEGetStatus, .-vexIMEGetStatus
 1099              		.section	.text.vexIMEGetData,"ax",%progbits
 1100              		.align	2
 1101              		.p2align 4,,15
 1102              		.global	vexIMEGetData
 1103              		.thumb
 1104              		.thumb_func
 1105              		.type	vexIMEGetData, %function
 1106              	vexIMEGetData:
 1107              	.LFB81:
 1108              		.loc 1 645 0
 1109              		.cfi_startproc
 1110              		@ args = 0, pretend = 0, frame = 8
 1111              		@ frame_needed = 0, uses_anonymous_args = 0
 1112              	.LVL91:
 1113 0000 2DE9F041 		push	{r4, r5, r6, r7, r8, lr}
 1114              		.cfi_def_cfa_offset 24
 1115              		.cfi_offset 4, -24
 1116              		.cfi_offset 5, -20
 1117              		.cfi_offset 6, -16
 1118              		.cfi_offset 7, -12
 1119              		.cfi_offset 8, -8
 1120              		.cfi_offset 14, -4
 1121 0004 8846     		mov	r8, r1
 1122 0006 0746     		mov	r7, r0
 1123              		.loc 1 649 0
 1124 0008 124C     		ldr	r4, .L130
 1125              		.loc 1 645 0
 1126 000a 86B0     		sub	sp, sp, #24
 1127              		.cfi_def_cfa_offset 48
 1128              		.loc 1 647 0
 1129 000c 06AD     		add	r5, sp, #24
 1130 000e 4023     		movs	r3, #64
 1131              		.loc 1 649 0
 1132 0010 2068     		ldr	r0, [r4]
 1133              	.LVL92:
 1134              		.loc 1 647 0
 1135 0012 05F8013D 		strb	r3, [r5, #-1]!
 1136              		.loc 1 650 0
 1137 0016 0426     		movs	r6, #4
 1138              		.loc 1 649 0
 1139 0018 FFF7FEFF 		bl	i2cAcquireBus
 1140              	.LVL93:
ARM GAS  /var/folders/6q/x_mk5n_j3p7_c40r_2k_78980000gn/T//ccJvHgvD.s 			page 21


 1141              		.loc 1 650 0
 1142 001c 0823     		movs	r3, #8
 1143 001e 2A46     		mov	r2, r5
 1144 0020 0193     		str	r3, [sp, #4]
 1145 0022 2068     		ldr	r0, [r4]
 1146 0024 CDF80080 		str	r8, [sp]
 1147 0028 7908     		lsrs	r1, r7, #1
 1148 002a 0296     		str	r6, [sp, #8]
 1149 002c 0123     		movs	r3, #1
 1150 002e FFF7FEFF 		bl	i2cMasterTransmitTimeout
 1151              	.LVL94:
 1152 0032 0546     		mov	r5, r0
 1153              	.LVL95:
 1154              		.loc 1 651 0
 1155 0034 2068     		ldr	r0, [r4]
 1156              	.LVL96:
 1157 0036 FFF7FEFF 		bl	i2cReleaseBus
 1158              	.LVL97:
 1159              		.loc 1 653 0
 1160 003a 35B1     		cbz	r5, .L125
 1161              		.loc 1 654 0
 1162 003c 2068     		ldr	r0, [r4]
 1163 003e FFF7FEFF 		bl	i2cGetErrors
 1164              	.LVL98:
 1165              		.loc 1 655 0
 1166 0042 0146     		mov	r1, r0
 1167 0044 2846     		mov	r0, r5
 1168 0046 FFF7FEFF 		bl	vexIMEHandleErrors
 1169              	.LVL99:
 1170              	.L125:
 1171              		.loc 1 659 0
 1172 004a 2846     		mov	r0, r5
 1173 004c 06B0     		add	sp, sp, #24
 1174              		.cfi_def_cfa_offset 24
 1175              		@ sp needed
 1176 004e BDE8F081 		pop	{r4, r5, r6, r7, r8, pc}
 1177              	.LVL100:
 1178              	.L131:
 1179 0052 00BF     		.align	2
 1180              	.L130:
 1181 0054 00000000 		.word	.LANCHOR0
 1182              		.cfi_endproc
 1183              	.LFE81:
 1184              		.size	vexIMEGetData, .-vexIMEGetData
 1185              		.section	.text.vexIMEUpdateCounts,"ax",%progbits
 1186              		.align	2
 1187              		.p2align 4,,15
 1188              		.global	vexIMEUpdateCounts
 1189              		.thumb
 1190              		.thumb_func
 1191              		.type	vexIMEUpdateCounts, %function
 1192              	vexIMEUpdateCounts:
 1193              	.LFB74:
 1194              		.loc 1 359 0
 1195              		.cfi_startproc
 1196              		@ args = 0, pretend = 0, frame = 0
 1197              		@ frame_needed = 0, uses_anonymous_args = 0
ARM GAS  /var/folders/6q/x_mk5n_j3p7_c40r_2k_78980000gn/T//ccJvHgvD.s 			page 22


 1198              	.LVL101:
 1199              		.loc 1 362 0
 1200 0000 0028     		cmp	r0, #0
 1201 0002 35D0     		beq	.L142
 1202              		.loc 1 359 0
 1203 0004 70B5     		push	{r4, r5, r6, lr}
 1204              		.cfi_def_cfa_offset 16
 1205              		.cfi_offset 4, -16
 1206              		.cfi_offset 5, -12
 1207              		.cfi_offset 6, -8
 1208              		.cfi_offset 14, -4
 1209              		.loc 1 366 0
 1210 0006 436E     		ldr	r3, [r0, #100]
 1211 0008 0446     		mov	r4, r0
 1212 000a 0133     		adds	r3, r3, #1
 1213              		.loc 1 369 0
 1214 000c 00F13601 		add	r1, r0, #54
 1215              		.loc 1 366 0
 1216 0010 4366     		str	r3, [r0, #100]
 1217              		.loc 1 369 0
 1218 0012 0078     		ldrb	r0, [r0]	@ zero_extendqisi2
 1219              	.LVL102:
 1220 0014 FFF7FEFF 		bl	vexIMEGetData
 1221              	.LVL103:
 1222 0018 30BB     		cbnz	r0, .L134
 1223              		.loc 1 372 0
 1224 001a 94F83830 		ldrb	r3, [r4, #56]	@ zero_extendqisi2
 1225 001e 94F83610 		ldrb	r1, [r4, #54]	@ zero_extendqisi2
 1226 0022 94F83720 		ldrb	r2, [r4, #55]	@ zero_extendqisi2
 1227 0026 1B06     		lsls	r3, r3, #24
 1228 0028 43EA0123 		orr	r3, r3, r1, lsl #8
 1229 002c 94F83960 		ldrb	r6, [r4, #57]	@ zero_extendqisi2
 1230              		.loc 1 373 0
 1231 0030 94F83A50 		ldrb	r5, [r4, #58]	@ zero_extendqisi2
 1232 0034 94F83B10 		ldrb	r1, [r4, #59]	@ zero_extendqisi2
 1233              		.loc 1 375 0
 1234 0038 E06D     		ldr	r0, [r4, #92]
 1235              	.LVL104:
 1236              		.loc 1 372 0
 1237 003a 1343     		orrs	r3, r3, r2
 1238 003c 43EA0643 		orr	r3, r3, r6, lsl #16
 1239              		.loc 1 373 0
 1240 0040 01EB0522 		add	r2, r1, r5, lsl #8
 1241              		.loc 1 375 0
 1242 0044 B0F1FE4F 		cmp	r0, #2130706432
 1243              		.loc 1 372 0
 1244 0048 A364     		str	r3, [r4, #72]
 1245              		.loc 1 373 0
 1246 004a 2265     		str	r2, [r4, #80]
 1247              		.loc 1 375 0
 1248 004c 09D0     		beq	.L135
 1249              		.loc 1 377 0
 1250 004e 181A     		subs	r0, r3, r0
 1251 0050 6065     		str	r0, [r4, #84]
 1252              		.loc 1 380 0
 1253 0052 72B1     		cbz	r2, .L136
 1254              		.loc 1 381 0
ARM GAS  /var/folders/6q/x_mk5n_j3p7_c40r_2k_78980000gn/T//ccJvHgvD.s 			page 23


 1255 0054 206E     		ldr	r0, [r4, #96]
 1256 0056 0949     		ldr	r1, .L143
 1257 0058 00FB02F2 		mul	r2, r0, r2
 1258 005c 91FBF2F2 		sdiv	r2, r1, r2
 1259 0060 A265     		str	r2, [r4, #88]
 1260              	.L135:
 1261              		.loc 1 386 0
 1262 0062 E365     		str	r3, [r4, #92]
 1263 0064 0020     		movs	r0, #0
 1264 0066 70BD     		pop	{r4, r5, r6, pc}
 1265              	.LVL105:
 1266              	.L134:
 1267              		.loc 1 391 0
 1268 0068 A36E     		ldr	r3, [r4, #104]
 1269 006a 0133     		adds	r3, r3, #1
 1270 006c A366     		str	r3, [r4, #104]
 1271              		.loc 1 395 0
 1272 006e 70BD     		pop	{r4, r5, r6, pc}
 1273              	.LVL106:
 1274              	.L142:
 1275              		.cfi_def_cfa_offset 0
 1276              		.cfi_restore 4
 1277              		.cfi_restore 5
 1278              		.cfi_restore 6
 1279              		.cfi_restore 14
 1280 0070 7047     		bx	lr
 1281              	.LVL107:
 1282              	.L136:
 1283              		.cfi_def_cfa_offset 16
 1284              		.cfi_offset 4, -16
 1285              		.cfi_offset 5, -12
 1286              		.cfi_offset 6, -8
 1287              		.cfi_offset 14, -4
 1288              		.loc 1 383 0
 1289 0072 A265     		str	r2, [r4, #88]
 1290              		.loc 1 386 0
 1291 0074 E365     		str	r3, [r4, #92]
 1292 0076 0020     		movs	r0, #0
 1293 0078 70BD     		pop	{r4, r5, r6, pc}
 1294              	.LVL108:
 1295              	.L144:
 1296 007a 00BF     		.align	2
 1297              	.L143:
 1298 007c 5847F80D 		.word	234375000
 1299              		.cfi_endproc
 1300              	.LFE74:
 1301              		.size	vexIMEUpdateCounts, .-vexIMEUpdateCounts
 1302              		.section	.text.vexIMEGetScratchpad,"ax",%progbits
 1303              		.align	2
 1304              		.p2align 4,,15
 1305              		.global	vexIMEGetScratchpad
 1306              		.thumb
 1307              		.thumb_func
 1308              		.type	vexIMEGetScratchpad, %function
 1309              	vexIMEGetScratchpad:
 1310              	.LFB82:
 1311              		.loc 1 676 0
ARM GAS  /var/folders/6q/x_mk5n_j3p7_c40r_2k_78980000gn/T//ccJvHgvD.s 			page 24


 1312              		.cfi_startproc
 1313              		@ args = 0, pretend = 0, frame = 8
 1314              		@ frame_needed = 0, uses_anonymous_args = 0
 1315              	.LVL109:
 1316 0000 2DE9F043 		push	{r4, r5, r6, r7, r8, r9, lr}
 1317              		.cfi_def_cfa_offset 28
 1318              		.cfi_offset 4, -28
 1319              		.cfi_offset 5, -24
 1320              		.cfi_offset 6, -20
 1321              		.cfi_offset 7, -16
 1322              		.cfi_offset 8, -12
 1323              		.cfi_offset 9, -8
 1324              		.cfi_offset 14, -4
 1325 0004 8846     		mov	r8, r1
 1326 0006 9946     		mov	r9, r3
 1327 0008 0746     		mov	r7, r0
 1328 000a 87B0     		sub	sp, sp, #28
 1329              		.cfi_def_cfa_offset 56
 1330              		.loc 1 680 0
 1331 000c 114C     		ldr	r4, .L151
 1332              		.loc 1 678 0
 1333 000e 06AD     		add	r5, sp, #24
 1334 0010 6032     		adds	r2, r2, #96
 1335              	.LVL110:
 1336 0012 05F8012D 		strb	r2, [r5, #-1]!
 1337              		.loc 1 680 0
 1338 0016 2068     		ldr	r0, [r4]
 1339              	.LVL111:
 1340              		.loc 1 681 0
 1341 0018 0426     		movs	r6, #4
 1342              		.loc 1 680 0
 1343 001a FFF7FEFF 		bl	i2cAcquireBus
 1344              	.LVL112:
 1345              		.loc 1 681 0
 1346 001e 2A46     		mov	r2, r5
 1347 0020 2068     		ldr	r0, [r4]
 1348 0022 CDF80490 		str	r9, [sp, #4]
 1349 0026 CDF80080 		str	r8, [sp]
 1350 002a 7908     		lsrs	r1, r7, #1
 1351 002c 0296     		str	r6, [sp, #8]
 1352 002e 0123     		movs	r3, #1
 1353 0030 FFF7FEFF 		bl	i2cMasterTransmitTimeout
 1354              	.LVL113:
 1355 0034 0546     		mov	r5, r0
 1356              	.LVL114:
 1357              		.loc 1 682 0
 1358 0036 2068     		ldr	r0, [r4]
 1359              	.LVL115:
 1360 0038 FFF7FEFF 		bl	i2cReleaseBus
 1361              	.LVL116:
 1362              		.loc 1 684 0
 1363 003c 35B1     		cbz	r5, .L146
 1364              		.loc 1 685 0
 1365 003e 2068     		ldr	r0, [r4]
 1366 0040 FFF7FEFF 		bl	i2cGetErrors
 1367              	.LVL117:
 1368              		.loc 1 686 0
ARM GAS  /var/folders/6q/x_mk5n_j3p7_c40r_2k_78980000gn/T//ccJvHgvD.s 			page 25


 1369 0044 0146     		mov	r1, r0
 1370 0046 2846     		mov	r0, r5
 1371 0048 FFF7FEFF 		bl	vexIMEHandleErrors
 1372              	.LVL118:
 1373              	.L146:
 1374              		.loc 1 690 0
 1375 004c 2846     		mov	r0, r5
 1376 004e 07B0     		add	sp, sp, #28
 1377              		.cfi_def_cfa_offset 28
 1378              		@ sp needed
 1379 0050 BDE8F083 		pop	{r4, r5, r6, r7, r8, r9, pc}
 1380              	.LVL119:
 1381              	.L152:
 1382              		.align	2
 1383              	.L151:
 1384 0054 00000000 		.word	.LANCHOR0
 1385              		.cfi_endproc
 1386              	.LFE82:
 1387              		.size	vexIMEGetScratchpad, .-vexIMEGetScratchpad
 1388              		.section	.text.vexIMESetScratchpad,"ax",%progbits
 1389              		.align	2
 1390              		.p2align 4,,15
 1391              		.global	vexIMESetScratchpad
 1392              		.thumb
 1393              		.thumb_func
 1394              		.type	vexIMESetScratchpad, %function
 1395              	vexIMESetScratchpad:
 1396              	.LFB83:
 1397              		.loc 1 707 0
 1398              		.cfi_startproc
 1399              		@ args = 0, pretend = 0, frame = 0
 1400              		@ frame_needed = 0, uses_anonymous_args = 0
 1401              	.LVL120:
 1402 0000 2DE9F041 		push	{r4, r5, r6, r7, r8, lr}
 1403              		.cfi_def_cfa_offset 24
 1404              		.cfi_offset 4, -24
 1405              		.cfi_offset 5, -20
 1406              		.cfi_offset 6, -16
 1407              		.cfi_offset 7, -12
 1408              		.cfi_offset 8, -8
 1409              		.cfi_offset 14, -4
 1410 0004 0646     		mov	r6, r0
 1411              	.LVL121:
 1412 0006 84B0     		sub	sp, sp, #16
 1413              		.cfi_def_cfa_offset 40
 1414              		.loc 1 707 0
 1415 0008 0C46     		mov	r4, r1
 1416              		.loc 1 716 0
 1417 000a 0020     		movs	r0, #0
 1418              	.LVL122:
 1419 000c 4021     		movs	r1, #64
 1420              	.LVL123:
 1421              		.loc 1 707 0
 1422 000e 9046     		mov	r8, r2
 1423 0010 1F46     		mov	r7, r3
 1424              		.loc 1 716 0
 1425 0012 FFF7FEFF 		bl	chHeapAlloc
ARM GAS  /var/folders/6q/x_mk5n_j3p7_c40r_2k_78980000gn/T//ccJvHgvD.s 			page 26


 1426              	.LVL124:
 1427              		.loc 1 718 0
 1428 0016 0546     		mov	r5, r0
 1429 0018 A8B3     		cbz	r0, .L159
 1430              		.loc 1 720 0
 1431 001a A8F16008 		sub	r8, r8, #96
 1432 001e 80F80080 		strb	r8, [r0]
 1433              	.LVL125:
 1434              		.loc 1 721 0
 1435 0022 47B1     		cbz	r7, .L158
 1436 0024 0246     		mov	r2, r0
 1437 0026 611E     		subs	r1, r4, #1
 1438 0028 C419     		adds	r4, r0, r7
 1439              	.LVL126:
 1440              	.L157:
 1441              		.loc 1 722 0 discriminator 3
 1442 002a 11F8010F 		ldrb	r0, [r1, #1]!	@ zero_extendqisi2
 1443              	.LVL127:
 1444 002e 02F8010F 		strb	r0, [r2, #1]!
 1445              	.LVL128:
 1446              		.loc 1 721 0 discriminator 3
 1447 0032 A242     		cmp	r2, r4
 1448 0034 F9D1     		bne	.L157
 1449              	.LVL129:
 1450              	.L158:
 1451              		.loc 1 724 0
 1452 0036 164C     		ldr	r4, .L164
 1453 0038 2068     		ldr	r0, [r4]
 1454 003a FFF7FEFF 		bl	i2cAcquireBus
 1455              	.LVL130:
 1456              		.loc 1 725 0
 1457 003e 4FF0040E 		mov	lr, #4
 1458 0042 0022     		movs	r2, #0
 1459 0044 2068     		ldr	r0, [r4]
 1460 0046 7108     		lsrs	r1, r6, #1
 1461 0048 7B1C     		adds	r3, r7, #1
 1462 004a CDF808E0 		str	lr, [sp, #8]
 1463 004e 0192     		str	r2, [sp, #4]
 1464 0050 0092     		str	r2, [sp]
 1465 0052 2A46     		mov	r2, r5
 1466 0054 FFF7FEFF 		bl	i2cMasterTransmitTimeout
 1467              	.LVL131:
 1468 0058 0646     		mov	r6, r0
 1469              	.LVL132:
 1470              		.loc 1 726 0
 1471 005a 2068     		ldr	r0, [r4]
 1472              	.LVL133:
 1473 005c FFF7FEFF 		bl	i2cReleaseBus
 1474              	.LVL134:
 1475              		.loc 1 729 0
 1476 0060 2846     		mov	r0, r5
 1477 0062 FFF7FEFF 		bl	chHeapFree
 1478              	.LVL135:
 1479              		.loc 1 732 0
 1480 0066 1EB9     		cbnz	r6, .L163
 1481              		.loc 1 738 0
 1482 0068 3046     		mov	r0, r6
ARM GAS  /var/folders/6q/x_mk5n_j3p7_c40r_2k_78980000gn/T//ccJvHgvD.s 			page 27


 1483 006a 04B0     		add	sp, sp, #16
 1484              		.cfi_remember_state
 1485              		.cfi_def_cfa_offset 24
 1486              		@ sp needed
 1487 006c BDE8F081 		pop	{r4, r5, r6, r7, r8, pc}
 1488              	.LVL136:
 1489              	.L163:
 1490              		.cfi_restore_state
 1491              		.loc 1 733 0
 1492 0070 2068     		ldr	r0, [r4]
 1493 0072 FFF7FEFF 		bl	i2cGetErrors
 1494              	.LVL137:
 1495              		.loc 1 734 0
 1496 0076 0146     		mov	r1, r0
 1497 0078 3046     		mov	r0, r6
 1498 007a FFF7FEFF 		bl	vexIMEHandleErrors
 1499              	.LVL138:
 1500              		.loc 1 738 0
 1501 007e 3046     		mov	r0, r6
 1502 0080 04B0     		add	sp, sp, #16
 1503              		.cfi_remember_state
 1504              		.cfi_def_cfa_offset 24
 1505              		@ sp needed
 1506 0082 BDE8F081 		pop	{r4, r5, r6, r7, r8, pc}
 1507              	.LVL139:
 1508              	.L159:
 1509              		.cfi_restore_state
 1510              		.loc 1 708 0
 1511 0086 0646     		mov	r6, r0
 1512              		.loc 1 738 0
 1513 0088 3046     		mov	r0, r6
 1514              	.LVL140:
 1515 008a 04B0     		add	sp, sp, #16
 1516              		.cfi_def_cfa_offset 24
 1517              		@ sp needed
 1518 008c BDE8F081 		pop	{r4, r5, r6, r7, r8, pc}
 1519              	.LVL141:
 1520              	.L165:
 1521              		.align	2
 1522              	.L164:
 1523 0090 00000000 		.word	.LANCHOR0
 1524              		.cfi_endproc
 1525              	.LFE83:
 1526              		.size	vexIMESetScratchpad, .-vexIMESetScratchpad
 1527              		.section	.text.vexIMEClearCounters,"ax",%progbits
 1528              		.align	2
 1529              		.p2align 4,,15
 1530              		.global	vexIMEClearCounters
 1531              		.thumb
 1532              		.thumb_func
 1533              		.type	vexIMEClearCounters, %function
 1534              	vexIMEClearCounters:
 1535              	.LFB84:
 1536              		.loc 1 752 0
 1537              		.cfi_startproc
 1538              		@ args = 0, pretend = 0, frame = 8
 1539              		@ frame_needed = 0, uses_anonymous_args = 0
ARM GAS  /var/folders/6q/x_mk5n_j3p7_c40r_2k_78980000gn/T//ccJvHgvD.s 			page 28


 1540              	.LVL142:
 1541 0000 F0B5     		push	{r4, r5, r6, r7, lr}
 1542              		.cfi_def_cfa_offset 20
 1543              		.cfi_offset 4, -20
 1544              		.cfi_offset 5, -16
 1545              		.cfi_offset 6, -12
 1546              		.cfi_offset 7, -8
 1547              		.cfi_offset 14, -4
 1548 0002 0746     		mov	r7, r0
 1549              		.loc 1 756 0
 1550 0004 114C     		ldr	r4, .L172
 1551              		.loc 1 752 0
 1552 0006 87B0     		sub	sp, sp, #28
 1553              		.cfi_def_cfa_offset 48
 1554              		.loc 1 754 0
 1555 0008 06AD     		add	r5, sp, #24
 1556 000a 4A23     		movs	r3, #74
 1557              		.loc 1 756 0
 1558 000c 2068     		ldr	r0, [r4]
 1559              	.LVL143:
 1560              		.loc 1 754 0
 1561 000e 05F8013D 		strb	r3, [r5, #-1]!
 1562              		.loc 1 757 0
 1563 0012 0426     		movs	r6, #4
 1564              		.loc 1 756 0
 1565 0014 FFF7FEFF 		bl	i2cAcquireBus
 1566              	.LVL144:
 1567              		.loc 1 757 0
 1568 0018 0023     		movs	r3, #0
 1569 001a 2A46     		mov	r2, r5
 1570 001c 0193     		str	r3, [sp, #4]
 1571 001e 0093     		str	r3, [sp]
 1572 0020 2068     		ldr	r0, [r4]
 1573 0022 7908     		lsrs	r1, r7, #1
 1574 0024 0296     		str	r6, [sp, #8]
 1575 0026 0123     		movs	r3, #1
 1576 0028 FFF7FEFF 		bl	i2cMasterTransmitTimeout
 1577              	.LVL145:
 1578 002c 0546     		mov	r5, r0
 1579              	.LVL146:
 1580              		.loc 1 758 0
 1581 002e 2068     		ldr	r0, [r4]
 1582              	.LVL147:
 1583 0030 FFF7FEFF 		bl	i2cReleaseBus
 1584              	.LVL148:
 1585              		.loc 1 760 0
 1586 0034 35B1     		cbz	r5, .L167
 1587              		.loc 1 761 0
 1588 0036 2068     		ldr	r0, [r4]
 1589 0038 FFF7FEFF 		bl	i2cGetErrors
 1590              	.LVL149:
 1591              		.loc 1 762 0
 1592 003c 0146     		mov	r1, r0
 1593 003e 2846     		mov	r0, r5
 1594 0040 FFF7FEFF 		bl	vexIMEHandleErrors
 1595              	.LVL150:
 1596              	.L167:
ARM GAS  /var/folders/6q/x_mk5n_j3p7_c40r_2k_78980000gn/T//ccJvHgvD.s 			page 29


 1597              		.loc 1 766 0
 1598 0044 2846     		mov	r0, r5
 1599 0046 07B0     		add	sp, sp, #28
 1600              		.cfi_def_cfa_offset 20
 1601              		@ sp needed
 1602 0048 F0BD     		pop	{r4, r5, r6, r7, pc}
 1603              	.LVL151:
 1604              	.L173:
 1605 004a 00BF     		.align	2
 1606              	.L172:
 1607 004c 00000000 		.word	.LANCHOR0
 1608              		.cfi_endproc
 1609              	.LFE84:
 1610              		.size	vexIMEClearCounters, .-vexIMEClearCounters
 1611              		.section	.text.vexIMEDisableTermination,"ax",%progbits
 1612              		.align	2
 1613              		.p2align 4,,15
 1614              		.global	vexIMEDisableTermination
 1615              		.thumb
 1616              		.thumb_func
 1617              		.type	vexIMEDisableTermination, %function
 1618              	vexIMEDisableTermination:
 1619              	.LFB85:
 1620              		.loc 1 780 0
 1621              		.cfi_startproc
 1622              		@ args = 0, pretend = 0, frame = 8
 1623              		@ frame_needed = 0, uses_anonymous_args = 0
 1624              	.LVL152:
 1625 0000 F0B5     		push	{r4, r5, r6, r7, lr}
 1626              		.cfi_def_cfa_offset 20
 1627              		.cfi_offset 4, -20
 1628              		.cfi_offset 5, -16
 1629              		.cfi_offset 6, -12
 1630              		.cfi_offset 7, -8
 1631              		.cfi_offset 14, -4
 1632 0002 0746     		mov	r7, r0
 1633              		.loc 1 784 0
 1634 0004 114C     		ldr	r4, .L180
 1635              		.loc 1 780 0
 1636 0006 87B0     		sub	sp, sp, #28
 1637              		.cfi_def_cfa_offset 48
 1638              		.loc 1 782 0
 1639 0008 06AD     		add	r5, sp, #24
 1640 000a 4B23     		movs	r3, #75
 1641              		.loc 1 784 0
 1642 000c 2068     		ldr	r0, [r4]
 1643              	.LVL153:
 1644              		.loc 1 782 0
 1645 000e 05F8013D 		strb	r3, [r5, #-1]!
 1646              		.loc 1 785 0
 1647 0012 0426     		movs	r6, #4
 1648              		.loc 1 784 0
 1649 0014 FFF7FEFF 		bl	i2cAcquireBus
 1650              	.LVL154:
 1651              		.loc 1 785 0
 1652 0018 0023     		movs	r3, #0
 1653 001a 2A46     		mov	r2, r5
ARM GAS  /var/folders/6q/x_mk5n_j3p7_c40r_2k_78980000gn/T//ccJvHgvD.s 			page 30


 1654 001c 0193     		str	r3, [sp, #4]
 1655 001e 0093     		str	r3, [sp]
 1656 0020 2068     		ldr	r0, [r4]
 1657 0022 7908     		lsrs	r1, r7, #1
 1658 0024 0296     		str	r6, [sp, #8]
 1659 0026 0123     		movs	r3, #1
 1660 0028 FFF7FEFF 		bl	i2cMasterTransmitTimeout
 1661              	.LVL155:
 1662 002c 0546     		mov	r5, r0
 1663              	.LVL156:
 1664              		.loc 1 786 0
 1665 002e 2068     		ldr	r0, [r4]
 1666              	.LVL157:
 1667 0030 FFF7FEFF 		bl	i2cReleaseBus
 1668              	.LVL158:
 1669              		.loc 1 788 0
 1670 0034 35B1     		cbz	r5, .L175
 1671              		.loc 1 789 0
 1672 0036 2068     		ldr	r0, [r4]
 1673 0038 FFF7FEFF 		bl	i2cGetErrors
 1674              	.LVL159:
 1675              		.loc 1 790 0
 1676 003c 0146     		mov	r1, r0
 1677 003e 2846     		mov	r0, r5
 1678 0040 FFF7FEFF 		bl	vexIMEHandleErrors
 1679              	.LVL160:
 1680              	.L175:
 1681              		.loc 1 794 0
 1682 0044 2846     		mov	r0, r5
 1683 0046 07B0     		add	sp, sp, #28
 1684              		.cfi_def_cfa_offset 20
 1685              		@ sp needed
 1686 0048 F0BD     		pop	{r4, r5, r6, r7, pc}
 1687              	.LVL161:
 1688              	.L181:
 1689 004a 00BF     		.align	2
 1690              	.L180:
 1691 004c 00000000 		.word	.LANCHOR0
 1692              		.cfi_endproc
 1693              	.LFE85:
 1694              		.size	vexIMEDisableTermination, .-vexIMEDisableTermination
 1695              		.section	.text.vexIMEEnableTermination,"ax",%progbits
 1696              		.align	2
 1697              		.p2align 4,,15
 1698              		.global	vexIMEEnableTermination
 1699              		.thumb
 1700              		.thumb_func
 1701              		.type	vexIMEEnableTermination, %function
 1702              	vexIMEEnableTermination:
 1703              	.LFB86:
 1704              		.loc 1 808 0
 1705              		.cfi_startproc
 1706              		@ args = 0, pretend = 0, frame = 8
 1707              		@ frame_needed = 0, uses_anonymous_args = 0
 1708              	.LVL162:
 1709 0000 F0B5     		push	{r4, r5, r6, r7, lr}
 1710              		.cfi_def_cfa_offset 20
ARM GAS  /var/folders/6q/x_mk5n_j3p7_c40r_2k_78980000gn/T//ccJvHgvD.s 			page 31


 1711              		.cfi_offset 4, -20
 1712              		.cfi_offset 5, -16
 1713              		.cfi_offset 6, -12
 1714              		.cfi_offset 7, -8
 1715              		.cfi_offset 14, -4
 1716 0002 0746     		mov	r7, r0
 1717              		.loc 1 812 0
 1718 0004 114C     		ldr	r4, .L188
 1719              		.loc 1 808 0
 1720 0006 87B0     		sub	sp, sp, #28
 1721              		.cfi_def_cfa_offset 48
 1722              		.loc 1 810 0
 1723 0008 06AD     		add	r5, sp, #24
 1724 000a 4C23     		movs	r3, #76
 1725              		.loc 1 812 0
 1726 000c 2068     		ldr	r0, [r4]
 1727              	.LVL163:
 1728              		.loc 1 810 0
 1729 000e 05F8013D 		strb	r3, [r5, #-1]!
 1730              		.loc 1 813 0
 1731 0012 0426     		movs	r6, #4
 1732              		.loc 1 812 0
 1733 0014 FFF7FEFF 		bl	i2cAcquireBus
 1734              	.LVL164:
 1735              		.loc 1 813 0
 1736 0018 0023     		movs	r3, #0
 1737 001a 2A46     		mov	r2, r5
 1738 001c 0193     		str	r3, [sp, #4]
 1739 001e 0093     		str	r3, [sp]
 1740 0020 2068     		ldr	r0, [r4]
 1741 0022 7908     		lsrs	r1, r7, #1
 1742 0024 0296     		str	r6, [sp, #8]
 1743 0026 0123     		movs	r3, #1
 1744 0028 FFF7FEFF 		bl	i2cMasterTransmitTimeout
 1745              	.LVL165:
 1746 002c 0546     		mov	r5, r0
 1747              	.LVL166:
 1748              		.loc 1 814 0
 1749 002e 2068     		ldr	r0, [r4]
 1750              	.LVL167:
 1751 0030 FFF7FEFF 		bl	i2cReleaseBus
 1752              	.LVL168:
 1753              		.loc 1 816 0
 1754 0034 35B1     		cbz	r5, .L183
 1755              		.loc 1 817 0
 1756 0036 2068     		ldr	r0, [r4]
 1757 0038 FFF7FEFF 		bl	i2cGetErrors
 1758              	.LVL169:
 1759              		.loc 1 818 0
 1760 003c 0146     		mov	r1, r0
 1761 003e 2846     		mov	r0, r5
 1762 0040 FFF7FEFF 		bl	vexIMEHandleErrors
 1763              	.LVL170:
 1764              	.L183:
 1765              		.loc 1 822 0
 1766 0044 2846     		mov	r0, r5
 1767 0046 07B0     		add	sp, sp, #28
ARM GAS  /var/folders/6q/x_mk5n_j3p7_c40r_2k_78980000gn/T//ccJvHgvD.s 			page 32


 1768              		.cfi_def_cfa_offset 20
 1769              		@ sp needed
 1770 0048 F0BD     		pop	{r4, r5, r6, r7, pc}
 1771              	.LVL171:
 1772              	.L189:
 1773 004a 00BF     		.align	2
 1774              	.L188:
 1775 004c 00000000 		.word	.LANCHOR0
 1776              		.cfi_endproc
 1777              	.LFE86:
 1778              		.size	vexIMEEnableTermination, .-vexIMEEnableTermination
 1779              		.section	.text.vexIMESetAddr,"ax",%progbits
 1780              		.align	2
 1781              		.p2align 4,,15
 1782              		.global	vexIMESetAddr
 1783              		.thumb
 1784              		.thumb_func
 1785              		.type	vexIMESetAddr, %function
 1786              	vexIMESetAddr:
 1787              	.LFB87:
 1788              		.loc 1 837 0
 1789              		.cfi_startproc
 1790              		@ args = 0, pretend = 0, frame = 8
 1791              		@ frame_needed = 0, uses_anonymous_args = 0
 1792              	.LVL172:
 1793 0000 F0B5     		push	{r4, r5, r6, r7, lr}
 1794              		.cfi_def_cfa_offset 20
 1795              		.cfi_offset 4, -20
 1796              		.cfi_offset 5, -16
 1797              		.cfi_offset 6, -12
 1798              		.cfi_offset 7, -8
 1799              		.cfi_offset 14, -4
 1800 0002 0646     		mov	r6, r0
 1801              		.loc 1 846 0
 1802 0004 134C     		ldr	r4, .L196
 1803              		.loc 1 837 0
 1804 0006 87B0     		sub	sp, sp, #28
 1805              		.cfi_def_cfa_offset 48
 1806              		.loc 1 843 0
 1807 0008 4D23     		movs	r3, #77
 1808              		.loc 1 846 0
 1809 000a 2068     		ldr	r0, [r4]
 1810              	.LVL173:
 1811              		.loc 1 837 0
 1812 000c 0F46     		mov	r7, r1
 1813              		.loc 1 844 0
 1814 000e 8DF81510 		strb	r1, [sp, #21]
 1815              		.loc 1 843 0
 1816 0012 8DF81430 		strb	r3, [sp, #20]
 1817              		.loc 1 846 0
 1818 0016 FFF7FEFF 		bl	i2cAcquireBus
 1819              	.LVL174:
 1820              		.loc 1 847 0
 1821 001a 3178     		ldrb	r1, [r6]	@ zero_extendqisi2
 1822 001c 0023     		movs	r3, #0
 1823 001e 0422     		movs	r2, #4
 1824 0020 0292     		str	r2, [sp, #8]
ARM GAS  /var/folders/6q/x_mk5n_j3p7_c40r_2k_78980000gn/T//ccJvHgvD.s 			page 33


 1825 0022 0193     		str	r3, [sp, #4]
 1826 0024 0093     		str	r3, [sp]
 1827 0026 2068     		ldr	r0, [r4]
 1828 0028 4908     		lsrs	r1, r1, #1
 1829 002a 0223     		movs	r3, #2
 1830 002c 05AA     		add	r2, sp, #20
 1831 002e FFF7FEFF 		bl	i2cMasterTransmitTimeout
 1832              	.LVL175:
 1833 0032 0546     		mov	r5, r0
 1834              	.LVL176:
 1835              		.loc 1 848 0
 1836 0034 2068     		ldr	r0, [r4]
 1837              	.LVL177:
 1838 0036 FFF7FEFF 		bl	i2cReleaseBus
 1839              	.LVL178:
 1840              		.loc 1 850 0
 1841 003a 35B1     		cbz	r5, .L191
 1842              		.loc 1 851 0
 1843 003c 2068     		ldr	r0, [r4]
 1844 003e FFF7FEFF 		bl	i2cGetErrors
 1845              	.LVL179:
 1846              		.loc 1 852 0
 1847 0042 0146     		mov	r1, r0
 1848 0044 2846     		mov	r0, r5
 1849 0046 FFF7FEFF 		bl	vexIMEHandleErrors
 1850              	.LVL180:
 1851              	.L191:
 1852              		.loc 1 858 0
 1853 004a 2846     		mov	r0, r5
 1854              		.loc 1 855 0
 1855 004c 3770     		strb	r7, [r6]
 1856              		.loc 1 858 0
 1857 004e 07B0     		add	sp, sp, #28
 1858              		.cfi_def_cfa_offset 20
 1859              		@ sp needed
 1860 0050 F0BD     		pop	{r4, r5, r6, r7, pc}
 1861              	.LVL181:
 1862              	.L197:
 1863 0052 00BF     		.align	2
 1864              	.L196:
 1865 0054 00000000 		.word	.LANCHOR0
 1866              		.cfi_endproc
 1867              	.LFE87:
 1868              		.size	vexIMESetAddr, .-vexIMESetAddr
 1869              		.section	.text.vexIMEFindEncoders,"ax",%progbits
 1870              		.align	2
 1871              		.p2align 4,,15
 1872              		.global	vexIMEFindEncoders
 1873              		.thumb
 1874              		.thumb_func
 1875              		.type	vexIMEFindEncoders, %function
 1876              	vexIMEFindEncoders:
 1877              	.LFB76:
 1878              		.loc 1 428 0
 1879              		.cfi_startproc
 1880              		@ args = 0, pretend = 0, frame = 0
 1881              		@ frame_needed = 0, uses_anonymous_args = 0
ARM GAS  /var/folders/6q/x_mk5n_j3p7_c40r_2k_78980000gn/T//ccJvHgvD.s 			page 34


 1882              	.LVL182:
 1883 0000 2DE9F047 		push	{r4, r5, r6, r7, r8, r9, r10, lr}
 1884              		.cfi_def_cfa_offset 32
 1885              		.cfi_offset 4, -32
 1886              		.cfi_offset 5, -28
 1887              		.cfi_offset 6, -24
 1888              		.cfi_offset 7, -20
 1889              		.cfi_offset 8, -16
 1890              		.cfi_offset 9, -12
 1891              		.cfi_offset 10, -8
 1892              		.cfi_offset 14, -4
 1893              		.loc 1 433 0
 1894 0004 FFF7FEFF 		bl	vexIMEResetAll
 1895              	.LVL183:
 1896              		.loc 1 436 0
 1897 0008 0023     		movs	r3, #0
 1898              		.loc 1 439 0
 1899 000a 1E46     		mov	r6, r3
 1900              		.loc 1 490 0
 1901 000c 42F24869 		movw	r9, #9800
 1902              		.loc 1 487 0
 1903 0010 41F6E778 		movw	r8, #8167
 1904              		.loc 1 436 0
 1905 0014 3B4D     		ldr	r5, .L212
 1906              		.loc 1 438 0
 1907 0016 2022     		movs	r2, #32
 1908              		.loc 1 436 0
 1909 0018 2B81     		strh	r3, [r5, #8]	@ movhi
 1910              		.loc 1 437 0
 1911 001a EB82     		strh	r3, [r5, #22]	@ movhi
 1912              		.loc 1 439 0
 1913 001c 2B83     		strh	r3, [r5, #24]	@ movhi
 1914              		.loc 1 438 0
 1915 001e 6A81     		strh	r2, [r5, #10]	@ movhi
 1916 0020 05F12204 		add	r4, r5, #34
 1917              		.loc 1 460 0
 1918 0024 0127     		movs	r7, #1
 1919              	.LVL184:
 1920              	.L207:
 1921 0026 A4F1060A 		sub	r10, r4, #6
 1922              	.LVL185:
 1923              		.loc 1 446 0
 1924 002a 5046     		mov	r0, r10
 1925 002c FFF7FEFF 		bl	vexIMEDataInit
 1926              	.LVL186:
 1927              		.loc 1 450 0
 1928 0030 14F8060C 		ldrb	r0, [r4, #-6]	@ zero_extendqisi2
 1929 0034 FFF7FEFF 		bl	vexIMEEnableTermination
 1930              	.LVL187:
 1931 0038 0028     		cmp	r0, #0
 1932 003a 5CD1     		bne	.L199
 1933              		.loc 1 453 0
 1934 003c 2B89     		ldrh	r3, [r5, #8]
 1935              		.loc 1 456 0
 1936 003e A97A     		ldrb	r1, [r5, #10]	@ zero_extendqisi2
 1937              		.loc 1 453 0
 1938 0040 0133     		adds	r3, r3, #1
ARM GAS  /var/folders/6q/x_mk5n_j3p7_c40r_2k_78980000gn/T//ccJvHgvD.s 			page 35


 1939              		.loc 1 456 0
 1940 0042 5046     		mov	r0, r10
 1941              		.loc 1 453 0
 1942 0044 2B81     		strh	r3, [r5, #8]	@ movhi
 1943              		.loc 1 456 0
 1944 0046 FFF7FEFF 		bl	vexIMESetAddr
 1945              	.LVL188:
 1946              		.loc 1 457 0
 1947 004a 6B89     		ldrh	r3, [r5, #10]
 1948              		.loc 1 460 0
 1949 004c 0120     		movs	r0, #1
 1950              		.loc 1 457 0
 1951 004e 0233     		adds	r3, r3, #2
 1952 0050 6B81     		strh	r3, [r5, #10]	@ movhi
 1953              		.loc 1 460 0
 1954 0052 FFF7FEFF 		bl	chThdSleep
 1955              	.LVL189:
 1956              		.loc 1 463 0
 1957 0056 2146     		mov	r1, r4
 1958 0058 14F8060C 		ldrb	r0, [r4, #-6]	@ zero_extendqisi2
 1959 005c FFF7FEFF 		bl	vexIMEGetVersion
 1960              	.LVL190:
 1961              		.loc 1 464 0
 1962 0060 04F11001 		add	r1, r4, #16
 1963 0064 14F8060C 		ldrb	r0, [r4, #-6]	@ zero_extendqisi2
 1964 0068 FFF7FEFF 		bl	vexIMEGetVendor
 1965              	.LVL191:
 1966              		.loc 1 465 0
 1967 006c 04F12001 		add	r1, r4, #32
 1968 0070 14F8060C 		ldrb	r0, [r4, #-6]	@ zero_extendqisi2
 1969 0074 FFF7FEFF 		bl	vexIMEGetDeviceId
 1970              	.LVL192:
 1971              		.loc 1 468 0
 1972 0078 14F8060C 		ldrb	r0, [r4, #-6]	@ zero_extendqisi2
 1973 007c FFF7FEFF 		bl	vexIMEClearCounters
 1974              	.LVL193:
 1975              		.loc 1 475 0
 1976 0080 14F8053C 		ldrb	r3, [r4, #-5]	@ zero_extendqisi2
 1977 0084 032B     		cmp	r3, #3
 1978 0086 33D8     		bhi	.L200
 1979 0088 DFE803F0 		tbb	[pc, r3]
 1980              	.L202:
 1981 008c 28       		.byte	(.L201-.L202)/2
 1982 008d 2D       		.byte	(.L203-.L202)/2
 1983 008e 23       		.byte	(.L204-.L202)/2
 1984 008f 02       		.byte	(.L205-.L202)/2
 1985              		.p2align 1
 1986              	.L205:
 1987              		.loc 1 487 0
 1988 0090 C4F85A80 		str	r8, [r4, #90]
 1989              	.L206:
 1990              		.loc 1 498 0
 1991 0094 14F8060C 		ldrb	r0, [r4, #-6]	@ zero_extendqisi2
 1992              		.loc 1 495 0
 1993 0098 24F8047C 		strh	r7, [r4, #-4]	@ movhi
 1994              		.loc 1 498 0
 1995 009c FFF7FEFF 		bl	vexIMEDisableTermination
ARM GAS  /var/folders/6q/x_mk5n_j3p7_c40r_2k_78980000gn/T//ccJvHgvD.s 			page 36


 1996              	.LVL194:
 1997 00a0 0136     		adds	r6, r6, #1
 1998              	.LVL195:
 1999              		.loc 1 499 0
 2000 00a2 0120     		movs	r0, #1
 2001 00a4 FFF7FEFF 		bl	chThdSleep
 2002              	.LVL196:
 2003              		.loc 1 442 0
 2004 00a8 082E     		cmp	r6, #8
 2005 00aa 04F16C04 		add	r4, r4, #108
 2006 00ae BAD1     		bne	.L207
 2007              	.L208:
 2008              		.loc 1 510 0
 2009 00b0 B5F90800 		ldrsh	r0, [r5, #8]
 2010 00b4 134C     		ldr	r4, .L212
 2011 00b6 0028     		cmp	r0, #0
 2012 00b8 08DD     		ble	.L209
 2013              		.loc 1 511 0
 2014 00ba 6C23     		movs	r3, #108
 2015 00bc 0138     		subs	r0, r0, #1
 2016 00be 03FB0040 		mla	r0, r3, r0, r4
 2017 00c2 007F     		ldrb	r0, [r0, #28]	@ zero_extendqisi2
 2018 00c4 FFF7FEFF 		bl	vexIMEEnableTermination
 2019              	.LVL197:
 2020 00c8 B4F90800 		ldrsh	r0, [r4, #8]
 2021              	.L209:
 2022              		.loc 1 514 0
 2023 00cc 80B2     		uxth	r0, r0
 2024 00ce BDE8F087 		pop	{r4, r5, r6, r7, r8, r9, r10, pc}
 2025              	.LVL198:
 2026              	.L204:
 2027              		.loc 1 484 0
 2028 00d2 42F6DA73 		movw	r3, #12250
 2029 00d6 C4F85A30 		str	r3, [r4, #90]
 2030              		.loc 1 485 0
 2031 00da DBE7     		b	.L206
 2032              	.L201:
 2033              		.loc 1 478 0
 2034 00dc 41F65A53 		movw	r3, #7514
 2035 00e0 C4F85A30 		str	r3, [r4, #90]
 2036              		.loc 1 479 0
 2037 00e4 D6E7     		b	.L206
 2038              	.L203:
 2039              		.loc 1 481 0
 2040 00e6 44F69043 		movw	r3, #19600
 2041 00ea C4F85A30 		str	r3, [r4, #90]
 2042              		.loc 1 482 0
 2043 00ee D1E7     		b	.L206
 2044              	.L200:
 2045              		.loc 1 490 0
 2046 00f0 C4F85A90 		str	r9, [r4, #90]
 2047              		.loc 1 491 0
 2048 00f4 CEE7     		b	.L206
 2049              	.L199:
 2050              		.loc 1 504 0
 2051 00f6 6C23     		movs	r3, #108
 2052 00f8 03FB0656 		mla	r6, r3, r6, r5
ARM GAS  /var/folders/6q/x_mk5n_j3p7_c40r_2k_78980000gn/T//ccJvHgvD.s 			page 37


 2053              	.LVL199:
 2054 00fc 0023     		movs	r3, #0
 2055 00fe 3377     		strb	r3, [r6, #28]
 2056              		.loc 1 505 0
 2057 0100 D6E7     		b	.L208
 2058              	.L213:
 2059 0102 00BF     		.align	2
 2060              	.L212:
 2061 0104 00000000 		.word	.LANCHOR0
 2062              		.cfi_endproc
 2063              	.LFE76:
 2064              		.size	vexIMEFindEncoders, .-vexIMEFindEncoders
 2065              		.section	.text.vexIMEPrintBuf,"ax",%progbits
 2066              		.align	2
 2067              		.p2align 4,,15
 2068              		.global	vexIMEPrintBuf
 2069              		.thumb
 2070              		.thumb_func
 2071              		.type	vexIMEPrintBuf, %function
 2072              	vexIMEPrintBuf:
 2073              	.LFB90:
 2074              		.loc 1 952 0
 2075              		.cfi_startproc
 2076              		@ args = 0, pretend = 0, frame = 0
 2077              		@ frame_needed = 0, uses_anonymous_args = 0
 2078              	.LVL200:
 2079 0000 F8B5     		push	{r3, r4, r5, r6, r7, lr}
 2080              		.cfi_def_cfa_offset 24
 2081              		.cfi_offset 3, -24
 2082              		.cfi_offset 4, -20
 2083              		.cfi_offset 5, -16
 2084              		.cfi_offset 6, -12
 2085              		.cfi_offset 7, -8
 2086              		.cfi_offset 14, -4
 2087              		.loc 1 952 0
 2088 0002 0746     		mov	r7, r0
 2089              	.LVL201:
 2090              		.loc 1 955 0
 2091 0004 3AB3     		cbz	r2, .L215
 2092 0006 0C46     		mov	r4, r1
 2093 0008 0D46     		mov	r5, r1
 2094 000a 8E18     		adds	r6, r1, r2
 2095              	.LVL202:
 2096              	.L216:
 2097              		.loc 1 956 0 discriminator 3
 2098 000c 15F8012B 		ldrb	r2, [r5], #1	@ zero_extendqisi2
 2099              	.LVL203:
 2100 0010 1349     		ldr	r1, .L228
 2101 0012 3846     		mov	r0, r7
 2102 0014 FFF7FEFF 		bl	vex_chprintf
 2103              	.LVL204:
 2104              		.loc 1 955 0 discriminator 3
 2105 0018 B542     		cmp	r5, r6
 2106 001a F7D1     		bne	.L216
 2107              		.loc 1 958 0
 2108 001c 1149     		ldr	r1, .L228+4
 2109 001e 3846     		mov	r0, r7
ARM GAS  /var/folders/6q/x_mk5n_j3p7_c40r_2k_78980000gn/T//ccJvHgvD.s 			page 38


 2110 0020 FFF7FEFF 		bl	vex_chprintf
 2111              	.LVL205:
 2112 0024 04E0     		b	.L220
 2113              	.LVL206:
 2114              	.L227:
 2115              		.loc 1 963 0
 2116 0026 3846     		mov	r0, r7
 2117 0028 FFF7FEFF 		bl	vex_chprintf
 2118              	.LVL207:
 2119              		.loc 1 960 0
 2120 002c B442     		cmp	r4, r6
 2121 002e 0CD0     		beq	.L221
 2122              	.LVL208:
 2123              	.L220:
 2124              		.loc 1 962 0
 2125 0030 14F8012B 		ldrb	r2, [r4], #1	@ zero_extendqisi2
 2126              	.LVL209:
 2127              		.loc 1 963 0
 2128 0034 0C49     		ldr	r1, .L228+8
 2129              		.loc 1 962 0
 2130 0036 A2F12003 		sub	r3, r2, #32
 2131 003a 5E2B     		cmp	r3, #94
 2132 003c F3D9     		bls	.L227
 2133              		.loc 1 965 0
 2134 003e 0B49     		ldr	r1, .L228+12
 2135 0040 3846     		mov	r0, r7
 2136 0042 FFF7FEFF 		bl	vex_chprintf
 2137              	.LVL210:
 2138              		.loc 1 960 0
 2139 0046 B442     		cmp	r4, r6
 2140 0048 F2D1     		bne	.L220
 2141              	.LVL211:
 2142              	.L221:
 2143              		.loc 1 968 0
 2144 004a 3846     		mov	r0, r7
 2145              		.loc 1 969 0
 2146 004c BDE8F840 		pop	{r3, r4, r5, r6, r7, lr}
 2147              		.cfi_remember_state
 2148              		.cfi_restore 14
 2149              		.cfi_restore 7
 2150              		.cfi_restore 6
 2151              		.cfi_restore 5
 2152              		.cfi_restore 4
 2153              		.cfi_restore 3
 2154              		.cfi_def_cfa_offset 0
 2155              	.LVL212:
 2156              		.loc 1 968 0
 2157 0050 0749     		ldr	r1, .L228+16
 2158 0052 FFF7FEBF 		b	vex_chprintf
 2159              	.LVL213:
 2160              	.L215:
 2161              		.cfi_restore_state
 2162              		.loc 1 958 0
 2163 0056 0349     		ldr	r1, .L228+4
 2164              	.LVL214:
 2165 0058 FFF7FEFF 		bl	vex_chprintf
 2166              	.LVL215:
ARM GAS  /var/folders/6q/x_mk5n_j3p7_c40r_2k_78980000gn/T//ccJvHgvD.s 			page 39


 2167 005c F5E7     		b	.L221
 2168              	.L229:
 2169 005e 00BF     		.align	2
 2170              	.L228:
 2171 0060 00000000 		.word	.LC0
 2172 0064 14000000 		.word	.LC4
 2173 0068 08000000 		.word	.LC1
 2174 006c 0C000000 		.word	.LC2
 2175 0070 10000000 		.word	.LC3
 2176              		.cfi_endproc
 2177              	.LFE90:
 2178              		.size	vexIMEPrintBuf, .-vexIMEPrintBuf
 2179              		.section	.text.vexImeTask,"ax",%progbits
 2180              		.align	2
 2181              		.p2align 4,,15
 2182              		.thumb
 2183              		.thumb_func
 2184              		.type	vexImeTask, %function
 2185              	vexImeTask:
 2186              	.LFB72:
 2187              		.loc 1 244 0
 2188              		.cfi_startproc
 2189              		@ args = 0, pretend = 0, frame = 0
 2190              		@ frame_needed = 0, uses_anonymous_args = 0
 2191              	.LVL216:
 2192 0000 2DE9F041 		push	{r4, r5, r6, r7, r8, lr}
 2193              		.cfi_def_cfa_offset 24
 2194              		.cfi_offset 4, -24
 2195              		.cfi_offset 5, -20
 2196              		.cfi_offset 6, -16
 2197              		.cfi_offset 7, -12
 2198              		.cfi_offset 8, -8
 2199              		.cfi_offset 14, -4
 2200              		.loc 1 248 0
 2201 0004 DFF8FC80 		ldr	r8, .L249+32
 2202 0008 3649     		ldr	r1, .L249
 2203 000a D8F81830 		ldr	r3, [r8, #24]
 2204              		.loc 1 251 0
 2205 000e 364E     		ldr	r6, .L249+4
 2206              		.loc 1 248 0
 2207 0010 9961     		str	r1, [r3, #24]
 2208              		.loc 1 253 0
 2209 0012 5B7F     		ldrb	r3, [r3, #29]	@ zero_extendqisi2
 2210              		.loc 1 251 0
 2211 0014 0122     		movs	r2, #1
 2212              		.loc 1 253 0
 2213 0016 03F00403 		and	r3, r3, #4
 2214              		.loc 1 255 0
 2215 001a 3746     		mov	r7, r6
 2216              		.loc 1 251 0
 2217 001c 3283     		strh	r2, [r6, #24]	@ movhi
 2218              		.loc 1 253 0
 2219 001e 03F0FF04 		and	r4, r3, #255
 2220 0022 FBB9     		cbnz	r3, .L245
 2221              	.LVL217:
 2222              	.L240:
 2223              		.loc 1 255 0
ARM GAS  /var/folders/6q/x_mk5n_j3p7_c40r_2k_78980000gn/T//ccJvHgvD.s 			page 40


 2224 0024 338B     		ldrh	r3, [r6, #24]
 2225 0026 012B     		cmp	r3, #1
 2226 0028 1FD0     		beq	.L246
 2227              	.L244:
 2228 002a B7F90830 		ldrsh	r3, [r7, #8]
 2229              		.loc 1 280 0
 2230 002e 002B     		cmp	r3, #0
 2231 0030 50DD     		ble	.L235
 2232              	.L247:
 2233              	.LVL218:
 2234 0032 2E4D     		ldr	r5, .L249+8
 2235 0034 0024     		movs	r4, #0
 2236              	.LVL219:
 2237              	.L238:
 2238              		.loc 1 285 0
 2239 0036 2846     		mov	r0, r5
 2240 0038 FFF7FEFF 		bl	vexIMEUpdateCounts
 2241              	.LVL220:
 2242              		.loc 1 282 0
 2243 003c 0134     		adds	r4, r4, #1
 2244              	.LVL221:
 2245 003e 6C35     		adds	r5, r5, #108
 2246              		.loc 1 285 0
 2247 0040 00B9     		cbnz	r0, .L237
 2248              		.loc 1 286 0
 2249 0042 F082     		strh	r0, [r6, #22]	@ movhi
 2250              	.L237:
 2251              		.loc 1 289 0 discriminator 2
 2252 0044 0120     		movs	r0, #1
 2253 0046 FFF7FEFF 		bl	chThdSleep
 2254              	.LVL222:
 2255              		.loc 1 282 0 discriminator 2
 2256 004a B6F90830 		ldrsh	r3, [r6, #8]
 2257 004e A342     		cmp	r3, r4
 2258 0050 F1DC     		bgt	.L238
 2259 0052 D8F81830 		ldr	r3, [r8, #24]
 2260              	.LVL223:
 2261              	.L248:
 2262              		.loc 1 253 0
 2263 0056 5B7F     		ldrb	r3, [r3, #29]	@ zero_extendqisi2
 2264 0058 03F00403 		and	r3, r3, #4
 2265 005c 03F0FF04 		and	r4, r3, #255
 2266 0060 002B     		cmp	r3, #0
 2267 0062 DFD0     		beq	.L240
 2268              	.L245:
 2269              		.loc 1 302 0
 2270 0064 0020     		movs	r0, #0
 2271 0066 BDE8F081 		pop	{r4, r5, r6, r7, r8, pc}
 2272              	.L246:
 2273              		.loc 1 258 0
 2274 006a FFF7FEFF 		bl	vexIMEFindEncoders
 2275              	.LVL224:
 2276              		.loc 1 261 0
 2277 006e 7B8B     		ldrh	r3, [r7, #26]
 2278 0070 002B     		cmp	r3, #0
 2279 0072 DAD0     		beq	.L244
 2280              	.LVL225:
ARM GAS  /var/folders/6q/x_mk5n_j3p7_c40r_2k_78980000gn/T//ccJvHgvD.s 			page 41


 2281              		.loc 1 263 0 discriminator 1
 2282 0074 B7F90830 		ldrsh	r3, [r7, #8]
 2283 0078 002B     		cmp	r3, #0
 2284 007a 2BDD     		ble	.L235
 2285 007c 1C4D     		ldr	r5, .L249+12
 2286              	.LVL226:
 2287              	.L236:
 2288              		.loc 1 266 0 discriminator 3
 2289 007e 2246     		mov	r2, r4
 2290 0080 1C49     		ldr	r1, .L249+16
 2291 0082 7068     		ldr	r0, [r6, #4]
 2292 0084 FFF7FEFF 		bl	vex_chprintf
 2293              	.LVL227:
 2294              		.loc 1 267 0 discriminator 3
 2295 0088 1B49     		ldr	r1, .L249+20
 2296 008a 7068     		ldr	r0, [r6, #4]
 2297 008c FFF7FEFF 		bl	vex_chprintf
 2298              	.LVL228:
 2299              		.loc 1 268 0 discriminator 3
 2300 0090 0822     		movs	r2, #8
 2301 0092 2946     		mov	r1, r5
 2302 0094 7068     		ldr	r0, [r6, #4]
 2303 0096 FFF7FEFF 		bl	vexIMEPrintBuf
 2304              	.LVL229:
 2305              		.loc 1 270 0 discriminator 3
 2306 009a 1849     		ldr	r1, .L249+24
 2307 009c 7068     		ldr	r0, [r6, #4]
 2308 009e FFF7FEFF 		bl	vex_chprintf
 2309              	.LVL230:
 2310              		.loc 1 271 0 discriminator 3
 2311 00a2 0822     		movs	r2, #8
 2312 00a4 05F11001 		add	r1, r5, #16
 2313 00a8 7068     		ldr	r0, [r6, #4]
 2314 00aa FFF7FEFF 		bl	vexIMEPrintBuf
 2315              	.LVL231:
 2316              		.loc 1 273 0 discriminator 3
 2317 00ae 1449     		ldr	r1, .L249+28
 2318 00b0 7068     		ldr	r0, [r6, #4]
 2319 00b2 FFF7FEFF 		bl	vex_chprintf
 2320              	.LVL232:
 2321              		.loc 1 274 0 discriminator 3
 2322 00b6 05F12001 		add	r1, r5, #32
 2323 00ba 0822     		movs	r2, #8
 2324 00bc 7068     		ldr	r0, [r6, #4]
 2325 00be FFF7FEFF 		bl	vexIMEPrintBuf
 2326              	.LVL233:
 2327              		.loc 1 263 0 discriminator 3
 2328 00c2 B6F90830 		ldrsh	r3, [r6, #8]
 2329 00c6 0134     		adds	r4, r4, #1
 2330              	.LVL234:
 2331 00c8 A342     		cmp	r3, r4
 2332 00ca 05F16C05 		add	r5, r5, #108
 2333 00ce D6DC     		bgt	.L236
 2334              		.loc 1 280 0
 2335 00d0 002B     		cmp	r3, #0
 2336 00d2 AEDC     		bgt	.L247
 2337              	.LVL235:
ARM GAS  /var/folders/6q/x_mk5n_j3p7_c40r_2k_78980000gn/T//ccJvHgvD.s 			page 42


 2338              	.L235:
 2339              		.loc 1 295 0
 2340 00d4 0123     		movs	r3, #1
 2341              		.loc 1 297 0
 2342 00d6 0A20     		movs	r0, #10
 2343              		.loc 1 295 0
 2344 00d8 3383     		strh	r3, [r6, #24]	@ movhi
 2345              		.loc 1 297 0
 2346 00da FFF7FEFF 		bl	chThdSleep
 2347              	.LVL236:
 2348 00de D8F81830 		ldr	r3, [r8, #24]
 2349 00e2 B8E7     		b	.L248
 2350              	.L250:
 2351              		.align	2
 2352              	.L249:
 2353 00e4 18000000 		.word	.LC5
 2354 00e8 00000000 		.word	.LANCHOR0
 2355 00ec 1C000000 		.word	.LANCHOR0+28
 2356 00f0 22000000 		.word	.LANCHOR0+34
 2357 00f4 1C000000 		.word	.LC6
 2358 00f8 2C000000 		.word	.LC7
 2359 00fc 38000000 		.word	.LC8
 2360 0100 44000000 		.word	.LC9
 2361 0104 00000000 		.word	rlist
 2362              		.cfi_endproc
 2363              	.LFE72:
 2364              		.size	vexImeTask, .-vexImeTask
 2365              		.section	.text.vexIMEDebug,"ax",%progbits
 2366              		.align	2
 2367              		.p2align 4,,15
 2368              		.global	vexIMEDebug
 2369              		.thumb
 2370              		.thumb_func
 2371              		.type	vexIMEDebug, %function
 2372              	vexIMEDebug:
 2373              	.LFB91:
 2374              		.loc 1 980 0
 2375              		.cfi_startproc
 2376              		@ args = 0, pretend = 0, frame = 0
 2377              		@ frame_needed = 0, uses_anonymous_args = 0
 2378              	.LVL237:
 2379 0000 F0B5     		push	{r4, r5, r6, r7, lr}
 2380              		.cfi_def_cfa_offset 20
 2381              		.cfi_offset 4, -20
 2382              		.cfi_offset 5, -16
 2383              		.cfi_offset 6, -12
 2384              		.cfi_offset 7, -8
 2385              		.cfi_offset 14, -4
 2386 0002 0546     		mov	r5, r0
 2387              		.loc 1 986 0
 2388 0004 384F     		ldr	r7, .L264
 2389              		.loc 1 980 0
 2390 0006 85B0     		sub	sp, sp, #20
 2391              		.cfi_def_cfa_offset 40
 2392              		.loc 1 986 0
 2393 0008 3849     		ldr	r1, .L264+4
 2394              	.LVL238:
ARM GAS  /var/folders/6q/x_mk5n_j3p7_c40r_2k_78980000gn/T//ccJvHgvD.s 			page 43


 2395 000a B7F90820 		ldrsh	r2, [r7, #8]
 2396              	.LVL239:
 2397 000e FFF7FEFF 		bl	vex_chprintf
 2398              	.LVL240:
 2399              		.loc 1 987 0
 2400 0012 788A     		ldrh	r0, [r7, #18]
 2401 0014 398A     		ldrh	r1, [r7, #16]
 2402 0016 BC8A     		ldrh	r4, [r7, #20]
 2403 0018 FB89     		ldrh	r3, [r7, #14]
 2404 001a BA89     		ldrh	r2, [r7, #12]
 2405 001c 0190     		str	r0, [sp, #4]
 2406 001e 0091     		str	r1, [sp]
 2407 0020 0294     		str	r4, [sp, #8]
 2408 0022 2846     		mov	r0, r5
 2409 0024 3249     		ldr	r1, .L264+8
 2410 0026 FFF7FEFF 		bl	vex_chprintf
 2411              	.LVL241:
 2412              		.loc 1 990 0
 2413 002a B7F90830 		ldrsh	r3, [r7, #8]
 2414 002e 002B     		cmp	r3, #0
 2415 0030 43DD     		ble	.L251
 2416 0032 07F14204 		add	r4, r7, #66
 2417 0036 0026     		movs	r6, #0
 2418              	.LVL242:
 2419              	.L260:
 2420              		.loc 1 992 0
 2421 0038 0136     		adds	r6, r6, #1
 2422              	.LVL243:
 2423 003a 3246     		mov	r2, r6
 2424 003c 2D49     		ldr	r1, .L264+12
 2425 003e 2846     		mov	r0, r5
 2426 0040 FFF7FEFF 		bl	vex_chprintf
 2427              	.LVL244:
 2428              		.loc 1 994 0
 2429 0044 14F8253C 		ldrb	r3, [r4, #-37]	@ zero_extendqisi2
 2430 0048 032B     		cmp	r3, #3
 2431 004a 47D8     		bhi	.L253
 2432 004c DFE803F0 		tbb	[pc, r3]
 2433              	.L255:
 2434 0050 41       		.byte	(.L254-.L255)/2
 2435 0051 3C       		.byte	(.L256-.L255)/2
 2436 0052 37       		.byte	(.L257-.L255)/2
 2437 0053 02       		.byte	(.L258-.L255)/2
 2438              		.p2align 1
 2439              	.L258:
 2440              		.loc 1 1006 0
 2441 0054 2849     		ldr	r1, .L264+16
 2442 0056 2846     		mov	r0, r5
 2443 0058 FFF7FEFF 		bl	vex_chprintf
 2444              	.LVL245:
 2445              	.L259:
 2446              		.loc 1 1013 0 discriminator 2
 2447 005c 34F8223C 		ldrh	r3, [r4, #-34]
 2448 0060 2246     		mov	r2, r4
 2449 0062 0133     		adds	r3, r3, #1
 2450 0064 2549     		ldr	r1, .L264+20
 2451 0066 2846     		mov	r0, r5
ARM GAS  /var/folders/6q/x_mk5n_j3p7_c40r_2k_78980000gn/T//ccJvHgvD.s 			page 44


 2452 0068 FFF7FEFF 		bl	vex_chprintf
 2453              	.LVL246:
 2454              		.loc 1 1014 0 discriminator 2
 2455 006c D4F83E20 		ldr	r2, [r4, #62]
 2456 0070 2349     		ldr	r1, .L264+24
 2457 0072 2846     		mov	r0, r5
 2458 0074 FFF7FEFF 		bl	vex_chprintf
 2459              	.LVL247:
 2460              		.loc 1 1015 0 discriminator 2
 2461 0078 D4F84220 		ldr	r2, [r4, #66]
 2462 007c 2149     		ldr	r1, .L264+28
 2463 007e 2846     		mov	r0, r5
 2464 0080 FFF7FEFF 		bl	vex_chprintf
 2465              	.LVL248:
 2466              		.loc 1 1016 0 discriminator 2
 2467 0084 D4F82220 		ldr	r2, [r4, #34]
 2468 0088 1F49     		ldr	r1, .L264+32
 2469 008a 2846     		mov	r0, r5
 2470 008c FFF7FEFF 		bl	vex_chprintf
 2471              	.LVL249:
 2472              		.loc 1 1017 0 discriminator 2
 2473 0090 D4F82A20 		ldr	r2, [r4, #42]
 2474 0094 1D49     		ldr	r1, .L264+36
 2475 0096 2846     		mov	r0, r5
 2476 0098 FFF7FEFF 		bl	vex_chprintf
 2477              	.LVL250:
 2478              		.loc 1 1018 0 discriminator 2
 2479 009c D4F83220 		ldr	r2, [r4, #50]
 2480 00a0 1B49     		ldr	r1, .L264+40
 2481 00a2 2846     		mov	r0, r5
 2482 00a4 FFF7FEFF 		bl	vex_chprintf
 2483              	.LVL251:
 2484              		.loc 1 1019 0 discriminator 2
 2485 00a8 1A49     		ldr	r1, .L264+44
 2486 00aa 2846     		mov	r0, r5
 2487 00ac FFF7FEFF 		bl	vex_chprintf
 2488              	.LVL252:
 2489              		.loc 1 990 0 discriminator 2
 2490 00b0 B7F90830 		ldrsh	r3, [r7, #8]
 2491 00b4 6C34     		adds	r4, r4, #108
 2492 00b6 B342     		cmp	r3, r6
 2493 00b8 BEDC     		bgt	.L260
 2494              	.LVL253:
 2495              	.L251:
 2496              		.loc 1 1021 0
 2497 00ba 05B0     		add	sp, sp, #20
 2498              		.cfi_remember_state
 2499              		.cfi_def_cfa_offset 20
 2500              		@ sp needed
 2501 00bc F0BD     		pop	{r4, r5, r6, r7, pc}
 2502              	.LVL254:
 2503              	.L257:
 2504              		.cfi_restore_state
 2505              		.loc 1 1003 0
 2506 00be 1649     		ldr	r1, .L264+48
 2507 00c0 2846     		mov	r0, r5
 2508 00c2 FFF7FEFF 		bl	vex_chprintf
ARM GAS  /var/folders/6q/x_mk5n_j3p7_c40r_2k_78980000gn/T//ccJvHgvD.s 			page 45


 2509              	.LVL255:
 2510              		.loc 1 1004 0
 2511 00c6 C9E7     		b	.L259
 2512              	.L256:
 2513              		.loc 1 1000 0
 2514 00c8 1449     		ldr	r1, .L264+52
 2515 00ca 2846     		mov	r0, r5
 2516 00cc FFF7FEFF 		bl	vex_chprintf
 2517              	.LVL256:
 2518              		.loc 1 1001 0
 2519 00d0 C4E7     		b	.L259
 2520              	.L254:
 2521              		.loc 1 997 0
 2522 00d2 1349     		ldr	r1, .L264+56
 2523 00d4 2846     		mov	r0, r5
 2524 00d6 FFF7FEFF 		bl	vex_chprintf
 2525              	.LVL257:
 2526              		.loc 1 998 0
 2527 00da BFE7     		b	.L259
 2528              	.L253:
 2529              		.loc 1 1009 0
 2530 00dc 1149     		ldr	r1, .L264+60
 2531 00de 2846     		mov	r0, r5
 2532 00e0 FFF7FEFF 		bl	vex_chprintf
 2533              	.LVL258:
 2534              		.loc 1 1010 0
 2535 00e4 BAE7     		b	.L259
 2536              	.L265:
 2537 00e6 00BF     		.align	2
 2538              	.L264:
 2539 00e8 00000000 		.word	.LANCHOR0
 2540 00ec 50000000 		.word	.LC10
 2541 00f0 64000000 		.word	.LC11
 2542 00f4 98000000 		.word	.LC12
 2543 00f8 B8000000 		.word	.LC16
 2544 00fc C8000000 		.word	.LC18
 2545 0100 D8000000 		.word	.LC19
 2546 0104 E0000000 		.word	.LC20
 2547 0108 E8000000 		.word	.LC21
 2548 010c F4000000 		.word	.LC22
 2549 0110 00010000 		.word	.LC23
 2550 0114 10000000 		.word	.LC3
 2551 0118 B0000000 		.word	.LC15
 2552 011c A8000000 		.word	.LC14
 2553 0120 A0000000 		.word	.LC13
 2554 0124 C0000000 		.word	.LC17
 2555              		.cfi_endproc
 2556              	.LFE91:
 2557              		.size	vexIMEDebug, .-vexIMEDebug
 2558              		.section	.bss.waVexImeTask,"aw",%nobits
 2559              		.align	3
 2560              		.set	.LANCHOR2,. + 0
 2561              		.type	waVexImeTask, %object
 2562              		.size	waVexImeTask, 640
 2563              	waVexImeTask:
 2564 0000 00000000 		.space	640
 2564      00000000 
ARM GAS  /var/folders/6q/x_mk5n_j3p7_c40r_2k_78980000gn/T//ccJvHgvD.s 			page 46


 2564      00000000 
 2564      00000000 
 2564      00000000 
 2565              		.section	.rodata.str1.4,"aMS",%progbits,1
 2566              		.align	2
 2567              	.LC0:
 2568 0000 25303258 		.ascii	"%02X \000"
 2568      2000
 2569 0006 0000     		.space	2
 2570              	.LC1:
 2571 0008 256300   		.ascii	"%c\000"
 2572 000b 00       		.space	1
 2573              	.LC2:
 2574 000c 2E00     		.ascii	".\000"
 2575 000e 0000     		.space	2
 2576              	.LC3:
 2577 0010 0D0A00   		.ascii	"\015\012\000"
 2578 0013 00       		.space	1
 2579              	.LC4:
 2580 0014 3A2000   		.ascii	": \000"
 2581 0017 00       		.space	1
 2582              	.LC5:
 2583 0018 696D6500 		.ascii	"ime\000"
 2584              	.LC6:
 2585 001c 456E636F 		.ascii	"Encoder:%d\015\012\000"
 2585      6465723A 
 2585      25640D0A 
 2585      00
 2586 0029 000000   		.space	3
 2587              	.LC7:
 2588 002c 56657273 		.ascii	"Version:   \000"
 2588      696F6E3A 
 2588      20202000 
 2589              	.LC8:
 2590 0038 56656E64 		.ascii	"Vendor:    \000"
 2590      6F723A20 
 2590      20202000 
 2591              	.LC9:
 2592 0044 44657669 		.ascii	"Device ID: \000"
 2592      63652049 
 2592      443A2000 
 2593              	.LC10:
 2594 0050 25642049 		.ascii	"%d IME's found\015\012\000"
 2594      4D452773 
 2594      20666F75 
 2594      6E640D0A 
 2594      00
 2595 0061 000000   		.space	3
 2596              	.LC11:
 2597 0064 4572726F 		.ascii	"Errors Lock(%d) Ack(%d) Bus(%d) Arb(%d) Tim(%d)\015"
 2597      7273204C 
 2597      6F636B28 
 2597      25642920 
 2597      41636B28 
 2598 0094 0A00     		.ascii	"\012\000"
 2599 0096 0000     		.space	2
 2600              	.LC12:
ARM GAS  /var/folders/6q/x_mk5n_j3p7_c40r_2k_78980000gn/T//ccJvHgvD.s 			page 47


 2601 0098 494D455F 		.ascii	"IME_%d \000"
 2601      25642000 
 2602              	.LC13:
 2603 00a0 32363920 		.ascii	"269  \000"
 2603      2000
 2604 00a6 0000     		.space	2
 2605              	.LC14:
 2606 00a8 33393354 		.ascii	"393T \000"
 2606      2000
 2607 00ae 0000     		.space	2
 2608              	.LC15:
 2609 00b0 33393353 		.ascii	"393S \000"
 2609      2000
 2610 00b6 0000     		.space	2
 2611              	.LC16:
 2612 00b8 33393352 		.ascii	"393R \000"
 2612      2000
 2613 00be 0000     		.space	2
 2614              	.LC17:
 2615 00c0 2D2D2D2D 		.ascii	"---- \000"
 2615      2000
 2616 00c6 0000     		.space	2
 2617              	.LC18:
 2618 00c8 28252D38 		.ascii	"(%-8s) M_%-2d \000"
 2618      7329204D 
 2618      5F252D32 
 2618      642000
 2619 00d7 00       		.space	1
 2620              	.LC19:
 2621 00d8 2538642F 		.ascii	"%8d/\000"
 2621      00
 2622 00dd 000000   		.space	3
 2623              	.LC20:
 2624 00e0 252D3564 		.ascii	"%-5d \000"
 2624      2000
 2625 00e6 0000     		.space	2
 2626              	.LC21:
 2627 00e8 636F756E 		.ascii	"count %6d \000"
 2627      74202536 
 2627      642000
 2628 00f3 00       		.space	1
 2629              	.LC22:
 2630 00f4 76656C20 		.ascii	"vel   %5d \000"
 2630      20202535 
 2630      642000
 2631 00ff 00       		.space	1
 2632              	.LC23:
 2633 0100 72706D20 		.ascii	"rpm   %3d \000"
 2633      20202533 
 2633      642000
 2634              		.section	.rodata.imeI2cConfig,"a",%progbits
 2635              		.align	2
 2636              		.set	.LANCHOR1,. + 0
 2637              		.type	imeI2cConfig, %object
 2638              		.size	imeI2cConfig, 12
 2639              	imeI2cConfig:
 2640 0000 01       		.byte	1
ARM GAS  /var/folders/6q/x_mk5n_j3p7_c40r_2k_78980000gn/T//ccJvHgvD.s 			page 48


 2641 0001 000000   		.space	3
 2642 0004 A0860100 		.word	100000
 2643 0008 02       		.byte	2
 2644 0009 000000   		.space	3
 2645              		.section	.bss.vexImes,"aw",%nobits
 2646              		.align	2
 2647              		.set	.LANCHOR0,. + 0
 2648              		.type	vexImes, %object
 2649              		.size	vexImes, 892
 2650              	vexImes:
 2651 0000 00000000 		.space	892
 2651      00000000 
 2651      00000000 
 2651      00000000 
 2651      00000000 
 2652              		.text
 2653              	.Letext0:
 2654              		.file 2 "/Users/Luca/src/vexilla/src/gcc-arm-none-eabi-5_4-2016q3/arm-none-eabi/include/machine/_d
 2655              		.file 3 "/Users/Luca/src/vexilla/src/gcc-arm-none-eabi-5_4-2016q3/lib/gcc/arm-none-eabi/5.4.1/incl
 2656              		.file 4 "/Users/Luca/src/vexilla/src/gcc-arm-none-eabi-5_4-2016q3/arm-none-eabi/include/sys/_stdin
 2657              		.file 5 "../ChibiOS/os/ports/GCC/ARMCMx/chtypes.h"
 2658              		.file 6 "../ChibiOS/os/kernel/include/chlists.h"
 2659              		.file 7 "../ChibiOS/os/kernel/include/chthreads.h"
 2660              		.file 8 "../ChibiOS/os/ports/GCC/ARMCMx/chcore_v7m.h"
 2661              		.file 9 "../ChibiOS/os/kernel/include/chschd.h"
 2662              		.file 10 "../ChibiOS/os/kernel/include/chmtx.h"
 2663              		.file 11 "../ChibiOS/os/kernel/include/chstreams.h"
 2664              		.file 12 "../ChibiOS/os/hal/platforms/STM32F1xx/stm32f10x.h"
 2665              		.file 13 "../ChibiOS/os/hal/platforms/STM32F1xx/stm32_dma.h"
 2666              		.file 14 "../ChibiOS/os/hal/include/i2c.h"
 2667              		.file 15 "../ChibiOS/os/hal/platforms/STM32/I2Cv1/i2c_lld.h"
 2668              		.file 16 "../convex-vexilla/cortex/fw/vexcompat.h"
 2669              		.file 17 "../convex-vexilla/cortex/fw/vexdigital.h"
 2670              		.file 18 "../convex-vexilla/cortex/fw/vexmotor.h"
 2671              		.file 19 "../convex-vexilla/cortex/fw/vexime.h"
 2672              		.file 20 "../ChibiOS/os/ports/common/ARMCMx/CMSIS/include/core_cm3.h"
 2673              		.file 21 "../ChibiOS/os/kernel/include/chheap.h"
 2674              		.file 22 "../convex-vexilla/cortex/fw/vexprintf.h"