ARM GAS  /var/folders/6q/x_mk5n_j3p7_c40r_2k_78980000gn/T//ccwQ3xLo.s 			page 1


   1              		.syntax unified
   2              		.cpu cortex-m3
   3              		.fpu softvfp
   4              		.eabi_attribute 20, 1
   5              		.eabi_attribute 21, 1
   6              		.eabi_attribute 23, 3
   7              		.eabi_attribute 24, 1
   8              		.eabi_attribute 25, 1
   9              		.eabi_attribute 26, 1
  10              		.eabi_attribute 30, 2
  11              		.eabi_attribute 34, 1
  12              		.eabi_attribute 18, 4
  13              		.thumb
  14              		.syntax unified
  15              		.file	"vexlcd.c"
  16              		.text
  17              	.Ltext0:
  18              		.cfi_sections	.debug_frame
  19              		.section	.text.vexLcdSet.part.0,"ax",%progbits
  20              		.align	2
  21              		.p2align 4,,15
  22              		.thumb
  23              		.thumb_func
  24              		.type	vexLcdSet.part.0, %function
  25              	vexLcdSet.part.0:
  26              	.LFB76:
  27              		.file 1 "../convex-vexilla/cortex/fw/vexlcd.c"
  28              		.loc 1 175 0
  29              		.cfi_startproc
  30              		@ args = 0, pretend = 0, frame = 0
  31              		@ frame_needed = 0, uses_anonymous_args = 0
  32              		@ link register save eliminated.
  33              	.LVL0:
  34              		.loc 1 181 0
  35 0000 074B     		ldr	r3, .L5
  36 0002 00EB4000 		add	r0, r0, r0, lsl #1
  37              	.LVL1:
  38 0006 03EB4010 		add	r0, r3, r0, lsl #5
  39              		.loc 1 180 0
  40 000a 21B1     		cbz	r1, .L4
  41              		.loc 1 183 0
  42 000c 1146     		mov	r1, r2
  43              	.LVL2:
  44 000e 1C30     		adds	r0, r0, #28
  45 0010 1022     		movs	r2, #16
  46              	.LVL3:
  47 0012 FFF7FEBF 		b	strncpy
  48              	.LVL4:
  49              	.L4:
  50              		.loc 1 181 0
  51 0016 1146     		mov	r1, r2
  52              	.LVL5:
  53 0018 0830     		adds	r0, r0, #8
  54 001a 1022     		movs	r2, #16
  55              	.LVL6:
  56 001c FFF7FEBF 		b	strncpy
  57              	.LVL7:
ARM GAS  /var/folders/6q/x_mk5n_j3p7_c40r_2k_78980000gn/T//ccwQ3xLo.s 			page 2


  58              	.L6:
  59              		.align	2
  60              	.L5:
  61 0020 00000000 		.word	.LANCHOR0
  62              		.cfi_endproc
  63              	.LFE76:
  64              		.size	vexLcdSet.part.0, .-vexLcdSet.part.0
  65              		.section	.text.vexLcdSendMessage.part.2,"ax",%progbits
  66              		.align	2
  67              		.p2align 4,,15
  68              		.thumb
  69              		.thumb_func
  70              		.type	vexLcdSendMessage.part.2, %function
  71              	vexLcdSendMessage.part.2:
  72              	.LFB78:
  73              		.loc 1 303 0
  74              		.cfi_startproc
  75              		@ args = 0, pretend = 0, frame = 0
  76              		@ frame_needed = 0, uses_anonymous_args = 0
  77              		@ link register save eliminated.
  78              	.LVL8:
  79 0000 70B4     		push	{r4, r5, r6}
  80              		.cfi_def_cfa_offset 12
  81              		.cfi_offset 4, -12
  82              		.cfi_offset 5, -8
  83              		.cfi_offset 6, -4
  84              		.loc 1 303 0
  85 0002 0446     		mov	r4, r0
  86              		.loc 1 317 0
  87 0004 8379     		ldrb	r3, [r0, #6]	@ zero_extendqisi2
  88              		.loc 1 316 0
  89 0006 1222     		movs	r2, #18
  90              		.loc 1 317 0
  91 0008 DB07     		lsls	r3, r3, #31
  92 000a 2346     		mov	r3, r4
  93              		.loc 1 316 0
  94 000c 84F83320 		strb	r2, [r4, #51]
  95              		.loc 1 317 0
  96 0010 48BF     		it	mi
  97 0012 8A1C     		addmi	r2, r1, #2
  98              		.loc 1 315 0
  99 0014 4FF01E00 		mov	r0, #30
 100              	.LVL9:
 101              		.loc 1 317 0
 102 0018 4CBF     		ite	mi
 103 001a D2B2     		uxtbmi	r2, r2
 104 001c CAB2     		uxtbpl	r2, r1
 105              		.loc 1 313 0
 106 001e AA26     		movs	r6, #170
 107              		.loc 1 314 0
 108 0020 5525     		movs	r5, #85
 109              		.loc 1 315 0
 110 0022 84F83200 		strb	r0, [r4, #50]
 111              		.loc 1 313 0
 112 0026 84F83060 		strb	r6, [r4, #48]
 113              		.loc 1 314 0
 114 002a 84F83150 		strb	r5, [r4, #49]
ARM GAS  /var/folders/6q/x_mk5n_j3p7_c40r_2k_78980000gn/T//ccwQ3xLo.s 			page 3


 115 002e 04F14400 		add	r0, r4, #68
 116              		.loc 1 317 0
 117 0032 03F8342F 		strb	r2, [r3, #52]!
 118              	.LVL10:
 119              		.loc 1 321 0
 120 0036 2022     		movs	r2, #32
 121              	.LVL11:
 122              	.L10:
 123 0038 03F8012F 		strb	r2, [r3, #1]!
 124              		.loc 1 320 0
 125 003c 8342     		cmp	r3, r0
 126 003e FBD1     		bne	.L10
 127              		.loc 1 324 0
 128 0040 01BB     		cbnz	r1, .L11
 129 0042 E31D     		adds	r3, r4, #7
 130 0044 04F11701 		add	r1, r4, #23
 131              	.LVL12:
 132              	.L13:
 133              		.loc 1 326 0
 134 0048 13F8012F 		ldrb	r2, [r3, #1]!	@ zero_extendqisi2
 135 004c 0AB1     		cbz	r2, .L12
 136              		.loc 1 327 0
 137 004e 83F82D20 		strb	r2, [r3, #45]
 138              	.L12:
 139              		.loc 1 325 0
 140 0052 9942     		cmp	r1, r3
 141 0054 F8D1     		bne	.L13
 142              	.L17:
 143              	.LVL13:
 144 0056 04F13302 		add	r2, r4, #51
 145              		.loc 1 337 0
 146 005a 0023     		movs	r3, #0
 147              	.LVL14:
 148              	.L14:
 149              		.loc 1 339 0
 150 005c 12F8011F 		ldrb	r1, [r2, #1]!	@ zero_extendqisi2
 151 0060 0B44     		add	r3, r3, r1
 152              	.LVL15:
 153 0062 99B2     		uxth	r1, r3
 154              		.loc 1 338 0
 155 0064 9042     		cmp	r0, r2
 156              		.loc 1 339 0
 157 0066 0BB2     		sxth	r3, r1
 158              	.LVL16:
 159              		.loc 1 338 0
 160 0068 F8D1     		bne	.L14
 161              		.loc 1 341 0
 162 006a 4B42     		negs	r3, r1
 163              	.LVL17:
 164              		.loc 1 344 0
 165 006c 2068     		ldr	r0, [r4]
 166              		.loc 1 341 0
 167 006e 84F84530 		strb	r3, [r4, #69]
 168              		.loc 1 344 0
 169 0072 04F13001 		add	r1, r4, #48
 170              	.LVL18:
 171 0076 3030     		adds	r0, r0, #48
ARM GAS  /var/folders/6q/x_mk5n_j3p7_c40r_2k_78980000gn/T//ccwQ3xLo.s 			page 4


 172 0078 4FF0FF33 		mov	r3, #-1
 173              	.LVL19:
 174 007c 1622     		movs	r2, #22
 175              		.loc 1 345 0
 176 007e 70BC     		pop	{r4, r5, r6}
 177              		.cfi_remember_state
 178              		.cfi_restore 6
 179              		.cfi_restore 5
 180              		.cfi_restore 4
 181              		.cfi_def_cfa_offset 0
 182              	.LVL20:
 183              		.loc 1 344 0
 184 0080 FFF7FEBF 		b	chOQWriteTimeout
 185              	.LVL21:
 186              	.L11:
 187              		.cfi_restore_state
 188 0084 04F11B03 		add	r3, r4, #27
 189 0088 04F12B01 		add	r1, r4, #43
 190              	.LVL22:
 191              	.L16:
 192              		.loc 1 331 0
 193 008c 13F8012F 		ldrb	r2, [r3, #1]!	@ zero_extendqisi2
 194 0090 02B1     		cbz	r2, .L15
 195              		.loc 1 332 0
 196 0092 5A76     		strb	r2, [r3, #25]
 197              	.L15:
 198              		.loc 1 330 0
 199 0094 8B42     		cmp	r3, r1
 200 0096 F9D1     		bne	.L16
 201 0098 DDE7     		b	.L17
 202              		.cfi_endproc
 203              	.LFE78:
 204              		.size	vexLcdSendMessage.part.2, .-vexLcdSendMessage.part.2
 205 009a 00BF     		.section	.text.vexLcdInit,"ax",%progbits
 206              		.align	2
 207              		.p2align 4,,15
 208              		.global	vexLcdInit
 209              		.thumb
 210              		.thumb_func
 211              		.type	vexLcdInit, %function
 212              	vexLcdInit:
 213              	.LFB65:
 214              		.loc 1 131 0
 215              		.cfi_startproc
 216              		@ args = 0, pretend = 0, frame = 0
 217              		@ frame_needed = 0, uses_anonymous_args = 0
 218              	.LVL23:
 219              		.loc 1 134 0
 220 0000 83B2     		uxth	r3, r0
 221 0002 012B     		cmp	r3, #1
 222 0004 00D9     		bls	.L46
 223              	.L45:
 224 0006 7047     		bx	lr
 225              	.L46:
 226              		.loc 1 138 0
 227 0008 0029     		cmp	r1, #0
 228 000a FCD0     		beq	.L45
ARM GAS  /var/folders/6q/x_mk5n_j3p7_c40r_2k_78980000gn/T//ccwQ3xLo.s 			page 5


 229              		.loc 1 131 0
 230 000c F0B5     		push	{r4, r5, r6, r7, lr}
 231              		.cfi_def_cfa_offset 20
 232              		.cfi_offset 4, -20
 233              		.cfi_offset 5, -16
 234              		.cfi_offset 6, -12
 235              		.cfi_offset 7, -8
 236              		.cfi_offset 14, -4
 237              		.loc 1 140 0
 238 000e 4600     		lsls	r6, r0, #1
 239 0010 3718     		adds	r7, r6, r0
 240 0012 7F01     		lsls	r7, r7, #5
 241 0014 244D     		ldr	r5, .L47
 242 0016 FB1D     		adds	r3, r7, #7
 243 0018 07F11B02 		add	r2, r7, #27
 244 001c E951     		str	r1, [r5, r7]
 245              	.LVL24:
 246              		.loc 1 131 0
 247 001e 83B0     		sub	sp, sp, #12
 248              		.cfi_def_cfa_offset 32
 249 0020 2B44     		add	r3, r3, r5
 250 0022 2A44     		add	r2, r2, r5
 251              		.loc 1 144 0
 252 0024 2021     		movs	r1, #32
 253              	.LVL25:
 254              	.L33:
 255              		.loc 1 144 0 is_stmt 0 discriminator 3
 256 0026 03F8011F 		strb	r1, [r3, #1]!
 257              	.LVL26:
 258              		.loc 1 143 0 is_stmt 1 discriminator 3
 259 002a 9342     		cmp	r3, r2
 260 002c FBD1     		bne	.L33
 261              		.loc 1 145 0
 262 002e 3118     		adds	r1, r6, r0
 263 0030 05EB4111 		add	r1, r5, r1, lsl #5
 264 0034 0024     		movs	r4, #0
 265 0036 07F11B02 		add	r2, r7, #27
 266 003a 07F12F03 		add	r3, r7, #47
 267              	.LVL27:
 268 003e 0C76     		strb	r4, [r1, #24]
 269              	.LVL28:
 270 0040 2A44     		add	r2, r2, r5
 271 0042 EC18     		adds	r4, r5, r3
 272              		.loc 1 148 0
 273 0044 2021     		movs	r1, #32
 274              	.LVL29:
 275              	.L34:
 276              		.loc 1 148 0 is_stmt 0 discriminator 3
 277 0046 02F8011F 		strb	r1, [r2, #1]!
 278              	.LVL30:
 279              		.loc 1 147 0 is_stmt 1 discriminator 3
 280 004a A242     		cmp	r2, r4
 281 004c FBD1     		bne	.L34
 282              		.loc 1 149 0
 283 004e 4FF0000E 		mov	lr, #0
 284              		.loc 1 153 0
 285 0052 7446     		mov	r4, lr
ARM GAS  /var/folders/6q/x_mk5n_j3p7_c40r_2k_78980000gn/T//ccwQ3xLo.s 			page 6


 286              		.loc 1 149 0
 287 0054 3118     		adds	r1, r6, r0
 288 0056 05EB4111 		add	r1, r5, r1, lsl #5
 289 005a 07F14F02 		add	r2, r7, #79
 290              	.LVL31:
 291 005e 81F82CE0 		strb	lr, [r1, #44]
 292              	.LVL32:
 293 0062 2B44     		add	r3, r3, r5
 294 0064 A918     		adds	r1, r5, r2
 295              	.LVL33:
 296              	.L35:
 297              		.loc 1 153 0 discriminator 3
 298 0066 03F8014F 		strb	r4, [r3, #1]!
 299              	.LVL34:
 300              		.loc 1 152 0 discriminator 3
 301 006a 8B42     		cmp	r3, r1
 302 006c FBD1     		bne	.L35
 303 006e 07F15F01 		add	r1, r7, #95
 304 0072 AB18     		adds	r3, r5, r2
 305              	.LVL35:
 306 0074 2944     		add	r1, r1, r5
 307              		.loc 1 155 0
 308 0076 0022     		movs	r2, #0
 309              	.L36:
 310              	.LVL36:
 311              		.loc 1 155 0 is_stmt 0 discriminator 3
 312 0078 03F8012F 		strb	r2, [r3, #1]!
 313              	.LVL37:
 314              		.loc 1 154 0 is_stmt 1 discriminator 3
 315 007c 8B42     		cmp	r3, r1
 316 007e FBD1     		bne	.L36
 317              		.loc 1 159 0
 318 0080 0A4C     		ldr	r4, .L47+4
 319              		.loc 1 156 0
 320 0082 3044     		add	r0, r0, r6
 321              	.LVL38:
 322              		.loc 1 159 0
 323 0084 B4F90030 		ldrsh	r3, [r4]
 324              		.loc 1 156 0
 325 0088 05EB4015 		add	r5, r5, r0, lsl #5
 326 008c 0126     		movs	r6, #1
 327 008e AE80     		strh	r6, [r5, #4]	@ movhi
 328              		.loc 1 159 0
 329 0090 43B9     		cbnz	r3, .L29
 330              		.loc 1 162 0
 331 0092 0093     		str	r3, [sp]
 332 0094 4022     		movs	r2, #64
 333 0096 064B     		ldr	r3, .L47+8
 334 0098 4FF4C071 		mov	r1, #384
 335 009c 0548     		ldr	r0, .L47+12
 336              		.loc 1 161 0
 337 009e 2680     		strh	r6, [r4]	@ movhi
 338              		.loc 1 162 0
 339 00a0 FFF7FEFF 		bl	chThdCreateStatic
 340              	.LVL39:
 341              	.L29:
 342              		.loc 1 165 0
ARM GAS  /var/folders/6q/x_mk5n_j3p7_c40r_2k_78980000gn/T//ccwQ3xLo.s 			page 7


 343 00a4 03B0     		add	sp, sp, #12
 344              		.cfi_def_cfa_offset 20
 345              		@ sp needed
 346 00a6 F0BD     		pop	{r4, r5, r6, r7, pc}
 347              	.L48:
 348              		.align	2
 349              	.L47:
 350 00a8 00000000 		.word	.LANCHOR0
 351 00ac 00000000 		.word	.LANCHOR1
 352 00b0 00000000 		.word	VexLcdUpdate
 353 00b4 00000000 		.word	.LANCHOR2
 354              		.cfi_endproc
 355              	.LFE65:
 356              		.size	vexLcdInit, .-vexLcdInit
 357              		.section	.text.vexLcdSet,"ax",%progbits
 358              		.align	2
 359              		.p2align 4,,15
 360              		.global	vexLcdSet
 361              		.thumb
 362              		.thumb_func
 363              		.type	vexLcdSet, %function
 364              	vexLcdSet:
 365              	.LFB66:
 366              		.loc 1 176 0
 367              		.cfi_startproc
 368              		@ args = 0, pretend = 0, frame = 0
 369              		@ frame_needed = 0, uses_anonymous_args = 0
 370              		@ link register save eliminated.
 371              	.LVL40:
 372              		.loc 1 177 0
 373 0000 83B2     		uxth	r3, r0
 374 0002 012B     		cmp	r3, #1
 375 0004 00D9     		bls	.L51
 376 0006 7047     		bx	lr
 377              	.L51:
 378 0008 FFF7FEBF 		b	vexLcdSet.part.0
 379              	.LVL41:
 380              		.cfi_endproc
 381              	.LFE66:
 382              		.size	vexLcdSet, .-vexLcdSet
 383              		.section	.text.vexLcdSetAt,"ax",%progbits
 384              		.align	2
 385              		.p2align 4,,15
 386              		.global	vexLcdSetAt
 387              		.thumb
 388              		.thumb_func
 389              		.type	vexLcdSetAt, %function
 390              	vexLcdSetAt:
 391              	.LFB67:
 392              		.loc 1 196 0
 393              		.cfi_startproc
 394              		@ args = 0, pretend = 0, frame = 0
 395              		@ frame_needed = 0, uses_anonymous_args = 0
 396              		@ link register save eliminated.
 397              	.LVL42:
 398 0000 10B4     		push	{r4}
 399              		.cfi_def_cfa_offset 4
ARM GAS  /var/folders/6q/x_mk5n_j3p7_c40r_2k_78980000gn/T//ccwQ3xLo.s 			page 8


 400              		.cfi_offset 4, -4
 401              		.loc 1 197 0
 402 0002 84B2     		uxth	r4, r0
 403 0004 012C     		cmp	r4, #1
 404 0006 01D9     		bls	.L57
 405              	.L52:
 406              		.loc 1 207 0
 407 0008 10BC     		pop	{r4}
 408              		.cfi_remember_state
 409              		.cfi_restore 4
 410              		.cfi_def_cfa_offset 0
 411 000a 7047     		bx	lr
 412              	.L57:
 413              		.cfi_restore_state
 414              		.loc 1 200 0
 415 000c 94B2     		uxth	r4, r2
 416 000e 0F2C     		cmp	r4, #15
 417 0010 FAD8     		bhi	.L52
 418              	.LVL43:
 419              	.LBB21:
 420              	.LBB22:
 421              		.loc 1 204 0
 422 0012 00EB4000 		add	r0, r0, r0, lsl #1
 423              	.LVL44:
 424              		.loc 1 203 0
 425 0016 49B1     		cbz	r1, .L58
 426              		.loc 1 206 0
 427 0018 054C     		ldr	r4, .L59
 428              	.L56:
 429 001a 02EB4010 		add	r0, r2, r0, lsl #5
 430 001e 2044     		add	r0, r0, r4
 431 0020 C2F11002 		rsb	r2, r2, #16
 432              	.LVL45:
 433 0024 1946     		mov	r1, r3
 434              	.LVL46:
 435              	.LBE22:
 436              	.LBE21:
 437              		.loc 1 207 0
 438 0026 10BC     		pop	{r4}
 439              		.cfi_remember_state
 440              		.cfi_restore 4
 441              		.cfi_def_cfa_offset 0
 442              	.LBB24:
 443              	.LBB23:
 444              		.loc 1 206 0
 445 0028 FFF7FEBF 		b	strncpy
 446              	.LVL47:
 447              	.L58:
 448              		.cfi_restore_state
 449              		.loc 1 204 0
 450 002c 014C     		ldr	r4, .L59+4
 451 002e F4E7     		b	.L56
 452              	.L60:
 453              		.align	2
 454              	.L59:
 455 0030 1C000000 		.word	.LANCHOR0+28
 456 0034 08000000 		.word	.LANCHOR0+8
ARM GAS  /var/folders/6q/x_mk5n_j3p7_c40r_2k_78980000gn/T//ccwQ3xLo.s 			page 9


 457              	.LBE23:
 458              	.LBE24:
 459              		.cfi_endproc
 460              	.LFE67:
 461              		.size	vexLcdSetAt, .-vexLcdSetAt
 462              		.section	.text.vexLcdPrintf,"ax",%progbits
 463              		.align	2
 464              		.p2align 4,,15
 465              		.global	vexLcdPrintf
 466              		.thumb
 467              		.thumb_func
 468              		.type	vexLcdPrintf, %function
 469              	vexLcdPrintf:
 470              	.LFB68:
 471              		.loc 1 218 0
 472              		.cfi_startproc
 473              		@ args = 4, pretend = 8, frame = 8
 474              		@ frame_needed = 0, uses_anonymous_args = 1
 475              	.LVL48:
 476 0000 0CB4     		push	{r2, r3}
 477              		.cfi_def_cfa_offset 8
 478              		.cfi_offset 2, -8
 479              		.cfi_offset 3, -4
 480 0002 70B5     		push	{r4, r5, r6, lr}
 481              		.cfi_def_cfa_offset 24
 482              		.cfi_offset 4, -24
 483              		.cfi_offset 5, -20
 484              		.cfi_offset 6, -16
 485              		.cfi_offset 14, -12
 486 0004 0546     		mov	r5, r0
 487 0006 82B0     		sub	sp, sp, #8
 488              		.cfi_def_cfa_offset 32
 489              		.loc 1 218 0
 490 0008 06AC     		add	r4, sp, #24
 491 000a 54F8042B 		ldr	r2, [r4], #4
 492 000e 0E46     		mov	r6, r1
 493              		.loc 1 224 0
 494 0010 2346     		mov	r3, r4
 495 0012 2021     		movs	r1, #32
 496              	.LVL49:
 497 0014 0A48     		ldr	r0, .L65
 498              	.LVL50:
 499              		.loc 1 221 0
 500 0016 0194     		str	r4, [sp, #4]
 501              		.loc 1 224 0
 502 0018 FFF7FEFF 		bl	vex_vsnprintf
 503              	.LVL51:
 504              	.LBB25:
 505              	.LBB26:
 506              		.loc 1 177 0
 507 001c ABB2     		uxth	r3, r5
 508 001e 012B     		cmp	r3, #1
 509 0020 04D9     		bls	.L64
 510              	.LBE26:
 511              	.LBE25:
 512              		.loc 1 229 0
 513 0022 02B0     		add	sp, sp, #8
ARM GAS  /var/folders/6q/x_mk5n_j3p7_c40r_2k_78980000gn/T//ccwQ3xLo.s 			page 10


 514              		.cfi_remember_state
 515              		.cfi_def_cfa_offset 24
 516              		@ sp needed
 517 0024 BDE87040 		pop	{r4, r5, r6, lr}
 518              		.cfi_restore 14
 519              		.cfi_restore 6
 520              		.cfi_restore 5
 521              		.cfi_restore 4
 522              		.cfi_def_cfa_offset 8
 523              	.LVL52:
 524 0028 02B0     		add	sp, sp, #8
 525              		.cfi_restore 3
 526              		.cfi_restore 2
 527              		.cfi_def_cfa_offset 0
 528 002a 7047     		bx	lr
 529              	.LVL53:
 530              	.L64:
 531              		.cfi_restore_state
 532              	.LBB28:
 533              	.LBB27:
 534 002c 3146     		mov	r1, r6
 535 002e 2846     		mov	r0, r5
 536 0030 034A     		ldr	r2, .L65
 537 0032 FFF7FEFF 		bl	vexLcdSet.part.0
 538              	.LVL54:
 539              	.LBE27:
 540              	.LBE28:
 541 0036 02B0     		add	sp, sp, #8
 542              		.cfi_def_cfa_offset 24
 543              		@ sp needed
 544 0038 BDE87040 		pop	{r4, r5, r6, lr}
 545              		.cfi_restore 4
 546              		.cfi_restore 5
 547              		.cfi_restore 6
 548              		.cfi_restore 14
 549              		.cfi_def_cfa_offset 8
 550 003c 02B0     		add	sp, sp, #8
 551              		.cfi_restore 2
 552              		.cfi_restore 3
 553              		.cfi_def_cfa_offset 0
 554 003e 7047     		bx	lr
 555              	.L66:
 556              		.align	2
 557              	.L65:
 558 0040 00000000 		.word	.LANCHOR3
 559              		.cfi_endproc
 560              	.LFE68:
 561              		.size	vexLcdPrintf, .-vexLcdPrintf
 562              		.section	.text.vexLcdPrintfAt,"ax",%progbits
 563              		.align	2
 564              		.p2align 4,,15
 565              		.global	vexLcdPrintfAt
 566              		.thumb
 567              		.thumb_func
 568              		.type	vexLcdPrintfAt, %function
 569              	vexLcdPrintfAt:
 570              	.LFB69:
ARM GAS  /var/folders/6q/x_mk5n_j3p7_c40r_2k_78980000gn/T//ccwQ3xLo.s 			page 11


 571              		.loc 1 241 0
 572              		.cfi_startproc
 573              		@ args = 4, pretend = 4, frame = 8
 574              		@ frame_needed = 0, uses_anonymous_args = 1
 575              	.LVL55:
 576 0000 08B4     		push	{r3}
 577              		.cfi_def_cfa_offset 4
 578              		.cfi_offset 3, -4
 579 0002 F0B5     		push	{r4, r5, r6, r7, lr}
 580              		.cfi_def_cfa_offset 24
 581              		.cfi_offset 4, -24
 582              		.cfi_offset 5, -20
 583              		.cfi_offset 6, -16
 584              		.cfi_offset 7, -12
 585              		.cfi_offset 14, -8
 586 0004 0546     		mov	r5, r0
 587 0006 82B0     		sub	sp, sp, #8
 588              		.cfi_def_cfa_offset 32
 589              		.loc 1 241 0
 590 0008 07AC     		add	r4, sp, #28
 591 000a 54F8040B 		ldr	r0, [r4], #4
 592              	.LVL56:
 593 000e 0F46     		mov	r7, r1
 594              		.loc 1 247 0
 595 0010 2346     		mov	r3, r4
 596              		.loc 1 241 0
 597 0012 1646     		mov	r6, r2
 598              		.loc 1 247 0
 599 0014 2021     		movs	r1, #32
 600              	.LVL57:
 601 0016 0246     		mov	r2, r0
 602              	.LVL58:
 603 0018 1048     		ldr	r0, .L74
 604              		.loc 1 244 0
 605 001a 0194     		str	r4, [sp, #4]
 606              		.loc 1 247 0
 607 001c FFF7FEFF 		bl	vex_vsnprintf
 608              	.LVL59:
 609              	.LBB33:
 610              	.LBB34:
 611              		.loc 1 197 0
 612 0020 ABB2     		uxth	r3, r5
 613 0022 012B     		cmp	r3, #1
 614 0024 04D9     		bls	.L72
 615              	.L67:
 616              	.LBE34:
 617              	.LBE33:
 618              		.loc 1 252 0
 619 0026 02B0     		add	sp, sp, #8
 620              		.cfi_remember_state
 621              		.cfi_def_cfa_offset 24
 622              		@ sp needed
 623 0028 BDE8F040 		pop	{r4, r5, r6, r7, lr}
 624              		.cfi_restore 14
 625              		.cfi_restore 7
 626              		.cfi_restore 6
 627              		.cfi_restore 5
ARM GAS  /var/folders/6q/x_mk5n_j3p7_c40r_2k_78980000gn/T//ccwQ3xLo.s 			page 12


 628              		.cfi_restore 4
 629              		.cfi_def_cfa_offset 4
 630              	.LVL60:
 631 002c 01B0     		add	sp, sp, #4
 632              		.cfi_restore 3
 633              		.cfi_def_cfa_offset 0
 634 002e 7047     		bx	lr
 635              	.LVL61:
 636              	.L72:
 637              		.cfi_restore_state
 638              	.LBB41:
 639              	.LBB39:
 640              		.loc 1 200 0
 641 0030 B3B2     		uxth	r3, r6
 642 0032 0F2B     		cmp	r3, #15
 643 0034 F7D8     		bhi	.L67
 644              	.LVL62:
 645              	.LBB35:
 646              	.LBB36:
 647              		.loc 1 204 0
 648 0036 05EB4505 		add	r5, r5, r5, lsl #1
 649              	.LVL63:
 650              		.loc 1 203 0
 651 003a 6FB1     		cbz	r7, .L73
 652              		.loc 1 206 0
 653 003c 0848     		ldr	r0, .L74+4
 654              	.L71:
 655 003e 06EB4515 		add	r5, r6, r5, lsl #5
 656 0042 C6F11002 		rsb	r2, r6, #16
 657 0046 2844     		add	r0, r0, r5
 658 0048 0449     		ldr	r1, .L74
 659 004a FFF7FEFF 		bl	strncpy
 660              	.LVL64:
 661              	.LBE36:
 662              	.LBE35:
 663              	.LBE39:
 664              	.LBE41:
 665              		.loc 1 252 0
 666 004e 02B0     		add	sp, sp, #8
 667              		.cfi_remember_state
 668              		.cfi_def_cfa_offset 24
 669              		@ sp needed
 670 0050 BDE8F040 		pop	{r4, r5, r6, r7, lr}
 671              		.cfi_restore 4
 672              		.cfi_restore 5
 673              		.cfi_restore 6
 674              		.cfi_restore 7
 675              		.cfi_restore 14
 676              		.cfi_def_cfa_offset 4
 677              	.LVL65:
 678 0054 01B0     		add	sp, sp, #4
 679              		.cfi_restore 3
 680              		.cfi_def_cfa_offset 0
 681 0056 7047     		bx	lr
 682              	.LVL66:
 683              	.L73:
 684              		.cfi_restore_state
ARM GAS  /var/folders/6q/x_mk5n_j3p7_c40r_2k_78980000gn/T//ccwQ3xLo.s 			page 13


 685              	.LBB42:
 686              	.LBB40:
 687              	.LBB38:
 688              	.LBB37:
 689              		.loc 1 204 0
 690 0058 0248     		ldr	r0, .L74+8
 691 005a F0E7     		b	.L71
 692              	.L75:
 693              		.align	2
 694              	.L74:
 695 005c 00000000 		.word	.LANCHOR3
 696 0060 1C000000 		.word	.LANCHOR0+28
 697 0064 08000000 		.word	.LANCHOR0+8
 698              	.LBE37:
 699              	.LBE38:
 700              	.LBE40:
 701              	.LBE42:
 702              		.cfi_endproc
 703              	.LFE69:
 704              		.size	vexLcdPrintfAt, .-vexLcdPrintfAt
 705              		.section	.text.vexLcdClearLine,"ax",%progbits
 706              		.align	2
 707              		.p2align 4,,15
 708              		.global	vexLcdClearLine
 709              		.thumb
 710              		.thumb_func
 711              		.type	vexLcdClearLine, %function
 712              	vexLcdClearLine:
 713              	.LFB70:
 714              		.loc 1 261 0
 715              		.cfi_startproc
 716              		@ args = 0, pretend = 0, frame = 0
 717              		@ frame_needed = 0, uses_anonymous_args = 0
 718              		@ link register save eliminated.
 719              	.LVL67:
 720              	.LBB43:
 721              	.LBB44:
 722              		.loc 1 177 0
 723 0000 83B2     		uxth	r3, r0
 724 0002 012B     		cmp	r3, #1
 725 0004 00D9     		bls	.L78
 726 0006 7047     		bx	lr
 727              	.L78:
 728 0008 014A     		ldr	r2, .L79
 729 000a FFF7FEBF 		b	vexLcdSet.part.0
 730              	.LVL68:
 731              	.L80:
 732 000e 00BF     		.align	2
 733              	.L79:
 734 0010 00000000 		.word	.LC0
 735              	.LBE44:
 736              	.LBE43:
 737              		.cfi_endproc
 738              	.LFE70:
 739              		.size	vexLcdClearLine, .-vexLcdClearLine
 740              		.section	.text.vexLcdBacklight,"ax",%progbits
 741              		.align	2
ARM GAS  /var/folders/6q/x_mk5n_j3p7_c40r_2k_78980000gn/T//ccwQ3xLo.s 			page 14


 742              		.p2align 4,,15
 743              		.global	vexLcdBacklight
 744              		.thumb
 745              		.thumb_func
 746              		.type	vexLcdBacklight, %function
 747              	vexLcdBacklight:
 748              	.LFB71:
 749              		.loc 1 273 0
 750              		.cfi_startproc
 751              		@ args = 0, pretend = 0, frame = 0
 752              		@ frame_needed = 0, uses_anonymous_args = 0
 753              		@ link register save eliminated.
 754              	.LVL69:
 755              		.loc 1 274 0
 756 0000 83B2     		uxth	r3, r0
 757 0002 012B     		cmp	r3, #1
 758 0004 11D8     		bhi	.L81
 759              		.loc 1 277 0
 760 0006 0129     		cmp	r1, #1
 761 0008 084B     		ldr	r3, .L85
 762 000a 4FEA4001 		lsl	r1, r0, #1
 763              	.LVL70:
 764 000e 01EB0002 		add	r2, r1, r0
 765 0012 03EB4212 		add	r2, r3, r2, lsl #5
 766 0016 9279     		ldrb	r2, [r2, #6]	@ zero_extendqisi2
 767 0018 0844     		add	r0, r0, r1
 768              	.LVL71:
 769 001a 0CBF     		ite	eq
 770 001c 42F00102 		orreq	r2, r2, #1
 771 0020 02F0FE02 		andne	r2, r2, #254
 772 0024 03EB4010 		add	r0, r3, r0, lsl #5
 773 0028 8271     		strb	r2, [r0, #6]
 774              	.L81:
 775 002a 7047     		bx	lr
 776              	.L86:
 777              		.align	2
 778              	.L85:
 779 002c 00000000 		.word	.LANCHOR0
 780              		.cfi_endproc
 781              	.LFE71:
 782              		.size	vexLcdBacklight, .-vexLcdBacklight
 783              		.section	.text.vexLcdButtonGet,"ax",%progbits
 784              		.align	2
 785              		.p2align 4,,15
 786              		.global	vexLcdButtonGet
 787              		.thumb
 788              		.thumb_func
 789              		.type	vexLcdButtonGet, %function
 790              	vexLcdButtonGet:
 791              	.LFB72:
 792              		.loc 1 288 0
 793              		.cfi_startproc
 794              		@ args = 0, pretend = 0, frame = 0
 795              		@ frame_needed = 0, uses_anonymous_args = 0
 796              		@ link register save eliminated.
 797              	.LVL72:
 798              		.loc 1 289 0
ARM GAS  /var/folders/6q/x_mk5n_j3p7_c40r_2k_78980000gn/T//ccwQ3xLo.s 			page 15


 799 0000 83B2     		uxth	r3, r0
 800 0002 012B     		cmp	r3, #1
 801 0004 01D9     		bls	.L90
 802              		.loc 1 290 0
 803 0006 0020     		movs	r0, #0
 804              	.LVL73:
 805              		.loc 1 293 0
 806 0008 7047     		bx	lr
 807              	.LVL74:
 808              	.L90:
 809              		.loc 1 292 0
 810 000a 034B     		ldr	r3, .L91
 811 000c 00EB4000 		add	r0, r0, r0, lsl #1
 812              	.LVL75:
 813 0010 03EB4010 		add	r0, r3, r0, lsl #5
 814 0014 C079     		ldrb	r0, [r0, #7]	@ zero_extendqisi2
 815 0016 7047     		bx	lr
 816              	.L92:
 817              		.align	2
 818              	.L91:
 819 0018 00000000 		.word	.LANCHOR0
 820              		.cfi_endproc
 821              	.LFE72:
 822              		.size	vexLcdButtonGet, .-vexLcdButtonGet
 823              		.section	.text.vexLcdSendMessage,"ax",%progbits
 824              		.align	2
 825              		.p2align 4,,15
 826              		.global	vexLcdSendMessage
 827              		.thumb
 828              		.thumb_func
 829              		.type	vexLcdSendMessage, %function
 830              	vexLcdSendMessage:
 831              	.LFB73:
 832              		.loc 1 304 0
 833              		.cfi_startproc
 834              		@ args = 0, pretend = 0, frame = 0
 835              		@ frame_needed = 0, uses_anonymous_args = 0
 836              		@ link register save eliminated.
 837              	.LVL76:
 838              		.loc 1 309 0
 839 0000 8BB2     		uxth	r3, r1
 840 0002 012B     		cmp	r3, #1
 841 0004 00D9     		bls	.L95
 842 0006 7047     		bx	lr
 843              	.L95:
 844 0008 FFF7FEBF 		b	vexLcdSendMessage.part.2
 845              	.LVL77:
 846              		.cfi_endproc
 847              	.LFE73:
 848              		.size	vexLcdSendMessage, .-vexLcdSendMessage
 849              		.section	.text.vexLcdCheckReceiveMessage,"ax",%progbits
 850              		.align	2
 851              		.p2align 4,,15
 852              		.global	vexLcdCheckReceiveMessage
 853              		.thumb
 854              		.thumb_func
 855              		.type	vexLcdCheckReceiveMessage, %function
ARM GAS  /var/folders/6q/x_mk5n_j3p7_c40r_2k_78980000gn/T//ccwQ3xLo.s 			page 16


 856              	vexLcdCheckReceiveMessage:
 857              	.LFB74:
 858              		.loc 1 355 0
 859              		.cfi_startproc
 860              		@ args = 0, pretend = 0, frame = 0
 861              		@ frame_needed = 0, uses_anonymous_args = 0
 862              	.LVL78:
 863              		.loc 1 359 0
 864 0000 0368     		ldr	r3, [r0]
 865 0002 5A69     		ldr	r2, [r3, #20]
 866 0004 22B3     		cbz	r2, .L111
 867              		.loc 1 355 0
 868 0006 70B5     		push	{r4, r5, r6, lr}
 869              		.cfi_def_cfa_offset 16
 870              		.cfi_offset 4, -16
 871              		.cfi_offset 5, -12
 872              		.cfi_offset 6, -8
 873              		.cfi_offset 14, -4
 874 0008 0646     		mov	r6, r0
 875 000a 00F14F05 		add	r5, r0, #79
 876              		.loc 1 359 0
 877 000e 0024     		movs	r4, #0
 878 0010 00E0     		b	.L98
 879              	.LVL79:
 880              	.L112:
 881 0012 3368     		ldr	r3, [r6]
 882              	.LVL80:
 883              	.L98:
 884              	.LBB51:
 885              		.loc 1 367 0
 886 0014 03F10C00 		add	r0, r3, #12
 887 0018 0021     		movs	r1, #0
 888 001a FFF7FEFF 		bl	chIQGetTimeout
 889              	.LVL81:
 890              		.loc 1 368 0
 891 001e 03B2     		sxth	r3, r0
 892 0020 0133     		adds	r3, r3, #1
 893 0022 22B2     		sxth	r2, r4
 894              	.LVL82:
 895 0024 04F10104 		add	r4, r4, #1
 896              	.LVL83:
 897 0028 13D0     		beq	.L100
 898              	.LBE51:
 899              		.loc 1 363 0 discriminator 2
 900 002a 102C     		cmp	r4, #16
 901              	.LBB52:
 902              		.loc 1 369 0 discriminator 2
 903 002c 05F8010F 		strb	r0, [r5, #1]!
 904              	.LVL84:
 905              	.LBE52:
 906              		.loc 1 363 0 discriminator 2
 907 0030 EFD1     		bne	.L112
 908              	.L102:
 909              		.loc 1 385 0
 910 0032 3368     		ldr	r3, [r6]
 911 0034 5B69     		ldr	r3, [r3, #20]
 912 0036 03B9     		cbnz	r3, .L113
ARM GAS  /var/folders/6q/x_mk5n_j3p7_c40r_2k_78980000gn/T//ccwQ3xLo.s 			page 17


 913 0038 70BD     		pop	{r4, r5, r6, pc}
 914              	.LVL85:
 915              	.L113:
 916              	.LBB53:
 917              	.LBB54:
 918              	.LBB55:
 919              		.loc 1 387 0
 920 003a 2023     		movs	r3, #32
 921              		.syntax unified
 922              	@ 387 "../convex-vexilla/cortex/fw/vexlcd.c" 1
 923 003c 83F31188 		msr     BASEPRI, r3
 924              	@ 0 "" 2
 925              		.thumb
 926              		.syntax unified
 927              	.LBE55:
 928              		.loc 1 388 0
 929 0040 3068     		ldr	r0, [r6]
 930              	.LVL86:
 931 0042 0C30     		adds	r0, r0, #12
 932 0044 FFF7FEFF 		bl	chIQResetI
 933              	.LVL87:
 934              	.LBB56:
 935              		.loc 1 389 0
 936 0048 0023     		movs	r3, #0
 937              		.syntax unified
 938              	@ 389 "../convex-vexilla/cortex/fw/vexlcd.c" 1
 939 004a 83F31188 		msr     BASEPRI, r3
 940              	@ 0 "" 2
 941              		.thumb
 942              		.syntax unified
 943 004e 70BD     		pop	{r4, r5, r6, pc}
 944              	.LVL88:
 945              	.L111:
 946              		.cfi_def_cfa_offset 0
 947              		.cfi_restore 4
 948              		.cfi_restore 5
 949              		.cfi_restore 6
 950              		.cfi_restore 14
 951 0050 7047     		bx	lr
 952              	.LVL89:
 953              	.L100:
 954              		.cfi_def_cfa_offset 16
 955              		.cfi_offset 4, -16
 956              		.cfi_offset 5, -12
 957              		.cfi_offset 6, -8
 958              		.cfi_offset 14, -4
 959              	.LBE56:
 960              	.LBE54:
 961              	.LBE53:
 962              		.loc 1 375 0
 963 0052 062A     		cmp	r2, #6
 964 0054 EDD1     		bne	.L102
 965              		.loc 1 378 0
 966 0056 336D     		ldr	r3, [r6, #80]
 967 0058 074A     		ldr	r2, .L114
 968 005a 23F07F43 		bic	r3, r3, #-16777216
 969 005e 9342     		cmp	r3, r2
ARM GAS  /var/folders/6q/x_mk5n_j3p7_c40r_2k_78980000gn/T//ccwQ3xLo.s 			page 18


 970 0060 E7D1     		bne	.L102
 971              		.loc 1 380 0
 972 0062 96F85420 		ldrb	r2, [r6, #84]	@ zero_extendqisi2
 973 0066 96F85530 		ldrb	r3, [r6, #85]	@ zero_extendqisi2
 974 006a 1344     		add	r3, r3, r2
 975 006c 13F0FF0F 		tst	r3, #255
 976              		.loc 1 381 0
 977 0070 08BF     		it	eq
 978 0072 F271     		strbeq	r2, [r6, #7]
 979 0074 DDE7     		b	.L102
 980              	.L115:
 981 0076 00BF     		.align	2
 982              	.L114:
 983 0078 AA551600 		.word	1463722
 984              		.cfi_endproc
 985              	.LFE74:
 986              		.size	vexLcdCheckReceiveMessage, .-vexLcdCheckReceiveMessage
 987              		.section	.text.VexLcdUpdate,"ax",%progbits
 988              		.align	2
 989              		.p2align 4,,15
 990              		.thumb
 991              		.thumb_func
 992              		.type	VexLcdUpdate, %function
 993              	VexLcdUpdate:
 994              	.LFB64:
 995              		.loc 1 85 0
 996              		.cfi_startproc
 997              		@ Volatile: function does not return.
 998              		@ args = 0, pretend = 0, frame = 0
 999              		@ frame_needed = 0, uses_anonymous_args = 0
 1000              	.LVL90:
 1001 0000 08B5     		push	{r3, lr}
 1002              		.cfi_def_cfa_offset 8
 1003              		.cfi_offset 3, -8
 1004              		.cfi_offset 14, -4
 1005              		.loc 1 88 0
 1006 0002 2F4B     		ldr	r3, .L149
 1007 0004 2F4C     		ldr	r4, .L149+4
 1008 0006 9B69     		ldr	r3, [r3, #24]
 1009 0008 2F4A     		ldr	r2, .L149+8
 1010              	.LBB57:
 1011              	.LBB58:
 1012 000a 2546     		mov	r5, r4
 1013              	.LBE58:
 1014              	.LBE57:
 1015 000c 9A61     		str	r2, [r3, #24]
 1016 000e 15E0     		b	.L125
 1017              	.LVL91:
 1018              	.L117:
 1019              		.loc 1 94 0
 1020 0010 B4F96430 		ldrsh	r3, [r4, #100]
 1021 0014 F3B9     		cbnz	r3, .L145
 1022              	.L118:
 1023              		.loc 1 97 0
 1024 0016 1920     		movs	r0, #25
 1025 0018 FFF7FEFF 		bl	chThdSleep
 1026              	.LVL92:
ARM GAS  /var/folders/6q/x_mk5n_j3p7_c40r_2k_78980000gn/T//ccwQ3xLo.s 			page 19


 1027              		.loc 1 100 0
 1028 001c B4F90430 		ldrsh	r3, [r4, #4]
 1029 0020 1BBB     		cbnz	r3, .L146
 1030              	.L119:
 1031              		.loc 1 102 0
 1032 0022 B5F96430 		ldrsh	r3, [r5, #100]
 1033 0026 002B     		cmp	r3, #0
 1034 0028 39D1     		bne	.L129
 1035              	.L123:
 1036              		.loc 1 111 0
 1037 002a 1920     		movs	r0, #25
 1038 002c FFF7FEFF 		bl	chThdSleep
 1039              	.LVL93:
 1040              		.loc 1 114 0
 1041 0030 B4F90430 		ldrsh	r3, [r4, #4]
 1042 0034 43BB     		cbnz	r3, .L147
 1043              		.loc 1 116 0
 1044 0036 B4F96430 		ldrsh	r3, [r4, #100]
 1045 003a 63BB     		cbnz	r3, .L148
 1046              	.L125:
 1047              		.loc 1 92 0
 1048 003c B4F90430 		ldrsh	r3, [r4, #4]
 1049 0040 002B     		cmp	r3, #0
 1050 0042 E5D0     		beq	.L117
 1051              	.LVL94:
 1052              	.LBB60:
 1053              	.LBB59:
 1054 0044 0021     		movs	r1, #0
 1055 0046 1F48     		ldr	r0, .L149+4
 1056 0048 FFF7FEFF 		bl	vexLcdSendMessage.part.2
 1057              	.LVL95:
 1058              	.LBE59:
 1059              	.LBE60:
 1060              		.loc 1 94 0
 1061 004c B4F96430 		ldrsh	r3, [r4, #100]
 1062 0050 002B     		cmp	r3, #0
 1063 0052 E0D0     		beq	.L118
 1064              	.LVL96:
 1065              	.L145:
 1066              	.LBB61:
 1067              	.LBB62:
 1068 0054 0021     		movs	r1, #0
 1069 0056 1D48     		ldr	r0, .L149+12
 1070 0058 FFF7FEFF 		bl	vexLcdSendMessage.part.2
 1071              	.LVL97:
 1072              	.LBE62:
 1073              	.LBE61:
 1074              		.loc 1 97 0
 1075 005c 1920     		movs	r0, #25
 1076 005e FFF7FEFF 		bl	chThdSleep
 1077              	.LVL98:
 1078              		.loc 1 100 0
 1079 0062 B4F90430 		ldrsh	r3, [r4, #4]
 1080 0066 002B     		cmp	r3, #0
 1081 0068 DBD0     		beq	.L119
 1082              	.LVL99:
 1083              	.L146:
ARM GAS  /var/folders/6q/x_mk5n_j3p7_c40r_2k_78980000gn/T//ccwQ3xLo.s 			page 20


 1084              		.loc 1 101 0
 1085 006a 1648     		ldr	r0, .L149+4
 1086 006c FFF7FEFF 		bl	vexLcdCheckReceiveMessage
 1087              	.LVL100:
 1088              		.loc 1 102 0
 1089 0070 B5F96430 		ldrsh	r3, [r5, #100]
 1090 0074 9BB9     		cbnz	r3, .L129
 1091              		.loc 1 106 0
 1092 0076 B5F90430 		ldrsh	r3, [r5, #4]
 1093 007a 002B     		cmp	r3, #0
 1094 007c D5D0     		beq	.L123
 1095              	.L127:
 1096              	.LVL101:
 1097              	.LBB63:
 1098              	.LBB64:
 1099 007e 0121     		movs	r1, #1
 1100 0080 1048     		ldr	r0, .L149+4
 1101 0082 FFF7FEFF 		bl	vexLcdSendMessage.part.2
 1102              	.LVL102:
 1103 0086 11E0     		b	.L121
 1104              	.LVL103:
 1105              	.L147:
 1106              	.LBE64:
 1107              	.LBE63:
 1108              		.loc 1 115 0
 1109 0088 0E48     		ldr	r0, .L149+4
 1110 008a FFF7FEFF 		bl	vexLcdCheckReceiveMessage
 1111              	.LVL104:
 1112              		.loc 1 116 0
 1113 008e B4F96430 		ldrsh	r3, [r4, #100]
 1114 0092 002B     		cmp	r3, #0
 1115 0094 D2D0     		beq	.L125
 1116              	.L148:
 1117              		.loc 1 117 0
 1118 0096 0D48     		ldr	r0, .L149+12
 1119 0098 FFF7FEFF 		bl	vexLcdCheckReceiveMessage
 1120              	.LVL105:
 1121 009c CEE7     		b	.L125
 1122              	.L129:
 1123              		.loc 1 103 0
 1124 009e 0B48     		ldr	r0, .L149+12
 1125 00a0 FFF7FEFF 		bl	vexLcdCheckReceiveMessage
 1126              	.LVL106:
 1127              		.loc 1 106 0
 1128 00a4 B4F90430 		ldrsh	r3, [r4, #4]
 1129 00a8 002B     		cmp	r3, #0
 1130 00aa E8D1     		bne	.L127
 1131              	.L121:
 1132              		.loc 1 108 0
 1133 00ac B4F96430 		ldrsh	r3, [r4, #100]
 1134 00b0 002B     		cmp	r3, #0
 1135 00b2 BAD0     		beq	.L123
 1136              	.LVL107:
 1137              	.LBB65:
 1138              	.LBB66:
 1139 00b4 0121     		movs	r1, #1
 1140 00b6 0548     		ldr	r0, .L149+12
ARM GAS  /var/folders/6q/x_mk5n_j3p7_c40r_2k_78980000gn/T//ccwQ3xLo.s 			page 21


 1141 00b8 FFF7FEFF 		bl	vexLcdSendMessage.part.2
 1142              	.LVL108:
 1143 00bc B5E7     		b	.L123
 1144              	.L150:
 1145 00be 00BF     		.align	2
 1146              	.L149:
 1147 00c0 00000000 		.word	rlist
 1148 00c4 00000000 		.word	.LANCHOR0
 1149 00c8 14000000 		.word	.LC1
 1150 00cc 60000000 		.word	.LANCHOR0+96
 1151              	.LBE66:
 1152              	.LBE65:
 1153              		.cfi_endproc
 1154              	.LFE64:
 1155              		.size	VexLcdUpdate, .-VexLcdUpdate
 1156              		.section	.text.vexLcdDebug,"ax",%progbits
 1157              		.align	2
 1158              		.p2align 4,,15
 1159              		.global	vexLcdDebug
 1160              		.thumb
 1161              		.thumb_func
 1162              		.type	vexLcdDebug, %function
 1163              	vexLcdDebug:
 1164              	.LFB75:
 1165              		.loc 1 403 0
 1166              		.cfi_startproc
 1167              		@ args = 0, pretend = 0, frame = 0
 1168              		@ frame_needed = 0, uses_anonymous_args = 0
 1169              	.LVL109:
 1170 0000 38B5     		push	{r3, r4, r5, lr}
 1171              		.cfi_def_cfa_offset 16
 1172              		.cfi_offset 3, -16
 1173              		.cfi_offset 4, -12
 1174              		.cfi_offset 5, -8
 1175              		.cfi_offset 14, -4
 1176              		.loc 1 407 0
 1177 0002 1F4D     		ldr	r5, .L160
 1178              		.loc 1 403 0
 1179 0004 0446     		mov	r4, r0
 1180              		.loc 1 407 0
 1181 0006 B5F90430 		ldrsh	r3, [r5, #4]
 1182 000a 03BB     		cbnz	r3, .L158
 1183              	.LVL110:
 1184              	.L152:
 1185              		.loc 1 415 0
 1186 000c B5F96430 		ldrsh	r3, [r5, #100]
 1187 0010 1B4D     		ldr	r5, .L160
 1188 0012 03B9     		cbnz	r3, .L159
 1189 0014 38BD     		pop	{r3, r4, r5, pc}
 1190              	.LVL111:
 1191              	.L159:
 1192              		.loc 1 416 0
 1193 0016 1B49     		ldr	r1, .L160+4
 1194 0018 2046     		mov	r0, r4
 1195 001a FFF7FEFF 		bl	vex_chprintf
 1196              	.LVL112:
 1197              		.loc 1 417 0
ARM GAS  /var/folders/6q/x_mk5n_j3p7_c40r_2k_78980000gn/T//ccwQ3xLo.s 			page 22


 1198 001e 1A49     		ldr	r1, .L160+8
 1199 0020 2046     		mov	r0, r4
 1200 0022 FFF7FEFF 		bl	vex_chprintf
 1201              	.LVL113:
 1202              		.loc 1 418 0
 1203 0026 05F16802 		add	r2, r5, #104
 1204 002a 1849     		ldr	r1, .L160+12
 1205 002c 2046     		mov	r0, r4
 1206 002e FFF7FEFF 		bl	vex_chprintf
 1207              	.LVL114:
 1208              		.loc 1 419 0
 1209 0032 05F17C02 		add	r2, r5, #124
 1210 0036 1549     		ldr	r1, .L160+12
 1211 0038 2046     		mov	r0, r4
 1212 003a FFF7FEFF 		bl	vex_chprintf
 1213              	.LVL115:
 1214              		.loc 1 420 0
 1215 003e 95F86720 		ldrb	r2, [r5, #103]	@ zero_extendqisi2
 1216 0042 2046     		mov	r0, r4
 1217              		.loc 1 422 0
 1218 0044 BDE83840 		pop	{r3, r4, r5, lr}
 1219              		.cfi_remember_state
 1220              		.cfi_restore 14
 1221              		.cfi_restore 5
 1222              		.cfi_restore 4
 1223              		.cfi_restore 3
 1224              		.cfi_def_cfa_offset 0
 1225              	.LVL116:
 1226              		.loc 1 420 0
 1227 0048 1149     		ldr	r1, .L160+16
 1228 004a FFF7FEBF 		b	vex_chprintf
 1229              	.LVL117:
 1230              	.L158:
 1231              		.cfi_restore_state
 1232              		.loc 1 408 0
 1233 004e 0D49     		ldr	r1, .L160+4
 1234              	.LVL118:
 1235 0050 FFF7FEFF 		bl	vex_chprintf
 1236              	.LVL119:
 1237              		.loc 1 409 0
 1238 0054 0F49     		ldr	r1, .L160+20
 1239 0056 2046     		mov	r0, r4
 1240 0058 FFF7FEFF 		bl	vex_chprintf
 1241              	.LVL120:
 1242              		.loc 1 410 0
 1243 005c 05F10802 		add	r2, r5, #8
 1244 0060 0A49     		ldr	r1, .L160+12
 1245 0062 2046     		mov	r0, r4
 1246 0064 FFF7FEFF 		bl	vex_chprintf
 1247              	.LVL121:
 1248              		.loc 1 411 0
 1249 0068 05F11C02 		add	r2, r5, #28
 1250 006c 0749     		ldr	r1, .L160+12
 1251 006e 2046     		mov	r0, r4
 1252 0070 FFF7FEFF 		bl	vex_chprintf
 1253              	.LVL122:
 1254              		.loc 1 412 0
ARM GAS  /var/folders/6q/x_mk5n_j3p7_c40r_2k_78980000gn/T//ccwQ3xLo.s 			page 23


 1255 0074 EA79     		ldrb	r2, [r5, #7]	@ zero_extendqisi2
 1256 0076 0649     		ldr	r1, .L160+16
 1257 0078 2046     		mov	r0, r4
 1258 007a FFF7FEFF 		bl	vex_chprintf
 1259              	.LVL123:
 1260 007e C5E7     		b	.L152
 1261              	.L161:
 1262              		.align	2
 1263              	.L160:
 1264 0080 00000000 		.word	.LANCHOR0
 1265 0084 18000000 		.word	.LC2
 1266 0088 40000000 		.word	.LC6
 1267 008c 28000000 		.word	.LC4
 1268 0090 30000000 		.word	.LC5
 1269 0094 1C000000 		.word	.LC3
 1270              		.cfi_endproc
 1271              	.LFE75:
 1272              		.size	vexLcdDebug, .-vexLcdDebug
 1273              		.section	.bss.lcd_running,"aw",%nobits
 1274              		.align	1
 1275              		.set	.LANCHOR1,. + 0
 1276              		.type	lcd_running, %object
 1277              		.size	lcd_running, 2
 1278              	lcd_running:
 1279 0000 0000     		.space	2
 1280              		.section	.data.vexLcdData,"aw",%progbits
 1281              		.align	2
 1282              		.set	.LANCHOR0,. + 0
 1283              		.type	vexLcdData, %object
 1284              		.size	vexLcdData, 192
 1285              	vexLcdData:
 1286 0000 00000000 		.word	0
 1287 0004 0000     		.short	0
 1288 0006 01       		.byte	1
 1289 0007 00       		.byte	0
 1290 0008 00       		.ascii	"\000"
 1291 0009 00000000 		.space	19
 1291      00000000 
 1291      00000000 
 1291      00000000 
 1291      000000
 1292 001c 00       		.ascii	"\000"
 1293 001d 00000000 		.space	19
 1293      00000000 
 1293      00000000 
 1293      00000000 
 1293      000000
 1294 0030 00       		.ascii	"\000"
 1295 0031 00000000 		.space	31
 1295      00000000 
 1295      00000000 
 1295      00000000 
 1295      00000000 
 1296 0050 00       		.ascii	"\000"
 1297 0051 00000000 		.space	15
 1297      00000000 
 1297      00000000 
ARM GAS  /var/folders/6q/x_mk5n_j3p7_c40r_2k_78980000gn/T//ccwQ3xLo.s 			page 24


 1297      000000
 1298 0060 00000000 		.word	0
 1299 0064 0000     		.short	0
 1300 0066 01       		.byte	1
 1301 0067 00       		.byte	0
 1302 0068 00       		.ascii	"\000"
 1303 0069 00000000 		.space	19
 1303      00000000 
 1303      00000000 
 1303      00000000 
 1303      000000
 1304 007c 00       		.ascii	"\000"
 1305 007d 00000000 		.space	19
 1305      00000000 
 1305      00000000 
 1305      00000000 
 1305      000000
 1306 0090 00       		.ascii	"\000"
 1307 0091 00000000 		.space	31
 1307      00000000 
 1307      00000000 
 1307      00000000 
 1307      00000000 
 1308 00b0 00       		.ascii	"\000"
 1309 00b1 00000000 		.space	15
 1309      00000000 
 1309      00000000 
 1309      000000
 1310              		.section	.rodata.str1.4,"aMS",%progbits,1
 1311              		.align	2
 1312              	.LC0:
 1313 0000 20202020 		.ascii	"                \000"
 1313      20202020 
 1313      20202020 
 1313      20202020 
 1313      00
 1314 0011 000000   		.space	3
 1315              	.LC1:
 1316 0014 6C636400 		.ascii	"lcd\000"
 1317              	.LC2:
 1318 0018 0D0A00   		.ascii	"\015\012\000"
 1319 001b 00       		.space	1
 1320              	.LC3:
 1321 001c 4C434420 		.ascii	"LCD 0 \015\012\000"
 1321      30200D0A 
 1321      00
 1322 0025 000000   		.space	3
 1323              	.LC4:
 1324 0028 252D3136 		.ascii	"%-16s\015\012\000"
 1324      730D0A00 
 1325              	.LC5:
 1326 0030 42757474 		.ascii	"Buttons = %2X\015\012\000"
 1326      6F6E7320 
 1326      3D202532 
 1326      580D0A00 
 1327              	.LC6:
 1328 0040 4C434420 		.ascii	"LCD 1 \015\012\000"
ARM GAS  /var/folders/6q/x_mk5n_j3p7_c40r_2k_78980000gn/T//ccwQ3xLo.s 			page 25


 1328      31200D0A 
 1328      00
 1329              		.section	.bss.lcd_buffer,"aw",%nobits
 1330              		.align	2
 1331              		.set	.LANCHOR3,. + 0
 1332              		.type	lcd_buffer, %object
 1333              		.size	lcd_buffer, 32
 1334              	lcd_buffer:
 1335 0000 00000000 		.space	32
 1335      00000000 
 1335      00000000 
 1335      00000000 
 1335      00000000 
 1336              		.section	.bss.waVexLcdUpdate,"aw",%nobits
 1337              		.align	3
 1338              		.set	.LANCHOR2,. + 0
 1339              		.type	waVexLcdUpdate, %object
 1340              		.size	waVexLcdUpdate, 384
 1341              	waVexLcdUpdate:
 1342 0000 00000000 		.space	384
 1342      00000000 
 1342      00000000 
 1342      00000000 
 1342      00000000 
 1343              		.text
 1344              	.Letext0:
 1345              		.file 2 "/Users/Luca/src/vexilla/src/gcc-arm-none-eabi-5_4-2016q3/arm-none-eabi/include/machine/_d
 1346              		.file 3 "/Users/Luca/src/vexilla/src/gcc-arm-none-eabi-5_4-2016q3/lib/gcc/arm-none-eabi/5.4.1/incl
 1347              		.file 4 "/Users/Luca/src/vexilla/src/gcc-arm-none-eabi-5_4-2016q3/lib/gcc/arm-none-eabi/5.4.1/incl
 1348              		.file 5 "/Users/Luca/src/vexilla/src/gcc-arm-none-eabi-5_4-2016q3/arm-none-eabi/include/stdio.h"
 1349              		.file 6 "/Users/Luca/src/vexilla/src/gcc-arm-none-eabi-5_4-2016q3/arm-none-eabi/include/sys/_stdin
 1350              		.file 7 "../ChibiOS/os/ports/GCC/ARMCMx/chtypes.h"
 1351              		.file 8 "../ChibiOS/os/kernel/include/chlists.h"
 1352              		.file 9 "<built-in>"
 1353              		.file 10 "../ChibiOS/os/kernel/include/chthreads.h"
 1354              		.file 11 "../ChibiOS/os/ports/GCC/ARMCMx/chcore_v7m.h"
 1355              		.file 12 "../ChibiOS/os/kernel/include/chschd.h"
 1356              		.file 13 "../ChibiOS/os/kernel/include/chmtx.h"
 1357              		.file 14 "../ChibiOS/os/kernel/include/chevents.h"
 1358              		.file 15 "../ChibiOS/os/kernel/include/chqueues.h"
 1359              		.file 16 "../ChibiOS/os/kernel/include/chstreams.h"
 1360              		.file 17 "../ChibiOS/os/hal/platforms/STM32F1xx/stm32f10x.h"
 1361              		.file 18 "../ChibiOS/os/hal/include/serial.h"
 1362              		.file 19 "../convex-vexilla/cortex/fw/vexcompat.h"
 1363              		.file 20 "../convex-vexilla/cortex/fw/vexdigital.h"
 1364              		.file 21 "../convex-vexilla/cortex/fw/vexime.h"
 1365              		.file 22 "../convex-vexilla/cortex/fw/vexlcd.h"
 1366              		.file 23 "../ChibiOS/os/ports/common/ARMCMx/CMSIS/include/core_cm3.h"
 1367              		.file 24 "/Users/Luca/src/vexilla/src/gcc-arm-none-eabi-5_4-2016q3/arm-none-eabi/include/string.h"
 1368              		.file 25 "../convex-vexilla/cortex/fw/vexprintf.h"