ARM GAS  /var/folders/6q/x_mk5n_j3p7_c40r_2k_78980000gn/T//ccdpbsJx.s 			page 1


   1              		.syntax unified
   2              		.cpu cortex-m3
   3              		.fpu softvfp
   4              		.eabi_attribute 20, 1
   5              		.eabi_attribute 21, 1
   6              		.eabi_attribute 23, 3
   7              		.eabi_attribute 24, 1
   8              		.eabi_attribute 25, 1
   9              		.eabi_attribute 26, 1
  10              		.eabi_attribute 30, 2
  11              		.eabi_attribute 34, 1
  12              		.eabi_attribute 18, 4
  13              		.thumb
  14              		.syntax unified
  15              		.file	"vexmotor.c"
  16              		.text
  17              	.Ltext0:
  18              		.cfi_sections	.debug_frame
  19              		.section	.text.vexMotorPositionGet.part.1,"ax",%progbits
  20              		.align	2
  21              		.p2align 4,,15
  22              		.thumb
  23              		.thumb_func
  24              		.type	vexMotorPositionGet.part.1, %function
  25              	vexMotorPositionGet.part.1:
  26              	.LFB83:
  27              		.file 1 "../convex-vexilla/cortex/fw/vexmotor.c"
  28              		.loc 1 247 0
  29              		.cfi_startproc
  30              		@ args = 0, pretend = 0, frame = 0
  31              		@ frame_needed = 0, uses_anonymous_args = 0
  32              	.LVL0:
  33 0000 F8B5     		push	{r3, r4, r5, r6, r7, lr}
  34              		.cfi_def_cfa_offset 24
  35              		.cfi_offset 3, -24
  36              		.cfi_offset 4, -20
  37              		.cfi_offset 5, -16
  38              		.cfi_offset 6, -12
  39              		.cfi_offset 7, -8
  40              		.cfi_offset 14, -4
  41              		.loc 1 254 0
  42 0002 0C4E     		ldr	r6, .L8
  43 0004 8700     		lsls	r7, r0, #2
  44 0006 3D18     		adds	r5, r7, r0
  45 0008 06EB8505 		add	r5, r6, r5, lsl #2
  46 000c 6B68     		ldr	r3, [r5, #4]
  47 000e 73B1     		cbz	r3, .L4
  48 0010 0446     		mov	r4, r0
  49              		.loc 1 256 0
  50 0012 B5F91000 		ldrsh	r0, [r5, #16]
  51              	.LVL1:
  52 0016 9847     		blx	r3
  53              	.LVL2:
  54              		.loc 1 262 0
  55 0018 3C44     		add	r4, r4, r7
  56              		.loc 1 259 0
  57 001a AB78     		ldrb	r3, [r5, #2]	@ zero_extendqisi2
ARM GAS  /var/folders/6q/x_mk5n_j3p7_c40r_2k_78980000gn/T//ccdpbsJx.s 			page 2


  58              		.loc 1 262 0
  59 001c 06EB8404 		add	r4, r6, r4, lsl #2
  60              		.loc 1 259 0
  61 0020 012B     		cmp	r3, #1
  62              		.loc 1 262 0
  63 0022 E378     		ldrb	r3, [r4, #3]	@ zero_extendqisi2
  64              		.loc 1 260 0
  65 0024 08BF     		it	eq
  66 0026 4042     		rsbeq	r0, r0, #0
  67              	.LVL3:
  68              		.loc 1 262 0
  69 0028 13B1     		cbz	r3, .L2
  70              		.loc 1 265 0
  71 002a 4042     		negs	r0, r0
  72              	.LVL4:
  73 002c F8BD     		pop	{r3, r4, r5, r6, r7, pc}
  74              	.LVL5:
  75              	.L4:
  76              		.loc 1 268 0
  77 002e 1846     		mov	r0, r3
  78              	.LVL6:
  79              	.L2:
  80              		.loc 1 269 0
  81 0030 F8BD     		pop	{r3, r4, r5, r6, r7, pc}
  82              	.L9:
  83 0032 00BF     		.align	2
  84              	.L8:
  85 0034 00000000 		.word	.LANCHOR0
  86              		.cfi_endproc
  87              	.LFE83:
  88              		.size	vexMotorPositionGet.part.1, .-vexMotorPositionGet.part.1
  89              		.section	.text.vexMotorSet,"ax",%progbits
  90              		.align	2
  91              		.p2align 4,,15
  92              		.global	vexMotorSet
  93              		.thumb
  94              		.thumb_func
  95              		.type	vexMotorSet, %function
  96              	vexMotorSet:
  97              	.LFB64:
  98              		.loc 1 108 0
  99              		.cfi_startproc
 100              		@ args = 0, pretend = 0, frame = 0
 101              		@ frame_needed = 0, uses_anonymous_args = 0
 102              		@ link register save eliminated.
 103              	.LVL7:
 104              		.loc 1 109 0
 105 0000 83B2     		uxth	r3, r0
 106 0002 092B     		cmp	r3, #9
 107 0004 0CD8     		bhi	.L10
 108              	.LVL8:
 109 0006 6FF07E03 		mvn	r3, #126
 110 000a 9942     		cmp	r1, r3
 111 000c B8BF     		it	lt
 112 000e 1946     		movlt	r1, r3
 113              	.LVL9:
 114              	.LBB26:
ARM GAS  /var/folders/6q/x_mk5n_j3p7_c40r_2k_78980000gn/T//ccdpbsJx.s 			page 3


 115              	.LBB27:
 116              		.loc 1 120 0
 117 0010 00EB8000 		add	r0, r0, r0, lsl #2
 118              	.LVL10:
 119 0014 7F29     		cmp	r1, #127
 120 0016 034B     		ldr	r3, .L12
 121 0018 A8BF     		it	ge
 122 001a 7F21     		movge	r1, #127
 123              	.LVL11:
 124 001c 8000     		lsls	r0, r0, #2
 125 001e 1952     		strh	r1, [r3, r0]	@ movhi
 126              	.LVL12:
 127              	.L10:
 128 0020 7047     		bx	lr
 129              	.L13:
 130 0022 00BF     		.align	2
 131              	.L12:
 132 0024 00000000 		.word	.LANCHOR0
 133              	.LBE27:
 134              	.LBE26:
 135              		.cfi_endproc
 136              	.LFE64:
 137              		.size	vexMotorSet, .-vexMotorSet
 138              		.section	.text.vexMotorGet,"ax",%progbits
 139              		.align	2
 140              		.p2align 4,,15
 141              		.global	vexMotorGet
 142              		.thumb
 143              		.thumb_func
 144              		.type	vexMotorGet, %function
 145              	vexMotorGet:
 146              	.LFB65:
 147              		.loc 1 131 0
 148              		.cfi_startproc
 149              		@ args = 0, pretend = 0, frame = 0
 150              		@ frame_needed = 0, uses_anonymous_args = 0
 151              		@ link register save eliminated.
 152              	.LVL13:
 153              		.loc 1 132 0
 154 0000 83B2     		uxth	r3, r0
 155 0002 092B     		cmp	r3, #9
 156 0004 06D8     		bhi	.L16
 157              		.loc 1 135 0
 158 0006 044B     		ldr	r3, .L17
 159 0008 00EB8000 		add	r0, r0, r0, lsl #2
 160              	.LVL14:
 161 000c 8000     		lsls	r0, r0, #2
 162 000e 185A     		ldrh	r0, [r3, r0]
 163 0010 00B2     		sxth	r0, r0
 164 0012 7047     		bx	lr
 165              	.LVL15:
 166              	.L16:
 167              		.loc 1 133 0
 168 0014 0020     		movs	r0, #0
 169              	.LVL16:
 170              		.loc 1 136 0
 171 0016 7047     		bx	lr
ARM GAS  /var/folders/6q/x_mk5n_j3p7_c40r_2k_78980000gn/T//ccdpbsJx.s 			page 4


 172              	.L18:
 173              		.align	2
 174              	.L17:
 175 0018 00000000 		.word	.LANCHOR0
 176              		.cfi_endproc
 177              	.LFE65:
 178              		.size	vexMotorGet, .-vexMotorGet
 179              		.section	.text.vexMotorStopAll,"ax",%progbits
 180              		.align	2
 181              		.p2align 4,,15
 182              		.global	vexMotorStopAll
 183              		.thumb
 184              		.thumb_func
 185              		.type	vexMotorStopAll, %function
 186              	vexMotorStopAll:
 187              	.LFB66:
 188              		.loc 1 144 0
 189              		.cfi_startproc
 190              		@ args = 0, pretend = 0, frame = 0
 191              		@ frame_needed = 0, uses_anonymous_args = 0
 192              		@ link register save eliminated.
 193              	.LVL17:
 194              		.loc 1 144 0
 195 0000 0023     		movs	r3, #0
 196              	.LBB32:
 197              	.LBB33:
 198              	.LBB34:
 199              		.loc 1 120 0
 200 0002 1846     		mov	r0, r3
 201 0004 0449     		ldr	r1, .L22
 202              	.LVL18:
 203              	.L20:
 204 0006 03EB8302 		add	r2, r3, r3, lsl #2
 205 000a 0133     		adds	r3, r3, #1
 206              	.LVL19:
 207              	.LBE34:
 208              	.LBE33:
 209              	.LBE32:
 210              		.loc 1 147 0
 211 000c 0A2B     		cmp	r3, #10
 212              	.LBB37:
 213              	.LBB36:
 214              	.LBB35:
 215              		.loc 1 120 0
 216 000e 21F82200 		strh	r0, [r1, r2, lsl #2]	@ movhi
 217              	.LVL20:
 218              	.LBE35:
 219              	.LBE36:
 220              	.LBE37:
 221              		.loc 1 147 0
 222 0012 F8D1     		bne	.L20
 223              		.loc 1 149 0
 224 0014 7047     		bx	lr
 225              	.L23:
 226 0016 00BF     		.align	2
 227              	.L22:
 228 0018 00000000 		.word	.LANCHOR0
ARM GAS  /var/folders/6q/x_mk5n_j3p7_c40r_2k_78980000gn/T//ccdpbsJx.s 			page 5


 229              		.cfi_endproc
 230              	.LFE66:
 231              		.size	vexMotorStopAll, .-vexMotorStopAll
 232              		.section	.text.vexMotorTypeSet,"ax",%progbits
 233              		.align	2
 234              		.p2align 4,,15
 235              		.global	vexMotorTypeSet
 236              		.thumb
 237              		.thumb_func
 238              		.type	vexMotorTypeSet, %function
 239              	vexMotorTypeSet:
 240              	.LFB67:
 241              		.loc 1 159 0
 242              		.cfi_startproc
 243              		@ args = 0, pretend = 0, frame = 0
 244              		@ frame_needed = 0, uses_anonymous_args = 0
 245              		@ link register save eliminated.
 246              	.LVL21:
 247              		.loc 1 160 0
 248 0000 83B2     		uxth	r3, r0
 249 0002 092B     		cmp	r3, #9
 250 0004 05D8     		bhi	.L24
 251              		.loc 1 163 0
 252 0006 034B     		ldr	r3, .L26
 253 0008 00EB8000 		add	r0, r0, r0, lsl #2
 254              	.LVL22:
 255 000c 03EB8000 		add	r0, r3, r0, lsl #2
 256 0010 8170     		strb	r1, [r0, #2]
 257              	.L24:
 258 0012 7047     		bx	lr
 259              	.L27:
 260              		.align	2
 261              	.L26:
 262 0014 00000000 		.word	.LANCHOR0
 263              		.cfi_endproc
 264              	.LFE67:
 265              		.size	vexMotorTypeSet, .-vexMotorTypeSet
 266              		.section	.text.vexMotorTypeGet,"ax",%progbits
 267              		.align	2
 268              		.p2align 4,,15
 269              		.global	vexMotorTypeGet
 270              		.thumb
 271              		.thumb_func
 272              		.type	vexMotorTypeGet, %function
 273              	vexMotorTypeGet:
 274              	.LFB68:
 275              		.loc 1 174 0
 276              		.cfi_startproc
 277              		@ args = 0, pretend = 0, frame = 0
 278              		@ frame_needed = 0, uses_anonymous_args = 0
 279              		@ link register save eliminated.
 280              	.LVL23:
 281              		.loc 1 175 0
 282 0000 83B2     		uxth	r3, r0
 283 0002 092B     		cmp	r3, #9
 284 0004 06D8     		bhi	.L30
 285              		.loc 1 178 0
ARM GAS  /var/folders/6q/x_mk5n_j3p7_c40r_2k_78980000gn/T//ccdpbsJx.s 			page 6


 286 0006 044B     		ldr	r3, .L31
 287 0008 00EB8000 		add	r0, r0, r0, lsl #2
 288              	.LVL24:
 289 000c 03EB8000 		add	r0, r3, r0, lsl #2
 290 0010 8078     		ldrb	r0, [r0, #2]	@ zero_extendqisi2
 291 0012 7047     		bx	lr
 292              	.LVL25:
 293              	.L30:
 294              		.loc 1 176 0
 295 0014 0020     		movs	r0, #0
 296              	.LVL26:
 297              		.loc 1 179 0
 298 0016 7047     		bx	lr
 299              	.L32:
 300              		.align	2
 301              	.L31:
 302 0018 00000000 		.word	.LANCHOR0
 303              		.cfi_endproc
 304              	.LFE68:
 305              		.size	vexMotorTypeGet, .-vexMotorTypeGet
 306              		.section	.text.vexMotorDirectionSet,"ax",%progbits
 307              		.align	2
 308              		.p2align 4,,15
 309              		.global	vexMotorDirectionSet
 310              		.thumb
 311              		.thumb_func
 312              		.type	vexMotorDirectionSet, %function
 313              	vexMotorDirectionSet:
 314              	.LFB69:
 315              		.loc 1 189 0
 316              		.cfi_startproc
 317              		@ args = 0, pretend = 0, frame = 0
 318              		@ frame_needed = 0, uses_anonymous_args = 0
 319              		@ link register save eliminated.
 320              	.LVL27:
 321              		.loc 1 190 0
 322 0000 83B2     		uxth	r3, r0
 323 0002 092B     		cmp	r3, #9
 324 0004 05D8     		bhi	.L33
 325              		.loc 1 193 0
 326 0006 034B     		ldr	r3, .L35
 327 0008 00EB8000 		add	r0, r0, r0, lsl #2
 328              	.LVL28:
 329 000c 03EB8000 		add	r0, r3, r0, lsl #2
 330 0010 C170     		strb	r1, [r0, #3]
 331              	.L33:
 332 0012 7047     		bx	lr
 333              	.L36:
 334              		.align	2
 335              	.L35:
 336 0014 00000000 		.word	.LANCHOR0
 337              		.cfi_endproc
 338              	.LFE69:
 339              		.size	vexMotorDirectionSet, .-vexMotorDirectionSet
 340              		.section	.text.vexMotorDirectionGet,"ax",%progbits
 341              		.align	2
 342              		.p2align 4,,15
ARM GAS  /var/folders/6q/x_mk5n_j3p7_c40r_2k_78980000gn/T//ccdpbsJx.s 			page 7


 343              		.global	vexMotorDirectionGet
 344              		.thumb
 345              		.thumb_func
 346              		.type	vexMotorDirectionGet, %function
 347              	vexMotorDirectionGet:
 348              	.LFB70:
 349              		.loc 1 204 0
 350              		.cfi_startproc
 351              		@ args = 0, pretend = 0, frame = 0
 352              		@ frame_needed = 0, uses_anonymous_args = 0
 353              		@ link register save eliminated.
 354              	.LVL29:
 355              		.loc 1 205 0
 356 0000 83B2     		uxth	r3, r0
 357 0002 092B     		cmp	r3, #9
 358 0004 06D8     		bhi	.L39
 359              		.loc 1 208 0
 360 0006 044B     		ldr	r3, .L40
 361 0008 00EB8000 		add	r0, r0, r0, lsl #2
 362              	.LVL30:
 363 000c 03EB8000 		add	r0, r3, r0, lsl #2
 364 0010 C078     		ldrb	r0, [r0, #3]	@ zero_extendqisi2
 365 0012 7047     		bx	lr
 366              	.LVL31:
 367              	.L39:
 368              		.loc 1 206 0
 369 0014 0020     		movs	r0, #0
 370              	.LVL32:
 371              		.loc 1 209 0
 372 0016 7047     		bx	lr
 373              	.L41:
 374              		.align	2
 375              	.L40:
 376 0018 00000000 		.word	.LANCHOR0
 377              		.cfi_endproc
 378              	.LFE70:
 379              		.size	vexMotorDirectionGet, .-vexMotorDirectionGet
 380              		.section	.text.vexMotorPositionSet,"ax",%progbits
 381              		.align	2
 382              		.p2align 4,,15
 383              		.global	vexMotorPositionSet
 384              		.thumb
 385              		.thumb_func
 386              		.type	vexMotorPositionSet, %function
 387              	vexMotorPositionSet:
 388              	.LFB71:
 389              		.loc 1 219 0
 390              		.cfi_startproc
 391              		@ args = 0, pretend = 0, frame = 0
 392              		@ frame_needed = 0, uses_anonymous_args = 0
 393              		@ link register save eliminated.
 394              	.LVL33:
 395              		.loc 1 220 0
 396 0000 83B2     		uxth	r3, r0
 397 0002 092B     		cmp	r3, #9
 398 0004 1BD8     		bhi	.L51
 399              		.loc 1 219 0
ARM GAS  /var/folders/6q/x_mk5n_j3p7_c40r_2k_78980000gn/T//ccdpbsJx.s 			page 8


 400 0006 30B4     		push	{r4, r5}
 401              		.cfi_def_cfa_offset 8
 402              		.cfi_offset 4, -8
 403              		.cfi_offset 5, -4
 404              		.loc 1 223 0
 405 0008 0D4B     		ldr	r3, .L52
 406 000a 8400     		lsls	r4, r0, #2
 407 000c 2218     		adds	r2, r4, r0
 408 000e 03EB8202 		add	r2, r3, r2, lsl #2
 409 0012 9568     		ldr	r5, [r2, #8]
 410 0014 95B1     		cbz	r5, .L42
 411              		.loc 1 226 0
 412 0016 9278     		ldrb	r2, [r2, #2]	@ zero_extendqisi2
 413 0018 012A     		cmp	r2, #1
 414              		.loc 1 230 0
 415 001a 04EB0002 		add	r2, r4, r0
 416 001e 03EB8202 		add	r2, r3, r2, lsl #2
 417 0022 D278     		ldrb	r2, [r2, #3]	@ zero_extendqisi2
 418              		.loc 1 227 0
 419 0024 08BF     		it	eq
 420 0026 4942     		rsbeq	r1, r1, #0
 421              	.LVL34:
 422              		.loc 1 230 0
 423 0028 02B9     		cbnz	r2, .L45
 424              		.loc 1 231 0
 425 002a 4942     		negs	r1, r1
 426              	.LVL35:
 427              	.L45:
 428              		.loc 1 234 0
 429 002c 2044     		add	r0, r0, r4
 430              	.LVL36:
 431 002e 03EB8000 		add	r0, r3, r0, lsl #2
 432 0032 B0F91000 		ldrsh	r0, [r0, #16]
 433 0036 2B46     		mov	r3, r5
 434              		.loc 1 238 0
 435 0038 30BC     		pop	{r4, r5}
 436              		.cfi_remember_state
 437              		.cfi_restore 5
 438              		.cfi_restore 4
 439              		.cfi_def_cfa_offset 0
 440              		.loc 1 234 0
 441 003a 1847     		bx	r3	@ indirect register sibling call
 442              	.LVL37:
 443              	.L42:
 444              		.cfi_restore_state
 445              		.loc 1 238 0
 446 003c 30BC     		pop	{r4, r5}
 447              		.cfi_restore 5
 448              		.cfi_restore 4
 449              		.cfi_def_cfa_offset 0
 450              	.L51:
 451 003e 7047     		bx	lr
 452              	.L53:
 453              		.align	2
 454              	.L52:
 455 0040 00000000 		.word	.LANCHOR0
 456              		.cfi_endproc
ARM GAS  /var/folders/6q/x_mk5n_j3p7_c40r_2k_78980000gn/T//ccdpbsJx.s 			page 9


 457              	.LFE71:
 458              		.size	vexMotorPositionSet, .-vexMotorPositionSet
 459              		.section	.text.vexMotorPositionGet,"ax",%progbits
 460              		.align	2
 461              		.p2align 4,,15
 462              		.global	vexMotorPositionGet
 463              		.thumb
 464              		.thumb_func
 465              		.type	vexMotorPositionGet, %function
 466              	vexMotorPositionGet:
 467              	.LFB72:
 468              		.loc 1 248 0
 469              		.cfi_startproc
 470              		@ args = 0, pretend = 0, frame = 0
 471              		@ frame_needed = 0, uses_anonymous_args = 0
 472              		@ link register save eliminated.
 473              	.LVL38:
 474              		.loc 1 251 0
 475 0000 83B2     		uxth	r3, r0
 476 0002 092B     		cmp	r3, #9
 477 0004 01D8     		bhi	.L55
 478 0006 FFF7FEBF 		b	vexMotorPositionGet.part.1
 479              	.LVL39:
 480              	.L55:
 481              		.loc 1 269 0
 482 000a 0020     		movs	r0, #0
 483              	.LVL40:
 484 000c 7047     		bx	lr
 485              		.cfi_endproc
 486              	.LFE72:
 487              		.size	vexMotorPositionGet, .-vexMotorPositionGet
 488 000e 00BF     		.section	.text.vexMotorPositionGetCallback,"ax",%progbits
 489              		.align	2
 490              		.p2align 4,,15
 491              		.global	vexMotorPositionGetCallback
 492              		.thumb
 493              		.thumb_func
 494              		.type	vexMotorPositionGetCallback, %function
 495              	vexMotorPositionGetCallback:
 496              	.LFB73:
 497              		.loc 1 280 0
 498              		.cfi_startproc
 499              		@ args = 0, pretend = 0, frame = 0
 500              		@ frame_needed = 0, uses_anonymous_args = 0
 501              		@ link register save eliminated.
 502              	.LVL41:
 503              		.loc 1 281 0
 504 0000 83B2     		uxth	r3, r0
 505 0002 092B     		cmp	r3, #9
 506 0004 06D8     		bhi	.L56
 507              		.loc 1 284 0
 508 0006 044B     		ldr	r3, .L58
 509 0008 00EB8000 		add	r0, r0, r0, lsl #2
 510              	.LVL42:
 511 000c 03EB8000 		add	r0, r3, r0, lsl #2
 512 0010 4160     		str	r1, [r0, #4]
 513              		.loc 1 285 0
ARM GAS  /var/folders/6q/x_mk5n_j3p7_c40r_2k_78980000gn/T//ccdpbsJx.s 			page 10


 514 0012 0282     		strh	r2, [r0, #16]	@ movhi
 515              	.L56:
 516 0014 7047     		bx	lr
 517              	.L59:
 518 0016 00BF     		.align	2
 519              	.L58:
 520 0018 00000000 		.word	.LANCHOR0
 521              		.cfi_endproc
 522              	.LFE73:
 523              		.size	vexMotorPositionGetCallback, .-vexMotorPositionGetCallback
 524              		.section	.text.vexMotorPositionSetCallback,"ax",%progbits
 525              		.align	2
 526              		.p2align 4,,15
 527              		.global	vexMotorPositionSetCallback
 528              		.thumb
 529              		.thumb_func
 530              		.type	vexMotorPositionSetCallback, %function
 531              	vexMotorPositionSetCallback:
 532              	.LFB74:
 533              		.loc 1 297 0
 534              		.cfi_startproc
 535              		@ args = 0, pretend = 0, frame = 0
 536              		@ frame_needed = 0, uses_anonymous_args = 0
 537              		@ link register save eliminated.
 538              	.LVL43:
 539              		.loc 1 298 0
 540 0000 83B2     		uxth	r3, r0
 541 0002 092B     		cmp	r3, #9
 542 0004 06D8     		bhi	.L60
 543              		.loc 1 301 0
 544 0006 044B     		ldr	r3, .L62
 545 0008 00EB8000 		add	r0, r0, r0, lsl #2
 546              	.LVL44:
 547 000c 03EB8000 		add	r0, r3, r0, lsl #2
 548 0010 8160     		str	r1, [r0, #8]
 549              		.loc 1 302 0
 550 0012 0282     		strh	r2, [r0, #16]	@ movhi
 551              	.L60:
 552 0014 7047     		bx	lr
 553              	.L63:
 554 0016 00BF     		.align	2
 555              	.L62:
 556 0018 00000000 		.word	.LANCHOR0
 557              		.cfi_endproc
 558              	.LFE74:
 559              		.size	vexMotorPositionSetCallback, .-vexMotorPositionSetCallback
 560              		.section	.text.vexMotorEncoderIdCallback,"ax",%progbits
 561              		.align	2
 562              		.p2align 4,,15
 563              		.global	vexMotorEncoderIdCallback
 564              		.thumb
 565              		.thumb_func
 566              		.type	vexMotorEncoderIdCallback, %function
 567              	vexMotorEncoderIdCallback:
 568              	.LFB75:
 569              		.loc 1 314 0
 570              		.cfi_startproc
ARM GAS  /var/folders/6q/x_mk5n_j3p7_c40r_2k_78980000gn/T//ccdpbsJx.s 			page 11


 571              		@ args = 0, pretend = 0, frame = 0
 572              		@ frame_needed = 0, uses_anonymous_args = 0
 573              		@ link register save eliminated.
 574              	.LVL45:
 575              		.loc 1 315 0
 576 0000 83B2     		uxth	r3, r0
 577 0002 092B     		cmp	r3, #9
 578 0004 06D8     		bhi	.L64
 579              		.loc 1 318 0
 580 0006 044B     		ldr	r3, .L66
 581 0008 00EB8000 		add	r0, r0, r0, lsl #2
 582              	.LVL46:
 583 000c 03EB8000 		add	r0, r3, r0, lsl #2
 584 0010 C160     		str	r1, [r0, #12]
 585              		.loc 1 319 0
 586 0012 0282     		strh	r2, [r0, #16]	@ movhi
 587              	.L64:
 588 0014 7047     		bx	lr
 589              	.L67:
 590 0016 00BF     		.align	2
 591              	.L66:
 592 0018 00000000 		.word	.LANCHOR0
 593              		.cfi_endproc
 594              	.LFE75:
 595              		.size	vexMotorEncoderIdCallback, .-vexMotorEncoderIdCallback
 596              		.section	.text.vexMotorEncoderIdGet,"ax",%progbits
 597              		.align	2
 598              		.p2align 4,,15
 599              		.global	vexMotorEncoderIdGet
 600              		.thumb
 601              		.thumb_func
 602              		.type	vexMotorEncoderIdGet, %function
 603              	vexMotorEncoderIdGet:
 604              	.LFB76:
 605              		.loc 1 331 0
 606              		.cfi_startproc
 607              		@ args = 0, pretend = 0, frame = 0
 608              		@ frame_needed = 0, uses_anonymous_args = 0
 609              		@ link register save eliminated.
 610              	.LVL47:
 611              		.loc 1 332 0
 612 0000 83B2     		uxth	r3, r0
 613 0002 092B     		cmp	r3, #9
 614 0004 09D8     		bhi	.L69
 615              		.loc 1 335 0
 616 0006 064B     		ldr	r3, .L73
 617 0008 00EB8000 		add	r0, r0, r0, lsl #2
 618              	.LVL48:
 619 000c 03EB8000 		add	r0, r3, r0, lsl #2
 620 0010 C368     		ldr	r3, [r0, #12]
 621 0012 13B1     		cbz	r3, .L69
 622              		.loc 1 337 0
 623 0014 B0F91000 		ldrsh	r0, [r0, #16]
 624 0018 1847     		bx	r3
 625              	.LVL49:
 626              	.L69:
 627              		.loc 1 341 0
ARM GAS  /var/folders/6q/x_mk5n_j3p7_c40r_2k_78980000gn/T//ccdpbsJx.s 			page 12


 628 001a 4FF0FF30 		mov	r0, #-1
 629 001e 7047     		bx	lr
 630              	.L74:
 631              		.align	2
 632              	.L73:
 633 0020 00000000 		.word	.LANCHOR0
 634              		.cfi_endproc
 635              	.LFE76:
 636              		.size	vexMotorEncoderIdGet, .-vexMotorEncoderIdGet
 637              		.section	.text.vexMotorDebug,"ax",%progbits
 638              		.align	2
 639              		.p2align 4,,15
 640              		.global	vexMotorDebug
 641              		.thumb
 642              		.thumb_func
 643              		.type	vexMotorDebug, %function
 644              	vexMotorDebug:
 645              	.LFB77:
 646              		.loc 1 352 0
 647              		.cfi_startproc
 648              		@ args = 0, pretend = 0, frame = 0
 649              		@ frame_needed = 0, uses_anonymous_args = 0
 650              	.LVL50:
 651 0000 2DE9F041 		push	{r4, r5, r6, r7, r8, lr}
 652              		.cfi_def_cfa_offset 24
 653              		.cfi_offset 4, -24
 654              		.cfi_offset 5, -20
 655              		.cfi_offset 6, -16
 656              		.cfi_offset 7, -12
 657              		.cfi_offset 8, -8
 658              		.cfi_offset 14, -4
 659              		.loc 1 356 0
 660 0004 0129     		cmp	r1, #1
 661              		.loc 1 352 0
 662 0006 82B0     		sub	sp, sp, #8
 663              		.cfi_def_cfa_offset 32
 664              		.loc 1 352 0
 665 0008 0746     		mov	r7, r0
 666              		.loc 1 356 0
 667 000a 17DD     		ble	.L86
 668              		.loc 1 372 0
 669 000c 1068     		ldr	r0, [r2]
 670              	.LVL51:
 671 000e 1446     		mov	r4, r2
 672 0010 FFF7FEFF 		bl	atoi
 673              	.LVL52:
 674 0014 0546     		mov	r5, r0
 675              		.loc 1 373 0
 676 0016 6068     		ldr	r0, [r4, #4]
 677              		.loc 1 372 0
 678 0018 2CB2     		sxth	r4, r5
 679              	.LVL53:
 680              		.loc 1 373 0
 681 001a FFF7FEFF 		bl	atoi
 682              	.LVL54:
 683              		.loc 1 374 0
 684 001e 002C     		cmp	r4, #0
ARM GAS  /var/folders/6q/x_mk5n_j3p7_c40r_2k_78980000gn/T//ccdpbsJx.s 			page 13


 685 0020 09DB     		blt	.L75
 686              		.loc 1 373 0
 687 0022 06B2     		sxth	r6, r0
 688              		.loc 1 375 0
 689 0024 3346     		mov	r3, r6
 690 0026 3846     		mov	r0, r7
 691              	.LVL55:
 692 0028 2246     		mov	r2, r4
 693 002a 2849     		ldr	r1, .L90
 694              	.LBB46:
 695              	.LBB47:
 696              		.loc 1 109 0
 697 002c ADB2     		uxth	r5, r5
 698              	.LBE47:
 699              	.LBE46:
 700              		.loc 1 375 0
 701 002e FFF7FEFF 		bl	vex_chprintf
 702              	.LVL56:
 703              	.LBB52:
 704              	.LBB50:
 705              		.loc 1 109 0
 706 0032 092D     		cmp	r5, #9
 707 0034 39D9     		bls	.L87
 708              	.LVL57:
 709              	.L75:
 710              	.LBE50:
 711              	.LBE52:
 712              		.loc 1 380 0
 713 0036 02B0     		add	sp, sp, #8
 714              		.cfi_remember_state
 715              		.cfi_def_cfa_offset 24
 716              		@ sp needed
 717 0038 BDE8F081 		pop	{r4, r5, r6, r7, r8, pc}
 718              	.LVL58:
 719              	.L86:
 720              		.cfi_restore_state
 721 003c DFF8A480 		ldr	r8, .L90+24
 722              		.loc 1 359 0
 723 0040 2349     		ldr	r1, .L90+4
 724              	.LVL59:
 725 0042 4546     		mov	r5, r8
 726 0044 FFF7FEFF 		bl	vex_chprintf
 727              	.LVL60:
 728 0048 0024     		movs	r4, #0
 729 004a 12E0     		b	.L80
 730              	.LVL61:
 731              	.L88:
 732              		.loc 1 364 0
 733 004c 2149     		ldr	r1, .L90+8
 734 004e 3846     		mov	r0, r7
 735 0050 FFF7FEFF 		bl	vex_chprintf
 736              	.LVL62:
 737              	.LBB53:
 738              	.LBB54:
 739              		.loc 1 335 0
 740 0054 EB68     		ldr	r3, [r5, #12]
 741 0056 2BB3     		cbz	r3, .L83
ARM GAS  /var/folders/6q/x_mk5n_j3p7_c40r_2k_78980000gn/T//ccdpbsJx.s 			page 14


 742              	.L89:
 743              		.loc 1 337 0
 744 0058 B5F91000 		ldrsh	r0, [r5, #16]
 745 005c 9847     		blx	r3
 746              	.LVL63:
 747 005e 0246     		mov	r2, r0
 748              	.L79:
 749              	.LVL64:
 750              	.LBE54:
 751              	.LBE53:
 752              		.loc 1 367 0
 753 0060 1D49     		ldr	r1, .L90+12
 754 0062 0134     		adds	r4, r4, #1
 755              	.LVL65:
 756 0064 3846     		mov	r0, r7
 757 0066 FFF7FEFF 		bl	vex_chprintf
 758              	.LVL66:
 759              		.loc 1 360 0
 760 006a 0A2C     		cmp	r4, #10
 761 006c 05F11405 		add	r5, r5, #20
 762 0070 E1D0     		beq	.L75
 763              	.L80:
 764              	.LVL67:
 765              		.loc 1 362 0
 766 0072 04EB8403 		add	r3, r4, r4, lsl #2
 767              	.LBB56:
 768              	.LBB57:
 769 0076 20B2     		sxth	r0, r4
 770              	.LBE57:
 771              	.LBE56:
 772 0078 38F82360 		ldrh	r6, [r8, r3, lsl #2]
 773              	.LBB59:
 774              	.LBB58:
 775 007c FFF7FEFF 		bl	vexMotorPositionGet.part.1
 776              	.LVL68:
 777              	.LBE58:
 778              	.LBE59:
 779 0080 36B2     		sxth	r6, r6
 780              	.LVL69:
 781 0082 3346     		mov	r3, r6
 782 0084 0090     		str	r0, [sp]
 783 0086 1549     		ldr	r1, .L90+16
 784 0088 2246     		mov	r2, r4
 785 008a 3846     		mov	r0, r7
 786 008c FFF7FEFF 		bl	vex_chprintf
 787              	.LVL70:
 788              		.loc 1 363 0
 789 0090 EB78     		ldrb	r3, [r5, #3]	@ zero_extendqisi2
 790              		.loc 1 366 0
 791 0092 1349     		ldr	r1, .L90+20
 792              		.loc 1 363 0
 793 0094 002B     		cmp	r3, #0
 794 0096 D9D1     		bne	.L88
 795              		.loc 1 366 0
 796 0098 3846     		mov	r0, r7
 797 009a FFF7FEFF 		bl	vex_chprintf
 798              	.LVL71:
ARM GAS  /var/folders/6q/x_mk5n_j3p7_c40r_2k_78980000gn/T//ccdpbsJx.s 			page 15


 799              	.LBB60:
 800              	.LBB55:
 801              		.loc 1 335 0
 802 009e EB68     		ldr	r3, [r5, #12]
 803 00a0 002B     		cmp	r3, #0
 804 00a2 D9D1     		bne	.L89
 805              	.L83:
 806 00a4 4FF0FF32 		mov	r2, #-1
 807 00a8 DAE7     		b	.L79
 808              	.LVL72:
 809              	.L87:
 810 00aa 6FF07E00 		mvn	r0, #126
 811 00ae B042     		cmp	r0, r6
 812 00b0 B8BF     		it	lt
 813 00b2 3046     		movlt	r0, r6
 814              	.LBE55:
 815              	.LBE60:
 816              	.LBB61:
 817              	.LBB51:
 818              	.LBB48:
 819              	.LBB49:
 820              		.loc 1 120 0
 821 00b4 0B4B     		ldr	r3, .L90+24
 822 00b6 7F28     		cmp	r0, #127
 823 00b8 04EB8404 		add	r4, r4, r4, lsl #2
 824              	.LVL73:
 825 00bc A8BF     		it	ge
 826 00be 7F20     		movge	r0, #127
 827              	.LVL74:
 828 00c0 A400     		lsls	r4, r4, #2
 829 00c2 1853     		strh	r0, [r3, r4]	@ movhi
 830              	.LBE49:
 831              	.LBE48:
 832              	.LBE51:
 833              	.LBE61:
 834              		.loc 1 380 0
 835 00c4 02B0     		add	sp, sp, #8
 836              		.cfi_def_cfa_offset 24
 837              		@ sp needed
 838 00c6 BDE8F081 		pop	{r4, r5, r6, r7, r8, pc}
 839              	.LVL75:
 840              	.L91:
 841 00ca 00BF     		.align	2
 842              	.L90:
 843 00cc 50000000 		.word	.LC5
 844 00d0 00000000 		.word	.LC0
 845 00d4 38000000 		.word	.LC2
 846 00d8 48000000 		.word	.LC4
 847 00dc 24000000 		.word	.LC1
 848 00e0 40000000 		.word	.LC3
 849 00e4 00000000 		.word	.LANCHOR0
 850              		.cfi_endproc
 851              	.LFE77:
 852              		.size	vexMotorDebug, .-vexMotorDebug
 853              		.section	.text._vexMotorPwmInit,"ax",%progbits
 854              		.align	2
 855              		.p2align 4,,15
ARM GAS  /var/folders/6q/x_mk5n_j3p7_c40r_2k_78980000gn/T//ccdpbsJx.s 			page 16


 856              		.global	_vexMotorPwmInit
 857              		.thumb
 858              		.thumb_func
 859              		.type	_vexMotorPwmInit, %function
 860              	_vexMotorPwmInit:
 861              	.LFB79:
 862              		.loc 1 493 0
 863              		.cfi_startproc
 864              		@ args = 0, pretend = 0, frame = 0
 865              		@ frame_needed = 0, uses_anonymous_args = 0
 866              	.LVL76:
 867 0000 2DE9F843 		push	{r3, r4, r5, r6, r7, r8, r9, lr}
 868              		.cfi_def_cfa_offset 32
 869              		.cfi_offset 3, -32
 870              		.cfi_offset 4, -28
 871              		.cfi_offset 5, -24
 872              		.cfi_offset 6, -20
 873              		.cfi_offset 7, -16
 874              		.cfi_offset 8, -12
 875              		.cfi_offset 9, -8
 876              		.cfi_offset 14, -4
 877              		.loc 1 496 0
 878 0004 494B     		ldr	r3, .L99
 879              		.loc 1 493 0
 880 0006 0446     		mov	r4, r0
 881              		.loc 1 496 0
 882 0008 9842     		cmp	r0, r3
 883 000a 78D0     		beq	.L97
 884              		.loc 1 504 0
 885 000c 484B     		ldr	r3, .L99+4
 886 000e 9842     		cmp	r0, r3
 887 0010 01D0     		beq	.L98
 888 0012 BDE8F883 		pop	{r3, r4, r5, r6, r7, r8, r9, pc}
 889              	.L98:
 890              		.loc 1 506 0
 891 0016 4749     		ldr	r1, .L99+8
 892              		.loc 1 507 0
 893 0018 03F50233 		add	r3, r3, #133120
 894              		.loc 1 506 0
 895 001c 4A68     		ldr	r2, [r1, #4]
 896              		.loc 1 508 0
 897 001e 0025     		movs	r5, #0
 898              		.loc 1 506 0
 899 0020 42F48052 		orr	r2, r2, #4096
 900 0024 4A60     		str	r2, [r1, #4]
 901              		.loc 1 507 0
 902 0026 DA69     		ldr	r2, [r3, #28]
 903              		.loc 1 509 0
 904 0028 7021     		movs	r1, #112
 905              		.loc 1 507 0
 906 002a 42F00402 		orr	r2, r2, #4
 907 002e DA61     		str	r2, [r3, #28]
 908              		.loc 1 508 0
 909 0030 1A69     		ldr	r2, [r3, #16]
 910              		.loc 1 509 0
 911 0032 1E20     		movs	r0, #30
 912              	.LVL77:
ARM GAS  /var/folders/6q/x_mk5n_j3p7_c40r_2k_78980000gn/T//ccdpbsJx.s 			page 17


 913              		.loc 1 508 0
 914 0034 42F00402 		orr	r2, r2, #4
 915 0038 1A61     		str	r2, [r3, #16]
 916 003a 1D61     		str	r5, [r3, #16]
 917              		.loc 1 509 0
 918 003c FFF7FEFF 		bl	nvicEnableVector
 919              	.LVL78:
 920              	.L94:
 921              	.LBB64:
 922              	.LBB65:
 923              		.loc 1 526 0
 924 0040 46F66803 		movw	r3, #26728
 925              		.loc 1 531 0
 926 0044 42F22222 		movw	r2, #8738
 927              		.loc 1 518 0
 928 0048 0026     		movs	r6, #0
 929              		.loc 1 522 0
 930 004a 4FF4EC70 		mov	r0, #472
 931              		.loc 1 523 0
 932 004e 7E21     		movs	r1, #126
 933              		.loc 1 518 0
 934 0050 2680     		strh	r6, [r4]	@ movhi
 935              		.loc 1 519 0
 936 0052 A681     		strh	r6, [r4, #12]	@ movhi
 937              		.loc 1 520 0
 938 0054 2682     		strh	r6, [r4, #16]	@ movhi
 939              		.loc 1 522 0
 940 0056 2085     		strh	r0, [r4, #40]	@ movhi
 941              		.loc 1 523 0
 942 0058 A185     		strh	r1, [r4, #44]	@ movhi
 943              		.loc 1 524 0
 944 005a A680     		strh	r6, [r4, #4]	@ movhi
 945              		.loc 1 526 0
 946 005c 2383     		strh	r3, [r4, #24]	@ movhi
 947              		.loc 1 528 0
 948 005e A383     		strh	r3, [r4, #28]	@ movhi
 949              		.loc 1 531 0
 950 0060 2284     		strh	r2, [r4, #32]	@ movhi
 951              		.loc 1 532 0
 952 0062 238C     		ldrh	r3, [r4, #32]
 953              		.loc 1 543 0
 954 0064 344D     		ldr	r5, .L99+12
 955              		.loc 1 532 0
 956 0066 9BB2     		uxth	r3, r3
 957              		.loc 1 515 0
 958 0068 3449     		ldr	r1, .L99+16
 959              		.loc 1 532 0
 960 006a 43F48853 		orr	r3, r3, #4352
 961 006e 43F01103 		orr	r3, r3, #17
 962              		.loc 1 544 0
 963 0072 1027     		movs	r7, #16
 964              		.loc 1 543 0
 965 0074 0822     		movs	r2, #8
 966              		.loc 1 540 0
 967 0076 8120     		movs	r0, #129
 968              		.loc 1 545 0
 969 0078 4FF08009 		mov	r9, #128
ARM GAS  /var/folders/6q/x_mk5n_j3p7_c40r_2k_78980000gn/T//ccdpbsJx.s 			page 18


 970              		.loc 1 546 0
 971 007c 4FF48078 		mov	r8, #256
 972              		.loc 1 532 0
 973 0080 2384     		strh	r3, [r4, #32]	@ movhi
 974              		.loc 1 515 0
 975 0082 0C60     		str	r4, [r1]
 976              		.loc 1 535 0
 977 0084 A686     		strh	r6, [r4, #52]	@ movhi
 978              		.loc 1 547 0
 979 0086 1146     		mov	r1, r2
 980              		.loc 1 536 0
 981 0088 2687     		strh	r6, [r4, #56]	@ movhi
 982              		.loc 1 537 0
 983 008a A687     		strh	r6, [r4, #60]	@ movhi
 984              		.loc 1 538 0
 985 008c A4F84060 		strh	r6, [r4, #64]	@ movhi
 986              		.loc 1 540 0
 987 0090 2080     		strh	r0, [r4]	@ movhi
 988              		.loc 1 543 0
 989 0092 6A61     		str	r2, [r5, #20]
 990              		.loc 1 547 0
 991 0094 2846     		mov	r0, r5
 992              		.loc 1 544 0
 993 0096 6F61     		str	r7, [r5, #20]
 994              		.loc 1 547 0
 995 0098 0622     		movs	r2, #6
 996              		.loc 1 545 0
 997 009a C5F81490 		str	r9, [r5, #20]
 998              		.loc 1 546 0
 999 009e C5F81480 		str	r8, [r5, #20]
 1000              		.loc 1 547 0
 1001 00a2 FFF7FEFF 		bl	_pal_lld_setgroupmode
 1002              	.LVL79:
 1003              		.loc 1 548 0
 1004 00a6 3946     		mov	r1, r7
 1005 00a8 2846     		mov	r0, r5
 1006 00aa 0622     		movs	r2, #6
 1007 00ac FFF7FEFF 		bl	_pal_lld_setgroupmode
 1008              	.LVL80:
 1009              		.loc 1 549 0
 1010 00b0 4946     		mov	r1, r9
 1011 00b2 2846     		mov	r0, r5
 1012 00b4 0622     		movs	r2, #6
 1013 00b6 FFF7FEFF 		bl	_pal_lld_setgroupmode
 1014              	.LVL81:
 1015              		.loc 1 550 0
 1016 00ba 4146     		mov	r1, r8
 1017 00bc 2846     		mov	r0, r5
 1018 00be 0622     		movs	r2, #6
 1019 00c0 FFF7FEFF 		bl	_pal_lld_setgroupmode
 1020              	.LVL82:
 1021              		.loc 1 553 0
 1022 00c4 3A46     		mov	r2, r7
 1023 00c6 2846     		mov	r0, r5
 1024 00c8 4FF48051 		mov	r1, #4096
 1025 00cc FFF7FEFF 		bl	_pal_lld_setgroupmode
 1026              	.LVL83:
ARM GAS  /var/folders/6q/x_mk5n_j3p7_c40r_2k_78980000gn/T//ccdpbsJx.s 			page 19


 1027              		.loc 1 554 0
 1028 00d0 3A46     		mov	r2, r7
 1029 00d2 2846     		mov	r0, r5
 1030 00d4 4FF40051 		mov	r1, #8192
 1031 00d8 FFF7FEFF 		bl	_pal_lld_setgroupmode
 1032              	.LVL84:
 1033              		.loc 1 555 0
 1034 00dc 3A46     		mov	r2, r7
 1035 00de 2846     		mov	r0, r5
 1036 00e0 4FF48041 		mov	r1, #16384
 1037 00e4 FFF7FEFF 		bl	_pal_lld_setgroupmode
 1038              	.LVL85:
 1039              		.loc 1 556 0
 1040 00e8 3A46     		mov	r2, r7
 1041 00ea 2846     		mov	r0, r5
 1042 00ec 4FF40041 		mov	r1, #32768
 1043 00f0 FFF7FEFF 		bl	_pal_lld_setgroupmode
 1044              	.LVL86:
 1045              		.loc 1 560 0
 1046 00f4 0123     		movs	r3, #1
 1047 00f6 A381     		strh	r3, [r4, #12]	@ movhi
 1048              		.loc 1 561 0
 1049 00f8 2682     		strh	r6, [r4, #16]	@ movhi
 1050 00fa BDE8F883 		pop	{r3, r4, r5, r6, r7, r8, r9, pc}
 1051              	.LVL87:
 1052              	.L97:
 1053              	.LBE65:
 1054              	.LBE64:
 1055              		.loc 1 498 0
 1056 00fe 0D49     		ldr	r1, .L99+8
 1057              		.loc 1 499 0
 1058 0100 03F50333 		add	r3, r3, #134144
 1059              		.loc 1 498 0
 1060 0104 4A68     		ldr	r2, [r1, #4]
 1061              		.loc 1 500 0
 1062 0106 0025     		movs	r5, #0
 1063              		.loc 1 498 0
 1064 0108 42F44062 		orr	r2, r2, #3072
 1065 010c 4A60     		str	r2, [r1, #4]
 1066              		.loc 1 499 0
 1067 010e DA69     		ldr	r2, [r3, #28]
 1068              		.loc 1 501 0
 1069 0110 7021     		movs	r1, #112
 1070              		.loc 1 499 0
 1071 0112 42F00202 		orr	r2, r2, #2
 1072 0116 DA61     		str	r2, [r3, #28]
 1073              		.loc 1 500 0
 1074 0118 1A69     		ldr	r2, [r3, #16]
 1075              		.loc 1 501 0
 1076 011a 1D20     		movs	r0, #29
 1077              	.LVL88:
 1078              		.loc 1 500 0
 1079 011c 42F00202 		orr	r2, r2, #2
 1080 0120 1A61     		str	r2, [r3, #16]
 1081 0122 1D61     		str	r5, [r3, #16]
 1082              		.loc 1 501 0
 1083 0124 FFF7FEFF 		bl	nvicEnableVector
ARM GAS  /var/folders/6q/x_mk5n_j3p7_c40r_2k_78980000gn/T//ccdpbsJx.s 			page 20


 1084              	.LVL89:
 1085 0128 8AE7     		b	.L94
 1086              	.L100:
 1087 012a 00BF     		.align	2
 1088              	.L99:
 1089 012c 00040040 		.word	1073742848
 1090 0130 00080040 		.word	1073743872
 1091 0134 00000140 		.word	1073807360
 1092 0138 00140140 		.word	1073812480
 1093 013c 00000000 		.word	.LANCHOR1
 1094              		.cfi_endproc
 1095              	.LFE79:
 1096              		.size	_vexMotorPwmInit, .-_vexMotorPwmInit
 1097              		.section	.text.vexMotorInit,"ax",%progbits
 1098              		.align	2
 1099              		.p2align 4,,15
 1100              		.global	vexMotorInit
 1101              		.thumb
 1102              		.thumb_func
 1103              		.type	vexMotorInit, %function
 1104              	vexMotorInit:
 1105              	.LFB63:
 1106              		.loc 1 79 0
 1107              		.cfi_startproc
 1108              		@ args = 0, pretend = 0, frame = 0
 1109              		@ frame_needed = 0, uses_anonymous_args = 0
 1110              		@ link register save eliminated.
 1111              	.LVL90:
 1112 0000 10B4     		push	{r4}
 1113              		.cfi_def_cfa_offset 4
 1114              		.cfi_offset 4, -4
 1115 0002 0C4C     		ldr	r4, .L105
 1116              		.loc 1 79 0
 1117 0004 0022     		movs	r2, #0
 1118 0006 2346     		mov	r3, r4
 1119              		.loc 1 84 0
 1120 0008 1146     		mov	r1, r2
 1121              	.LVL91:
 1122              	.L102:
 1123              		.loc 1 84 0 is_stmt 0 discriminator 3
 1124 000a 02EB8200 		add	r0, r2, r2, lsl #2
 1125 000e 0132     		adds	r2, r2, #1
 1126              	.LVL92:
 1127              		.loc 1 82 0 is_stmt 1 discriminator 3
 1128 0010 0A2A     		cmp	r2, #10
 1129              		.loc 1 84 0 discriminator 3
 1130 0012 24F82010 		strh	r1, [r4, r0, lsl #2]	@ movhi
 1131 0016 03F11403 		add	r3, r3, #20
 1132              		.loc 1 85 0 discriminator 3
 1133 001a 03F8121C 		strb	r1, [r3, #-18]
 1134              		.loc 1 86 0 discriminator 3
 1135 001e 03F8111C 		strb	r1, [r3, #-17]
 1136              		.loc 1 87 0 discriminator 3
 1137 0022 43F8101C 		str	r1, [r3, #-16]
 1138              		.loc 1 88 0 discriminator 3
 1139 0026 43F80C1C 		str	r1, [r3, #-12]
 1140              		.loc 1 82 0 discriminator 3
ARM GAS  /var/folders/6q/x_mk5n_j3p7_c40r_2k_78980000gn/T//ccdpbsJx.s 			page 21


 1141 002a EED1     		bne	.L102
 1142              		.loc 1 95 0
 1143 002c 0248     		ldr	r0, .L105+4
 1144              		.loc 1 98 0
 1145 002e 10BC     		pop	{r4}
 1146              		.cfi_restore 4
 1147              		.cfi_def_cfa_offset 0
 1148              		.loc 1 95 0
 1149 0030 FFF7FEBF 		b	_vexMotorPwmInit
 1150              	.LVL93:
 1151              	.L106:
 1152              		.align	2
 1153              	.L105:
 1154 0034 00000000 		.word	.LANCHOR0
 1155 0038 00080040 		.word	1073743872
 1156              		.cfi_endproc
 1157              	.LFE63:
 1158              		.size	vexMotorInit, .-vexMotorInit
 1159              		.section	.text._vexMotorPwmSet_0,"ax",%progbits
 1160              		.align	2
 1161              		.p2align 4,,15
 1162              		.global	_vexMotorPwmSet_0
 1163              		.thumb
 1164              		.thumb_func
 1165              		.type	_vexMotorPwmSet_0, %function
 1166              	_vexMotorPwmSet_0:
 1167              	.LFB80:
 1168              		.loc 1 576 0
 1169              		.cfi_startproc
 1170              		@ args = 0, pretend = 0, frame = 0
 1171              		@ frame_needed = 0, uses_anonymous_args = 0
 1172              		@ link register save eliminated.
 1173              	.LVL94:
 1174              		.loc 1 579 0
 1175 0000 134B     		ldr	r3, .L118
 1176 0002 1B68     		ldr	r3, [r3]
 1177 0004 6BB1     		cbz	r3, .L116
 1178              		.loc 1 582 0
 1179 0006 0028     		cmp	r0, #0
 1180              		.loc 1 576 0
 1181 0008 30B4     		push	{r4, r5}
 1182              		.cfi_def_cfa_offset 8
 1183              		.cfi_offset 4, -8
 1184              		.cfi_offset 5, -4
 1185              		.loc 1 582 0
 1186 000a 0BDD     		ble	.L109
 1187              		.loc 1 585 0
 1188 000c 114A     		ldr	r2, .L118+4
 1189              		.loc 1 588 0
 1190 000e 00F07F00 		and	r0, r0, #127
 1191              	.LVL95:
 1192              		.loc 1 584 0
 1193 0012 0025     		movs	r5, #0
 1194              		.loc 1 585 0
 1195 0014 0824     		movs	r4, #8
 1196              		.loc 1 587 0
 1197 0016 1021     		movs	r1, #16
ARM GAS  /var/folders/6q/x_mk5n_j3p7_c40r_2k_78980000gn/T//ccdpbsJx.s 			page 22


 1198              		.loc 1 584 0
 1199 0018 1D87     		strh	r5, [r3, #56]	@ movhi
 1200              		.loc 1 585 0
 1201 001a 5461     		str	r4, [r2, #20]
 1202              	.LVL96:
 1203              		.loc 1 587 0
 1204 001c 1161     		str	r1, [r2, #16]
 1205              		.loc 1 588 0
 1206 001e 9886     		strh	r0, [r3, #52]	@ movhi
 1207              	.L107:
 1208              		.loc 1 606 0
 1209 0020 30BC     		pop	{r4, r5}
 1210              		.cfi_restore 5
 1211              		.cfi_restore 4
 1212              		.cfi_def_cfa_offset 0
 1213              	.L116:
 1214 0022 7047     		bx	lr
 1215              	.LVL97:
 1216              	.L109:
 1217              		.cfi_def_cfa_offset 8
 1218              		.cfi_offset 4, -8
 1219              		.cfi_offset 5, -4
 1220              		.loc 1 591 0
 1221 0024 07D1     		bne	.L117
 1222              		.loc 1 603 0
 1223 0026 0B4A     		ldr	r2, .L118+4
 1224 0028 0824     		movs	r4, #8
 1225              		.loc 1 604 0
 1226 002a 1021     		movs	r1, #16
 1227              		.loc 1 601 0
 1228 002c 9886     		strh	r0, [r3, #52]	@ movhi
 1229              		.loc 1 602 0
 1230 002e 1887     		strh	r0, [r3, #56]	@ movhi
 1231              		.loc 1 603 0
 1232 0030 5461     		str	r4, [r2, #20]
 1233              		.loc 1 604 0
 1234 0032 5161     		str	r1, [r2, #20]
 1235 0034 F4E7     		b	.L107
 1236              	.L117:
 1237              		.loc 1 594 0
 1238 0036 074A     		ldr	r2, .L118+4
 1239              		.loc 1 597 0
 1240 0038 4042     		negs	r0, r0
 1241              	.LVL98:
 1242 003a 00F07F00 		and	r0, r0, #127
 1243              		.loc 1 593 0
 1244 003e 0025     		movs	r5, #0
 1245              		.loc 1 594 0
 1246 0040 1024     		movs	r4, #16
 1247              		.loc 1 596 0
 1248 0042 0821     		movs	r1, #8
 1249              		.loc 1 593 0
 1250 0044 9D86     		strh	r5, [r3, #52]	@ movhi
 1251              		.loc 1 594 0
 1252 0046 5461     		str	r4, [r2, #20]
 1253              		.loc 1 596 0
 1254 0048 1161     		str	r1, [r2, #16]
ARM GAS  /var/folders/6q/x_mk5n_j3p7_c40r_2k_78980000gn/T//ccdpbsJx.s 			page 23


 1255              		.loc 1 597 0
 1256 004a 1887     		strh	r0, [r3, #56]	@ movhi
 1257 004c E8E7     		b	.L107
 1258              	.L119:
 1259 004e 00BF     		.align	2
 1260              	.L118:
 1261 0050 00000000 		.word	.LANCHOR1
 1262 0054 00140140 		.word	1073812480
 1263              		.cfi_endproc
 1264              	.LFE80:
 1265              		.size	_vexMotorPwmSet_0, .-_vexMotorPwmSet_0
 1266              		.section	.text._vexMotorPwmSet_9,"ax",%progbits
 1267              		.align	2
 1268              		.p2align 4,,15
 1269              		.global	_vexMotorPwmSet_9
 1270              		.thumb
 1271              		.thumb_func
 1272              		.type	_vexMotorPwmSet_9, %function
 1273              	_vexMotorPwmSet_9:
 1274              	.LFB81:
 1275              		.loc 1 619 0
 1276              		.cfi_startproc
 1277              		@ args = 0, pretend = 0, frame = 0
 1278              		@ frame_needed = 0, uses_anonymous_args = 0
 1279              		@ link register save eliminated.
 1280              	.LVL99:
 1281              		.loc 1 622 0
 1282 0000 164B     		ldr	r3, .L131
 1283 0002 1B68     		ldr	r3, [r3]
 1284 0004 7BB1     		cbz	r3, .L129
 1285              		.loc 1 625 0
 1286 0006 0028     		cmp	r0, #0
 1287              		.loc 1 619 0
 1288 0008 30B4     		push	{r4, r5}
 1289              		.cfi_def_cfa_offset 8
 1290              		.cfi_offset 4, -8
 1291              		.cfi_offset 5, -4
 1292              		.loc 1 625 0
 1293 000a 0DDD     		ble	.L122
 1294              		.loc 1 628 0
 1295 000c 144A     		ldr	r2, .L131+4
 1296              		.loc 1 631 0
 1297 000e 00F07F00 		and	r0, r0, #127
 1298              	.LVL100:
 1299              		.loc 1 627 0
 1300 0012 0025     		movs	r5, #0
 1301              		.loc 1 628 0
 1302 0014 8024     		movs	r4, #128
 1303              		.loc 1 630 0
 1304 0016 4FF48071 		mov	r1, #256
 1305              		.loc 1 627 0
 1306 001a A3F84050 		strh	r5, [r3, #64]	@ movhi
 1307              		.loc 1 628 0
 1308 001e 5461     		str	r4, [r2, #20]
 1309              	.LVL101:
 1310              		.loc 1 630 0
 1311 0020 1161     		str	r1, [r2, #16]
ARM GAS  /var/folders/6q/x_mk5n_j3p7_c40r_2k_78980000gn/T//ccdpbsJx.s 			page 24


 1312              		.loc 1 631 0
 1313 0022 9887     		strh	r0, [r3, #60]	@ movhi
 1314              	.L120:
 1315              		.loc 1 649 0
 1316 0024 30BC     		pop	{r4, r5}
 1317              		.cfi_restore 5
 1318              		.cfi_restore 4
 1319              		.cfi_def_cfa_offset 0
 1320              	.L129:
 1321 0026 7047     		bx	lr
 1322              	.LVL102:
 1323              	.L122:
 1324              		.cfi_def_cfa_offset 8
 1325              		.cfi_offset 4, -8
 1326              		.cfi_offset 5, -4
 1327              		.loc 1 634 0
 1328 0028 09D1     		bne	.L130
 1329              		.loc 1 646 0
 1330 002a 0D4A     		ldr	r2, .L131+4
 1331 002c 8024     		movs	r4, #128
 1332              		.loc 1 647 0
 1333 002e 4FF48071 		mov	r1, #256
 1334              		.loc 1 644 0
 1335 0032 9887     		strh	r0, [r3, #60]	@ movhi
 1336              		.loc 1 645 0
 1337 0034 A3F84000 		strh	r0, [r3, #64]	@ movhi
 1338              		.loc 1 646 0
 1339 0038 5461     		str	r4, [r2, #20]
 1340              		.loc 1 647 0
 1341 003a 5161     		str	r1, [r2, #20]
 1342 003c F2E7     		b	.L120
 1343              	.L130:
 1344              		.loc 1 637 0
 1345 003e 084A     		ldr	r2, .L131+4
 1346              		.loc 1 640 0
 1347 0040 4042     		negs	r0, r0
 1348              	.LVL103:
 1349 0042 00F07F00 		and	r0, r0, #127
 1350              		.loc 1 636 0
 1351 0046 0025     		movs	r5, #0
 1352              		.loc 1 637 0
 1353 0048 4FF48074 		mov	r4, #256
 1354              		.loc 1 639 0
 1355 004c 8021     		movs	r1, #128
 1356              		.loc 1 636 0
 1357 004e 9D87     		strh	r5, [r3, #60]	@ movhi
 1358              		.loc 1 637 0
 1359 0050 5461     		str	r4, [r2, #20]
 1360              		.loc 1 639 0
 1361 0052 1161     		str	r1, [r2, #16]
 1362              		.loc 1 640 0
 1363 0054 A3F84000 		strh	r0, [r3, #64]	@ movhi
 1364 0058 E4E7     		b	.L120
 1365              	.L132:
 1366 005a 00BF     		.align	2
 1367              	.L131:
 1368 005c 00000000 		.word	.LANCHOR1
ARM GAS  /var/folders/6q/x_mk5n_j3p7_c40r_2k_78980000gn/T//ccdpbsJx.s 			page 25


 1369 0060 00140140 		.word	1073812480
 1370              		.cfi_endproc
 1371              	.LFE81:
 1372              		.size	_vexMotorPwmSet_9, .-_vexMotorPwmSet_9
 1373              		.section	.text.VectorB8,"ax",%progbits
 1374              		.align	2
 1375              		.p2align 4,,15
 1376              		.global	VectorB8
 1377              		.thumb
 1378              		.thumb_func
 1379              		.type	VectorB8, %function
 1380              	VectorB8:
 1381              	.LFB78:
 1382              		.loc 1 392 0
 1383              		.cfi_startproc
 1384              		@ args = 0, pretend = 0, frame = 0
 1385              		@ frame_needed = 0, uses_anonymous_args = 0
 1386 0000 F8B5     		push	{r3, r4, r5, r6, r7, lr}
 1387              		.cfi_def_cfa_offset 24
 1388              		.cfi_offset 3, -24
 1389              		.cfi_offset 4, -20
 1390              		.cfi_offset 5, -16
 1391              		.cfi_offset 6, -12
 1392              		.cfi_offset 7, -8
 1393              		.cfi_offset 14, -4
 1394              		.loc 1 398 0
 1395 0002 434D     		ldr	r5, .L173
 1396 0004 0021     		movs	r1, #0
 1397 0006 2A68     		ldr	r2, [r5]
 1398              	.LBB66:
 1399              		.loc 1 400 0
 1400 0008 2023     		movs	r3, #32
 1401              	.LBE66:
 1402              		.loc 1 398 0
 1403 000a 1182     		strh	r1, [r2, #16]	@ movhi
 1404              	.LBB67:
 1405              		.loc 1 400 0
 1406              		.syntax unified
 1407              	@ 400 "../convex-vexilla/cortex/fw/vexmotor.c" 1
 1408 000c 83F31188 		msr     BASEPRI, r3
 1409              	@ 0 "" 2
 1410              		.thumb
 1411              		.syntax unified
 1412              	.LBE67:
 1413              		.loc 1 403 0
 1414 0010 404F     		ldr	r7, .L173+4
 1415 0012 FB78     		ldrb	r3, [r7, #3]	@ zero_extendqisi2
 1416 0014 002B     		cmp	r3, #0
 1417 0016 40D1     		bne	.L134
 1418              		.loc 1 404 0
 1419 0018 3B88     		ldrh	r3, [r7]
 1420 001a 3F4A     		ldr	r2, .L173+8
 1421 001c 1CB2     		sxth	r4, r3
 1422 001e 1380     		strh	r3, [r2]	@ movhi
 1423              	.L135:
 1424              		.loc 1 408 0
 1425 0020 3E4E     		ldr	r6, .L173+12
ARM GAS  /var/folders/6q/x_mk5n_j3p7_c40r_2k_78980000gn/T//ccdpbsJx.s 			page 26


 1426 0022 B6F90030 		ldrsh	r3, [r6]
 1427 0026 A342     		cmp	r3, r4
 1428 0028 0CD0     		beq	.L136
 1429              		.loc 1 411 0
 1430 002a 002C     		cmp	r4, #0
 1431 002c 4CD1     		bne	.L137
 1432              	.LVL104:
 1433              	.LBB68:
 1434              	.LBB69:
 1435              		.loc 1 579 0
 1436 002e 2B68     		ldr	r3, [r5]
 1437 0030 33B1     		cbz	r3, .L138
 1438              		.loc 1 603 0
 1439 0032 3B4A     		ldr	r2, .L173+16
 1440 0034 0820     		movs	r0, #8
 1441              		.loc 1 604 0
 1442 0036 1021     		movs	r1, #16
 1443              		.loc 1 601 0
 1444 0038 9C86     		strh	r4, [r3, #52]	@ movhi
 1445              		.loc 1 602 0
 1446 003a 1C87     		strh	r4, [r3, #56]	@ movhi
 1447              		.loc 1 603 0
 1448 003c 5061     		str	r0, [r2, #20]
 1449              		.loc 1 604 0
 1450 003e 5161     		str	r1, [r2, #20]
 1451              	.LVL105:
 1452              	.L138:
 1453              	.LBE69:
 1454              	.LBE68:
 1455              		.loc 1 413 0
 1456 0040 0023     		movs	r3, #0
 1457 0042 3380     		strh	r3, [r6]	@ movhi
 1458              	.L136:
 1459              		.loc 1 442 0
 1460 0044 97F8B720 		ldrb	r2, [r7, #183]	@ zero_extendqisi2
 1461 0048 324B     		ldr	r3, .L173+4
 1462 004a FAB9     		cbnz	r2, .L142
 1463              		.loc 1 443 0
 1464 004c B3F8B430 		ldrh	r3, [r3, #180]
 1465 0050 344A     		ldr	r2, .L173+20
 1466 0052 1CB2     		sxth	r4, r3
 1467 0054 1380     		strh	r3, [r2]	@ movhi
 1468              	.L143:
 1469              		.loc 1 446 0
 1470 0056 344E     		ldr	r6, .L173+24
 1471 0058 B6F90030 		ldrsh	r3, [r6]
 1472 005c A342     		cmp	r3, r4
 1473 005e 0ED0     		beq	.L144
 1474              		.loc 1 449 0
 1475 0060 002C     		cmp	r4, #0
 1476 0062 20D1     		bne	.L145
 1477              	.LVL106:
 1478              	.LBB70:
 1479              	.LBB71:
 1480              		.loc 1 622 0
 1481 0064 2B68     		ldr	r3, [r5]
 1482 0066 43B1     		cbz	r3, .L146
ARM GAS  /var/folders/6q/x_mk5n_j3p7_c40r_2k_78980000gn/T//ccdpbsJx.s 			page 27


 1483              		.loc 1 646 0
 1484 0068 2D4A     		ldr	r2, .L173+16
 1485 006a 8020     		movs	r0, #128
 1486              		.loc 1 647 0
 1487 006c 4FF48071 		mov	r1, #256
 1488              		.loc 1 644 0
 1489 0070 9C87     		strh	r4, [r3, #60]	@ movhi
 1490              		.loc 1 645 0
 1491 0072 A3F84040 		strh	r4, [r3, #64]	@ movhi
 1492              		.loc 1 646 0
 1493 0076 5061     		str	r0, [r2, #20]
 1494              		.loc 1 647 0
 1495 0078 5161     		str	r1, [r2, #20]
 1496              	.LVL107:
 1497              	.L146:
 1498              	.LBE71:
 1499              	.LBE70:
 1500              		.loc 1 451 0
 1501 007a 0023     		movs	r3, #0
 1502 007c 3380     		strh	r3, [r6]	@ movhi
 1503              	.L144:
 1504              	.LBB72:
 1505              		.loc 1 480 0
 1506 007e 0023     		movs	r3, #0
 1507              		.syntax unified
 1508              	@ 480 "../convex-vexilla/cortex/fw/vexmotor.c" 1
 1509 0080 83F31188 		msr     BASEPRI, r3
 1510              	@ 0 "" 2
 1511              		.thumb
 1512              		.syntax unified
 1513              	.LBE72:
 1514              		.loc 1 483 0
 1515 0084 BDE8F840 		pop	{r3, r4, r5, r6, r7, lr}
 1516              		.cfi_remember_state
 1517              		.cfi_restore 14
 1518              		.cfi_restore 7
 1519              		.cfi_restore 6
 1520              		.cfi_restore 5
 1521              		.cfi_restore 4
 1522              		.cfi_restore 3
 1523              		.cfi_def_cfa_offset 0
 1524              		.loc 1 482 0
 1525 0088 FFF7FEBF 		b	_port_irq_epilogue
 1526              	.LVL108:
 1527              	.L142:
 1528              		.cfi_restore_state
 1529              		.loc 1 445 0
 1530 008c B3F8B440 		ldrh	r4, [r3, #180]
 1531 0090 244B     		ldr	r3, .L173+20
 1532 0092 6442     		negs	r4, r4
 1533 0094 24B2     		sxth	r4, r4
 1534 0096 1C80     		strh	r4, [r3]	@ movhi
 1535 0098 DDE7     		b	.L143
 1536              	.L134:
 1537              		.loc 1 406 0
 1538 009a 3C88     		ldrh	r4, [r7]
 1539 009c 1E4B     		ldr	r3, .L173+8
ARM GAS  /var/folders/6q/x_mk5n_j3p7_c40r_2k_78980000gn/T//ccdpbsJx.s 			page 28


 1540 009e 6442     		negs	r4, r4
 1541 00a0 24B2     		sxth	r4, r4
 1542 00a2 1C80     		strh	r4, [r3]	@ movhi
 1543 00a4 BCE7     		b	.L135
 1544              	.L145:
 1545              		.loc 1 455 0
 1546 00a6 25DD     		ble	.L147
 1547              		.loc 1 456 0
 1548 00a8 002B     		cmp	r3, #0
 1549 00aa 25DA     		bge	.L172
 1550              	.L149:
 1551              	.LVL109:
 1552              	.LBB73:
 1553              	.LBB74:
 1554              		.loc 1 622 0
 1555 00ac 2B68     		ldr	r3, [r5]
 1556 00ae 002B     		cmp	r3, #0
 1557 00b0 E3D0     		beq	.L146
 1558              		.loc 1 646 0
 1559 00b2 1B4A     		ldr	r2, .L173+16
 1560              		.loc 1 644 0
 1561 00b4 0021     		movs	r1, #0
 1562              		.loc 1 646 0
 1563 00b6 8024     		movs	r4, #128
 1564              		.loc 1 647 0
 1565 00b8 4FF48070 		mov	r0, #256
 1566              		.loc 1 644 0
 1567 00bc 9987     		strh	r1, [r3, #60]	@ movhi
 1568              		.loc 1 645 0
 1569 00be A3F84010 		strh	r1, [r3, #64]	@ movhi
 1570              		.loc 1 646 0
 1571 00c2 5461     		str	r4, [r2, #20]
 1572              		.loc 1 647 0
 1573 00c4 5061     		str	r0, [r2, #20]
 1574 00c6 D8E7     		b	.L146
 1575              	.LVL110:
 1576              	.L137:
 1577              	.LBE74:
 1578              	.LBE73:
 1579              		.loc 1 417 0
 1580 00c8 06DD     		ble	.L139
 1581              		.loc 1 418 0
 1582 00ca 002B     		cmp	r3, #0
 1583 00cc 06DB     		blt	.L141
 1584              	.L170:
 1585              		.loc 1 431 0
 1586 00ce 2046     		mov	r0, r4
 1587 00d0 FFF7FEFF 		bl	_vexMotorPwmSet_0
 1588              	.LVL111:
 1589              		.loc 1 432 0
 1590 00d4 3480     		strh	r4, [r6]	@ movhi
 1591 00d6 B5E7     		b	.L136
 1592              	.L139:
 1593              		.loc 1 430 0
 1594 00d8 002B     		cmp	r3, #0
 1595 00da F8DD     		ble	.L170
 1596              	.L141:
ARM GAS  /var/folders/6q/x_mk5n_j3p7_c40r_2k_78980000gn/T//ccdpbsJx.s 			page 29


 1597              	.LVL112:
 1598              	.LBB75:
 1599              	.LBB76:
 1600              		.loc 1 579 0
 1601 00dc 2B68     		ldr	r3, [r5]
 1602 00de 002B     		cmp	r3, #0
 1603 00e0 AED0     		beq	.L138
 1604              		.loc 1 603 0
 1605 00e2 0F4A     		ldr	r2, .L173+16
 1606              		.loc 1 601 0
 1607 00e4 0021     		movs	r1, #0
 1608              		.loc 1 603 0
 1609 00e6 0824     		movs	r4, #8
 1610              		.loc 1 604 0
 1611 00e8 1020     		movs	r0, #16
 1612              		.loc 1 601 0
 1613 00ea 9986     		strh	r1, [r3, #52]	@ movhi
 1614              		.loc 1 602 0
 1615 00ec 1987     		strh	r1, [r3, #56]	@ movhi
 1616              		.loc 1 603 0
 1617 00ee 5461     		str	r4, [r2, #20]
 1618              		.loc 1 604 0
 1619 00f0 5061     		str	r0, [r2, #20]
 1620 00f2 A5E7     		b	.L138
 1621              	.LVL113:
 1622              	.L147:
 1623              	.LBE76:
 1624              	.LBE75:
 1625              		.loc 1 468 0
 1626 00f4 002B     		cmp	r3, #0
 1627 00f6 D9DC     		bgt	.L149
 1628              	.L172:
 1629              		.loc 1 469 0
 1630 00f8 2046     		mov	r0, r4
 1631 00fa FFF7FEFF 		bl	_vexMotorPwmSet_9
 1632              	.LVL114:
 1633              		.loc 1 470 0
 1634 00fe 3480     		strh	r4, [r6]	@ movhi
 1635              	.LBB77:
 1636              		.loc 1 480 0
 1637 0100 0023     		movs	r3, #0
 1638              		.syntax unified
 1639              	@ 480 "../convex-vexilla/cortex/fw/vexmotor.c" 1
 1640 0102 83F31188 		msr     BASEPRI, r3
 1641              	@ 0 "" 2
 1642              		.thumb
 1643              		.syntax unified
 1644              	.LBE77:
 1645              		.loc 1 483 0
 1646 0106 BDE8F840 		pop	{r3, r4, r5, r6, r7, lr}
 1647              		.cfi_restore 3
 1648              		.cfi_restore 4
 1649              		.cfi_restore 5
 1650              		.cfi_restore 6
 1651              		.cfi_restore 7
 1652              		.cfi_restore 14
 1653              		.cfi_def_cfa_offset 0
ARM GAS  /var/folders/6q/x_mk5n_j3p7_c40r_2k_78980000gn/T//ccdpbsJx.s 			page 30


 1654              		.loc 1 482 0
 1655 010a FFF7FEBF 		b	_port_irq_epilogue
 1656              	.LVL115:
 1657              	.L174:
 1658 010e 00BF     		.align	2
 1659              	.L173:
 1660 0110 00000000 		.word	.LANCHOR1
 1661 0114 00000000 		.word	.LANCHOR0
 1662 0118 00000000 		.word	.LANCHOR2
 1663 011c 00000000 		.word	.LANCHOR3
 1664 0120 00140140 		.word	1073812480
 1665 0124 00000000 		.word	.LANCHOR4
 1666 0128 00000000 		.word	.LANCHOR5
 1667              		.cfi_endproc
 1668              	.LFE78:
 1669              		.size	VectorB8, .-VectorB8
 1670              		.section	.bss.m0_cur_value,"aw",%nobits
 1671              		.align	1
 1672              		.set	.LANCHOR3,. + 0
 1673              		.type	m0_cur_value, %object
 1674              		.size	m0_cur_value, 2
 1675              	m0_cur_value:
 1676 0000 0000     		.space	2
 1677              		.section	.bss.m9_new_value,"aw",%nobits
 1678              		.align	1
 1679              		.set	.LANCHOR4,. + 0
 1680              		.type	m9_new_value, %object
 1681              		.size	m9_new_value, 2
 1682              	m9_new_value:
 1683 0000 0000     		.space	2
 1684              		.section	.bss.m9_cur_value,"aw",%nobits
 1685              		.align	1
 1686              		.set	.LANCHOR5,. + 0
 1687              		.type	m9_cur_value, %object
 1688              		.size	m9_cur_value, 2
 1689              	m9_cur_value:
 1690 0000 0000     		.space	2
 1691              		.section	.bss.vexMotors,"aw",%nobits
 1692              		.align	2
 1693              		.set	.LANCHOR0,. + 0
 1694              		.type	vexMotors, %object
 1695              		.size	vexMotors, 200
 1696              	vexMotors:
 1697 0000 00000000 		.space	200
 1697      00000000 
 1697      00000000 
 1697      00000000 
 1697      00000000 
 1698              		.section	.bss.m0_new_value,"aw",%nobits
 1699              		.align	1
 1700              		.set	.LANCHOR2,. + 0
 1701              		.type	m0_new_value, %object
 1702              		.size	m0_new_value, 2
 1703              	m0_new_value:
 1704 0000 0000     		.space	2
 1705              		.section	.rodata.str1.4,"aMS",%progbits,1
 1706              		.align	2
ARM GAS  /var/folders/6q/x_mk5n_j3p7_c40r_2k_78980000gn/T//ccdpbsJx.s 			page 31


 1707              	.LC0:
 1708 0000 4D6F746F 		.ascii	"Motor  Speed  Position Rev   ID\015\012\000"
 1708      72202053 
 1708      70656564 
 1708      2020506F 
 1708      73697469 
 1709 0022 0000     		.space	2
 1710              	.LC1:
 1711 0024 4D5F2564 		.ascii	"M_%d  %4d %7d      \000"
 1711      20202534 
 1711      64202537 
 1711      64202020 
 1711      20202000 
 1712              	.LC2:
 1713 0038 74727565 		.ascii	"true  \000"
 1713      202000
 1714 003f 00       		.space	1
 1715              	.LC3:
 1716 0040 66616C73 		.ascii	"false \000"
 1716      652000
 1717 0047 00       		.space	1
 1718              	.LC4:
 1719 0048 25640D0A 		.ascii	"%d\015\012\000"
 1719      00
 1720 004d 000000   		.space	3
 1721              	.LC5:
 1722 0050 73657420 		.ascii	"set motor %d to %d\015\012\000"
 1722      6D6F746F 
 1722      72202564 
 1722      20746F20 
 1722      25640D0A 
 1723              		.section	.bss.PwmTimer,"aw",%nobits
 1724              		.align	2
 1725              		.set	.LANCHOR1,. + 0
 1726              		.type	PwmTimer, %object
 1727              		.size	PwmTimer, 4
 1728              	PwmTimer:
 1729 0000 00000000 		.space	4
 1730              		.text
 1731              	.Letext0:
 1732              		.file 2 "/Users/Luca/src/vexilla/src/gcc-arm-none-eabi-5_4-2016q3/lib/gcc/arm-none-eabi/5.4.1/incl
 1733              		.file 3 "/Users/Luca/src/vexilla/src/gcc-arm-none-eabi-5_4-2016q3/arm-none-eabi/include/machine/_d
 1734              		.file 4 "/Users/Luca/src/vexilla/src/gcc-arm-none-eabi-5_4-2016q3/arm-none-eabi/include/sys/_stdin
 1735              		.file 5 "../ChibiOS/os/ports/GCC/ARMCMx/chtypes.h"
 1736              		.file 6 "../ChibiOS/os/kernel/include/chstreams.h"
 1737              		.file 7 "../ChibiOS/os/hal/platforms/STM32F1xx/stm32f10x.h"
 1738              		.file 8 "../ChibiOS/os/hal/platforms/STM32/GPIOv1/pal_lld.h"
 1739              		.file 9 "../convex-vexilla/cortex/fw/vexcompat.h"
 1740              		.file 10 "../convex-vexilla/cortex/fw/vexdigital.h"
 1741              		.file 11 "../convex-vexilla/cortex/fw/vexmotor.h"
 1742              		.file 12 "../convex-vexilla/cortex/fw/vexime.h"
 1743              		.file 13 "/Users/Luca/src/vexilla/src/gcc-arm-none-eabi-5_4-2016q3/arm-none-eabi/include/stdlib.h"
 1744              		.file 14 "../convex-vexilla/cortex/fw/vexprintf.h"
 1745              		.file 15 "../ChibiOS/os/ports/common/ARMCMx/nvic.h"
 1746              		.file 16 "../ChibiOS/os/ports/GCC/ARMCMx/chcore_v7m.h"
 1747              		.file 17 "../ChibiOS/os/ports/common/ARMCMx/CMSIS/include/core_cm3.h"