ARM GAS  /var/folders/6q/x_mk5n_j3p7_c40r_2k_78980000gn/T//ccP3TrUk.s 			page 1


   1              		.syntax unified
   2              		.cpu cortex-m3
   3              		.fpu softvfp
   4              		.eabi_attribute 20, 1
   5              		.eabi_attribute 21, 1
   6              		.eabi_attribute 23, 3
   7              		.eabi_attribute 24, 1
   8              		.eabi_attribute 25, 1
   9              		.eabi_attribute 26, 1
  10              		.eabi_attribute 30, 2
  11              		.eabi_attribute 34, 1
  12              		.eabi_attribute 18, 4
  13              		.thumb
  14              		.syntax unified
  15              		.file	"vexprintf.c"
  16              		.text
  17              	.Ltext0:
  18              		.cfi_sections	.debug_frame
  19              		.section	.text.vex_printc,"ax",%progbits
  20              		.align	2
  21              		.p2align 4,,15
  22              		.thumb
  23              		.thumb_func
  24              		.type	vex_printc, %function
  25              	vex_printc:
  26              	.LFB65:
  27              		.file 1 "../convex-vexilla/cortex/fw/vexprintf.c"
  28              		.loc 1 233 0
  29              		.cfi_startproc
  30              		@ args = 0, pretend = 0, frame = 0
  31              		@ frame_needed = 0, uses_anonymous_args = 0
  32              	.LVL0:
  33              		.loc 1 235 0
  34 0000 C368     		ldr	r3, [r0, #12]
  35 0002 002B     		cmp	r3, #0
  36 0004 02DB     		blt	.L2
  37              		.loc 1 235 0 is_stmt 0 discriminator 1
  38 0006 0269     		ldr	r2, [r0, #16]
  39 0008 9342     		cmp	r3, r2
  40 000a 0BDD     		ble	.L10
  41              	.L2:
  42              		.loc 1 239 0 is_stmt 1
  43 000c 4368     		ldr	r3, [r0, #4]
  44 000e 53B1     		cbz	r3, .L4
  45              		.loc 1 240 0
  46 0010 1B68     		ldr	r3, [r3]
  47 0012 1970     		strb	r1, [r3]
  48              		.loc 1 241 0
  49 0014 4168     		ldr	r1, [r0, #4]
  50              	.LVL1:
  51              		.loc 1 242 0
  52 0016 0369     		ldr	r3, [r0, #16]
  53              		.loc 1 241 0
  54 0018 0A68     		ldr	r2, [r1]
  55              		.loc 1 242 0
  56 001a 0133     		adds	r3, r3, #1
  57              		.loc 1 241 0
ARM GAS  /var/folders/6q/x_mk5n_j3p7_c40r_2k_78980000gn/T//ccP3TrUk.s 			page 2


  58 001c 0132     		adds	r2, r2, #1
  59 001e 0A60     		str	r2, [r1]
  60              		.loc 1 242 0
  61 0020 0361     		str	r3, [r0, #16]
  62 0022 7047     		bx	lr
  63              	.LVL2:
  64              	.L10:
  65 0024 7047     		bx	lr
  66              	.L4:
  67              		.loc 1 233 0
  68 0026 2DE9F041 		push	{r4, r5, r6, r7, r8, lr}
  69              		.cfi_def_cfa_offset 24
  70              		.cfi_offset 4, -24
  71              		.cfi_offset 5, -20
  72              		.cfi_offset 6, -16
  73              		.cfi_offset 7, -12
  74              		.cfi_offset 8, -8
  75              		.cfi_offset 14, -4
  76 002a 0446     		mov	r4, r0
  77              	.LVL3:
  78              	.LBB28:
  79              	.LBB29:
  80              		.loc 1 246 0
  81 002c 1D4D     		ldr	r5, .L13
  82 002e 806D     		ldr	r0, [r0, #88]
  83              	.LVL4:
  84 0030 EA68     		ldr	r2, [r5, #12]
  85 0032 0F46     		mov	r7, r1
  86              	.LVL5:
  87 0034 121A     		subs	r2, r2, r0
  88              		.loc 1 249 0
  89 0036 1D2A     		cmp	r2, #29
  90              		.loc 1 246 0
  91 0038 E265     		str	r2, [r4, #92]
  92              		.loc 1 249 0
  93 003a 1AD8     		bhi	.L5
  94              	.LVL6:
  95              		.loc 1 252 0
  96 003c 082A     		cmp	r2, #8
  97 003e 26D8     		bhi	.L12
  98 0040 B4F95430 		ldrsh	r3, [r4, #84]
  99              	.L7:
 100              		.loc 1 263 0
 101 0044 0133     		adds	r3, r3, #1
 102 0046 1BB2     		sxth	r3, r3
 103 0048 802B     		cmp	r3, #128
 104 004a A4F85430 		strh	r3, [r4, #84]	@ movhi
 105 004e 12D1     		bne	.L8
 106              		.loc 1 268 0
 107 0050 154E     		ldr	r6, .L13+4
 108 0052 1648     		ldr	r0, .L13+8
 109 0054 06FB02F2 		mul	r2, r6, r2
 110 0058 02F5EA43 		add	r3, r2, #29952
 111 005c 2F33     		adds	r3, r3, #47
 112 005e A0FB0323 		umull	r2, r3, r0, r3
 113 0062 9809     		lsrs	r0, r3, #6
 114 0064 0130     		adds	r0, r0, #1
ARM GAS  /var/folders/6q/x_mk5n_j3p7_c40r_2k_78980000gn/T//ccP3TrUk.s 			page 3


 115 0066 FFF7FEFF 		bl	chThdSleep
 116              	.LVL7:
 117              		.loc 1 269 0
 118 006a 0023     		movs	r3, #0
 119 006c A4F85430 		strh	r3, [r4, #84]	@ movhi
 120 0070 01E0     		b	.L8
 121              	.LVL8:
 122              	.L5:
 123              		.loc 1 274 0
 124 0072 A4F85430 		strh	r3, [r4, #84]	@ movhi
 125              	.LVL9:
 126              	.L8:
 127              		.loc 1 281 0
 128 0076 206E     		ldr	r0, [r4, #96]
 129              		.loc 1 280 0
 130 0078 2369     		ldr	r3, [r4, #16]
 131              		.loc 1 281 0
 132 007a 0268     		ldr	r2, [r0]
 133              		.loc 1 277 0
 134 007c ED68     		ldr	r5, [r5, #12]
 135              		.loc 1 280 0
 136 007e 0133     		adds	r3, r3, #1
 137              		.loc 1 277 0
 138 0080 A565     		str	r5, [r4, #88]
 139              		.loc 1 281 0
 140 0082 F9B2     		uxtb	r1, r7
 141 0084 9268     		ldr	r2, [r2, #8]
 142              		.loc 1 280 0
 143 0086 2361     		str	r3, [r4, #16]
 144              	.LBE29:
 145              	.LBE28:
 146              		.loc 1 283 0
 147 0088 BDE8F041 		pop	{r4, r5, r6, r7, r8, lr}
 148              		.cfi_remember_state
 149              		.cfi_restore 14
 150              		.cfi_restore 8
 151              		.cfi_restore 7
 152              		.cfi_restore 6
 153              		.cfi_restore 5
 154              		.cfi_restore 4
 155              		.cfi_def_cfa_offset 0
 156              	.LVL10:
 157              	.LBB31:
 158              	.LBB30:
 159              		.loc 1 281 0
 160 008c 1047     		bx	r2
 161              	.LVL11:
 162              	.L12:
 163              		.cfi_restore_state
 164              		.loc 1 256 0
 165 008e B4F85430 		ldrh	r3, [r4, #84]
 166 0092 A3EB8203 		sub	r3, r3, r2, lsl #2
 167 0096 1BB2     		sxth	r3, r3
 168              		.loc 1 258 0
 169 0098 002B     		cmp	r3, #0
 170 009a D3DA     		bge	.L7
 171              		.loc 1 263 0
ARM GAS  /var/folders/6q/x_mk5n_j3p7_c40r_2k_78980000gn/T//ccP3TrUk.s 			page 4


 172 009c 0123     		movs	r3, #1
 173 009e A4F85430 		strh	r3, [r4, #84]	@ movhi
 174 00a2 E8E7     		b	.L8
 175              	.L14:
 176              		.align	2
 177              	.L13:
 178 00a4 00000000 		.word	vtlist
 179 00a8 18FCFFFF 		.word	-1000
 180 00ac D34D6210 		.word	274877907
 181              	.LBE30:
 182              	.LBE31:
 183              		.cfi_endproc
 184              	.LFE65:
 185              		.size	vex_printc, .-vex_printc
 186              		.section	.text.vex_prints,"ax",%progbits
 187              		.align	2
 188              		.p2align 4,,15
 189              		.thumb
 190              		.thumb_func
 191              		.type	vex_prints, %function
 192              	vex_prints:
 193              	.LFB66:
 194              		.loc 1 302 0
 195              		.cfi_startproc
 196              		@ args = 0, pretend = 0, frame = 0
 197              		@ frame_needed = 0, uses_anonymous_args = 0
 198              	.LVL12:
 199 0000 2DE9F041 		push	{r4, r5, r6, r7, r8, lr}
 200              		.cfi_def_cfa_offset 24
 201              		.cfi_offset 4, -24
 202              		.cfi_offset 5, -20
 203              		.cfi_offset 6, -16
 204              		.cfi_offset 7, -12
 205              		.cfi_offset 8, -8
 206              		.cfi_offset 14, -4
 207              		.loc 1 305 0
 208 0004 171E     		subs	r7, r2, #0
 209              		.loc 1 302 0
 210 0006 0646     		mov	r6, r0
 211 0008 0D46     		mov	r5, r1
 212              		.loc 1 305 0
 213 000a 3CDD     		ble	.L16
 214              	.LVL13:
 215              	.LBB32:
 216              		.loc 1 308 0 discriminator 1
 217 000c 0878     		ldrb	r0, [r1]	@ zero_extendqisi2
 218              	.LVL14:
 219 000e 90B3     		cbz	r0, .L29
 220              		.loc 1 308 0 is_stmt 0 discriminator 3
 221 0010 0022     		movs	r2, #0
 222              	.LVL15:
 223              	.L18:
 224 0012 11F8014F 		ldrb	r4, [r1, #1]!	@ zero_extendqisi2
 225              	.LVL16:
 226              		.loc 1 309 0 is_stmt 1 discriminator 3
 227 0016 0132     		adds	r2, r2, #1
 228              	.LVL17:
ARM GAS  /var/folders/6q/x_mk5n_j3p7_c40r_2k_78980000gn/T//ccP3TrUk.s 			page 5


 229              		.loc 1 308 0 discriminator 3
 230 0018 002C     		cmp	r4, #0
 231 001a FAD1     		bne	.L18
 232              		.loc 1 310 0
 233 001c 9742     		cmp	r7, r2
 234 001e 2BDC     		bgt	.L17
 235              	.LVL18:
 236              	.L19:
 237              		.loc 1 315 0
 238 0020 13F0020F 		tst	r3, #2
 239 0024 0CBF     		ite	eq
 240 0026 4FF02008 		moveq	r8, #32
 241 002a 4FF03008 		movne	r8, #48
 242              	.LVL19:
 243              	.LBE32:
 244              		.loc 1 317 0
 245 002e 13F00103 		ands	r3, r3, #1
 246              	.LVL20:
 247 0032 23D1     		bne	.L21
 248              		.loc 1 318 0 discriminator 1
 249 0034 002C     		cmp	r4, #0
 250 0036 2746     		mov	r7, r4
 251 0038 35DD     		ble	.L32
 252              	.LVL21:
 253              	.L23:
 254              		.loc 1 319 0 discriminator 2
 255 003a 4146     		mov	r1, r8
 256 003c 3046     		mov	r0, r6
 257 003e FFF7FEFF 		bl	vex_printc
 258              	.LVL22:
 259              		.loc 1 318 0 discriminator 2
 260 0042 013F     		subs	r7, r7, #1
 261              	.LVL23:
 262 0044 F9D1     		bne	.L23
 263 0046 2878     		ldrb	r0, [r5]	@ zero_extendqisi2
 264              	.LVL24:
 265              	.L22:
 266              		.loc 1 323 0
 267 0048 0146     		mov	r1, r0
 268 004a 88B1     		cbz	r0, .L36
 269              	.LVL25:
 270              	.L25:
 271              		.loc 1 324 0 discriminator 2
 272 004c 3046     		mov	r0, r6
 273 004e FFF7FEFF 		bl	vex_printc
 274              	.LVL26:
 275              		.loc 1 323 0 discriminator 2
 276 0052 15F8011F 		ldrb	r1, [r5, #1]!	@ zero_extendqisi2
 277              	.LVL27:
 278              		.loc 1 325 0 discriminator 2
 279 0056 0134     		adds	r4, r4, #1
 280              	.LVL28:
 281              		.loc 1 323 0 discriminator 2
 282 0058 0029     		cmp	r1, #0
 283 005a F7D1     		bne	.L25
 284              	.LVL29:
 285              	.L24:
ARM GAS  /var/folders/6q/x_mk5n_j3p7_c40r_2k_78980000gn/T//ccP3TrUk.s 			page 6


 286              		.loc 1 327 0 discriminator 1
 287 005c 002F     		cmp	r7, #0
 288 005e 07DD     		ble	.L36
 289              		.loc 1 327 0 is_stmt 0 discriminator 2
 290 0060 3D46     		mov	r5, r7
 291              	.LVL30:
 292              	.L27:
 293              		.loc 1 328 0 is_stmt 1 discriminator 2
 294 0062 4146     		mov	r1, r8
 295 0064 3046     		mov	r0, r6
 296 0066 FFF7FEFF 		bl	vex_printc
 297              	.LVL31:
 298              		.loc 1 327 0 discriminator 2
 299 006a 013D     		subs	r5, r5, #1
 300              	.LVL32:
 301 006c F9D1     		bne	.L27
 302 006e 3C44     		add	r4, r4, r7
 303              	.LVL33:
 304              	.L36:
 305              		.loc 1 332 0
 306 0070 2046     		mov	r0, r4
 307 0072 BDE8F081 		pop	{r4, r5, r6, r7, r8, pc}
 308              	.LVL34:
 309              	.L29:
 310              	.LBB33:
 311              		.loc 1 308 0
 312 0076 0246     		mov	r2, r0
 313              	.LVL35:
 314              	.L17:
 315              		.loc 1 313 0
 316 0078 BC1A     		subs	r4, r7, r2
 317              	.LVL36:
 318 007a D1E7     		b	.L19
 319              	.LVL37:
 320              	.L21:
 321              	.LBE33:
 322              		.loc 1 323 0 discriminator 1
 323 007c 0146     		mov	r1, r0
 324 007e 2746     		mov	r7, r4
 325 0080 78B1     		cbz	r0, .L43
 326              	.LVL38:
 327              	.L42:
 328              		.loc 1 303 0
 329 0082 0024     		movs	r4, #0
 330 0084 E2E7     		b	.L25
 331              	.LVL39:
 332              	.L16:
 333              		.loc 1 317 0
 334 0086 13F00104 		ands	r4, r3, #1
 335 008a 06D0     		beq	.L34
 336              		.loc 1 323 0
 337 008c 0978     		ldrb	r1, [r1]	@ zero_extendqisi2
 338              	.LVL40:
 339              		.loc 1 303 0
 340 008e 4FF02008 		mov	r8, #32
 341              		.loc 1 323 0
 342 0092 0029     		cmp	r1, #0
ARM GAS  /var/folders/6q/x_mk5n_j3p7_c40r_2k_78980000gn/T//ccP3TrUk.s 			page 7


 343 0094 F5D1     		bne	.L42
 344              		.loc 1 303 0
 345 0096 0C46     		mov	r4, r1
 346              		.loc 1 331 0
 347 0098 EAE7     		b	.L36
 348              	.LVL41:
 349              	.L34:
 350 009a 2878     		ldrb	r0, [r5]	@ zero_extendqisi2
 351              	.LVL42:
 352              		.loc 1 303 0
 353 009c 4FF02008 		mov	r8, #32
 354 00a0 D2E7     		b	.L22
 355              	.LVL43:
 356              	.L43:
 357 00a2 0446     		mov	r4, r0
 358              	.LVL44:
 359 00a4 DAE7     		b	.L24
 360              	.LVL45:
 361              	.L32:
 362              		.loc 1 318 0
 363 00a6 1C46     		mov	r4, r3
 364              	.LVL46:
 365 00a8 CEE7     		b	.L22
 366              		.cfi_endproc
 367              	.LFE66:
 368              		.size	vex_prints, .-vex_prints
 369 00aa 00BF     		.section	.text.vex_printi,"ax",%progbits
 370              		.align	2
 371              		.p2align 4,,15
 372              		.thumb
 373              		.thumb_func
 374              		.type	vex_printi, %function
 375              	vex_printi:
 376              	.LFB67:
 377              		.loc 1 348 0
 378              		.cfi_startproc
 379              		@ args = 12, pretend = 0, frame = 16
 380              		@ frame_needed = 0, uses_anonymous_args = 0
 381              	.LVL47:
 382 0000 F0B5     		push	{r4, r5, r6, r7, lr}
 383              		.cfi_def_cfa_offset 20
 384              		.cfi_offset 4, -20
 385              		.cfi_offset 5, -16
 386              		.cfi_offset 6, -12
 387              		.cfi_offset 7, -8
 388              		.cfi_offset 14, -4
 389 0002 85B0     		sub	sp, sp, #20
 390              		.cfi_def_cfa_offset 40
 391              		.loc 1 348 0
 392 0004 1646     		mov	r6, r2
 393 0006 0AAA     		add	r2, sp, #40
 394              	.LVL48:
 395 0008 1D46     		mov	r5, r3
 396              	.LVL49:
 397 000a 92E80C40 		ldmia	r2, {r2, r3, lr}
 398              	.LVL50:
 399              		.loc 1 353 0
ARM GAS  /var/folders/6q/x_mk5n_j3p7_c40r_2k_78980000gn/T//ccP3TrUk.s 			page 8


 400 000e 0029     		cmp	r1, #0
 401 0010 4DD0     		beq	.L74
 402 0012 0C46     		mov	r4, r1
 403 0014 0746     		mov	r7, r0
 404              		.loc 1 356 0
 405 0016 3DBB     		cbnz	r5, .L75
 406              	.L46:
 407              		.loc 1 363 0
 408 0018 0020     		movs	r0, #0
 409              	.LVL51:
 410 001a 87F82300 		strb	r0, [r7, #35]
 411              		.loc 1 362 0
 412 001e 07F12305 		add	r5, r7, #35
 413              	.LVL52:
 414              		.loc 1 365 0
 415 0022 8446     		mov	ip, r0
 416 0024 79B3     		cbz	r1, .L50
 417              	.LVL53:
 418              	.L53:
 419              		.loc 1 369 0
 420 0026 AEF13A00 		sub	r0, lr, #58
 421              	.L49:
 422              		.loc 1 367 0
 423 002a B4FBF6F1 		udiv	r1, r4, r6
 424 002e 06FB1144 		mls	r4, r6, r1, r4
 425              	.LVL54:
 426              		.loc 1 368 0
 427 0032 092C     		cmp	r4, #9
 428              		.loc 1 369 0
 429 0034 C8BF     		it	gt
 430 0036 2418     		addgt	r4, r4, r0
 431              	.LVL55:
 432              		.loc 1 370 0
 433 0038 3034     		adds	r4, r4, #48
 434              	.LVL56:
 435 003a 05F8014D 		strb	r4, [r5, #-1]!
 436              	.LVL57:
 437              		.loc 1 371 0
 438 003e 0C46     		mov	r4, r1
 439              	.LVL58:
 440              		.loc 1 365 0
 441 0040 0029     		cmp	r1, #0
 442 0042 F2D1     		bne	.L49
 443              		.loc 1 374 0
 444 0044 BCF1000F 		cmp	ip, #0
 445 0048 1DD0     		beq	.L50
 446              	.LVL59:
 447              	.L47:
 448              		.loc 1 376 0
 449 004a 22B3     		cbz	r2, .L51
 450              		.loc 1 376 0 is_stmt 0 discriminator 1
 451 004c 9907     		lsls	r1, r3, #30
 452 004e 22D5     		bpl	.L51
 453              		.loc 1 380 0 is_stmt 1
 454 0050 013A     		subs	r2, r2, #1
 455              		.loc 1 378 0
 456 0052 2D21     		movs	r1, #45
ARM GAS  /var/folders/6q/x_mk5n_j3p7_c40r_2k_78980000gn/T//ccP3TrUk.s 			page 9


 457 0054 3846     		mov	r0, r7
 458 0056 0293     		str	r3, [sp, #8]
 459              		.loc 1 380 0
 460 0058 0192     		str	r2, [sp, #4]
 461 005a 0392     		str	r2, [sp, #12]
 462              		.loc 1 379 0
 463 005c 0124     		movs	r4, #1
 464              	.LVL60:
 465              		.loc 1 378 0
 466 005e FFF7FEFF 		bl	vex_printc
 467              	.LVL61:
 468              		.loc 1 380 0
 469 0062 019A     		ldr	r2, [sp, #4]
 470 0064 029B     		ldr	r3, [sp, #8]
 471 0066 1BE0     		b	.L52
 472              	.LVL62:
 473              	.L75:
 474              		.loc 1 356 0 discriminator 1
 475 0068 0A2E     		cmp	r6, #10
 476 006a D5D1     		bne	.L46
 477              		.loc 1 356 0 is_stmt 0 discriminator 2
 478 006c 0029     		cmp	r1, #0
 479 006e D3DA     		bge	.L46
 480              	.LVL63:
 481              		.loc 1 359 0 is_stmt 1
 482 0070 4C42     		negs	r4, r1
 483              	.LVL64:
 484              		.loc 1 363 0
 485 0072 0021     		movs	r1, #0
 486              	.LVL65:
 487 0074 80F82310 		strb	r1, [r0, #35]
 488              		.loc 1 362 0
 489 0078 00F12305 		add	r5, r0, #35
 490              	.LVL66:
 491              		.loc 1 365 0
 492 007c 002C     		cmp	r4, #0
 493 007e E4D0     		beq	.L47
 494              		.loc 1 358 0
 495 0080 4FF0010C 		mov	ip, #1
 496 0084 CFE7     		b	.L53
 497              	.LVL67:
 498              	.L50:
 499              		.loc 1 389 0
 500 0086 B868     		ldr	r0, [r7, #8]
 501 0088 B8B1     		cbz	r0, .L54
 502              	.LVL68:
 503              		.loc 1 390 0
 504 008a 2B21     		movs	r1, #43
 505              	.LVL69:
 506 008c 05F8011C 		strb	r1, [r5, #-1]
 507              	.LVL70:
 508              		.loc 1 350 0
 509 0090 0024     		movs	r4, #0
 510              	.LVL71:
 511              		.loc 1 390 0
 512 0092 013D     		subs	r5, r5, #1
 513              	.LVL72:
ARM GAS  /var/folders/6q/x_mk5n_j3p7_c40r_2k_78980000gn/T//ccP3TrUk.s 			page 10


 514 0094 04E0     		b	.L52
 515              	.LVL73:
 516              	.L51:
 517              		.loc 1 384 0
 518 0096 2D21     		movs	r1, #45
 519 0098 05F8011C 		strb	r1, [r5, #-1]
 520              	.LVL74:
 521              		.loc 1 350 0
 522 009c 0024     		movs	r4, #0
 523              	.LVL75:
 524              		.loc 1 384 0
 525 009e 013D     		subs	r5, r5, #1
 526              	.LVL76:
 527              	.L52:
 528              		.loc 1 394 0
 529 00a0 2946     		mov	r1, r5
 530 00a2 3846     		mov	r0, r7
 531 00a4 FFF7FEFF 		bl	vex_prints
 532              	.LVL77:
 533 00a8 2044     		add	r0, r0, r4
 534              		.loc 1 395 0
 535 00aa 05B0     		add	sp, sp, #20
 536              		.cfi_remember_state
 537              		.cfi_def_cfa_offset 20
 538              		@ sp needed
 539 00ac F0BD     		pop	{r4, r5, r6, r7, pc}
 540              	.LVL78:
 541              	.L74:
 542              		.cfi_restore_state
 543              		.loc 1 354 0
 544 00ae 0449     		ldr	r1, .L76
 545              	.LVL79:
 546              		.loc 1 395 0
 547 00b0 05B0     		add	sp, sp, #20
 548              		.cfi_remember_state
 549              		.cfi_def_cfa_offset 20
 550              		@ sp needed
 551 00b2 BDE8F040 		pop	{r4, r5, r6, r7, lr}
 552              		.cfi_restore 14
 553              		.cfi_restore 7
 554              		.cfi_restore 6
 555              		.cfi_restore 5
 556              		.cfi_restore 4
 557              		.cfi_def_cfa_offset 0
 558              	.LVL80:
 559              		.loc 1 354 0
 560 00b6 FFF7FEBF 		b	vex_prints
 561              	.LVL81:
 562              	.L54:
 563              		.cfi_restore_state
 564              		.loc 1 350 0
 565 00ba 0446     		mov	r4, r0
 566 00bc F0E7     		b	.L52
 567              	.L77:
 568 00be 00BF     		.align	2
 569              	.L76:
 570 00c0 00000000 		.word	.LC0
ARM GAS  /var/folders/6q/x_mk5n_j3p7_c40r_2k_78980000gn/T//ccP3TrUk.s 			page 11


 571              		.cfi_endproc
 572              	.LFE67:
 573              		.size	vex_printi, .-vex_printi
 574              		.global	__aeabi_dcmplt
 575              		.global	__aeabi_dadd
 576              		.global	__aeabi_ui2d
 577              		.global	__aeabi_d2uiz
 578              		.global	__aeabi_dsub
 579              		.global	__aeabi_dmul
 580              		.section	.text.vex_print,"ax",%progbits
 581              		.align	2
 582              		.p2align 4,,15
 583              		.thumb
 584              		.thumb_func
 585              		.type	vex_print, %function
 586              	vex_print:
 587              	.LFB70:
 588              		.loc 1 523 0
 589              		.cfi_startproc
 590              		@ args = 0, pretend = 0, frame = 32
 591              		@ frame_needed = 0, uses_anonymous_args = 0
 592              	.LVL82:
 593 0000 2DE9F04F 		push	{r4, r5, r6, r7, r8, r9, r10, fp, lr}
 594              		.cfi_def_cfa_offset 36
 595              		.cfi_offset 4, -36
 596              		.cfi_offset 5, -32
 597              		.cfi_offset 6, -28
 598              		.cfi_offset 7, -24
 599              		.cfi_offset 8, -20
 600              		.cfi_offset 9, -16
 601              		.cfi_offset 10, -12
 602              		.cfi_offset 11, -8
 603              		.cfi_offset 14, -4
 604              		.loc 1 530 0
 605 0004 0023     		movs	r3, #0
 606 0006 8360     		str	r3, [r0, #8]
 607              		.loc 1 531 0
 608 0008 0361     		str	r3, [r0, #16]
 609              		.loc 1 523 0
 610 000a 8246     		mov	r10, r0
 611              		.loc 1 533 0
 612 000c 0878     		ldrb	r0, [r1]	@ zero_extendqisi2
 613              	.LVL83:
 614              		.loc 1 523 0
 615 000e 8DB0     		sub	sp, sp, #52
 616              		.cfi_def_cfa_offset 88
 617              		.loc 1 533 0
 618 0010 0028     		cmp	r0, #0
 619 0012 00F0D481 		beq	.L124
 620 0016 0D46     		mov	r5, r1
 621 0018 9146     		mov	r9, r2
 622 001a 9B46     		mov	fp, r3
 623              	.LVL84:
 624              	.L122:
 625              		.loc 1 535 0
 626 001c 2528     		cmp	r0, #37
 627 001e 40F07C81 		bne	.L80
ARM GAS  /var/folders/6q/x_mk5n_j3p7_c40r_2k_78980000gn/T//ccP3TrUk.s 			page 12


 628              	.LVL85:
 629              		.loc 1 541 0
 630 0022 6B78     		ldrb	r3, [r5, #1]	@ zero_extendqisi2
 631              		.loc 1 538 0
 632 0024 6C1C     		adds	r4, r5, #1
 633              	.LVL86:
 634              		.loc 1 541 0
 635 0026 002B     		cmp	r3, #0
 636 0028 5DD0     		beq	.L79
 637              		.loc 1 543 0
 638 002a 252B     		cmp	r3, #37
 639 002c 00F0A181 		beq	.L125
 640              		.loc 1 545 0
 641 0030 2D2B     		cmp	r3, #45
 642 0032 03BF     		ittte	eq
 643 0034 AB78     		ldrbeq	r3, [r5, #2]	@ zero_extendqisi2
 644              		.loc 1 546 0
 645 0036 AC1C     		addeq	r4, r5, #2
 646              	.LVL87:
 647              		.loc 1 547 0
 648 0038 0126     		moveq	r6, #1
 649              		.loc 1 539 0
 650 003a 0026     		movne	r6, #0
 651              	.LVL88:
 652              		.loc 1 549 0
 653 003c 2B2B     		cmp	r3, #43
 654 003e 04D1     		bne	.L164
 655 0040 99E1     		b	.L168
 656              	.LVL89:
 657              	.L85:
 658              		.loc 1 553 0
 659 0042 14F8013F 		ldrb	r3, [r4, #1]!	@ zero_extendqisi2
 660              	.LVL90:
 661              		.loc 1 555 0
 662 0046 46F00206 		orr	r6, r6, #2
 663              	.LVL91:
 664              	.L164:
 665              		.loc 1 553 0
 666 004a 302B     		cmp	r3, #48
 667 004c F9D0     		beq	.L85
 668              	.LVL92:
 669              		.loc 1 559 0
 670 004e 2E2B     		cmp	r3, #46
 671 0050 00F06B81 		beq	.L86
 672              		.loc 1 559 0 is_stmt 0 discriminator 1
 673 0054 A3F13002 		sub	r2, r3, #48
 674              	.LVL93:
 675 0058 D2B2     		uxtb	r2, r2
 676 005a 092A     		cmp	r2, #9
 677 005c 40F26581 		bls	.L86
 678              		.loc 1 537 0 is_stmt 1
 679 0060 0622     		movs	r2, #6
 680 0062 0492     		str	r2, [sp, #16]
 681              		.loc 1 539 0
 682 0064 0027     		movs	r7, #0
 683              	.LVL94:
 684              	.L87:
ARM GAS  /var/folders/6q/x_mk5n_j3p7_c40r_2k_78980000gn/T//ccP3TrUk.s 			page 13


 685              		.loc 1 591 0
 686 0066 6C2B     		cmp	r3, #108
 687 0068 04BF     		itt	eq
 688 006a 6378     		ldrbeq	r3, [r4, #1]	@ zero_extendqisi2
 689              		.loc 1 592 0
 690 006c 0134     		addeq	r4, r4, #1
 691              	.LVL95:
 692              		.loc 1 593 0
 693 006e 583B     		subs	r3, r3, #88
 694 0070 202B     		cmp	r3, #32
 695 0072 00F24681 		bhi	.L93
 696 0076 DFE813F0 		tbh	[pc, r3, lsl #1]
 697              	.L95:
 698 007a 4001     		.2byte	(.L94-.L95)/2
 699 007c 4401     		.2byte	(.L93-.L95)/2
 700 007e 4401     		.2byte	(.L93-.L95)/2
 701 0080 4401     		.2byte	(.L93-.L95)/2
 702 0082 4401     		.2byte	(.L93-.L95)/2
 703 0084 4401     		.2byte	(.L93-.L95)/2
 704 0086 4401     		.2byte	(.L93-.L95)/2
 705 0088 4401     		.2byte	(.L93-.L95)/2
 706 008a 4401     		.2byte	(.L93-.L95)/2
 707 008c 4401     		.2byte	(.L93-.L95)/2
 708 008e 4401     		.2byte	(.L93-.L95)/2
 709 0090 2D01     		.2byte	(.L96-.L95)/2
 710 0092 1C01     		.2byte	(.L97-.L95)/2
 711 0094 4401     		.2byte	(.L93-.L95)/2
 712 0096 5400     		.2byte	(.L98-.L95)/2
 713 0098 4401     		.2byte	(.L93-.L95)/2
 714 009a 4401     		.2byte	(.L93-.L95)/2
 715 009c 4401     		.2byte	(.L93-.L95)/2
 716 009e 4401     		.2byte	(.L93-.L95)/2
 717 00a0 4401     		.2byte	(.L93-.L95)/2
 718 00a2 4401     		.2byte	(.L93-.L95)/2
 719 00a4 4401     		.2byte	(.L93-.L95)/2
 720 00a6 4401     		.2byte	(.L93-.L95)/2
 721 00a8 4401     		.2byte	(.L93-.L95)/2
 722 00aa 2501     		.2byte	(.L99-.L95)/2
 723 00ac 4401     		.2byte	(.L93-.L95)/2
 724 00ae 4401     		.2byte	(.L93-.L95)/2
 725 00b0 4200     		.2byte	(.L100-.L95)/2
 726 00b2 4401     		.2byte	(.L93-.L95)/2
 727 00b4 2501     		.2byte	(.L99-.L95)/2
 728 00b6 4401     		.2byte	(.L93-.L95)/2
 729 00b8 4401     		.2byte	(.L93-.L95)/2
 730 00ba 2100     		.2byte	(.L101-.L95)/2
 731              		.p2align 1
 732              	.L101:
 733              		.loc 1 607 0
 734 00bc D9F80010 		ldr	r1, [r9]
 735 00c0 6123     		movs	r3, #97
 736              	.L167:
 737              		.loc 1 611 0
 738 00c2 0293     		str	r3, [sp, #8]
 739 00c4 0196     		str	r6, [sp, #4]
 740 00c6 0097     		str	r7, [sp]
 741 00c8 0023     		movs	r3, #0
ARM GAS  /var/folders/6q/x_mk5n_j3p7_c40r_2k_78980000gn/T//ccP3TrUk.s 			page 14


 742 00ca 1022     		movs	r2, #16
 743              	.L166:
 744              		.loc 1 616 0
 745 00cc 5046     		mov	r0, r10
 746 00ce FFF7FEFF 		bl	vex_printi
 747              	.LVL96:
 748              		.loc 1 617 0
 749 00d2 0023     		movs	r3, #0
 750              		.loc 1 616 0
 751 00d4 09F10409 		add	r9, r9, #4
 752 00d8 8344     		add	fp, fp, r0
 753              	.LVL97:
 754              		.loc 1 617 0
 755 00da CAF80830 		str	r3, [r10, #8]
 756              	.LVL98:
 757              	.L103:
 758              		.loc 1 533 0
 759 00de 6078     		ldrb	r0, [r4, #1]	@ zero_extendqisi2
 760 00e0 651C     		adds	r5, r4, #1
 761              	.LVL99:
 762 00e2 0028     		cmp	r0, #0
 763 00e4 9AD1     		bne	.L122
 764              	.LVL100:
 765              	.L79:
 766              		.loc 1 649 0
 767 00e6 DAF80430 		ldr	r3, [r10, #4]
 768 00ea 13B1     		cbz	r3, .L123
 769              		.loc 1 650 0
 770 00ec 1B68     		ldr	r3, [r3]
 771 00ee 0022     		movs	r2, #0
 772              	.LVL101:
 773 00f0 1A70     		strb	r2, [r3]
 774              	.LVL102:
 775              	.L123:
 776              	.LBB41:
 777              	.LBB42:
 778              		.loc 1 210 0
 779 00f2 FFF7FEFF 		bl	chMtxUnlock
 780              	.LVL103:
 781              	.LBE42:
 782              	.LBE41:
 783              		.loc 1 656 0
 784 00f6 5846     		mov	r0, fp
 785 00f8 0DB0     		add	sp, sp, #52
 786              		.cfi_remember_state
 787              		.cfi_def_cfa_offset 36
 788              		@ sp needed
 789 00fa BDE8F08F 		pop	{r4, r5, r6, r7, r8, r9, r10, fp, pc}
 790              	.LVL104:
 791              	.L100:
 792              		.cfi_restore_state
 793              	.LBB43:
 794              		.loc 1 597 0
 795 00fe D9F80010 		ldr	r1, [r9]
 796              		.loc 1 598 0
 797 0102 B148     		ldr	r0, .L172
 798 0104 3346     		mov	r3, r6
ARM GAS  /var/folders/6q/x_mk5n_j3p7_c40r_2k_78980000gn/T//ccP3TrUk.s 			page 15


 799 0106 0029     		cmp	r1, #0
 800 0108 08BF     		it	eq
 801 010a 0146     		moveq	r1, r0
 802 010c 3A46     		mov	r2, r7
 803 010e 5046     		mov	r0, r10
 804 0110 FFF7FEFF 		bl	vex_prints
 805              	.LVL105:
 806              		.loc 1 599 0
 807 0114 0023     		movs	r3, #0
 808              		.loc 1 597 0
 809 0116 09F10409 		add	r9, r9, #4
 810              	.LVL106:
 811              		.loc 1 598 0
 812 011a 8344     		add	fp, fp, r0
 813              	.LVL107:
 814              		.loc 1 599 0
 815 011c CAF80830 		str	r3, [r10, #8]
 816              	.LBE43:
 817              		.loc 1 601 0
 818 0120 DDE7     		b	.L103
 819              	.L98:
 820              		.loc 1 629 0
 821 0122 09F10709 		add	r9, r9, #7
 822 0126 29F00709 		bic	r9, r9, #7
 823 012a D9F80030 		ldr	r3, [r9]
 824              	.LBB44:
 825              	.LBB45:
 826              	.LBB46:
 827              	.LBB47:
 828              		.loc 1 413 0
 829 012e 0022     		movs	r2, #0
 830              	.LBE47:
 831              	.LBE46:
 832              	.LBE45:
 833              	.LBE44:
 834              		.loc 1 629 0
 835 0130 0693     		str	r3, [sp, #24]
 836              	.LBB62:
 837              	.LBB58:
 838              	.LBB53:
 839              	.LBB48:
 840              		.loc 1 413 0
 841 0132 1846     		mov	r0, r3
 842              	.LBE48:
 843              	.LBE53:
 844              	.LBE58:
 845              	.LBE62:
 846              		.loc 1 629 0
 847 0134 D9F80430 		ldr	r3, [r9, #4]
 848 0138 09F10809 		add	r9, r9, #8
 849              	.LVL108:
 850 013c 1D46     		mov	r5, r3
 851 013e 0593     		str	r3, [sp, #20]
 852              	.LVL109:
 853              	.LBB63:
 854              	.LBB59:
 855              	.LBB54:
ARM GAS  /var/folders/6q/x_mk5n_j3p7_c40r_2k_78980000gn/T//ccP3TrUk.s 			page 16


 856              	.LBB49:
 857              		.loc 1 413 0
 858 0140 2946     		mov	r1, r5
 859 0142 0023     		movs	r3, #0
 860              		.loc 1 410 0
 861 0144 0AF12405 		add	r5, r10, #36
 862 0148 0795     		str	r5, [sp, #28]
 863              	.LVL110:
 864              		.loc 1 413 0
 865 014a FFF7FEFF 		bl	__aeabi_dcmplt
 866              	.LVL111:
 867 014e 0028     		cmp	r0, #0
 868 0150 40F02081 		bne	.L169
 869              		.loc 1 417 0
 870 0154 DAF80830 		ldr	r3, [r10, #8]
 871 0158 002B     		cmp	r3, #0
 872 015a 00F01881 		beq	.L131
 873              		.loc 1 418 0
 874 015e 2B23     		movs	r3, #43
 875 0160 8AF82430 		strb	r3, [r10, #36]
 876 0164 0AF12508 		add	r8, r10, #37
 877              	.LVL112:
 878              	.L106:
 879              		.loc 1 423 0
 880 0168 049D     		ldr	r5, [sp, #16]
 881 016a 072D     		cmp	r5, #7
 882 016c 0DD8     		bhi	.L107
 883              		.loc 1 424 0
 884 016e 974B     		ldr	r3, .L172+4
 885 0170 0698     		ldr	r0, [sp, #24]
 886 0172 03EBC503 		add	r3, r3, r5, lsl #3
 887 0176 0599     		ldr	r1, [sp, #20]
 888 0178 D3E90023 		ldrd	r2, [r3]
 889 017c FFF7FEFF 		bl	__aeabi_dadd
 890              	.LVL113:
 891 0180 0690     		str	r0, [sp, #24]
 892              	.LVL114:
 893 0182 0591     		str	r1, [sp, #20]
 894              	.LVL115:
 895              		.loc 1 430 0
 896 0184 002D     		cmp	r5, #0
 897 0186 00F01581 		beq	.L132
 898              	.LVL116:
 899              	.L107:
 900              		.loc 1 410 0
 901 018a 049D     		ldr	r5, [sp, #16]
 902 018c 0023     		movs	r3, #0
 903 018e 0120     		movs	r0, #1
 904              	.LVL117:
 905              	.L109:
 906              		.loc 1 430 0
 907 0190 0133     		adds	r3, r3, #1
 908              	.LVL118:
 909 0192 9BB2     		uxth	r3, r3
 910              		.loc 1 431 0
 911 0194 00EB8000 		add	r0, r0, r0, lsl #2
 912              	.LVL119:
ARM GAS  /var/folders/6q/x_mk5n_j3p7_c40r_2k_78980000gn/T//ccP3TrUk.s 			page 17


 913              		.loc 1 430 0
 914 0198 9D42     		cmp	r5, r3
 915              		.loc 1 431 0
 916 019a 4FEA4000 		lsl	r0, r0, #1
 917              	.LVL120:
 918              		.loc 1 430 0
 919 019e F7D8     		bhi	.L109
 920 01a0 0495     		str	r5, [sp, #16]
 921              	.LVL121:
 922 01a2 FFF7FEFF 		bl	__aeabi_ui2d
 923              	.LVL122:
 924 01a6 CDE90801 		strd	r0, [sp, #32]
 925              	.LVL123:
 926              	.L108:
 927              		.loc 1 433 0
 928 01aa 0698     		ldr	r0, [sp, #24]
 929 01ac 0599     		ldr	r1, [sp, #20]
 930 01ae FFF7FEFF 		bl	__aeabi_d2uiz
 931              	.LVL124:
 932              		.loc 1 439 0
 933 01b2 0028     		cmp	r0, #0
 934 01b4 00F0E580 		beq	.L113
 935 01b8 0346     		mov	r3, r0
 936 01ba 049D     		ldr	r5, [sp, #16]
 937 01bc 0022     		movs	r2, #0
 938              	.LVL125:
 939              	.L112:
 940              		.loc 1 440 0
 941 01be 8449     		ldr	r1, .L172+8
 942 01c0 0AEB020C 		add	ip, r10, r2
 943 01c4 A1FB03E1 		umull	lr, r1, r1, r3
 944 01c8 C908     		lsrs	r1, r1, #3
 945 01ca 01EB810E 		add	lr, r1, r1, lsl #2
 946 01ce A3EB4E03 		sub	r3, r3, lr, lsl #1
 947              	.LVL126:
 948 01d2 3033     		adds	r3, r3, #48
 949 01d4 02F1010E 		add	lr, r2, #1
 950 01d8 8CF81430 		strb	r3, [ip, #20]
 951 01dc 1FFA8EF2 		uxth	r2, lr
 952              	.LVL127:
 953              		.loc 1 439 0
 954 01e0 0B46     		mov	r3, r1
 955 01e2 0029     		cmp	r1, #0
 956 01e4 EBD1     		bne	.L112
 957 01e6 0495     		str	r5, [sp, #16]
 958              		.loc 1 445 0
 959 01e8 002A     		cmp	r2, #0
 960 01ea 00F0CA80 		beq	.L113
 961 01ee 4346     		mov	r3, r8
 962              	.LVL128:
 963              	.L114:
 964              		.loc 1 449 0
 965 01f0 0AEB0201 		add	r1, r10, r2
 966 01f4 C97C     		ldrb	r1, [r1, #19]	@ zero_extendqisi2
 967              		.loc 1 450 0
 968 01f6 013A     		subs	r2, r2, #1
 969              	.LVL129:
ARM GAS  /var/folders/6q/x_mk5n_j3p7_c40r_2k_78980000gn/T//ccP3TrUk.s 			page 18


 970 01f8 92B2     		uxth	r2, r2
 971              	.LVL130:
 972              		.loc 1 449 0
 973 01fa 03F8011B 		strb	r1, [r3], #1
 974              	.LVL131:
 975              		.loc 1 448 0
 976 01fe 002A     		cmp	r2, #0
 977 0200 F6D1     		bne	.L114
 978 0202 0495     		str	r5, [sp, #16]
 979 0204 F044     		add	r8, r8, lr
 980              	.LVL132:
 981              	.L111:
 982              		.loc 1 455 0
 983 0206 049D     		ldr	r5, [sp, #16]
 984 0208 002D     		cmp	r5, #0
 985 020a 46D0     		beq	.L115
 986              		.loc 1 434 0
 987 020c FFF7FEFF 		bl	__aeabi_ui2d
 988              	.LVL133:
 989 0210 0246     		mov	r2, r0
 990 0212 0B46     		mov	r3, r1
 991 0214 0698     		ldr	r0, [sp, #24]
 992 0216 0599     		ldr	r1, [sp, #20]
 993 0218 FFF7FEFF 		bl	__aeabi_dsub
 994              	.LVL134:
 995 021c DDE90823 		ldrd	r2, [sp, #32]
 996 0220 FFF7FEFF 		bl	__aeabi_dmul
 997              	.LVL135:
 998 0224 FFF7FEFF 		bl	__aeabi_d2uiz
 999              	.LVL136:
 1000              		.loc 1 457 0
 1001 0228 2E23     		movs	r3, #46
 1002 022a 88F80030 		strb	r3, [r8]
 1003              	.LVL137:
 1004              		.loc 1 462 0
 1005 022e 0028     		cmp	r0, #0
 1006 0230 00F0C780 		beq	.L134
 1007 0234 0022     		movs	r2, #0
 1008              	.LVL138:
 1009              	.L117:
 1010              		.loc 1 463 0
 1011 0236 664B     		ldr	r3, .L172+8
 1012 0238 A3FB0031 		umull	r3, r1, r3, r0
 1013 023c C908     		lsrs	r1, r1, #3
 1014 023e 01EB8103 		add	r3, r1, r1, lsl #2
 1015 0242 A0EB4300 		sub	r0, r0, r3, lsl #1
 1016              	.LVL139:
 1017 0246 531C     		adds	r3, r2, #1
 1018 0248 3030     		adds	r0, r0, #48
 1019 024a 5244     		add	r2, r2, r10
 1020              	.LVL140:
 1021 024c 9BB2     		uxth	r3, r3
 1022              	.LVL141:
 1023 024e 1075     		strb	r0, [r2, #20]
 1024 0250 1A46     		mov	r2, r3
 1025              		.loc 1 462 0
 1026 0252 0846     		mov	r0, r1
ARM GAS  /var/folders/6q/x_mk5n_j3p7_c40r_2k_78980000gn/T//ccP3TrUk.s 			page 19


 1027 0254 0029     		cmp	r1, #0
 1028 0256 EED1     		bne	.L117
 1029              		.loc 1 469 0
 1030 0258 9D42     		cmp	r5, r3
 1031 025a 0495     		str	r5, [sp, #16]
 1032 025c 09D9     		bls	.L118
 1033              	.LVL142:
 1034              	.L116:
 1035              		.loc 1 470 0
 1036 025e 049D     		ldr	r5, [sp, #16]
 1037 0260 3020     		movs	r0, #48
 1038              	.L119:
 1039              	.LVL143:
 1040 0262 5A1C     		adds	r2, r3, #1
 1041 0264 92B2     		uxth	r2, r2
 1042              	.LVL144:
 1043 0266 0AEB0301 		add	r1, r10, r3
 1044              		.loc 1 469 0
 1045 026a 9542     		cmp	r5, r2
 1046              		.loc 1 470 0
 1047 026c 1346     		mov	r3, r2
 1048 026e 0875     		strb	r0, [r1, #20]
 1049              		.loc 1 469 0
 1050 0270 F7D8     		bhi	.L119
 1051              	.LVL145:
 1052              	.L118:
 1053              		.loc 1 474 0
 1054 0272 002A     		cmp	r2, #0
 1055 0274 00F09880 		beq	.L170
 1056              		.loc 1 457 0
 1057 0278 08F10108 		add	r8, r8, #1
 1058              	.LVL146:
 1059 027c 4146     		mov	r1, r8
 1060 027e 1346     		mov	r3, r2
 1061              	.LVL147:
 1062              	.L121:
 1063              		.loc 1 478 0
 1064 0280 0AEB0300 		add	r0, r10, r3
 1065 0284 C07C     		ldrb	r0, [r0, #19]	@ zero_extendqisi2
 1066              		.loc 1 479 0
 1067 0286 013B     		subs	r3, r3, #1
 1068              	.LVL148:
 1069 0288 9BB2     		uxth	r3, r3
 1070              	.LVL149:
 1071              		.loc 1 478 0
 1072 028a 01F8010B 		strb	r0, [r1], #1
 1073              	.LVL150:
 1074              		.loc 1 477 0
 1075 028e 002B     		cmp	r3, #0
 1076 0290 F6D1     		bne	.L121
 1077 0292 531E     		subs	r3, r2, #1
 1078              	.LVL151:
 1079 0294 9BB2     		uxth	r3, r3
 1080 0296 0133     		adds	r3, r3, #1
 1081 0298 9844     		add	r8, r8, r3
 1082              	.LVL152:
 1083              	.L115:
ARM GAS  /var/folders/6q/x_mk5n_j3p7_c40r_2k_78980000gn/T//ccP3TrUk.s 			page 20


 1084              		.loc 1 485 0
 1085 029a 0025     		movs	r5, #0
 1086              	.LBE49:
 1087              	.LBE54:
 1088              		.loc 1 507 0
 1089 029c 3346     		mov	r3, r6
 1090 029e 3A46     		mov	r2, r7
 1091 02a0 0799     		ldr	r1, [sp, #28]
 1092              	.LBB55:
 1093              	.LBB50:
 1094              		.loc 1 485 0
 1095 02a2 88F80050 		strb	r5, [r8]
 1096              	.LVL153:
 1097              	.LBE50:
 1098              	.LBE55:
 1099              		.loc 1 507 0
 1100 02a6 5046     		mov	r0, r10
 1101 02a8 FFF7FEFF 		bl	vex_prints
 1102              	.LVL154:
 1103              	.LBE59:
 1104              	.LBE63:
 1105              		.loc 1 630 0
 1106 02ac CAF80850 		str	r5, [r10, #8]
 1107              		.loc 1 632 0
 1108 02b0 15E7     		b	.L103
 1109              	.LVL155:
 1110              	.L97:
 1111              		.loc 1 603 0
 1112 02b2 6123     		movs	r3, #97
 1113 02b4 D9F80010 		ldr	r1, [r9]
 1114 02b8 0293     		str	r3, [sp, #8]
 1115 02ba 0196     		str	r6, [sp, #4]
 1116 02bc 0097     		str	r7, [sp]
 1117 02be 0123     		movs	r3, #1
 1118              	.L165:
 1119              		.loc 1 616 0
 1120 02c0 0A22     		movs	r2, #10
 1121 02c2 03E7     		b	.L166
 1122              	.L99:
 1123 02c4 6123     		movs	r3, #97
 1124 02c6 D9F80010 		ldr	r1, [r9]
 1125 02ca 0293     		str	r3, [sp, #8]
 1126 02cc 0196     		str	r6, [sp, #4]
 1127 02ce 0097     		str	r7, [sp]
 1128 02d0 0023     		movs	r3, #0
 1129 02d2 F5E7     		b	.L165
 1130              	.L96:
 1131              		.loc 1 621 0
 1132 02d4 D9F80050 		ldr	r5, [r9]
 1133              		.loc 1 623 0
 1134 02d8 3346     		mov	r3, r6
 1135 02da 3A46     		mov	r2, r7
 1136              		.loc 1 622 0
 1137 02dc 0026     		movs	r6, #0
 1138              	.LVL156:
 1139              		.loc 1 623 0
 1140 02de 0BA9     		add	r1, sp, #44
ARM GAS  /var/folders/6q/x_mk5n_j3p7_c40r_2k_78980000gn/T//ccP3TrUk.s 			page 21


 1141 02e0 5046     		mov	r0, r10
 1142              		.loc 1 621 0
 1143 02e2 8DF82C50 		strb	r5, [sp, #44]
 1144              		.loc 1 622 0
 1145 02e6 8DF82D60 		strb	r6, [sp, #45]
 1146              		.loc 1 623 0
 1147 02ea FFF7FEFF 		bl	vex_prints
 1148              	.LVL157:
 1149              		.loc 1 621 0
 1150 02ee 09F10409 		add	r9, r9, #4
 1151              		.loc 1 623 0
 1152 02f2 8344     		add	fp, fp, r0
 1153              	.LVL158:
 1154              		.loc 1 624 0
 1155 02f4 CAF80860 		str	r6, [r10, #8]
 1156              		.loc 1 625 0
 1157 02f8 F1E6     		b	.L103
 1158              	.LVL159:
 1159              	.L94:
 1160              		.loc 1 611 0
 1161 02fa D9F80010 		ldr	r1, [r9]
 1162 02fe 4123     		movs	r3, #65
 1163 0300 DFE6     		b	.L167
 1164              	.L93:
 1165              		.loc 1 635 0
 1166 0302 2521     		movs	r1, #37
 1167 0304 5046     		mov	r0, r10
 1168 0306 FFF7FEFF 		bl	vex_printc
 1169              	.LVL160:
 1170              		.loc 1 636 0
 1171 030a 2178     		ldrb	r1, [r4]	@ zero_extendqisi2
 1172 030c 5046     		mov	r0, r10
 1173 030e FFF7FEFF 		bl	vex_printc
 1174              	.LVL161:
 1175              		.loc 1 637 0
 1176 0312 0023     		movs	r3, #0
 1177 0314 CAF80830 		str	r3, [r10, #8]
 1178              		.loc 1 638 0
 1179 0318 E1E6     		b	.L103
 1180              	.LVL162:
 1181              	.L80:
 1182              		.loc 1 535 0
 1183 031a 2C46     		mov	r4, r5
 1184 031c 2978     		ldrb	r1, [r5]	@ zero_extendqisi2
 1185              	.LVL163:
 1186              	.L81:
 1187              		.loc 1 644 0
 1188 031e 5046     		mov	r0, r10
 1189 0320 FFF7FEFF 		bl	vex_printc
 1190              	.LVL164:
 1191              		.loc 1 645 0
 1192 0324 0BF1010B 		add	fp, fp, #1
 1193              	.LVL165:
 1194 0328 D9E6     		b	.L103
 1195              	.LVL166:
 1196              	.L86:
 1197              		.loc 1 565 0
ARM GAS  /var/folders/6q/x_mk5n_j3p7_c40r_2k_78980000gn/T//ccP3TrUk.s 			page 22


 1198 032a 0621     		movs	r1, #6
 1199 032c 0D46     		mov	r5, r1
 1200 032e 3146     		mov	r1, r6
 1201 0330 0027     		movs	r7, #0
 1202 0332 621C     		adds	r2, r4, #1
 1203              	.LVL167:
 1204 0334 3E46     		mov	r6, r7
 1205              	.LVL168:
 1206 0336 8846     		mov	r8, r1
 1207 0338 03E0     		b	.L88
 1208              	.LVL169:
 1209              	.L171:
 1210              		.loc 1 575 0
 1211 033a 00EB4C05 		add	r5, r0, ip, lsl #1
 1212              	.LVL170:
 1213              	.L89:
 1214 033e 12F8013B 		ldrb	r3, [r2], #1	@ zero_extendqisi2
 1215              	.L88:
 1216              		.loc 1 570 0
 1217 0342 A3F13001 		sub	r1, r3, #48
 1218              		.loc 1 563 0
 1219 0346 2E2B     		cmp	r3, #46
 1220              		.loc 1 570 0
 1221 0348 C8B2     		uxtb	r0, r1
 1222 034a 02F1FF34 		add	r4, r2, #-1
 1223              	.LVL171:
 1224              		.loc 1 563 0
 1225 034e 0AD0     		beq	.L129
 1226              		.loc 1 570 0
 1227 0350 0928     		cmp	r0, #9
 1228              		.loc 1 574 0
 1229 0352 05EB850C 		add	ip, r5, r5, lsl #2
 1230              	.LVL172:
 1231              		.loc 1 579 0
 1232 0356 07EB870E 		add	lr, r7, r7, lsl #2
 1233              	.LVL173:
 1234              		.loc 1 570 0
 1235 035a 07D8     		bhi	.L162
 1236              		.loc 1 572 0
 1237 035c 002E     		cmp	r6, #0
 1238 035e ECD1     		bne	.L171
 1239              		.loc 1 580 0
 1240 0360 01EB4E07 		add	r7, r1, lr, lsl #1
 1241              	.LVL174:
 1242 0364 EBE7     		b	.L89
 1243              	.LVL175:
 1244              	.L129:
 1245              		.loc 1 566 0
 1246 0366 0025     		movs	r5, #0
 1247              	.LVL176:
 1248              		.loc 1 565 0
 1249 0368 0126     		movs	r6, #1
 1250              	.LVL177:
 1251 036a E8E7     		b	.L89
 1252              	.LVL178:
 1253              	.L162:
 1254 036c 0495     		str	r5, [sp, #16]
ARM GAS  /var/folders/6q/x_mk5n_j3p7_c40r_2k_78980000gn/T//ccP3TrUk.s 			page 23


 1255 036e 4646     		mov	r6, r8
 1256              	.LVL179:
 1257 0370 79E6     		b	.L87
 1258              	.LVL180:
 1259              	.L125:
 1260 0372 0146     		mov	r1, r0
 1261 0374 D3E7     		b	.L81
 1262              	.LVL181:
 1263              	.L168:
 1264              		.loc 1 551 0
 1265 0376 0123     		movs	r3, #1
 1266 0378 CAF80830 		str	r3, [r10, #8]
 1267 037c 6378     		ldrb	r3, [r4, #1]	@ zero_extendqisi2
 1268              		.loc 1 550 0
 1269 037e 0134     		adds	r4, r4, #1
 1270              	.LVL182:
 1271 0380 63E6     		b	.L164
 1272              	.LVL183:
 1273              	.L113:
 1274              	.LBB64:
 1275              	.LBB60:
 1276              	.LBB56:
 1277              	.LBB51:
 1278              		.loc 1 446 0
 1279 0382 3023     		movs	r3, #48
 1280 0384 88F80030 		strb	r3, [r8]
 1281 0388 08F10108 		add	r8, r8, #1
 1282              	.LVL184:
 1283 038c 3BE7     		b	.L111
 1284              	.LVL185:
 1285              	.L131:
 1286              		.loc 1 410 0
 1287 038e DDF81C80 		ldr	r8, [sp, #28]
 1288 0392 E9E6     		b	.L106
 1289              	.L169:
 1290              		.loc 1 415 0
 1291 0394 059A     		ldr	r2, [sp, #20]
 1292              		.loc 1 414 0
 1293 0396 2D23     		movs	r3, #45
 1294              		.loc 1 415 0
 1295 0398 02F10042 		add	r2, r2, #-2147483648
 1296 039c 0592     		str	r2, [sp, #20]
 1297              		.loc 1 414 0
 1298 039e 8AF82430 		strb	r3, [r10, #36]
 1299 03a2 0AF12508 		add	r8, r10, #37
 1300              	.LVL186:
 1301 03a6 DFE6     		b	.L106
 1302              	.LVL187:
 1303              	.L170:
 1304              		.loc 1 475 0
 1305 03a8 3023     		movs	r3, #48
 1306 03aa 88F80130 		strb	r3, [r8, #1]
 1307 03ae 08F10208 		add	r8, r8, #2
 1308              	.LVL188:
 1309 03b2 72E7     		b	.L115
 1310              	.LVL189:
 1311              	.L132:
ARM GAS  /var/folders/6q/x_mk5n_j3p7_c40r_2k_78980000gn/T//ccP3TrUk.s 			page 24


 1312              		.loc 1 430 0
 1313 03b4 074B     		ldr	r3, .L172+12
 1314 03b6 0022     		movs	r2, #0
 1315 03b8 CDE90823 		strd	r2, [sp, #32]
 1316 03bc F5E6     		b	.L108
 1317              	.LVL190:
 1318              	.L124:
 1319              	.LBE51:
 1320              	.LBE56:
 1321              	.LBE60:
 1322              	.LBE64:
 1323              		.loc 1 527 0
 1324 03be 8346     		mov	fp, r0
 1325 03c0 91E6     		b	.L79
 1326              	.LVL191:
 1327              	.L134:
 1328              	.LBB65:
 1329              	.LBB61:
 1330              	.LBB57:
 1331              	.LBB52:
 1332              		.loc 1 461 0
 1333 03c2 0346     		mov	r3, r0
 1334 03c4 4BE7     		b	.L116
 1335              	.L173:
 1336 03c6 00BF     		.align	2
 1337              	.L172:
 1338 03c8 04000000 		.word	.LC1
 1339 03cc 00000000 		.word	.LANCHOR0
 1340 03d0 CDCCCCCC 		.word	-858993459
 1341 03d4 0000F03F 		.word	1072693248
 1342              	.LBE52:
 1343              	.LBE57:
 1344              	.LBE61:
 1345              	.LBE65:
 1346              		.cfi_endproc
 1347              	.LFE70:
 1348              		.size	vex_print, .-vex_print
 1349              		.section	.text.vex_printf,"ax",%progbits
 1350              		.align	2
 1351              		.p2align 4,,15
 1352              		.global	vex_printf
 1353              		.thumb
 1354              		.thumb_func
 1355              		.type	vex_printf, %function
 1356              	vex_printf:
 1357              	.LFB71:
 1358              		.loc 1 668 0
 1359              		.cfi_startproc
 1360              		@ args = 4, pretend = 16, frame = 8
 1361              		@ frame_needed = 0, uses_anonymous_args = 1
 1362              	.LVL192:
 1363 0000 0FB4     		push	{r0, r1, r2, r3}
 1364              		.cfi_def_cfa_offset 16
 1365              		.cfi_offset 0, -16
 1366              		.cfi_offset 1, -12
 1367              		.cfi_offset 2, -8
 1368              		.cfi_offset 3, -4
ARM GAS  /var/folders/6q/x_mk5n_j3p7_c40r_2k_78980000gn/T//ccP3TrUk.s 			page 25


 1369 0002 F0B5     		push	{r4, r5, r6, r7, lr}
 1370              		.cfi_def_cfa_offset 36
 1371              		.cfi_offset 4, -36
 1372              		.cfi_offset 5, -32
 1373              		.cfi_offset 6, -28
 1374              		.cfi_offset 7, -24
 1375              		.cfi_offset 14, -20
 1376              	.LBB66:
 1377              	.LBB67:
 1378              		.loc 1 177 0
 1379 0004 124C     		ldr	r4, .L179
 1380              	.LBE67:
 1381              	.LBE66:
 1382              		.loc 1 668 0
 1383 0006 83B0     		sub	sp, sp, #12
 1384              		.cfi_def_cfa_offset 48
 1385              	.LBB70:
 1386              	.LBB68:
 1387              		.loc 1 177 0
 1388 0008 2568     		ldr	r5, [r4]
 1389 000a ADB1     		cbz	r5, .L177
 1390 000c 114E     		ldr	r6, .L179+4
 1391              	.L175:
 1392              		.loc 1 193 0
 1393 000e 1248     		ldr	r0, .L179+8
 1394 0010 FFF7FEFF 		bl	chMtxLock
 1395              	.LVL193:
 1396              	.LBE68:
 1397              	.LBE70:
 1398              		.loc 1 677 0
 1399 0014 09AB     		add	r3, sp, #36
 1400              		.loc 1 678 0
 1401 0016 1A46     		mov	r2, r3
 1402              		.loc 1 673 0
 1403 0018 0027     		movs	r7, #0
 1404              		.loc 1 674 0
 1405 001a 4FF0FF35 		mov	r5, #-1
 1406              		.loc 1 678 0
 1407 001e 0899     		ldr	r1, [sp, #32]
 1408 0020 0B48     		ldr	r0, .L179
 1409              		.loc 1 675 0
 1410 0022 2666     		str	r6, [r4, #96]
 1411              		.loc 1 677 0
 1412 0024 0193     		str	r3, [sp, #4]
 1413              		.loc 1 673 0
 1414 0026 6760     		str	r7, [r4, #4]
 1415              		.loc 1 674 0
 1416 0028 E560     		str	r5, [r4, #12]
 1417              		.loc 1 678 0
 1418 002a FFF7FEFF 		bl	vex_print
 1419              	.LVL194:
 1420              		.loc 1 679 0
 1421 002e 03B0     		add	sp, sp, #12
 1422              		.cfi_remember_state
 1423              		.cfi_def_cfa_offset 36
 1424              		@ sp needed
 1425 0030 BDE8F040 		pop	{r4, r5, r6, r7, lr}
ARM GAS  /var/folders/6q/x_mk5n_j3p7_c40r_2k_78980000gn/T//ccP3TrUk.s 			page 26


 1426              		.cfi_restore 14
 1427              		.cfi_restore 7
 1428              		.cfi_restore 6
 1429              		.cfi_restore 5
 1430              		.cfi_restore 4
 1431              		.cfi_def_cfa_offset 16
 1432 0034 04B0     		add	sp, sp, #16
 1433              		.cfi_restore 3
 1434              		.cfi_restore 2
 1435              		.cfi_restore 1
 1436              		.cfi_restore 0
 1437              		.cfi_def_cfa_offset 0
 1438 0036 7047     		bx	lr
 1439              	.LVL195:
 1440              	.L177:
 1441              		.cfi_restore_state
 1442              	.LBB71:
 1443              	.LBB69:
 1444              		.loc 1 179 0
 1445 0038 2046     		mov	r0, r4
 1446 003a 0123     		movs	r3, #1
 1447              		.loc 1 189 0
 1448 003c 054E     		ldr	r6, .L179+4
 1449              		.loc 1 179 0
 1450 003e 40F8443B 		str	r3, [r0], #68
 1451              		.loc 1 182 0
 1452 0042 FFF7FEFF 		bl	chMtxInit
 1453              	.LVL196:
 1454              		.loc 1 187 0
 1455 0046 A4F85450 		strh	r5, [r4, #84]	@ movhi
 1456              		.loc 1 188 0
 1457 004a A565     		str	r5, [r4, #88]
 1458              		.loc 1 189 0
 1459 004c 2666     		str	r6, [r4, #96]
 1460 004e DEE7     		b	.L175
 1461              	.L180:
 1462              		.align	2
 1463              	.L179:
 1464 0050 00000000 		.word	.LANCHOR1
 1465 0054 00000000 		.word	SD1
 1466 0058 44000000 		.word	.LANCHOR1+68
 1467              	.LBE69:
 1468              	.LBE71:
 1469              		.cfi_endproc
 1470              	.LFE71:
 1471              		.size	vex_printf, .-vex_printf
 1472              		.section	.text.vex_chprintf,"ax",%progbits
 1473              		.align	2
 1474              		.p2align 4,,15
 1475              		.global	vex_chprintf
 1476              		.thumb
 1477              		.thumb_func
 1478              		.type	vex_chprintf, %function
 1479              	vex_chprintf:
 1480              	.LFB72:
 1481              		.loc 1 692 0
 1482              		.cfi_startproc
ARM GAS  /var/folders/6q/x_mk5n_j3p7_c40r_2k_78980000gn/T//ccP3TrUk.s 			page 27


 1483              		@ args = 4, pretend = 12, frame = 8
 1484              		@ frame_needed = 0, uses_anonymous_args = 1
 1485              	.LVL197:
 1486 0000 0EB4     		push	{r1, r2, r3}
 1487              		.cfi_def_cfa_offset 12
 1488              		.cfi_offset 1, -12
 1489              		.cfi_offset 2, -8
 1490              		.cfi_offset 3, -4
 1491 0002 F0B5     		push	{r4, r5, r6, r7, lr}
 1492              		.cfi_def_cfa_offset 32
 1493              		.cfi_offset 4, -32
 1494              		.cfi_offset 5, -28
 1495              		.cfi_offset 6, -24
 1496              		.cfi_offset 7, -20
 1497              		.cfi_offset 14, -16
 1498              	.LBB72:
 1499              	.LBB73:
 1500              		.loc 1 177 0
 1501 0004 124C     		ldr	r4, .L184
 1502              	.LBE73:
 1503              	.LBE72:
 1504              		.loc 1 692 0
 1505 0006 82B0     		sub	sp, sp, #8
 1506              		.cfi_def_cfa_offset 40
 1507              	.LBB76:
 1508              	.LBB74:
 1509              		.loc 1 177 0
 1510 0008 2568     		ldr	r5, [r4]
 1511              	.LBE74:
 1512              	.LBE76:
 1513              		.loc 1 692 0
 1514 000a 0746     		mov	r7, r0
 1515              	.LBB77:
 1516              	.LBB75:
 1517              		.loc 1 177 0
 1518 000c 55B9     		cbnz	r5, .L182
 1519              		.loc 1 179 0
 1520 000e 2046     		mov	r0, r4
 1521              	.LVL198:
 1522 0010 0123     		movs	r3, #1
 1523 0012 40F8443B 		str	r3, [r0], #68
 1524              		.loc 1 182 0
 1525 0016 FFF7FEFF 		bl	chMtxInit
 1526              	.LVL199:
 1527              		.loc 1 189 0
 1528 001a 0E4B     		ldr	r3, .L184+4
 1529              		.loc 1 187 0
 1530 001c A4F85450 		strh	r5, [r4, #84]	@ movhi
 1531              		.loc 1 188 0
 1532 0020 A565     		str	r5, [r4, #88]
 1533              		.loc 1 189 0
 1534 0022 2366     		str	r3, [r4, #96]
 1535              	.L182:
 1536              		.loc 1 193 0
 1537 0024 0C48     		ldr	r0, .L184+8
 1538 0026 FFF7FEFF 		bl	chMtxLock
 1539              	.LVL200:
ARM GAS  /var/folders/6q/x_mk5n_j3p7_c40r_2k_78980000gn/T//ccP3TrUk.s 			page 28


 1540              	.LBE75:
 1541              	.LBE77:
 1542              		.loc 1 701 0
 1543 002a 08AB     		add	r3, sp, #32
 1544              		.loc 1 702 0
 1545 002c 1A46     		mov	r2, r3
 1546              		.loc 1 697 0
 1547 002e 0026     		movs	r6, #0
 1548              		.loc 1 698 0
 1549 0030 4FF0FF35 		mov	r5, #-1
 1550              		.loc 1 702 0
 1551 0034 0799     		ldr	r1, [sp, #28]
 1552 0036 0648     		ldr	r0, .L184
 1553              		.loc 1 699 0
 1554 0038 2766     		str	r7, [r4, #96]
 1555              		.loc 1 701 0
 1556 003a 0193     		str	r3, [sp, #4]
 1557              		.loc 1 697 0
 1558 003c 6660     		str	r6, [r4, #4]
 1559              		.loc 1 698 0
 1560 003e E560     		str	r5, [r4, #12]
 1561              		.loc 1 702 0
 1562 0040 FFF7FEFF 		bl	vex_print
 1563              	.LVL201:
 1564              		.loc 1 703 0
 1565 0044 02B0     		add	sp, sp, #8
 1566              		.cfi_def_cfa_offset 32
 1567              		@ sp needed
 1568 0046 BDE8F040 		pop	{r4, r5, r6, r7, lr}
 1569              		.cfi_restore 14
 1570              		.cfi_restore 7
 1571              		.cfi_restore 6
 1572              		.cfi_restore 5
 1573              		.cfi_restore 4
 1574              		.cfi_def_cfa_offset 12
 1575              	.LVL202:
 1576 004a 03B0     		add	sp, sp, #12
 1577              		.cfi_restore 3
 1578              		.cfi_restore 2
 1579              		.cfi_restore 1
 1580              		.cfi_def_cfa_offset 0
 1581 004c 7047     		bx	lr
 1582              	.L185:
 1583 004e 00BF     		.align	2
 1584              	.L184:
 1585 0050 00000000 		.word	.LANCHOR1
 1586 0054 00000000 		.word	SD1
 1587 0058 44000000 		.word	.LANCHOR1+68
 1588              		.cfi_endproc
 1589              	.LFE72:
 1590              		.size	vex_chprintf, .-vex_chprintf
 1591              		.section	.text.vex_vprintf,"ax",%progbits
 1592              		.align	2
 1593              		.p2align 4,,15
 1594              		.global	vex_vprintf
 1595              		.thumb
 1596              		.thumb_func
ARM GAS  /var/folders/6q/x_mk5n_j3p7_c40r_2k_78980000gn/T//ccP3TrUk.s 			page 29


 1597              		.type	vex_vprintf, %function
 1598              	vex_vprintf:
 1599              	.LFB73:
 1600              		.loc 1 716 0
 1601              		.cfi_startproc
 1602              		@ args = 0, pretend = 0, frame = 0
 1603              		@ frame_needed = 0, uses_anonymous_args = 0
 1604              	.LVL203:
 1605 0000 2DE9F041 		push	{r4, r5, r6, r7, r8, lr}
 1606              		.cfi_def_cfa_offset 24
 1607              		.cfi_offset 4, -24
 1608              		.cfi_offset 5, -20
 1609              		.cfi_offset 6, -16
 1610              		.cfi_offset 7, -12
 1611              		.cfi_offset 8, -8
 1612              		.cfi_offset 14, -4
 1613              	.LBB78:
 1614              	.LBB79:
 1615              		.loc 1 177 0
 1616 0004 104C     		ldr	r4, .L191
 1617              	.LBE79:
 1618              	.LBE78:
 1619              		.loc 1 716 0
 1620 0006 0746     		mov	r7, r0
 1621              	.LBB83:
 1622              	.LBB80:
 1623              		.loc 1 177 0
 1624 0008 2568     		ldr	r5, [r4]
 1625              	.LBE80:
 1626              	.LBE83:
 1627              		.loc 1 716 0
 1628 000a 8846     		mov	r8, r1
 1629              	.LBB84:
 1630              	.LBB81:
 1631              		.loc 1 177 0
 1632 000c 85B1     		cbz	r5, .L189
 1633 000e 0F4E     		ldr	r6, .L191+4
 1634              	.LVL204:
 1635              	.L187:
 1636              		.loc 1 193 0
 1637 0010 0F48     		ldr	r0, .L191+8
 1638 0012 FFF7FEFF 		bl	chMtxLock
 1639              	.LVL205:
 1640              	.LBE81:
 1641              	.LBE84:
 1642              		.loc 1 719 0
 1643 0016 0025     		movs	r5, #0
 1644              		.loc 1 720 0
 1645 0018 4FF0FF33 		mov	r3, #-1
 1646              	.LVL206:
 1647              		.loc 1 723 0
 1648 001c 4246     		mov	r2, r8
 1649 001e 3946     		mov	r1, r7
 1650              		.loc 1 721 0
 1651 0020 2666     		str	r6, [r4, #96]
 1652              		.loc 1 719 0
 1653 0022 6560     		str	r5, [r4, #4]
ARM GAS  /var/folders/6q/x_mk5n_j3p7_c40r_2k_78980000gn/T//ccP3TrUk.s 			page 30


 1654              		.loc 1 720 0
 1655 0024 E360     		str	r3, [r4, #12]
 1656              		.loc 1 723 0
 1657 0026 0848     		ldr	r0, .L191
 1658              		.loc 1 724 0
 1659 0028 BDE8F041 		pop	{r4, r5, r6, r7, r8, lr}
 1660              		.cfi_remember_state
 1661              		.cfi_restore 14
 1662              		.cfi_restore 8
 1663              		.cfi_restore 7
 1664              		.cfi_restore 6
 1665              		.cfi_restore 5
 1666              		.cfi_restore 4
 1667              		.cfi_def_cfa_offset 0
 1668              	.LVL207:
 1669              		.loc 1 723 0
 1670 002c FFF7FEBF 		b	vex_print
 1671              	.LVL208:
 1672              	.L189:
 1673              		.cfi_restore_state
 1674              	.LBB85:
 1675              	.LBB82:
 1676              		.loc 1 179 0
 1677 0030 2046     		mov	r0, r4
 1678              	.LVL209:
 1679 0032 0123     		movs	r3, #1
 1680              		.loc 1 189 0
 1681 0034 054E     		ldr	r6, .L191+4
 1682              		.loc 1 179 0
 1683 0036 40F8443B 		str	r3, [r0], #68
 1684              		.loc 1 182 0
 1685 003a FFF7FEFF 		bl	chMtxInit
 1686              	.LVL210:
 1687              		.loc 1 187 0
 1688 003e A4F85450 		strh	r5, [r4, #84]	@ movhi
 1689              		.loc 1 188 0
 1690 0042 A565     		str	r5, [r4, #88]
 1691              		.loc 1 189 0
 1692 0044 2666     		str	r6, [r4, #96]
 1693 0046 E3E7     		b	.L187
 1694              	.L192:
 1695              		.align	2
 1696              	.L191:
 1697 0048 00000000 		.word	.LANCHOR1
 1698 004c 00000000 		.word	SD1
 1699 0050 44000000 		.word	.LANCHOR1+68
 1700              	.LBE82:
 1701              	.LBE85:
 1702              		.cfi_endproc
 1703              	.LFE73:
 1704              		.size	vex_vprintf, .-vex_vprintf
 1705              		.section	.text.vex_vchprintf,"ax",%progbits
 1706              		.align	2
 1707              		.p2align 4,,15
 1708              		.global	vex_vchprintf
 1709              		.thumb
 1710              		.thumb_func
ARM GAS  /var/folders/6q/x_mk5n_j3p7_c40r_2k_78980000gn/T//ccP3TrUk.s 			page 31


 1711              		.type	vex_vchprintf, %function
 1712              	vex_vchprintf:
 1713              	.LFB74:
 1714              		.loc 1 739 0
 1715              		.cfi_startproc
 1716              		@ args = 0, pretend = 0, frame = 0
 1717              		@ frame_needed = 0, uses_anonymous_args = 0
 1718              	.LVL211:
 1719 0000 2DE9F041 		push	{r4, r5, r6, r7, r8, lr}
 1720              		.cfi_def_cfa_offset 24
 1721              		.cfi_offset 4, -24
 1722              		.cfi_offset 5, -20
 1723              		.cfi_offset 6, -16
 1724              		.cfi_offset 7, -12
 1725              		.cfi_offset 8, -8
 1726              		.cfi_offset 14, -4
 1727              	.LBB86:
 1728              	.LBB87:
 1729              		.loc 1 177 0
 1730 0004 104C     		ldr	r4, .L196
 1731              	.LBE87:
 1732              	.LBE86:
 1733              		.loc 1 739 0
 1734 0006 0646     		mov	r6, r0
 1735              	.LBB90:
 1736              	.LBB88:
 1737              		.loc 1 177 0
 1738 0008 2568     		ldr	r5, [r4]
 1739              	.LBE88:
 1740              	.LBE90:
 1741              		.loc 1 739 0
 1742 000a 0F46     		mov	r7, r1
 1743 000c 9046     		mov	r8, r2
 1744              	.LBB91:
 1745              	.LBB89:
 1746              		.loc 1 177 0
 1747 000e 55B9     		cbnz	r5, .L194
 1748              		.loc 1 179 0
 1749 0010 2046     		mov	r0, r4
 1750              	.LVL212:
 1751 0012 0123     		movs	r3, #1
 1752 0014 40F8443B 		str	r3, [r0], #68
 1753              		.loc 1 182 0
 1754 0018 FFF7FEFF 		bl	chMtxInit
 1755              	.LVL213:
 1756              		.loc 1 189 0
 1757 001c 0B4B     		ldr	r3, .L196+4
 1758              		.loc 1 187 0
 1759 001e A4F85450 		strh	r5, [r4, #84]	@ movhi
 1760              		.loc 1 188 0
 1761 0022 A565     		str	r5, [r4, #88]
 1762              		.loc 1 189 0
 1763 0024 2366     		str	r3, [r4, #96]
 1764              	.LVL214:
 1765              	.L194:
 1766              		.loc 1 193 0
 1767 0026 0A48     		ldr	r0, .L196+8
ARM GAS  /var/folders/6q/x_mk5n_j3p7_c40r_2k_78980000gn/T//ccP3TrUk.s 			page 32


 1768 0028 FFF7FEFF 		bl	chMtxLock
 1769              	.LVL215:
 1770              	.LBE89:
 1771              	.LBE91:
 1772              		.loc 1 742 0
 1773 002c 0025     		movs	r5, #0
 1774              		.loc 1 743 0
 1775 002e 4FF0FF33 		mov	r3, #-1
 1776              	.LVL216:
 1777              		.loc 1 746 0
 1778 0032 4246     		mov	r2, r8
 1779 0034 3946     		mov	r1, r7
 1780              		.loc 1 744 0
 1781 0036 2666     		str	r6, [r4, #96]
 1782              		.loc 1 742 0
 1783 0038 6560     		str	r5, [r4, #4]
 1784              		.loc 1 743 0
 1785 003a E360     		str	r3, [r4, #12]
 1786              		.loc 1 746 0
 1787 003c 0248     		ldr	r0, .L196
 1788              		.loc 1 747 0
 1789 003e BDE8F041 		pop	{r4, r5, r6, r7, r8, lr}
 1790              		.cfi_restore 14
 1791              		.cfi_restore 8
 1792              		.cfi_restore 7
 1793              		.cfi_restore 6
 1794              		.cfi_restore 5
 1795              		.cfi_restore 4
 1796              		.cfi_def_cfa_offset 0
 1797              	.LVL217:
 1798              		.loc 1 746 0
 1799 0042 FFF7FEBF 		b	vex_print
 1800              	.LVL218:
 1801              	.L197:
 1802 0046 00BF     		.align	2
 1803              	.L196:
 1804 0048 00000000 		.word	.LANCHOR1
 1805 004c 00000000 		.word	SD1
 1806 0050 44000000 		.word	.LANCHOR1+68
 1807              		.cfi_endproc
 1808              	.LFE74:
 1809              		.size	vex_vchprintf, .-vex_vchprintf
 1810              		.section	.text.vex_sprintf,"ax",%progbits
 1811              		.align	2
 1812              		.p2align 4,,15
 1813              		.global	vex_sprintf
 1814              		.thumb
 1815              		.thumb_func
 1816              		.type	vex_sprintf, %function
 1817              	vex_sprintf:
 1818              	.LFB75:
 1819              		.loc 1 760 0
 1820              		.cfi_startproc
 1821              		@ args = 4, pretend = 12, frame = 16
 1822              		@ frame_needed = 0, uses_anonymous_args = 1
 1823              	.LVL219:
 1824 0000 0EB4     		push	{r1, r2, r3}
ARM GAS  /var/folders/6q/x_mk5n_j3p7_c40r_2k_78980000gn/T//ccP3TrUk.s 			page 33


 1825              		.cfi_def_cfa_offset 12
 1826              		.cfi_offset 1, -12
 1827              		.cfi_offset 2, -8
 1828              		.cfi_offset 3, -4
 1829 0002 70B5     		push	{r4, r5, r6, lr}
 1830              		.cfi_def_cfa_offset 28
 1831              		.cfi_offset 4, -28
 1832              		.cfi_offset 5, -24
 1833              		.cfi_offset 6, -20
 1834              		.cfi_offset 14, -16
 1835              	.LBB92:
 1836              	.LBB93:
 1837              		.loc 1 177 0
 1838 0004 114C     		ldr	r4, .L201
 1839              	.LBE93:
 1840              	.LBE92:
 1841              		.loc 1 760 0
 1842 0006 85B0     		sub	sp, sp, #20
 1843              		.cfi_def_cfa_offset 48
 1844              	.LBB96:
 1845              	.LBB94:
 1846              		.loc 1 177 0
 1847 0008 2568     		ldr	r5, [r4]
 1848              	.LBE94:
 1849              	.LBE96:
 1850              		.loc 1 760 0
 1851 000a 0190     		str	r0, [sp, #4]
 1852              	.LBB97:
 1853              	.LBB95:
 1854              		.loc 1 177 0
 1855 000c 55B9     		cbnz	r5, .L199
 1856              		.loc 1 179 0
 1857 000e 2046     		mov	r0, r4
 1858              	.LVL220:
 1859 0010 0123     		movs	r3, #1
 1860 0012 40F8443B 		str	r3, [r0], #68
 1861              		.loc 1 182 0
 1862 0016 FFF7FEFF 		bl	chMtxInit
 1863              	.LVL221:
 1864              		.loc 1 189 0
 1865 001a 0D4B     		ldr	r3, .L201+4
 1866              		.loc 1 187 0
 1867 001c A4F85450 		strh	r5, [r4, #84]	@ movhi
 1868              		.loc 1 188 0
 1869 0020 A565     		str	r5, [r4, #88]
 1870              		.loc 1 189 0
 1871 0022 2366     		str	r3, [r4, #96]
 1872              	.L199:
 1873              		.loc 1 193 0
 1874 0024 0B48     		ldr	r0, .L201+8
 1875 0026 FFF7FEFF 		bl	chMtxLock
 1876              	.LVL222:
 1877              	.LBE95:
 1878              	.LBE97:
 1879              		.loc 1 768 0
 1880 002a 0AAB     		add	r3, sp, #40
 1881              		.loc 1 769 0
ARM GAS  /var/folders/6q/x_mk5n_j3p7_c40r_2k_78980000gn/T//ccP3TrUk.s 			page 34


 1882 002c 1A46     		mov	r2, r3
 1883              		.loc 1 765 0
 1884 002e 01AE     		add	r6, sp, #4
 1885              	.LVL223:
 1886              		.loc 1 766 0
 1887 0030 4FF0FF35 		mov	r5, #-1
 1888              		.loc 1 769 0
 1889 0034 0999     		ldr	r1, [sp, #36]
 1890 0036 0548     		ldr	r0, .L201
 1891              		.loc 1 768 0
 1892 0038 0393     		str	r3, [sp, #12]
 1893              		.loc 1 765 0
 1894 003a 6660     		str	r6, [r4, #4]
 1895              		.loc 1 766 0
 1896 003c E560     		str	r5, [r4, #12]
 1897              		.loc 1 769 0
 1898 003e FFF7FEFF 		bl	vex_print
 1899              	.LVL224:
 1900              		.loc 1 770 0
 1901 0042 05B0     		add	sp, sp, #20
 1902              		.cfi_def_cfa_offset 28
 1903              		@ sp needed
 1904 0044 BDE87040 		pop	{r4, r5, r6, lr}
 1905              		.cfi_restore 14
 1906              		.cfi_restore 6
 1907              		.cfi_restore 5
 1908              		.cfi_restore 4
 1909              		.cfi_def_cfa_offset 12
 1910              	.LVL225:
 1911 0048 03B0     		add	sp, sp, #12
 1912              		.cfi_restore 3
 1913              		.cfi_restore 2
 1914              		.cfi_restore 1
 1915              		.cfi_def_cfa_offset 0
 1916 004a 7047     		bx	lr
 1917              	.L202:
 1918              		.align	2
 1919              	.L201:
 1920 004c 00000000 		.word	.LANCHOR2
 1921 0050 00000000 		.word	SD1
 1922 0054 44000000 		.word	.LANCHOR2+68
 1923              		.cfi_endproc
 1924              	.LFE75:
 1925              		.size	vex_sprintf, .-vex_sprintf
 1926              		.section	.text.vex_snprintf,"ax",%progbits
 1927              		.align	2
 1928              		.p2align 4,,15
 1929              		.global	vex_snprintf
 1930              		.thumb
 1931              		.thumb_func
 1932              		.type	vex_snprintf, %function
 1933              	vex_snprintf:
 1934              	.LFB76:
 1935              		.loc 1 784 0
 1936              		.cfi_startproc
 1937              		@ args = 4, pretend = 8, frame = 16
 1938              		@ frame_needed = 0, uses_anonymous_args = 1
ARM GAS  /var/folders/6q/x_mk5n_j3p7_c40r_2k_78980000gn/T//ccP3TrUk.s 			page 35


 1939              	.LVL226:
 1940 0000 0CB4     		push	{r2, r3}
 1941              		.cfi_def_cfa_offset 8
 1942              		.cfi_offset 2, -8
 1943              		.cfi_offset 3, -4
 1944 0002 70B5     		push	{r4, r5, r6, lr}
 1945              		.cfi_def_cfa_offset 24
 1946              		.cfi_offset 4, -24
 1947              		.cfi_offset 5, -20
 1948              		.cfi_offset 6, -16
 1949              		.cfi_offset 14, -12
 1950              	.LBB98:
 1951              	.LBB99:
 1952              		.loc 1 177 0
 1953 0004 134C     		ldr	r4, .L207
 1954              	.LBE99:
 1955              	.LBE98:
 1956              		.loc 1 784 0
 1957 0006 84B0     		sub	sp, sp, #16
 1958              		.cfi_def_cfa_offset 40
 1959              	.LBB103:
 1960              	.LBB100:
 1961              		.loc 1 177 0
 1962 0008 2668     		ldr	r6, [r4]
 1963              	.LBE100:
 1964              	.LBE103:
 1965              		.loc 1 784 0
 1966 000a 0190     		str	r0, [sp, #4]
 1967 000c 0D46     		mov	r5, r1
 1968              	.LBB104:
 1969              	.LBB101:
 1970              		.loc 1 177 0
 1971 000e A6B1     		cbz	r6, .L206
 1972              	.LVL227:
 1973              	.L204:
 1974              		.loc 1 193 0
 1975 0010 1148     		ldr	r0, .L207+4
 1976 0012 FFF7FEFF 		bl	chMtxLock
 1977              	.LVL228:
 1978              	.LBE101:
 1979              	.LBE104:
 1980              		.loc 1 794 0
 1981 0016 09AB     		add	r3, sp, #36
 1982              		.loc 1 796 0
 1983 0018 1A46     		mov	r2, r3
 1984              		.loc 1 791 0
 1985 001a 01AE     		add	r6, sp, #4
 1986              	.LVL229:
 1987              		.loc 1 796 0
 1988 001c 0899     		ldr	r1, [sp, #32]
 1989 001e 0D48     		ldr	r0, .L207
 1990              		.loc 1 792 0
 1991 0020 E560     		str	r5, [r4, #12]
 1992              		.loc 1 794 0
 1993 0022 0393     		str	r3, [sp, #12]
 1994              		.loc 1 791 0
 1995 0024 6660     		str	r6, [r4, #4]
ARM GAS  /var/folders/6q/x_mk5n_j3p7_c40r_2k_78980000gn/T//ccP3TrUk.s 			page 36


 1996              		.loc 1 796 0
 1997 0026 FFF7FEFF 		bl	vex_print
 1998              	.LVL230:
 1999              		.loc 1 802 0
 2000 002a A842     		cmp	r0, r5
 2001 002c A8BF     		it	ge
 2002 002e 2846     		movge	r0, r5
 2003              	.LVL231:
 2004 0030 04B0     		add	sp, sp, #16
 2005              		.cfi_remember_state
 2006              		.cfi_def_cfa_offset 24
 2007              		@ sp needed
 2008 0032 BDE87040 		pop	{r4, r5, r6, lr}
 2009              		.cfi_restore 14
 2010              		.cfi_restore 6
 2011              		.cfi_restore 5
 2012              		.cfi_restore 4
 2013              		.cfi_def_cfa_offset 8
 2014              	.LVL232:
 2015 0036 02B0     		add	sp, sp, #8
 2016              		.cfi_restore 3
 2017              		.cfi_restore 2
 2018              		.cfi_def_cfa_offset 0
 2019 0038 7047     		bx	lr
 2020              	.LVL233:
 2021              	.L206:
 2022              		.cfi_restore_state
 2023              	.LBB105:
 2024              	.LBB102:
 2025              		.loc 1 179 0
 2026 003a 2046     		mov	r0, r4
 2027              	.LVL234:
 2028 003c 0123     		movs	r3, #1
 2029 003e 40F8443B 		str	r3, [r0], #68
 2030              		.loc 1 182 0
 2031 0042 FFF7FEFF 		bl	chMtxInit
 2032              	.LVL235:
 2033              		.loc 1 189 0
 2034 0046 054B     		ldr	r3, .L207+8
 2035              		.loc 1 187 0
 2036 0048 A4F85460 		strh	r6, [r4, #84]	@ movhi
 2037              		.loc 1 188 0
 2038 004c A665     		str	r6, [r4, #88]
 2039              		.loc 1 189 0
 2040 004e 2366     		str	r3, [r4, #96]
 2041 0050 DEE7     		b	.L204
 2042              	.L208:
 2043 0052 00BF     		.align	2
 2044              	.L207:
 2045 0054 00000000 		.word	.LANCHOR2
 2046 0058 44000000 		.word	.LANCHOR2+68
 2047 005c 00000000 		.word	SD1
 2048              	.LBE102:
 2049              	.LBE105:
 2050              		.cfi_endproc
 2051              	.LFE76:
 2052              		.size	vex_snprintf, .-vex_snprintf
ARM GAS  /var/folders/6q/x_mk5n_j3p7_c40r_2k_78980000gn/T//ccP3TrUk.s 			page 37


 2053              		.section	.text.vex_vsprintf,"ax",%progbits
 2054              		.align	2
 2055              		.p2align 4,,15
 2056              		.global	vex_vsprintf
 2057              		.thumb
 2058              		.thumb_func
 2059              		.type	vex_vsprintf, %function
 2060              	vex_vsprintf:
 2061              	.LFB77:
 2062              		.loc 1 816 0
 2063              		.cfi_startproc
 2064              		@ args = 0, pretend = 0, frame = 8
 2065              		@ frame_needed = 0, uses_anonymous_args = 0
 2066              	.LVL236:
 2067 0000 F0B5     		push	{r4, r5, r6, r7, lr}
 2068              		.cfi_def_cfa_offset 20
 2069              		.cfi_offset 4, -20
 2070              		.cfi_offset 5, -16
 2071              		.cfi_offset 6, -12
 2072              		.cfi_offset 7, -8
 2073              		.cfi_offset 14, -4
 2074              	.LBB106:
 2075              	.LBB107:
 2076              		.loc 1 177 0
 2077 0002 104C     		ldr	r4, .L212
 2078              	.LBE107:
 2079              	.LBE106:
 2080              		.loc 1 816 0
 2081 0004 83B0     		sub	sp, sp, #12
 2082              		.cfi_def_cfa_offset 32
 2083              	.LBB110:
 2084              	.LBB108:
 2085              		.loc 1 177 0
 2086 0006 2568     		ldr	r5, [r4]
 2087              	.LBE108:
 2088              	.LBE110:
 2089              		.loc 1 816 0
 2090 0008 0190     		str	r0, [sp, #4]
 2091 000a 0E46     		mov	r6, r1
 2092 000c 1746     		mov	r7, r2
 2093              	.LBB111:
 2094              	.LBB109:
 2095              		.loc 1 177 0
 2096 000e 55B9     		cbnz	r5, .L210
 2097              		.loc 1 179 0
 2098 0010 2046     		mov	r0, r4
 2099              	.LVL237:
 2100 0012 0123     		movs	r3, #1
 2101 0014 40F8443B 		str	r3, [r0], #68
 2102              		.loc 1 182 0
 2103 0018 FFF7FEFF 		bl	chMtxInit
 2104              	.LVL238:
 2105              		.loc 1 189 0
 2106 001c 0A4B     		ldr	r3, .L212+4
 2107              		.loc 1 187 0
 2108 001e A4F85450 		strh	r5, [r4, #84]	@ movhi
 2109              		.loc 1 188 0
ARM GAS  /var/folders/6q/x_mk5n_j3p7_c40r_2k_78980000gn/T//ccP3TrUk.s 			page 38


 2110 0022 A565     		str	r5, [r4, #88]
 2111              		.loc 1 189 0
 2112 0024 2366     		str	r3, [r4, #96]
 2113              	.LVL239:
 2114              	.L210:
 2115              		.loc 1 193 0
 2116 0026 0948     		ldr	r0, .L212+8
 2117 0028 FFF7FEFF 		bl	chMtxLock
 2118              	.LVL240:
 2119              	.LBE109:
 2120              	.LBE111:
 2121              		.loc 1 819 0
 2122 002c 01AD     		add	r5, sp, #4
 2123              	.LVL241:
 2124              		.loc 1 820 0
 2125 002e 4FF0FF33 		mov	r3, #-1
 2126              	.LVL242:
 2127              		.loc 1 822 0
 2128 0032 3A46     		mov	r2, r7
 2129 0034 3146     		mov	r1, r6
 2130 0036 0348     		ldr	r0, .L212
 2131              		.loc 1 819 0
 2132 0038 6560     		str	r5, [r4, #4]
 2133              		.loc 1 820 0
 2134 003a E360     		str	r3, [r4, #12]
 2135              		.loc 1 822 0
 2136 003c FFF7FEFF 		bl	vex_print
 2137              	.LVL243:
 2138              		.loc 1 823 0
 2139 0040 03B0     		add	sp, sp, #12
 2140              		.cfi_def_cfa_offset 20
 2141              		@ sp needed
 2142 0042 F0BD     		pop	{r4, r5, r6, r7, pc}
 2143              	.LVL244:
 2144              	.L213:
 2145              		.align	2
 2146              	.L212:
 2147 0044 00000000 		.word	.LANCHOR2
 2148 0048 00000000 		.word	SD1
 2149 004c 44000000 		.word	.LANCHOR2+68
 2150              		.cfi_endproc
 2151              	.LFE77:
 2152              		.size	vex_vsprintf, .-vex_vsprintf
 2153              		.section	.text.vex_vsnprintf,"ax",%progbits
 2154              		.align	2
 2155              		.p2align 4,,15
 2156              		.global	vex_vsnprintf
 2157              		.thumb
 2158              		.thumb_func
 2159              		.type	vex_vsnprintf, %function
 2160              	vex_vsnprintf:
 2161              	.LFB78:
 2162              		.loc 1 838 0
 2163              		.cfi_startproc
 2164              		@ args = 0, pretend = 0, frame = 8
 2165              		@ frame_needed = 0, uses_anonymous_args = 0
 2166              	.LVL245:
ARM GAS  /var/folders/6q/x_mk5n_j3p7_c40r_2k_78980000gn/T//ccP3TrUk.s 			page 39


 2167 0000 2DE9F041 		push	{r4, r5, r6, r7, r8, lr}
 2168              		.cfi_def_cfa_offset 24
 2169              		.cfi_offset 4, -24
 2170              		.cfi_offset 5, -20
 2171              		.cfi_offset 6, -16
 2172              		.cfi_offset 7, -12
 2173              		.cfi_offset 8, -8
 2174              		.cfi_offset 14, -4
 2175              	.LBB112:
 2176              	.LBB113:
 2177              		.loc 1 177 0
 2178 0004 124C     		ldr	r4, .L218
 2179              	.LBE113:
 2180              	.LBE112:
 2181              		.loc 1 838 0
 2182 0006 82B0     		sub	sp, sp, #8
 2183              		.cfi_def_cfa_offset 32
 2184              	.LBB117:
 2185              	.LBB114:
 2186              		.loc 1 177 0
 2187 0008 2668     		ldr	r6, [r4]
 2188              	.LBE114:
 2189              	.LBE117:
 2190              		.loc 1 838 0
 2191 000a 0190     		str	r0, [sp, #4]
 2192 000c 0D46     		mov	r5, r1
 2193 000e 1746     		mov	r7, r2
 2194 0010 9846     		mov	r8, r3
 2195              	.LBB118:
 2196              	.LBB115:
 2197              		.loc 1 177 0
 2198 0012 86B1     		cbz	r6, .L217
 2199              	.LVL246:
 2200              	.L215:
 2201              		.loc 1 193 0
 2202 0014 0F48     		ldr	r0, .L218+4
 2203 0016 FFF7FEFF 		bl	chMtxLock
 2204              	.LVL247:
 2205              	.LBE115:
 2206              	.LBE118:
 2207              		.loc 1 843 0
 2208 001a 01AB     		add	r3, sp, #4
 2209              	.LVL248:
 2210              		.loc 1 846 0
 2211 001c 4246     		mov	r2, r8
 2212 001e 3946     		mov	r1, r7
 2213 0020 0B48     		ldr	r0, .L218
 2214              		.loc 1 844 0
 2215 0022 E560     		str	r5, [r4, #12]
 2216              		.loc 1 843 0
 2217 0024 6360     		str	r3, [r4, #4]
 2218              		.loc 1 846 0
 2219 0026 FFF7FEFF 		bl	vex_print
 2220              	.LVL249:
 2221              		.loc 1 852 0
 2222 002a A842     		cmp	r0, r5
 2223 002c A8BF     		it	ge
ARM GAS  /var/folders/6q/x_mk5n_j3p7_c40r_2k_78980000gn/T//ccP3TrUk.s 			page 40


 2224 002e 2846     		movge	r0, r5
 2225              	.LVL250:
 2226 0030 02B0     		add	sp, sp, #8
 2227              		.cfi_remember_state
 2228              		.cfi_def_cfa_offset 24
 2229              		@ sp needed
 2230 0032 BDE8F081 		pop	{r4, r5, r6, r7, r8, pc}
 2231              	.LVL251:
 2232              	.L217:
 2233              		.cfi_restore_state
 2234              	.LBB119:
 2235              	.LBB116:
 2236              		.loc 1 179 0
 2237 0036 2046     		mov	r0, r4
 2238              	.LVL252:
 2239 0038 0123     		movs	r3, #1
 2240              	.LVL253:
 2241 003a 40F8443B 		str	r3, [r0], #68
 2242              		.loc 1 182 0
 2243 003e FFF7FEFF 		bl	chMtxInit
 2244              	.LVL254:
 2245              		.loc 1 189 0
 2246 0042 054B     		ldr	r3, .L218+8
 2247              		.loc 1 187 0
 2248 0044 A4F85460 		strh	r6, [r4, #84]	@ movhi
 2249              		.loc 1 188 0
 2250 0048 A665     		str	r6, [r4, #88]
 2251              		.loc 1 189 0
 2252 004a 2366     		str	r3, [r4, #96]
 2253 004c E2E7     		b	.L215
 2254              	.L219:
 2255 004e 00BF     		.align	2
 2256              	.L218:
 2257 0050 00000000 		.word	.LANCHOR2
 2258 0054 44000000 		.word	.LANCHOR2+68
 2259 0058 00000000 		.word	SD1
 2260              	.LBE116:
 2261              	.LBE119:
 2262              		.cfi_endproc
 2263              	.LFE78:
 2264              		.size	vex_vsnprintf, .-vex_vsnprintf
 2265              		.section	.bss.pdefs1,"aw",%nobits
 2266              		.align	2
 2267              		.set	.LANCHOR1,. + 0
 2268              		.type	pdefs1, %object
 2269              		.size	pdefs1, 100
 2270              	pdefs1:
 2271 0000 00000000 		.space	100
 2271      00000000 
 2271      00000000 
 2271      00000000 
 2271      00000000 
 2272              		.section	.bss.pdefs2,"aw",%nobits
 2273              		.align	2
 2274              		.set	.LANCHOR2,. + 0
 2275              		.type	pdefs2, %object
 2276              		.size	pdefs2, 100
ARM GAS  /var/folders/6q/x_mk5n_j3p7_c40r_2k_78980000gn/T//ccP3TrUk.s 			page 41


 2277              	pdefs2:
 2278 0000 00000000 		.space	100
 2278      00000000 
 2278      00000000 
 2278      00000000 
 2278      00000000 
 2279              		.section	.rodata.str1.4,"aMS",%progbits,1
 2280              		.align	2
 2281              	.LC0:
 2282 0000 3000     		.ascii	"0\000"
 2283 0002 0000     		.space	2
 2284              	.LC1:
 2285 0004 286E756C 		.ascii	"(null)\000"
 2285      6C2900
 2286              		.section	.rodata.round_nums,"a",%progbits
 2287              		.align	3
 2288              		.set	.LANCHOR0,. + 0
 2289              		.type	round_nums, %object
 2290              		.size	round_nums, 64
 2291              	round_nums:
 2292 0000 00000000 		.word	0
 2293 0004 0000E03F 		.word	1071644672
 2294 0008 9A999999 		.word	2576980378
 2295 000c 9999A93F 		.word	1068079513
 2296 0010 7B14AE47 		.word	1202590843
 2297 0014 E17A743F 		.word	1064598241
 2298 0018 FCA9F1D2 		.word	3539053052
 2299 001c 4D62403F 		.word	1061184077
 2300 0020 2D431CEB 		.word	3944497965
 2301 0024 E2360A3F 		.word	1057634018
 2302 0028 F168E388 		.word	2296604913
 2303 002c B5F8D43E 		.word	1054144693
 2304 0030 8DEDB5A0 		.word	2696277389
 2305 0034 F7C6A03E 		.word	1050724087
 2306 0038 48AFBC9A 		.word	2596056904
 2307 003c F2D76A3E 		.word	1047189490
 2308              		.text
 2309              	.Letext0:
 2310              		.file 2 "/Users/Luca/src/vexilla/src/gcc-arm-none-eabi-5_4-2016q3/lib/gcc/arm-none-eabi/5.4.1/incl
 2311              		.file 3 "/Users/Luca/src/vexilla/src/gcc-arm-none-eabi-5_4-2016q3/arm-none-eabi/include/machine/_d
 2312              		.file 4 "/Users/Luca/src/vexilla/src/gcc-arm-none-eabi-5_4-2016q3/lib/gcc/arm-none-eabi/5.4.1/incl
 2313              		.file 5 "/Users/Luca/src/vexilla/src/gcc-arm-none-eabi-5_4-2016q3/arm-none-eabi/include/sys/_stdin
 2314              		.file 6 "../ChibiOS/os/ports/GCC/ARMCMx/chtypes.h"
 2315              		.file 7 "../ChibiOS/os/kernel/include/chlists.h"
 2316              		.file 8 "<built-in>"
 2317              		.file 9 "../ChibiOS/os/kernel/include/chthreads.h"
 2318              		.file 10 "../ChibiOS/os/ports/GCC/ARMCMx/chcore_v7m.h"
 2319              		.file 11 "../ChibiOS/os/kernel/include/chvt.h"
 2320              		.file 12 "../ChibiOS/os/kernel/include/chmtx.h"
 2321              		.file 13 "../ChibiOS/os/kernel/include/chevents.h"
 2322              		.file 14 "../ChibiOS/os/kernel/include/chqueues.h"
 2323              		.file 15 "../ChibiOS/os/kernel/include/chstreams.h"
 2324              		.file 16 "../ChibiOS/os/hal/platforms/STM32F1xx/stm32f10x.h"
 2325              		.file 17 "../ChibiOS/os/hal/include/serial.h"
 2326              		.file 18 "../convex-vexilla/cortex/fw/vexcompat.h"
 2327              		.file 19 "../convex-vexilla/cortex/fw/vexdigital.h"
 2328              		.file 20 "../convex-vexilla/cortex/fw/vexime.h"
ARM GAS  /var/folders/6q/x_mk5n_j3p7_c40r_2k_78980000gn/T//ccP3TrUk.s 			page 42


 2329              		.file 21 "../ChibiOS/os/ports/common/ARMCMx/CMSIS/include/core_cm3.h"
 2330              		.file 22 "../ChibiOS/os/hal/platforms/STM32/USARTv1/serial_lld.h"