ARM GAS  /var/folders/6q/x_mk5n_j3p7_c40r_2k_78980000gn/T//cc9sDcHZ.s 			page 1


   1              		.syntax unified
   2              		.cpu cortex-m3
   3              		.fpu softvfp
   4              		.eabi_attribute 20, 1
   5              		.eabi_attribute 21, 1
   6              		.eabi_attribute 23, 3
   7              		.eabi_attribute 24, 1
   8              		.eabi_attribute 25, 1
   9              		.eabi_attribute 26, 1
  10              		.eabi_attribute 30, 2
  11              		.eabi_attribute 34, 1
  12              		.eabi_attribute 18, 4
  13              		.thumb
  14              		.syntax unified
  15              		.file	"vexrttl.c"
  16              		.text
  17              	.Ltext0:
  18              		.cfi_sections	.debug_frame
  19              		.section	.text.vexAudioPlayRtttl,"ax",%progbits
  20              		.align	2
  21              		.p2align 4,,15
  22              		.global	vexAudioPlayRtttl
  23              		.thumb
  24              		.thumb_func
  25              		.type	vexAudioPlayRtttl, %function
  26              	vexAudioPlayRtttl:
  27              	.LFB64:
  28              		.file 1 "../convex-vexilla/cortex/fw/vexrttl.c"
  29              		.loc 1 113 0
  30              		.cfi_startproc
  31              		@ args = 0, pretend = 0, frame = 8
  32              		@ frame_needed = 0, uses_anonymous_args = 0
  33              	.LVL0:
  34 0000 2DE9F04F 		push	{r4, r5, r6, r7, r8, r9, r10, fp, lr}
  35              		.cfi_def_cfa_offset 36
  36              		.cfi_offset 4, -36
  37              		.cfi_offset 5, -32
  38              		.cfi_offset 6, -28
  39              		.cfi_offset 7, -24
  40              		.cfi_offset 8, -20
  41              		.cfi_offset 9, -16
  42              		.cfi_offset 10, -12
  43              		.cfi_offset 11, -8
  44              		.cfi_offset 14, -4
  45              		.loc 1 123 0
  46 0004 0378     		ldrb	r3, [r0]	@ zero_extendqisi2
  47              		.loc 1 113 0
  48 0006 83B0     		sub	sp, sp, #12
  49              		.cfi_def_cfa_offset 48
  50              		.loc 1 113 0
  51 0008 0F46     		mov	r7, r1
  52 000a 0192     		str	r2, [sp, #4]
  53              		.loc 1 123 0
  54 000c 7949     		ldr	r1, .L112
  55              	.LVL1:
  56 000e 63B1     		cbz	r3, .L2
  57 0010 3A2B     		cmp	r3, #58
ARM GAS  /var/folders/6q/x_mk5n_j3p7_c40r_2k_78980000gn/T//cc9sDcHZ.s 			page 2


  58 0012 0AD0     		beq	.L2
  59 0014 421C     		adds	r2, r0, #1
  60              	.LVL2:
  61 0016 01E0     		b	.L3
  62              	.LVL3:
  63              	.L108:
  64              		.loc 1 123 0 is_stmt 0 discriminator 1
  65 0018 3A2B     		cmp	r3, #58
  66 001a 06D0     		beq	.L2
  67              	.LVL4:
  68              	.L3:
  69              		.loc 1 125 0 is_stmt 1
  70 001c 01F8013B 		strb	r3, [r1], #1
  71              	.LVL5:
  72 0020 1046     		mov	r0, r2
  73              	.LVL6:
  74              		.loc 1 123 0
  75 0022 12F8013B 		ldrb	r3, [r2], #1	@ zero_extendqisi2
  76              	.LVL7:
  77 0026 002B     		cmp	r3, #0
  78 0028 F6D1     		bne	.L108
  79              	.LVL8:
  80              	.L2:
  81              		.loc 1 127 0
  82 002a 0023     		movs	r3, #0
  83 002c 0B70     		strb	r3, [r1]
  84              		.loc 1 129 0
  85 002e 0378     		ldrb	r3, [r0]	@ zero_extendqisi2
  86 0030 002B     		cmp	r3, #0
  87 0032 00F0BF80 		beq	.L62
  88              		.loc 1 130 0
  89 0036 00F10108 		add	r8, r0, #1
  90              	.LVL9:
  91              		.loc 1 133 0
  92 003a 98F800E0 		ldrb	lr, [r8]	@ zero_extendqisi2
  93              		.loc 1 118 0
  94 003e 3F24     		movs	r4, #63
  95              	.LVL10:
  96              		.loc 1 117 0
  97 0040 0626     		movs	r6, #6
  98              		.loc 1 116 0
  99 0042 0425     		movs	r5, #4
 100              	.LBB7:
 101              		.loc 1 151 0
 102 0044 4FF0200C 		mov	ip, #32
 103              	.LBE7:
 104              		.loc 1 133 0
 105 0048 BEF1000F 		cmp	lr, #0
 106 004c 42D0     		beq	.L9
 107              	.L109:
 108              	.LBB8:
 109              		.loc 1 138 0 discriminator 1
 110 004e BEF1200F 		cmp	lr, #32
 111 0052 08D1     		bne	.L21
 112              	.LVL11:
 113              	.L7:
 114              		.loc 1 138 0 is_stmt 0 discriminator 2
ARM GAS  /var/folders/6q/x_mk5n_j3p7_c40r_2k_78980000gn/T//cc9sDcHZ.s 			page 3


 115 0054 18F801EF 		ldrb	lr, [r8, #1]!	@ zero_extendqisi2
 116              	.LVL12:
 117 0058 BEF1200F 		cmp	lr, #32
 118 005c FAD0     		beq	.L7
 119              		.loc 1 139 0 is_stmt 1
 120 005e BEF1000F 		cmp	lr, #0
 121 0062 00F0A780 		beq	.L62
 122              	.LVL13:
 123              	.L21:
 124              		.loc 1 140 0
 125 0066 BEF13A0F 		cmp	lr, #58
 126 006a 33D0     		beq	.L9
 127              	.LVL14:
 128              		.loc 1 143 0
 129 006c 98F80130 		ldrb	r3, [r8, #1]	@ zero_extendqisi2
 130 0070 3D2B     		cmp	r3, #61
 131 0072 40F09F80 		bne	.L62
 132              		.loc 1 147 0
 133 0076 98F80220 		ldrb	r2, [r8, #2]	@ zero_extendqisi2
 134              		.loc 1 145 0
 135 007a 08F10208 		add	r8, r8, #2
 136              	.LVL15:
 137              		.loc 1 147 0
 138 007e A2F13001 		sub	r1, r2, #48
 139 0082 CBB2     		uxtb	r3, r1
 140 0084 092B     		cmp	r3, #9
 141 0086 4FF00003 		mov	r3, #0
 142 008a 0AD8     		bhi	.L10
 143              	.LVL16:
 144              	.L11:
 145              		.loc 1 147 0 is_stmt 0 discriminator 2
 146 008c 18F8012F 		ldrb	r2, [r8, #1]!	@ zero_extendqisi2
 147              	.LVL17:
 148 0090 03EB8303 		add	r3, r3, r3, lsl #2
 149              	.LVL18:
 150 0094 01EB4303 		add	r3, r1, r3, lsl #1
 151              	.LVL19:
 152 0098 A2F13001 		sub	r1, r2, #48
 153 009c C8B2     		uxtb	r0, r1
 154 009e 0928     		cmp	r0, #9
 155 00a0 F4D9     		bls	.L11
 156              	.LVL20:
 157              	.L10:
 158              		.loc 1 149 0 is_stmt 1
 159 00a2 BEF1640F 		cmp	lr, #100
 160 00a6 00F08280 		beq	.L13
 161 00aa BEF16F0F 		cmp	lr, #111
 162 00ae 7CD0     		beq	.L60
 163              		.loc 1 153 0
 164 00b0 BEF1620F 		cmp	lr, #98
 165 00b4 08BF     		it	eq
 166 00b6 1C46     		moveq	r4, r3
 167              	.LVL21:
 168 00b8 01E0     		b	.L102
 169              	.L18:
 170              	.LVL22:
 171              		.loc 1 156 0 discriminator 2
ARM GAS  /var/folders/6q/x_mk5n_j3p7_c40r_2k_78980000gn/T//cc9sDcHZ.s 			page 4


 172 00ba 18F8012F 		ldrb	r2, [r8, #1]!	@ zero_extendqisi2
 173              	.LVL23:
 174              	.L102:
 175 00be 202A     		cmp	r2, #32
 176 00c0 FBD0     		beq	.L18
 177              		.loc 1 157 0
 178 00c2 2C2A     		cmp	r2, #44
 179 00c4 08BF     		it	eq
 180 00c6 08F10108 		addeq	r8, r8, #1
 181              	.LVL24:
 182              	.LBE8:
 183              		.loc 1 133 0
 184 00ca 98F800E0 		ldrb	lr, [r8]	@ zero_extendqisi2
 185              	.LVL25:
 186 00ce BEF1000F 		cmp	lr, #0
 187 00d2 BCD1     		bne	.L109
 188              	.LVL26:
 189              	.L9:
 190              		.loc 1 163 0
 191 00d4 98F80120 		ldrb	r2, [r8, #1]	@ zero_extendqisi2
 192              		.loc 1 159 0
 193 00d8 08F1010B 		add	fp, r8, #1
 194              	.LVL27:
 195              		.loc 1 163 0
 196 00dc 1146     		mov	r1, r2
 197 00de 002A     		cmp	r2, #0
 198 00e0 00F0C580 		beq	.L22
 199 00e4 DE46     		mov	lr, fp
 200 00e6 0120     		movs	r0, #1
 201              	.LVL28:
 202              	.L24:
 203              		.loc 1 165 0
 204 00e8 2C29     		cmp	r1, #44
 205              		.loc 1 163 0
 206 00ea 1EF8011F 		ldrb	r1, [lr, #1]!	@ zero_extendqisi2
 207              	.LVL29:
 208              		.loc 1 166 0
 209 00ee 08BF     		it	eq
 210 00f0 0130     		addeq	r0, r0, #1
 211              	.LVL30:
 212              		.loc 1 163 0
 213 00f2 0029     		cmp	r1, #0
 214 00f4 F8D1     		bne	.L24
 215              		.loc 1 169 0
 216 00f6 0128     		cmp	r0, #1
 217 00f8 07D0     		beq	.L26
 218              		.loc 1 170 0
 219 00fa 0130     		adds	r0, r0, #1
 220              	.LVL31:
 221 00fc FFF7FEFF 		bl	vexAudioInitChipToneSong
 222              	.LVL32:
 223              		.loc 1 173 0
 224 0100 98F80120 		ldrb	r2, [r8, #1]	@ zero_extendqisi2
 225 0104 002A     		cmp	r2, #0
 226 0106 00F0B280 		beq	.L22
 227              	.L26:
 228              	.LBB9:
ARM GAS  /var/folders/6q/x_mk5n_j3p7_c40r_2k_78980000gn/T//cc9sDcHZ.s 			page 5


 229              	.LBB10:
 230              	.LBB11:
 231              		.loc 1 100 0
 232 010a DFF8F090 		ldr	r9, .L112+8
 233 010e DFF8F080 		ldr	r8, .L112+12
 234 0112 E400     		lsls	r4, r4, #3
 235              	.LVL33:
 236              	.LBE11:
 237              	.LBE10:
 238              	.LBB13:
 239              		.loc 1 191 0
 240 0114 4FF0200A 		mov	r10, #32
 241 0118 01E0     		b	.L104
 242              	.LVL34:
 243              	.L27:
 244              	.LBE13:
 245              		.loc 1 182 0 discriminator 2
 246 011a 1BF8012F 		ldrb	r2, [fp, #1]!	@ zero_extendqisi2
 247              	.LVL35:
 248              	.L104:
 249 011e 202A     		cmp	r2, #32
 250 0120 FBD0     		beq	.L27
 251              		.loc 1 183 0
 252 0122 002A     		cmp	r2, #0
 253 0124 46D0     		beq	.L62
 254              		.loc 1 186 0
 255 0126 303A     		subs	r2, r2, #48
 256 0128 D2B2     		uxtb	r2, r2
 257 012a 092A     		cmp	r2, #9
 258              	.LBB14:
 259              		.loc 1 189 0
 260 012c 9BF80000 		ldrb	r0, [fp]	@ zero_extendqisi2
 261              	.LBE14:
 262              		.loc 1 186 0
 263 0130 40F2AB80 		bls	.L28
 264 0134 2946     		mov	r1, r5
 265              	.L29:
 266              	.LVL36:
 267              		.loc 1 195 0
 268 0136 6828     		cmp	r0, #104
 269 0138 00F2F280 		bhi	.L32
 270 013c DFE800F0 		tbb	[pc, r0]
 271              	.L33:
 272 0140 3A       		.byte	(.L62-.L33)/2
 273 0141 F0       		.byte	(.L32-.L33)/2
 274 0142 F0       		.byte	(.L32-.L33)/2
 275 0143 F0       		.byte	(.L32-.L33)/2
 276 0144 F0       		.byte	(.L32-.L33)/2
 277 0145 F0       		.byte	(.L32-.L33)/2
 278 0146 F0       		.byte	(.L32-.L33)/2
 279 0147 F0       		.byte	(.L32-.L33)/2
 280 0148 F0       		.byte	(.L32-.L33)/2
 281 0149 F0       		.byte	(.L32-.L33)/2
 282 014a F0       		.byte	(.L32-.L33)/2
 283 014b F0       		.byte	(.L32-.L33)/2
 284 014c F0       		.byte	(.L32-.L33)/2
 285 014d F0       		.byte	(.L32-.L33)/2
ARM GAS  /var/folders/6q/x_mk5n_j3p7_c40r_2k_78980000gn/T//cc9sDcHZ.s 			page 6


 286 014e F0       		.byte	(.L32-.L33)/2
 287 014f F0       		.byte	(.L32-.L33)/2
 288 0150 F0       		.byte	(.L32-.L33)/2
 289 0151 F0       		.byte	(.L32-.L33)/2
 290 0152 F0       		.byte	(.L32-.L33)/2
 291 0153 F0       		.byte	(.L32-.L33)/2
 292 0154 F0       		.byte	(.L32-.L33)/2
 293 0155 F0       		.byte	(.L32-.L33)/2
 294 0156 F0       		.byte	(.L32-.L33)/2
 295 0157 F0       		.byte	(.L32-.L33)/2
 296 0158 F0       		.byte	(.L32-.L33)/2
 297 0159 F0       		.byte	(.L32-.L33)/2
 298 015a F0       		.byte	(.L32-.L33)/2
 299 015b F0       		.byte	(.L32-.L33)/2
 300 015c F0       		.byte	(.L32-.L33)/2
 301 015d F0       		.byte	(.L32-.L33)/2
 302 015e F0       		.byte	(.L32-.L33)/2
 303 015f F0       		.byte	(.L32-.L33)/2
 304 0160 F0       		.byte	(.L32-.L33)/2
 305 0161 F0       		.byte	(.L32-.L33)/2
 306 0162 F0       		.byte	(.L32-.L33)/2
 307 0163 F0       		.byte	(.L32-.L33)/2
 308 0164 F0       		.byte	(.L32-.L33)/2
 309 0165 F0       		.byte	(.L32-.L33)/2
 310 0166 F0       		.byte	(.L32-.L33)/2
 311 0167 F0       		.byte	(.L32-.L33)/2
 312 0168 F0       		.byte	(.L32-.L33)/2
 313 0169 F0       		.byte	(.L32-.L33)/2
 314 016a F0       		.byte	(.L32-.L33)/2
 315 016b F0       		.byte	(.L32-.L33)/2
 316 016c F0       		.byte	(.L32-.L33)/2
 317 016d F0       		.byte	(.L32-.L33)/2
 318 016e F0       		.byte	(.L32-.L33)/2
 319 016f F0       		.byte	(.L32-.L33)/2
 320 0170 F0       		.byte	(.L32-.L33)/2
 321 0171 F0       		.byte	(.L32-.L33)/2
 322 0172 F0       		.byte	(.L32-.L33)/2
 323 0173 F0       		.byte	(.L32-.L33)/2
 324 0174 F0       		.byte	(.L32-.L33)/2
 325 0175 F0       		.byte	(.L32-.L33)/2
 326 0176 F0       		.byte	(.L32-.L33)/2
 327 0177 F0       		.byte	(.L32-.L33)/2
 328 0178 F0       		.byte	(.L32-.L33)/2
 329 0179 F0       		.byte	(.L32-.L33)/2
 330 017a F0       		.byte	(.L32-.L33)/2
 331 017b F0       		.byte	(.L32-.L33)/2
 332 017c F0       		.byte	(.L32-.L33)/2
 333 017d F0       		.byte	(.L32-.L33)/2
 334 017e F0       		.byte	(.L32-.L33)/2
 335 017f F0       		.byte	(.L32-.L33)/2
 336 0180 F0       		.byte	(.L32-.L33)/2
 337 0181 ED       		.byte	(.L34-.L33)/2
 338 0182 3E       		.byte	(.L35-.L33)/2
 339 0183 A2       		.byte	(.L63-.L33)/2
 340 0184 EA       		.byte	(.L37-.L33)/2
 341 0185 E7       		.byte	(.L38-.L33)/2
 342 0186 E4       		.byte	(.L39-.L33)/2
ARM GAS  /var/folders/6q/x_mk5n_j3p7_c40r_2k_78980000gn/T//cc9sDcHZ.s 			page 7


 343 0187 E1       		.byte	(.L40-.L33)/2
 344 0188 3E       		.byte	(.L35-.L33)/2
 345 0189 F0       		.byte	(.L32-.L33)/2
 346 018a F0       		.byte	(.L32-.L33)/2
 347 018b F0       		.byte	(.L32-.L33)/2
 348 018c F0       		.byte	(.L32-.L33)/2
 349 018d F0       		.byte	(.L32-.L33)/2
 350 018e F0       		.byte	(.L32-.L33)/2
 351 018f F0       		.byte	(.L32-.L33)/2
 352 0190 F0       		.byte	(.L32-.L33)/2
 353 0191 F0       		.byte	(.L32-.L33)/2
 354 0192 F0       		.byte	(.L32-.L33)/2
 355 0193 F0       		.byte	(.L32-.L33)/2
 356 0194 F0       		.byte	(.L32-.L33)/2
 357 0195 F0       		.byte	(.L32-.L33)/2
 358 0196 F0       		.byte	(.L32-.L33)/2
 359 0197 F0       		.byte	(.L32-.L33)/2
 360 0198 F0       		.byte	(.L32-.L33)/2
 361 0199 F0       		.byte	(.L32-.L33)/2
 362 019a F0       		.byte	(.L32-.L33)/2
 363 019b F0       		.byte	(.L32-.L33)/2
 364 019c F0       		.byte	(.L32-.L33)/2
 365 019d F0       		.byte	(.L32-.L33)/2
 366 019e F0       		.byte	(.L32-.L33)/2
 367 019f F0       		.byte	(.L32-.L33)/2
 368 01a0 F0       		.byte	(.L32-.L33)/2
 369 01a1 ED       		.byte	(.L34-.L33)/2
 370 01a2 3E       		.byte	(.L35-.L33)/2
 371 01a3 A2       		.byte	(.L63-.L33)/2
 372 01a4 EA       		.byte	(.L37-.L33)/2
 373 01a5 E7       		.byte	(.L38-.L33)/2
 374 01a6 E4       		.byte	(.L39-.L33)/2
 375 01a7 E1       		.byte	(.L40-.L33)/2
 376 01a8 3E       		.byte	(.L35-.L33)/2
 377              	.LVL37:
 378 01a9 00       		.p2align 1
 379              	.L60:
 380              	.LBE9:
 381              	.LBB17:
 382              		.loc 1 149 0
 383 01aa 1E46     		mov	r6, r3
 384              	.LVL38:
 385 01ac 87E7     		b	.L102
 386              	.LVL39:
 387              	.L13:
 388              		.loc 1 151 0
 389 01ae 9CFBF3F5 		sdiv	r5, ip, r3
 390              	.LVL40:
 391 01b2 84E7     		b	.L102
 392              	.LVL41:
 393              	.L62:
 394              	.LBE17:
 395              	.LBB18:
 396              		.loc 1 197 0
 397 01b4 1048     		ldr	r0, .L112+4
 398              	.L99:
 399              	.LBE18:
ARM GAS  /var/folders/6q/x_mk5n_j3p7_c40r_2k_78980000gn/T//cc9sDcHZ.s 			page 8


 400              		.loc 1 258 0
 401 01b6 03B0     		add	sp, sp, #12
 402              		.cfi_remember_state
 403              		.cfi_def_cfa_offset 36
 404              		@ sp needed
 405 01b8 BDE8F08F 		pop	{r4, r5, r6, r7, r8, r9, r10, fp, pc}
 406              	.LVL42:
 407              	.L35:
 408              		.cfi_restore_state
 409              	.LBB19:
 410              		.loc 1 205 0
 411 01bc 4FF00B0C 		mov	ip, #11
 412              	.LVL43:
 413              	.L36:
 414              		.loc 1 209 0
 415 01c0 9BF80120 		ldrb	r2, [fp, #1]	@ zero_extendqisi2
 416 01c4 232A     		cmp	r2, #35
 417 01c6 09BF     		itett	eq
 418 01c8 9BF80220 		ldrbeq	r2, [fp, #2]	@ zero_extendqisi2
 419              		.loc 1 208 0
 420 01cc 0BF1010B 		addne	fp, fp, #1
 421              	.LVL44:
 422              		.loc 1 211 0
 423 01d0 0CF1010C 		addeq	ip, ip, #1
 424              	.LVL45:
 425              		.loc 1 212 0
 426 01d4 0BF1020B 		addeq	fp, fp, #2
 427              	.LVL46:
 428              		.loc 1 214 0
 429 01d8 622A     		cmp	r2, #98
 430 01da 00F08B80 		beq	.L110
 431              	.L44:
 432              		.loc 1 221 0
 433 01de 2E2A     		cmp	r2, #46
 434 01e0 79D0     		beq	.L111
 435              		.loc 1 228 0
 436 01e2 A2F1300E 		sub	lr, r2, #48
 437 01e6 5FFA8EF0 		uxtb	r0, lr
 438 01ea 0928     		cmp	r0, #9
 439 01ec 64D9     		bls	.L56
 440 01ee B646     		mov	lr, r6
 441 01f0 0AE0     		b	.L105
 442              	.L113:
 443 01f2 00BF     		.align	2
 444              	.L112:
 445 01f4 00000000 		.word	.LANCHOR0
 446 01f8 00000000 		.word	.LC0
 447 01fc 00000000 		.word	.LANCHOR1
 448 0200 ABAAAA2A 		.word	715827883
 449              	.LVL47:
 450              	.L49:
 451              		.loc 1 238 0 discriminator 2
 452 0204 1BF8012F 		ldrb	r2, [fp, #1]!	@ zero_extendqisi2
 453              	.LVL48:
 454              	.L105:
 455 0208 202A     		cmp	r2, #32
 456 020a FBD0     		beq	.L49
ARM GAS  /var/folders/6q/x_mk5n_j3p7_c40r_2k_78980000gn/T//cc9sDcHZ.s 			page 9


 457              		.loc 1 239 0
 458 020c 2C2A     		cmp	r2, #44
 459              		.loc 1 242 0
 460 020e 4EF66022 		movw	r2, #60000
 461 0212 02FB01F2 		mul	r2, r2, r1
 462              		.loc 1 239 0
 463 0216 08BF     		it	eq
 464 0218 0BF1010B 		addeq	fp, fp, #1
 465              	.LVL49:
 466              		.loc 1 243 0
 467 021c BCF1FF3F 		cmp	ip, #-1
 468              		.loc 1 242 0
 469 0220 92FBF4F2 		sdiv	r2, r2, r4
 470              	.LVL50:
 471              		.loc 1 243 0
 472 0224 55D0     		beq	.L65
 473              		.loc 1 246 0
 474 0226 0EF1010E 		add	lr, lr, #1
 475 022a 0EEB4E0E 		add	lr, lr, lr, lsl #1
 476 022e 0CEB8E00 		add	r0, ip, lr, lsl #2
 477              	.LVL51:
 478              	.LBB15:
 479              	.LBB12:
 480              		.loc 1 100 0
 481 0232 88FB0031 		smull	r3, r1, r8, r0
 482 0236 4FEAE07E 		asr	lr, r0, #31
 483 023a 4910     		asrs	r1, r1, #1
 484 023c CEEB010C 		rsb	ip, lr, r1
 485              	.LVL52:
 486 0240 0CEB4C0C 		add	ip, ip, ip, lsl #1
 487 0244 C1EB0E01 		rsb	r1, r1, lr
 488 0248 A0EB8C00 		sub	r0, r0, ip, lsl #2
 489              	.LVL53:
 490 024c 59F82000 		ldr	r0, [r9, r0, lsl #2]
 491 0250 0931     		adds	r1, r1, #9
 492 0252 4FF0010E 		mov	lr, #1
 493 0256 0EFA01F1 		lsl	r1, lr, r1
 494 025a 90FBF1F0 		sdiv	r0, r0, r1
 495              	.L51:
 496              	.LVL54:
 497              	.LBE12:
 498              	.LBE15:
 499              		.loc 1 248 0
 500 025e 3946     		mov	r1, r7
 501 0260 FFF7FEFF 		bl	vexAudioSetNextChipTone
 502              	.LVL55:
 503              	.LBE19:
 504              		.loc 1 173 0
 505 0264 9BF80020 		ldrb	r2, [fp]	@ zero_extendqisi2
 506 0268 002A     		cmp	r2, #0
 507 026a 7FF458AF 		bne	.L104
 508              	.L22:
 509              		.loc 1 252 0
 510 026e 0021     		movs	r1, #0
 511 0270 0846     		mov	r0, r1
 512 0272 4FF4FA72 		mov	r2, #500
 513 0276 FFF7FEFF 		bl	vexAudioSetNextChipTone
ARM GAS  /var/folders/6q/x_mk5n_j3p7_c40r_2k_78980000gn/T//cc9sDcHZ.s 			page 10


 514              	.LVL56:
 515              		.loc 1 255 0
 516 027a 0198     		ldr	r0, [sp, #4]
 517 027c FFF7FEFF 		bl	vexAudioStartChipToneSong
 518              	.LVL57:
 519              		.loc 1 257 0
 520 0280 2948     		ldr	r0, .L114
 521 0282 98E7     		b	.L99
 522              	.LVL58:
 523              	.L63:
 524              	.LBB20:
 525              		.loc 1 198 0
 526 0284 4FF0000C 		mov	ip, #0
 527 0288 9AE7     		b	.L36
 528              	.LVL59:
 529              	.L28:
 530              	.LBB16:
 531              		.loc 1 189 0 discriminator 1
 532 028a A0F13001 		sub	r1, r0, #48
 533 028e CAB2     		uxtb	r2, r1
 534 0290 092A     		cmp	r2, #9
 535 0292 4FF00002 		mov	r2, #0
 536 0296 0CD8     		bhi	.L30
 537              	.LVL60:
 538              	.L31:
 539              		.loc 1 189 0 is_stmt 0 discriminator 2
 540 0298 1BF8010F 		ldrb	r0, [fp, #1]!	@ zero_extendqisi2
 541              	.LVL61:
 542 029c 02EB8202 		add	r2, r2, r2, lsl #2
 543              	.LVL62:
 544 02a0 01EB4202 		add	r2, r1, r2, lsl #1
 545              	.LVL63:
 546 02a4 A0F13001 		sub	r1, r0, #48
 547 02a8 5FFA81FE 		uxtb	lr, r1
 548 02ac BEF1090F 		cmp	lr, #9
 549 02b0 F2D9     		bls	.L31
 550              	.LVL64:
 551              	.L30:
 552              		.loc 1 191 0 is_stmt 1
 553 02b2 9AFBF2F1 		sdiv	r1, r10, r2
 554              	.LVL65:
 555 02b6 3EE7     		b	.L29
 556              	.LVL66:
 557              	.L56:
 558 02b8 9BF80120 		ldrb	r2, [fp, #1]	@ zero_extendqisi2
 559              	.LBE16:
 560              		.loc 1 228 0 discriminator 1
 561 02bc 0BF1010B 		add	fp, fp, #1
 562              	.LVL67:
 563              	.L46:
 564              		.loc 1 231 0
 565 02c0 2E2A     		cmp	r2, #46
 566 02c2 A1D1     		bne	.L105
 567 02c4 9BF80120 		ldrb	r2, [fp, #1]	@ zero_extendqisi2
 568              		.loc 1 233 0
 569 02c8 01EB6101 		add	r1, r1, r1, asr #1
 570              	.LVL68:
ARM GAS  /var/folders/6q/x_mk5n_j3p7_c40r_2k_78980000gn/T//cc9sDcHZ.s 			page 11


 571              		.loc 1 234 0
 572 02cc 0BF1010B 		add	fp, fp, #1
 573              	.LVL69:
 574 02d0 9AE7     		b	.L105
 575              	.LVL70:
 576              	.L65:
 577              		.loc 1 244 0
 578 02d2 0020     		movs	r0, #0
 579 02d4 C3E7     		b	.L51
 580              	.LVL71:
 581              	.L111:
 582              		.loc 1 228 0
 583 02d6 9BF80120 		ldrb	r2, [fp, #1]	@ zero_extendqisi2
 584              		.loc 1 224 0
 585 02da 0BF10103 		add	r3, fp, #1
 586              		.loc 1 228 0
 587 02de A2F1300E 		sub	lr, r2, #48
 588 02e2 5FFA8EF0 		uxtb	r0, lr
 589 02e6 0928     		cmp	r0, #9
 590              		.loc 1 223 0
 591 02e8 01EB6101 		add	r1, r1, r1, asr #1
 592              	.LVL72:
 593              		.loc 1 224 0
 594 02ec 9B46     		mov	fp, r3
 595              		.loc 1 228 0
 596 02ee E3D9     		bls	.L56
 597 02f0 B646     		mov	lr, r6
 598 02f2 E5E7     		b	.L46
 599              	.LVL73:
 600              	.L110:
 601 02f4 9BF80120 		ldrb	r2, [fp, #1]	@ zero_extendqisi2
 602              		.loc 1 216 0
 603 02f8 0CF1FF3C 		add	ip, ip, #-1
 604              	.LVL74:
 605              		.loc 1 217 0
 606 02fc 0BF1010B 		add	fp, fp, #1
 607              	.LVL75:
 608 0300 6DE7     		b	.L44
 609              	.LVL76:
 610              	.L40:
 611              		.loc 1 202 0
 612 0302 4FF0070C 		mov	ip, #7
 613 0306 5BE7     		b	.L36
 614              	.LVL77:
 615              	.L39:
 616              		.loc 1 201 0
 617 0308 4FF0050C 		mov	ip, #5
 618 030c 58E7     		b	.L36
 619              	.LVL78:
 620              	.L38:
 621              		.loc 1 200 0
 622 030e 4FF0040C 		mov	ip, #4
 623 0312 55E7     		b	.L36
 624              	.LVL79:
 625              	.L37:
 626              		.loc 1 199 0
 627 0314 4FF0020C 		mov	ip, #2
ARM GAS  /var/folders/6q/x_mk5n_j3p7_c40r_2k_78980000gn/T//cc9sDcHZ.s 			page 12


 628 0318 52E7     		b	.L36
 629              	.LVL80:
 630              	.L34:
 631              		.loc 1 203 0
 632 031a 4FF0090C 		mov	ip, #9
 633 031e 4FE7     		b	.L36
 634              	.LVL81:
 635              	.L32:
 636              		.loc 1 175 0
 637 0320 4FF0FF3C 		mov	ip, #-1
 638 0324 4CE7     		b	.L36
 639              	.L115:
 640 0326 00BF     		.align	2
 641              	.L114:
 642 0328 00000000 		.word	.LANCHOR0
 643              	.LBE20:
 644              		.cfi_endproc
 645              	.LFE64:
 646              		.size	vexAudioPlayRtttl, .-vexAudioPlayRtttl
 647              		.section	.rodata.notefreq,"a",%progbits
 648              		.align	2
 649              		.set	.LANCHOR1,. + 0
 650              		.type	notefreq, %object
 651              		.size	notefreq, 48
 652              	notefreq:
 653 0000 5A100000 		.word	4186
 654 0004 52110000 		.word	4434
 655 0008 5A120000 		.word	4698
 656 000c 72130000 		.word	4978
 657 0010 9A140000 		.word	5274
 658 0014 D3150000 		.word	5587
 659 0018 1F170000 		.word	5919
 660 001c 7F180000 		.word	6271
 661 0020 F4190000 		.word	6644
 662 0024 801B0000 		.word	7040
 663 0028 221D0000 		.word	7458
 664 002c DE1E0000 		.word	7902
 665              		.section	.rodata.str1.4,"aMS",%progbits,1
 666              		.align	2
 667              	.LC0:
 668 0000 00       		.ascii	"\000"
 669              		.section	.bss.name,"aw",%nobits
 670              		.align	2
 671              		.set	.LANCHOR0,. + 0
 672              		.type	name, %object
 673              		.size	name, 48
 674              	name:
 675 0000 00000000 		.space	48
 675      00000000 
 675      00000000 
 675      00000000 
 675      00000000 
 676              		.text
 677              	.Letext0:
 678              		.file 2 "/Users/Luca/src/vexilla/src/gcc-arm-none-eabi-5_4-2016q3/arm-none-eabi/include/machine/_d
 679              		.file 3 "/Users/Luca/src/vexilla/src/gcc-arm-none-eabi-5_4-2016q3/arm-none-eabi/include/sys/_stdin
 680              		.file 4 "../convex-vexilla/cortex/fw/vexdigital.h"
ARM GAS  /var/folders/6q/x_mk5n_j3p7_c40r_2k_78980000gn/T//cc9sDcHZ.s 			page 13


 681              		.file 5 "../convex-vexilla/cortex/fw/vexime.h"
 682              		.file 6 "../convex-vexilla/cortex/fw/vexaudio.h"
 683              		.file 7 "../ChibiOS/os/ports/common/ARMCMx/CMSIS/include/core_cm3.h"
 684              		.section	.debug_info,"",%progbits
 685              	.Ldebug_info0:
 686 0000 90030000 		.4byte	0x390
 687 0004 0400     		.2byte	0x4
 688 0006 00000000 		.4byte	.Ldebug_abbrev0
 689 000a 04       		.byte	0x4
 690 000b 01       		.uleb128 0x1
 691 000c EC000000 		.4byte	.LASF57
 692 0010 0C       		.byte	0xc
 693 0011 9B030000 		.4byte	.LASF58
 694 0015 F0030000 		.4byte	.LASF59
 695 0019 80000000 		.4byte	.Ldebug_ranges0+0x80
 696 001d 00000000 		.4byte	0
 697 0021 00000000 		.4byte	.Ldebug_line0
 698 0025 02       		.uleb128 0x2
 699 0026 04       		.byte	0x4
 700 0027 05       		.byte	0x5
 701 0028 696E7400 		.ascii	"int\000"
 702 002c 03       		.uleb128 0x3
 703 002d 04       		.byte	0x4
 704 002e 07       		.byte	0x7
 705 002f E3030000 		.4byte	.LASF0
 706 0033 03       		.uleb128 0x3
 707 0034 08       		.byte	0x8
 708 0035 05       		.byte	0x5
 709 0036 F8010000 		.4byte	.LASF1
 710 003a 03       		.uleb128 0x3
 711 003b 08       		.byte	0x8
 712 003c 04       		.byte	0x4
 713 003d 2A020000 		.4byte	.LASF2
 714 0041 03       		.uleb128 0x3
 715 0042 01       		.byte	0x1
 716 0043 06       		.byte	0x6
 717 0044 52020000 		.4byte	.LASF3
 718 0048 03       		.uleb128 0x3
 719 0049 01       		.byte	0x1
 720 004a 08       		.byte	0x8
 721 004b 44020000 		.4byte	.LASF4
 722 004f 03       		.uleb128 0x3
 723 0050 02       		.byte	0x2
 724 0051 05       		.byte	0x5
 725 0052 83000000 		.4byte	.LASF5
 726 0056 03       		.uleb128 0x3
 727 0057 02       		.byte	0x2
 728 0058 07       		.byte	0x7
 729 0059 B9020000 		.4byte	.LASF6
 730 005d 04       		.uleb128 0x4
 731 005e 91030000 		.4byte	.LASF10
 732 0062 02       		.byte	0x2
 733 0063 3F       		.byte	0x3f
 734 0064 68000000 		.4byte	0x68
 735 0068 03       		.uleb128 0x3
 736 0069 04       		.byte	0x4
 737 006a 05       		.byte	0x5
ARM GAS  /var/folders/6q/x_mk5n_j3p7_c40r_2k_78980000gn/T//cc9sDcHZ.s 			page 14


 738 006b 06020000 		.4byte	.LASF7
 739 006f 03       		.uleb128 0x3
 740 0070 04       		.byte	0x4
 741 0071 07       		.byte	0x7
 742 0072 61030000 		.4byte	.LASF8
 743 0076 03       		.uleb128 0x3
 744 0077 08       		.byte	0x8
 745 0078 07       		.byte	0x7
 746 0079 68020000 		.4byte	.LASF9
 747 007d 04       		.uleb128 0x4
 748 007e ED020000 		.4byte	.LASF11
 749 0082 03       		.byte	0x3
 750 0083 2C       		.byte	0x2c
 751 0084 5D000000 		.4byte	0x5d
 752 0088 03       		.uleb128 0x3
 753 0089 01       		.byte	0x1
 754 008a 02       		.byte	0x2
 755 008b 49030000 		.4byte	.LASF12
 756 008f 03       		.uleb128 0x3
 757 0090 04       		.byte	0x4
 758 0091 07       		.byte	0x7
 759 0092 8D000000 		.4byte	.LASF13
 760 0096 03       		.uleb128 0x3
 761 0097 01       		.byte	0x1
 762 0098 08       		.byte	0x8
 763 0099 CC020000 		.4byte	.LASF14
 764 009d 05       		.uleb128 0x5
 765 009e 7D000000 		.4byte	0x7d
 766 00a2 06       		.uleb128 0x6
 767 00a3 01       		.byte	0x1
 768 00a4 41000000 		.4byte	0x41
 769 00a8 04       		.byte	0x4
 770 00a9 8D       		.byte	0x8d
 771 00aa 03010000 		.4byte	0x103
 772 00ae 07       		.uleb128 0x7
 773 00af 00000000 		.4byte	.LASF15
 774 00b3 7F       		.sleb128 -1
 775 00b4 08       		.uleb128 0x8
 776 00b5 D1020000 		.4byte	.LASF16
 777 00b9 00       		.byte	0
 778 00ba 08       		.uleb128 0x8
 779 00bb DF020000 		.4byte	.LASF17
 780 00bf 01       		.byte	0x1
 781 00c0 08       		.uleb128 0x8
 782 00c1 85020000 		.4byte	.LASF18
 783 00c5 02       		.byte	0x2
 784 00c6 08       		.uleb128 0x8
 785 00c7 F5020000 		.4byte	.LASF19
 786 00cb 03       		.byte	0x3
 787 00cc 08       		.uleb128 0x8
 788 00cd 03030000 		.4byte	.LASF20
 789 00d1 04       		.byte	0x4
 790 00d2 08       		.uleb128 0x8
 791 00d3 11030000 		.4byte	.LASF21
 792 00d7 05       		.byte	0x5
 793 00d8 08       		.uleb128 0x8
 794 00d9 1F030000 		.4byte	.LASF22
ARM GAS  /var/folders/6q/x_mk5n_j3p7_c40r_2k_78980000gn/T//cc9sDcHZ.s 			page 15


 795 00dd 06       		.byte	0x6
 796 00de 08       		.uleb128 0x8
 797 00df 2D030000 		.4byte	.LASF23
 798 00e3 07       		.byte	0x7
 799 00e4 08       		.uleb128 0x8
 800 00e5 3B030000 		.4byte	.LASF24
 801 00e9 08       		.byte	0x8
 802 00ea 08       		.uleb128 0x8
 803 00eb C6010000 		.4byte	.LASF25
 804 00ef 09       		.byte	0x9
 805 00f0 08       		.uleb128 0x8
 806 00f1 D5010000 		.4byte	.LASF26
 807 00f5 0A       		.byte	0xa
 808 00f6 08       		.uleb128 0x8
 809 00f7 E4010000 		.4byte	.LASF27
 810 00fb 0B       		.byte	0xb
 811 00fc 08       		.uleb128 0x8
 812 00fd C1030000 		.4byte	.LASF28
 813 0101 0C       		.byte	0xc
 814 0102 00       		.byte	0
 815 0103 06       		.uleb128 0x6
 816 0104 01       		.byte	0x1
 817 0105 48000000 		.4byte	0x48
 818 0109 04       		.byte	0x4
 819 010a A2       		.byte	0xa2
 820 010b 1C010000 		.4byte	0x11c
 821 010f 08       		.uleb128 0x8
 822 0110 14020000 		.4byte	.LASF29
 823 0114 00       		.byte	0
 824 0115 08       		.uleb128 0x8
 825 0116 D4000000 		.4byte	.LASF30
 826 011a 01       		.byte	0x1
 827 011b 00       		.byte	0
 828 011c 06       		.uleb128 0x6
 829 011d 01       		.byte	0x1
 830 011e 48000000 		.4byte	0x48
 831 0122 05       		.byte	0x5
 832 0123 46       		.byte	0x46
 833 0124 65010000 		.4byte	0x165
 834 0128 08       		.uleb128 0x8
 835 0129 36020000 		.4byte	.LASF31
 836 012d 00       		.byte	0
 837 012e 08       		.uleb128 0x8
 838 012f 21000000 		.4byte	.LASF32
 839 0133 01       		.byte	0x1
 840 0134 08       		.uleb128 0x8
 841 0135 2F000000 		.4byte	.LASF33
 842 0139 02       		.byte	0x2
 843 013a 08       		.uleb128 0x8
 844 013b 3D000000 		.4byte	.LASF34
 845 013f 03       		.byte	0x3
 846 0140 08       		.uleb128 0x8
 847 0141 4B000000 		.4byte	.LASF35
 848 0145 04       		.byte	0x4
 849 0146 08       		.uleb128 0x8
 850 0147 59000000 		.4byte	.LASF36
 851 014b 05       		.byte	0x5
ARM GAS  /var/folders/6q/x_mk5n_j3p7_c40r_2k_78980000gn/T//cc9sDcHZ.s 			page 16


 852 014c 08       		.uleb128 0x8
 853 014d 67000000 		.4byte	.LASF37
 854 0151 06       		.byte	0x6
 855 0152 08       		.uleb128 0x8
 856 0153 75000000 		.4byte	.LASF38
 857 0157 07       		.byte	0x7
 858 0158 08       		.uleb128 0x8
 859 0159 96000000 		.4byte	.LASF39
 860 015d 08       		.byte	0x8
 861 015e 08       		.uleb128 0x8
 862 015f 11000000 		.4byte	.LASF40
 863 0163 63       		.byte	0x63
 864 0164 00       		.byte	0
 865 0165 09       		.uleb128 0x9
 866 0166 04       		.byte	0x4
 867 0167 96000000 		.4byte	0x96
 868 016b 0A       		.uleb128 0xa
 869 016c A9000000 		.4byte	.LASF60
 870 0170 01       		.byte	0x1
 871 0171 62       		.byte	0x62
 872 0172 25000000 		.4byte	0x25
 873 0176 01       		.byte	0x1
 874 0177 87010000 		.4byte	0x187
 875 017b 0B       		.uleb128 0xb
 876 017c 0F020000 		.4byte	.LASF49
 877 0180 01       		.byte	0x1
 878 0181 62       		.byte	0x62
 879 0182 25000000 		.4byte	0x25
 880 0186 00       		.byte	0
 881 0187 0C       		.uleb128 0xc
 882 0188 4F030000 		.4byte	.LASF61
 883 018c 01       		.byte	0x1
 884 018d 70       		.byte	0x70
 885 018e 65010000 		.4byte	0x165
 886 0192 00000000 		.4byte	.LFB64
 887 0196 2C030000 		.4byte	.LFE64-.LFB64
 888 019a 01       		.uleb128 0x1
 889 019b 9C       		.byte	0x9c
 890 019c 1F030000 		.4byte	0x31f
 891 01a0 0D       		.uleb128 0xd
 892 01a1 D1030000 		.4byte	.LASF41
 893 01a5 01       		.byte	0x1
 894 01a6 70       		.byte	0x70
 895 01a7 65010000 		.4byte	0x165
 896 01ab 00000000 		.4byte	.LLST0
 897 01af 0D       		.uleb128 0xd
 898 01b0 5E020000 		.4byte	.LASF42
 899 01b4 01       		.byte	0x1
 900 01b5 70       		.byte	0x70
 901 01b6 25000000 		.4byte	0x25
 902 01ba 21000000 		.4byte	.LLST1
 903 01be 0D       		.uleb128 0xd
 904 01bf B3000000 		.4byte	.LASF43
 905 01c3 01       		.byte	0x1
 906 01c4 70       		.byte	0x70
 907 01c5 25000000 		.4byte	0x25
 908 01c9 3F000000 		.4byte	.LLST2
ARM GAS  /var/folders/6q/x_mk5n_j3p7_c40r_2k_78980000gn/T//cc9sDcHZ.s 			page 17


 909 01cd 0E       		.uleb128 0xe
 910 01ce 7000     		.ascii	"p\000"
 911 01d0 01       		.byte	0x1
 912 01d1 72       		.byte	0x72
 913 01d2 65010000 		.4byte	0x165
 914 01d6 5E000000 		.4byte	.LLST3
 915 01da 0E       		.uleb128 0xe
 916 01db 7100     		.ascii	"q\000"
 917 01dd 01       		.byte	0x1
 918 01de 73       		.byte	0x73
 919 01df 65010000 		.4byte	0x165
 920 01e3 CE010000 		.4byte	.LLST4
 921 01e7 0F       		.uleb128 0xf
 922 01e8 B2020000 		.4byte	.LASF44
 923 01ec 01       		.byte	0x1
 924 01ed 74       		.byte	0x74
 925 01ee 25000000 		.4byte	0x25
 926 01f2 2C020000 		.4byte	.LLST5
 927 01f6 0F       		.uleb128 0xf
 928 01f7 A0000000 		.4byte	.LASF45
 929 01fb 01       		.byte	0x1
 930 01fc 75       		.byte	0x75
 931 01fd 25000000 		.4byte	0x25
 932 0201 4B020000 		.4byte	.LLST6
 933 0205 0E       		.uleb128 0xe
 934 0206 62706D00 		.ascii	"bpm\000"
 935 020a 01       		.byte	0x1
 936 020b 76       		.byte	0x76
 937 020c 25000000 		.4byte	0x25
 938 0210 5F020000 		.4byte	.LLST7
 939 0214 0F       		.uleb128 0xf
 940 0215 8B030000 		.4byte	.LASF46
 941 0219 01       		.byte	0x1
 942 021a 77       		.byte	0x77
 943 021b 25000000 		.4byte	0x25
 944 021f 95020000 		.4byte	.LLST8
 945 0223 10       		.uleb128 0x10
 946 0224 00000000 		.4byte	.Ldebug_ranges0+0
 947 0228 4B020000 		.4byte	0x24b
 948 022c 0F       		.uleb128 0xf
 949 022d AC020000 		.4byte	.LASF47
 950 0231 01       		.byte	0x1
 951 0232 87       		.byte	0x87
 952 0233 96000000 		.4byte	0x96
 953 0237 D9020000 		.4byte	.LLST9
 954 023b 0F       		.uleb128 0xf
 955 023c E6000000 		.4byte	.LASF48
 956 0240 01       		.byte	0x1
 957 0241 88       		.byte	0x88
 958 0242 25000000 		.4byte	0x25
 959 0246 F7020000 		.4byte	.LLST10
 960 024a 00       		.byte	0
 961 024b 10       		.uleb128 0x10
 962 024c 20000000 		.4byte	.Ldebug_ranges0+0x20
 963 0250 E5020000 		.4byte	0x2e5
 964 0254 0F       		.uleb128 0xf
 965 0255 0F020000 		.4byte	.LASF49
ARM GAS  /var/folders/6q/x_mk5n_j3p7_c40r_2k_78980000gn/T//cc9sDcHZ.s 			page 18


 966 0259 01       		.byte	0x1
 967 025a AF       		.byte	0xaf
 968 025b 25000000 		.4byte	0x25
 969 025f 21030000 		.4byte	.LLST11
 970 0263 0F       		.uleb128 0xf
 971 0264 7F020000 		.4byte	.LASF50
 972 0268 01       		.byte	0x1
 973 0269 B0       		.byte	0xb0
 974 026a 25000000 		.4byte	0x25
 975 026e 87030000 		.4byte	.LLST12
 976 0272 0E       		.uleb128 0xe
 977 0273 64757200 		.ascii	"dur\000"
 978 0277 01       		.byte	0x1
 979 0278 B1       		.byte	0xb1
 980 0279 25000000 		.4byte	0x25
 981 027d 9A030000 		.4byte	.LLST13
 982 0281 0E       		.uleb128 0xe
 983 0282 6D7300   		.ascii	"ms\000"
 984 0285 01       		.byte	0x1
 985 0286 B2       		.byte	0xb2
 986 0287 25000000 		.4byte	0x25
 987 028b D9030000 		.4byte	.LLST14
 988 028f 0F       		.uleb128 0xf
 989 0290 F3010000 		.4byte	.LASF51
 990 0294 01       		.byte	0x1
 991 0295 B3       		.byte	0xb3
 992 0296 25000000 		.4byte	0x25
 993 029a F7030000 		.4byte	.LLST15
 994 029e 11       		.uleb128 0x11
 995 029f 6B010000 		.4byte	0x16b
 996 02a3 0A010000 		.4byte	.LBB10
 997 02a7 48000000 		.4byte	.Ldebug_ranges0+0x48
 998 02ab 01       		.byte	0x1
 999 02ac F6       		.byte	0xf6
 1000 02ad BB020000 		.4byte	0x2bb
 1001 02b1 12       		.uleb128 0x12
 1002 02b2 7B010000 		.4byte	0x17b
 1003 02b6 0A040000 		.4byte	.LLST16
 1004 02ba 00       		.byte	0
 1005 02bb 10       		.uleb128 0x10
 1006 02bc 60000000 		.4byte	.Ldebug_ranges0+0x60
 1007 02c0 D4020000 		.4byte	0x2d4
 1008 02c4 0F       		.uleb128 0xf
 1009 02c5 E6000000 		.4byte	.LASF48
 1010 02c9 01       		.byte	0x1
 1011 02ca BC       		.byte	0xbc
 1012 02cb 25000000 		.4byte	0x25
 1013 02cf 1D040000 		.4byte	.LLST17
 1014 02d3 00       		.byte	0
 1015 02d4 13       		.uleb128 0x13
 1016 02d5 64020000 		.4byte	.LVL55
 1017 02d9 72030000 		.4byte	0x372
 1018 02dd 14       		.uleb128 0x14
 1019 02de 01       		.uleb128 0x1
 1020 02df 51       		.byte	0x51
 1021 02e0 02       		.uleb128 0x2
 1022 02e1 77       		.byte	0x77
ARM GAS  /var/folders/6q/x_mk5n_j3p7_c40r_2k_78980000gn/T//cc9sDcHZ.s 			page 19


 1023 02e2 00       		.sleb128 0
 1024 02e3 00       		.byte	0
 1025 02e4 00       		.byte	0
 1026 02e5 15       		.uleb128 0x15
 1027 02e6 00010000 		.4byte	.LVL32
 1028 02ea 7D030000 		.4byte	0x37d
 1029 02ee 16       		.uleb128 0x16
 1030 02ef 7A020000 		.4byte	.LVL56
 1031 02f3 72030000 		.4byte	0x372
 1032 02f7 0D030000 		.4byte	0x30d
 1033 02fb 14       		.uleb128 0x14
 1034 02fc 01       		.uleb128 0x1
 1035 02fd 50       		.byte	0x50
 1036 02fe 01       		.uleb128 0x1
 1037 02ff 30       		.byte	0x30
 1038 0300 14       		.uleb128 0x14
 1039 0301 01       		.uleb128 0x1
 1040 0302 51       		.byte	0x51
 1041 0303 01       		.uleb128 0x1
 1042 0304 30       		.byte	0x30
 1043 0305 14       		.uleb128 0x14
 1044 0306 01       		.uleb128 0x1
 1045 0307 52       		.byte	0x52
 1046 0308 03       		.uleb128 0x3
 1047 0309 0A       		.byte	0xa
 1048 030a F401     		.2byte	0x1f4
 1049 030c 00       		.byte	0
 1050 030d 13       		.uleb128 0x13
 1051 030e 80020000 		.4byte	.LVL57
 1052 0312 88030000 		.4byte	0x388
 1053 0316 14       		.uleb128 0x14
 1054 0317 01       		.uleb128 0x1
 1055 0318 50       		.byte	0x50
 1056 0319 03       		.uleb128 0x3
 1057 031a 91       		.byte	0x91
 1058 031b 54       		.sleb128 -44
 1059 031c 06       		.byte	0x6
 1060 031d 00       		.byte	0
 1061 031e 00       		.byte	0
 1062 031f 17       		.uleb128 0x17
 1063 0320 25000000 		.4byte	0x25
 1064 0324 2F030000 		.4byte	0x32f
 1065 0328 18       		.uleb128 0x18
 1066 0329 8F000000 		.4byte	0x8f
 1067 032d 0B       		.byte	0xb
 1068 032e 00       		.byte	0
 1069 032f 19       		.uleb128 0x19
 1070 0330 12040000 		.4byte	.LASF52
 1071 0334 01       		.byte	0x1
 1072 0335 5C       		.byte	0x5c
 1073 0336 40030000 		.4byte	0x340
 1074 033a 05       		.uleb128 0x5
 1075 033b 03       		.byte	0x3
 1076 033c 00000000 		.4byte	notefreq
 1077 0340 1A       		.uleb128 0x1a
 1078 0341 1F030000 		.4byte	0x31f
 1079 0345 17       		.uleb128 0x17
ARM GAS  /var/folders/6q/x_mk5n_j3p7_c40r_2k_78980000gn/T//cc9sDcHZ.s 			page 20


 1080 0346 96000000 		.4byte	0x96
 1081 034a 55030000 		.4byte	0x355
 1082 034e 18       		.uleb128 0x18
 1083 034f 8F000000 		.4byte	0x8f
 1084 0353 2F       		.byte	0x2f
 1085 0354 00       		.byte	0
 1086 0355 19       		.uleb128 0x19
 1087 0356 25020000 		.4byte	.LASF53
 1088 035a 01       		.byte	0x1
 1089 035b 5F       		.byte	0x5f
 1090 035c 45030000 		.4byte	0x345
 1091 0360 05       		.uleb128 0x5
 1092 0361 03       		.byte	0x3
 1093 0362 00000000 		.4byte	name
 1094 0366 1B       		.uleb128 0x1b
 1095 0367 D6030000 		.4byte	.LASF62
 1096 036b 07       		.byte	0x7
 1097 036c 0706     		.2byte	0x607
 1098 036e 9D000000 		.4byte	0x9d
 1099 0372 1C       		.uleb128 0x1c
 1100 0373 73030000 		.4byte	.LASF54
 1101 0377 73030000 		.4byte	.LASF54
 1102 037b 06       		.byte	0x6
 1103 037c 4C       		.byte	0x4c
 1104 037d 1C       		.uleb128 0x1c
 1105 037e 93020000 		.4byte	.LASF55
 1106 0382 93020000 		.4byte	.LASF55
 1107 0386 06       		.byte	0x6
 1108 0387 48       		.byte	0x48
 1109 0388 1C       		.uleb128 0x1c
 1110 0389 BA000000 		.4byte	.LASF56
 1111 038d BA000000 		.4byte	.LASF56
 1112 0391 06       		.byte	0x6
 1113 0392 4A       		.byte	0x4a
 1114 0393 00       		.byte	0
 1115              		.section	.debug_abbrev,"",%progbits
 1116              	.Ldebug_abbrev0:
 1117 0000 01       		.uleb128 0x1
 1118 0001 11       		.uleb128 0x11
 1119 0002 01       		.byte	0x1
 1120 0003 25       		.uleb128 0x25
 1121 0004 0E       		.uleb128 0xe
 1122 0005 13       		.uleb128 0x13
 1123 0006 0B       		.uleb128 0xb
 1124 0007 03       		.uleb128 0x3
 1125 0008 0E       		.uleb128 0xe
 1126 0009 1B       		.uleb128 0x1b
 1127 000a 0E       		.uleb128 0xe
 1128 000b 55       		.uleb128 0x55
 1129 000c 17       		.uleb128 0x17
 1130 000d 11       		.uleb128 0x11
 1131 000e 01       		.uleb128 0x1
 1132 000f 10       		.uleb128 0x10
 1133 0010 17       		.uleb128 0x17
 1134 0011 00       		.byte	0
 1135 0012 00       		.byte	0
 1136 0013 02       		.uleb128 0x2
ARM GAS  /var/folders/6q/x_mk5n_j3p7_c40r_2k_78980000gn/T//cc9sDcHZ.s 			page 21


 1137 0014 24       		.uleb128 0x24
 1138 0015 00       		.byte	0
 1139 0016 0B       		.uleb128 0xb
 1140 0017 0B       		.uleb128 0xb
 1141 0018 3E       		.uleb128 0x3e
 1142 0019 0B       		.uleb128 0xb
 1143 001a 03       		.uleb128 0x3
 1144 001b 08       		.uleb128 0x8
 1145 001c 00       		.byte	0
 1146 001d 00       		.byte	0
 1147 001e 03       		.uleb128 0x3
 1148 001f 24       		.uleb128 0x24
 1149 0020 00       		.byte	0
 1150 0021 0B       		.uleb128 0xb
 1151 0022 0B       		.uleb128 0xb
 1152 0023 3E       		.uleb128 0x3e
 1153 0024 0B       		.uleb128 0xb
 1154 0025 03       		.uleb128 0x3
 1155 0026 0E       		.uleb128 0xe
 1156 0027 00       		.byte	0
 1157 0028 00       		.byte	0
 1158 0029 04       		.uleb128 0x4
 1159 002a 16       		.uleb128 0x16
 1160 002b 00       		.byte	0
 1161 002c 03       		.uleb128 0x3
 1162 002d 0E       		.uleb128 0xe
 1163 002e 3A       		.uleb128 0x3a
 1164 002f 0B       		.uleb128 0xb
 1165 0030 3B       		.uleb128 0x3b
 1166 0031 0B       		.uleb128 0xb
 1167 0032 49       		.uleb128 0x49
 1168 0033 13       		.uleb128 0x13
 1169 0034 00       		.byte	0
 1170 0035 00       		.byte	0
 1171 0036 05       		.uleb128 0x5
 1172 0037 35       		.uleb128 0x35
 1173 0038 00       		.byte	0
 1174 0039 49       		.uleb128 0x49
 1175 003a 13       		.uleb128 0x13
 1176 003b 00       		.byte	0
 1177 003c 00       		.byte	0
 1178 003d 06       		.uleb128 0x6
 1179 003e 04       		.uleb128 0x4
 1180 003f 01       		.byte	0x1
 1181 0040 0B       		.uleb128 0xb
 1182 0041 0B       		.uleb128 0xb
 1183 0042 49       		.uleb128 0x49
 1184 0043 13       		.uleb128 0x13
 1185 0044 3A       		.uleb128 0x3a
 1186 0045 0B       		.uleb128 0xb
 1187 0046 3B       		.uleb128 0x3b
 1188 0047 0B       		.uleb128 0xb
 1189 0048 01       		.uleb128 0x1
 1190 0049 13       		.uleb128 0x13
 1191 004a 00       		.byte	0
 1192 004b 00       		.byte	0
 1193 004c 07       		.uleb128 0x7
ARM GAS  /var/folders/6q/x_mk5n_j3p7_c40r_2k_78980000gn/T//cc9sDcHZ.s 			page 22


 1194 004d 28       		.uleb128 0x28
 1195 004e 00       		.byte	0
 1196 004f 03       		.uleb128 0x3
 1197 0050 0E       		.uleb128 0xe
 1198 0051 1C       		.uleb128 0x1c
 1199 0052 0D       		.uleb128 0xd
 1200 0053 00       		.byte	0
 1201 0054 00       		.byte	0
 1202 0055 08       		.uleb128 0x8
 1203 0056 28       		.uleb128 0x28
 1204 0057 00       		.byte	0
 1205 0058 03       		.uleb128 0x3
 1206 0059 0E       		.uleb128 0xe
 1207 005a 1C       		.uleb128 0x1c
 1208 005b 0B       		.uleb128 0xb
 1209 005c 00       		.byte	0
 1210 005d 00       		.byte	0
 1211 005e 09       		.uleb128 0x9
 1212 005f 0F       		.uleb128 0xf
 1213 0060 00       		.byte	0
 1214 0061 0B       		.uleb128 0xb
 1215 0062 0B       		.uleb128 0xb
 1216 0063 49       		.uleb128 0x49
 1217 0064 13       		.uleb128 0x13
 1218 0065 00       		.byte	0
 1219 0066 00       		.byte	0
 1220 0067 0A       		.uleb128 0xa
 1221 0068 2E       		.uleb128 0x2e
 1222 0069 01       		.byte	0x1
 1223 006a 03       		.uleb128 0x3
 1224 006b 0E       		.uleb128 0xe
 1225 006c 3A       		.uleb128 0x3a
 1226 006d 0B       		.uleb128 0xb
 1227 006e 3B       		.uleb128 0x3b
 1228 006f 0B       		.uleb128 0xb
 1229 0070 27       		.uleb128 0x27
 1230 0071 19       		.uleb128 0x19
 1231 0072 49       		.uleb128 0x49
 1232 0073 13       		.uleb128 0x13
 1233 0074 20       		.uleb128 0x20
 1234 0075 0B       		.uleb128 0xb
 1235 0076 01       		.uleb128 0x1
 1236 0077 13       		.uleb128 0x13
 1237 0078 00       		.byte	0
 1238 0079 00       		.byte	0
 1239 007a 0B       		.uleb128 0xb
 1240 007b 05       		.uleb128 0x5
 1241 007c 00       		.byte	0
 1242 007d 03       		.uleb128 0x3
 1243 007e 0E       		.uleb128 0xe
 1244 007f 3A       		.uleb128 0x3a
 1245 0080 0B       		.uleb128 0xb
 1246 0081 3B       		.uleb128 0x3b
 1247 0082 0B       		.uleb128 0xb
 1248 0083 49       		.uleb128 0x49
 1249 0084 13       		.uleb128 0x13
 1250 0085 00       		.byte	0
ARM GAS  /var/folders/6q/x_mk5n_j3p7_c40r_2k_78980000gn/T//cc9sDcHZ.s 			page 23


 1251 0086 00       		.byte	0
 1252 0087 0C       		.uleb128 0xc
 1253 0088 2E       		.uleb128 0x2e
 1254 0089 01       		.byte	0x1
 1255 008a 3F       		.uleb128 0x3f
 1256 008b 19       		.uleb128 0x19
 1257 008c 03       		.uleb128 0x3
 1258 008d 0E       		.uleb128 0xe
 1259 008e 3A       		.uleb128 0x3a
 1260 008f 0B       		.uleb128 0xb
 1261 0090 3B       		.uleb128 0x3b
 1262 0091 0B       		.uleb128 0xb
 1263 0092 27       		.uleb128 0x27
 1264 0093 19       		.uleb128 0x19
 1265 0094 49       		.uleb128 0x49
 1266 0095 13       		.uleb128 0x13
 1267 0096 11       		.uleb128 0x11
 1268 0097 01       		.uleb128 0x1
 1269 0098 12       		.uleb128 0x12
 1270 0099 06       		.uleb128 0x6
 1271 009a 40       		.uleb128 0x40
 1272 009b 18       		.uleb128 0x18
 1273 009c 9742     		.uleb128 0x2117
 1274 009e 19       		.uleb128 0x19
 1275 009f 01       		.uleb128 0x1
 1276 00a0 13       		.uleb128 0x13
 1277 00a1 00       		.byte	0
 1278 00a2 00       		.byte	0
 1279 00a3 0D       		.uleb128 0xd
 1280 00a4 05       		.uleb128 0x5
 1281 00a5 00       		.byte	0
 1282 00a6 03       		.uleb128 0x3
 1283 00a7 0E       		.uleb128 0xe
 1284 00a8 3A       		.uleb128 0x3a
 1285 00a9 0B       		.uleb128 0xb
 1286 00aa 3B       		.uleb128 0x3b
 1287 00ab 0B       		.uleb128 0xb
 1288 00ac 49       		.uleb128 0x49
 1289 00ad 13       		.uleb128 0x13
 1290 00ae 02       		.uleb128 0x2
 1291 00af 17       		.uleb128 0x17
 1292 00b0 00       		.byte	0
 1293 00b1 00       		.byte	0
 1294 00b2 0E       		.uleb128 0xe
 1295 00b3 34       		.uleb128 0x34
 1296 00b4 00       		.byte	0
 1297 00b5 03       		.uleb128 0x3
 1298 00b6 08       		.uleb128 0x8
 1299 00b7 3A       		.uleb128 0x3a
 1300 00b8 0B       		.uleb128 0xb
 1301 00b9 3B       		.uleb128 0x3b
 1302 00ba 0B       		.uleb128 0xb
 1303 00bb 49       		.uleb128 0x49
 1304 00bc 13       		.uleb128 0x13
 1305 00bd 02       		.uleb128 0x2
 1306 00be 17       		.uleb128 0x17
 1307 00bf 00       		.byte	0
ARM GAS  /var/folders/6q/x_mk5n_j3p7_c40r_2k_78980000gn/T//cc9sDcHZ.s 			page 24


 1308 00c0 00       		.byte	0
 1309 00c1 0F       		.uleb128 0xf
 1310 00c2 34       		.uleb128 0x34
 1311 00c3 00       		.byte	0
 1312 00c4 03       		.uleb128 0x3
 1313 00c5 0E       		.uleb128 0xe
 1314 00c6 3A       		.uleb128 0x3a
 1315 00c7 0B       		.uleb128 0xb
 1316 00c8 3B       		.uleb128 0x3b
 1317 00c9 0B       		.uleb128 0xb
 1318 00ca 49       		.uleb128 0x49
 1319 00cb 13       		.uleb128 0x13
 1320 00cc 02       		.uleb128 0x2
 1321 00cd 17       		.uleb128 0x17
 1322 00ce 00       		.byte	0
 1323 00cf 00       		.byte	0
 1324 00d0 10       		.uleb128 0x10
 1325 00d1 0B       		.uleb128 0xb
 1326 00d2 01       		.byte	0x1
 1327 00d3 55       		.uleb128 0x55
 1328 00d4 17       		.uleb128 0x17
 1329 00d5 01       		.uleb128 0x1
 1330 00d6 13       		.uleb128 0x13
 1331 00d7 00       		.byte	0
 1332 00d8 00       		.byte	0
 1333 00d9 11       		.uleb128 0x11
 1334 00da 1D       		.uleb128 0x1d
 1335 00db 01       		.byte	0x1
 1336 00dc 31       		.uleb128 0x31
 1337 00dd 13       		.uleb128 0x13
 1338 00de 52       		.uleb128 0x52
 1339 00df 01       		.uleb128 0x1
 1340 00e0 55       		.uleb128 0x55
 1341 00e1 17       		.uleb128 0x17
 1342 00e2 58       		.uleb128 0x58
 1343 00e3 0B       		.uleb128 0xb
 1344 00e4 59       		.uleb128 0x59
 1345 00e5 0B       		.uleb128 0xb
 1346 00e6 01       		.uleb128 0x1
 1347 00e7 13       		.uleb128 0x13
 1348 00e8 00       		.byte	0
 1349 00e9 00       		.byte	0
 1350 00ea 12       		.uleb128 0x12
 1351 00eb 05       		.uleb128 0x5
 1352 00ec 00       		.byte	0
 1353 00ed 31       		.uleb128 0x31
 1354 00ee 13       		.uleb128 0x13
 1355 00ef 02       		.uleb128 0x2
 1356 00f0 17       		.uleb128 0x17
 1357 00f1 00       		.byte	0
 1358 00f2 00       		.byte	0
 1359 00f3 13       		.uleb128 0x13
 1360 00f4 898201   		.uleb128 0x4109
 1361 00f7 01       		.byte	0x1
 1362 00f8 11       		.uleb128 0x11
 1363 00f9 01       		.uleb128 0x1
 1364 00fa 31       		.uleb128 0x31
ARM GAS  /var/folders/6q/x_mk5n_j3p7_c40r_2k_78980000gn/T//cc9sDcHZ.s 			page 25


 1365 00fb 13       		.uleb128 0x13
 1366 00fc 00       		.byte	0
 1367 00fd 00       		.byte	0
 1368 00fe 14       		.uleb128 0x14
 1369 00ff 8A8201   		.uleb128 0x410a
 1370 0102 00       		.byte	0
 1371 0103 02       		.uleb128 0x2
 1372 0104 18       		.uleb128 0x18
 1373 0105 9142     		.uleb128 0x2111
 1374 0107 18       		.uleb128 0x18
 1375 0108 00       		.byte	0
 1376 0109 00       		.byte	0
 1377 010a 15       		.uleb128 0x15
 1378 010b 898201   		.uleb128 0x4109
 1379 010e 00       		.byte	0
 1380 010f 11       		.uleb128 0x11
 1381 0110 01       		.uleb128 0x1
 1382 0111 31       		.uleb128 0x31
 1383 0112 13       		.uleb128 0x13
 1384 0113 00       		.byte	0
 1385 0114 00       		.byte	0
 1386 0115 16       		.uleb128 0x16
 1387 0116 898201   		.uleb128 0x4109
 1388 0119 01       		.byte	0x1
 1389 011a 11       		.uleb128 0x11
 1390 011b 01       		.uleb128 0x1
 1391 011c 31       		.uleb128 0x31
 1392 011d 13       		.uleb128 0x13
 1393 011e 01       		.uleb128 0x1
 1394 011f 13       		.uleb128 0x13
 1395 0120 00       		.byte	0
 1396 0121 00       		.byte	0
 1397 0122 17       		.uleb128 0x17
 1398 0123 01       		.uleb128 0x1
 1399 0124 01       		.byte	0x1
 1400 0125 49       		.uleb128 0x49
 1401 0126 13       		.uleb128 0x13
 1402 0127 01       		.uleb128 0x1
 1403 0128 13       		.uleb128 0x13
 1404 0129 00       		.byte	0
 1405 012a 00       		.byte	0
 1406 012b 18       		.uleb128 0x18
 1407 012c 21       		.uleb128 0x21
 1408 012d 00       		.byte	0
 1409 012e 49       		.uleb128 0x49
 1410 012f 13       		.uleb128 0x13
 1411 0130 2F       		.uleb128 0x2f
 1412 0131 0B       		.uleb128 0xb
 1413 0132 00       		.byte	0
 1414 0133 00       		.byte	0
 1415 0134 19       		.uleb128 0x19
 1416 0135 34       		.uleb128 0x34
 1417 0136 00       		.byte	0
 1418 0137 03       		.uleb128 0x3
 1419 0138 0E       		.uleb128 0xe
 1420 0139 3A       		.uleb128 0x3a
 1421 013a 0B       		.uleb128 0xb
ARM GAS  /var/folders/6q/x_mk5n_j3p7_c40r_2k_78980000gn/T//cc9sDcHZ.s 			page 26


 1422 013b 3B       		.uleb128 0x3b
 1423 013c 0B       		.uleb128 0xb
 1424 013d 49       		.uleb128 0x49
 1425 013e 13       		.uleb128 0x13
 1426 013f 02       		.uleb128 0x2
 1427 0140 18       		.uleb128 0x18
 1428 0141 00       		.byte	0
 1429 0142 00       		.byte	0
 1430 0143 1A       		.uleb128 0x1a
 1431 0144 26       		.uleb128 0x26
 1432 0145 00       		.byte	0
 1433 0146 49       		.uleb128 0x49
 1434 0147 13       		.uleb128 0x13
 1435 0148 00       		.byte	0
 1436 0149 00       		.byte	0
 1437 014a 1B       		.uleb128 0x1b
 1438 014b 34       		.uleb128 0x34
 1439 014c 00       		.byte	0
 1440 014d 03       		.uleb128 0x3
 1441 014e 0E       		.uleb128 0xe
 1442 014f 3A       		.uleb128 0x3a
 1443 0150 0B       		.uleb128 0xb
 1444 0151 3B       		.uleb128 0x3b
 1445 0152 05       		.uleb128 0x5
 1446 0153 49       		.uleb128 0x49
 1447 0154 13       		.uleb128 0x13
 1448 0155 3F       		.uleb128 0x3f
 1449 0156 19       		.uleb128 0x19
 1450 0157 3C       		.uleb128 0x3c
 1451 0158 19       		.uleb128 0x19
 1452 0159 00       		.byte	0
 1453 015a 00       		.byte	0
 1454 015b 1C       		.uleb128 0x1c
 1455 015c 2E       		.uleb128 0x2e
 1456 015d 00       		.byte	0
 1457 015e 3F       		.uleb128 0x3f
 1458 015f 19       		.uleb128 0x19
 1459 0160 3C       		.uleb128 0x3c
 1460 0161 19       		.uleb128 0x19
 1461 0162 6E       		.uleb128 0x6e
 1462 0163 0E       		.uleb128 0xe
 1463 0164 03       		.uleb128 0x3
 1464 0165 0E       		.uleb128 0xe
 1465 0166 3A       		.uleb128 0x3a
 1466 0167 0B       		.uleb128 0xb
 1467 0168 3B       		.uleb128 0x3b
 1468 0169 0B       		.uleb128 0xb
 1469 016a 00       		.byte	0
 1470 016b 00       		.byte	0
 1471 016c 00       		.byte	0
 1472              		.section	.debug_loc,"",%progbits
 1473              	.Ldebug_loc0:
 1474              	.LLST0:
 1475 0000 00000000 		.4byte	.LVL0
 1476 0004 18000000 		.4byte	.LVL3
 1477 0008 0100     		.2byte	0x1
 1478 000a 50       		.byte	0x50
ARM GAS  /var/folders/6q/x_mk5n_j3p7_c40r_2k_78980000gn/T//cc9sDcHZ.s 			page 27


 1479 000b 18000000 		.4byte	.LVL3
 1480 000f 2C030000 		.4byte	.LFE64
 1481 0013 0400     		.2byte	0x4
 1482 0015 F3       		.byte	0xf3
 1483 0016 01       		.uleb128 0x1
 1484 0017 50       		.byte	0x50
 1485 0018 9F       		.byte	0x9f
 1486 0019 00000000 		.4byte	0
 1487 001d 00000000 		.4byte	0
 1488              	.LLST1:
 1489 0021 00000000 		.4byte	.LVL0
 1490 0025 0E000000 		.4byte	.LVL1
 1491 0029 0100     		.2byte	0x1
 1492 002b 51       		.byte	0x51
 1493 002c 0E000000 		.4byte	.LVL1
 1494 0030 2C030000 		.4byte	.LFE64
 1495 0034 0100     		.2byte	0x1
 1496 0036 57       		.byte	0x57
 1497 0037 00000000 		.4byte	0
 1498 003b 00000000 		.4byte	0
 1499              	.LLST2:
 1500 003f 00000000 		.4byte	.LVL0
 1501 0043 16000000 		.4byte	.LVL2
 1502 0047 0100     		.2byte	0x1
 1503 0049 52       		.byte	0x52
 1504 004a 16000000 		.4byte	.LVL2
 1505 004e 2C030000 		.4byte	.LFE64
 1506 0052 0200     		.2byte	0x2
 1507 0054 91       		.byte	0x91
 1508 0055 54       		.sleb128 -44
 1509 0056 00000000 		.4byte	0
 1510 005a 00000000 		.4byte	0
 1511              	.LLST3:
 1512 005e 00000000 		.4byte	.LVL0
 1513 0062 1C000000 		.4byte	.LVL4
 1514 0066 0100     		.2byte	0x1
 1515 0068 50       		.byte	0x50
 1516 0069 1C000000 		.4byte	.LVL4
 1517 006d 20000000 		.4byte	.LVL5
 1518 0071 0C00     		.2byte	0xc
 1519 0073 71       		.byte	0x71
 1520 0074 00       		.sleb128 0
 1521 0075 72       		.byte	0x72
 1522 0076 00       		.sleb128 0
 1523 0077 22       		.byte	0x22
 1524 0078 03       		.byte	0x3
 1525 0079 00000000 		.4byte	name
 1526 007d 1C       		.byte	0x1c
 1527 007e 9F       		.byte	0x9f
 1528 007f 20000000 		.4byte	.LVL5
 1529 0083 22000000 		.4byte	.LVL6
 1530 0087 0D00     		.2byte	0xd
 1531 0089 03       		.byte	0x3
 1532 008a 00000000 		.4byte	name
 1533 008e 20       		.byte	0x20
 1534 008f 71       		.byte	0x71
 1535 0090 00       		.sleb128 0
ARM GAS  /var/folders/6q/x_mk5n_j3p7_c40r_2k_78980000gn/T//cc9sDcHZ.s 			page 28


 1536 0091 22       		.byte	0x22
 1537 0092 72       		.byte	0x72
 1538 0093 00       		.sleb128 0
 1539 0094 22       		.byte	0x22
 1540 0095 9F       		.byte	0x9f
 1541 0096 22000000 		.4byte	.LVL6
 1542 009a 26000000 		.4byte	.LVL7
 1543 009e 0100     		.2byte	0x1
 1544 00a0 52       		.byte	0x52
 1545 00a1 26000000 		.4byte	.LVL7
 1546 00a5 3A000000 		.4byte	.LVL9
 1547 00a9 0100     		.2byte	0x1
 1548 00ab 50       		.byte	0x50
 1549 00ac 3A000000 		.4byte	.LVL9
 1550 00b0 58000000 		.4byte	.LVL12
 1551 00b4 0100     		.2byte	0x1
 1552 00b6 58       		.byte	0x58
 1553 00b7 58000000 		.4byte	.LVL12
 1554 00bb 66000000 		.4byte	.LVL13
 1555 00bf 0300     		.2byte	0x3
 1556 00c1 78       		.byte	0x78
 1557 00c2 7F       		.sleb128 -1
 1558 00c3 9F       		.byte	0x9f
 1559 00c4 6C000000 		.4byte	.LVL14
 1560 00c8 7E000000 		.4byte	.LVL15
 1561 00cc 0300     		.2byte	0x3
 1562 00ce 78       		.byte	0x78
 1563 00cf 01       		.sleb128 1
 1564 00d0 9F       		.byte	0x9f
 1565 00d1 7E000000 		.4byte	.LVL15
 1566 00d5 90000000 		.4byte	.LVL17
 1567 00d9 0100     		.2byte	0x1
 1568 00db 58       		.byte	0x58
 1569 00dc 90000000 		.4byte	.LVL17
 1570 00e0 98000000 		.4byte	.LVL19
 1571 00e4 0300     		.2byte	0x3
 1572 00e6 78       		.byte	0x78
 1573 00e7 7F       		.sleb128 -1
 1574 00e8 9F       		.byte	0x9f
 1575 00e9 BA000000 		.4byte	.LVL22
 1576 00ed BE000000 		.4byte	.LVL23
 1577 00f1 0100     		.2byte	0x1
 1578 00f3 58       		.byte	0x58
 1579 00f4 CA000000 		.4byte	.LVL24
 1580 00f8 DC000000 		.4byte	.LVL27
 1581 00fc 0100     		.2byte	0x1
 1582 00fe 58       		.byte	0x58
 1583 00ff DC000000 		.4byte	.LVL27
 1584 0103 1E010000 		.4byte	.LVL35
 1585 0107 0100     		.2byte	0x1
 1586 0109 5B       		.byte	0x5b
 1587 010a 36010000 		.4byte	.LVL36
 1588 010e A9010000 		.4byte	.LVL37
 1589 0112 0100     		.2byte	0x1
 1590 0114 5B       		.byte	0x5b
 1591 0115 AC010000 		.4byte	.LVL38
 1592 0119 AE010000 		.4byte	.LVL39
ARM GAS  /var/folders/6q/x_mk5n_j3p7_c40r_2k_78980000gn/T//cc9sDcHZ.s 			page 29


 1593 011d 0100     		.2byte	0x1
 1594 011f 58       		.byte	0x58
 1595 0120 BC010000 		.4byte	.LVL42
 1596 0124 C0010000 		.4byte	.LVL43
 1597 0128 0100     		.2byte	0x1
 1598 012a 5B       		.byte	0x5b
 1599 012b C0010000 		.4byte	.LVL43
 1600 012f D0010000 		.4byte	.LVL44
 1601 0133 0300     		.2byte	0x3
 1602 0135 7B       		.byte	0x7b
 1603 0136 01       		.sleb128 1
 1604 0137 9F       		.byte	0x9f
 1605 0138 D4010000 		.4byte	.LVL45
 1606 013c D8010000 		.4byte	.LVL46
 1607 0140 0300     		.2byte	0x3
 1608 0142 7B       		.byte	0x7b
 1609 0143 02       		.sleb128 2
 1610 0144 9F       		.byte	0x9f
 1611 0145 D8010000 		.4byte	.LVL46
 1612 0149 08020000 		.4byte	.LVL48
 1613 014d 0100     		.2byte	0x1
 1614 014f 5B       		.byte	0x5b
 1615 0150 1C020000 		.4byte	.LVL49
 1616 0154 9C020000 		.4byte	.LVL61
 1617 0158 0100     		.2byte	0x1
 1618 015a 5B       		.byte	0x5b
 1619 015b 9C020000 		.4byte	.LVL61
 1620 015f A4020000 		.4byte	.LVL63
 1621 0163 0300     		.2byte	0x3
 1622 0165 7B       		.byte	0x7b
 1623 0166 7F       		.sleb128 -1
 1624 0167 9F       		.byte	0x9f
 1625 0168 B8020000 		.4byte	.LVL66
 1626 016c C0020000 		.4byte	.LVL67
 1627 0170 0300     		.2byte	0x3
 1628 0172 7B       		.byte	0x7b
 1629 0173 01       		.sleb128 1
 1630 0174 9F       		.byte	0x9f
 1631 0175 C0020000 		.4byte	.LVL67
 1632 0179 CC020000 		.4byte	.LVL68
 1633 017d 0100     		.2byte	0x1
 1634 017f 5B       		.byte	0x5b
 1635 0180 CC020000 		.4byte	.LVL68
 1636 0184 D0020000 		.4byte	.LVL69
 1637 0188 0300     		.2byte	0x3
 1638 018a 7B       		.byte	0x7b
 1639 018b 01       		.sleb128 1
 1640 018c 9F       		.byte	0x9f
 1641 018d D0020000 		.4byte	.LVL69
 1642 0191 EC020000 		.4byte	.LVL72
 1643 0195 0100     		.2byte	0x1
 1644 0197 5B       		.byte	0x5b
 1645 0198 EC020000 		.4byte	.LVL72
 1646 019c F4020000 		.4byte	.LVL73
 1647 01a0 0100     		.2byte	0x1
 1648 01a2 53       		.byte	0x53
 1649 01a3 F4020000 		.4byte	.LVL73
ARM GAS  /var/folders/6q/x_mk5n_j3p7_c40r_2k_78980000gn/T//cc9sDcHZ.s 			page 30


 1650 01a7 FC020000 		.4byte	.LVL74
 1651 01ab 0100     		.2byte	0x1
 1652 01ad 5B       		.byte	0x5b
 1653 01ae FC020000 		.4byte	.LVL74
 1654 01b2 00030000 		.4byte	.LVL75
 1655 01b6 0300     		.2byte	0x3
 1656 01b8 7B       		.byte	0x7b
 1657 01b9 01       		.sleb128 1
 1658 01ba 9F       		.byte	0x9f
 1659 01bb 00030000 		.4byte	.LVL75
 1660 01bf 2C030000 		.4byte	.LFE64
 1661 01c3 0100     		.2byte	0x1
 1662 01c5 5B       		.byte	0x5b
 1663 01c6 00000000 		.4byte	0
 1664 01ca 00000000 		.4byte	0
 1665              	.LLST4:
 1666 01ce 00000000 		.4byte	.LVL0
 1667 01d2 18000000 		.4byte	.LVL3
 1668 01d6 0600     		.2byte	0x6
 1669 01d8 03       		.byte	0x3
 1670 01d9 00000000 		.4byte	name
 1671 01dd 9F       		.byte	0x9f
 1672 01de 18000000 		.4byte	.LVL3
 1673 01e2 20000000 		.4byte	.LVL5
 1674 01e6 0100     		.2byte	0x1
 1675 01e8 51       		.byte	0x51
 1676 01e9 20000000 		.4byte	.LVL5
 1677 01ed 22000000 		.4byte	.LVL6
 1678 01f1 0300     		.2byte	0x3
 1679 01f3 71       		.byte	0x71
 1680 01f4 7F       		.sleb128 -1
 1681 01f5 9F       		.byte	0x9f
 1682 01f6 22000000 		.4byte	.LVL6
 1683 01fa 2A000000 		.4byte	.LVL8
 1684 01fe 0100     		.2byte	0x1
 1685 0200 51       		.byte	0x51
 1686 0201 DC000000 		.4byte	.LVL27
 1687 0205 E8000000 		.4byte	.LVL28
 1688 0209 0100     		.2byte	0x1
 1689 020b 5B       		.byte	0x5b
 1690 020c E8000000 		.4byte	.LVL28
 1691 0210 EE000000 		.4byte	.LVL29
 1692 0214 0100     		.2byte	0x1
 1693 0216 5E       		.byte	0x5e
 1694 0217 EE000000 		.4byte	.LVL29
 1695 021b F2000000 		.4byte	.LVL30
 1696 021f 0300     		.2byte	0x3
 1697 0221 7E       		.byte	0x7e
 1698 0222 7F       		.sleb128 -1
 1699 0223 9F       		.byte	0x9f
 1700 0224 00000000 		.4byte	0
 1701 0228 00000000 		.4byte	0
 1702              	.LLST5:
 1703 022c 00000000 		.4byte	.LVL0
 1704 0230 40000000 		.4byte	.LVL10
 1705 0234 0200     		.2byte	0x2
 1706 0236 34       		.byte	0x34
ARM GAS  /var/folders/6q/x_mk5n_j3p7_c40r_2k_78980000gn/T//cc9sDcHZ.s 			page 31


 1707 0237 9F       		.byte	0x9f
 1708 0238 B2010000 		.4byte	.LVL40
 1709 023c B4010000 		.4byte	.LVL41
 1710 0240 0100     		.2byte	0x1
 1711 0242 55       		.byte	0x55
 1712 0243 00000000 		.4byte	0
 1713 0247 00000000 		.4byte	0
 1714              	.LLST6:
 1715 024b 00000000 		.4byte	.LVL0
 1716 024f 40000000 		.4byte	.LVL10
 1717 0253 0200     		.2byte	0x2
 1718 0255 36       		.byte	0x36
 1719 0256 9F       		.byte	0x9f
 1720 0257 00000000 		.4byte	0
 1721 025b 00000000 		.4byte	0
 1722              	.LLST7:
 1723 025f 00000000 		.4byte	.LVL0
 1724 0263 40000000 		.4byte	.LVL10
 1725 0267 0300     		.2byte	0x3
 1726 0269 08       		.byte	0x8
 1727 026a 3F       		.byte	0x3f
 1728 026b 9F       		.byte	0x9f
 1729 026c 40000000 		.4byte	.LVL10
 1730 0270 B8000000 		.4byte	.LVL21
 1731 0274 0100     		.2byte	0x1
 1732 0276 54       		.byte	0x54
 1733 0277 CA000000 		.4byte	.LVL24
 1734 027b 14010000 		.4byte	.LVL33
 1735 027f 0100     		.2byte	0x1
 1736 0281 54       		.byte	0x54
 1737 0282 A9010000 		.4byte	.LVL37
 1738 0286 B4010000 		.4byte	.LVL41
 1739 028a 0100     		.2byte	0x1
 1740 028c 54       		.byte	0x54
 1741 028d 00000000 		.4byte	0
 1742 0291 00000000 		.4byte	0
 1743              	.LLST8:
 1744 0295 00000000 		.4byte	.LVL0
 1745 0299 DC000000 		.4byte	.LVL27
 1746 029d 0200     		.2byte	0x2
 1747 029f 30       		.byte	0x30
 1748 02a0 9F       		.byte	0x9f
 1749 02a1 DC000000 		.4byte	.LVL27
 1750 02a5 E8000000 		.4byte	.LVL28
 1751 02a9 0200     		.2byte	0x2
 1752 02ab 31       		.byte	0x31
 1753 02ac 9F       		.byte	0x9f
 1754 02ad E8000000 		.4byte	.LVL28
 1755 02b1 FC000000 		.4byte	.LVL31
 1756 02b5 0100     		.2byte	0x1
 1757 02b7 50       		.byte	0x50
 1758 02b8 FC000000 		.4byte	.LVL31
 1759 02bc FF000000 		.4byte	.LVL32-1
 1760 02c0 0300     		.2byte	0x3
 1761 02c2 70       		.byte	0x70
 1762 02c3 7F       		.sleb128 -1
 1763 02c4 9F       		.byte	0x9f
ARM GAS  /var/folders/6q/x_mk5n_j3p7_c40r_2k_78980000gn/T//cc9sDcHZ.s 			page 32


 1764 02c5 A9010000 		.4byte	.LVL37
 1765 02c9 B4010000 		.4byte	.LVL41
 1766 02cd 0200     		.2byte	0x2
 1767 02cf 30       		.byte	0x30
 1768 02d0 9F       		.byte	0x9f
 1769 02d1 00000000 		.4byte	0
 1770 02d5 00000000 		.4byte	0
 1771              	.LLST9:
 1772 02d9 6C000000 		.4byte	.LVL14
 1773 02dd CE000000 		.4byte	.LVL25
 1774 02e1 0100     		.2byte	0x1
 1775 02e3 5E       		.byte	0x5e
 1776 02e4 A9010000 		.4byte	.LVL37
 1777 02e8 B4010000 		.4byte	.LVL41
 1778 02ec 0100     		.2byte	0x1
 1779 02ee 5E       		.byte	0x5e
 1780 02ef 00000000 		.4byte	0
 1781 02f3 00000000 		.4byte	0
 1782              	.LLST10:
 1783 02f7 7E000000 		.4byte	.LVL15
 1784 02fb 8C000000 		.4byte	.LVL16
 1785 02ff 0200     		.2byte	0x2
 1786 0301 30       		.byte	0x30
 1787 0302 9F       		.byte	0x9f
 1788 0303 8C000000 		.4byte	.LVL16
 1789 0307 94000000 		.4byte	.LVL18
 1790 030b 0100     		.2byte	0x1
 1791 030d 53       		.byte	0x53
 1792 030e 98000000 		.4byte	.LVL19
 1793 0312 A2000000 		.4byte	.LVL20
 1794 0316 0100     		.2byte	0x1
 1795 0318 53       		.byte	0x53
 1796 0319 00000000 		.4byte	0
 1797 031d 00000000 		.4byte	0
 1798              	.LLST11:
 1799 0321 BC010000 		.4byte	.LVL42
 1800 0325 C0010000 		.4byte	.LVL43
 1801 0329 0200     		.2byte	0x2
 1802 032b 3B       		.byte	0x3b
 1803 032c 9F       		.byte	0x9f
 1804 032d C0010000 		.4byte	.LVL43
 1805 0331 40020000 		.4byte	.LVL52
 1806 0335 0100     		.2byte	0x1
 1807 0337 5C       		.byte	0x5c
 1808 0338 B8020000 		.4byte	.LVL66
 1809 033c 02030000 		.4byte	.LVL76
 1810 0340 0100     		.2byte	0x1
 1811 0342 5C       		.byte	0x5c
 1812 0343 02030000 		.4byte	.LVL76
 1813 0347 08030000 		.4byte	.LVL77
 1814 034b 0200     		.2byte	0x2
 1815 034d 37       		.byte	0x37
 1816 034e 9F       		.byte	0x9f
 1817 034f 08030000 		.4byte	.LVL77
 1818 0353 0E030000 		.4byte	.LVL78
 1819 0357 0200     		.2byte	0x2
 1820 0359 35       		.byte	0x35
ARM GAS  /var/folders/6q/x_mk5n_j3p7_c40r_2k_78980000gn/T//cc9sDcHZ.s 			page 33


 1821 035a 9F       		.byte	0x9f
 1822 035b 0E030000 		.4byte	.LVL78
 1823 035f 14030000 		.4byte	.LVL79
 1824 0363 0200     		.2byte	0x2
 1825 0365 34       		.byte	0x34
 1826 0366 9F       		.byte	0x9f
 1827 0367 14030000 		.4byte	.LVL79
 1828 036b 1A030000 		.4byte	.LVL80
 1829 036f 0200     		.2byte	0x2
 1830 0371 32       		.byte	0x32
 1831 0372 9F       		.byte	0x9f
 1832 0373 1A030000 		.4byte	.LVL80
 1833 0377 20030000 		.4byte	.LVL81
 1834 037b 0200     		.2byte	0x2
 1835 037d 39       		.byte	0x39
 1836 037e 9F       		.byte	0x9f
 1837 037f 00000000 		.4byte	0
 1838 0383 00000000 		.4byte	0
 1839              	.LLST12:
 1840 0387 B8020000 		.4byte	.LVL66
 1841 038b D2020000 		.4byte	.LVL70
 1842 038f 0100     		.2byte	0x1
 1843 0391 5E       		.byte	0x5e
 1844 0392 00000000 		.4byte	0
 1845 0396 00000000 		.4byte	0
 1846              	.LLST13:
 1847 039a 36010000 		.4byte	.LVL36
 1848 039e A9010000 		.4byte	.LVL37
 1849 03a2 0100     		.2byte	0x1
 1850 03a4 51       		.byte	0x51
 1851 03a5 BC010000 		.4byte	.LVL42
 1852 03a9 04020000 		.4byte	.LVL47
 1853 03ad 0100     		.2byte	0x1
 1854 03af 51       		.byte	0x51
 1855 03b0 84020000 		.4byte	.LVL58
 1856 03b4 8A020000 		.4byte	.LVL59
 1857 03b8 0100     		.2byte	0x1
 1858 03ba 51       		.byte	0x51
 1859 03bb B6020000 		.4byte	.LVL65
 1860 03bf D2020000 		.4byte	.LVL70
 1861 03c3 0100     		.2byte	0x1
 1862 03c5 51       		.byte	0x51
 1863 03c6 D6020000 		.4byte	.LVL71
 1864 03ca 2C030000 		.4byte	.LFE64
 1865 03ce 0100     		.2byte	0x1
 1866 03d0 51       		.byte	0x51
 1867 03d1 00000000 		.4byte	0
 1868 03d5 00000000 		.4byte	0
 1869              	.LLST14:
 1870 03d9 24020000 		.4byte	.LVL50
 1871 03dd 63020000 		.4byte	.LVL55-1
 1872 03e1 0100     		.2byte	0x1
 1873 03e3 52       		.byte	0x52
 1874 03e4 D2020000 		.4byte	.LVL70
 1875 03e8 D6020000 		.4byte	.LVL71
 1876 03ec 0100     		.2byte	0x1
 1877 03ee 52       		.byte	0x52
ARM GAS  /var/folders/6q/x_mk5n_j3p7_c40r_2k_78980000gn/T//cc9sDcHZ.s 			page 34


 1878 03ef 00000000 		.4byte	0
 1879 03f3 00000000 		.4byte	0
 1880              	.LLST15:
 1881 03f7 5E020000 		.4byte	.LVL54
 1882 03fb 63020000 		.4byte	.LVL55-1
 1883 03ff 0100     		.2byte	0x1
 1884 0401 50       		.byte	0x50
 1885 0402 00000000 		.4byte	0
 1886 0406 00000000 		.4byte	0
 1887              	.LLST16:
 1888 040a 32020000 		.4byte	.LVL51
 1889 040e 4C020000 		.4byte	.LVL53
 1890 0412 0100     		.2byte	0x1
 1891 0414 50       		.byte	0x50
 1892 0415 00000000 		.4byte	0
 1893 0419 00000000 		.4byte	0
 1894              	.LLST17:
 1895 041d 8A020000 		.4byte	.LVL59
 1896 0421 98020000 		.4byte	.LVL60
 1897 0425 0200     		.2byte	0x2
 1898 0427 30       		.byte	0x30
 1899 0428 9F       		.byte	0x9f
 1900 0429 98020000 		.4byte	.LVL60
 1901 042d A0020000 		.4byte	.LVL62
 1902 0431 0100     		.2byte	0x1
 1903 0433 52       		.byte	0x52
 1904 0434 A4020000 		.4byte	.LVL63
 1905 0438 B2020000 		.4byte	.LVL64
 1906 043c 0100     		.2byte	0x1
 1907 043e 52       		.byte	0x52
 1908 043f 00000000 		.4byte	0
 1909 0443 00000000 		.4byte	0
 1910              		.section	.debug_aranges,"",%progbits
 1911 0000 1C000000 		.4byte	0x1c
 1912 0004 0200     		.2byte	0x2
 1913 0006 00000000 		.4byte	.Ldebug_info0
 1914 000a 04       		.byte	0x4
 1915 000b 00       		.byte	0
 1916 000c 0000     		.2byte	0
 1917 000e 0000     		.2byte	0
 1918 0010 00000000 		.4byte	.LFB64
 1919 0014 2C030000 		.4byte	.LFE64-.LFB64
 1920 0018 00000000 		.4byte	0
 1921 001c 00000000 		.4byte	0
 1922              		.section	.debug_ranges,"",%progbits
 1923              	.Ldebug_ranges0:
 1924 0000 44000000 		.4byte	.LBB7
 1925 0004 48000000 		.4byte	.LBE7
 1926 0008 4E000000 		.4byte	.LBB8
 1927 000c CA000000 		.4byte	.LBE8
 1928 0010 AA010000 		.4byte	.LBB17
 1929 0014 B4010000 		.4byte	.LBE17
 1930 0018 00000000 		.4byte	0
 1931 001c 00000000 		.4byte	0
 1932 0020 0A010000 		.4byte	.LBB9
 1933 0024 AA010000 		.4byte	.LBE9
 1934 0028 B4010000 		.4byte	.LBB18
ARM GAS  /var/folders/6q/x_mk5n_j3p7_c40r_2k_78980000gn/T//cc9sDcHZ.s 			page 35


 1935 002c B6010000 		.4byte	.LBE18
 1936 0030 BC010000 		.4byte	.LBB19
 1937 0034 64020000 		.4byte	.LBE19
 1938 0038 84020000 		.4byte	.LBB20
 1939 003c 2C030000 		.4byte	.LBE20
 1940 0040 00000000 		.4byte	0
 1941 0044 00000000 		.4byte	0
 1942 0048 0A010000 		.4byte	.LBB10
 1943 004c 14010000 		.4byte	.LBE10
 1944 0050 32020000 		.4byte	.LBB15
 1945 0054 5E020000 		.4byte	.LBE15
 1946 0058 00000000 		.4byte	0
 1947 005c 00000000 		.4byte	0
 1948 0060 14010000 		.4byte	.LBB13
 1949 0064 1A010000 		.4byte	.LBE13
 1950 0068 2C010000 		.4byte	.LBB14
 1951 006c 30010000 		.4byte	.LBE14
 1952 0070 8A020000 		.4byte	.LBB16
 1953 0074 BC020000 		.4byte	.LBE16
 1954 0078 00000000 		.4byte	0
 1955 007c 00000000 		.4byte	0
 1956 0080 00000000 		.4byte	.LFB64
 1957 0084 2C030000 		.4byte	.LFE64
 1958 0088 00000000 		.4byte	0
 1959 008c 00000000 		.4byte	0
 1960              		.section	.debug_line,"",%progbits
 1961              	.Ldebug_line0:
 1962 0000 5A020000 		.section	.debug_str,"MS",%progbits,1
 1962      02006F01 
 1962      00000201 
 1962      FB0E0D00 
 1962      01010101 
 1963              	.LASF15:
 1964 0000 6B566578 		.ascii	"kVexDigital_None\000"
 1964      44696769 
 1964      74616C5F 
 1964      4E6F6E65 
 1964      00
 1965              	.LASF40:
 1966 0011 6B496D65 		.ascii	"kImeChannelNone\000"
 1966      4368616E 
 1966      6E656C4E 
 1966      6F6E6500 
 1967              	.LASF32:
 1968 0021 6B496D65 		.ascii	"kImeChannel_2\000"
 1968      4368616E 
 1968      6E656C5F 
 1968      3200
 1969              	.LASF33:
 1970 002f 6B496D65 		.ascii	"kImeChannel_3\000"
 1970      4368616E 
 1970      6E656C5F 
 1970      3300
 1971              	.LASF34:
 1972 003d 6B496D65 		.ascii	"kImeChannel_4\000"
 1972      4368616E 
 1972      6E656C5F 
ARM GAS  /var/folders/6q/x_mk5n_j3p7_c40r_2k_78980000gn/T//cc9sDcHZ.s 			page 36


 1972      3400
 1973              	.LASF35:
 1974 004b 6B496D65 		.ascii	"kImeChannel_5\000"
 1974      4368616E 
 1974      6E656C5F 
 1974      3500
 1975              	.LASF36:
 1976 0059 6B496D65 		.ascii	"kImeChannel_6\000"
 1976      4368616E 
 1976      6E656C5F 
 1976      3600
 1977              	.LASF37:
 1978 0067 6B496D65 		.ascii	"kImeChannel_7\000"
 1978      4368616E 
 1978      6E656C5F 
 1978      3700
 1979              	.LASF38:
 1980 0075 6B496D65 		.ascii	"kImeChannel_8\000"
 1980      4368616E 
 1980      6E656C5F 
 1980      3800
 1981              	.LASF5:
 1982 0083 73686F72 		.ascii	"short int\000"
 1982      7420696E 
 1982      7400
 1983              	.LASF13:
 1984 008d 73697A65 		.ascii	"sizetype\000"
 1984      74797065 
 1984      00
 1985              	.LASF39:
 1986 0096 6B496D65 		.ascii	"kImeTotal\000"
 1986      546F7461 
 1986      6C00
 1987              	.LASF45:
 1988 00a0 64656673 		.ascii	"defscale\000"
 1988      63616C65 
 1988      00
 1989              	.LASF60:
 1990 00a9 6E6F7465 		.ascii	"note2freq\000"
 1990      32667265 
 1990      7100
 1991              	.LASF43:
 1992 00b3 72657065 		.ascii	"repeat\000"
 1992      617400
 1993              	.LASF56:
 1994 00ba 76657841 		.ascii	"vexAudioStartChipToneSong\000"
 1994      7564696F 
 1994      53746172 
 1994      74436869 
 1994      70546F6E 
 1995              	.LASF30:
 1996 00d4 6B566578 		.ascii	"kVexDigitalOutput\000"
 1996      44696769 
 1996      74616C4F 
 1996      75747075 
 1996      7400
 1997              	.LASF48:
ARM GAS  /var/folders/6q/x_mk5n_j3p7_c40r_2k_78980000gn/T//cc9sDcHZ.s 			page 37


 1998 00e6 76616C75 		.ascii	"value\000"
 1998      6500
 1999              	.LASF57:
 2000 00ec 474E5520 		.ascii	"GNU C11 5.4.1 20160919 (release) [ARM/embedded-5-br"
 2000      43313120 
 2000      352E342E 
 2000      31203230 
 2000      31363039 
 2001 011f 616E6368 		.ascii	"anch revision 240496] -mcpu=cortex-m3 -mno-thumb-in"
 2001      20726576 
 2001      6973696F 
 2001      6E203234 
 2001      30343936 
 2002 0152 74657277 		.ascii	"terwork -mthumb -ggdb -O2 -fomit-frame-pointer -fal"
 2002      6F726B20 
 2002      2D6D7468 
 2002      756D6220 
 2002      2D676764 
 2003 0185 69676E2D 		.ascii	"ign-functions=16 -ffunction-sections -fdata-section"
 2003      66756E63 
 2003      74696F6E 
 2003      733D3136 
 2003      202D6666 
 2004 01b8 73202D66 		.ascii	"s -fno-common\000"
 2004      6E6F2D63 
 2004      6F6D6D6F 
 2004      6E00
 2005              	.LASF25:
 2006 01c6 6B566578 		.ascii	"kVexDigital_10\000"
 2006      44696769 
 2006      74616C5F 
 2006      313000
 2007              	.LASF26:
 2008 01d5 6B566578 		.ascii	"kVexDigital_11\000"
 2008      44696769 
 2008      74616C5F 
 2008      313100
 2009              	.LASF27:
 2010 01e4 6B566578 		.ascii	"kVexDigital_12\000"
 2010      44696769 
 2010      74616C5F 
 2010      313200
 2011              	.LASF51:
 2012 01f3 66726571 		.ascii	"freq\000"
 2012      00
 2013              	.LASF1:
 2014 01f8 6C6F6E67 		.ascii	"long long int\000"
 2014      206C6F6E 
 2014      6720696E 
 2014      7400
 2015              	.LASF7:
 2016 0206 6C6F6E67 		.ascii	"long int\000"
 2016      20696E74 
 2016      00
 2017              	.LASF49:
 2018 020f 6E6F7465 		.ascii	"note\000"
 2018      00
ARM GAS  /var/folders/6q/x_mk5n_j3p7_c40r_2k_78980000gn/T//cc9sDcHZ.s 			page 38


 2019              	.LASF29:
 2020 0214 6B566578 		.ascii	"kVexDigitalInput\000"
 2020      44696769 
 2020      74616C49 
 2020      6E707574 
 2020      00
 2021              	.LASF53:
 2022 0225 6E616D65 		.ascii	"name\000"
 2022      00
 2023              	.LASF2:
 2024 022a 6C6F6E67 		.ascii	"long double\000"
 2024      20646F75 
 2024      626C6500 
 2025              	.LASF31:
 2026 0236 6B496D65 		.ascii	"kImeChannel_1\000"
 2026      4368616E 
 2026      6E656C5F 
 2026      3100
 2027              	.LASF4:
 2028 0244 756E7369 		.ascii	"unsigned char\000"
 2028      676E6564 
 2028      20636861 
 2028      7200
 2029              	.LASF3:
 2030 0252 7369676E 		.ascii	"signed char\000"
 2030      65642063 
 2030      68617200 
 2031              	.LASF42:
 2032 025e 616D706C 		.ascii	"amplitude\000"
 2032      69747564 
 2032      6500
 2033              	.LASF9:
 2034 0268 6C6F6E67 		.ascii	"long long unsigned int\000"
 2034      206C6F6E 
 2034      6720756E 
 2034      7369676E 
 2034      65642069 
 2035              	.LASF50:
 2036 027f 7363616C 		.ascii	"scale\000"
 2036      6500
 2037              	.LASF18:
 2038 0285 6B566578 		.ascii	"kVexDigital_3\000"
 2038      44696769 
 2038      74616C5F 
 2038      3300
 2039              	.LASF55:
 2040 0293 76657841 		.ascii	"vexAudioInitChipToneSong\000"
 2040      7564696F 
 2040      496E6974 
 2040      43686970 
 2040      546F6E65 
 2041              	.LASF47:
 2042 02ac 70617261 		.ascii	"param\000"
 2042      6D00
 2043              	.LASF44:
 2044 02b2 64656664 		.ascii	"defdur\000"
 2044      757200
ARM GAS  /var/folders/6q/x_mk5n_j3p7_c40r_2k_78980000gn/T//cc9sDcHZ.s 			page 39


 2045              	.LASF6:
 2046 02b9 73686F72 		.ascii	"short unsigned int\000"
 2046      7420756E 
 2046      7369676E 
 2046      65642069 
 2046      6E7400
 2047              	.LASF14:
 2048 02cc 63686172 		.ascii	"char\000"
 2048      00
 2049              	.LASF16:
 2050 02d1 6B566578 		.ascii	"kVexDigital_1\000"
 2050      44696769 
 2050      74616C5F 
 2050      3100
 2051              	.LASF17:
 2052 02df 6B566578 		.ascii	"kVexDigital_2\000"
 2052      44696769 
 2052      74616C5F 
 2052      3200
 2053              	.LASF11:
 2054 02ed 696E7433 		.ascii	"int32_t\000"
 2054      325F7400 
 2055              	.LASF19:
 2056 02f5 6B566578 		.ascii	"kVexDigital_4\000"
 2056      44696769 
 2056      74616C5F 
 2056      3400
 2057              	.LASF20:
 2058 0303 6B566578 		.ascii	"kVexDigital_5\000"
 2058      44696769 
 2058      74616C5F 
 2058      3500
 2059              	.LASF21:
 2060 0311 6B566578 		.ascii	"kVexDigital_6\000"
 2060      44696769 
 2060      74616C5F 
 2060      3600
 2061              	.LASF22:
 2062 031f 6B566578 		.ascii	"kVexDigital_7\000"
 2062      44696769 
 2062      74616C5F 
 2062      3700
 2063              	.LASF23:
 2064 032d 6B566578 		.ascii	"kVexDigital_8\000"
 2064      44696769 
 2064      74616C5F 
 2064      3800
 2065              	.LASF24:
 2066 033b 6B566578 		.ascii	"kVexDigital_9\000"
 2066      44696769 
 2066      74616C5F 
 2066      3900
 2067              	.LASF12:
 2068 0349 5F426F6F 		.ascii	"_Bool\000"
 2068      6C00
 2069              	.LASF61:
 2070 034f 76657841 		.ascii	"vexAudioPlayRtttl\000"
ARM GAS  /var/folders/6q/x_mk5n_j3p7_c40r_2k_78980000gn/T//cc9sDcHZ.s 			page 40


 2070      7564696F 
 2070      506C6179 
 2070      52747474 
 2070      6C00
 2071              	.LASF8:
 2072 0361 6C6F6E67 		.ascii	"long unsigned int\000"
 2072      20756E73 
 2072      69676E65 
 2072      6420696E 
 2072      7400
 2073              	.LASF54:
 2074 0373 76657841 		.ascii	"vexAudioSetNextChipTone\000"
 2074      7564696F 
 2074      5365744E 
 2074      65787443 
 2074      68697054 
 2075              	.LASF46:
 2076 038b 636F756E 		.ascii	"count\000"
 2076      7400
 2077              	.LASF10:
 2078 0391 5F5F696E 		.ascii	"__int32_t\000"
 2078      7433325F 
 2078      7400
 2079              	.LASF58:
 2080 039b 2E2E2F63 		.ascii	"../convex-vexilla/cortex/fw/vexrttl.c\000"
 2080      6F6E7665 
 2080      782D7665 
 2080      78696C6C 
 2080      612F636F 
 2081              	.LASF28:
 2082 03c1 6B566578 		.ascii	"kVexDigital_Num\000"
 2082      44696769 
 2082      74616C5F 
 2082      4E756D00 
 2083              	.LASF41:
 2084 03d1 736F6E67 		.ascii	"song\000"
 2084      00
 2085              	.LASF62:
 2086 03d6 49544D5F 		.ascii	"ITM_RxBuffer\000"
 2086      52784275 
 2086      66666572 
 2086      00
 2087              	.LASF0:
 2088 03e3 756E7369 		.ascii	"unsigned int\000"
 2088      676E6564 
 2088      20696E74 
 2088      00
 2089              	.LASF59:
 2090 03f0 2F557365 		.ascii	"/Users/Luca/src/vexilla/src/teamA\000"
 2090      72732F4C 
 2090      7563612F 
 2090      7372632F 
 2090      76657869 
 2091              	.LASF52:
 2092 0412 6E6F7465 		.ascii	"notefreq\000"
 2092      66726571 
 2092      00
ARM GAS  /var/folders/6q/x_mk5n_j3p7_c40r_2k_78980000gn/T//cc9sDcHZ.s 			page 41


 2093              		.ident	"GCC: (GNU Tools for ARM Embedded Processors) 5.4.1 20160919 (release) [ARM/embedded-5-bran
ARM GAS  /var/folders/6q/x_mk5n_j3p7_c40r_2k_78980000gn/T//cc9sDcHZ.s 			page 42


DEFINED SYMBOLS
                            *ABS*:0000000000000000 vexrttl.c
/var/folders/6q/x_mk5n_j3p7_c40r_2k_78980000gn/T//cc9sDcHZ.s:20     .text.vexAudioPlayRtttl:0000000000000000 $t
/var/folders/6q/x_mk5n_j3p7_c40r_2k_78980000gn/T//cc9sDcHZ.s:26     .text.vexAudioPlayRtttl:0000000000000000 vexAudioPlayRtttl
/var/folders/6q/x_mk5n_j3p7_c40r_2k_78980000gn/T//cc9sDcHZ.s:272    .text.vexAudioPlayRtttl:0000000000000140 $d
/var/folders/6q/x_mk5n_j3p7_c40r_2k_78980000gn/T//cc9sDcHZ.s:445    .text.vexAudioPlayRtttl:00000000000001f4 $d
/var/folders/6q/x_mk5n_j3p7_c40r_2k_78980000gn/T//cc9sDcHZ.s:452    .text.vexAudioPlayRtttl:0000000000000204 $t
/var/folders/6q/x_mk5n_j3p7_c40r_2k_78980000gn/T//cc9sDcHZ.s:642    .text.vexAudioPlayRtttl:0000000000000328 $d
/var/folders/6q/x_mk5n_j3p7_c40r_2k_78980000gn/T//cc9sDcHZ.s:648    .rodata.notefreq:0000000000000000 $d
/var/folders/6q/x_mk5n_j3p7_c40r_2k_78980000gn/T//cc9sDcHZ.s:652    .rodata.notefreq:0000000000000000 notefreq
/var/folders/6q/x_mk5n_j3p7_c40r_2k_78980000gn/T//cc9sDcHZ.s:666    .rodata.str1.4:0000000000000000 $d
/var/folders/6q/x_mk5n_j3p7_c40r_2k_78980000gn/T//cc9sDcHZ.s:670    .bss.name:0000000000000000 $d
/var/folders/6q/x_mk5n_j3p7_c40r_2k_78980000gn/T//cc9sDcHZ.s:674    .bss.name:0000000000000000 name
                     .debug_frame:0000000000000010 $d
/var/folders/6q/x_mk5n_j3p7_c40r_2k_78980000gn/T//cc9sDcHZ.s:378    .text.vexAudioPlayRtttl:00000000000001a9 $d
/var/folders/6q/x_mk5n_j3p7_c40r_2k_78980000gn/T//cc9sDcHZ.s:378    .text.vexAudioPlayRtttl:00000000000001aa $t

UNDEFINED SYMBOLS
vexAudioInitChipToneSong
vexAudioSetNextChipTone
vexAudioStartChipToneSong
