ARM GAS  /var/folders/6q/x_mk5n_j3p7_c40r_2k_78980000gn/T//cc9sDcHZ.s 			page 1


   1              		.syntax unified
   2              		.cpu cortex-m3
   3              		.fpu softvfp
   4              		.eabi_attribute 20, 1
   5              		.eabi_attribute 21, 1
   6              		.eabi_attribute 23, 3
   7              		.eabi_attribute 24, 1
   8              		.eabi_attribute 25, 1
   9              		.eabi_attribute 26, 1
  10              		.eabi_attribute 30, 2
  11              		.eabi_attribute 34, 1
  12              		.eabi_attribute 18, 4
  13              		.thumb
  14              		.syntax unified
  15              		.file	"vexrttl.c"
  16              		.text
  17              	.Ltext0:
  18              		.cfi_sections	.debug_frame
  19              		.section	.text.vexAudioPlayRtttl,"ax",%progbits
  20              		.align	2
  21              		.p2align 4,,15
  22              		.global	vexAudioPlayRtttl
  23              		.thumb
  24              		.thumb_func
  25              		.type	vexAudioPlayRtttl, %function
  26              	vexAudioPlayRtttl:
  27              	.LFB64:
  28              		.file 1 "../convex-vexilla/cortex/fw/vexrttl.c"
  29              		.loc 1 113 0
  30              		.cfi_startproc
  31              		@ args = 0, pretend = 0, frame = 8
  32              		@ frame_needed = 0, uses_anonymous_args = 0
  33              	.LVL0:
  34 0000 2DE9F04F 		push	{r4, r5, r6, r7, r8, r9, r10, fp, lr}
  35              		.cfi_def_cfa_offset 36
  36              		.cfi_offset 4, -36
  37              		.cfi_offset 5, -32
  38              		.cfi_offset 6, -28
  39              		.cfi_offset 7, -24
  40              		.cfi_offset 8, -20
  41              		.cfi_offset 9, -16
  42              		.cfi_offset 10, -12
  43              		.cfi_offset 11, -8
  44              		.cfi_offset 14, -4
  45              		.loc 1 123 0
  46 0004 0378     		ldrb	r3, [r0]	@ zero_extendqisi2
  47              		.loc 1 113 0
  48 0006 83B0     		sub	sp, sp, #12
  49              		.cfi_def_cfa_offset 48
  50              		.loc 1 113 0
  51 0008 0F46     		mov	r7, r1
  52 000a 0192     		str	r2, [sp, #4]
  53              		.loc 1 123 0
  54 000c 7949     		ldr	r1, .L112
  55              	.LVL1:
  56 000e 63B1     		cbz	r3, .L2
  57 0010 3A2B     		cmp	r3, #58
ARM GAS  /var/folders/6q/x_mk5n_j3p7_c40r_2k_78980000gn/T//cc9sDcHZ.s 			page 2


  58 0012 0AD0     		beq	.L2
  59 0014 421C     		adds	r2, r0, #1
  60              	.LVL2:
  61 0016 01E0     		b	.L3
  62              	.LVL3:
  63              	.L108:
  64              		.loc 1 123 0 is_stmt 0 discriminator 1
  65 0018 3A2B     		cmp	r3, #58
  66 001a 06D0     		beq	.L2
  67              	.LVL4:
  68              	.L3:
  69              		.loc 1 125 0 is_stmt 1
  70 001c 01F8013B 		strb	r3, [r1], #1
  71              	.LVL5:
  72 0020 1046     		mov	r0, r2
  73              	.LVL6:
  74              		.loc 1 123 0
  75 0022 12F8013B 		ldrb	r3, [r2], #1	@ zero_extendqisi2
  76              	.LVL7:
  77 0026 002B     		cmp	r3, #0
  78 0028 F6D1     		bne	.L108
  79              	.LVL8:
  80              	.L2:
  81              		.loc 1 127 0
  82 002a 0023     		movs	r3, #0
  83 002c 0B70     		strb	r3, [r1]
  84              		.loc 1 129 0
  85 002e 0378     		ldrb	r3, [r0]	@ zero_extendqisi2
  86 0030 002B     		cmp	r3, #0
  87 0032 00F0BF80 		beq	.L62
  88              		.loc 1 130 0
  89 0036 00F10108 		add	r8, r0, #1
  90              	.LVL9:
  91              		.loc 1 133 0
  92 003a 98F800E0 		ldrb	lr, [r8]	@ zero_extendqisi2
  93              		.loc 1 118 0
  94 003e 3F24     		movs	r4, #63
  95              	.LVL10:
  96              		.loc 1 117 0
  97 0040 0626     		movs	r6, #6
  98              		.loc 1 116 0
  99 0042 0425     		movs	r5, #4
 100              	.LBB7:
 101              		.loc 1 151 0
 102 0044 4FF0200C 		mov	ip, #32
 103              	.LBE7:
 104              		.loc 1 133 0
 105 0048 BEF1000F 		cmp	lr, #0
 106 004c 42D0     		beq	.L9
 107              	.L109:
 108              	.LBB8:
 109              		.loc 1 138 0 discriminator 1
 110 004e BEF1200F 		cmp	lr, #32
 111 0052 08D1     		bne	.L21
 112              	.LVL11:
 113              	.L7:
 114              		.loc 1 138 0 is_stmt 0 discriminator 2
ARM GAS  /var/folders/6q/x_mk5n_j3p7_c40r_2k_78980000gn/T//cc9sDcHZ.s 			page 3


 115 0054 18F801EF 		ldrb	lr, [r8, #1]!	@ zero_extendqisi2
 116              	.LVL12:
 117 0058 BEF1200F 		cmp	lr, #32
 118 005c FAD0     		beq	.L7
 119              		.loc 1 139 0 is_stmt 1
 120 005e BEF1000F 		cmp	lr, #0
 121 0062 00F0A780 		beq	.L62
 122              	.LVL13:
 123              	.L21:
 124              		.loc 1 140 0
 125 0066 BEF13A0F 		cmp	lr, #58
 126 006a 33D0     		beq	.L9
 127              	.LVL14:
 128              		.loc 1 143 0
 129 006c 98F80130 		ldrb	r3, [r8, #1]	@ zero_extendqisi2
 130 0070 3D2B     		cmp	r3, #61
 131 0072 40F09F80 		bne	.L62
 132              		.loc 1 147 0
 133 0076 98F80220 		ldrb	r2, [r8, #2]	@ zero_extendqisi2
 134              		.loc 1 145 0
 135 007a 08F10208 		add	r8, r8, #2
 136              	.LVL15:
 137              		.loc 1 147 0
 138 007e A2F13001 		sub	r1, r2, #48
 139 0082 CBB2     		uxtb	r3, r1
 140 0084 092B     		cmp	r3, #9
 141 0086 4FF00003 		mov	r3, #0
 142 008a 0AD8     		bhi	.L10
 143              	.LVL16:
 144              	.L11:
 145              		.loc 1 147 0 is_stmt 0 discriminator 2
 146 008c 18F8012F 		ldrb	r2, [r8, #1]!	@ zero_extendqisi2
 147              	.LVL17:
 148 0090 03EB8303 		add	r3, r3, r3, lsl #2
 149              	.LVL18:
 150 0094 01EB4303 		add	r3, r1, r3, lsl #1
 151              	.LVL19:
 152 0098 A2F13001 		sub	r1, r2, #48
 153 009c C8B2     		uxtb	r0, r1
 154 009e 0928     		cmp	r0, #9
 155 00a0 F4D9     		bls	.L11
 156              	.LVL20:
 157              	.L10:
 158              		.loc 1 149 0 is_stmt 1
 159 00a2 BEF1640F 		cmp	lr, #100
 160 00a6 00F08280 		beq	.L13
 161 00aa BEF16F0F 		cmp	lr, #111
 162 00ae 7CD0     		beq	.L60
 163              		.loc 1 153 0
 164 00b0 BEF1620F 		cmp	lr, #98
 165 00b4 08BF     		it	eq
 166 00b6 1C46     		moveq	r4, r3
 167              	.LVL21:
 168 00b8 01E0     		b	.L102
 169              	.L18:
 170              	.LVL22:
 171              		.loc 1 156 0 discriminator 2
ARM GAS  /var/folders/6q/x_mk5n_j3p7_c40r_2k_78980000gn/T//cc9sDcHZ.s 			page 4


 172 00ba 18F8012F 		ldrb	r2, [r8, #1]!	@ zero_extendqisi2
 173              	.LVL23:
 174              	.L102:
 175 00be 202A     		cmp	r2, #32
 176 00c0 FBD0     		beq	.L18
 177              		.loc 1 157 0
 178 00c2 2C2A     		cmp	r2, #44
 179 00c4 08BF     		it	eq
 180 00c6 08F10108 		addeq	r8, r8, #1
 181              	.LVL24:
 182              	.LBE8:
 183              		.loc 1 133 0
 184 00ca 98F800E0 		ldrb	lr, [r8]	@ zero_extendqisi2
 185              	.LVL25:
 186 00ce BEF1000F 		cmp	lr, #0
 187 00d2 BCD1     		bne	.L109
 188              	.LVL26:
 189              	.L9:
 190              		.loc 1 163 0
 191 00d4 98F80120 		ldrb	r2, [r8, #1]	@ zero_extendqisi2
 192              		.loc 1 159 0
 193 00d8 08F1010B 		add	fp, r8, #1
 194              	.LVL27:
 195              		.loc 1 163 0
 196 00dc 1146     		mov	r1, r2
 197 00de 002A     		cmp	r2, #0
 198 00e0 00F0C580 		beq	.L22
 199 00e4 DE46     		mov	lr, fp
 200 00e6 0120     		movs	r0, #1
 201              	.LVL28:
 202              	.L24:
 203              		.loc 1 165 0
 204 00e8 2C29     		cmp	r1, #44
 205              		.loc 1 163 0
 206 00ea 1EF8011F 		ldrb	r1, [lr, #1]!	@ zero_extendqisi2
 207              	.LVL29:
 208              		.loc 1 166 0
 209 00ee 08BF     		it	eq
 210 00f0 0130     		addeq	r0, r0, #1
 211              	.LVL30:
 212              		.loc 1 163 0
 213 00f2 0029     		cmp	r1, #0
 214 00f4 F8D1     		bne	.L24
 215              		.loc 1 169 0
 216 00f6 0128     		cmp	r0, #1
 217 00f8 07D0     		beq	.L26
 218              		.loc 1 170 0
 219 00fa 0130     		adds	r0, r0, #1
 220              	.LVL31:
 221 00fc FFF7FEFF 		bl	vexAudioInitChipToneSong
 222              	.LVL32:
 223              		.loc 1 173 0
 224 0100 98F80120 		ldrb	r2, [r8, #1]	@ zero_extendqisi2
 225 0104 002A     		cmp	r2, #0
 226 0106 00F0B280 		beq	.L22
 227              	.L26:
 228              	.LBB9:
ARM GAS  /var/folders/6q/x_mk5n_j3p7_c40r_2k_78980000gn/T//cc9sDcHZ.s 			page 5


 229              	.LBB10:
 230              	.LBB11:
 231              		.loc 1 100 0
 232 010a DFF8F090 		ldr	r9, .L112+8
 233 010e DFF8F080 		ldr	r8, .L112+12
 234 0112 E400     		lsls	r4, r4, #3
 235              	.LVL33:
 236              	.LBE11:
 237              	.LBE10:
 238              	.LBB13:
 239              		.loc 1 191 0
 240 0114 4FF0200A 		mov	r10, #32
 241 0118 01E0     		b	.L104
 242              	.LVL34:
 243              	.L27:
 244              	.LBE13:
 245              		.loc 1 182 0 discriminator 2
 246 011a 1BF8012F 		ldrb	r2, [fp, #1]!	@ zero_extendqisi2
 247              	.LVL35:
 248              	.L104:
 249 011e 202A     		cmp	r2, #32
 250 0120 FBD0     		beq	.L27
 251              		.loc 1 183 0
 252 0122 002A     		cmp	r2, #0
 253 0124 46D0     		beq	.L62
 254              		.loc 1 186 0
 255 0126 303A     		subs	r2, r2, #48
 256 0128 D2B2     		uxtb	r2, r2
 257 012a 092A     		cmp	r2, #9
 258              	.LBB14:
 259              		.loc 1 189 0
 260 012c 9BF80000 		ldrb	r0, [fp]	@ zero_extendqisi2
 261              	.LBE14:
 262              		.loc 1 186 0
 263 0130 40F2AB80 		bls	.L28
 264 0134 2946     		mov	r1, r5
 265              	.L29:
 266              	.LVL36:
 267              		.loc 1 195 0
 268 0136 6828     		cmp	r0, #104
 269 0138 00F2F280 		bhi	.L32
 270 013c DFE800F0 		tbb	[pc, r0]
 271              	.L33:
 272 0140 3A       		.byte	(.L62-.L33)/2
 273 0141 F0       		.byte	(.L32-.L33)/2
 274 0142 F0       		.byte	(.L32-.L33)/2
 275 0143 F0       		.byte	(.L32-.L33)/2
 276 0144 F0       		.byte	(.L32-.L33)/2
 277 0145 F0       		.byte	(.L32-.L33)/2
 278 0146 F0       		.byte	(.L32-.L33)/2
 279 0147 F0       		.byte	(.L32-.L33)/2
 280 0148 F0       		.byte	(.L32-.L33)/2
 281 0149 F0       		.byte	(.L32-.L33)/2
 282 014a F0       		.byte	(.L32-.L33)/2
 283 014b F0       		.byte	(.L32-.L33)/2
 284 014c F0       		.byte	(.L32-.L33)/2
 285 014d F0       		.byte	(.L32-.L33)/2
ARM GAS  /var/folders/6q/x_mk5n_j3p7_c40r_2k_78980000gn/T//cc9sDcHZ.s 			page 6


 286 014e F0       		.byte	(.L32-.L33)/2
 287 014f F0       		.byte	(.L32-.L33)/2
 288 0150 F0       		.byte	(.L32-.L33)/2
 289 0151 F0       		.byte	(.L32-.L33)/2
 290 0152 F0       		.byte	(.L32-.L33)/2
 291 0153 F0       		.byte	(.L32-.L33)/2
 292 0154 F0       		.byte	(.L32-.L33)/2
 293 0155 F0       		.byte	(.L32-.L33)/2
 294 0156 F0       		.byte	(.L32-.L33)/2
 295 0157 F0       		.byte	(.L32-.L33)/2
 296 0158 F0       		.byte	(.L32-.L33)/2
 297 0159 F0       		.byte	(.L32-.L33)/2
 298 015a F0       		.byte	(.L32-.L33)/2
 299 015b F0       		.byte	(.L32-.L33)/2
 300 015c F0       		.byte	(.L32-.L33)/2
 301 015d F0       		.byte	(.L32-.L33)/2
 302 015e F0       		.byte	(.L32-.L33)/2
 303 015f F0       		.byte	(.L32-.L33)/2
 304 0160 F0       		.byte	(.L32-.L33)/2
 305 0161 F0       		.byte	(.L32-.L33)/2
 306 0162 F0       		.byte	(.L32-.L33)/2
 307 0163 F0       		.byte	(.L32-.L33)/2
 308 0164 F0       		.byte	(.L32-.L33)/2
 309 0165 F0       		.byte	(.L32-.L33)/2
 310 0166 F0       		.byte	(.L32-.L33)/2
 311 0167 F0       		.byte	(.L32-.L33)/2
 312 0168 F0       		.byte	(.L32-.L33)/2
 313 0169 F0       		.byte	(.L32-.L33)/2
 314 016a F0       		.byte	(.L32-.L33)/2
 315 016b F0       		.byte	(.L32-.L33)/2
 316 016c F0       		.byte	(.L32-.L33)/2
 317 016d F0       		.byte	(.L32-.L33)/2
 318 016e F0       		.byte	(.L32-.L33)/2
 319 016f F0       		.byte	(.L32-.L33)/2
 320 0170 F0       		.byte	(.L32-.L33)/2
 321 0171 F0       		.byte	(.L32-.L33)/2
 322 0172 F0       		.byte	(.L32-.L33)/2
 323 0173 F0       		.byte	(.L32-.L33)/2
 324 0174 F0       		.byte	(.L32-.L33)/2
 325 0175 F0       		.byte	(.L32-.L33)/2
 326 0176 F0       		.byte	(.L32-.L33)/2
 327 0177 F0       		.byte	(.L32-.L33)/2
 328 0178 F0       		.byte	(.L32-.L33)/2
 329 0179 F0       		.byte	(.L32-.L33)/2
 330 017a F0       		.byte	(.L32-.L33)/2
 331 017b F0       		.byte	(.L32-.L33)/2
 332 017c F0       		.byte	(.L32-.L33)/2
 333 017d F0       		.byte	(.L32-.L33)/2
 334 017e F0       		.byte	(.L32-.L33)/2
 335 017f F0       		.byte	(.L32-.L33)/2
 336 0180 F0       		.byte	(.L32-.L33)/2
 337 0181 ED       		.byte	(.L34-.L33)/2
 338 0182 3E       		.byte	(.L35-.L33)/2
 339 0183 A2       		.byte	(.L63-.L33)/2
 340 0184 EA       		.byte	(.L37-.L33)/2
 341 0185 E7       		.byte	(.L38-.L33)/2
 342 0186 E4       		.byte	(.L39-.L33)/2
ARM GAS  /var/folders/6q/x_mk5n_j3p7_c40r_2k_78980000gn/T//cc9sDcHZ.s 			page 7


 343 0187 E1       		.byte	(.L40-.L33)/2
 344 0188 3E       		.byte	(.L35-.L33)/2
 345 0189 F0       		.byte	(.L32-.L33)/2
 346 018a F0       		.byte	(.L32-.L33)/2
 347 018b F0       		.byte	(.L32-.L33)/2
 348 018c F0       		.byte	(.L32-.L33)/2
 349 018d F0       		.byte	(.L32-.L33)/2
 350 018e F0       		.byte	(.L32-.L33)/2
 351 018f F0       		.byte	(.L32-.L33)/2
 352 0190 F0       		.byte	(.L32-.L33)/2
 353 0191 F0       		.byte	(.L32-.L33)/2
 354 0192 F0       		.byte	(.L32-.L33)/2
 355 0193 F0       		.byte	(.L32-.L33)/2
 356 0194 F0       		.byte	(.L32-.L33)/2
 357 0195 F0       		.byte	(.L32-.L33)/2
 358 0196 F0       		.byte	(.L32-.L33)/2
 359 0197 F0       		.byte	(.L32-.L33)/2
 360 0198 F0       		.byte	(.L32-.L33)/2
 361 0199 F0       		.byte	(.L32-.L33)/2
 362 019a F0       		.byte	(.L32-.L33)/2
 363 019b F0       		.byte	(.L32-.L33)/2
 364 019c F0       		.byte	(.L32-.L33)/2
 365 019d F0       		.byte	(.L32-.L33)/2
 366 019e F0       		.byte	(.L32-.L33)/2
 367 019f F0       		.byte	(.L32-.L33)/2
 368 01a0 F0       		.byte	(.L32-.L33)/2
 369 01a1 ED       		.byte	(.L34-.L33)/2
 370 01a2 3E       		.byte	(.L35-.L33)/2
 371 01a3 A2       		.byte	(.L63-.L33)/2
 372 01a4 EA       		.byte	(.L37-.L33)/2
 373 01a5 E7       		.byte	(.L38-.L33)/2
 374 01a6 E4       		.byte	(.L39-.L33)/2
 375 01a7 E1       		.byte	(.L40-.L33)/2
 376 01a8 3E       		.byte	(.L35-.L33)/2
 377              	.LVL37:
 378 01a9 00       		.p2align 1
 379              	.L60:
 380              	.LBE9:
 381              	.LBB17:
 382              		.loc 1 149 0
 383 01aa 1E46     		mov	r6, r3
 384              	.LVL38:
 385 01ac 87E7     		b	.L102
 386              	.LVL39:
 387              	.L13:
 388              		.loc 1 151 0
 389 01ae 9CFBF3F5 		sdiv	r5, ip, r3
 390              	.LVL40:
 391 01b2 84E7     		b	.L102
 392              	.LVL41:
 393              	.L62:
 394              	.LBE17:
 395              	.LBB18:
 396              		.loc 1 197 0
 397 01b4 1048     		ldr	r0, .L112+4
 398              	.L99:
 399              	.LBE18:
ARM GAS  /var/folders/6q/x_mk5n_j3p7_c40r_2k_78980000gn/T//cc9sDcHZ.s 			page 8


 400              		.loc 1 258 0
 401 01b6 03B0     		add	sp, sp, #12
 402              		.cfi_remember_state
 403              		.cfi_def_cfa_offset 36
 404              		@ sp needed
 405 01b8 BDE8F08F 		pop	{r4, r5, r6, r7, r8, r9, r10, fp, pc}
 406              	.LVL42:
 407              	.L35:
 408              		.cfi_restore_state
 409              	.LBB19:
 410              		.loc 1 205 0
 411 01bc 4FF00B0C 		mov	ip, #11
 412              	.LVL43:
 413              	.L36:
 414              		.loc 1 209 0
 415 01c0 9BF80120 		ldrb	r2, [fp, #1]	@ zero_extendqisi2
 416 01c4 232A     		cmp	r2, #35
 417 01c6 09BF     		itett	eq
 418 01c8 9BF80220 		ldrbeq	r2, [fp, #2]	@ zero_extendqisi2
 419              		.loc 1 208 0
 420 01cc 0BF1010B 		addne	fp, fp, #1
 421              	.LVL44:
 422              		.loc 1 211 0
 423 01d0 0CF1010C 		addeq	ip, ip, #1
 424              	.LVL45:
 425              		.loc 1 212 0
 426 01d4 0BF1020B 		addeq	fp, fp, #2
 427              	.LVL46:
 428              		.loc 1 214 0
 429 01d8 622A     		cmp	r2, #98
 430 01da 00F08B80 		beq	.L110
 431              	.L44:
 432              		.loc 1 221 0
 433 01de 2E2A     		cmp	r2, #46
 434 01e0 79D0     		beq	.L111
 435              		.loc 1 228 0
 436 01e2 A2F1300E 		sub	lr, r2, #48
 437 01e6 5FFA8EF0 		uxtb	r0, lr
 438 01ea 0928     		cmp	r0, #9
 439 01ec 64D9     		bls	.L56
 440 01ee B646     		mov	lr, r6
 441 01f0 0AE0     		b	.L105
 442              	.L113:
 443 01f2 00BF     		.align	2
 444              	.L112:
 445 01f4 00000000 		.word	.LANCHOR0
 446 01f8 00000000 		.word	.LC0
 447 01fc 00000000 		.word	.LANCHOR1
 448 0200 ABAAAA2A 		.word	715827883
 449              	.LVL47:
 450              	.L49:
 451              		.loc 1 238 0 discriminator 2
 452 0204 1BF8012F 		ldrb	r2, [fp, #1]!	@ zero_extendqisi2
 453              	.LVL48:
 454              	.L105:
 455 0208 202A     		cmp	r2, #32
 456 020a FBD0     		beq	.L49
ARM GAS  /var/folders/6q/x_mk5n_j3p7_c40r_2k_78980000gn/T//cc9sDcHZ.s 			page 9


 457              		.loc 1 239 0
 458 020c 2C2A     		cmp	r2, #44
 459              		.loc 1 242 0
 460 020e 4EF66022 		movw	r2, #60000
 461 0212 02FB01F2 		mul	r2, r2, r1
 462              		.loc 1 239 0
 463 0216 08BF     		it	eq
 464 0218 0BF1010B 		addeq	fp, fp, #1
 465              	.LVL49:
 466              		.loc 1 243 0
 467 021c BCF1FF3F 		cmp	ip, #-1
 468              		.loc 1 242 0
 469 0220 92FBF4F2 		sdiv	r2, r2, r4
 470              	.LVL50:
 471              		.loc 1 243 0
 472 0224 55D0     		beq	.L65
 473              		.loc 1 246 0
 474 0226 0EF1010E 		add	lr, lr, #1
 475 022a 0EEB4E0E 		add	lr, lr, lr, lsl #1
 476 022e 0CEB8E00 		add	r0, ip, lr, lsl #2
 477              	.LVL51:
 478              	.LBB15:
 479              	.LBB12:
 480              		.loc 1 100 0
 481 0232 88FB0031 		smull	r3, r1, r8, r0
 482 0236 4FEAE07E 		asr	lr, r0, #31
 483 023a 4910     		asrs	r1, r1, #1
 484 023c CEEB010C 		rsb	ip, lr, r1
 485              	.LVL52:
 486 0240 0CEB4C0C 		add	ip, ip, ip, lsl #1
 487 0244 C1EB0E01 		rsb	r1, r1, lr
 488 0248 A0EB8C00 		sub	r0, r0, ip, lsl #2
 489              	.LVL53:
 490 024c 59F82000 		ldr	r0, [r9, r0, lsl #2]
 491 0250 0931     		adds	r1, r1, #9
 492 0252 4FF0010E 		mov	lr, #1
 493 0256 0EFA01F1 		lsl	r1, lr, r1
 494 025a 90FBF1F0 		sdiv	r0, r0, r1
 495              	.L51:
 496              	.LVL54:
 497              	.LBE12:
 498              	.LBE15:
 499              		.loc 1 248 0
 500 025e 3946     		mov	r1, r7
 501 0260 FFF7FEFF 		bl	vexAudioSetNextChipTone
 502              	.LVL55:
 503              	.LBE19:
 504              		.loc 1 173 0
 505 0264 9BF80020 		ldrb	r2, [fp]	@ zero_extendqisi2
 506 0268 002A     		cmp	r2, #0
 507 026a 7FF458AF 		bne	.L104
 508              	.L22:
 509              		.loc 1 252 0
 510 026e 0021     		movs	r1, #0
 511 0270 0846     		mov	r0, r1
 512 0272 4FF4FA72 		mov	r2, #500
 513 0276 FFF7FEFF 		bl	vexAudioSetNextChipTone
ARM GAS  /var/folders/6q/x_mk5n_j3p7_c40r_2k_78980000gn/T//cc9sDcHZ.s 			page 10


 514              	.LVL56:
 515              		.loc 1 255 0
 516 027a 0198     		ldr	r0, [sp, #4]
 517 027c FFF7FEFF 		bl	vexAudioStartChipToneSong
 518              	.LVL57:
 519              		.loc 1 257 0
 520 0280 2948     		ldr	r0, .L114
 521 0282 98E7     		b	.L99
 522              	.LVL58:
 523              	.L63:
 524              	.LBB20:
 525              		.loc 1 198 0
 526 0284 4FF0000C 		mov	ip, #0
 527 0288 9AE7     		b	.L36
 528              	.LVL59:
 529              	.L28:
 530              	.LBB16:
 531              		.loc 1 189 0 discriminator 1
 532 028a A0F13001 		sub	r1, r0, #48
 533 028e CAB2     		uxtb	r2, r1
 534 0290 092A     		cmp	r2, #9
 535 0292 4FF00002 		mov	r2, #0
 536 0296 0CD8     		bhi	.L30
 537              	.LVL60:
 538              	.L31:
 539              		.loc 1 189 0 is_stmt 0 discriminator 2
 540 0298 1BF8010F 		ldrb	r0, [fp, #1]!	@ zero_extendqisi2
 541              	.LVL61:
 542 029c 02EB8202 		add	r2, r2, r2, lsl #2
 543              	.LVL62:
 544 02a0 01EB4202 		add	r2, r1, r2, lsl #1
 545              	.LVL63:
 546 02a4 A0F13001 		sub	r1, r0, #48
 547 02a8 5FFA81FE 		uxtb	lr, r1
 548 02ac BEF1090F 		cmp	lr, #9
 549 02b0 F2D9     		bls	.L31
 550              	.LVL64:
 551              	.L30:
 552              		.loc 1 191 0 is_stmt 1
 553 02b2 9AFBF2F1 		sdiv	r1, r10, r2
 554              	.LVL65:
 555 02b6 3EE7     		b	.L29
 556              	.LVL66:
 557              	.L56:
 558 02b8 9BF80120 		ldrb	r2, [fp, #1]	@ zero_extendqisi2
 559              	.LBE16:
 560              		.loc 1 228 0 discriminator 1
 561 02bc 0BF1010B 		add	fp, fp, #1
 562              	.LVL67:
 563              	.L46:
 564              		.loc 1 231 0
 565 02c0 2E2A     		cmp	r2, #46
 566 02c2 A1D1     		bne	.L105
 567 02c4 9BF80120 		ldrb	r2, [fp, #1]	@ zero_extendqisi2
 568              		.loc 1 233 0
 569 02c8 01EB6101 		add	r1, r1, r1, asr #1
 570              	.LVL68:
ARM GAS  /var/folders/6q/x_mk5n_j3p7_c40r_2k_78980000gn/T//cc9sDcHZ.s 			page 11


 571              		.loc 1 234 0
 572 02cc 0BF1010B 		add	fp, fp, #1
 573              	.LVL69:
 574 02d0 9AE7     		b	.L105
 575              	.LVL70:
 576              	.L65:
 577              		.loc 1 244 0
 578 02d2 0020     		movs	r0, #0
 579 02d4 C3E7     		b	.L51
 580              	.LVL71:
 581              	.L111:
 582              		.loc 1 228 0
 583 02d6 9BF80120 		ldrb	r2, [fp, #1]	@ zero_extendqisi2
 584              		.loc 1 224 0
 585 02da 0BF10103 		add	r3, fp, #1
 586              		.loc 1 228 0
 587 02de A2F1300E 		sub	lr, r2, #48
 588 02e2 5FFA8EF0 		uxtb	r0, lr
 589 02e6 0928     		cmp	r0, #9
 590              		.loc 1 223 0
 591 02e8 01EB6101 		add	r1, r1, r1, asr #1
 592              	.LVL72:
 593              		.loc 1 224 0
 594 02ec 9B46     		mov	fp, r3
 595              		.loc 1 228 0
 596 02ee E3D9     		bls	.L56
 597 02f0 B646     		mov	lr, r6
 598 02f2 E5E7     		b	.L46
 599              	.LVL73:
 600              	.L110:
 601 02f4 9BF80120 		ldrb	r2, [fp, #1]	@ zero_extendqisi2
 602              		.loc 1 216 0
 603 02f8 0CF1FF3C 		add	ip, ip, #-1
 604              	.LVL74:
 605              		.loc 1 217 0
 606 02fc 0BF1010B 		add	fp, fp, #1
 607              	.LVL75:
 608 0300 6DE7     		b	.L44
 609              	.LVL76:
 610              	.L40:
 611              		.loc 1 202 0
 612 0302 4FF0070C 		mov	ip, #7
 613 0306 5BE7     		b	.L36
 614              	.LVL77:
 615              	.L39:
 616              		.loc 1 201 0
 617 0308 4FF0050C 		mov	ip, #5
 618 030c 58E7     		b	.L36
 619              	.LVL78:
 620              	.L38:
 621              		.loc 1 200 0
 622 030e 4FF0040C 		mov	ip, #4
 623 0312 55E7     		b	.L36
 624              	.LVL79:
 625              	.L37:
 626              		.loc 1 199 0
 627 0314 4FF0020C 		mov	ip, #2
ARM GAS  /var/folders/6q/x_mk5n_j3p7_c40r_2k_78980000gn/T//cc9sDcHZ.s 			page 12


 628 0318 52E7     		b	.L36
 629              	.LVL80:
 630              	.L34:
 631              		.loc 1 203 0
 632 031a 4FF0090C 		mov	ip, #9
 633 031e 4FE7     		b	.L36
 634              	.LVL81:
 635              	.L32:
 636              		.loc 1 175 0
 637 0320 4FF0FF3C 		mov	ip, #-1
 638 0324 4CE7     		b	.L36
 639              	.L115:
 640 0326 00BF     		.align	2
 641              	.L114:
 642 0328 00000000 		.word	.LANCHOR0
 643              	.LBE20:
 644              		.cfi_endproc
 645              	.LFE64:
 646              		.size	vexAudioPlayRtttl, .-vexAudioPlayRtttl
 647              		.section	.rodata.notefreq,"a",%progbits
 648              		.align	2
 649              		.set	.LANCHOR1,. + 0
 650              		.type	notefreq, %object
 651              		.size	notefreq, 48
 652              	notefreq:
 653 0000 5A100000 		.word	4186
 654 0004 52110000 		.word	4434
 655 0008 5A120000 		.word	4698
 656 000c 72130000 		.word	4978
 657 0010 9A140000 		.word	5274
 658 0014 D3150000 		.word	5587
 659 0018 1F170000 		.word	5919
 660 001c 7F180000 		.word	6271
 661 0020 F4190000 		.word	6644
 662 0024 801B0000 		.word	7040
 663 0028 221D0000 		.word	7458
 664 002c DE1E0000 		.word	7902
 665              		.section	.rodata.str1.4,"aMS",%progbits,1
 666              		.align	2
 667              	.LC0:
 668 0000 00       		.ascii	"\000"
 669              		.section	.bss.name,"aw",%nobits
 670              		.align	2
 671              		.set	.LANCHOR0,. + 0
 672              		.type	name, %object
 673              		.size	name, 48
 674              	name:
 675 0000 00000000 		.space	48
 675      00000000 
 675      00000000 
 675      00000000 
 675      00000000 
 676              		.text
 677              	.Letext0:
 678              		.file 2 "/Users/Luca/src/vexilla/src/gcc-arm-none-eabi-5_4-2016q3/arm-none-eabi/include/machine/_d
 679              		.file 3 "/Users/Luca/src/vexilla/src/gcc-arm-none-eabi-5_4-2016q3/arm-none-eabi/include/sys/_stdin
 680              		.file 4 "../convex-vexilla/cortex/fw/vexdigital.h"
ARM GAS  /var/folders/6q/x_mk5n_j3p7_c40r_2k_78980000gn/T//cc9sDcHZ.s 			page 13


 681              		.file 5 "../convex-vexilla/cortex/fw/vexime.h"
 682              		.file 6 "../convex-vexilla/cortex/fw/vexaudio.h"
 683              		.file 7 "../ChibiOS/os/ports/common/ARMCMx/CMSIS/include/core_cm3.h"