ARM GAS  /var/folders/6q/x_mk5n_j3p7_c40r_2k_78980000gn/T//cczQbSnP.s 			page 1


   1              		.syntax unified
   2              		.cpu cortex-m3
   3              		.fpu softvfp
   4              		.eabi_attribute 20, 1
   5              		.eabi_attribute 21, 1
   6              		.eabi_attribute 23, 3
   7              		.eabi_attribute 24, 1
   8              		.eabi_attribute 25, 1
   9              		.eabi_attribute 26, 1
  10              		.eabi_attribute 30, 2
  11              		.eabi_attribute 34, 1
  12              		.eabi_attribute 18, 4
  13              		.thumb
  14              		.syntax unified
  15              		.file	"vexsonar.c"
  16              		.text
  17              	.Ltext0:
  18              		.cfi_sections	.debug_frame
  19              		.section	.text._vs_echo_cb,"ax",%progbits
  20              		.align	2
  21              		.p2align 4,,15
  22              		.thumb
  23              		.thumb_func
  24              		.type	_vs_echo_cb, %function
  25              	_vs_echo_cb:
  26              	.LFB65:
  27              		.file 1 "../convex-vexilla/cortex/fw/vexsonar.c"
  28              		.loc 1 202 0
  29              		.cfi_startproc
  30              		@ args = 0, pretend = 0, frame = 0
  31              		@ frame_needed = 0, uses_anonymous_args = 0
  32              		@ link register save eliminated.
  33              	.LVL0:
  34 0000 10B4     		push	{r4}
  35              		.cfi_def_cfa_offset 4
  36              		.cfi_offset 4, -4
  37              	.LBB4:
  38              		.loc 1 206 0
  39 0002 2023     		movs	r3, #32
  40              		.syntax unified
  41              	@ 206 "../convex-vexilla/cortex/fw/vexsonar.c" 1
  42 0004 83F31188 		msr     BASEPRI, r3
  43              	@ 0 "" 2
  44              		.thumb
  45              		.syntax unified
  46              	.LBE4:
  47              		.loc 1 208 0
  48 0008 104B     		ldr	r3, .L7
  49 000a 1148     		ldr	r0, .L7+4
  50              	.LVL1:
  51 000c 1B78     		ldrb	r3, [r3]	@ zero_extendqisi2
  52 000e 5B01     		lsls	r3, r3, #5
  53 0010 C118     		adds	r1, r0, r3
  54              	.LVL2:
  55 0012 8A69     		ldr	r2, [r1, #24]
  56 0014 B1F91C40 		ldrsh	r4, [r1, #28]
  57 0018 9268     		ldr	r2, [r2, #8]
ARM GAS  /var/folders/6q/x_mk5n_j3p7_c40r_2k_78980000gn/T//cczQbSnP.s 			page 2


  58 001a E240     		lsrs	r2, r2, r4
  59 001c D207     		lsls	r2, r2, #31
  60 001e 0BD4     		bmi	.L6
  61              		.loc 1 212 0
  62 0020 0C4B     		ldr	r3, .L7+8
  63              		.loc 1 213 0
  64 0022 0D4A     		ldr	r2, .L7+12
  65              		.loc 1 212 0
  66 0024 DB68     		ldr	r3, [r3, #12]
  67              		.loc 1 213 0
  68 0026 0220     		movs	r0, #2
  69              		.loc 1 212 0
  70 0028 5B6A     		ldr	r3, [r3, #36]
  71              		.loc 1 213 0
  72 002a 1070     		strb	r0, [r2]
  73              		.loc 1 212 0
  74 002c 4B80     		strh	r3, [r1, #2]	@ movhi
  75              	.LBB5:
  76              		.loc 1 216 0
  77 002e 0023     		movs	r3, #0
  78              		.syntax unified
  79              	@ 216 "../convex-vexilla/cortex/fw/vexsonar.c" 1
  80 0030 83F31188 		msr     BASEPRI, r3
  81              	@ 0 "" 2
  82              		.thumb
  83              		.syntax unified
  84              	.LBE5:
  85              		.loc 1 217 0
  86 0034 10BC     		pop	{r4}
  87              		.cfi_remember_state
  88              		.cfi_restore 4
  89              		.cfi_def_cfa_offset 0
  90 0036 7047     		bx	lr
  91              	.L6:
  92              		.cfi_restore_state
  93              		.loc 1 209 0
  94 0038 064A     		ldr	r2, .L7+8
  95 003a D268     		ldr	r2, [r2, #12]
  96 003c 526A     		ldr	r2, [r2, #36]
  97 003e C252     		strh	r2, [r0, r3]	@ movhi
  98              	.LBB6:
  99              		.loc 1 216 0
 100 0040 0023     		movs	r3, #0
 101              		.syntax unified
 102              	@ 216 "../convex-vexilla/cortex/fw/vexsonar.c" 1
 103 0042 83F31188 		msr     BASEPRI, r3
 104              	@ 0 "" 2
 105              		.thumb
 106              		.syntax unified
 107              	.LBE6:
 108              		.loc 1 217 0
 109 0046 10BC     		pop	{r4}
 110              		.cfi_restore 4
 111              		.cfi_def_cfa_offset 0
 112 0048 7047     		bx	lr
 113              	.L8:
 114 004a 00BF     		.align	2
ARM GAS  /var/folders/6q/x_mk5n_j3p7_c40r_2k_78980000gn/T//cczQbSnP.s 			page 3


 115              	.L7:
 116 004c 00000000 		.word	.LANCHOR0
 117 0050 00000000 		.word	.LANCHOR1
 118 0054 00000000 		.word	GPTD5
 119 0058 00000000 		.word	.LANCHOR2
 120              		.cfi_endproc
 121              	.LFE65:
 122              		.size	_vs_echo_cb, .-_vs_echo_cb
 123              		.section	.text._vs_gpt_cb,"ax",%progbits
 124              		.align	2
 125              		.p2align 4,,15
 126              		.thumb
 127              		.thumb_func
 128              		.type	_vs_gpt_cb, %function
 129              	_vs_gpt_cb:
 130              	.LFB63:
 131              		.loc 1 95 0
 132              		.cfi_startproc
 133              		@ args = 0, pretend = 0, frame = 0
 134              		@ frame_needed = 0, uses_anonymous_args = 0
 135              	.LVL3:
 136 0000 70B5     		push	{r4, r5, r6, lr}
 137              		.cfi_def_cfa_offset 16
 138              		.cfi_offset 4, -16
 139              		.cfi_offset 5, -12
 140              		.cfi_offset 6, -8
 141              		.cfi_offset 14, -4
 142              	.LBB7:
 143              		.loc 1 98 0
 144 0002 2023     		movs	r3, #32
 145              		.syntax unified
 146              	@ 98 "../convex-vexilla/cortex/fw/vexsonar.c" 1
 147 0004 83F31188 		msr     BASEPRI, r3
 148              	@ 0 "" 2
 149              		.thumb
 150              		.syntax unified
 151              	.LBE7:
 152              		.loc 1 100 0
 153 0008 164B     		ldr	r3, .L15
 154 000a 1978     		ldrb	r1, [r3]	@ zero_extendqisi2
 155 000c A9B1     		cbz	r1, .L13
 156              		.loc 1 107 0
 157 000e 0129     		cmp	r1, #1
 158 0010 03D0     		beq	.L14
 159              	.LBB8:
 160              		.loc 1 114 0
 161 0012 0023     		movs	r3, #0
 162              		.syntax unified
 163              	@ 114 "../convex-vexilla/cortex/fw/vexsonar.c" 1
 164 0014 83F31188 		msr     BASEPRI, r3
 165              	@ 0 "" 2
 166              		.thumb
 167              		.syntax unified
 168 0018 70BD     		pop	{r4, r5, r6, pc}
 169              	.L14:
 170              	.LBE8:
 171              		.loc 1 110 0
ARM GAS  /var/folders/6q/x_mk5n_j3p7_c40r_2k_78980000gn/T//cczQbSnP.s 			page 4


 172 001a 49F64045 		movw	r5, #40000
 173              		.loc 1 109 0
 174 001e 124A     		ldr	r2, .L15+4
 175 0020 1249     		ldr	r1, .L15+8
 176 0022 1278     		ldrb	r2, [r2]	@ zero_extendqisi2
 177 0024 0026     		movs	r6, #0
 178 0026 5201     		lsls	r2, r2, #5
 179 0028 8C18     		adds	r4, r1, r2
 180              		.loc 1 111 0
 181 002a 0320     		movs	r0, #3
 182              	.LVL4:
 183 002c 1870     		strb	r0, [r3]
 184              		.loc 1 109 0
 185 002e 8E52     		strh	r6, [r1, r2]	@ movhi
 186              		.loc 1 110 0
 187 0030 6580     		strh	r5, [r4, #2]	@ movhi
 188              	.LBB9:
 189              		.loc 1 114 0
 190 0032 0023     		movs	r3, #0
 191              		.syntax unified
 192              	@ 114 "../convex-vexilla/cortex/fw/vexsonar.c" 1
 193 0034 83F31188 		msr     BASEPRI, r3
 194              	@ 0 "" 2
 195              		.thumb
 196              		.syntax unified
 197 0038 70BD     		pop	{r4, r5, r6, pc}
 198              	.LVL5:
 199              	.L13:
 200              	.LBE9:
 201              		.loc 1 103 0
 202 003a 0B48     		ldr	r0, .L15+4
 203              	.LVL6:
 204 003c 0B4A     		ldr	r2, .L15+8
 205 003e 0078     		ldrb	r0, [r0]	@ zero_extendqisi2
 206 0040 02EB4012 		add	r2, r2, r0, lsl #5
 207 0044 92F90E00 		ldrsb	r0, [r2, #14]
 208              		.loc 1 102 0
 209 0048 0122     		movs	r2, #1
 210 004a 1A70     		strb	r2, [r3]
 211              		.loc 1 103 0
 212 004c FFF7FEFF 		bl	vexDigitalPinSet
 213              	.LVL7:
 214              		.loc 1 104 0
 215 0050 49F64041 		movw	r1, #40000
 216 0054 0648     		ldr	r0, .L15+12
 217 0056 FFF7FEFF 		bl	gptStartOneShotI
 218              	.LVL8:
 219              	.LBB10:
 220              		.loc 1 114 0
 221 005a 0023     		movs	r3, #0
 222              		.syntax unified
 223              	@ 114 "../convex-vexilla/cortex/fw/vexsonar.c" 1
 224 005c 83F31188 		msr     BASEPRI, r3
 225              	@ 0 "" 2
 226              		.thumb
 227              		.syntax unified
 228 0060 70BD     		pop	{r4, r5, r6, pc}
ARM GAS  /var/folders/6q/x_mk5n_j3p7_c40r_2k_78980000gn/T//cczQbSnP.s 			page 5


 229              	.L16:
 230 0062 00BF     		.align	2
 231              	.L15:
 232 0064 00000000 		.word	.LANCHOR2
 233 0068 00000000 		.word	.LANCHOR0
 234 006c 00000000 		.word	.LANCHOR1
 235 0070 00000000 		.word	GPTD5
 236              	.LBE10:
 237              		.cfi_endproc
 238              	.LFE63:
 239              		.size	_vs_gpt_cb, .-_vs_gpt_cb
 240              		.section	.text.vexSonarAdd,"ax",%progbits
 241              		.align	2
 242              		.p2align 4,,15
 243              		.global	vexSonarAdd
 244              		.thumb
 245              		.thumb_func
 246              		.type	vexSonarAdd, %function
 247              	vexSonarAdd:
 248              	.LFB66:
 249              		.loc 1 228 0
 250              		.cfi_startproc
 251              		@ args = 0, pretend = 0, frame = 0
 252              		@ frame_needed = 0, uses_anonymous_args = 0
 253              	.LVL9:
 254              		.loc 1 229 0
 255 0000 0428     		cmp	r0, #4
 256 0002 03D8     		bhi	.L20
 257              		.loc 1 232 0
 258 0004 0B29     		cmp	r1, #11
 259 0006 01DC     		bgt	.L20
 260              		.loc 1 234 0
 261 0008 0B2A     		cmp	r2, #11
 262 000a 00DD     		ble	.L21
 263              	.L20:
 264 000c 7047     		bx	lr
 265              	.L21:
 266              		.loc 1 228 0
 267 000e F8B5     		push	{r3, r4, r5, r6, r7, lr}
 268              		.cfi_def_cfa_offset 24
 269              		.cfi_offset 3, -24
 270              		.cfi_offset 4, -20
 271              		.cfi_offset 5, -16
 272              		.cfi_offset 6, -12
 273              		.cfi_offset 7, -8
 274              		.cfi_offset 14, -4
 275 0010 0D46     		mov	r5, r1
 276 0012 0446     		mov	r4, r0
 277 0014 1646     		mov	r6, r2
 278              		.loc 1 240 0
 279 0016 2846     		mov	r0, r5
 280              	.LVL10:
 281 0018 0121     		movs	r1, #1
 282              	.LVL11:
 283 001a FFF7FEFF 		bl	vexDigitalModeSet
 284              	.LVL12:
 285              		.loc 1 242 0
ARM GAS  /var/folders/6q/x_mk5n_j3p7_c40r_2k_78980000gn/T//cczQbSnP.s 			page 6


 286 001e 134F     		ldr	r7, .L22
 287 0020 05EB4503 		add	r3, r5, r5, lsl #1
 288 0024 9B00     		lsls	r3, r3, #2
 289              		.loc 1 243 0
 290 0026 FA18     		adds	r2, r7, r3
 291              		.loc 1 241 0
 292 0028 1148     		ldr	r0, .L22+4
 293              		.loc 1 243 0
 294 002a 9288     		ldrh	r2, [r2, #4]
 295              		.loc 1 242 0
 296 002c FB58     		ldr	r3, [r7, r3]
 297              		.loc 1 241 0
 298 002e 00EB4414 		add	r4, r0, r4, lsl #5
 299              		.loc 1 246 0
 300 0032 0021     		movs	r1, #0
 301 0034 3046     		mov	r0, r6
 302              		.loc 1 243 0
 303 0036 A282     		strh	r2, [r4, #20]	@ movhi
 304              		.loc 1 242 0
 305 0038 2361     		str	r3, [r4, #16]
 306              		.loc 1 241 0
 307 003a A573     		strb	r5, [r4, #14]
 308              		.loc 1 246 0
 309 003c FFF7FEFF 		bl	vexDigitalModeSet
 310              	.LVL13:
 311              		.loc 1 248 0
 312 0040 06EB4603 		add	r3, r6, r6, lsl #1
 313 0044 9B00     		lsls	r3, r3, #2
 314              		.loc 1 249 0
 315 0046 FA18     		adds	r2, r7, r3
 316 0048 B2F904E0 		ldrsh	lr, [r2, #4]
 317              		.loc 1 248 0
 318 004c FD58     		ldr	r5, [r7, r3]
 319              		.loc 1 250 0
 320 004e 1FFA8EF1 		uxth	r1, lr
 321 0052 084B     		ldr	r3, .L22+8
 322 0054 2846     		mov	r0, r5
 323 0056 0322     		movs	r2, #3
 324              		.loc 1 247 0
 325 0058 E673     		strb	r6, [r4, #15]
 326              		.loc 1 249 0
 327 005a A4F81CE0 		strh	lr, [r4, #28]	@ movhi
 328              		.loc 1 248 0
 329 005e A561     		str	r5, [r4, #24]
 330              		.loc 1 250 0
 331 0060 FFF7FEFF 		bl	vexExtSet
 332              	.LVL14:
 333              		.loc 1 253 0
 334 0064 0323     		movs	r3, #3
 335 0066 A381     		strh	r3, [r4, #12]	@ movhi
 336 0068 F8BD     		pop	{r3, r4, r5, r6, r7, pc}
 337              	.L23:
 338 006a 00BF     		.align	2
 339              	.L22:
 340 006c 00000000 		.word	vexioDefinition
 341 0070 00000000 		.word	.LANCHOR1
 342 0074 00000000 		.word	_vs_echo_cb
ARM GAS  /var/folders/6q/x_mk5n_j3p7_c40r_2k_78980000gn/T//cczQbSnP.s 			page 7


 343              		.cfi_endproc
 344              	.LFE66:
 345              		.size	vexSonarAdd, .-vexSonarAdd
 346              		.section	.text.vexSonarStart,"ax",%progbits
 347              		.align	2
 348              		.p2align 4,,15
 349              		.global	vexSonarStart
 350              		.thumb
 351              		.thumb_func
 352              		.type	vexSonarStart, %function
 353              	vexSonarStart:
 354              	.LFB67:
 355              		.loc 1 263 0
 356              		.cfi_startproc
 357              		@ args = 0, pretend = 0, frame = 0
 358              		@ frame_needed = 0, uses_anonymous_args = 0
 359              		@ link register save eliminated.
 360              	.LVL15:
 361              		.loc 1 264 0
 362 0000 054B     		ldr	r3, .L27
 363 0002 03EB4010 		add	r0, r3, r0, lsl #5
 364              	.LVL16:
 365 0006 8389     		ldrh	r3, [r0, #12]
 366 0008 DB07     		lsls	r3, r3, #31
 367 000a 00D4     		bmi	.L26
 368 000c 7047     		bx	lr
 369              	.L26:
 370              		.loc 1 266 0
 371 000e B0F91C10 		ldrsh	r1, [r0, #28]
 372 0012 0248     		ldr	r0, .L27+4
 373 0014 FFF7FEBF 		b	extChannelEnable
 374              	.LVL17:
 375              	.L28:
 376              		.align	2
 377              	.L27:
 378 0018 00000000 		.word	.LANCHOR1
 379 001c 00000000 		.word	EXTD1
 380              		.cfi_endproc
 381              	.LFE67:
 382              		.size	vexSonarStart, .-vexSonarStart
 383              		.section	.text.vexSonarStop,"ax",%progbits
 384              		.align	2
 385              		.p2align 4,,15
 386              		.global	vexSonarStop
 387              		.thumb
 388              		.thumb_func
 389              		.type	vexSonarStop, %function
 390              	vexSonarStop:
 391              	.LFB68:
 392              		.loc 1 277 0
 393              		.cfi_startproc
 394              		@ args = 0, pretend = 0, frame = 0
 395              		@ frame_needed = 0, uses_anonymous_args = 0
 396              		@ link register save eliminated.
 397              	.LVL18:
 398              		.loc 1 278 0
 399 0000 054B     		ldr	r3, .L32
ARM GAS  /var/folders/6q/x_mk5n_j3p7_c40r_2k_78980000gn/T//cczQbSnP.s 			page 8


 400 0002 03EB4010 		add	r0, r3, r0, lsl #5
 401              	.LVL19:
 402 0006 8389     		ldrh	r3, [r0, #12]
 403 0008 DB07     		lsls	r3, r3, #31
 404 000a 00D4     		bmi	.L31
 405 000c 7047     		bx	lr
 406              	.L31:
 407              		.loc 1 280 0
 408 000e B0F91C10 		ldrsh	r1, [r0, #28]
 409 0012 0248     		ldr	r0, .L32+4
 410 0014 FFF7FEBF 		b	extChannelDisable
 411              	.LVL20:
 412              	.L33:
 413              		.align	2
 414              	.L32:
 415 0018 00000000 		.word	.LANCHOR1
 416 001c 00000000 		.word	EXTD1
 417              		.cfi_endproc
 418              	.LFE68:
 419              		.size	vexSonarStop, .-vexSonarStop
 420              		.section	.text.vexSonarStartAll,"ax",%progbits
 421              		.align	2
 422              		.p2align 4,,15
 423              		.global	vexSonarStartAll
 424              		.thumb
 425              		.thumb_func
 426              		.type	vexSonarStartAll, %function
 427              	vexSonarStartAll:
 428              	.LFB69:
 429              		.loc 1 290 0
 430              		.cfi_startproc
 431              		@ args = 0, pretend = 0, frame = 0
 432              		@ frame_needed = 0, uses_anonymous_args = 0
 433              	.LVL21:
 434 0000 38B5     		push	{r3, r4, r5, lr}
 435              		.cfi_def_cfa_offset 16
 436              		.cfi_offset 3, -16
 437              		.cfi_offset 4, -12
 438              		.cfi_offset 5, -8
 439              		.cfi_offset 14, -4
 440 0002 084C     		ldr	r4, .L43
 441 0004 04F1A005 		add	r5, r4, #160
 442              	.LVL22:
 443              	.L36:
 444              	.LBB11:
 445              	.LBB12:
 446              		.loc 1 264 0
 447 0008 A389     		ldrh	r3, [r4, #12]
 448 000a DB07     		lsls	r3, r3, #31
 449 000c 03D4     		bmi	.L42
 450              	.L35:
 451 000e 2034     		adds	r4, r4, #32
 452              	.LBE12:
 453              	.LBE11:
 454              		.loc 1 293 0 discriminator 3
 455 0010 AC42     		cmp	r4, r5
 456 0012 F9D1     		bne	.L36
ARM GAS  /var/folders/6q/x_mk5n_j3p7_c40r_2k_78980000gn/T//cczQbSnP.s 			page 9


 457              		.loc 1 295 0
 458 0014 38BD     		pop	{r3, r4, r5, pc}
 459              	.L42:
 460              	.LBB14:
 461              	.LBB13:
 462              		.loc 1 266 0
 463 0016 B4F91C10 		ldrsh	r1, [r4, #28]
 464 001a 0348     		ldr	r0, .L43+4
 465 001c FFF7FEFF 		bl	extChannelEnable
 466              	.LVL23:
 467 0020 F5E7     		b	.L35
 468              	.L44:
 469 0022 00BF     		.align	2
 470              	.L43:
 471 0024 00000000 		.word	.LANCHOR1
 472 0028 00000000 		.word	EXTD1
 473              	.LBE13:
 474              	.LBE14:
 475              		.cfi_endproc
 476              	.LFE69:
 477              		.size	vexSonarStartAll, .-vexSonarStartAll
 478              		.section	.text.vexSonarRun,"ax",%progbits
 479              		.align	2
 480              		.p2align 4,,15
 481              		.global	vexSonarRun
 482              		.thumb
 483              		.thumb_func
 484              		.type	vexSonarRun, %function
 485              	vexSonarRun:
 486              	.LFB70:
 487              		.loc 1 303 0
 488              		.cfi_startproc
 489              		@ args = 0, pretend = 0, frame = 0
 490              		@ frame_needed = 0, uses_anonymous_args = 0
 491 0000 10B5     		push	{r4, lr}
 492              		.cfi_def_cfa_offset 8
 493              		.cfi_offset 4, -8
 494              		.cfi_offset 14, -4
 495              		.loc 1 307 0
 496 0002 0E4C     		ldr	r4, .L52
 497              		.loc 1 303 0
 498 0004 82B0     		sub	sp, sp, #8
 499              		.cfi_def_cfa_offset 16
 500              		.loc 1 307 0
 501 0006 2368     		ldr	r3, [r4]
 502 0008 0BB1     		cbz	r3, .L51
 503              	.L45:
 504              		.loc 1 319 0
 505 000a 02B0     		add	sp, sp, #8
 506              		.cfi_remember_state
 507              		.cfi_def_cfa_offset 8
 508              		@ sp needed
 509 000c 10BD     		pop	{r4, pc}
 510              	.L51:
 511              		.cfi_restore_state
 512 000e 0C4B     		ldr	r3, .L52+4
 513 0010 03F1A001 		add	r1, r3, #160
ARM GAS  /var/folders/6q/x_mk5n_j3p7_c40r_2k_78980000gn/T//cczQbSnP.s 			page 10


 514 0014 01E0     		b	.L48
 515              	.LVL24:
 516              	.L47:
 517              		.loc 1 311 0 discriminator 2
 518 0016 8B42     		cmp	r3, r1
 519 0018 F7D0     		beq	.L45
 520              	.L48:
 521              		.loc 1 313 0
 522 001a 9A89     		ldrh	r2, [r3, #12]
 523 001c 2033     		adds	r3, r3, #32
 524 001e 9207     		lsls	r2, r2, #30
 525 0020 F9D5     		bpl	.L47
 526              		.loc 1 315 0
 527 0022 0023     		movs	r3, #0
 528 0024 0093     		str	r3, [sp]
 529 0026 4822     		movs	r2, #72
 530 0028 064B     		ldr	r3, .L52+8
 531 002a 4FF4C071 		mov	r1, #384
 532 002e 0648     		ldr	r0, .L52+12
 533 0030 FFF7FEFF 		bl	chThdCreateStatic
 534              	.LVL25:
 535 0034 2060     		str	r0, [r4]
 536              		.loc 1 319 0
 537 0036 02B0     		add	sp, sp, #8
 538              		.cfi_def_cfa_offset 8
 539              		@ sp needed
 540 0038 10BD     		pop	{r4, pc}
 541              	.L53:
 542 003a 00BF     		.align	2
 543              	.L52:
 544 003c 00000000 		.word	.LANCHOR3
 545 0040 00000000 		.word	.LANCHOR1
 546 0044 00000000 		.word	VexSonarTask
 547 0048 00000000 		.word	.LANCHOR4
 548              		.cfi_endproc
 549              	.LFE70:
 550              		.size	vexSonarRun, .-vexSonarRun
 551              		.section	.text.vexSonarPing,"ax",%progbits
 552              		.align	2
 553              		.p2align 4,,15
 554              		.global	vexSonarPing
 555              		.thumb
 556              		.thumb_func
 557              		.type	vexSonarPing, %function
 558              	vexSonarPing:
 559              	.LFB71:
 560              		.loc 1 329 0
 561              		.cfi_startproc
 562              		@ args = 0, pretend = 0, frame = 0
 563              		@ frame_needed = 0, uses_anonymous_args = 0
 564              	.LVL26:
 565 0000 08B5     		push	{r3, lr}
 566              		.cfi_def_cfa_offset 8
 567              		.cfi_offset 3, -8
 568              		.cfi_offset 14, -4
 569              		.loc 1 330 0
 570 0002 0B4B     		ldr	r3, .L58
ARM GAS  /var/folders/6q/x_mk5n_j3p7_c40r_2k_78980000gn/T//cczQbSnP.s 			page 11


 571 0004 03EB4010 		add	r0, r3, r0, lsl #5
 572              	.LVL27:
 573 0008 B0F90C30 		ldrsh	r3, [r0, #12]
 574 000c 032B     		cmp	r3, #3
 575 000e 00D0     		beq	.L57
 576 0010 08BD     		pop	{r3, pc}
 577              	.L57:
 578              		.loc 1 331 0
 579 0012 90F90E00 		ldrsb	r0, [r0, #14]
 580 0016 0121     		movs	r1, #1
 581 0018 FFF7FEFF 		bl	vexDigitalPinSet
 582              	.LVL28:
 583              		.loc 1 332 0
 584 001c 054B     		ldr	r3, .L58+4
 585 001e 0022     		movs	r2, #0
 586 0020 1A70     		strb	r2, [r3]
 587              		.loc 1 333 0
 588 0022 0A21     		movs	r1, #10
 589 0024 0448     		ldr	r0, .L58+8
 590              		.loc 1 335 0
 591 0026 BDE80840 		pop	{r3, lr}
 592              		.cfi_restore 14
 593              		.cfi_restore 3
 594              		.cfi_def_cfa_offset 0
 595              		.loc 1 333 0
 596 002a FFF7FEBF 		b	gptStartOneShot
 597              	.LVL29:
 598              	.L59:
 599 002e 00BF     		.align	2
 600              	.L58:
 601 0030 00000000 		.word	.LANCHOR1
 602 0034 00000000 		.word	.LANCHOR2
 603 0038 00000000 		.word	GPTD5
 604              		.cfi_endproc
 605              	.LFE71:
 606              		.size	vexSonarPing, .-vexSonarPing
 607              		.section	.text.VexSonarTask,"ax",%progbits
 608              		.align	2
 609              		.p2align 4,,15
 610              		.thumb
 611              		.thumb_func
 612              		.type	VexSonarTask, %function
 613              	VexSonarTask:
 614              	.LFB64:
 615              		.loc 1 137 0
 616              		.cfi_startproc
 617              		@ args = 0, pretend = 0, frame = 0
 618              		@ frame_needed = 0, uses_anonymous_args = 0
 619              	.LVL30:
 620 0000 2DE9F047 		push	{r4, r5, r6, r7, r8, r9, r10, lr}
 621              		.cfi_def_cfa_offset 32
 622              		.cfi_offset 4, -32
 623              		.cfi_offset 5, -28
 624              		.cfi_offset 6, -24
 625              		.cfi_offset 7, -20
 626              		.cfi_offset 8, -16
 627              		.cfi_offset 9, -12
ARM GAS  /var/folders/6q/x_mk5n_j3p7_c40r_2k_78980000gn/T//cczQbSnP.s 			page 12


 628              		.cfi_offset 10, -8
 629              		.cfi_offset 14, -4
 630              		.loc 1 142 0
 631 0004 DFF8E4A0 		ldr	r10, .L81+24
 632 0008 324A     		ldr	r2, .L81
 633 000a DAF81830 		ldr	r3, [r10, #24]
 634              		.loc 1 148 0
 635 000e 324C     		ldr	r4, .L81+4
 636 0010 DFF8DC90 		ldr	r9, .L81+28
 637              		.loc 1 142 0
 638 0014 9A61     		str	r2, [r3, #24]
 639              		.loc 1 144 0
 640 0016 3149     		ldr	r1, .L81+8
 641 0018 3148     		ldr	r0, .L81+12
 642              	.LVL31:
 643 001a FFF7FEFF 		bl	gptStart
 644              	.LVL32:
 645              		.loc 1 148 0
 646 001e 2646     		mov	r6, r4
 647 0020 4D46     		mov	r5, r9
 648              		.loc 1 168 0
 649 0022 DFF8D080 		ldr	r8, .L81+32
 650              		.loc 1 169 0
 651 0026 2F4F     		ldr	r7, .L81+16
 652              	.L61:
 653              		.loc 1 146 0
 654 0028 DAF81830 		ldr	r3, [r10, #24]
 655 002c 5B7F     		ldrb	r3, [r3, #29]	@ zero_extendqisi2
 656 002e 5B07     		lsls	r3, r3, #29
 657 0030 0ED4     		bmi	.L79
 658              	.L70:
 659              		.loc 1 148 0
 660 0032 2078     		ldrb	r0, [r4]	@ zero_extendqisi2
 661 0034 09EB4013 		add	r3, r9, r0, lsl #5
 662 0038 B3F90C30 		ldrsh	r3, [r3, #12]
 663 003c 032B     		cmp	r3, #3
 664 003e 0AD0     		beq	.L80
 665              		.loc 1 190 0
 666 0040 1920     		movs	r0, #25
 667 0042 FFF7FEFF 		bl	chThdSleep
 668              	.LVL33:
 669              		.loc 1 146 0
 670 0046 DAF81830 		ldr	r3, [r10, #24]
 671 004a 5B7F     		ldrb	r3, [r3, #29]	@ zero_extendqisi2
 672 004c 5B07     		lsls	r3, r3, #29
 673 004e F0D5     		bpl	.L70
 674              	.L79:
 675              		.loc 1 194 0
 676 0050 0020     		movs	r0, #0
 677 0052 BDE8F087 		pop	{r4, r5, r6, r7, r8, r9, r10, pc}
 678              	.L80:
 679              		.loc 1 151 0
 680 0056 FFF7FEFF 		bl	vexSonarPing
 681              	.LVL34:
 682              		.loc 1 156 0
 683 005a 234B     		ldr	r3, .L81+20
 684 005c D868     		ldr	r0, [r3, #12]
ARM GAS  /var/folders/6q/x_mk5n_j3p7_c40r_2k_78980000gn/T//cczQbSnP.s 			page 13


 685 005e 3230     		adds	r0, r0, #50
 686 0060 FFF7FEFF 		bl	chThdSleepUntil
 687              	.LVL35:
 688              		.loc 1 162 0
 689 0064 48F6B80E 		movw	lr, #35000
 690              		.loc 1 159 0
 691 0068 3378     		ldrb	r3, [r6]	@ zero_extendqisi2
 692 006a 5801     		lsls	r0, r3, #5
 693 006c 2918     		adds	r1, r5, r0
 694 006e B1F802C0 		ldrh	ip, [r1, #2]
 695 0072 2A5A     		ldrh	r2, [r5, r0]
 696 0074 C2EB0C02 		rsb	r2, r2, ip
 697              		.loc 1 162 0
 698 0078 7245     		cmp	r2, lr
 699              		.loc 1 159 0
 700 007a 4A60     		str	r2, [r1, #4]
 701              		.loc 1 162 0
 702 007c 17DD     		ble	.L63
 703              		.loc 1 163 0
 704 007e 4FF0FF32 		mov	r2, #-1
 705 0082 4A60     		str	r2, [r1, #4]
 706              	.L64:
 707              		.loc 1 173 0
 708 0084 4FF6FF72 		movw	r2, #65535
 709 0088 4844     		add	r0, r0, r9
 710 008a 0281     		strh	r2, [r0, #8]	@ movhi
 711              		.loc 1 174 0
 712 008c 4281     		strh	r2, [r0, #10]	@ movhi
 713              	.L65:
 714              	.LVL36:
 715              		.loc 1 137 0 discriminator 1
 716 008e 0521     		movs	r1, #5
 717              	.LVL37:
 718              	.L69:
 719              		.loc 1 180 0
 720 0090 0133     		adds	r3, r3, #1
 721 0092 DBB2     		uxtb	r3, r3
 722 0094 052B     		cmp	r3, #5
 723 0096 08BF     		it	eq
 724 0098 0023     		moveq	r3, #0
 725              		.loc 1 184 0
 726 009a 09EB4312 		add	r2, r9, r3, lsl #5
 727 009e B2F90C20 		ldrsh	r2, [r2, #12]
 728 00a2 032A     		cmp	r2, #3
 729 00a4 01D0     		beq	.L78
 730              		.loc 1 178 0 discriminator 2
 731 00a6 0139     		subs	r1, r1, #1
 732              	.LVL38:
 733 00a8 F2D1     		bne	.L69
 734              	.L78:
 735 00aa 2370     		strb	r3, [r4]
 736 00ac BCE7     		b	.L61
 737              	.L63:
 738              		.loc 1 166 0
 739 00ae B2F1FF3F 		cmp	r2, #-1
 740 00b2 E7D0     		beq	.L64
 741              		.loc 1 168 0
ARM GAS  /var/folders/6q/x_mk5n_j3p7_c40r_2k_78980000gn/T//cczQbSnP.s 			page 14


 742 00b4 88FB02E0 		smull	lr, r0, r8, r2
 743              		.loc 1 169 0
 744 00b8 87FB02EC 		smull	lr, ip, r7, r2
 745              		.loc 1 168 0
 746 00bc 1044     		add	r0, r0, r2
 747 00be 4FEAE27E 		asr	lr, r2, #31
 748              		.loc 1 169 0
 749 00c2 6244     		add	r2, r2, ip
 750              		.loc 1 168 0
 751 00c4 CEEB6010 		rsb	r0, lr, r0, asr #5
 752              		.loc 1 169 0
 753 00c8 CEEBE212 		rsb	r2, lr, r2, asr #7
 754              		.loc 1 168 0
 755 00cc 0881     		strh	r0, [r1, #8]	@ movhi
 756              		.loc 1 169 0
 757 00ce 4A81     		strh	r2, [r1, #10]	@ movhi
 758 00d0 DDE7     		b	.L65
 759              	.L82:
 760 00d2 00BF     		.align	2
 761              	.L81:
 762 00d4 00000000 		.word	.LC0
 763 00d8 00000000 		.word	.LANCHOR0
 764 00dc 00000000 		.word	.LANCHOR5
 765 00e0 00000000 		.word	GPTD5
 766 00e4 A7C867DD 		.word	-580400985
 767 00e8 00000000 		.word	vtlist
 768 00ec 00000000 		.word	rlist
 769 00f0 00000000 		.word	.LANCHOR1
 770 00f4 09CB3D8D 		.word	-1925330167
 771              		.cfi_endproc
 772              	.LFE64:
 773              		.size	VexSonarTask, .-VexSonarTask
 774              		.section	.text.vexSonarGetCm,"ax",%progbits
 775              		.align	2
 776              		.p2align 4,,15
 777              		.global	vexSonarGetCm
 778              		.thumb
 779              		.thumb_func
 780              		.type	vexSonarGetCm, %function
 781              	vexSonarGetCm:
 782              	.LFB72:
 783              		.loc 1 345 0
 784              		.cfi_startproc
 785              		@ args = 0, pretend = 0, frame = 0
 786              		@ frame_needed = 0, uses_anonymous_args = 0
 787              		@ link register save eliminated.
 788              	.LVL39:
 789              		.loc 1 346 0
 790 0000 054B     		ldr	r3, .L86
 791 0002 03EB4010 		add	r0, r3, r0, lsl #5
 792              	.LVL40:
 793 0006 8389     		ldrh	r3, [r0, #12]
 794 0008 9B07     		lsls	r3, r3, #30
 795              		.loc 1 347 0
 796 000a 4CBF     		ite	mi
 797 000c B0F90800 		ldrshmi	r0, [r0, #8]
 798              		.loc 1 350 0
ARM GAS  /var/folders/6q/x_mk5n_j3p7_c40r_2k_78980000gn/T//cczQbSnP.s 			page 15


 799 0010 4FF0FF30 		movpl	r0, #-1
 800              		.loc 1 351 0
 801 0014 7047     		bx	lr
 802              	.L87:
 803 0016 00BF     		.align	2
 804              	.L86:
 805 0018 00000000 		.word	.LANCHOR1
 806              		.cfi_endproc
 807              	.LFE72:
 808              		.size	vexSonarGetCm, .-vexSonarGetCm
 809              		.section	.text.vexSonarGetInch,"ax",%progbits
 810              		.align	2
 811              		.p2align 4,,15
 812              		.global	vexSonarGetInch
 813              		.thumb
 814              		.thumb_func
 815              		.type	vexSonarGetInch, %function
 816              	vexSonarGetInch:
 817              	.LFB73:
 818              		.loc 1 361 0
 819              		.cfi_startproc
 820              		@ args = 0, pretend = 0, frame = 0
 821              		@ frame_needed = 0, uses_anonymous_args = 0
 822              		@ link register save eliminated.
 823              	.LVL41:
 824              		.loc 1 362 0
 825 0000 054B     		ldr	r3, .L91
 826 0002 03EB4010 		add	r0, r3, r0, lsl #5
 827              	.LVL42:
 828 0006 8389     		ldrh	r3, [r0, #12]
 829 0008 9B07     		lsls	r3, r3, #30
 830              		.loc 1 363 0
 831 000a 4CBF     		ite	mi
 832 000c B0F90A00 		ldrshmi	r0, [r0, #10]
 833              		.loc 1 366 0
 834 0010 4FF0FF30 		movpl	r0, #-1
 835              		.loc 1 367 0
 836 0014 7047     		bx	lr
 837              	.L92:
 838 0016 00BF     		.align	2
 839              	.L91:
 840 0018 00000000 		.word	.LANCHOR1
 841              		.cfi_endproc
 842              	.LFE73:
 843              		.size	vexSonarGetInch, .-vexSonarGetInch
 844              		.section	.text.vexSonarDebug,"ax",%progbits
 845              		.align	2
 846              		.p2align 4,,15
 847              		.global	vexSonarDebug
 848              		.thumb
 849              		.thumb_func
 850              		.type	vexSonarDebug, %function
 851              	vexSonarDebug:
 852              	.LFB74:
 853              		.loc 1 378 0
 854              		.cfi_startproc
 855              		@ args = 0, pretend = 0, frame = 0
ARM GAS  /var/folders/6q/x_mk5n_j3p7_c40r_2k_78980000gn/T//cczQbSnP.s 			page 16


 856              		@ frame_needed = 0, uses_anonymous_args = 0
 857              	.LVL43:
 858 0000 70B5     		push	{r4, r5, r6, lr}
 859              		.cfi_def_cfa_offset 16
 860              		.cfi_offset 4, -16
 861              		.cfi_offset 5, -12
 862              		.cfi_offset 6, -8
 863              		.cfi_offset 14, -4
 864 0002 0646     		mov	r6, r0
 865 0004 0F4C     		ldr	r4, .L97
 866 0006 82B0     		sub	sp, sp, #8
 867              		.cfi_def_cfa_offset 24
 868              		.loc 1 378 0
 869 0008 0025     		movs	r5, #0
 870              	.LVL44:
 871              	.L94:
 872              		.loc 1 386 0 discriminator 3
 873 000a 6188     		ldrh	r1, [r4, #2]
 874 000c 2288     		ldrh	r2, [r4]
 875 000e B4F90C30 		ldrsh	r3, [r4, #12]
 876 0012 0191     		str	r1, [sp, #4]
 877 0014 0092     		str	r2, [sp]
 878 0016 0C49     		ldr	r1, .L97+4
 879 0018 2A46     		mov	r2, r5
 880 001a 3046     		mov	r0, r6
 881 001c FFF7FEFF 		bl	vex_chprintf
 882              	.LVL45:
 883              		.loc 1 387 0 discriminator 3
 884 0020 B4F90A10 		ldrsh	r1, [r4, #10]
 885 0024 B4F90830 		ldrsh	r3, [r4, #8]
 886 0028 6268     		ldr	r2, [r4, #4]
 887 002a 0091     		str	r1, [sp]
 888 002c 0135     		adds	r5, r5, #1
 889              	.LVL46:
 890 002e 0749     		ldr	r1, .L97+8
 891 0030 3046     		mov	r0, r6
 892 0032 FFF7FEFF 		bl	vex_chprintf
 893              	.LVL47:
 894              		.loc 1 384 0 discriminator 3
 895 0036 052D     		cmp	r5, #5
 896 0038 04F12004 		add	r4, r4, #32
 897 003c E5D1     		bne	.L94
 898              		.loc 1 389 0
 899 003e 02B0     		add	sp, sp, #8
 900              		.cfi_def_cfa_offset 16
 901              		@ sp needed
 902 0040 70BD     		pop	{r4, r5, r6, pc}
 903              	.LVL48:
 904              	.L98:
 905 0042 00BF     		.align	2
 906              	.L97:
 907 0044 00000000 		.word	.LANCHOR1
 908 0048 08000000 		.word	.LC1
 909 004c 18000000 		.word	.LC2
 910              		.cfi_endproc
 911              	.LFE74:
 912              		.size	vexSonarDebug, .-vexSonarDebug
ARM GAS  /var/folders/6q/x_mk5n_j3p7_c40r_2k_78980000gn/T//cczQbSnP.s 			page 17


 913              		.section	.bss.vexSonarThread,"aw",%nobits
 914              		.align	2
 915              		.set	.LANCHOR3,. + 0
 916              		.type	vexSonarThread, %object
 917              		.size	vexSonarThread, 4
 918              	vexSonarThread:
 919 0000 00000000 		.space	4
 920              		.section	.bss.waVexSonarTask,"aw",%nobits
 921              		.align	3
 922              		.set	.LANCHOR4,. + 0
 923              		.type	waVexSonarTask, %object
 924              		.size	waVexSonarTask, 384
 925              	waVexSonarTask:
 926 0000 00000000 		.space	384
 926      00000000 
 926      00000000 
 926      00000000 
 926      00000000 
 927              		.section	.bss.nextSonar,"aw",%nobits
 928              		.set	.LANCHOR0,. + 0
 929              		.type	nextSonar, %object
 930              		.size	nextSonar, 1
 931              	nextSonar:
 932 0000 00       		.space	1
 933              		.section	.bss.vexSonars,"aw",%nobits
 934              		.align	2
 935              		.set	.LANCHOR1,. + 0
 936              		.type	vexSonars, %object
 937              		.size	vexSonars, 160
 938              	vexSonars:
 939 0000 00000000 		.space	160
 939      00000000 
 939      00000000 
 939      00000000 
 939      00000000 
 940              		.section	.rodata.vexSonarGpt,"a",%progbits
 941              		.align	2
 942              		.set	.LANCHOR5,. + 0
 943              		.type	vexSonarGpt, %object
 944              		.size	vexSonarGpt, 12
 945              	vexSonarGpt:
 946 0000 40420F00 		.word	1000000
 947 0004 00000000 		.word	_vs_gpt_cb
 948 0008 00000000 		.word	0
 949              		.section	.rodata.str1.4,"aMS",%progbits,1
 950              		.align	2
 951              	.LC0:
 952 0000 736F6E61 		.ascii	"sonar\000"
 952      7200
 953 0006 0000     		.space	2
 954              	.LC1:
 955 0008 53256420 		.ascii	"S%d %d %5d %5d \000"
 955      25642025 
 955      35642025 
 955      35642000 
 956              	.LC2:
 957 0018 25356420 		.ascii	"%5d %4d(cm) %3d(inch)\015\012\000"
ARM GAS  /var/folders/6q/x_mk5n_j3p7_c40r_2k_78980000gn/T//cczQbSnP.s 			page 18


 957      25346428 
 957      636D2920 
 957      25336428 
 957      696E6368 
 958              		.section	.bss.nextState,"aw",%nobits
 959              		.set	.LANCHOR2,. + 0
 960              		.type	nextState, %object
 961              		.size	nextState, 1
 962              	nextState:
 963 0000 00       		.space	1
 964              		.text
 965              	.Letext0:
 966              		.file 2 "/Users/Luca/src/vexilla/src/gcc-arm-none-eabi-5_4-2016q3/lib/gcc/arm-none-eabi/5.4.1/incl
 967              		.file 3 "/Users/Luca/src/vexilla/src/gcc-arm-none-eabi-5_4-2016q3/arm-none-eabi/include/machine/_d
 968              		.file 4 "/Users/Luca/src/vexilla/src/gcc-arm-none-eabi-5_4-2016q3/arm-none-eabi/include/sys/_stdin
 969              		.file 5 "../ChibiOS/os/ports/GCC/ARMCMx/chtypes.h"
 970              		.file 6 "../ChibiOS/os/kernel/include/chlists.h"
 971              		.file 7 "../ChibiOS/os/kernel/include/chthreads.h"
 972              		.file 8 "../ChibiOS/os/ports/GCC/ARMCMx/chcore_v7m.h"
 973              		.file 9 "../ChibiOS/os/kernel/include/chvt.h"
 974              		.file 10 "../ChibiOS/os/kernel/include/chschd.h"
 975              		.file 11 "../ChibiOS/os/kernel/include/chmtx.h"
 976              		.file 12 "../ChibiOS/os/kernel/include/chstreams.h"
 977              		.file 13 "../ChibiOS/os/hal/platforms/STM32F1xx/stm32f10x.h"
 978              		.file 14 "../ChibiOS/os/hal/platforms/STM32/GPIOv1/pal_lld.h"
 979              		.file 15 "../ChibiOS/os/hal/include/ext.h"
 980              		.file 16 "../ChibiOS/os/hal/platforms/STM32/ext_lld.h"
 981              		.file 17 "../ChibiOS/os/hal/include/gpt.h"
 982              		.file 18 "../ChibiOS/os/hal/platforms/STM32/TIMv1/gpt_lld.h"
 983              		.file 19 "../ChibiOS/os/hal/platforms/STM32/TIMv1/stm32_tim.h"
 984              		.file 20 "../convex-vexilla/cortex/fw/vexcompat.h"
 985              		.file 21 "../convex-vexilla/cortex/fw/vexdigital.h"
 986              		.file 22 "../convex-vexilla/cortex/fw/vexsonar.h"
 987              		.file 23 "../convex-vexilla/cortex/fw/vexime.h"
 988              		.file 24 "../ChibiOS/os/ports/common/ARMCMx/CMSIS/include/core_cm3.h"
 989              		.file 25 "../convex-vexilla/cortex/fw/vexprintf.h"