ARM GAS  /var/folders/6q/x_mk5n_j3p7_c40r_2k_78980000gn/T//cczQbSnP.s 			page 1


   1              		.syntax unified
   2              		.cpu cortex-m3
   3              		.fpu softvfp
   4              		.eabi_attribute 20, 1
   5              		.eabi_attribute 21, 1
   6              		.eabi_attribute 23, 3
   7              		.eabi_attribute 24, 1
   8              		.eabi_attribute 25, 1
   9              		.eabi_attribute 26, 1
  10              		.eabi_attribute 30, 2
  11              		.eabi_attribute 34, 1
  12              		.eabi_attribute 18, 4
  13              		.thumb
  14              		.syntax unified
  15              		.file	"vexsonar.c"
  16              		.text
  17              	.Ltext0:
  18              		.cfi_sections	.debug_frame
  19              		.section	.text._vs_echo_cb,"ax",%progbits
  20              		.align	2
  21              		.p2align 4,,15
  22              		.thumb
  23              		.thumb_func
  24              		.type	_vs_echo_cb, %function
  25              	_vs_echo_cb:
  26              	.LFB65:
  27              		.file 1 "../convex-vexilla/cortex/fw/vexsonar.c"
  28              		.loc 1 202 0
  29              		.cfi_startproc
  30              		@ args = 0, pretend = 0, frame = 0
  31              		@ frame_needed = 0, uses_anonymous_args = 0
  32              		@ link register save eliminated.
  33              	.LVL0:
  34 0000 10B4     		push	{r4}
  35              		.cfi_def_cfa_offset 4
  36              		.cfi_offset 4, -4
  37              	.LBB4:
  38              		.loc 1 206 0
  39 0002 2023     		movs	r3, #32
  40              		.syntax unified
  41              	@ 206 "../convex-vexilla/cortex/fw/vexsonar.c" 1
  42 0004 83F31188 		msr     BASEPRI, r3
  43              	@ 0 "" 2
  44              		.thumb
  45              		.syntax unified
  46              	.LBE4:
  47              		.loc 1 208 0
  48 0008 104B     		ldr	r3, .L7
  49 000a 1148     		ldr	r0, .L7+4
  50              	.LVL1:
  51 000c 1B78     		ldrb	r3, [r3]	@ zero_extendqisi2
  52 000e 5B01     		lsls	r3, r3, #5
  53 0010 C118     		adds	r1, r0, r3
  54              	.LVL2:
  55 0012 8A69     		ldr	r2, [r1, #24]
  56 0014 B1F91C40 		ldrsh	r4, [r1, #28]
  57 0018 9268     		ldr	r2, [r2, #8]
ARM GAS  /var/folders/6q/x_mk5n_j3p7_c40r_2k_78980000gn/T//cczQbSnP.s 			page 2


  58 001a E240     		lsrs	r2, r2, r4
  59 001c D207     		lsls	r2, r2, #31
  60 001e 0BD4     		bmi	.L6
  61              		.loc 1 212 0
  62 0020 0C4B     		ldr	r3, .L7+8
  63              		.loc 1 213 0
  64 0022 0D4A     		ldr	r2, .L7+12
  65              		.loc 1 212 0
  66 0024 DB68     		ldr	r3, [r3, #12]
  67              		.loc 1 213 0
  68 0026 0220     		movs	r0, #2
  69              		.loc 1 212 0
  70 0028 5B6A     		ldr	r3, [r3, #36]
  71              		.loc 1 213 0
  72 002a 1070     		strb	r0, [r2]
  73              		.loc 1 212 0
  74 002c 4B80     		strh	r3, [r1, #2]	@ movhi
  75              	.LBB5:
  76              		.loc 1 216 0
  77 002e 0023     		movs	r3, #0
  78              		.syntax unified
  79              	@ 216 "../convex-vexilla/cortex/fw/vexsonar.c" 1
  80 0030 83F31188 		msr     BASEPRI, r3
  81              	@ 0 "" 2
  82              		.thumb
  83              		.syntax unified
  84              	.LBE5:
  85              		.loc 1 217 0
  86 0034 10BC     		pop	{r4}
  87              		.cfi_remember_state
  88              		.cfi_restore 4
  89              		.cfi_def_cfa_offset 0
  90 0036 7047     		bx	lr
  91              	.L6:
  92              		.cfi_restore_state
  93              		.loc 1 209 0
  94 0038 064A     		ldr	r2, .L7+8
  95 003a D268     		ldr	r2, [r2, #12]
  96 003c 526A     		ldr	r2, [r2, #36]
  97 003e C252     		strh	r2, [r0, r3]	@ movhi
  98              	.LBB6:
  99              		.loc 1 216 0
 100 0040 0023     		movs	r3, #0
 101              		.syntax unified
 102              	@ 216 "../convex-vexilla/cortex/fw/vexsonar.c" 1
 103 0042 83F31188 		msr     BASEPRI, r3
 104              	@ 0 "" 2
 105              		.thumb
 106              		.syntax unified
 107              	.LBE6:
 108              		.loc 1 217 0
 109 0046 10BC     		pop	{r4}
 110              		.cfi_restore 4
 111              		.cfi_def_cfa_offset 0
 112 0048 7047     		bx	lr
 113              	.L8:
 114 004a 00BF     		.align	2
ARM GAS  /var/folders/6q/x_mk5n_j3p7_c40r_2k_78980000gn/T//cczQbSnP.s 			page 3


 115              	.L7:
 116 004c 00000000 		.word	.LANCHOR0
 117 0050 00000000 		.word	.LANCHOR1
 118 0054 00000000 		.word	GPTD5
 119 0058 00000000 		.word	.LANCHOR2
 120              		.cfi_endproc
 121              	.LFE65:
 122              		.size	_vs_echo_cb, .-_vs_echo_cb
 123              		.section	.text._vs_gpt_cb,"ax",%progbits
 124              		.align	2
 125              		.p2align 4,,15
 126              		.thumb
 127              		.thumb_func
 128              		.type	_vs_gpt_cb, %function
 129              	_vs_gpt_cb:
 130              	.LFB63:
 131              		.loc 1 95 0
 132              		.cfi_startproc
 133              		@ args = 0, pretend = 0, frame = 0
 134              		@ frame_needed = 0, uses_anonymous_args = 0
 135              	.LVL3:
 136 0000 70B5     		push	{r4, r5, r6, lr}
 137              		.cfi_def_cfa_offset 16
 138              		.cfi_offset 4, -16
 139              		.cfi_offset 5, -12
 140              		.cfi_offset 6, -8
 141              		.cfi_offset 14, -4
 142              	.LBB7:
 143              		.loc 1 98 0
 144 0002 2023     		movs	r3, #32
 145              		.syntax unified
 146              	@ 98 "../convex-vexilla/cortex/fw/vexsonar.c" 1
 147 0004 83F31188 		msr     BASEPRI, r3
 148              	@ 0 "" 2
 149              		.thumb
 150              		.syntax unified
 151              	.LBE7:
 152              		.loc 1 100 0
 153 0008 164B     		ldr	r3, .L15
 154 000a 1978     		ldrb	r1, [r3]	@ zero_extendqisi2
 155 000c A9B1     		cbz	r1, .L13
 156              		.loc 1 107 0
 157 000e 0129     		cmp	r1, #1
 158 0010 03D0     		beq	.L14
 159              	.LBB8:
 160              		.loc 1 114 0
 161 0012 0023     		movs	r3, #0
 162              		.syntax unified
 163              	@ 114 "../convex-vexilla/cortex/fw/vexsonar.c" 1
 164 0014 83F31188 		msr     BASEPRI, r3
 165              	@ 0 "" 2
 166              		.thumb
 167              		.syntax unified
 168 0018 70BD     		pop	{r4, r5, r6, pc}
 169              	.L14:
 170              	.LBE8:
 171              		.loc 1 110 0
ARM GAS  /var/folders/6q/x_mk5n_j3p7_c40r_2k_78980000gn/T//cczQbSnP.s 			page 4


 172 001a 49F64045 		movw	r5, #40000
 173              		.loc 1 109 0
 174 001e 124A     		ldr	r2, .L15+4
 175 0020 1249     		ldr	r1, .L15+8
 176 0022 1278     		ldrb	r2, [r2]	@ zero_extendqisi2
 177 0024 0026     		movs	r6, #0
 178 0026 5201     		lsls	r2, r2, #5
 179 0028 8C18     		adds	r4, r1, r2
 180              		.loc 1 111 0
 181 002a 0320     		movs	r0, #3
 182              	.LVL4:
 183 002c 1870     		strb	r0, [r3]
 184              		.loc 1 109 0
 185 002e 8E52     		strh	r6, [r1, r2]	@ movhi
 186              		.loc 1 110 0
 187 0030 6580     		strh	r5, [r4, #2]	@ movhi
 188              	.LBB9:
 189              		.loc 1 114 0
 190 0032 0023     		movs	r3, #0
 191              		.syntax unified
 192              	@ 114 "../convex-vexilla/cortex/fw/vexsonar.c" 1
 193 0034 83F31188 		msr     BASEPRI, r3
 194              	@ 0 "" 2
 195              		.thumb
 196              		.syntax unified
 197 0038 70BD     		pop	{r4, r5, r6, pc}
 198              	.LVL5:
 199              	.L13:
 200              	.LBE9:
 201              		.loc 1 103 0
 202 003a 0B48     		ldr	r0, .L15+4
 203              	.LVL6:
 204 003c 0B4A     		ldr	r2, .L15+8
 205 003e 0078     		ldrb	r0, [r0]	@ zero_extendqisi2
 206 0040 02EB4012 		add	r2, r2, r0, lsl #5
 207 0044 92F90E00 		ldrsb	r0, [r2, #14]
 208              		.loc 1 102 0
 209 0048 0122     		movs	r2, #1
 210 004a 1A70     		strb	r2, [r3]
 211              		.loc 1 103 0
 212 004c FFF7FEFF 		bl	vexDigitalPinSet
 213              	.LVL7:
 214              		.loc 1 104 0
 215 0050 49F64041 		movw	r1, #40000
 216 0054 0648     		ldr	r0, .L15+12
 217 0056 FFF7FEFF 		bl	gptStartOneShotI
 218              	.LVL8:
 219              	.LBB10:
 220              		.loc 1 114 0
 221 005a 0023     		movs	r3, #0
 222              		.syntax unified
 223              	@ 114 "../convex-vexilla/cortex/fw/vexsonar.c" 1
 224 005c 83F31188 		msr     BASEPRI, r3
 225              	@ 0 "" 2
 226              		.thumb
 227              		.syntax unified
 228 0060 70BD     		pop	{r4, r5, r6, pc}
ARM GAS  /var/folders/6q/x_mk5n_j3p7_c40r_2k_78980000gn/T//cczQbSnP.s 			page 5


 229              	.L16:
 230 0062 00BF     		.align	2
 231              	.L15:
 232 0064 00000000 		.word	.LANCHOR2
 233 0068 00000000 		.word	.LANCHOR0
 234 006c 00000000 		.word	.LANCHOR1
 235 0070 00000000 		.word	GPTD5
 236              	.LBE10:
 237              		.cfi_endproc
 238              	.LFE63:
 239              		.size	_vs_gpt_cb, .-_vs_gpt_cb
 240              		.section	.text.vexSonarAdd,"ax",%progbits
 241              		.align	2
 242              		.p2align 4,,15
 243              		.global	vexSonarAdd
 244              		.thumb
 245              		.thumb_func
 246              		.type	vexSonarAdd, %function
 247              	vexSonarAdd:
 248              	.LFB66:
 249              		.loc 1 228 0
 250              		.cfi_startproc
 251              		@ args = 0, pretend = 0, frame = 0
 252              		@ frame_needed = 0, uses_anonymous_args = 0
 253              	.LVL9:
 254              		.loc 1 229 0
 255 0000 0428     		cmp	r0, #4
 256 0002 03D8     		bhi	.L20
 257              		.loc 1 232 0
 258 0004 0B29     		cmp	r1, #11
 259 0006 01DC     		bgt	.L20
 260              		.loc 1 234 0
 261 0008 0B2A     		cmp	r2, #11
 262 000a 00DD     		ble	.L21
 263              	.L20:
 264 000c 7047     		bx	lr
 265              	.L21:
 266              		.loc 1 228 0
 267 000e F8B5     		push	{r3, r4, r5, r6, r7, lr}
 268              		.cfi_def_cfa_offset 24
 269              		.cfi_offset 3, -24
 270              		.cfi_offset 4, -20
 271              		.cfi_offset 5, -16
 272              		.cfi_offset 6, -12
 273              		.cfi_offset 7, -8
 274              		.cfi_offset 14, -4
 275 0010 0D46     		mov	r5, r1
 276 0012 0446     		mov	r4, r0
 277 0014 1646     		mov	r6, r2
 278              		.loc 1 240 0
 279 0016 2846     		mov	r0, r5
 280              	.LVL10:
 281 0018 0121     		movs	r1, #1
 282              	.LVL11:
 283 001a FFF7FEFF 		bl	vexDigitalModeSet
 284              	.LVL12:
 285              		.loc 1 242 0
ARM GAS  /var/folders/6q/x_mk5n_j3p7_c40r_2k_78980000gn/T//cczQbSnP.s 			page 6


 286 001e 134F     		ldr	r7, .L22
 287 0020 05EB4503 		add	r3, r5, r5, lsl #1
 288 0024 9B00     		lsls	r3, r3, #2
 289              		.loc 1 243 0
 290 0026 FA18     		adds	r2, r7, r3
 291              		.loc 1 241 0
 292 0028 1148     		ldr	r0, .L22+4
 293              		.loc 1 243 0
 294 002a 9288     		ldrh	r2, [r2, #4]
 295              		.loc 1 242 0
 296 002c FB58     		ldr	r3, [r7, r3]
 297              		.loc 1 241 0
 298 002e 00EB4414 		add	r4, r0, r4, lsl #5
 299              		.loc 1 246 0
 300 0032 0021     		movs	r1, #0
 301 0034 3046     		mov	r0, r6
 302              		.loc 1 243 0
 303 0036 A282     		strh	r2, [r4, #20]	@ movhi
 304              		.loc 1 242 0
 305 0038 2361     		str	r3, [r4, #16]
 306              		.loc 1 241 0
 307 003a A573     		strb	r5, [r4, #14]
 308              		.loc 1 246 0
 309 003c FFF7FEFF 		bl	vexDigitalModeSet
 310              	.LVL13:
 311              		.loc 1 248 0
 312 0040 06EB4603 		add	r3, r6, r6, lsl #1
 313 0044 9B00     		lsls	r3, r3, #2
 314              		.loc 1 249 0
 315 0046 FA18     		adds	r2, r7, r3
 316 0048 B2F904E0 		ldrsh	lr, [r2, #4]
 317              		.loc 1 248 0
 318 004c FD58     		ldr	r5, [r7, r3]
 319              		.loc 1 250 0
 320 004e 1FFA8EF1 		uxth	r1, lr
 321 0052 084B     		ldr	r3, .L22+8
 322 0054 2846     		mov	r0, r5
 323 0056 0322     		movs	r2, #3
 324              		.loc 1 247 0
 325 0058 E673     		strb	r6, [r4, #15]
 326              		.loc 1 249 0
 327 005a A4F81CE0 		strh	lr, [r4, #28]	@ movhi
 328              		.loc 1 248 0
 329 005e A561     		str	r5, [r4, #24]
 330              		.loc 1 250 0
 331 0060 FFF7FEFF 		bl	vexExtSet
 332              	.LVL14:
 333              		.loc 1 253 0
 334 0064 0323     		movs	r3, #3
 335 0066 A381     		strh	r3, [r4, #12]	@ movhi
 336 0068 F8BD     		pop	{r3, r4, r5, r6, r7, pc}
 337              	.L23:
 338 006a 00BF     		.align	2
 339              	.L22:
 340 006c 00000000 		.word	vexioDefinition
 341 0070 00000000 		.word	.LANCHOR1
 342 0074 00000000 		.word	_vs_echo_cb
ARM GAS  /var/folders/6q/x_mk5n_j3p7_c40r_2k_78980000gn/T//cczQbSnP.s 			page 7


 343              		.cfi_endproc
 344              	.LFE66:
 345              		.size	vexSonarAdd, .-vexSonarAdd
 346              		.section	.text.vexSonarStart,"ax",%progbits
 347              		.align	2
 348              		.p2align 4,,15
 349              		.global	vexSonarStart
 350              		.thumb
 351              		.thumb_func
 352              		.type	vexSonarStart, %function
 353              	vexSonarStart:
 354              	.LFB67:
 355              		.loc 1 263 0
 356              		.cfi_startproc
 357              		@ args = 0, pretend = 0, frame = 0
 358              		@ frame_needed = 0, uses_anonymous_args = 0
 359              		@ link register save eliminated.
 360              	.LVL15:
 361              		.loc 1 264 0
 362 0000 054B     		ldr	r3, .L27
 363 0002 03EB4010 		add	r0, r3, r0, lsl #5
 364              	.LVL16:
 365 0006 8389     		ldrh	r3, [r0, #12]
 366 0008 DB07     		lsls	r3, r3, #31
 367 000a 00D4     		bmi	.L26
 368 000c 7047     		bx	lr
 369              	.L26:
 370              		.loc 1 266 0
 371 000e B0F91C10 		ldrsh	r1, [r0, #28]
 372 0012 0248     		ldr	r0, .L27+4
 373 0014 FFF7FEBF 		b	extChannelEnable
 374              	.LVL17:
 375              	.L28:
 376              		.align	2
 377              	.L27:
 378 0018 00000000 		.word	.LANCHOR1
 379 001c 00000000 		.word	EXTD1
 380              		.cfi_endproc
 381              	.LFE67:
 382              		.size	vexSonarStart, .-vexSonarStart
 383              		.section	.text.vexSonarStop,"ax",%progbits
 384              		.align	2
 385              		.p2align 4,,15
 386              		.global	vexSonarStop
 387              		.thumb
 388              		.thumb_func
 389              		.type	vexSonarStop, %function
 390              	vexSonarStop:
 391              	.LFB68:
 392              		.loc 1 277 0
 393              		.cfi_startproc
 394              		@ args = 0, pretend = 0, frame = 0
 395              		@ frame_needed = 0, uses_anonymous_args = 0
 396              		@ link register save eliminated.
 397              	.LVL18:
 398              		.loc 1 278 0
 399 0000 054B     		ldr	r3, .L32
ARM GAS  /var/folders/6q/x_mk5n_j3p7_c40r_2k_78980000gn/T//cczQbSnP.s 			page 8


 400 0002 03EB4010 		add	r0, r3, r0, lsl #5
 401              	.LVL19:
 402 0006 8389     		ldrh	r3, [r0, #12]
 403 0008 DB07     		lsls	r3, r3, #31
 404 000a 00D4     		bmi	.L31
 405 000c 7047     		bx	lr
 406              	.L31:
 407              		.loc 1 280 0
 408 000e B0F91C10 		ldrsh	r1, [r0, #28]
 409 0012 0248     		ldr	r0, .L32+4
 410 0014 FFF7FEBF 		b	extChannelDisable
 411              	.LVL20:
 412              	.L33:
 413              		.align	2
 414              	.L32:
 415 0018 00000000 		.word	.LANCHOR1
 416 001c 00000000 		.word	EXTD1
 417              		.cfi_endproc
 418              	.LFE68:
 419              		.size	vexSonarStop, .-vexSonarStop
 420              		.section	.text.vexSonarStartAll,"ax",%progbits
 421              		.align	2
 422              		.p2align 4,,15
 423              		.global	vexSonarStartAll
 424              		.thumb
 425              		.thumb_func
 426              		.type	vexSonarStartAll, %function
 427              	vexSonarStartAll:
 428              	.LFB69:
 429              		.loc 1 290 0
 430              		.cfi_startproc
 431              		@ args = 0, pretend = 0, frame = 0
 432              		@ frame_needed = 0, uses_anonymous_args = 0
 433              	.LVL21:
 434 0000 38B5     		push	{r3, r4, r5, lr}
 435              		.cfi_def_cfa_offset 16
 436              		.cfi_offset 3, -16
 437              		.cfi_offset 4, -12
 438              		.cfi_offset 5, -8
 439              		.cfi_offset 14, -4
 440 0002 084C     		ldr	r4, .L43
 441 0004 04F1A005 		add	r5, r4, #160
 442              	.LVL22:
 443              	.L36:
 444              	.LBB11:
 445              	.LBB12:
 446              		.loc 1 264 0
 447 0008 A389     		ldrh	r3, [r4, #12]
 448 000a DB07     		lsls	r3, r3, #31
 449 000c 03D4     		bmi	.L42
 450              	.L35:
 451 000e 2034     		adds	r4, r4, #32
 452              	.LBE12:
 453              	.LBE11:
 454              		.loc 1 293 0 discriminator 3
 455 0010 AC42     		cmp	r4, r5
 456 0012 F9D1     		bne	.L36
ARM GAS  /var/folders/6q/x_mk5n_j3p7_c40r_2k_78980000gn/T//cczQbSnP.s 			page 9


 457              		.loc 1 295 0
 458 0014 38BD     		pop	{r3, r4, r5, pc}
 459              	.L42:
 460              	.LBB14:
 461              	.LBB13:
 462              		.loc 1 266 0
 463 0016 B4F91C10 		ldrsh	r1, [r4, #28]
 464 001a 0348     		ldr	r0, .L43+4
 465 001c FFF7FEFF 		bl	extChannelEnable
 466              	.LVL23:
 467 0020 F5E7     		b	.L35
 468              	.L44:
 469 0022 00BF     		.align	2
 470              	.L43:
 471 0024 00000000 		.word	.LANCHOR1
 472 0028 00000000 		.word	EXTD1
 473              	.LBE13:
 474              	.LBE14:
 475              		.cfi_endproc
 476              	.LFE69:
 477              		.size	vexSonarStartAll, .-vexSonarStartAll
 478              		.section	.text.vexSonarRun,"ax",%progbits
 479              		.align	2
 480              		.p2align 4,,15
 481              		.global	vexSonarRun
 482              		.thumb
 483              		.thumb_func
 484              		.type	vexSonarRun, %function
 485              	vexSonarRun:
 486              	.LFB70:
 487              		.loc 1 303 0
 488              		.cfi_startproc
 489              		@ args = 0, pretend = 0, frame = 0
 490              		@ frame_needed = 0, uses_anonymous_args = 0
 491 0000 10B5     		push	{r4, lr}
 492              		.cfi_def_cfa_offset 8
 493              		.cfi_offset 4, -8
 494              		.cfi_offset 14, -4
 495              		.loc 1 307 0
 496 0002 0E4C     		ldr	r4, .L52
 497              		.loc 1 303 0
 498 0004 82B0     		sub	sp, sp, #8
 499              		.cfi_def_cfa_offset 16
 500              		.loc 1 307 0
 501 0006 2368     		ldr	r3, [r4]
 502 0008 0BB1     		cbz	r3, .L51
 503              	.L45:
 504              		.loc 1 319 0
 505 000a 02B0     		add	sp, sp, #8
 506              		.cfi_remember_state
 507              		.cfi_def_cfa_offset 8
 508              		@ sp needed
 509 000c 10BD     		pop	{r4, pc}
 510              	.L51:
 511              		.cfi_restore_state
 512 000e 0C4B     		ldr	r3, .L52+4
 513 0010 03F1A001 		add	r1, r3, #160
ARM GAS  /var/folders/6q/x_mk5n_j3p7_c40r_2k_78980000gn/T//cczQbSnP.s 			page 10


 514 0014 01E0     		b	.L48
 515              	.LVL24:
 516              	.L47:
 517              		.loc 1 311 0 discriminator 2
 518 0016 8B42     		cmp	r3, r1
 519 0018 F7D0     		beq	.L45
 520              	.L48:
 521              		.loc 1 313 0
 522 001a 9A89     		ldrh	r2, [r3, #12]
 523 001c 2033     		adds	r3, r3, #32
 524 001e 9207     		lsls	r2, r2, #30
 525 0020 F9D5     		bpl	.L47
 526              		.loc 1 315 0
 527 0022 0023     		movs	r3, #0
 528 0024 0093     		str	r3, [sp]
 529 0026 4822     		movs	r2, #72
 530 0028 064B     		ldr	r3, .L52+8
 531 002a 4FF4C071 		mov	r1, #384
 532 002e 0648     		ldr	r0, .L52+12
 533 0030 FFF7FEFF 		bl	chThdCreateStatic
 534              	.LVL25:
 535 0034 2060     		str	r0, [r4]
 536              		.loc 1 319 0
 537 0036 02B0     		add	sp, sp, #8
 538              		.cfi_def_cfa_offset 8
 539              		@ sp needed
 540 0038 10BD     		pop	{r4, pc}
 541              	.L53:
 542 003a 00BF     		.align	2
 543              	.L52:
 544 003c 00000000 		.word	.LANCHOR3
 545 0040 00000000 		.word	.LANCHOR1
 546 0044 00000000 		.word	VexSonarTask
 547 0048 00000000 		.word	.LANCHOR4
 548              		.cfi_endproc
 549              	.LFE70:
 550              		.size	vexSonarRun, .-vexSonarRun
 551              		.section	.text.vexSonarPing,"ax",%progbits
 552              		.align	2
 553              		.p2align 4,,15
 554              		.global	vexSonarPing
 555              		.thumb
 556              		.thumb_func
 557              		.type	vexSonarPing, %function
 558              	vexSonarPing:
 559              	.LFB71:
 560              		.loc 1 329 0
 561              		.cfi_startproc
 562              		@ args = 0, pretend = 0, frame = 0
 563              		@ frame_needed = 0, uses_anonymous_args = 0
 564              	.LVL26:
 565 0000 08B5     		push	{r3, lr}
 566              		.cfi_def_cfa_offset 8
 567              		.cfi_offset 3, -8
 568              		.cfi_offset 14, -4
 569              		.loc 1 330 0
 570 0002 0B4B     		ldr	r3, .L58
ARM GAS  /var/folders/6q/x_mk5n_j3p7_c40r_2k_78980000gn/T//cczQbSnP.s 			page 11


 571 0004 03EB4010 		add	r0, r3, r0, lsl #5
 572              	.LVL27:
 573 0008 B0F90C30 		ldrsh	r3, [r0, #12]
 574 000c 032B     		cmp	r3, #3
 575 000e 00D0     		beq	.L57
 576 0010 08BD     		pop	{r3, pc}
 577              	.L57:
 578              		.loc 1 331 0
 579 0012 90F90E00 		ldrsb	r0, [r0, #14]
 580 0016 0121     		movs	r1, #1
 581 0018 FFF7FEFF 		bl	vexDigitalPinSet
 582              	.LVL28:
 583              		.loc 1 332 0
 584 001c 054B     		ldr	r3, .L58+4
 585 001e 0022     		movs	r2, #0
 586 0020 1A70     		strb	r2, [r3]
 587              		.loc 1 333 0
 588 0022 0A21     		movs	r1, #10
 589 0024 0448     		ldr	r0, .L58+8
 590              		.loc 1 335 0
 591 0026 BDE80840 		pop	{r3, lr}
 592              		.cfi_restore 14
 593              		.cfi_restore 3
 594              		.cfi_def_cfa_offset 0
 595              		.loc 1 333 0
 596 002a FFF7FEBF 		b	gptStartOneShot
 597              	.LVL29:
 598              	.L59:
 599 002e 00BF     		.align	2
 600              	.L58:
 601 0030 00000000 		.word	.LANCHOR1
 602 0034 00000000 		.word	.LANCHOR2
 603 0038 00000000 		.word	GPTD5
 604              		.cfi_endproc
 605              	.LFE71:
 606              		.size	vexSonarPing, .-vexSonarPing
 607              		.section	.text.VexSonarTask,"ax",%progbits
 608              		.align	2
 609              		.p2align 4,,15
 610              		.thumb
 611              		.thumb_func
 612              		.type	VexSonarTask, %function
 613              	VexSonarTask:
 614              	.LFB64:
 615              		.loc 1 137 0
 616              		.cfi_startproc
 617              		@ args = 0, pretend = 0, frame = 0
 618              		@ frame_needed = 0, uses_anonymous_args = 0
 619              	.LVL30:
 620 0000 2DE9F047 		push	{r4, r5, r6, r7, r8, r9, r10, lr}
 621              		.cfi_def_cfa_offset 32
 622              		.cfi_offset 4, -32
 623              		.cfi_offset 5, -28
 624              		.cfi_offset 6, -24
 625              		.cfi_offset 7, -20
 626              		.cfi_offset 8, -16
 627              		.cfi_offset 9, -12
ARM GAS  /var/folders/6q/x_mk5n_j3p7_c40r_2k_78980000gn/T//cczQbSnP.s 			page 12


 628              		.cfi_offset 10, -8
 629              		.cfi_offset 14, -4
 630              		.loc 1 142 0
 631 0004 DFF8E4A0 		ldr	r10, .L81+24
 632 0008 324A     		ldr	r2, .L81
 633 000a DAF81830 		ldr	r3, [r10, #24]
 634              		.loc 1 148 0
 635 000e 324C     		ldr	r4, .L81+4
 636 0010 DFF8DC90 		ldr	r9, .L81+28
 637              		.loc 1 142 0
 638 0014 9A61     		str	r2, [r3, #24]
 639              		.loc 1 144 0
 640 0016 3149     		ldr	r1, .L81+8
 641 0018 3148     		ldr	r0, .L81+12
 642              	.LVL31:
 643 001a FFF7FEFF 		bl	gptStart
 644              	.LVL32:
 645              		.loc 1 148 0
 646 001e 2646     		mov	r6, r4
 647 0020 4D46     		mov	r5, r9
 648              		.loc 1 168 0
 649 0022 DFF8D080 		ldr	r8, .L81+32
 650              		.loc 1 169 0
 651 0026 2F4F     		ldr	r7, .L81+16
 652              	.L61:
 653              		.loc 1 146 0
 654 0028 DAF81830 		ldr	r3, [r10, #24]
 655 002c 5B7F     		ldrb	r3, [r3, #29]	@ zero_extendqisi2
 656 002e 5B07     		lsls	r3, r3, #29
 657 0030 0ED4     		bmi	.L79
 658              	.L70:
 659              		.loc 1 148 0
 660 0032 2078     		ldrb	r0, [r4]	@ zero_extendqisi2
 661 0034 09EB4013 		add	r3, r9, r0, lsl #5
 662 0038 B3F90C30 		ldrsh	r3, [r3, #12]
 663 003c 032B     		cmp	r3, #3
 664 003e 0AD0     		beq	.L80
 665              		.loc 1 190 0
 666 0040 1920     		movs	r0, #25
 667 0042 FFF7FEFF 		bl	chThdSleep
 668              	.LVL33:
 669              		.loc 1 146 0
 670 0046 DAF81830 		ldr	r3, [r10, #24]
 671 004a 5B7F     		ldrb	r3, [r3, #29]	@ zero_extendqisi2
 672 004c 5B07     		lsls	r3, r3, #29
 673 004e F0D5     		bpl	.L70
 674              	.L79:
 675              		.loc 1 194 0
 676 0050 0020     		movs	r0, #0
 677 0052 BDE8F087 		pop	{r4, r5, r6, r7, r8, r9, r10, pc}
 678              	.L80:
 679              		.loc 1 151 0
 680 0056 FFF7FEFF 		bl	vexSonarPing
 681              	.LVL34:
 682              		.loc 1 156 0
 683 005a 234B     		ldr	r3, .L81+20
 684 005c D868     		ldr	r0, [r3, #12]
ARM GAS  /var/folders/6q/x_mk5n_j3p7_c40r_2k_78980000gn/T//cczQbSnP.s 			page 13


 685 005e 3230     		adds	r0, r0, #50
 686 0060 FFF7FEFF 		bl	chThdSleepUntil
 687              	.LVL35:
 688              		.loc 1 162 0
 689 0064 48F6B80E 		movw	lr, #35000
 690              		.loc 1 159 0
 691 0068 3378     		ldrb	r3, [r6]	@ zero_extendqisi2
 692 006a 5801     		lsls	r0, r3, #5
 693 006c 2918     		adds	r1, r5, r0
 694 006e B1F802C0 		ldrh	ip, [r1, #2]
 695 0072 2A5A     		ldrh	r2, [r5, r0]
 696 0074 C2EB0C02 		rsb	r2, r2, ip
 697              		.loc 1 162 0
 698 0078 7245     		cmp	r2, lr
 699              		.loc 1 159 0
 700 007a 4A60     		str	r2, [r1, #4]
 701              		.loc 1 162 0
 702 007c 17DD     		ble	.L63
 703              		.loc 1 163 0
 704 007e 4FF0FF32 		mov	r2, #-1
 705 0082 4A60     		str	r2, [r1, #4]
 706              	.L64:
 707              		.loc 1 173 0
 708 0084 4FF6FF72 		movw	r2, #65535
 709 0088 4844     		add	r0, r0, r9
 710 008a 0281     		strh	r2, [r0, #8]	@ movhi
 711              		.loc 1 174 0
 712 008c 4281     		strh	r2, [r0, #10]	@ movhi
 713              	.L65:
 714              	.LVL36:
 715              		.loc 1 137 0 discriminator 1
 716 008e 0521     		movs	r1, #5
 717              	.LVL37:
 718              	.L69:
 719              		.loc 1 180 0
 720 0090 0133     		adds	r3, r3, #1
 721 0092 DBB2     		uxtb	r3, r3
 722 0094 052B     		cmp	r3, #5
 723 0096 08BF     		it	eq
 724 0098 0023     		moveq	r3, #0
 725              		.loc 1 184 0
 726 009a 09EB4312 		add	r2, r9, r3, lsl #5
 727 009e B2F90C20 		ldrsh	r2, [r2, #12]
 728 00a2 032A     		cmp	r2, #3
 729 00a4 01D0     		beq	.L78
 730              		.loc 1 178 0 discriminator 2
 731 00a6 0139     		subs	r1, r1, #1
 732              	.LVL38:
 733 00a8 F2D1     		bne	.L69
 734              	.L78:
 735 00aa 2370     		strb	r3, [r4]
 736 00ac BCE7     		b	.L61
 737              	.L63:
 738              		.loc 1 166 0
 739 00ae B2F1FF3F 		cmp	r2, #-1
 740 00b2 E7D0     		beq	.L64
 741              		.loc 1 168 0
ARM GAS  /var/folders/6q/x_mk5n_j3p7_c40r_2k_78980000gn/T//cczQbSnP.s 			page 14


 742 00b4 88FB02E0 		smull	lr, r0, r8, r2
 743              		.loc 1 169 0
 744 00b8 87FB02EC 		smull	lr, ip, r7, r2
 745              		.loc 1 168 0
 746 00bc 1044     		add	r0, r0, r2
 747 00be 4FEAE27E 		asr	lr, r2, #31
 748              		.loc 1 169 0
 749 00c2 6244     		add	r2, r2, ip
 750              		.loc 1 168 0
 751 00c4 CEEB6010 		rsb	r0, lr, r0, asr #5
 752              		.loc 1 169 0
 753 00c8 CEEBE212 		rsb	r2, lr, r2, asr #7
 754              		.loc 1 168 0
 755 00cc 0881     		strh	r0, [r1, #8]	@ movhi
 756              		.loc 1 169 0
 757 00ce 4A81     		strh	r2, [r1, #10]	@ movhi
 758 00d0 DDE7     		b	.L65
 759              	.L82:
 760 00d2 00BF     		.align	2
 761              	.L81:
 762 00d4 00000000 		.word	.LC0
 763 00d8 00000000 		.word	.LANCHOR0
 764 00dc 00000000 		.word	.LANCHOR5
 765 00e0 00000000 		.word	GPTD5
 766 00e4 A7C867DD 		.word	-580400985
 767 00e8 00000000 		.word	vtlist
 768 00ec 00000000 		.word	rlist
 769 00f0 00000000 		.word	.LANCHOR1
 770 00f4 09CB3D8D 		.word	-1925330167
 771              		.cfi_endproc
 772              	.LFE64:
 773              		.size	VexSonarTask, .-VexSonarTask
 774              		.section	.text.vexSonarGetCm,"ax",%progbits
 775              		.align	2
 776              		.p2align 4,,15
 777              		.global	vexSonarGetCm
 778              		.thumb
 779              		.thumb_func
 780              		.type	vexSonarGetCm, %function
 781              	vexSonarGetCm:
 782              	.LFB72:
 783              		.loc 1 345 0
 784              		.cfi_startproc
 785              		@ args = 0, pretend = 0, frame = 0
 786              		@ frame_needed = 0, uses_anonymous_args = 0
 787              		@ link register save eliminated.
 788              	.LVL39:
 789              		.loc 1 346 0
 790 0000 054B     		ldr	r3, .L86
 791 0002 03EB4010 		add	r0, r3, r0, lsl #5
 792              	.LVL40:
 793 0006 8389     		ldrh	r3, [r0, #12]
 794 0008 9B07     		lsls	r3, r3, #30
 795              		.loc 1 347 0
 796 000a 4CBF     		ite	mi
 797 000c B0F90800 		ldrshmi	r0, [r0, #8]
 798              		.loc 1 350 0
ARM GAS  /var/folders/6q/x_mk5n_j3p7_c40r_2k_78980000gn/T//cczQbSnP.s 			page 15


 799 0010 4FF0FF30 		movpl	r0, #-1
 800              		.loc 1 351 0
 801 0014 7047     		bx	lr
 802              	.L87:
 803 0016 00BF     		.align	2
 804              	.L86:
 805 0018 00000000 		.word	.LANCHOR1
 806              		.cfi_endproc
 807              	.LFE72:
 808              		.size	vexSonarGetCm, .-vexSonarGetCm
 809              		.section	.text.vexSonarGetInch,"ax",%progbits
 810              		.align	2
 811              		.p2align 4,,15
 812              		.global	vexSonarGetInch
 813              		.thumb
 814              		.thumb_func
 815              		.type	vexSonarGetInch, %function
 816              	vexSonarGetInch:
 817              	.LFB73:
 818              		.loc 1 361 0
 819              		.cfi_startproc
 820              		@ args = 0, pretend = 0, frame = 0
 821              		@ frame_needed = 0, uses_anonymous_args = 0
 822              		@ link register save eliminated.
 823              	.LVL41:
 824              		.loc 1 362 0
 825 0000 054B     		ldr	r3, .L91
 826 0002 03EB4010 		add	r0, r3, r0, lsl #5
 827              	.LVL42:
 828 0006 8389     		ldrh	r3, [r0, #12]
 829 0008 9B07     		lsls	r3, r3, #30
 830              		.loc 1 363 0
 831 000a 4CBF     		ite	mi
 832 000c B0F90A00 		ldrshmi	r0, [r0, #10]
 833              		.loc 1 366 0
 834 0010 4FF0FF30 		movpl	r0, #-1
 835              		.loc 1 367 0
 836 0014 7047     		bx	lr
 837              	.L92:
 838 0016 00BF     		.align	2
 839              	.L91:
 840 0018 00000000 		.word	.LANCHOR1
 841              		.cfi_endproc
 842              	.LFE73:
 843              		.size	vexSonarGetInch, .-vexSonarGetInch
 844              		.section	.text.vexSonarDebug,"ax",%progbits
 845              		.align	2
 846              		.p2align 4,,15
 847              		.global	vexSonarDebug
 848              		.thumb
 849              		.thumb_func
 850              		.type	vexSonarDebug, %function
 851              	vexSonarDebug:
 852              	.LFB74:
 853              		.loc 1 378 0
 854              		.cfi_startproc
 855              		@ args = 0, pretend = 0, frame = 0
ARM GAS  /var/folders/6q/x_mk5n_j3p7_c40r_2k_78980000gn/T//cczQbSnP.s 			page 16


 856              		@ frame_needed = 0, uses_anonymous_args = 0
 857              	.LVL43:
 858 0000 70B5     		push	{r4, r5, r6, lr}
 859              		.cfi_def_cfa_offset 16
 860              		.cfi_offset 4, -16
 861              		.cfi_offset 5, -12
 862              		.cfi_offset 6, -8
 863              		.cfi_offset 14, -4
 864 0002 0646     		mov	r6, r0
 865 0004 0F4C     		ldr	r4, .L97
 866 0006 82B0     		sub	sp, sp, #8
 867              		.cfi_def_cfa_offset 24
 868              		.loc 1 378 0
 869 0008 0025     		movs	r5, #0
 870              	.LVL44:
 871              	.L94:
 872              		.loc 1 386 0 discriminator 3
 873 000a 6188     		ldrh	r1, [r4, #2]
 874 000c 2288     		ldrh	r2, [r4]
 875 000e B4F90C30 		ldrsh	r3, [r4, #12]
 876 0012 0191     		str	r1, [sp, #4]
 877 0014 0092     		str	r2, [sp]
 878 0016 0C49     		ldr	r1, .L97+4
 879 0018 2A46     		mov	r2, r5
 880 001a 3046     		mov	r0, r6
 881 001c FFF7FEFF 		bl	vex_chprintf
 882              	.LVL45:
 883              		.loc 1 387 0 discriminator 3
 884 0020 B4F90A10 		ldrsh	r1, [r4, #10]
 885 0024 B4F90830 		ldrsh	r3, [r4, #8]
 886 0028 6268     		ldr	r2, [r4, #4]
 887 002a 0091     		str	r1, [sp]
 888 002c 0135     		adds	r5, r5, #1
 889              	.LVL46:
 890 002e 0749     		ldr	r1, .L97+8
 891 0030 3046     		mov	r0, r6
 892 0032 FFF7FEFF 		bl	vex_chprintf
 893              	.LVL47:
 894              		.loc 1 384 0 discriminator 3
 895 0036 052D     		cmp	r5, #5
 896 0038 04F12004 		add	r4, r4, #32
 897 003c E5D1     		bne	.L94
 898              		.loc 1 389 0
 899 003e 02B0     		add	sp, sp, #8
 900              		.cfi_def_cfa_offset 16
 901              		@ sp needed
 902 0040 70BD     		pop	{r4, r5, r6, pc}
 903              	.LVL48:
 904              	.L98:
 905 0042 00BF     		.align	2
 906              	.L97:
 907 0044 00000000 		.word	.LANCHOR1
 908 0048 08000000 		.word	.LC1
 909 004c 18000000 		.word	.LC2
 910              		.cfi_endproc
 911              	.LFE74:
 912              		.size	vexSonarDebug, .-vexSonarDebug
ARM GAS  /var/folders/6q/x_mk5n_j3p7_c40r_2k_78980000gn/T//cczQbSnP.s 			page 17


 913              		.section	.bss.vexSonarThread,"aw",%nobits
 914              		.align	2
 915              		.set	.LANCHOR3,. + 0
 916              		.type	vexSonarThread, %object
 917              		.size	vexSonarThread, 4
 918              	vexSonarThread:
 919 0000 00000000 		.space	4
 920              		.section	.bss.waVexSonarTask,"aw",%nobits
 921              		.align	3
 922              		.set	.LANCHOR4,. + 0
 923              		.type	waVexSonarTask, %object
 924              		.size	waVexSonarTask, 384
 925              	waVexSonarTask:
 926 0000 00000000 		.space	384
 926      00000000 
 926      00000000 
 926      00000000 
 926      00000000 
 927              		.section	.bss.nextSonar,"aw",%nobits
 928              		.set	.LANCHOR0,. + 0
 929              		.type	nextSonar, %object
 930              		.size	nextSonar, 1
 931              	nextSonar:
 932 0000 00       		.space	1
 933              		.section	.bss.vexSonars,"aw",%nobits
 934              		.align	2
 935              		.set	.LANCHOR1,. + 0
 936              		.type	vexSonars, %object
 937              		.size	vexSonars, 160
 938              	vexSonars:
 939 0000 00000000 		.space	160
 939      00000000 
 939      00000000 
 939      00000000 
 939      00000000 
 940              		.section	.rodata.vexSonarGpt,"a",%progbits
 941              		.align	2
 942              		.set	.LANCHOR5,. + 0
 943              		.type	vexSonarGpt, %object
 944              		.size	vexSonarGpt, 12
 945              	vexSonarGpt:
 946 0000 40420F00 		.word	1000000
 947 0004 00000000 		.word	_vs_gpt_cb
 948 0008 00000000 		.word	0
 949              		.section	.rodata.str1.4,"aMS",%progbits,1
 950              		.align	2
 951              	.LC0:
 952 0000 736F6E61 		.ascii	"sonar\000"
 952      7200
 953 0006 0000     		.space	2
 954              	.LC1:
 955 0008 53256420 		.ascii	"S%d %d %5d %5d \000"
 955      25642025 
 955      35642025 
 955      35642000 
 956              	.LC2:
 957 0018 25356420 		.ascii	"%5d %4d(cm) %3d(inch)\015\012\000"
ARM GAS  /var/folders/6q/x_mk5n_j3p7_c40r_2k_78980000gn/T//cczQbSnP.s 			page 18


 957      25346428 
 957      636D2920 
 957      25336428 
 957      696E6368 
 958              		.section	.bss.nextState,"aw",%nobits
 959              		.set	.LANCHOR2,. + 0
 960              		.type	nextState, %object
 961              		.size	nextState, 1
 962              	nextState:
 963 0000 00       		.space	1
 964              		.text
 965              	.Letext0:
 966              		.file 2 "/Users/Luca/src/vexilla/src/gcc-arm-none-eabi-5_4-2016q3/lib/gcc/arm-none-eabi/5.4.1/incl
 967              		.file 3 "/Users/Luca/src/vexilla/src/gcc-arm-none-eabi-5_4-2016q3/arm-none-eabi/include/machine/_d
 968              		.file 4 "/Users/Luca/src/vexilla/src/gcc-arm-none-eabi-5_4-2016q3/arm-none-eabi/include/sys/_stdin
 969              		.file 5 "../ChibiOS/os/ports/GCC/ARMCMx/chtypes.h"
 970              		.file 6 "../ChibiOS/os/kernel/include/chlists.h"
 971              		.file 7 "../ChibiOS/os/kernel/include/chthreads.h"
 972              		.file 8 "../ChibiOS/os/ports/GCC/ARMCMx/chcore_v7m.h"
 973              		.file 9 "../ChibiOS/os/kernel/include/chvt.h"
 974              		.file 10 "../ChibiOS/os/kernel/include/chschd.h"
 975              		.file 11 "../ChibiOS/os/kernel/include/chmtx.h"
 976              		.file 12 "../ChibiOS/os/kernel/include/chstreams.h"
 977              		.file 13 "../ChibiOS/os/hal/platforms/STM32F1xx/stm32f10x.h"
 978              		.file 14 "../ChibiOS/os/hal/platforms/STM32/GPIOv1/pal_lld.h"
 979              		.file 15 "../ChibiOS/os/hal/include/ext.h"
 980              		.file 16 "../ChibiOS/os/hal/platforms/STM32/ext_lld.h"
 981              		.file 17 "../ChibiOS/os/hal/include/gpt.h"
 982              		.file 18 "../ChibiOS/os/hal/platforms/STM32/TIMv1/gpt_lld.h"
 983              		.file 19 "../ChibiOS/os/hal/platforms/STM32/TIMv1/stm32_tim.h"
 984              		.file 20 "../convex-vexilla/cortex/fw/vexcompat.h"
 985              		.file 21 "../convex-vexilla/cortex/fw/vexdigital.h"
 986              		.file 22 "../convex-vexilla/cortex/fw/vexsonar.h"
 987              		.file 23 "../convex-vexilla/cortex/fw/vexime.h"
 988              		.file 24 "../ChibiOS/os/ports/common/ARMCMx/CMSIS/include/core_cm3.h"
 989              		.file 25 "../convex-vexilla/cortex/fw/vexprintf.h"
 990              		.section	.debug_info,"",%progbits
 991              	.Ldebug_info0:
 992 0000 85110000 		.4byte	0x1185
 993 0004 0400     		.2byte	0x4
 994 0006 00000000 		.4byte	.Ldebug_abbrev0
 995 000a 04       		.byte	0x4
 996 000b 01       		.uleb128 0x1
 997 000c 85030000 		.4byte	.LASF227
 998 0010 0C       		.byte	0xc
 999 0011 AA010000 		.4byte	.LASF228
 1000 0015 5F040000 		.4byte	.LASF229
 1001 0019 50000000 		.4byte	.Ldebug_ranges0+0x50
 1002 001d 00000000 		.4byte	0
 1003 0021 00000000 		.4byte	.Ldebug_line0
 1004 0025 02       		.uleb128 0x2
 1005 0026 7B020000 		.4byte	.LASF4
 1006 002a 02       		.byte	0x2
 1007 002b D8       		.byte	0xd8
 1008 002c 30000000 		.4byte	0x30
 1009 0030 03       		.uleb128 0x3
 1010 0031 04       		.byte	0x4
ARM GAS  /var/folders/6q/x_mk5n_j3p7_c40r_2k_78980000gn/T//cczQbSnP.s 			page 19


 1011 0032 07       		.byte	0x7
 1012 0033 8C000000 		.4byte	.LASF0
 1013 0037 04       		.uleb128 0x4
 1014 0038 04       		.byte	0x4
 1015 0039 05       		.byte	0x5
 1016 003a 696E7400 		.ascii	"int\000"
 1017 003e 03       		.uleb128 0x3
 1018 003f 08       		.byte	0x8
 1019 0040 05       		.byte	0x5
 1020 0041 4E050000 		.4byte	.LASF1
 1021 0045 03       		.uleb128 0x3
 1022 0046 08       		.byte	0x8
 1023 0047 04       		.byte	0x4
 1024 0048 FE060000 		.4byte	.LASF2
 1025 004c 03       		.uleb128 0x3
 1026 004d 01       		.byte	0x1
 1027 004e 06       		.byte	0x6
 1028 004f 020A0000 		.4byte	.LASF3
 1029 0053 02       		.uleb128 0x2
 1030 0054 70080000 		.4byte	.LASF5
 1031 0058 03       		.byte	0x3
 1032 0059 1D       		.byte	0x1d
 1033 005a 5E000000 		.4byte	0x5e
 1034 005e 03       		.uleb128 0x3
 1035 005f 01       		.byte	0x1
 1036 0060 08       		.byte	0x8
 1037 0061 2B090000 		.4byte	.LASF6
 1038 0065 02       		.uleb128 0x2
 1039 0066 B9050000 		.4byte	.LASF7
 1040 006a 03       		.byte	0x3
 1041 006b 29       		.byte	0x29
 1042 006c 70000000 		.4byte	0x70
 1043 0070 03       		.uleb128 0x3
 1044 0071 02       		.byte	0x2
 1045 0072 05       		.byte	0x5
 1046 0073 B6070000 		.4byte	.LASF8
 1047 0077 02       		.uleb128 0x2
 1048 0078 4B020000 		.4byte	.LASF9
 1049 007c 03       		.byte	0x3
 1050 007d 2B       		.byte	0x2b
 1051 007e 82000000 		.4byte	0x82
 1052 0082 03       		.uleb128 0x3
 1053 0083 02       		.byte	0x2
 1054 0084 07       		.byte	0x7
 1055 0085 160A0000 		.4byte	.LASF10
 1056 0089 02       		.uleb128 0x2
 1057 008a CD000000 		.4byte	.LASF11
 1058 008e 03       		.byte	0x3
 1059 008f 3F       		.byte	0x3f
 1060 0090 94000000 		.4byte	0x94
 1061 0094 03       		.uleb128 0x3
 1062 0095 04       		.byte	0x4
 1063 0096 05       		.byte	0x5
 1064 0097 F4070000 		.4byte	.LASF12
 1065 009b 02       		.uleb128 0x2
 1066 009c 39090000 		.4byte	.LASF13
 1067 00a0 03       		.byte	0x3
ARM GAS  /var/folders/6q/x_mk5n_j3p7_c40r_2k_78980000gn/T//cczQbSnP.s 			page 20


 1068 00a1 41       		.byte	0x41
 1069 00a2 A6000000 		.4byte	0xa6
 1070 00a6 03       		.uleb128 0x3
 1071 00a7 04       		.byte	0x4
 1072 00a8 07       		.byte	0x7
 1073 00a9 D9080000 		.4byte	.LASF14
 1074 00ad 02       		.uleb128 0x2
 1075 00ae C6020000 		.4byte	.LASF15
 1076 00b2 03       		.byte	0x3
 1077 00b3 5B       		.byte	0x5b
 1078 00b4 B8000000 		.4byte	0xb8
 1079 00b8 03       		.uleb128 0x3
 1080 00b9 08       		.byte	0x8
 1081 00ba 07       		.byte	0x7
 1082 00bb 1A020000 		.4byte	.LASF16
 1083 00bf 03       		.uleb128 0x3
 1084 00c0 04       		.byte	0x4
 1085 00c1 07       		.byte	0x7
 1086 00c2 C8080000 		.4byte	.LASF17
 1087 00c6 05       		.uleb128 0x5
 1088 00c7 04       		.byte	0x4
 1089 00c8 06       		.uleb128 0x6
 1090 00c9 04       		.byte	0x4
 1091 00ca CE000000 		.4byte	0xce
 1092 00ce 03       		.uleb128 0x3
 1093 00cf 01       		.byte	0x1
 1094 00d0 08       		.byte	0x8
 1095 00d1 78030000 		.4byte	.LASF18
 1096 00d5 06       		.uleb128 0x6
 1097 00d6 04       		.byte	0x4
 1098 00d7 DB000000 		.4byte	0xdb
 1099 00db 07       		.uleb128 0x7
 1100 00dc CE000000 		.4byte	0xce
 1101 00e0 02       		.uleb128 0x2
 1102 00e1 D8040000 		.4byte	.LASF19
 1103 00e5 04       		.byte	0x4
 1104 00e6 18       		.byte	0x18
 1105 00e7 53000000 		.4byte	0x53
 1106 00eb 02       		.uleb128 0x2
 1107 00ec 12020000 		.4byte	.LASF20
 1108 00f0 04       		.byte	0x4
 1109 00f1 20       		.byte	0x20
 1110 00f2 65000000 		.4byte	0x65
 1111 00f6 02       		.uleb128 0x2
 1112 00f7 1D070000 		.4byte	.LASF21
 1113 00fb 04       		.byte	0x4
 1114 00fc 24       		.byte	0x24
 1115 00fd 77000000 		.4byte	0x77
 1116 0101 02       		.uleb128 0x2
 1117 0102 06090000 		.4byte	.LASF22
 1118 0106 04       		.byte	0x4
 1119 0107 2C       		.byte	0x2c
 1120 0108 89000000 		.4byte	0x89
 1121 010c 02       		.uleb128 0x2
 1122 010d 7B010000 		.4byte	.LASF23
 1123 0111 04       		.byte	0x4
 1124 0112 30       		.byte	0x30
ARM GAS  /var/folders/6q/x_mk5n_j3p7_c40r_2k_78980000gn/T//cczQbSnP.s 			page 21


 1125 0113 9B000000 		.4byte	0x9b
 1126 0117 02       		.uleb128 0x2
 1127 0118 3C080000 		.4byte	.LASF24
 1128 011c 04       		.byte	0x4
 1129 011d 3C       		.byte	0x3c
 1130 011e AD000000 		.4byte	0xad
 1131 0122 03       		.uleb128 0x3
 1132 0123 01       		.byte	0x1
 1133 0124 02       		.byte	0x2
 1134 0125 A3020000 		.4byte	.LASF25
 1135 0129 02       		.uleb128 0x2
 1136 012a C0060000 		.4byte	.LASF26
 1137 012e 05       		.byte	0x5
 1138 012f 2C       		.byte	0x2c
 1139 0130 E0000000 		.4byte	0xe0
 1140 0134 02       		.uleb128 0x2
 1141 0135 A0040000 		.4byte	.LASF27
 1142 0139 05       		.byte	0x5
 1143 013a 2D       		.byte	0x2d
 1144 013b E0000000 		.4byte	0xe0
 1145 013f 02       		.uleb128 0x2
 1146 0140 D1080000 		.4byte	.LASF28
 1147 0144 05       		.byte	0x5
 1148 0145 2E       		.byte	0x2e
 1149 0146 E0000000 		.4byte	0xe0
 1150 014a 02       		.uleb128 0x2
 1151 014b 06060000 		.4byte	.LASF29
 1152 014f 05       		.byte	0x5
 1153 0150 2F       		.byte	0x2f
 1154 0151 E0000000 		.4byte	0xe0
 1155 0155 02       		.uleb128 0x2
 1156 0156 E1010000 		.4byte	.LASF30
 1157 015a 05       		.byte	0x5
 1158 015b 30       		.byte	0x30
 1159 015c 0C010000 		.4byte	0x10c
 1160 0160 02       		.uleb128 0x2
 1161 0161 A3050000 		.4byte	.LASF31
 1162 0165 05       		.byte	0x5
 1163 0166 31       		.byte	0x31
 1164 0167 01010000 		.4byte	0x101
 1165 016b 02       		.uleb128 0x2
 1166 016c 73050000 		.4byte	.LASF32
 1167 0170 05       		.byte	0x5
 1168 0171 33       		.byte	0x33
 1169 0172 0C010000 		.4byte	0x10c
 1170 0176 02       		.uleb128 0x2
 1171 0177 53000000 		.4byte	.LASF33
 1172 017b 05       		.byte	0x5
 1173 017c 35       		.byte	0x35
 1174 017d 0C010000 		.4byte	0x10c
 1175 0181 02       		.uleb128 0x2
 1176 0182 8D0A0000 		.4byte	.LASF34
 1177 0186 06       		.byte	0x6
 1178 0187 2A       		.byte	0x2a
 1179 0188 8C010000 		.4byte	0x18c
 1180 018c 08       		.uleb128 0x8
 1181 018d 8D0A0000 		.4byte	.LASF34
ARM GAS  /var/folders/6q/x_mk5n_j3p7_c40r_2k_78980000gn/T//cczQbSnP.s 			page 22


 1182 0191 48       		.byte	0x48
 1183 0192 07       		.byte	0x7
 1184 0193 5E       		.byte	0x5e
 1185 0194 89020000 		.4byte	0x289
 1186 0198 09       		.uleb128 0x9
 1187 0199 F4090000 		.4byte	.LASF35
 1188 019d 07       		.byte	0x7
 1189 019e 5F       		.byte	0x5f
 1190 019f AA020000 		.4byte	0x2aa
 1191 01a3 00       		.byte	0
 1192 01a4 09       		.uleb128 0x9
 1193 01a5 C1080000 		.4byte	.LASF36
 1194 01a9 07       		.byte	0x7
 1195 01aa 61       		.byte	0x61
 1196 01ab AA020000 		.4byte	0x2aa
 1197 01af 04       		.byte	0x4
 1198 01b0 09       		.uleb128 0x9
 1199 01b1 46000000 		.4byte	.LASF37
 1200 01b5 07       		.byte	0x7
 1201 01b6 63       		.byte	0x63
 1202 01b7 55010000 		.4byte	0x155
 1203 01bb 08       		.byte	0x8
 1204 01bc 09       		.uleb128 0x9
 1205 01bd 45080000 		.4byte	.LASF38
 1206 01c1 07       		.byte	0x7
 1207 01c2 64       		.byte	0x64
 1208 01c3 6D030000 		.4byte	0x36d
 1209 01c7 0C       		.byte	0xc
 1210 01c8 09       		.uleb128 0x9
 1211 01c9 5B020000 		.4byte	.LASF39
 1212 01cd 07       		.byte	0x7
 1213 01ce 66       		.byte	0x66
 1214 01cf AA020000 		.4byte	0x2aa
 1215 01d3 10       		.byte	0x10
 1216 01d4 09       		.uleb128 0x9
 1217 01d5 0E0A0000 		.4byte	.LASF40
 1218 01d9 07       		.byte	0x7
 1219 01da 67       		.byte	0x67
 1220 01db AA020000 		.4byte	0x2aa
 1221 01df 14       		.byte	0x14
 1222 01e0 09       		.uleb128 0x9
 1223 01e1 0A070000 		.4byte	.LASF41
 1224 01e5 07       		.byte	0x7
 1225 01e6 6E       		.byte	0x6e
 1226 01e7 D5000000 		.4byte	0xd5
 1227 01eb 18       		.byte	0x18
 1228 01ec 09       		.uleb128 0x9
 1229 01ed C1040000 		.4byte	.LASF42
 1230 01f1 07       		.byte	0x7
 1231 01f2 79       		.byte	0x79
 1232 01f3 34010000 		.4byte	0x134
 1233 01f7 1C       		.byte	0x1c
 1234 01f8 09       		.uleb128 0x9
 1235 01f9 B1050000 		.4byte	.LASF43
 1236 01fd 07       		.byte	0x7
 1237 01fe 7D       		.byte	0x7d
 1238 01ff 29010000 		.4byte	0x129
ARM GAS  /var/folders/6q/x_mk5n_j3p7_c40r_2k_78980000gn/T//cczQbSnP.s 			page 23


 1239 0203 1D       		.byte	0x1d
 1240 0204 09       		.uleb128 0x9
 1241 0205 44090000 		.4byte	.LASF44
 1242 0209 07       		.byte	0x7
 1243 020a 82       		.byte	0x82
 1244 020b 3F010000 		.4byte	0x13f
 1245 020f 1E       		.byte	0x1e
 1246 0210 09       		.uleb128 0x9
 1247 0211 73090000 		.4byte	.LASF45
 1248 0215 07       		.byte	0x7
 1249 0216 88       		.byte	0x88
 1250 0217 4A010000 		.4byte	0x14a
 1251 021b 1F       		.byte	0x1f
 1252 021c 09       		.uleb128 0x9
 1253 021d 25000000 		.4byte	.LASF46
 1254 0221 07       		.byte	0x7
 1255 0222 8F       		.byte	0x8f
 1256 0223 42040000 		.4byte	0x442
 1257 0227 20       		.byte	0x20
 1258 0228 0A       		.uleb128 0xa
 1259 0229 705F7500 		.ascii	"p_u\000"
 1260 022d 07       		.byte	0x7
 1261 022e B4       		.byte	0xb4
 1262 022f F0040000 		.4byte	0x4f0
 1263 0233 24       		.byte	0x24
 1264 0234 09       		.uleb128 0x9
 1265 0235 BD000000 		.4byte	.LASF47
 1266 0239 07       		.byte	0x7
 1267 023a B9       		.byte	0xb9
 1268 023b D0020000 		.4byte	0x2d0
 1269 023f 28       		.byte	0x28
 1270 0240 09       		.uleb128 0x9
 1271 0241 81000000 		.4byte	.LASF48
 1272 0245 07       		.byte	0x7
 1273 0246 BF       		.byte	0xbf
 1274 0247 B0020000 		.4byte	0x2b0
 1275 024b 2C       		.byte	0x2c
 1276 024c 09       		.uleb128 0x9
 1277 024d BA060000 		.4byte	.LASF49
 1278 0251 07       		.byte	0x7
 1279 0252 C3       		.byte	0xc3
 1280 0253 60010000 		.4byte	0x160
 1281 0257 34       		.byte	0x34
 1282 0258 09       		.uleb128 0x9
 1283 0259 E1070000 		.4byte	.LASF50
 1284 025d 07       		.byte	0x7
 1285 025e C9       		.byte	0xc9
 1286 025f 6B010000 		.4byte	0x16b
 1287 0263 38       		.byte	0x38
 1288 0264 09       		.uleb128 0x9
 1289 0265 FE040000 		.4byte	.LASF51
 1290 0269 07       		.byte	0x7
 1291 026a D0       		.byte	0xd0
 1292 026b 25050000 		.4byte	0x525
 1293 026f 3C       		.byte	0x3c
 1294 0270 09       		.uleb128 0x9
 1295 0271 D3060000 		.4byte	.LASF52
ARM GAS  /var/folders/6q/x_mk5n_j3p7_c40r_2k_78980000gn/T//cczQbSnP.s 			page 24


 1296 0275 07       		.byte	0x7
 1297 0276 D4       		.byte	0xd4
 1298 0277 55010000 		.4byte	0x155
 1299 027b 40       		.byte	0x40
 1300 027c 09       		.uleb128 0x9
 1301 027d E7040000 		.4byte	.LASF53
 1302 0281 07       		.byte	0x7
 1303 0282 DA       		.byte	0xda
 1304 0283 C6000000 		.4byte	0xc6
 1305 0287 44       		.byte	0x44
 1306 0288 00       		.byte	0
 1307 0289 0B       		.uleb128 0xb
 1308 028a 08       		.byte	0x8
 1309 028b 06       		.byte	0x6
 1310 028c 61       		.byte	0x61
 1311 028d AA020000 		.4byte	0x2aa
 1312 0291 09       		.uleb128 0x9
 1313 0292 F4090000 		.4byte	.LASF35
 1314 0296 06       		.byte	0x6
 1315 0297 62       		.byte	0x62
 1316 0298 AA020000 		.4byte	0x2aa
 1317 029c 00       		.byte	0
 1318 029d 09       		.uleb128 0x9
 1319 029e C1080000 		.4byte	.LASF36
 1320 02a2 06       		.byte	0x6
 1321 02a3 64       		.byte	0x64
 1322 02a4 AA020000 		.4byte	0x2aa
 1323 02a8 04       		.byte	0x4
 1324 02a9 00       		.byte	0
 1325 02aa 06       		.uleb128 0x6
 1326 02ab 04       		.byte	0x4
 1327 02ac 81010000 		.4byte	0x181
 1328 02b0 02       		.uleb128 0x2
 1329 02b1 6B030000 		.4byte	.LASF54
 1330 02b5 06       		.byte	0x6
 1331 02b6 66       		.byte	0x66
 1332 02b7 89020000 		.4byte	0x289
 1333 02bb 0B       		.uleb128 0xb
 1334 02bc 04       		.byte	0x4
 1335 02bd 06       		.byte	0x6
 1336 02be 6B       		.byte	0x6b
 1337 02bf D0020000 		.4byte	0x2d0
 1338 02c3 09       		.uleb128 0x9
 1339 02c4 F4090000 		.4byte	.LASF35
 1340 02c8 06       		.byte	0x6
 1341 02c9 6D       		.byte	0x6d
 1342 02ca AA020000 		.4byte	0x2aa
 1343 02ce 00       		.byte	0
 1344 02cf 00       		.byte	0
 1345 02d0 02       		.uleb128 0x2
 1346 02d1 00000000 		.4byte	.LASF55
 1347 02d5 06       		.byte	0x6
 1348 02d6 70       		.byte	0x70
 1349 02d7 BB020000 		.4byte	0x2bb
 1350 02db 02       		.uleb128 0x2
 1351 02dc 3D000000 		.4byte	.LASF56
 1352 02e0 08       		.byte	0x8
ARM GAS  /var/folders/6q/x_mk5n_j3p7_c40r_2k_78980000gn/T//cczQbSnP.s 			page 25


 1353 02e1 E5       		.byte	0xe5
 1354 02e2 C6000000 		.4byte	0xc6
 1355 02e6 02       		.uleb128 0x2
 1356 02e7 400A0000 		.4byte	.LASF57
 1357 02eb 08       		.byte	0x8
 1358 02ec EB       		.byte	0xeb
 1359 02ed 17010000 		.4byte	0x117
 1360 02f1 0C       		.uleb128 0xc
 1361 02f2 26070000 		.4byte	.LASF58
 1362 02f6 24       		.byte	0x24
 1363 02f7 08       		.byte	0x8
 1364 02f8 0C01     		.2byte	0x10c
 1365 02fa 6D030000 		.4byte	0x36d
 1366 02fe 0D       		.uleb128 0xd
 1367 02ff 723400   		.ascii	"r4\000"
 1368 0302 08       		.byte	0x8
 1369 0303 1F01     		.2byte	0x11f
 1370 0305 DB020000 		.4byte	0x2db
 1371 0309 00       		.byte	0
 1372 030a 0D       		.uleb128 0xd
 1373 030b 723500   		.ascii	"r5\000"
 1374 030e 08       		.byte	0x8
 1375 030f 2001     		.2byte	0x120
 1376 0311 DB020000 		.4byte	0x2db
 1377 0315 04       		.byte	0x4
 1378 0316 0D       		.uleb128 0xd
 1379 0317 723600   		.ascii	"r6\000"
 1380 031a 08       		.byte	0x8
 1381 031b 2101     		.2byte	0x121
 1382 031d DB020000 		.4byte	0x2db
 1383 0321 08       		.byte	0x8
 1384 0322 0D       		.uleb128 0xd
 1385 0323 723700   		.ascii	"r7\000"
 1386 0326 08       		.byte	0x8
 1387 0327 2201     		.2byte	0x122
 1388 0329 DB020000 		.4byte	0x2db
 1389 032d 0C       		.byte	0xc
 1390 032e 0D       		.uleb128 0xd
 1391 032f 723800   		.ascii	"r8\000"
 1392 0332 08       		.byte	0x8
 1393 0333 2301     		.2byte	0x123
 1394 0335 DB020000 		.4byte	0x2db
 1395 0339 10       		.byte	0x10
 1396 033a 0D       		.uleb128 0xd
 1397 033b 723900   		.ascii	"r9\000"
 1398 033e 08       		.byte	0x8
 1399 033f 2401     		.2byte	0x124
 1400 0341 DB020000 		.4byte	0x2db
 1401 0345 14       		.byte	0x14
 1402 0346 0D       		.uleb128 0xd
 1403 0347 72313000 		.ascii	"r10\000"
 1404 034b 08       		.byte	0x8
 1405 034c 2501     		.2byte	0x125
 1406 034e DB020000 		.4byte	0x2db
 1407 0352 18       		.byte	0x18
 1408 0353 0D       		.uleb128 0xd
 1409 0354 72313100 		.ascii	"r11\000"
ARM GAS  /var/folders/6q/x_mk5n_j3p7_c40r_2k_78980000gn/T//cczQbSnP.s 			page 26


 1410 0358 08       		.byte	0x8
 1411 0359 2601     		.2byte	0x126
 1412 035b DB020000 		.4byte	0x2db
 1413 035f 1C       		.byte	0x1c
 1414 0360 0D       		.uleb128 0xd
 1415 0361 6C7200   		.ascii	"lr\000"
 1416 0364 08       		.byte	0x8
 1417 0365 2701     		.2byte	0x127
 1418 0367 DB020000 		.4byte	0x2db
 1419 036b 20       		.byte	0x20
 1420 036c 00       		.byte	0
 1421 036d 0C       		.uleb128 0xc
 1422 036e A9050000 		.4byte	.LASF59
 1423 0372 04       		.byte	0x4
 1424 0373 08       		.byte	0x8
 1425 0374 3101     		.2byte	0x131
 1426 0376 88030000 		.4byte	0x388
 1427 037a 0D       		.uleb128 0xd
 1428 037b 72313300 		.ascii	"r13\000"
 1429 037f 08       		.byte	0x8
 1430 0380 3201     		.2byte	0x132
 1431 0382 88030000 		.4byte	0x388
 1432 0386 00       		.byte	0
 1433 0387 00       		.byte	0
 1434 0388 06       		.uleb128 0x6
 1435 0389 04       		.byte	0x4
 1436 038a F1020000 		.4byte	0x2f1
 1437 038e 0E       		.uleb128 0xe
 1438 038f 0C010000 		.4byte	0x10c
 1439 0393 02       		.uleb128 0x2
 1440 0394 0C000000 		.4byte	.LASF60
 1441 0398 09       		.byte	0x9
 1442 0399 58       		.byte	0x58
 1443 039a 9E030000 		.4byte	0x39e
 1444 039e 06       		.uleb128 0x6
 1445 039f 04       		.byte	0x4
 1446 03a0 A4030000 		.4byte	0x3a4
 1447 03a4 0F       		.uleb128 0xf
 1448 03a5 AF030000 		.4byte	0x3af
 1449 03a9 10       		.uleb128 0x10
 1450 03aa C6000000 		.4byte	0xc6
 1451 03ae 00       		.byte	0
 1452 03af 02       		.uleb128 0x2
 1453 03b0 5C080000 		.4byte	.LASF61
 1454 03b4 09       		.byte	0x9
 1455 03b5 5D       		.byte	0x5d
 1456 03b6 BA030000 		.4byte	0x3ba
 1457 03ba 08       		.uleb128 0x8
 1458 03bb 5C080000 		.4byte	.LASF61
 1459 03bf 14       		.byte	0x14
 1460 03c0 09       		.byte	0x9
 1461 03c1 64       		.byte	0x64
 1462 03c2 03040000 		.4byte	0x403
 1463 03c6 09       		.uleb128 0x9
 1464 03c7 EC090000 		.4byte	.LASF62
 1465 03cb 09       		.byte	0x9
 1466 03cc 65       		.byte	0x65
ARM GAS  /var/folders/6q/x_mk5n_j3p7_c40r_2k_78980000gn/T//cczQbSnP.s 			page 27


 1467 03cd 03040000 		.4byte	0x403
 1468 03d1 00       		.byte	0
 1469 03d2 09       		.uleb128 0x9
 1470 03d3 530A0000 		.4byte	.LASF63
 1471 03d7 09       		.byte	0x9
 1472 03d8 67       		.byte	0x67
 1473 03d9 03040000 		.4byte	0x403
 1474 03dd 04       		.byte	0x4
 1475 03de 09       		.uleb128 0x9
 1476 03df 73010000 		.4byte	.LASF64
 1477 03e3 09       		.byte	0x9
 1478 03e4 69       		.byte	0x69
 1479 03e5 76010000 		.4byte	0x176
 1480 03e9 08       		.byte	0x8
 1481 03ea 09       		.uleb128 0x9
 1482 03eb 4B0A0000 		.4byte	.LASF65
 1483 03ef 09       		.byte	0x9
 1484 03f0 6A       		.byte	0x6a
 1485 03f1 93030000 		.4byte	0x393
 1486 03f5 0C       		.byte	0xc
 1487 03f6 09       		.uleb128 0x9
 1488 03f7 A3010000 		.4byte	.LASF66
 1489 03fb 09       		.byte	0x9
 1490 03fc 6C       		.byte	0x6c
 1491 03fd C6000000 		.4byte	0xc6
 1492 0401 10       		.byte	0x10
 1493 0402 00       		.byte	0
 1494 0403 06       		.uleb128 0x6
 1495 0404 04       		.byte	0x4
 1496 0405 AF030000 		.4byte	0x3af
 1497 0409 0B       		.uleb128 0xb
 1498 040a 10       		.byte	0x10
 1499 040b 09       		.byte	0x9
 1500 040c 76       		.byte	0x76
 1501 040d 42040000 		.4byte	0x442
 1502 0411 09       		.uleb128 0x9
 1503 0412 EC090000 		.4byte	.LASF62
 1504 0416 09       		.byte	0x9
 1505 0417 77       		.byte	0x77
 1506 0418 03040000 		.4byte	0x403
 1507 041c 00       		.byte	0
 1508 041d 09       		.uleb128 0x9
 1509 041e 530A0000 		.4byte	.LASF63
 1510 0422 09       		.byte	0x9
 1511 0423 79       		.byte	0x79
 1512 0424 03040000 		.4byte	0x403
 1513 0428 04       		.byte	0x4
 1514 0429 09       		.uleb128 0x9
 1515 042a 73010000 		.4byte	.LASF64
 1516 042e 09       		.byte	0x9
 1517 042f 7B       		.byte	0x7b
 1518 0430 76010000 		.4byte	0x176
 1519 0434 08       		.byte	0x8
 1520 0435 09       		.uleb128 0x9
 1521 0436 65000000 		.4byte	.LASF67
 1522 043a 09       		.byte	0x9
 1523 043b 7C       		.byte	0x7c
ARM GAS  /var/folders/6q/x_mk5n_j3p7_c40r_2k_78980000gn/T//cczQbSnP.s 			page 28


 1524 043c 42040000 		.4byte	0x442
 1525 0440 0C       		.byte	0xc
 1526 0441 00       		.byte	0
 1527 0442 0E       		.uleb128 0xe
 1528 0443 76010000 		.4byte	0x176
 1529 0447 02       		.uleb128 0x2
 1530 0448 A9040000 		.4byte	.LASF68
 1531 044c 09       		.byte	0x9
 1532 044d 7D       		.byte	0x7d
 1533 044e 09040000 		.4byte	0x409
 1534 0452 0B       		.uleb128 0xb
 1535 0453 1C       		.byte	0x1c
 1536 0454 0A       		.byte	0xa
 1537 0455 5E       		.byte	0x5e
 1538 0456 A3040000 		.4byte	0x4a3
 1539 045a 09       		.uleb128 0x9
 1540 045b 62050000 		.4byte	.LASF69
 1541 045f 0A       		.byte	0xa
 1542 0460 5F       		.byte	0x5f
 1543 0461 B0020000 		.4byte	0x2b0
 1544 0465 00       		.byte	0
 1545 0466 09       		.uleb128 0x9
 1546 0467 97010000 		.4byte	.LASF70
 1547 046b 0A       		.byte	0xa
 1548 046c 60       		.byte	0x60
 1549 046d 55010000 		.4byte	0x155
 1550 0471 08       		.byte	0x8
 1551 0472 09       		.uleb128 0x9
 1552 0473 290A0000 		.4byte	.LASF71
 1553 0477 0A       		.byte	0xa
 1554 0478 62       		.byte	0x62
 1555 0479 6D030000 		.4byte	0x36d
 1556 047d 0C       		.byte	0xc
 1557 047e 09       		.uleb128 0x9
 1558 047f 7D030000 		.4byte	.LASF72
 1559 0483 0A       		.byte	0xa
 1560 0484 65       		.byte	0x65
 1561 0485 AA020000 		.4byte	0x2aa
 1562 0489 10       		.byte	0x10
 1563 048a 09       		.uleb128 0x9
 1564 048b 10060000 		.4byte	.LASF73
 1565 048f 0A       		.byte	0xa
 1566 0490 66       		.byte	0x66
 1567 0491 AA020000 		.4byte	0x2aa
 1568 0495 14       		.byte	0x14
 1569 0496 09       		.uleb128 0x9
 1570 0497 D7070000 		.4byte	.LASF74
 1571 049b 0A       		.byte	0xa
 1572 049c 69       		.byte	0x69
 1573 049d AA020000 		.4byte	0x2aa
 1574 04a1 18       		.byte	0x18
 1575 04a2 00       		.byte	0
 1576 04a3 02       		.uleb128 0x2
 1577 04a4 4B090000 		.4byte	.LASF75
 1578 04a8 0A       		.byte	0xa
 1579 04a9 6B       		.byte	0x6b
 1580 04aa 52040000 		.4byte	0x452
ARM GAS  /var/folders/6q/x_mk5n_j3p7_c40r_2k_78980000gn/T//cczQbSnP.s 			page 29


 1581 04ae 08       		.uleb128 0x8
 1582 04af EE020000 		.4byte	.LASF76
 1583 04b3 10       		.byte	0x10
 1584 04b4 0B       		.byte	0xb
 1585 04b5 2C       		.byte	0x2c
 1586 04b6 DF040000 		.4byte	0x4df
 1587 04ba 09       		.uleb128 0x9
 1588 04bb EC070000 		.4byte	.LASF77
 1589 04bf 0B       		.byte	0xb
 1590 04c0 2D       		.byte	0x2d
 1591 04c1 B0020000 		.4byte	0x2b0
 1592 04c5 00       		.byte	0
 1593 04c6 09       		.uleb128 0x9
 1594 04c7 5D000000 		.4byte	.LASF78
 1595 04cb 0B       		.byte	0xb
 1596 04cc 2F       		.byte	0x2f
 1597 04cd AA020000 		.4byte	0x2aa
 1598 04d1 08       		.byte	0x8
 1599 04d2 09       		.uleb128 0x9
 1600 04d3 FB090000 		.4byte	.LASF79
 1601 04d7 0B       		.byte	0xb
 1602 04d8 31       		.byte	0x31
 1603 04d9 DF040000 		.4byte	0x4df
 1604 04dd 0C       		.byte	0xc
 1605 04de 00       		.byte	0
 1606 04df 06       		.uleb128 0x6
 1607 04e0 04       		.byte	0x4
 1608 04e1 AE040000 		.4byte	0x4ae
 1609 04e5 02       		.uleb128 0x2
 1610 04e6 EE020000 		.4byte	.LASF76
 1611 04ea 0B       		.byte	0xb
 1612 04eb 33       		.byte	0x33
 1613 04ec AE040000 		.4byte	0x4ae
 1614 04f0 11       		.uleb128 0x11
 1615 04f1 04       		.byte	0x4
 1616 04f2 07       		.byte	0x7
 1617 04f3 96       		.byte	0x96
 1618 04f4 25050000 		.4byte	0x525
 1619 04f8 12       		.uleb128 0x12
 1620 04f9 82020000 		.4byte	.LASF80
 1621 04fd 07       		.byte	0x7
 1622 04fe 9D       		.byte	0x9d
 1623 04ff 60010000 		.4byte	0x160
 1624 0503 12       		.uleb128 0x12
 1625 0504 730A0000 		.4byte	.LASF81
 1626 0508 07       		.byte	0x7
 1627 0509 A4       		.byte	0xa4
 1628 050a 60010000 		.4byte	0x160
 1629 050e 12       		.uleb128 0x12
 1630 050f 08010000 		.4byte	.LASF82
 1631 0513 07       		.byte	0x7
 1632 0514 AB       		.byte	0xab
 1633 0515 C6000000 		.4byte	0xc6
 1634 0519 12       		.uleb128 0x12
 1635 051a 69080000 		.4byte	.LASF83
 1636 051e 07       		.byte	0x7
 1637 051f B2       		.byte	0xb2
ARM GAS  /var/folders/6q/x_mk5n_j3p7_c40r_2k_78980000gn/T//cczQbSnP.s 			page 30


 1638 0520 6B010000 		.4byte	0x16b
 1639 0524 00       		.byte	0
 1640 0525 06       		.uleb128 0x6
 1641 0526 04       		.byte	0x4
 1642 0527 E5040000 		.4byte	0x4e5
 1643 052b 06       		.uleb128 0x6
 1644 052c 04       		.byte	0x4
 1645 052d 31050000 		.4byte	0x531
 1646 0531 13       		.uleb128 0x13
 1647 0532 60010000 		.4byte	0x160
 1648 0536 40050000 		.4byte	0x540
 1649 053a 10       		.uleb128 0x10
 1650 053b C6000000 		.4byte	0xc6
 1651 053f 00       		.byte	0
 1652 0540 06       		.uleb128 0x6
 1653 0541 04       		.byte	0x4
 1654 0542 E0000000 		.4byte	0xe0
 1655 0546 08       		.uleb128 0x8
 1656 0547 D7000000 		.4byte	.LASF84
 1657 054b 10       		.byte	0x10
 1658 054c 0C       		.byte	0xc
 1659 054d 48       		.byte	0x48
 1660 054e 83050000 		.4byte	0x583
 1661 0552 09       		.uleb128 0x9
 1662 0553 5C050000 		.4byte	.LASF85
 1663 0557 0C       		.byte	0xc
 1664 0558 49       		.byte	0x49
 1665 0559 A7050000 		.4byte	0x5a7
 1666 055d 00       		.byte	0
 1667 055e 09       		.uleb128 0x9
 1668 055f 8B080000 		.4byte	.LASF86
 1669 0563 0C       		.byte	0xc
 1670 0564 49       		.byte	0x49
 1671 0565 C6050000 		.4byte	0x5c6
 1672 0569 04       		.byte	0x4
 1673 056a 0A       		.uleb128 0xa
 1674 056b 70757400 		.ascii	"put\000"
 1675 056f 0C       		.byte	0xc
 1676 0570 49       		.byte	0x49
 1677 0571 E0050000 		.4byte	0x5e0
 1678 0575 08       		.byte	0x8
 1679 0576 0A       		.uleb128 0xa
 1680 0577 67657400 		.ascii	"get\000"
 1681 057b 0C       		.byte	0xc
 1682 057c 49       		.byte	0x49
 1683 057d 2B050000 		.4byte	0x52b
 1684 0581 0C       		.byte	0xc
 1685 0582 00       		.byte	0
 1686 0583 13       		.uleb128 0x13
 1687 0584 25000000 		.4byte	0x25
 1688 0588 9C050000 		.4byte	0x59c
 1689 058c 10       		.uleb128 0x10
 1690 058d C6000000 		.4byte	0xc6
 1691 0591 10       		.uleb128 0x10
 1692 0592 9C050000 		.4byte	0x59c
 1693 0596 10       		.uleb128 0x10
 1694 0597 25000000 		.4byte	0x25
ARM GAS  /var/folders/6q/x_mk5n_j3p7_c40r_2k_78980000gn/T//cczQbSnP.s 			page 31


 1695 059b 00       		.byte	0
 1696 059c 06       		.uleb128 0x6
 1697 059d 04       		.byte	0x4
 1698 059e A2050000 		.4byte	0x5a2
 1699 05a2 07       		.uleb128 0x7
 1700 05a3 E0000000 		.4byte	0xe0
 1701 05a7 06       		.uleb128 0x6
 1702 05a8 04       		.byte	0x4
 1703 05a9 83050000 		.4byte	0x583
 1704 05ad 13       		.uleb128 0x13
 1705 05ae 25000000 		.4byte	0x25
 1706 05b2 C6050000 		.4byte	0x5c6
 1707 05b6 10       		.uleb128 0x10
 1708 05b7 C6000000 		.4byte	0xc6
 1709 05bb 10       		.uleb128 0x10
 1710 05bc 40050000 		.4byte	0x540
 1711 05c0 10       		.uleb128 0x10
 1712 05c1 25000000 		.4byte	0x25
 1713 05c5 00       		.byte	0
 1714 05c6 06       		.uleb128 0x6
 1715 05c7 04       		.byte	0x4
 1716 05c8 AD050000 		.4byte	0x5ad
 1717 05cc 13       		.uleb128 0x13
 1718 05cd 60010000 		.4byte	0x160
 1719 05d1 E0050000 		.4byte	0x5e0
 1720 05d5 10       		.uleb128 0x10
 1721 05d6 C6000000 		.4byte	0xc6
 1722 05da 10       		.uleb128 0x10
 1723 05db E0000000 		.4byte	0xe0
 1724 05df 00       		.byte	0
 1725 05e0 06       		.uleb128 0x6
 1726 05e1 04       		.byte	0x4
 1727 05e2 CC050000 		.4byte	0x5cc
 1728 05e6 0B       		.uleb128 0xb
 1729 05e7 04       		.byte	0x4
 1730 05e8 0C       		.byte	0xc
 1731 05e9 51       		.byte	0x51
 1732 05ea FB050000 		.4byte	0x5fb
 1733 05ee 0A       		.uleb128 0xa
 1734 05ef 766D7400 		.ascii	"vmt\000"
 1735 05f3 0C       		.byte	0xc
 1736 05f4 53       		.byte	0x53
 1737 05f5 FB050000 		.4byte	0x5fb
 1738 05f9 00       		.byte	0
 1739 05fa 00       		.byte	0
 1740 05fb 06       		.uleb128 0x6
 1741 05fc 04       		.byte	0x4
 1742 05fd 01060000 		.4byte	0x601
 1743 0601 07       		.uleb128 0x7
 1744 0602 46050000 		.4byte	0x546
 1745 0606 02       		.uleb128 0x2
 1746 0607 0F030000 		.4byte	.LASF87
 1747 060b 0C       		.byte	0xc
 1748 060c 55       		.byte	0x55
 1749 060d E6050000 		.4byte	0x5e6
 1750 0611 0E       		.uleb128 0xe
 1751 0612 01010000 		.4byte	0x101
ARM GAS  /var/folders/6q/x_mk5n_j3p7_c40r_2k_78980000gn/T//cczQbSnP.s 			page 32


 1752 0616 14       		.uleb128 0x14
 1753 0617 1C       		.byte	0x1c
 1754 0618 0D       		.byte	0xd
 1755 0619 F803     		.2byte	0x3f8
 1756 061b 7B060000 		.4byte	0x67b
 1757 061f 0D       		.uleb128 0xd
 1758 0620 43524C00 		.ascii	"CRL\000"
 1759 0624 0D       		.byte	0xd
 1760 0625 FA03     		.2byte	0x3fa
 1761 0627 8E030000 		.4byte	0x38e
 1762 062b 00       		.byte	0
 1763 062c 0D       		.uleb128 0xd
 1764 062d 43524800 		.ascii	"CRH\000"
 1765 0631 0D       		.byte	0xd
 1766 0632 FB03     		.2byte	0x3fb
 1767 0634 8E030000 		.4byte	0x38e
 1768 0638 04       		.byte	0x4
 1769 0639 0D       		.uleb128 0xd
 1770 063a 49445200 		.ascii	"IDR\000"
 1771 063e 0D       		.byte	0xd
 1772 063f FC03     		.2byte	0x3fc
 1773 0641 8E030000 		.4byte	0x38e
 1774 0645 08       		.byte	0x8
 1775 0646 0D       		.uleb128 0xd
 1776 0647 4F445200 		.ascii	"ODR\000"
 1777 064b 0D       		.byte	0xd
 1778 064c FD03     		.2byte	0x3fd
 1779 064e 8E030000 		.4byte	0x38e
 1780 0652 0C       		.byte	0xc
 1781 0653 15       		.uleb128 0x15
 1782 0654 2C000000 		.4byte	.LASF88
 1783 0658 0D       		.byte	0xd
 1784 0659 FE03     		.2byte	0x3fe
 1785 065b 8E030000 		.4byte	0x38e
 1786 065f 10       		.byte	0x10
 1787 0660 0D       		.uleb128 0xd
 1788 0661 42525200 		.ascii	"BRR\000"
 1789 0665 0D       		.byte	0xd
 1790 0666 FF03     		.2byte	0x3ff
 1791 0668 8E030000 		.4byte	0x38e
 1792 066c 14       		.byte	0x14
 1793 066d 15       		.uleb128 0x15
 1794 066e 01060000 		.4byte	.LASF89
 1795 0672 0D       		.byte	0xd
 1796 0673 0004     		.2byte	0x400
 1797 0675 8E030000 		.4byte	0x38e
 1798 0679 18       		.byte	0x18
 1799 067a 00       		.byte	0
 1800 067b 16       		.uleb128 0x16
 1801 067c 90080000 		.4byte	.LASF90
 1802 0680 0D       		.byte	0xd
 1803 0681 0104     		.2byte	0x401
 1804 0683 16060000 		.4byte	0x616
 1805 0687 17       		.uleb128 0x17
 1806 0688 8E030000 		.4byte	0x38e
 1807 068c 97060000 		.4byte	0x697
 1808 0690 18       		.uleb128 0x18
ARM GAS  /var/folders/6q/x_mk5n_j3p7_c40r_2k_78980000gn/T//cczQbSnP.s 			page 33


 1809 0691 BF000000 		.4byte	0xbf
 1810 0695 03       		.byte	0x3
 1811 0696 00       		.byte	0
 1812 0697 02       		.uleb128 0x2
 1813 0698 F4020000 		.4byte	.LASF91
 1814 069c 0E       		.byte	0xe
 1815 069d 7A       		.byte	0x7a
 1816 069e A2060000 		.4byte	0x6a2
 1817 06a2 06       		.uleb128 0x6
 1818 06a3 04       		.byte	0x4
 1819 06a4 7B060000 		.4byte	0x67b
 1820 06a8 19       		.uleb128 0x19
 1821 06a9 01       		.byte	0x1
 1822 06aa 5E000000 		.4byte	0x5e
 1823 06ae 0F       		.byte	0xf
 1824 06af 4A       		.byte	0x4a
 1825 06b0 C7060000 		.4byte	0x6c7
 1826 06b4 1A       		.uleb128 0x1a
 1827 06b5 EB050000 		.4byte	.LASF92
 1828 06b9 00       		.byte	0
 1829 06ba 1A       		.uleb128 0x1a
 1830 06bb 9D080000 		.4byte	.LASF93
 1831 06bf 01       		.byte	0x1
 1832 06c0 1A       		.uleb128 0x1a
 1833 06c1 F6050000 		.4byte	.LASF94
 1834 06c5 02       		.byte	0x2
 1835 06c6 00       		.byte	0
 1836 06c7 02       		.uleb128 0x2
 1837 06c8 C8060000 		.4byte	.LASF95
 1838 06cc 0F       		.byte	0xf
 1839 06cd 4E       		.byte	0x4e
 1840 06ce A8060000 		.4byte	0x6a8
 1841 06d2 02       		.uleb128 0x2
 1842 06d3 3A010000 		.4byte	.LASF96
 1843 06d7 0F       		.byte	0xf
 1844 06d8 53       		.byte	0x53
 1845 06d9 DD060000 		.4byte	0x6dd
 1846 06dd 08       		.uleb128 0x8
 1847 06de 3A010000 		.4byte	.LASF96
 1848 06e2 08       		.byte	0x8
 1849 06e3 10       		.byte	0x10
 1850 06e4 71       		.byte	0x71
 1851 06e5 02070000 		.4byte	0x702
 1852 06e9 09       		.uleb128 0x9
 1853 06ea 13090000 		.4byte	.LASF97
 1854 06ee 10       		.byte	0x10
 1855 06ef 75       		.byte	0x75
 1856 06f0 C7060000 		.4byte	0x6c7
 1857 06f4 00       		.byte	0
 1858 06f5 09       		.uleb128 0x9
 1859 06f6 3F070000 		.4byte	.LASF98
 1860 06fa 10       		.byte	0x10
 1861 06fb 79       		.byte	0x79
 1862 06fc 8F070000 		.4byte	0x78f
 1863 0700 04       		.byte	0x4
 1864 0701 00       		.byte	0
 1865 0702 02       		.uleb128 0x2
ARM GAS  /var/folders/6q/x_mk5n_j3p7_c40r_2k_78980000gn/T//cczQbSnP.s 			page 34


 1866 0703 EB080000 		.4byte	.LASF99
 1867 0707 10       		.byte	0x10
 1868 0708 47       		.byte	0x47
 1869 0709 0C010000 		.4byte	0x10c
 1870 070d 02       		.uleb128 0x2
 1871 070e 3A050000 		.4byte	.LASF100
 1872 0712 10       		.byte	0x10
 1873 0713 4F       		.byte	0x4f
 1874 0714 18070000 		.4byte	0x718
 1875 0718 06       		.uleb128 0x6
 1876 0719 04       		.byte	0x4
 1877 071a 1E070000 		.4byte	0x71e
 1878 071e 0F       		.uleb128 0xf
 1879 071f 2E070000 		.4byte	0x72e
 1880 0723 10       		.uleb128 0x10
 1881 0724 2E070000 		.4byte	0x72e
 1882 0728 10       		.uleb128 0x10
 1883 0729 02070000 		.4byte	0x702
 1884 072d 00       		.byte	0
 1885 072e 06       		.uleb128 0x6
 1886 072f 04       		.byte	0x4
 1887 0730 D2060000 		.4byte	0x6d2
 1888 0734 0B       		.uleb128 0xb
 1889 0735 08       		.byte	0x8
 1890 0736 10       		.byte	0x10
 1891 0737 54       		.byte	0x54
 1892 0738 54070000 		.4byte	0x754
 1893 073c 09       		.uleb128 0x9
 1894 073d 35010000 		.4byte	.LASF101
 1895 0741 10       		.byte	0x10
 1896 0742 58       		.byte	0x58
 1897 0743 0C010000 		.4byte	0x10c
 1898 0747 00       		.byte	0
 1899 0748 0A       		.uleb128 0xa
 1900 0749 636200   		.ascii	"cb\000"
 1901 074c 10       		.byte	0x10
 1902 074d 5F       		.byte	0x5f
 1903 074e 0D070000 		.4byte	0x70d
 1904 0752 04       		.byte	0x4
 1905 0753 00       		.byte	0
 1906 0754 02       		.uleb128 0x2
 1907 0755 1F080000 		.4byte	.LASF102
 1908 0759 10       		.byte	0x10
 1909 075a 60       		.byte	0x60
 1910 075b 34070000 		.4byte	0x734
 1911 075f 0B       		.uleb128 0xb
 1912 0760 98       		.byte	0x98
 1913 0761 10       		.byte	0x10
 1914 0762 66       		.byte	0x66
 1915 0763 74070000 		.4byte	0x774
 1916 0767 09       		.uleb128 0x9
 1917 0768 6A050000 		.4byte	.LASF103
 1918 076c 10       		.byte	0x10
 1919 076d 6A       		.byte	0x6a
 1920 076e 74070000 		.4byte	0x774
 1921 0772 00       		.byte	0
 1922 0773 00       		.byte	0
ARM GAS  /var/folders/6q/x_mk5n_j3p7_c40r_2k_78980000gn/T//cczQbSnP.s 			page 35


 1923 0774 17       		.uleb128 0x17
 1924 0775 54070000 		.4byte	0x754
 1925 0779 84070000 		.4byte	0x784
 1926 077d 18       		.uleb128 0x18
 1927 077e BF000000 		.4byte	0xbf
 1928 0782 12       		.byte	0x12
 1929 0783 00       		.byte	0
 1930 0784 02       		.uleb128 0x2
 1931 0785 B0040000 		.4byte	.LASF104
 1932 0789 10       		.byte	0x10
 1933 078a 6C       		.byte	0x6c
 1934 078b 5F070000 		.4byte	0x75f
 1935 078f 06       		.uleb128 0x6
 1936 0790 04       		.byte	0x4
 1937 0791 95070000 		.4byte	0x795
 1938 0795 07       		.uleb128 0x7
 1939 0796 84070000 		.4byte	0x784
 1940 079a 19       		.uleb128 0x19
 1941 079b 01       		.byte	0x1
 1942 079c 5E000000 		.4byte	0x5e
 1943 07a0 11       		.byte	0x11
 1944 07a1 3C       		.byte	0x3c
 1945 07a2 C5070000 		.4byte	0x7c5
 1946 07a6 1A       		.uleb128 0x1a
 1947 07a7 4B080000 		.4byte	.LASF105
 1948 07ab 00       		.byte	0
 1949 07ac 1A       		.uleb128 0x1a
 1950 07ad FF000000 		.4byte	.LASF106
 1951 07b1 01       		.byte	0x1
 1952 07b2 1A       		.uleb128 0x1a
 1953 07b3 05030000 		.4byte	.LASF107
 1954 07b7 02       		.byte	0x2
 1955 07b8 1A       		.uleb128 0x1a
 1956 07b9 81040000 		.4byte	.LASF108
 1957 07bd 03       		.byte	0x3
 1958 07be 1A       		.uleb128 0x1a
 1959 07bf 99000000 		.4byte	.LASF109
 1960 07c3 04       		.byte	0x4
 1961 07c4 00       		.byte	0
 1962 07c5 02       		.uleb128 0x2
 1963 07c6 A6080000 		.4byte	.LASF110
 1964 07ca 11       		.byte	0x11
 1965 07cb 42       		.byte	0x42
 1966 07cc 9A070000 		.4byte	0x79a
 1967 07d0 02       		.uleb128 0x2
 1968 07d1 19090000 		.4byte	.LASF111
 1969 07d5 11       		.byte	0x11
 1970 07d6 47       		.byte	0x47
 1971 07d7 DB070000 		.4byte	0x7db
 1972 07db 0C       		.uleb128 0xc
 1973 07dc 19090000 		.4byte	.LASF111
 1974 07e0 10       		.byte	0x10
 1975 07e1 12       		.byte	0x12
 1976 07e2 9001     		.2byte	0x190
 1977 07e4 1D080000 		.4byte	0x81d
 1978 07e8 15       		.uleb128 0x15
 1979 07e9 13090000 		.4byte	.LASF97
ARM GAS  /var/folders/6q/x_mk5n_j3p7_c40r_2k_78980000gn/T//cczQbSnP.s 			page 36


 1980 07ed 12       		.byte	0x12
 1981 07ee 9401     		.2byte	0x194
 1982 07f0 C5070000 		.4byte	0x7c5
 1983 07f4 00       		.byte	0
 1984 07f5 15       		.uleb128 0x15
 1985 07f6 3F070000 		.4byte	.LASF98
 1986 07fa 12       		.byte	0x12
 1987 07fb 9801     		.2byte	0x198
 1988 07fd B2090000 		.4byte	0x9b2
 1989 0801 04       		.byte	0x4
 1990 0802 15       		.uleb128 0x15
 1991 0803 FF020000 		.4byte	.LASF112
 1992 0807 12       		.byte	0x12
 1993 0808 A001     		.2byte	0x1a0
 1994 080a 0C010000 		.4byte	0x10c
 1995 080e 08       		.byte	0x8
 1996 080f 0D       		.uleb128 0xd
 1997 0810 74696D00 		.ascii	"tim\000"
 1998 0814 12       		.byte	0x12
 1999 0815 A401     		.2byte	0x1a4
 2000 0817 BD090000 		.4byte	0x9bd
 2001 081b 0C       		.byte	0xc
 2002 081c 00       		.byte	0
 2003 081d 02       		.uleb128 0x2
 2004 081e A5000000 		.4byte	.LASF113
 2005 0822 11       		.byte	0x11
 2006 0823 4E       		.byte	0x4e
 2007 0824 28080000 		.4byte	0x828
 2008 0828 06       		.uleb128 0x6
 2009 0829 04       		.byte	0x4
 2010 082a 2E080000 		.4byte	0x82e
 2011 082e 0F       		.uleb128 0xf
 2012 082f 39080000 		.4byte	0x839
 2013 0833 10       		.uleb128 0x10
 2014 0834 39080000 		.4byte	0x839
 2015 0838 00       		.byte	0
 2016 0839 06       		.uleb128 0x6
 2017 083a 04       		.byte	0x4
 2018 083b D0070000 		.4byte	0x7d0
 2019 083f 14       		.uleb128 0x14
 2020 0840 60       		.byte	0x60
 2021 0841 13       		.byte	0x13
 2022 0842 9E01     		.2byte	0x19e
 2023 0844 58090000 		.4byte	0x958
 2024 0848 0D       		.uleb128 0xd
 2025 0849 43523100 		.ascii	"CR1\000"
 2026 084d 13       		.byte	0x13
 2027 084e 9F01     		.2byte	0x19f
 2028 0850 8E030000 		.4byte	0x38e
 2029 0854 00       		.byte	0
 2030 0855 0D       		.uleb128 0xd
 2031 0856 43523200 		.ascii	"CR2\000"
 2032 085a 13       		.byte	0x13
 2033 085b A001     		.2byte	0x1a0
 2034 085d 8E030000 		.4byte	0x38e
 2035 0861 04       		.byte	0x4
 2036 0862 15       		.uleb128 0x15
ARM GAS  /var/folders/6q/x_mk5n_j3p7_c40r_2k_78980000gn/T//cczQbSnP.s 			page 37


 2037 0863 23050000 		.4byte	.LASF114
 2038 0867 13       		.byte	0x13
 2039 0868 A101     		.2byte	0x1a1
 2040 086a 8E030000 		.4byte	0x38e
 2041 086e 08       		.byte	0x8
 2042 086f 15       		.uleb128 0x15
 2043 0870 D9020000 		.4byte	.LASF115
 2044 0874 13       		.byte	0x13
 2045 0875 A201     		.2byte	0x1a2
 2046 0877 8E030000 		.4byte	0x38e
 2047 087b 0C       		.byte	0xc
 2048 087c 0D       		.uleb128 0xd
 2049 087d 535200   		.ascii	"SR\000"
 2050 0880 13       		.byte	0x13
 2051 0881 A301     		.2byte	0x1a3
 2052 0883 8E030000 		.4byte	0x38e
 2053 0887 10       		.byte	0x10
 2054 0888 0D       		.uleb128 0xd
 2055 0889 45475200 		.ascii	"EGR\000"
 2056 088d 13       		.byte	0x13
 2057 088e A401     		.2byte	0x1a4
 2058 0890 8E030000 		.4byte	0x38e
 2059 0894 14       		.byte	0x14
 2060 0895 15       		.uleb128 0x15
 2061 0896 00020000 		.4byte	.LASF116
 2062 089a 13       		.byte	0x13
 2063 089b A501     		.2byte	0x1a5
 2064 089d 8E030000 		.4byte	0x38e
 2065 08a1 18       		.byte	0x18
 2066 08a2 15       		.uleb128 0x15
 2067 08a3 06020000 		.4byte	.LASF117
 2068 08a7 13       		.byte	0x13
 2069 08a8 A601     		.2byte	0x1a6
 2070 08aa 8E030000 		.4byte	0x38e
 2071 08ae 1C       		.byte	0x1c
 2072 08af 15       		.uleb128 0x15
 2073 08b0 59030000 		.4byte	.LASF118
 2074 08b4 13       		.byte	0x13
 2075 08b5 A701     		.2byte	0x1a7
 2076 08b7 8E030000 		.4byte	0x38e
 2077 08bb 20       		.byte	0x20
 2078 08bc 0D       		.uleb128 0xd
 2079 08bd 434E5400 		.ascii	"CNT\000"
 2080 08c1 13       		.byte	0x13
 2081 08c2 A801     		.2byte	0x1a8
 2082 08c4 8E030000 		.4byte	0x38e
 2083 08c8 24       		.byte	0x24
 2084 08c9 0D       		.uleb128 0xd
 2085 08ca 50534300 		.ascii	"PSC\000"
 2086 08ce 13       		.byte	0x13
 2087 08cf A901     		.2byte	0x1a9
 2088 08d1 8E030000 		.4byte	0x38e
 2089 08d5 28       		.byte	0x28
 2090 08d6 0D       		.uleb128 0xd
 2091 08d7 41525200 		.ascii	"ARR\000"
 2092 08db 13       		.byte	0x13
 2093 08dc AA01     		.2byte	0x1aa
ARM GAS  /var/folders/6q/x_mk5n_j3p7_c40r_2k_78980000gn/T//cczQbSnP.s 			page 38


 2094 08de 8E030000 		.4byte	0x38e
 2095 08e2 2C       		.byte	0x2c
 2096 08e3 0D       		.uleb128 0xd
 2097 08e4 52435200 		.ascii	"RCR\000"
 2098 08e8 13       		.byte	0x13
 2099 08e9 AB01     		.2byte	0x1ab
 2100 08eb 8E030000 		.4byte	0x38e
 2101 08ef 30       		.byte	0x30
 2102 08f0 0D       		.uleb128 0xd
 2103 08f1 43435200 		.ascii	"CCR\000"
 2104 08f5 13       		.byte	0x13
 2105 08f6 AC01     		.2byte	0x1ac
 2106 08f8 58090000 		.4byte	0x958
 2107 08fc 34       		.byte	0x34
 2108 08fd 15       		.uleb128 0x15
 2109 08fe 9E010000 		.4byte	.LASF119
 2110 0902 13       		.byte	0x13
 2111 0903 AD01     		.2byte	0x1ad
 2112 0905 8E030000 		.4byte	0x38e
 2113 0909 44       		.byte	0x44
 2114 090a 0D       		.uleb128 0xd
 2115 090b 44435200 		.ascii	"DCR\000"
 2116 090f 13       		.byte	0x13
 2117 0910 AE01     		.2byte	0x1ae
 2118 0912 8E030000 		.4byte	0x38e
 2119 0916 48       		.byte	0x48
 2120 0917 15       		.uleb128 0x15
 2121 0918 FD070000 		.4byte	.LASF120
 2122 091c 13       		.byte	0x13
 2123 091d AF01     		.2byte	0x1af
 2124 091f 8E030000 		.4byte	0x38e
 2125 0923 4C       		.byte	0x4c
 2126 0924 0D       		.uleb128 0xd
 2127 0925 4F5200   		.ascii	"OR\000"
 2128 0928 13       		.byte	0x13
 2129 0929 B001     		.2byte	0x1b0
 2130 092b 8E030000 		.4byte	0x38e
 2131 092f 50       		.byte	0x50
 2132 0930 15       		.uleb128 0x15
 2133 0931 0C020000 		.4byte	.LASF121
 2134 0935 13       		.byte	0x13
 2135 0936 B101     		.2byte	0x1b1
 2136 0938 8E030000 		.4byte	0x38e
 2137 093c 54       		.byte	0x54
 2138 093d 15       		.uleb128 0x15
 2139 093e F6010000 		.4byte	.LASF122
 2140 0942 13       		.byte	0x13
 2141 0943 B201     		.2byte	0x1b2
 2142 0945 8E030000 		.4byte	0x38e
 2143 0949 58       		.byte	0x58
 2144 094a 15       		.uleb128 0x15
 2145 094b FB010000 		.4byte	.LASF123
 2146 094f 13       		.byte	0x13
 2147 0950 B301     		.2byte	0x1b3
 2148 0952 8E030000 		.4byte	0x38e
 2149 0956 5C       		.byte	0x5c
 2150 0957 00       		.byte	0
ARM GAS  /var/folders/6q/x_mk5n_j3p7_c40r_2k_78980000gn/T//cczQbSnP.s 			page 39


 2151 0958 0E       		.uleb128 0xe
 2152 0959 87060000 		.4byte	0x687
 2153 095d 16       		.uleb128 0x16
 2154 095e 89020000 		.4byte	.LASF124
 2155 0962 13       		.byte	0x13
 2156 0963 B401     		.2byte	0x1b4
 2157 0965 3F080000 		.4byte	0x83f
 2158 0969 16       		.uleb128 0x16
 2159 096a 24030000 		.4byte	.LASF125
 2160 096e 12       		.byte	0x12
 2161 096f 6D01     		.2byte	0x16d
 2162 0971 0C010000 		.4byte	0x10c
 2163 0975 14       		.uleb128 0x14
 2164 0976 0C       		.byte	0xc
 2165 0977 12       		.byte	0x12
 2166 0978 7801     		.2byte	0x178
 2167 097a A6090000 		.4byte	0x9a6
 2168 097e 15       		.uleb128 0x15
 2169 097f 92090000 		.4byte	.LASF126
 2170 0983 12       		.byte	0x12
 2171 0984 7E01     		.2byte	0x17e
 2172 0986 69090000 		.4byte	0x969
 2173 098a 00       		.byte	0
 2174 098b 15       		.uleb128 0x15
 2175 098c D8090000 		.4byte	.LASF127
 2176 0990 12       		.byte	0x12
 2177 0991 8301     		.2byte	0x183
 2178 0993 1D080000 		.4byte	0x81d
 2179 0997 04       		.byte	0x4
 2180 0998 15       		.uleb128 0x15
 2181 0999 E6050000 		.4byte	.LASF128
 2182 099d 12       		.byte	0x12
 2183 099e 8A01     		.2byte	0x18a
 2184 09a0 0C010000 		.4byte	0x10c
 2185 09a4 08       		.byte	0x8
 2186 09a5 00       		.byte	0
 2187 09a6 16       		.uleb128 0x16
 2188 09a7 16010000 		.4byte	.LASF129
 2189 09ab 12       		.byte	0x12
 2190 09ac 8B01     		.2byte	0x18b
 2191 09ae 75090000 		.4byte	0x975
 2192 09b2 06       		.uleb128 0x6
 2193 09b3 04       		.byte	0x4
 2194 09b4 B8090000 		.4byte	0x9b8
 2195 09b8 07       		.uleb128 0x7
 2196 09b9 A6090000 		.4byte	0x9a6
 2197 09bd 06       		.uleb128 0x6
 2198 09be 04       		.byte	0x4
 2199 09bf 5D090000 		.4byte	0x95d
 2200 09c3 02       		.uleb128 0x2
 2201 09c4 B3000000 		.4byte	.LASF130
 2202 09c8 14       		.byte	0x14
 2203 09c9 39       		.byte	0x39
 2204 09ca 06060000 		.4byte	0x606
 2205 09ce 19       		.uleb128 0x19
 2206 09cf 01       		.byte	0x1
 2207 09d0 4C000000 		.4byte	0x4c
ARM GAS  /var/folders/6q/x_mk5n_j3p7_c40r_2k_78980000gn/T//cczQbSnP.s 			page 40


 2208 09d4 15       		.byte	0x15
 2209 09d5 8D       		.byte	0x8d
 2210 09d6 2F0A0000 		.4byte	0xa2f
 2211 09da 1B       		.uleb128 0x1b
 2212 09db 7A080000 		.4byte	.LASF131
 2213 09df 7F       		.sleb128 -1
 2214 09e0 1A       		.uleb128 0x1a
 2215 09e1 22060000 		.4byte	.LASF132
 2216 09e5 00       		.byte	0
 2217 09e6 1A       		.uleb128 0x1a
 2218 09e7 6D020000 		.4byte	.LASF133
 2219 09eb 01       		.byte	0x1
 2220 09ec 1A       		.uleb128 0x1a
 2221 09ed 41060000 		.4byte	.LASF134
 2222 09f1 02       		.byte	0x2
 2223 09f2 1A       		.uleb128 0x1a
 2224 09f3 4F060000 		.4byte	.LASF135
 2225 09f7 03       		.byte	0x3
 2226 09f8 1A       		.uleb128 0x1a
 2227 09f9 5D060000 		.4byte	.LASF136
 2228 09fd 04       		.byte	0x4
 2229 09fe 1A       		.uleb128 0x1a
 2230 09ff 6B060000 		.4byte	.LASF137
 2231 0a03 05       		.byte	0x5
 2232 0a04 1A       		.uleb128 0x1a
 2233 0a05 79060000 		.4byte	.LASF138
 2234 0a09 06       		.byte	0x6
 2235 0a0a 1A       		.uleb128 0x1a
 2236 0a0b 87060000 		.4byte	.LASF139
 2237 0a0f 07       		.byte	0x7
 2238 0a10 1A       		.uleb128 0x1a
 2239 0a11 95060000 		.4byte	.LASF140
 2240 0a15 08       		.byte	0x8
 2241 0a16 1A       		.uleb128 0x1a
 2242 0a17 85050000 		.4byte	.LASF141
 2243 0a1b 09       		.byte	0x9
 2244 0a1c 1A       		.uleb128 0x1a
 2245 0a1d 94050000 		.4byte	.LASF142
 2246 0a21 0A       		.byte	0xa
 2247 0a22 1A       		.uleb128 0x1a
 2248 0a23 64010000 		.4byte	.LASF143
 2249 0a27 0B       		.byte	0xb
 2250 0a28 1A       		.uleb128 0x1a
 2251 0a29 D1010000 		.4byte	.LASF144
 2252 0a2d 0C       		.byte	0xc
 2253 0a2e 00       		.byte	0
 2254 0a2f 02       		.uleb128 0x2
 2255 0a30 49010000 		.4byte	.LASF145
 2256 0a34 15       		.byte	0x15
 2257 0a35 9D       		.byte	0x9d
 2258 0a36 CE090000 		.4byte	0x9ce
 2259 0a3a 19       		.uleb128 0x19
 2260 0a3b 01       		.byte	0x1
 2261 0a3c 5E000000 		.4byte	0x5e
 2262 0a40 15       		.byte	0x15
 2263 0a41 A2       		.byte	0xa2
 2264 0a42 530A0000 		.4byte	0xa53
ARM GAS  /var/folders/6q/x_mk5n_j3p7_c40r_2k_78980000gn/T//cczQbSnP.s 			page 41


 2265 0a46 1A       		.uleb128 0x1a
 2266 0a47 2F0A0000 		.4byte	.LASF146
 2267 0a4b 00       		.byte	0
 2268 0a4c 1A       		.uleb128 0x1a
 2269 0a4d C3050000 		.4byte	.LASF147
 2270 0a51 01       		.byte	0x1
 2271 0a52 00       		.byte	0
 2272 0a53 02       		.uleb128 0x2
 2273 0a54 DE020000 		.4byte	.LASF148
 2274 0a58 15       		.byte	0x15
 2275 0a59 A5       		.byte	0xa5
 2276 0a5a 3A0A0000 		.4byte	0xa3a
 2277 0a5e 08       		.uleb128 0x8
 2278 0a5f 20010000 		.4byte	.LASF149
 2279 0a63 0C       		.byte	0xc
 2280 0a64 15       		.byte	0x15
 2281 0a65 B2       		.byte	0xb2
 2282 0a66 9B0A0000 		.4byte	0xa9b
 2283 0a6a 09       		.uleb128 0x9
 2284 0a6b 0E090000 		.4byte	.LASF150
 2285 0a6f 15       		.byte	0x15
 2286 0a70 B3       		.byte	0xb3
 2287 0a71 97060000 		.4byte	0x697
 2288 0a75 00       		.byte	0
 2289 0a76 0A       		.uleb128 0xa
 2290 0a77 70616400 		.ascii	"pad\000"
 2291 0a7b 15       		.byte	0x15
 2292 0a7c B4       		.byte	0xb4
 2293 0a7d EB000000 		.4byte	0xeb
 2294 0a81 04       		.byte	0x4
 2295 0a82 09       		.uleb128 0x9
 2296 0a83 35010000 		.4byte	.LASF101
 2297 0a87 15       		.byte	0x15
 2298 0a88 B5       		.byte	0xb5
 2299 0a89 530A0000 		.4byte	0xa53
 2300 0a8d 06       		.byte	0x6
 2301 0a8e 09       		.uleb128 0x9
 2302 0a8f 63020000 		.4byte	.LASF151
 2303 0a93 15       		.byte	0x15
 2304 0a94 B6       		.byte	0xb6
 2305 0a95 01010000 		.4byte	0x101
 2306 0a99 08       		.byte	0x8
 2307 0a9a 00       		.byte	0
 2308 0a9b 02       		.uleb128 0x2
 2309 0a9c C7000000 		.4byte	.LASF152
 2310 0aa0 15       		.byte	0x15
 2311 0aa1 B7       		.byte	0xb7
 2312 0aa2 5E0A0000 		.4byte	0xa5e
 2313 0aa6 19       		.uleb128 0x19
 2314 0aa7 01       		.byte	0x1
 2315 0aa8 5E000000 		.4byte	0x5e
 2316 0aac 16       		.byte	0x16
 2317 0aad 39       		.byte	0x39
 2318 0aae D70A0000 		.4byte	0xad7
 2319 0ab2 1A       		.uleb128 0x1a
 2320 0ab3 9C090000 		.4byte	.LASF153
 2321 0ab7 00       		.byte	0
ARM GAS  /var/folders/6q/x_mk5n_j3p7_c40r_2k_78980000gn/T//cczQbSnP.s 			page 42


 2322 0ab8 1A       		.uleb128 0x1a
 2323 0ab9 A8090000 		.4byte	.LASF154
 2324 0abd 01       		.byte	0x1
 2325 0abe 1A       		.uleb128 0x1a
 2326 0abf B4090000 		.4byte	.LASF155
 2327 0ac3 02       		.byte	0x2
 2328 0ac4 1A       		.uleb128 0x1a
 2329 0ac5 C0090000 		.4byte	.LASF156
 2330 0ac9 03       		.byte	0x3
 2331 0aca 1A       		.uleb128 0x1a
 2332 0acb CC090000 		.4byte	.LASF157
 2333 0acf 04       		.byte	0x4
 2334 0ad0 1A       		.uleb128 0x1a
 2335 0ad1 95020000 		.4byte	.LASF158
 2336 0ad5 05       		.byte	0x5
 2337 0ad6 00       		.byte	0
 2338 0ad7 02       		.uleb128 0x2
 2339 0ad8 30060000 		.4byte	.LASF159
 2340 0adc 16       		.byte	0x16
 2341 0add 41       		.byte	0x41
 2342 0ade A60A0000 		.4byte	0xaa6
 2343 0ae2 08       		.uleb128 0x8
 2344 0ae3 11070000 		.4byte	.LASF160
 2345 0ae7 20       		.byte	0x20
 2346 0ae8 16       		.byte	0x16
 2347 0ae9 4C       		.byte	0x4c
 2348 0aea 7D0B0000 		.4byte	0xb7d
 2349 0aee 09       		.uleb128 0x9
 2350 0aef E0040000 		.4byte	.LASF161
 2351 0af3 16       		.byte	0x16
 2352 0af4 4D       		.byte	0x4d
 2353 0af5 F6000000 		.4byte	0xf6
 2354 0af9 00       		.byte	0
 2355 0afa 09       		.uleb128 0x9
 2356 0afb BA040000 		.4byte	.LASF162
 2357 0aff 16       		.byte	0x16
 2358 0b00 4E       		.byte	0x4e
 2359 0b01 F6000000 		.4byte	0xf6
 2360 0b05 02       		.byte	0x2
 2361 0b06 09       		.uleb128 0x9
 2362 0b07 56020000 		.4byte	.LASF163
 2363 0b0b 16       		.byte	0x16
 2364 0b0c 4F       		.byte	0x4f
 2365 0b0d 01010000 		.4byte	0x101
 2366 0b11 04       		.byte	0x4
 2367 0b12 09       		.uleb128 0x9
 2368 0b13 84010000 		.4byte	.LASF164
 2369 0b17 16       		.byte	0x16
 2370 0b18 50       		.byte	0x50
 2371 0b19 EB000000 		.4byte	0xeb
 2372 0b1d 08       		.byte	0x8
 2373 0b1e 09       		.uleb128 0x9
 2374 0b1f 940A0000 		.4byte	.LASF165
 2375 0b23 16       		.byte	0x16
 2376 0b24 51       		.byte	0x51
 2377 0b25 EB000000 		.4byte	0xeb
 2378 0b29 0A       		.byte	0xa
ARM GAS  /var/folders/6q/x_mk5n_j3p7_c40r_2k_78980000gn/T//cczQbSnP.s 			page 43


 2379 0b2a 09       		.uleb128 0x9
 2380 0b2b 4D000000 		.4byte	.LASF166
 2381 0b2f 16       		.byte	0x16
 2382 0b30 52       		.byte	0x52
 2383 0b31 EB000000 		.4byte	0xeb
 2384 0b35 0C       		.byte	0xc
 2385 0b36 0A       		.uleb128 0xa
 2386 0b37 706100   		.ascii	"pa\000"
 2387 0b3a 16       		.byte	0x16
 2388 0b3b 53       		.byte	0x53
 2389 0b3c 2F0A0000 		.4byte	0xa2f
 2390 0b40 0E       		.byte	0xe
 2391 0b41 0A       		.uleb128 0xa
 2392 0b42 706200   		.ascii	"pb\000"
 2393 0b45 16       		.byte	0x16
 2394 0b46 54       		.byte	0x54
 2395 0b47 2F0A0000 		.4byte	0xa2f
 2396 0b4b 0F       		.byte	0xf
 2397 0b4c 09       		.uleb128 0x9
 2398 0b4d 23090000 		.4byte	.LASF167
 2399 0b51 16       		.byte	0x16
 2400 0b52 55       		.byte	0x55
 2401 0b53 97060000 		.4byte	0x697
 2402 0b57 10       		.byte	0x10
 2403 0b58 09       		.uleb128 0x9
 2404 0b59 90010000 		.4byte	.LASF168
 2405 0b5d 16       		.byte	0x16
 2406 0b5e 56       		.byte	0x56
 2407 0b5f EB000000 		.4byte	0xeb
 2408 0b63 14       		.byte	0x14
 2409 0b64 09       		.uleb128 0x9
 2410 0b65 D1020000 		.4byte	.LASF169
 2411 0b69 16       		.byte	0x16
 2412 0b6a 57       		.byte	0x57
 2413 0b6b 97060000 		.4byte	0x697
 2414 0b6f 18       		.byte	0x18
 2415 0b70 09       		.uleb128 0x9
 2416 0b71 6C090000 		.4byte	.LASF170
 2417 0b75 16       		.byte	0x16
 2418 0b76 58       		.byte	0x58
 2419 0b77 EB000000 		.4byte	0xeb
 2420 0b7b 1C       		.byte	0x1c
 2421 0b7c 00       		.byte	0
 2422 0b7d 02       		.uleb128 0x2
 2423 0b7e 08050000 		.4byte	.LASF171
 2424 0b82 16       		.byte	0x16
 2425 0b83 59       		.byte	0x59
 2426 0b84 E20A0000 		.4byte	0xae2
 2427 0b88 19       		.uleb128 0x19
 2428 0b89 01       		.byte	0x1
 2429 0b8a 5E000000 		.4byte	0x5e
 2430 0b8e 17       		.byte	0x17
 2431 0b8f 46       		.byte	0x46
 2432 0b90 D10B0000 		.4byte	0xbd1
 2433 0b94 1A       		.uleb128 0x1a
 2434 0b95 46070000 		.4byte	.LASF172
 2435 0b99 00       		.byte	0
ARM GAS  /var/folders/6q/x_mk5n_j3p7_c40r_2k_78980000gn/T//cczQbSnP.s 			page 44


 2436 0b9a 1A       		.uleb128 0x1a
 2437 0b9b 54070000 		.4byte	.LASF173
 2438 0b9f 01       		.byte	0x1
 2439 0ba0 1A       		.uleb128 0x1a
 2440 0ba1 62070000 		.4byte	.LASF174
 2441 0ba5 02       		.byte	0x2
 2442 0ba6 1A       		.uleb128 0x1a
 2443 0ba7 70070000 		.4byte	.LASF175
 2444 0bab 03       		.byte	0x3
 2445 0bac 1A       		.uleb128 0x1a
 2446 0bad 7E070000 		.4byte	.LASF176
 2447 0bb1 04       		.byte	0x4
 2448 0bb2 1A       		.uleb128 0x1a
 2449 0bb3 8C070000 		.4byte	.LASF177
 2450 0bb7 05       		.byte	0x5
 2451 0bb8 1A       		.uleb128 0x1a
 2452 0bb9 9A070000 		.4byte	.LASF178
 2453 0bbd 06       		.byte	0x6
 2454 0bbe 1A       		.uleb128 0x1a
 2455 0bbf A8070000 		.4byte	.LASF179
 2456 0bc3 07       		.byte	0x7
 2457 0bc4 1A       		.uleb128 0x1a
 2458 0bc5 3F030000 		.4byte	.LASF180
 2459 0bc9 08       		.byte	0x8
 2460 0bca 1A       		.uleb128 0x1a
 2461 0bcb 02080000 		.4byte	.LASF181
 2462 0bcf 63       		.byte	0x63
 2463 0bd0 00       		.byte	0
 2464 0bd1 06       		.uleb128 0x6
 2465 0bd2 04       		.byte	0x4
 2466 0bd3 C3090000 		.4byte	0x9c3
 2467 0bd7 06       		.uleb128 0x6
 2468 0bd8 04       		.byte	0x4
 2469 0bd9 C8000000 		.4byte	0xc8
 2470 0bdd 19       		.uleb128 0x19
 2471 0bde 01       		.byte	0x1
 2472 0bdf 5E000000 		.4byte	0x5e
 2473 0be3 01       		.byte	0x1
 2474 0be4 3E       		.byte	0x3e
 2475 0be5 020C0000 		.4byte	0xc02
 2476 0be9 1A       		.uleb128 0x1a
 2477 0bea 15000000 		.4byte	.LASF182
 2478 0bee 00       		.byte	0
 2479 0bef 1A       		.uleb128 0x1a
 2480 0bf0 82090000 		.4byte	.LASF183
 2481 0bf4 01       		.byte	0x1
 2482 0bf5 1A       		.uleb128 0x1a
 2483 0bf6 13050000 		.4byte	.LASF184
 2484 0bfa 02       		.byte	0x2
 2485 0bfb 1A       		.uleb128 0x1a
 2486 0bfc 7C0A0000 		.4byte	.LASF185
 2487 0c00 03       		.byte	0x3
 2488 0c01 00       		.byte	0
 2489 0c02 02       		.uleb128 0x2
 2490 0c03 49030000 		.4byte	.LASF186
 2491 0c07 01       		.byte	0x1
 2492 0c08 43       		.byte	0x43
ARM GAS  /var/folders/6q/x_mk5n_j3p7_c40r_2k_78980000gn/T//cczQbSnP.s 			page 45


 2493 0c09 DD0B0000 		.4byte	0xbdd
 2494 0c0d 1C       		.uleb128 0x1c
 2495 0c0e F8080000 		.4byte	.LASF230
 2496 0c12 01       		.byte	0x1
 2497 0c13 0601     		.2byte	0x106
 2498 0c15 01       		.byte	0x1
 2499 0c16 270C0000 		.4byte	0xc27
 2500 0c1a 1D       		.uleb128 0x1d
 2501 0c1b 37070000 		.4byte	.LASF188
 2502 0c1f 01       		.byte	0x1
 2503 0c20 0601     		.2byte	0x106
 2504 0c22 D70A0000 		.4byte	0xad7
 2505 0c26 00       		.byte	0
 2506 0c27 1E       		.uleb128 0x1e
 2507 0c28 58010000 		.4byte	.LASF189
 2508 0c2c 01       		.byte	0x1
 2509 0c2d C9       		.byte	0xc9
 2510 0c2e 00000000 		.4byte	.LFB65
 2511 0c32 5C000000 		.4byte	.LFE65-.LFB65
 2512 0c36 01       		.uleb128 0x1
 2513 0c37 9C       		.byte	0x9c
 2514 0c38 890C0000 		.4byte	0xc89
 2515 0c3c 1F       		.uleb128 0x1f
 2516 0c3d 44010000 		.4byte	.LASF187
 2517 0c41 01       		.byte	0x1
 2518 0c42 C9       		.byte	0xc9
 2519 0c43 2E070000 		.4byte	0x72e
 2520 0c47 00000000 		.4byte	.LLST0
 2521 0c4b 1F       		.uleb128 0x1f
 2522 0c4c 37070000 		.4byte	.LASF188
 2523 0c50 01       		.byte	0x1
 2524 0c51 C9       		.byte	0xc9
 2525 0c52 02070000 		.4byte	0x702
 2526 0c56 21000000 		.4byte	.LLST1
 2527 0c5a 20       		.uleb128 0x20
 2528 0c5b 02000000 		.4byte	.LBB4
 2529 0c5f 06000000 		.4byte	.LBE4-.LBB4
 2530 0c63 750C0000 		.4byte	0xc75
 2531 0c67 21       		.uleb128 0x21
 2532 0c68 746D7000 		.ascii	"tmp\000"
 2533 0c6c 01       		.byte	0x1
 2534 0c6d CE       		.byte	0xce
 2535 0c6e 0C010000 		.4byte	0x10c
 2536 0c72 01       		.uleb128 0x1
 2537 0c73 53       		.byte	0x53
 2538 0c74 00       		.byte	0
 2539 0c75 22       		.uleb128 0x22
 2540 0c76 00000000 		.4byte	.Ldebug_ranges0+0
 2541 0c7a 21       		.uleb128 0x21
 2542 0c7b 746D7000 		.ascii	"tmp\000"
 2543 0c7f 01       		.byte	0x1
 2544 0c80 D8       		.byte	0xd8
 2545 0c81 0C010000 		.4byte	0x10c
 2546 0c85 01       		.uleb128 0x1
 2547 0c86 53       		.byte	0x53
 2548 0c87 00       		.byte	0
 2549 0c88 00       		.byte	0
ARM GAS  /var/folders/6q/x_mk5n_j3p7_c40r_2k_78980000gn/T//cczQbSnP.s 			page 46


 2550 0c89 1E       		.uleb128 0x1e
 2551 0c8a E1090000 		.4byte	.LASF190
 2552 0c8e 01       		.byte	0x1
 2553 0c8f 5E       		.byte	0x5e
 2554 0c90 00000000 		.4byte	.LFB63
 2555 0c94 74000000 		.4byte	.LFE63-.LFB63
 2556 0c98 01       		.uleb128 0x1
 2557 0c99 9C       		.byte	0x9c
 2558 0c9a FA0C0000 		.4byte	0xcfa
 2559 0c9e 1F       		.uleb128 0x1f
 2560 0c9f 7D090000 		.4byte	.LASF191
 2561 0ca3 01       		.byte	0x1
 2562 0ca4 5E       		.byte	0x5e
 2563 0ca5 39080000 		.4byte	0x839
 2564 0ca9 42000000 		.4byte	.LLST2
 2565 0cad 20       		.uleb128 0x20
 2566 0cae 02000000 		.4byte	.LBB7
 2567 0cb2 06000000 		.4byte	.LBE7-.LBB7
 2568 0cb6 C80C0000 		.4byte	0xcc8
 2569 0cba 21       		.uleb128 0x21
 2570 0cbb 746D7000 		.ascii	"tmp\000"
 2571 0cbf 01       		.byte	0x1
 2572 0cc0 62       		.byte	0x62
 2573 0cc1 0C010000 		.4byte	0x10c
 2574 0cc5 01       		.uleb128 0x1
 2575 0cc6 53       		.byte	0x53
 2576 0cc7 00       		.byte	0
 2577 0cc8 23       		.uleb128 0x23
 2578 0cc9 18000000 		.4byte	.Ldebug_ranges0+0x18
 2579 0ccd DF0C0000 		.4byte	0xcdf
 2580 0cd1 21       		.uleb128 0x21
 2581 0cd2 746D7000 		.ascii	"tmp\000"
 2582 0cd6 01       		.byte	0x1
 2583 0cd7 72       		.byte	0x72
 2584 0cd8 0C010000 		.4byte	0x10c
 2585 0cdc 01       		.uleb128 0x1
 2586 0cdd 53       		.byte	0x53
 2587 0cde 00       		.byte	0
 2588 0cdf 24       		.uleb128 0x24
 2589 0ce0 50000000 		.4byte	.LVL7
 2590 0ce4 01110000 		.4byte	0x1101
 2591 0ce8 25       		.uleb128 0x25
 2592 0ce9 5A000000 		.4byte	.LVL8
 2593 0ced 0C110000 		.4byte	0x110c
 2594 0cf1 26       		.uleb128 0x26
 2595 0cf2 01       		.uleb128 0x1
 2596 0cf3 51       		.byte	0x51
 2597 0cf4 03       		.uleb128 0x3
 2598 0cf5 0A       		.byte	0xa
 2599 0cf6 409C     		.2byte	0x9c40
 2600 0cf8 00       		.byte	0
 2601 0cf9 00       		.byte	0
 2602 0cfa 27       		.uleb128 0x27
 2603 0cfb 55090000 		.4byte	.LASF192
 2604 0cff 01       		.byte	0x1
 2605 0d00 E3       		.byte	0xe3
 2606 0d01 00000000 		.4byte	.LFB66
ARM GAS  /var/folders/6q/x_mk5n_j3p7_c40r_2k_78980000gn/T//cczQbSnP.s 			page 47


 2607 0d05 78000000 		.4byte	.LFE66-.LFB66
 2608 0d09 01       		.uleb128 0x1
 2609 0d0a 9C       		.byte	0x9c
 2610 0d0b 8B0D0000 		.4byte	0xd8b
 2611 0d0f 1F       		.uleb128 0x1f
 2612 0d10 37070000 		.4byte	.LASF188
 2613 0d14 01       		.byte	0x1
 2614 0d15 E3       		.byte	0xe3
 2615 0d16 D70A0000 		.4byte	0xad7
 2616 0d1a 7C000000 		.4byte	.LLST3
 2617 0d1e 28       		.uleb128 0x28
 2618 0d1f 706100   		.ascii	"pa\000"
 2619 0d22 01       		.byte	0x1
 2620 0d23 E3       		.byte	0xe3
 2621 0d24 2F0A0000 		.4byte	0xa2f
 2622 0d28 9D000000 		.4byte	.LLST4
 2623 0d2c 28       		.uleb128 0x28
 2624 0d2d 706200   		.ascii	"pb\000"
 2625 0d30 01       		.byte	0x1
 2626 0d31 E3       		.byte	0xe3
 2627 0d32 2F0A0000 		.4byte	0xa2f
 2628 0d36 BE000000 		.4byte	.LLST5
 2629 0d3a 29       		.uleb128 0x29
 2630 0d3b 1E000000 		.4byte	.LVL12
 2631 0d3f 17110000 		.4byte	0x1117
 2632 0d43 530D0000 		.4byte	0xd53
 2633 0d47 26       		.uleb128 0x26
 2634 0d48 01       		.uleb128 0x1
 2635 0d49 50       		.byte	0x50
 2636 0d4a 02       		.uleb128 0x2
 2637 0d4b 75       		.byte	0x75
 2638 0d4c 00       		.sleb128 0
 2639 0d4d 26       		.uleb128 0x26
 2640 0d4e 01       		.uleb128 0x1
 2641 0d4f 51       		.byte	0x51
 2642 0d50 01       		.uleb128 0x1
 2643 0d51 31       		.byte	0x31
 2644 0d52 00       		.byte	0
 2645 0d53 29       		.uleb128 0x29
 2646 0d54 40000000 		.4byte	.LVL13
 2647 0d58 17110000 		.4byte	0x1117
 2648 0d5c 6C0D0000 		.4byte	0xd6c
 2649 0d60 26       		.uleb128 0x26
 2650 0d61 01       		.uleb128 0x1
 2651 0d62 50       		.byte	0x50
 2652 0d63 02       		.uleb128 0x2
 2653 0d64 76       		.byte	0x76
 2654 0d65 00       		.sleb128 0
 2655 0d66 26       		.uleb128 0x26
 2656 0d67 01       		.uleb128 0x1
 2657 0d68 51       		.byte	0x51
 2658 0d69 01       		.uleb128 0x1
 2659 0d6a 30       		.byte	0x30
 2660 0d6b 00       		.byte	0
 2661 0d6c 25       		.uleb128 0x25
 2662 0d6d 64000000 		.4byte	.LVL14
 2663 0d71 22110000 		.4byte	0x1122
ARM GAS  /var/folders/6q/x_mk5n_j3p7_c40r_2k_78980000gn/T//cczQbSnP.s 			page 48


 2664 0d75 26       		.uleb128 0x26
 2665 0d76 01       		.uleb128 0x1
 2666 0d77 50       		.byte	0x50
 2667 0d78 02       		.uleb128 0x2
 2668 0d79 75       		.byte	0x75
 2669 0d7a 00       		.sleb128 0
 2670 0d7b 26       		.uleb128 0x26
 2671 0d7c 01       		.uleb128 0x1
 2672 0d7d 52       		.byte	0x52
 2673 0d7e 01       		.uleb128 0x1
 2674 0d7f 33       		.byte	0x33
 2675 0d80 26       		.uleb128 0x26
 2676 0d81 01       		.uleb128 0x1
 2677 0d82 53       		.byte	0x53
 2678 0d83 05       		.uleb128 0x5
 2679 0d84 03       		.byte	0x3
 2680 0d85 00000000 		.4byte	_vs_echo_cb
 2681 0d89 00       		.byte	0
 2682 0d8a 00       		.byte	0
 2683 0d8b 2A       		.uleb128 0x2a
 2684 0d8c 0D0C0000 		.4byte	0xc0d
 2685 0d90 00000000 		.4byte	.LFB67
 2686 0d94 20000000 		.4byte	.LFE67-.LFB67
 2687 0d98 01       		.uleb128 0x1
 2688 0d99 9C       		.byte	0x9c
 2689 0d9a B10D0000 		.4byte	0xdb1
 2690 0d9e 2B       		.uleb128 0x2b
 2691 0d9f 1A0C0000 		.4byte	0xc1a
 2692 0da3 DF000000 		.4byte	.LLST6
 2693 0da7 2C       		.uleb128 0x2c
 2694 0da8 18000000 		.4byte	.LVL17
 2695 0dac 2D110000 		.4byte	0x112d
 2696 0db0 00       		.byte	0
 2697 0db1 2D       		.uleb128 0x2d
 2698 0db2 E9010000 		.4byte	.LASF193
 2699 0db6 01       		.byte	0x1
 2700 0db7 1401     		.2byte	0x114
 2701 0db9 00000000 		.4byte	.LFB68
 2702 0dbd 20000000 		.4byte	.LFE68-.LFB68
 2703 0dc1 01       		.uleb128 0x1
 2704 0dc2 9C       		.byte	0x9c
 2705 0dc3 E10D0000 		.4byte	0xde1
 2706 0dc7 2E       		.uleb128 0x2e
 2707 0dc8 37070000 		.4byte	.LASF188
 2708 0dcc 01       		.byte	0x1
 2709 0dcd 1401     		.2byte	0x114
 2710 0dcf D70A0000 		.4byte	0xad7
 2711 0dd3 00010000 		.4byte	.LLST7
 2712 0dd7 2C       		.uleb128 0x2c
 2713 0dd8 18000000 		.4byte	.LVL20
 2714 0ddc 38110000 		.4byte	0x1138
 2715 0de0 00       		.byte	0
 2716 0de1 2D       		.uleb128 0x2d
 2717 0de2 D5050000 		.4byte	.LASF194
 2718 0de6 01       		.byte	0x1
 2719 0de7 2101     		.2byte	0x121
 2720 0de9 00000000 		.4byte	.LFB69
ARM GAS  /var/folders/6q/x_mk5n_j3p7_c40r_2k_78980000gn/T//cczQbSnP.s 			page 49


 2721 0ded 2C000000 		.4byte	.LFE69-.LFB69
 2722 0df1 01       		.uleb128 0x1
 2723 0df2 9C       		.byte	0x9c
 2724 0df3 250E0000 		.4byte	0xe25
 2725 0df7 2F       		.uleb128 0x2f
 2726 0df8 6300     		.ascii	"c\000"
 2727 0dfa 01       		.byte	0x1
 2728 0dfb 2301     		.2byte	0x123
 2729 0dfd D70A0000 		.4byte	0xad7
 2730 0e01 21010000 		.4byte	.LLST8
 2731 0e05 30       		.uleb128 0x30
 2732 0e06 0D0C0000 		.4byte	0xc0d
 2733 0e0a 08000000 		.4byte	.LBB11
 2734 0e0e 38000000 		.4byte	.Ldebug_ranges0+0x38
 2735 0e12 01       		.byte	0x1
 2736 0e13 2601     		.2byte	0x126
 2737 0e15 31       		.uleb128 0x31
 2738 0e16 1A0C0000 		.4byte	0xc1a
 2739 0e1a 24       		.uleb128 0x24
 2740 0e1b 20000000 		.4byte	.LVL23
 2741 0e1f 2D110000 		.4byte	0x112d
 2742 0e23 00       		.byte	0
 2743 0e24 00       		.byte	0
 2744 0e25 2D       		.uleb128 0x2d
 2745 0e26 30080000 		.4byte	.LASF195
 2746 0e2a 01       		.byte	0x1
 2747 0e2b 2E01     		.2byte	0x12e
 2748 0e2d 00000000 		.4byte	.LFB70
 2749 0e31 4C000000 		.4byte	.LFE70-.LFB70
 2750 0e35 01       		.uleb128 0x1
 2751 0e36 9C       		.byte	0x9c
 2752 0e37 750E0000 		.4byte	0xe75
 2753 0e3b 32       		.uleb128 0x32
 2754 0e3c 6300     		.ascii	"c\000"
 2755 0e3e 01       		.byte	0x1
 2756 0e3f 3001     		.2byte	0x130
 2757 0e41 D70A0000 		.4byte	0xad7
 2758 0e45 25       		.uleb128 0x25
 2759 0e46 34000000 		.4byte	.LVL25
 2760 0e4a 43110000 		.4byte	0x1143
 2761 0e4e 26       		.uleb128 0x26
 2762 0e4f 01       		.uleb128 0x1
 2763 0e50 50       		.byte	0x50
 2764 0e51 05       		.uleb128 0x5
 2765 0e52 03       		.byte	0x3
 2766 0e53 00000000 		.4byte	.LANCHOR4
 2767 0e57 26       		.uleb128 0x26
 2768 0e58 01       		.uleb128 0x1
 2769 0e59 51       		.byte	0x51
 2770 0e5a 03       		.uleb128 0x3
 2771 0e5b 0A       		.byte	0xa
 2772 0e5c 8001     		.2byte	0x180
 2773 0e5e 26       		.uleb128 0x26
 2774 0e5f 01       		.uleb128 0x1
 2775 0e60 52       		.byte	0x52
 2776 0e61 02       		.uleb128 0x2
 2777 0e62 08       		.byte	0x8
ARM GAS  /var/folders/6q/x_mk5n_j3p7_c40r_2k_78980000gn/T//cczQbSnP.s 			page 50


 2778 0e63 48       		.byte	0x48
 2779 0e64 26       		.uleb128 0x26
 2780 0e65 01       		.uleb128 0x1
 2781 0e66 53       		.byte	0x53
 2782 0e67 05       		.uleb128 0x5
 2783 0e68 03       		.byte	0x3
 2784 0e69 00000000 		.4byte	VexSonarTask
 2785 0e6d 26       		.uleb128 0x26
 2786 0e6e 02       		.uleb128 0x2
 2787 0e6f 7D       		.byte	0x7d
 2788 0e70 00       		.sleb128 0
 2789 0e71 01       		.uleb128 0x1
 2790 0e72 30       		.byte	0x30
 2791 0e73 00       		.byte	0
 2792 0e74 00       		.byte	0
 2793 0e75 2D       		.uleb128 0x2d
 2794 0e76 5E030000 		.4byte	.LASF196
 2795 0e7a 01       		.byte	0x1
 2796 0e7b 4801     		.2byte	0x148
 2797 0e7d 00000000 		.4byte	.LFB71
 2798 0e81 3C000000 		.4byte	.LFE71-.LFB71
 2799 0e85 01       		.uleb128 0x1
 2800 0e86 9C       		.byte	0x9c
 2801 0e87 BE0E0000 		.4byte	0xebe
 2802 0e8b 2E       		.uleb128 0x2e
 2803 0e8c 37070000 		.4byte	.LASF188
 2804 0e90 01       		.byte	0x1
 2805 0e91 4801     		.2byte	0x148
 2806 0e93 D70A0000 		.4byte	0xad7
 2807 0e97 35010000 		.4byte	.LLST9
 2808 0e9b 29       		.uleb128 0x29
 2809 0e9c 1C000000 		.4byte	.LVL28
 2810 0ea0 01110000 		.4byte	0x1101
 2811 0ea4 AE0E0000 		.4byte	0xeae
 2812 0ea8 26       		.uleb128 0x26
 2813 0ea9 01       		.uleb128 0x1
 2814 0eaa 51       		.byte	0x51
 2815 0eab 01       		.uleb128 0x1
 2816 0eac 31       		.byte	0x31
 2817 0ead 00       		.byte	0
 2818 0eae 33       		.uleb128 0x33
 2819 0eaf 2E000000 		.4byte	.LVL29
 2820 0eb3 4F110000 		.4byte	0x114f
 2821 0eb7 26       		.uleb128 0x26
 2822 0eb8 01       		.uleb128 0x1
 2823 0eb9 51       		.byte	0x51
 2824 0eba 01       		.uleb128 0x1
 2825 0ebb 3A       		.byte	0x3a
 2826 0ebc 00       		.byte	0
 2827 0ebd 00       		.byte	0
 2828 0ebe 34       		.uleb128 0x34
 2829 0ebf B9020000 		.4byte	.LASF231
 2830 0ec3 01       		.byte	0x1
 2831 0ec4 88       		.byte	0x88
 2832 0ec5 60010000 		.4byte	0x160
 2833 0ec9 00000000 		.4byte	.LFB64
 2834 0ecd F8000000 		.4byte	.LFE64-.LFB64
ARM GAS  /var/folders/6q/x_mk5n_j3p7_c40r_2k_78980000gn/T//cczQbSnP.s 			page 51


 2835 0ed1 01       		.uleb128 0x1
 2836 0ed2 9C       		.byte	0x9c
 2837 0ed3 300F0000 		.4byte	0xf30
 2838 0ed7 28       		.uleb128 0x28
 2839 0ed8 61726700 		.ascii	"arg\000"
 2840 0edc 01       		.byte	0x1
 2841 0edd 88       		.byte	0x88
 2842 0ede C6000000 		.4byte	0xc6
 2843 0ee2 56010000 		.4byte	.LLST10
 2844 0ee6 35       		.uleb128 0x35
 2845 0ee7 6300     		.ascii	"c\000"
 2846 0ee9 01       		.byte	0x1
 2847 0eea 8A       		.byte	0x8a
 2848 0eeb D70A0000 		.4byte	0xad7
 2849 0eef 77010000 		.4byte	.LLST11
 2850 0ef3 29       		.uleb128 0x29
 2851 0ef4 1E000000 		.4byte	.LVL32
 2852 0ef8 5A110000 		.4byte	0x115a
 2853 0efc 0A0F0000 		.4byte	0xf0a
 2854 0f00 26       		.uleb128 0x26
 2855 0f01 01       		.uleb128 0x1
 2856 0f02 51       		.byte	0x51
 2857 0f03 05       		.uleb128 0x5
 2858 0f04 03       		.byte	0x3
 2859 0f05 00000000 		.4byte	.LANCHOR5
 2860 0f09 00       		.byte	0
 2861 0f0a 29       		.uleb128 0x29
 2862 0f0b 46000000 		.4byte	.LVL33
 2863 0f0f 65110000 		.4byte	0x1165
 2864 0f13 1D0F0000 		.4byte	0xf1d
 2865 0f17 26       		.uleb128 0x26
 2866 0f18 01       		.uleb128 0x1
 2867 0f19 50       		.byte	0x50
 2868 0f1a 01       		.uleb128 0x1
 2869 0f1b 49       		.byte	0x49
 2870 0f1c 00       		.byte	0
 2871 0f1d 24       		.uleb128 0x24
 2872 0f1e 5A000000 		.4byte	.LVL34
 2873 0f22 750E0000 		.4byte	0xe75
 2874 0f26 24       		.uleb128 0x24
 2875 0f27 64000000 		.4byte	.LVL35
 2876 0f2b 71110000 		.4byte	0x1171
 2877 0f2f 00       		.byte	0
 2878 0f30 36       		.uleb128 0x36
 2879 0f31 5B0A0000 		.4byte	.LASF197
 2880 0f35 01       		.byte	0x1
 2881 0f36 5801     		.2byte	0x158
 2882 0f38 EB000000 		.4byte	0xeb
 2883 0f3c 00000000 		.4byte	.LFB72
 2884 0f40 1C000000 		.4byte	.LFE72-.LFB72
 2885 0f44 01       		.uleb128 0x1
 2886 0f45 9C       		.byte	0x9c
 2887 0f46 5B0F0000 		.4byte	0xf5b
 2888 0f4a 2E       		.uleb128 0x2e
 2889 0f4b 37070000 		.4byte	.LASF188
 2890 0f4f 01       		.byte	0x1
 2891 0f50 5801     		.2byte	0x158
ARM GAS  /var/folders/6q/x_mk5n_j3p7_c40r_2k_78980000gn/T//cczQbSnP.s 			page 52


 2892 0f52 D70A0000 		.4byte	0xad7
 2893 0f56 9A010000 		.4byte	.LLST12
 2894 0f5a 00       		.byte	0
 2895 0f5b 36       		.uleb128 0x36
 2896 0f5c 90040000 		.4byte	.LASF198
 2897 0f60 01       		.byte	0x1
 2898 0f61 6801     		.2byte	0x168
 2899 0f63 EB000000 		.4byte	0xeb
 2900 0f67 00000000 		.4byte	.LFB73
 2901 0f6b 1C000000 		.4byte	.LFE73-.LFB73
 2902 0f6f 01       		.uleb128 0x1
 2903 0f70 9C       		.byte	0x9c
 2904 0f71 860F0000 		.4byte	0xf86
 2905 0f75 2E       		.uleb128 0x2e
 2906 0f76 37070000 		.4byte	.LASF188
 2907 0f7a 01       		.byte	0x1
 2908 0f7b 6801     		.2byte	0x168
 2909 0f7d D70A0000 		.4byte	0xad7
 2910 0f81 BB010000 		.4byte	.LLST13
 2911 0f85 00       		.byte	0
 2912 0f86 2D       		.uleb128 0x2d
 2913 0f87 27010000 		.4byte	.LASF199
 2914 0f8b 01       		.byte	0x1
 2915 0f8c 7901     		.2byte	0x179
 2916 0f8e 00000000 		.4byte	.LFB74
 2917 0f92 50000000 		.4byte	.LFE74-.LFB74
 2918 0f96 01       		.uleb128 0x1
 2919 0f97 9C       		.byte	0x9c
 2920 0f98 17100000 		.4byte	0x1017
 2921 0f9c 37       		.uleb128 0x37
 2922 0f9d 63687000 		.ascii	"chp\000"
 2923 0fa1 01       		.byte	0x1
 2924 0fa2 7901     		.2byte	0x179
 2925 0fa4 D10B0000 		.4byte	0xbd1
 2926 0fa8 DC010000 		.4byte	.LLST14
 2927 0fac 2E       		.uleb128 0x2e
 2928 0fad B5060000 		.4byte	.LASF200
 2929 0fb1 01       		.byte	0x1
 2930 0fb2 7901     		.2byte	0x179
 2931 0fb4 37000000 		.4byte	0x37
 2932 0fb8 08020000 		.4byte	.LLST15
 2933 0fbc 2E       		.uleb128 0x2e
 2934 0fbd F9060000 		.4byte	.LASF201
 2935 0fc1 01       		.byte	0x1
 2936 0fc2 7901     		.2byte	0x179
 2937 0fc4 D70B0000 		.4byte	0xbd7
 2938 0fc8 29020000 		.4byte	.LLST16
 2939 0fcc 2F       		.uleb128 0x2f
 2940 0fcd 6300     		.ascii	"c\000"
 2941 0fcf 01       		.byte	0x1
 2942 0fd0 7E01     		.2byte	0x17e
 2943 0fd2 D70A0000 		.4byte	0xad7
 2944 0fd6 4A020000 		.4byte	.LLST17
 2945 0fda 29       		.uleb128 0x29
 2946 0fdb 20000000 		.4byte	.LVL45
 2947 0fdf 7D110000 		.4byte	0x117d
 2948 0fe3 FD0F0000 		.4byte	0xffd
ARM GAS  /var/folders/6q/x_mk5n_j3p7_c40r_2k_78980000gn/T//cczQbSnP.s 			page 53


 2949 0fe7 26       		.uleb128 0x26
 2950 0fe8 01       		.uleb128 0x1
 2951 0fe9 50       		.byte	0x50
 2952 0fea 02       		.uleb128 0x2
 2953 0feb 76       		.byte	0x76
 2954 0fec 00       		.sleb128 0
 2955 0fed 26       		.uleb128 0x26
 2956 0fee 01       		.uleb128 0x1
 2957 0fef 51       		.byte	0x51
 2958 0ff0 05       		.uleb128 0x5
 2959 0ff1 03       		.byte	0x3
 2960 0ff2 08000000 		.4byte	.LC1
 2961 0ff6 26       		.uleb128 0x26
 2962 0ff7 01       		.uleb128 0x1
 2963 0ff8 52       		.byte	0x52
 2964 0ff9 02       		.uleb128 0x2
 2965 0ffa 75       		.byte	0x75
 2966 0ffb 00       		.sleb128 0
 2967 0ffc 00       		.byte	0
 2968 0ffd 25       		.uleb128 0x25
 2969 0ffe 36000000 		.4byte	.LVL47
 2970 1002 7D110000 		.4byte	0x117d
 2971 1006 26       		.uleb128 0x26
 2972 1007 01       		.uleb128 0x1
 2973 1008 50       		.byte	0x50
 2974 1009 02       		.uleb128 0x2
 2975 100a 76       		.byte	0x76
 2976 100b 00       		.sleb128 0
 2977 100c 26       		.uleb128 0x26
 2978 100d 01       		.uleb128 0x1
 2979 100e 51       		.byte	0x51
 2980 100f 05       		.uleb128 0x5
 2981 1010 03       		.byte	0x3
 2982 1011 18000000 		.4byte	.LC2
 2983 1015 00       		.byte	0
 2984 1016 00       		.byte	0
 2985 1017 17       		.uleb128 0x17
 2986 1018 7D0B0000 		.4byte	0xb7d
 2987 101c 27100000 		.4byte	0x1027
 2988 1020 18       		.uleb128 0x18
 2989 1021 BF000000 		.4byte	0xbf
 2990 1025 04       		.byte	0x4
 2991 1026 00       		.byte	0
 2992 1027 38       		.uleb128 0x38
 2993 1028 18060000 		.4byte	.LASF202
 2994 102c 01       		.byte	0x1
 2995 102d 45       		.byte	0x45
 2996 102e 17100000 		.4byte	0x1017
 2997 1032 05       		.uleb128 0x5
 2998 1033 03       		.byte	0x3
 2999 1034 00000000 		.4byte	vexSonars
 3000 1038 39       		.uleb128 0x39
 3001 1039 31020000 		.4byte	.LASF203
 3002 103d 01       		.byte	0x1
 3003 103e 4A       		.byte	0x4a
 3004 103f 43100000 		.4byte	0x1043
 3005 1043 07       		.uleb128 0x7
ARM GAS  /var/folders/6q/x_mk5n_j3p7_c40r_2k_78980000gn/T//cczQbSnP.s 			page 54


 3006 1044 39080000 		.4byte	0x839
 3007 1048 38       		.uleb128 0x38
 3008 1049 CD070000 		.4byte	.LASF204
 3009 104d 01       		.byte	0x1
 3010 104e 4C       		.byte	0x4c
 3011 104f D70A0000 		.4byte	0xad7
 3012 1053 05       		.uleb128 0x5
 3013 1054 03       		.byte	0x3
 3014 1055 00000000 		.4byte	nextSonar
 3015 1059 38       		.uleb128 0x38
 3016 105a 2D070000 		.4byte	.LASF205
 3017 105e 01       		.byte	0x1
 3018 105f 4D       		.byte	0x4d
 3019 1060 020C0000 		.4byte	0xc02
 3020 1064 05       		.uleb128 0x5
 3021 1065 03       		.byte	0x3
 3022 1066 00000000 		.4byte	nextState
 3023 106a 38       		.uleb128 0x38
 3024 106b EF040000 		.4byte	.LASF206
 3025 106f 01       		.byte	0x1
 3026 1070 4E       		.byte	0x4e
 3027 1071 AA020000 		.4byte	0x2aa
 3028 1075 05       		.uleb128 0x5
 3029 1076 03       		.byte	0x3
 3030 1077 00000000 		.4byte	vexSonarThread
 3031 107b 38       		.uleb128 0x38
 3032 107c 31000000 		.4byte	.LASF207
 3033 1080 01       		.byte	0x1
 3034 1081 7A       		.byte	0x7a
 3035 1082 B8090000 		.4byte	0x9b8
 3036 1086 05       		.uleb128 0x5
 3037 1087 03       		.byte	0x3
 3038 1088 00000000 		.4byte	vexSonarGpt
 3039 108c 17       		.uleb128 0x17
 3040 108d E6020000 		.4byte	0x2e6
 3041 1091 9C100000 		.4byte	0x109c
 3042 1095 18       		.uleb128 0x18
 3043 1096 BF000000 		.4byte	0xbf
 3044 109a 2F       		.byte	0x2f
 3045 109b 00       		.byte	0
 3046 109c 38       		.uleb128 0x38
 3047 109d C9040000 		.4byte	.LASF208
 3048 10a1 01       		.byte	0x1
 3049 10a2 86       		.byte	0x86
 3050 10a3 8C100000 		.4byte	0x108c
 3051 10a7 05       		.uleb128 0x5
 3052 10a8 03       		.byte	0x3
 3053 10a9 00000000 		.4byte	waVexSonarTask
 3054 10ad 3A       		.uleb128 0x3a
 3055 10ae 0F010000 		.4byte	.LASF209
 3056 10b2 09       		.byte	0x9
 3057 10b3 F5       		.byte	0xf5
 3058 10b4 47040000 		.4byte	0x447
 3059 10b8 3A       		.uleb128 0x3a
 3060 10b9 56080000 		.4byte	.LASF210
 3061 10bd 0A       		.byte	0xa
 3062 10be 6F       		.byte	0x6f
ARM GAS  /var/folders/6q/x_mk5n_j3p7_c40r_2k_78980000gn/T//cczQbSnP.s 			page 55


 3063 10bf A3040000 		.4byte	0x4a3
 3064 10c3 3B       		.uleb128 0x3b
 3065 10c4 12080000 		.4byte	.LASF211
 3066 10c8 18       		.byte	0x18
 3067 10c9 0706     		.2byte	0x607
 3068 10cb 11060000 		.4byte	0x611
 3069 10cf 3A       		.uleb128 0x3a
 3070 10d0 7F050000 		.4byte	.LASF212
 3071 10d4 10       		.byte	0x10
 3072 10d5 86       		.byte	0x86
 3073 10d6 D2060000 		.4byte	0x6d2
 3074 10da 3B       		.uleb128 0x3b
 3075 10db 48050000 		.4byte	.LASF213
 3076 10df 12       		.byte	0x12
 3077 10e0 D001     		.2byte	0x1d0
 3078 10e2 D0070000 		.4byte	0x7d0
 3079 10e6 17       		.uleb128 0x17
 3080 10e7 9B0A0000 		.4byte	0xa9b
 3081 10eb F6100000 		.4byte	0x10f6
 3082 10ef 18       		.uleb128 0x18
 3083 10f0 BF000000 		.4byte	0xbf
 3084 10f4 0B       		.byte	0xb
 3085 10f5 00       		.byte	0
 3086 10f6 3A       		.uleb128 0x3a
 3087 10f7 B1080000 		.4byte	.LASF214
 3088 10fb 15       		.byte	0x15
 3089 10fc BE       		.byte	0xbe
 3090 10fd E6100000 		.4byte	0x10e6
 3091 1101 3C       		.uleb128 0x3c
 3092 1102 2E030000 		.4byte	.LASF215
 3093 1106 2E030000 		.4byte	.LASF215
 3094 110a 15       		.byte	0x15
 3095 110b C3       		.byte	0xc3
 3096 110c 3C       		.uleb128 0x3c
 3097 110d 70000000 		.4byte	.LASF216
 3098 1111 70000000 		.4byte	.LASF216
 3099 1115 11       		.byte	0x11
 3100 1116 76       		.byte	0x76
 3101 1117 3C       		.uleb128 0x3c
 3102 1118 DE060000 		.4byte	.LASF217
 3103 111c DE060000 		.4byte	.LASF217
 3104 1120 15       		.byte	0x15
 3105 1121 C1       		.byte	0xc1
 3106 1122 3C       		.uleb128 0x3c
 3107 1123 690A0000 		.4byte	.LASF218
 3108 1127 690A0000 		.4byte	.LASF218
 3109 112b 15       		.byte	0x15
 3110 112c CC       		.byte	0xcc
 3111 112d 3C       		.uleb128 0x3c
 3112 112e 3A020000 		.4byte	.LASF219
 3113 1132 3A020000 		.4byte	.LASF219
 3114 1136 0F       		.byte	0xf
 3115 1137 94       		.byte	0x94
 3116 1138 3C       		.uleb128 0x3c
 3117 1139 28050000 		.4byte	.LASF220
 3118 113d 28050000 		.4byte	.LASF220
 3119 1141 0F       		.byte	0xf
ARM GAS  /var/folders/6q/x_mk5n_j3p7_c40r_2k_78980000gn/T//cczQbSnP.s 			page 56


 3120 1142 95       		.byte	0x95
 3121 1143 3D       		.uleb128 0x3d
 3122 1144 A3060000 		.4byte	.LASF221
 3123 1148 A3060000 		.4byte	.LASF221
 3124 114c 07       		.byte	0x7
 3125 114d 7001     		.2byte	0x170
 3126 114f 3C       		.uleb128 0x3c
 3127 1150 EF000000 		.4byte	.LASF222
 3128 1154 EF000000 		.4byte	.LASF222
 3129 1158 11       		.byte	0x11
 3130 1159 75       		.byte	0x75
 3131 115a 3C       		.uleb128 0x3c
 3132 115b F0060000 		.4byte	.LASF223
 3133 115f F0060000 		.4byte	.LASF223
 3134 1163 11       		.byte	0x11
 3135 1164 70       		.byte	0x70
 3136 1165 3D       		.uleb128 0x3d
 3137 1166 61090000 		.4byte	.LASF224
 3138 116a 61090000 		.4byte	.LASF224
 3139 116e 07       		.byte	0x7
 3140 116f 7501     		.2byte	0x175
 3141 1171 3D       		.uleb128 0x3d
 3142 1172 A9020000 		.4byte	.LASF225
 3143 1176 A9020000 		.4byte	.LASF225
 3144 117a 07       		.byte	0x7
 3145 117b 7601     		.2byte	0x176
 3146 117d 3C       		.uleb128 0x3c
 3147 117e C0070000 		.4byte	.LASF226
 3148 1182 C0070000 		.4byte	.LASF226
 3149 1186 19       		.byte	0x19
 3150 1187 3B       		.byte	0x3b
 3151 1188 00       		.byte	0
 3152              		.section	.debug_abbrev,"",%progbits
 3153              	.Ldebug_abbrev0:
 3154 0000 01       		.uleb128 0x1
 3155 0001 11       		.uleb128 0x11
 3156 0002 01       		.byte	0x1
 3157 0003 25       		.uleb128 0x25
 3158 0004 0E       		.uleb128 0xe
 3159 0005 13       		.uleb128 0x13
 3160 0006 0B       		.uleb128 0xb
 3161 0007 03       		.uleb128 0x3
 3162 0008 0E       		.uleb128 0xe
 3163 0009 1B       		.uleb128 0x1b
 3164 000a 0E       		.uleb128 0xe
 3165 000b 55       		.uleb128 0x55
 3166 000c 17       		.uleb128 0x17
 3167 000d 11       		.uleb128 0x11
 3168 000e 01       		.uleb128 0x1
 3169 000f 10       		.uleb128 0x10
 3170 0010 17       		.uleb128 0x17
 3171 0011 00       		.byte	0
 3172 0012 00       		.byte	0
 3173 0013 02       		.uleb128 0x2
 3174 0014 16       		.uleb128 0x16
 3175 0015 00       		.byte	0
 3176 0016 03       		.uleb128 0x3
ARM GAS  /var/folders/6q/x_mk5n_j3p7_c40r_2k_78980000gn/T//cczQbSnP.s 			page 57


 3177 0017 0E       		.uleb128 0xe
 3178 0018 3A       		.uleb128 0x3a
 3179 0019 0B       		.uleb128 0xb
 3180 001a 3B       		.uleb128 0x3b
 3181 001b 0B       		.uleb128 0xb
 3182 001c 49       		.uleb128 0x49
 3183 001d 13       		.uleb128 0x13
 3184 001e 00       		.byte	0
 3185 001f 00       		.byte	0
 3186 0020 03       		.uleb128 0x3
 3187 0021 24       		.uleb128 0x24
 3188 0022 00       		.byte	0
 3189 0023 0B       		.uleb128 0xb
 3190 0024 0B       		.uleb128 0xb
 3191 0025 3E       		.uleb128 0x3e
 3192 0026 0B       		.uleb128 0xb
 3193 0027 03       		.uleb128 0x3
 3194 0028 0E       		.uleb128 0xe
 3195 0029 00       		.byte	0
 3196 002a 00       		.byte	0
 3197 002b 04       		.uleb128 0x4
 3198 002c 24       		.uleb128 0x24
 3199 002d 00       		.byte	0
 3200 002e 0B       		.uleb128 0xb
 3201 002f 0B       		.uleb128 0xb
 3202 0030 3E       		.uleb128 0x3e
 3203 0031 0B       		.uleb128 0xb
 3204 0032 03       		.uleb128 0x3
 3205 0033 08       		.uleb128 0x8
 3206 0034 00       		.byte	0
 3207 0035 00       		.byte	0
 3208 0036 05       		.uleb128 0x5
 3209 0037 0F       		.uleb128 0xf
 3210 0038 00       		.byte	0
 3211 0039 0B       		.uleb128 0xb
 3212 003a 0B       		.uleb128 0xb
 3213 003b 00       		.byte	0
 3214 003c 00       		.byte	0
 3215 003d 06       		.uleb128 0x6
 3216 003e 0F       		.uleb128 0xf
 3217 003f 00       		.byte	0
 3218 0040 0B       		.uleb128 0xb
 3219 0041 0B       		.uleb128 0xb
 3220 0042 49       		.uleb128 0x49
 3221 0043 13       		.uleb128 0x13
 3222 0044 00       		.byte	0
 3223 0045 00       		.byte	0
 3224 0046 07       		.uleb128 0x7
 3225 0047 26       		.uleb128 0x26
 3226 0048 00       		.byte	0
 3227 0049 49       		.uleb128 0x49
 3228 004a 13       		.uleb128 0x13
 3229 004b 00       		.byte	0
 3230 004c 00       		.byte	0
 3231 004d 08       		.uleb128 0x8
 3232 004e 13       		.uleb128 0x13
 3233 004f 01       		.byte	0x1
ARM GAS  /var/folders/6q/x_mk5n_j3p7_c40r_2k_78980000gn/T//cczQbSnP.s 			page 58


 3234 0050 03       		.uleb128 0x3
 3235 0051 0E       		.uleb128 0xe
 3236 0052 0B       		.uleb128 0xb
 3237 0053 0B       		.uleb128 0xb
 3238 0054 3A       		.uleb128 0x3a
 3239 0055 0B       		.uleb128 0xb
 3240 0056 3B       		.uleb128 0x3b
 3241 0057 0B       		.uleb128 0xb
 3242 0058 01       		.uleb128 0x1
 3243 0059 13       		.uleb128 0x13
 3244 005a 00       		.byte	0
 3245 005b 00       		.byte	0
 3246 005c 09       		.uleb128 0x9
 3247 005d 0D       		.uleb128 0xd
 3248 005e 00       		.byte	0
 3249 005f 03       		.uleb128 0x3
 3250 0060 0E       		.uleb128 0xe
 3251 0061 3A       		.uleb128 0x3a
 3252 0062 0B       		.uleb128 0xb
 3253 0063 3B       		.uleb128 0x3b
 3254 0064 0B       		.uleb128 0xb
 3255 0065 49       		.uleb128 0x49
 3256 0066 13       		.uleb128 0x13
 3257 0067 38       		.uleb128 0x38
 3258 0068 0B       		.uleb128 0xb
 3259 0069 00       		.byte	0
 3260 006a 00       		.byte	0
 3261 006b 0A       		.uleb128 0xa
 3262 006c 0D       		.uleb128 0xd
 3263 006d 00       		.byte	0
 3264 006e 03       		.uleb128 0x3
 3265 006f 08       		.uleb128 0x8
 3266 0070 3A       		.uleb128 0x3a
 3267 0071 0B       		.uleb128 0xb
 3268 0072 3B       		.uleb128 0x3b
 3269 0073 0B       		.uleb128 0xb
 3270 0074 49       		.uleb128 0x49
 3271 0075 13       		.uleb128 0x13
 3272 0076 38       		.uleb128 0x38
 3273 0077 0B       		.uleb128 0xb
 3274 0078 00       		.byte	0
 3275 0079 00       		.byte	0
 3276 007a 0B       		.uleb128 0xb
 3277 007b 13       		.uleb128 0x13
 3278 007c 01       		.byte	0x1
 3279 007d 0B       		.uleb128 0xb
 3280 007e 0B       		.uleb128 0xb
 3281 007f 3A       		.uleb128 0x3a
 3282 0080 0B       		.uleb128 0xb
 3283 0081 3B       		.uleb128 0x3b
 3284 0082 0B       		.uleb128 0xb
 3285 0083 01       		.uleb128 0x1
 3286 0084 13       		.uleb128 0x13
 3287 0085 00       		.byte	0
 3288 0086 00       		.byte	0
 3289 0087 0C       		.uleb128 0xc
 3290 0088 13       		.uleb128 0x13
ARM GAS  /var/folders/6q/x_mk5n_j3p7_c40r_2k_78980000gn/T//cczQbSnP.s 			page 59


 3291 0089 01       		.byte	0x1
 3292 008a 03       		.uleb128 0x3
 3293 008b 0E       		.uleb128 0xe
 3294 008c 0B       		.uleb128 0xb
 3295 008d 0B       		.uleb128 0xb
 3296 008e 3A       		.uleb128 0x3a
 3297 008f 0B       		.uleb128 0xb
 3298 0090 3B       		.uleb128 0x3b
 3299 0091 05       		.uleb128 0x5
 3300 0092 01       		.uleb128 0x1
 3301 0093 13       		.uleb128 0x13
 3302 0094 00       		.byte	0
 3303 0095 00       		.byte	0
 3304 0096 0D       		.uleb128 0xd
 3305 0097 0D       		.uleb128 0xd
 3306 0098 00       		.byte	0
 3307 0099 03       		.uleb128 0x3
 3308 009a 08       		.uleb128 0x8
 3309 009b 3A       		.uleb128 0x3a
 3310 009c 0B       		.uleb128 0xb
 3311 009d 3B       		.uleb128 0x3b
 3312 009e 05       		.uleb128 0x5
 3313 009f 49       		.uleb128 0x49
 3314 00a0 13       		.uleb128 0x13
 3315 00a1 38       		.uleb128 0x38
 3316 00a2 0B       		.uleb128 0xb
 3317 00a3 00       		.byte	0
 3318 00a4 00       		.byte	0
 3319 00a5 0E       		.uleb128 0xe
 3320 00a6 35       		.uleb128 0x35
 3321 00a7 00       		.byte	0
 3322 00a8 49       		.uleb128 0x49
 3323 00a9 13       		.uleb128 0x13
 3324 00aa 00       		.byte	0
 3325 00ab 00       		.byte	0
 3326 00ac 0F       		.uleb128 0xf
 3327 00ad 15       		.uleb128 0x15
 3328 00ae 01       		.byte	0x1
 3329 00af 27       		.uleb128 0x27
 3330 00b0 19       		.uleb128 0x19
 3331 00b1 01       		.uleb128 0x1
 3332 00b2 13       		.uleb128 0x13
 3333 00b3 00       		.byte	0
 3334 00b4 00       		.byte	0
 3335 00b5 10       		.uleb128 0x10
 3336 00b6 05       		.uleb128 0x5
 3337 00b7 00       		.byte	0
 3338 00b8 49       		.uleb128 0x49
 3339 00b9 13       		.uleb128 0x13
 3340 00ba 00       		.byte	0
 3341 00bb 00       		.byte	0
 3342 00bc 11       		.uleb128 0x11
 3343 00bd 17       		.uleb128 0x17
 3344 00be 01       		.byte	0x1
 3345 00bf 0B       		.uleb128 0xb
 3346 00c0 0B       		.uleb128 0xb
 3347 00c1 3A       		.uleb128 0x3a
ARM GAS  /var/folders/6q/x_mk5n_j3p7_c40r_2k_78980000gn/T//cczQbSnP.s 			page 60


 3348 00c2 0B       		.uleb128 0xb
 3349 00c3 3B       		.uleb128 0x3b
 3350 00c4 0B       		.uleb128 0xb
 3351 00c5 01       		.uleb128 0x1
 3352 00c6 13       		.uleb128 0x13
 3353 00c7 00       		.byte	0
 3354 00c8 00       		.byte	0
 3355 00c9 12       		.uleb128 0x12
 3356 00ca 0D       		.uleb128 0xd
 3357 00cb 00       		.byte	0
 3358 00cc 03       		.uleb128 0x3
 3359 00cd 0E       		.uleb128 0xe
 3360 00ce 3A       		.uleb128 0x3a
 3361 00cf 0B       		.uleb128 0xb
 3362 00d0 3B       		.uleb128 0x3b
 3363 00d1 0B       		.uleb128 0xb
 3364 00d2 49       		.uleb128 0x49
 3365 00d3 13       		.uleb128 0x13
 3366 00d4 00       		.byte	0
 3367 00d5 00       		.byte	0
 3368 00d6 13       		.uleb128 0x13
 3369 00d7 15       		.uleb128 0x15
 3370 00d8 01       		.byte	0x1
 3371 00d9 27       		.uleb128 0x27
 3372 00da 19       		.uleb128 0x19
 3373 00db 49       		.uleb128 0x49
 3374 00dc 13       		.uleb128 0x13
 3375 00dd 01       		.uleb128 0x1
 3376 00de 13       		.uleb128 0x13
 3377 00df 00       		.byte	0
 3378 00e0 00       		.byte	0
 3379 00e1 14       		.uleb128 0x14
 3380 00e2 13       		.uleb128 0x13
 3381 00e3 01       		.byte	0x1
 3382 00e4 0B       		.uleb128 0xb
 3383 00e5 0B       		.uleb128 0xb
 3384 00e6 3A       		.uleb128 0x3a
 3385 00e7 0B       		.uleb128 0xb
 3386 00e8 3B       		.uleb128 0x3b
 3387 00e9 05       		.uleb128 0x5
 3388 00ea 01       		.uleb128 0x1
 3389 00eb 13       		.uleb128 0x13
 3390 00ec 00       		.byte	0
 3391 00ed 00       		.byte	0
 3392 00ee 15       		.uleb128 0x15
 3393 00ef 0D       		.uleb128 0xd
 3394 00f0 00       		.byte	0
 3395 00f1 03       		.uleb128 0x3
 3396 00f2 0E       		.uleb128 0xe
 3397 00f3 3A       		.uleb128 0x3a
 3398 00f4 0B       		.uleb128 0xb
 3399 00f5 3B       		.uleb128 0x3b
 3400 00f6 05       		.uleb128 0x5
 3401 00f7 49       		.uleb128 0x49
 3402 00f8 13       		.uleb128 0x13
 3403 00f9 38       		.uleb128 0x38
 3404 00fa 0B       		.uleb128 0xb
ARM GAS  /var/folders/6q/x_mk5n_j3p7_c40r_2k_78980000gn/T//cczQbSnP.s 			page 61


 3405 00fb 00       		.byte	0
 3406 00fc 00       		.byte	0
 3407 00fd 16       		.uleb128 0x16
 3408 00fe 16       		.uleb128 0x16
 3409 00ff 00       		.byte	0
 3410 0100 03       		.uleb128 0x3
 3411 0101 0E       		.uleb128 0xe
 3412 0102 3A       		.uleb128 0x3a
 3413 0103 0B       		.uleb128 0xb
 3414 0104 3B       		.uleb128 0x3b
 3415 0105 05       		.uleb128 0x5
 3416 0106 49       		.uleb128 0x49
 3417 0107 13       		.uleb128 0x13
 3418 0108 00       		.byte	0
 3419 0109 00       		.byte	0
 3420 010a 17       		.uleb128 0x17
 3421 010b 01       		.uleb128 0x1
 3422 010c 01       		.byte	0x1
 3423 010d 49       		.uleb128 0x49
 3424 010e 13       		.uleb128 0x13
 3425 010f 01       		.uleb128 0x1
 3426 0110 13       		.uleb128 0x13
 3427 0111 00       		.byte	0
 3428 0112 00       		.byte	0
 3429 0113 18       		.uleb128 0x18
 3430 0114 21       		.uleb128 0x21
 3431 0115 00       		.byte	0
 3432 0116 49       		.uleb128 0x49
 3433 0117 13       		.uleb128 0x13
 3434 0118 2F       		.uleb128 0x2f
 3435 0119 0B       		.uleb128 0xb
 3436 011a 00       		.byte	0
 3437 011b 00       		.byte	0
 3438 011c 19       		.uleb128 0x19
 3439 011d 04       		.uleb128 0x4
 3440 011e 01       		.byte	0x1
 3441 011f 0B       		.uleb128 0xb
 3442 0120 0B       		.uleb128 0xb
 3443 0121 49       		.uleb128 0x49
 3444 0122 13       		.uleb128 0x13
 3445 0123 3A       		.uleb128 0x3a
 3446 0124 0B       		.uleb128 0xb
 3447 0125 3B       		.uleb128 0x3b
 3448 0126 0B       		.uleb128 0xb
 3449 0127 01       		.uleb128 0x1
 3450 0128 13       		.uleb128 0x13
 3451 0129 00       		.byte	0
 3452 012a 00       		.byte	0
 3453 012b 1A       		.uleb128 0x1a
 3454 012c 28       		.uleb128 0x28
 3455 012d 00       		.byte	0
 3456 012e 03       		.uleb128 0x3
 3457 012f 0E       		.uleb128 0xe
 3458 0130 1C       		.uleb128 0x1c
 3459 0131 0B       		.uleb128 0xb
 3460 0132 00       		.byte	0
 3461 0133 00       		.byte	0
ARM GAS  /var/folders/6q/x_mk5n_j3p7_c40r_2k_78980000gn/T//cczQbSnP.s 			page 62


 3462 0134 1B       		.uleb128 0x1b
 3463 0135 28       		.uleb128 0x28
 3464 0136 00       		.byte	0
 3465 0137 03       		.uleb128 0x3
 3466 0138 0E       		.uleb128 0xe
 3467 0139 1C       		.uleb128 0x1c
 3468 013a 0D       		.uleb128 0xd
 3469 013b 00       		.byte	0
 3470 013c 00       		.byte	0
 3471 013d 1C       		.uleb128 0x1c
 3472 013e 2E       		.uleb128 0x2e
 3473 013f 01       		.byte	0x1
 3474 0140 3F       		.uleb128 0x3f
 3475 0141 19       		.uleb128 0x19
 3476 0142 03       		.uleb128 0x3
 3477 0143 0E       		.uleb128 0xe
 3478 0144 3A       		.uleb128 0x3a
 3479 0145 0B       		.uleb128 0xb
 3480 0146 3B       		.uleb128 0x3b
 3481 0147 05       		.uleb128 0x5
 3482 0148 27       		.uleb128 0x27
 3483 0149 19       		.uleb128 0x19
 3484 014a 20       		.uleb128 0x20
 3485 014b 0B       		.uleb128 0xb
 3486 014c 01       		.uleb128 0x1
 3487 014d 13       		.uleb128 0x13
 3488 014e 00       		.byte	0
 3489 014f 00       		.byte	0
 3490 0150 1D       		.uleb128 0x1d
 3491 0151 05       		.uleb128 0x5
 3492 0152 00       		.byte	0
 3493 0153 03       		.uleb128 0x3
 3494 0154 0E       		.uleb128 0xe
 3495 0155 3A       		.uleb128 0x3a
 3496 0156 0B       		.uleb128 0xb
 3497 0157 3B       		.uleb128 0x3b
 3498 0158 05       		.uleb128 0x5
 3499 0159 49       		.uleb128 0x49
 3500 015a 13       		.uleb128 0x13
 3501 015b 00       		.byte	0
 3502 015c 00       		.byte	0
 3503 015d 1E       		.uleb128 0x1e
 3504 015e 2E       		.uleb128 0x2e
 3505 015f 01       		.byte	0x1
 3506 0160 03       		.uleb128 0x3
 3507 0161 0E       		.uleb128 0xe
 3508 0162 3A       		.uleb128 0x3a
 3509 0163 0B       		.uleb128 0xb
 3510 0164 3B       		.uleb128 0x3b
 3511 0165 0B       		.uleb128 0xb
 3512 0166 27       		.uleb128 0x27
 3513 0167 19       		.uleb128 0x19
 3514 0168 11       		.uleb128 0x11
 3515 0169 01       		.uleb128 0x1
 3516 016a 12       		.uleb128 0x12
 3517 016b 06       		.uleb128 0x6
 3518 016c 40       		.uleb128 0x40
ARM GAS  /var/folders/6q/x_mk5n_j3p7_c40r_2k_78980000gn/T//cczQbSnP.s 			page 63


 3519 016d 18       		.uleb128 0x18
 3520 016e 9742     		.uleb128 0x2117
 3521 0170 19       		.uleb128 0x19
 3522 0171 01       		.uleb128 0x1
 3523 0172 13       		.uleb128 0x13
 3524 0173 00       		.byte	0
 3525 0174 00       		.byte	0
 3526 0175 1F       		.uleb128 0x1f
 3527 0176 05       		.uleb128 0x5
 3528 0177 00       		.byte	0
 3529 0178 03       		.uleb128 0x3
 3530 0179 0E       		.uleb128 0xe
 3531 017a 3A       		.uleb128 0x3a
 3532 017b 0B       		.uleb128 0xb
 3533 017c 3B       		.uleb128 0x3b
 3534 017d 0B       		.uleb128 0xb
 3535 017e 49       		.uleb128 0x49
 3536 017f 13       		.uleb128 0x13
 3537 0180 02       		.uleb128 0x2
 3538 0181 17       		.uleb128 0x17
 3539 0182 00       		.byte	0
 3540 0183 00       		.byte	0
 3541 0184 20       		.uleb128 0x20
 3542 0185 0B       		.uleb128 0xb
 3543 0186 01       		.byte	0x1
 3544 0187 11       		.uleb128 0x11
 3545 0188 01       		.uleb128 0x1
 3546 0189 12       		.uleb128 0x12
 3547 018a 06       		.uleb128 0x6
 3548 018b 01       		.uleb128 0x1
 3549 018c 13       		.uleb128 0x13
 3550 018d 00       		.byte	0
 3551 018e 00       		.byte	0
 3552 018f 21       		.uleb128 0x21
 3553 0190 34       		.uleb128 0x34
 3554 0191 00       		.byte	0
 3555 0192 03       		.uleb128 0x3
 3556 0193 08       		.uleb128 0x8
 3557 0194 3A       		.uleb128 0x3a
 3558 0195 0B       		.uleb128 0xb
 3559 0196 3B       		.uleb128 0x3b
 3560 0197 0B       		.uleb128 0xb
 3561 0198 49       		.uleb128 0x49
 3562 0199 13       		.uleb128 0x13
 3563 019a 02       		.uleb128 0x2
 3564 019b 18       		.uleb128 0x18
 3565 019c 00       		.byte	0
 3566 019d 00       		.byte	0
 3567 019e 22       		.uleb128 0x22
 3568 019f 0B       		.uleb128 0xb
 3569 01a0 01       		.byte	0x1
 3570 01a1 55       		.uleb128 0x55
 3571 01a2 17       		.uleb128 0x17
 3572 01a3 00       		.byte	0
 3573 01a4 00       		.byte	0
 3574 01a5 23       		.uleb128 0x23
 3575 01a6 0B       		.uleb128 0xb
ARM GAS  /var/folders/6q/x_mk5n_j3p7_c40r_2k_78980000gn/T//cczQbSnP.s 			page 64


 3576 01a7 01       		.byte	0x1
 3577 01a8 55       		.uleb128 0x55
 3578 01a9 17       		.uleb128 0x17
 3579 01aa 01       		.uleb128 0x1
 3580 01ab 13       		.uleb128 0x13
 3581 01ac 00       		.byte	0
 3582 01ad 00       		.byte	0
 3583 01ae 24       		.uleb128 0x24
 3584 01af 898201   		.uleb128 0x4109
 3585 01b2 00       		.byte	0
 3586 01b3 11       		.uleb128 0x11
 3587 01b4 01       		.uleb128 0x1
 3588 01b5 31       		.uleb128 0x31
 3589 01b6 13       		.uleb128 0x13
 3590 01b7 00       		.byte	0
 3591 01b8 00       		.byte	0
 3592 01b9 25       		.uleb128 0x25
 3593 01ba 898201   		.uleb128 0x4109
 3594 01bd 01       		.byte	0x1
 3595 01be 11       		.uleb128 0x11
 3596 01bf 01       		.uleb128 0x1
 3597 01c0 31       		.uleb128 0x31
 3598 01c1 13       		.uleb128 0x13
 3599 01c2 00       		.byte	0
 3600 01c3 00       		.byte	0
 3601 01c4 26       		.uleb128 0x26
 3602 01c5 8A8201   		.uleb128 0x410a
 3603 01c8 00       		.byte	0
 3604 01c9 02       		.uleb128 0x2
 3605 01ca 18       		.uleb128 0x18
 3606 01cb 9142     		.uleb128 0x2111
 3607 01cd 18       		.uleb128 0x18
 3608 01ce 00       		.byte	0
 3609 01cf 00       		.byte	0
 3610 01d0 27       		.uleb128 0x27
 3611 01d1 2E       		.uleb128 0x2e
 3612 01d2 01       		.byte	0x1
 3613 01d3 3F       		.uleb128 0x3f
 3614 01d4 19       		.uleb128 0x19
 3615 01d5 03       		.uleb128 0x3
 3616 01d6 0E       		.uleb128 0xe
 3617 01d7 3A       		.uleb128 0x3a
 3618 01d8 0B       		.uleb128 0xb
 3619 01d9 3B       		.uleb128 0x3b
 3620 01da 0B       		.uleb128 0xb
 3621 01db 27       		.uleb128 0x27
 3622 01dc 19       		.uleb128 0x19
 3623 01dd 11       		.uleb128 0x11
 3624 01de 01       		.uleb128 0x1
 3625 01df 12       		.uleb128 0x12
 3626 01e0 06       		.uleb128 0x6
 3627 01e1 40       		.uleb128 0x40
 3628 01e2 18       		.uleb128 0x18
 3629 01e3 9742     		.uleb128 0x2117
 3630 01e5 19       		.uleb128 0x19
 3631 01e6 01       		.uleb128 0x1
 3632 01e7 13       		.uleb128 0x13
ARM GAS  /var/folders/6q/x_mk5n_j3p7_c40r_2k_78980000gn/T//cczQbSnP.s 			page 65


 3633 01e8 00       		.byte	0
 3634 01e9 00       		.byte	0
 3635 01ea 28       		.uleb128 0x28
 3636 01eb 05       		.uleb128 0x5
 3637 01ec 00       		.byte	0
 3638 01ed 03       		.uleb128 0x3
 3639 01ee 08       		.uleb128 0x8
 3640 01ef 3A       		.uleb128 0x3a
 3641 01f0 0B       		.uleb128 0xb
 3642 01f1 3B       		.uleb128 0x3b
 3643 01f2 0B       		.uleb128 0xb
 3644 01f3 49       		.uleb128 0x49
 3645 01f4 13       		.uleb128 0x13
 3646 01f5 02       		.uleb128 0x2
 3647 01f6 17       		.uleb128 0x17
 3648 01f7 00       		.byte	0
 3649 01f8 00       		.byte	0
 3650 01f9 29       		.uleb128 0x29
 3651 01fa 898201   		.uleb128 0x4109
 3652 01fd 01       		.byte	0x1
 3653 01fe 11       		.uleb128 0x11
 3654 01ff 01       		.uleb128 0x1
 3655 0200 31       		.uleb128 0x31
 3656 0201 13       		.uleb128 0x13
 3657 0202 01       		.uleb128 0x1
 3658 0203 13       		.uleb128 0x13
 3659 0204 00       		.byte	0
 3660 0205 00       		.byte	0
 3661 0206 2A       		.uleb128 0x2a
 3662 0207 2E       		.uleb128 0x2e
 3663 0208 01       		.byte	0x1
 3664 0209 31       		.uleb128 0x31
 3665 020a 13       		.uleb128 0x13
 3666 020b 11       		.uleb128 0x11
 3667 020c 01       		.uleb128 0x1
 3668 020d 12       		.uleb128 0x12
 3669 020e 06       		.uleb128 0x6
 3670 020f 40       		.uleb128 0x40
 3671 0210 18       		.uleb128 0x18
 3672 0211 9742     		.uleb128 0x2117
 3673 0213 19       		.uleb128 0x19
 3674 0214 01       		.uleb128 0x1
 3675 0215 13       		.uleb128 0x13
 3676 0216 00       		.byte	0
 3677 0217 00       		.byte	0
 3678 0218 2B       		.uleb128 0x2b
 3679 0219 05       		.uleb128 0x5
 3680 021a 00       		.byte	0
 3681 021b 31       		.uleb128 0x31
 3682 021c 13       		.uleb128 0x13
 3683 021d 02       		.uleb128 0x2
 3684 021e 17       		.uleb128 0x17
 3685 021f 00       		.byte	0
 3686 0220 00       		.byte	0
 3687 0221 2C       		.uleb128 0x2c
 3688 0222 898201   		.uleb128 0x4109
 3689 0225 00       		.byte	0
ARM GAS  /var/folders/6q/x_mk5n_j3p7_c40r_2k_78980000gn/T//cczQbSnP.s 			page 66


 3690 0226 11       		.uleb128 0x11
 3691 0227 01       		.uleb128 0x1
 3692 0228 9542     		.uleb128 0x2115
 3693 022a 19       		.uleb128 0x19
 3694 022b 31       		.uleb128 0x31
 3695 022c 13       		.uleb128 0x13
 3696 022d 00       		.byte	0
 3697 022e 00       		.byte	0
 3698 022f 2D       		.uleb128 0x2d
 3699 0230 2E       		.uleb128 0x2e
 3700 0231 01       		.byte	0x1
 3701 0232 3F       		.uleb128 0x3f
 3702 0233 19       		.uleb128 0x19
 3703 0234 03       		.uleb128 0x3
 3704 0235 0E       		.uleb128 0xe
 3705 0236 3A       		.uleb128 0x3a
 3706 0237 0B       		.uleb128 0xb
 3707 0238 3B       		.uleb128 0x3b
 3708 0239 05       		.uleb128 0x5
 3709 023a 27       		.uleb128 0x27
 3710 023b 19       		.uleb128 0x19
 3711 023c 11       		.uleb128 0x11
 3712 023d 01       		.uleb128 0x1
 3713 023e 12       		.uleb128 0x12
 3714 023f 06       		.uleb128 0x6
 3715 0240 40       		.uleb128 0x40
 3716 0241 18       		.uleb128 0x18
 3717 0242 9742     		.uleb128 0x2117
 3718 0244 19       		.uleb128 0x19
 3719 0245 01       		.uleb128 0x1
 3720 0246 13       		.uleb128 0x13
 3721 0247 00       		.byte	0
 3722 0248 00       		.byte	0
 3723 0249 2E       		.uleb128 0x2e
 3724 024a 05       		.uleb128 0x5
 3725 024b 00       		.byte	0
 3726 024c 03       		.uleb128 0x3
 3727 024d 0E       		.uleb128 0xe
 3728 024e 3A       		.uleb128 0x3a
 3729 024f 0B       		.uleb128 0xb
 3730 0250 3B       		.uleb128 0x3b
 3731 0251 05       		.uleb128 0x5
 3732 0252 49       		.uleb128 0x49
 3733 0253 13       		.uleb128 0x13
 3734 0254 02       		.uleb128 0x2
 3735 0255 17       		.uleb128 0x17
 3736 0256 00       		.byte	0
 3737 0257 00       		.byte	0
 3738 0258 2F       		.uleb128 0x2f
 3739 0259 34       		.uleb128 0x34
 3740 025a 00       		.byte	0
 3741 025b 03       		.uleb128 0x3
 3742 025c 08       		.uleb128 0x8
 3743 025d 3A       		.uleb128 0x3a
 3744 025e 0B       		.uleb128 0xb
 3745 025f 3B       		.uleb128 0x3b
 3746 0260 05       		.uleb128 0x5
ARM GAS  /var/folders/6q/x_mk5n_j3p7_c40r_2k_78980000gn/T//cczQbSnP.s 			page 67


 3747 0261 49       		.uleb128 0x49
 3748 0262 13       		.uleb128 0x13
 3749 0263 02       		.uleb128 0x2
 3750 0264 17       		.uleb128 0x17
 3751 0265 00       		.byte	0
 3752 0266 00       		.byte	0
 3753 0267 30       		.uleb128 0x30
 3754 0268 1D       		.uleb128 0x1d
 3755 0269 01       		.byte	0x1
 3756 026a 31       		.uleb128 0x31
 3757 026b 13       		.uleb128 0x13
 3758 026c 52       		.uleb128 0x52
 3759 026d 01       		.uleb128 0x1
 3760 026e 55       		.uleb128 0x55
 3761 026f 17       		.uleb128 0x17
 3762 0270 58       		.uleb128 0x58
 3763 0271 0B       		.uleb128 0xb
 3764 0272 59       		.uleb128 0x59
 3765 0273 05       		.uleb128 0x5
 3766 0274 00       		.byte	0
 3767 0275 00       		.byte	0
 3768 0276 31       		.uleb128 0x31
 3769 0277 05       		.uleb128 0x5
 3770 0278 00       		.byte	0
 3771 0279 31       		.uleb128 0x31
 3772 027a 13       		.uleb128 0x13
 3773 027b 00       		.byte	0
 3774 027c 00       		.byte	0
 3775 027d 32       		.uleb128 0x32
 3776 027e 34       		.uleb128 0x34
 3777 027f 00       		.byte	0
 3778 0280 03       		.uleb128 0x3
 3779 0281 08       		.uleb128 0x8
 3780 0282 3A       		.uleb128 0x3a
 3781 0283 0B       		.uleb128 0xb
 3782 0284 3B       		.uleb128 0x3b
 3783 0285 05       		.uleb128 0x5
 3784 0286 49       		.uleb128 0x49
 3785 0287 13       		.uleb128 0x13
 3786 0288 00       		.byte	0
 3787 0289 00       		.byte	0
 3788 028a 33       		.uleb128 0x33
 3789 028b 898201   		.uleb128 0x4109
 3790 028e 01       		.byte	0x1
 3791 028f 11       		.uleb128 0x11
 3792 0290 01       		.uleb128 0x1
 3793 0291 9542     		.uleb128 0x2115
 3794 0293 19       		.uleb128 0x19
 3795 0294 31       		.uleb128 0x31
 3796 0295 13       		.uleb128 0x13
 3797 0296 00       		.byte	0
 3798 0297 00       		.byte	0
 3799 0298 34       		.uleb128 0x34
 3800 0299 2E       		.uleb128 0x2e
 3801 029a 01       		.byte	0x1
 3802 029b 03       		.uleb128 0x3
 3803 029c 0E       		.uleb128 0xe
ARM GAS  /var/folders/6q/x_mk5n_j3p7_c40r_2k_78980000gn/T//cczQbSnP.s 			page 68


 3804 029d 3A       		.uleb128 0x3a
 3805 029e 0B       		.uleb128 0xb
 3806 029f 3B       		.uleb128 0x3b
 3807 02a0 0B       		.uleb128 0xb
 3808 02a1 27       		.uleb128 0x27
 3809 02a2 19       		.uleb128 0x19
 3810 02a3 49       		.uleb128 0x49
 3811 02a4 13       		.uleb128 0x13
 3812 02a5 11       		.uleb128 0x11
 3813 02a6 01       		.uleb128 0x1
 3814 02a7 12       		.uleb128 0x12
 3815 02a8 06       		.uleb128 0x6
 3816 02a9 40       		.uleb128 0x40
 3817 02aa 18       		.uleb128 0x18
 3818 02ab 9742     		.uleb128 0x2117
 3819 02ad 19       		.uleb128 0x19
 3820 02ae 01       		.uleb128 0x1
 3821 02af 13       		.uleb128 0x13
 3822 02b0 00       		.byte	0
 3823 02b1 00       		.byte	0
 3824 02b2 35       		.uleb128 0x35
 3825 02b3 34       		.uleb128 0x34
 3826 02b4 00       		.byte	0
 3827 02b5 03       		.uleb128 0x3
 3828 02b6 08       		.uleb128 0x8
 3829 02b7 3A       		.uleb128 0x3a
 3830 02b8 0B       		.uleb128 0xb
 3831 02b9 3B       		.uleb128 0x3b
 3832 02ba 0B       		.uleb128 0xb
 3833 02bb 49       		.uleb128 0x49
 3834 02bc 13       		.uleb128 0x13
 3835 02bd 02       		.uleb128 0x2
 3836 02be 17       		.uleb128 0x17
 3837 02bf 00       		.byte	0
 3838 02c0 00       		.byte	0
 3839 02c1 36       		.uleb128 0x36
 3840 02c2 2E       		.uleb128 0x2e
 3841 02c3 01       		.byte	0x1
 3842 02c4 3F       		.uleb128 0x3f
 3843 02c5 19       		.uleb128 0x19
 3844 02c6 03       		.uleb128 0x3
 3845 02c7 0E       		.uleb128 0xe
 3846 02c8 3A       		.uleb128 0x3a
 3847 02c9 0B       		.uleb128 0xb
 3848 02ca 3B       		.uleb128 0x3b
 3849 02cb 05       		.uleb128 0x5
 3850 02cc 27       		.uleb128 0x27
 3851 02cd 19       		.uleb128 0x19
 3852 02ce 49       		.uleb128 0x49
 3853 02cf 13       		.uleb128 0x13
 3854 02d0 11       		.uleb128 0x11
 3855 02d1 01       		.uleb128 0x1
 3856 02d2 12       		.uleb128 0x12
 3857 02d3 06       		.uleb128 0x6
 3858 02d4 40       		.uleb128 0x40
 3859 02d5 18       		.uleb128 0x18
 3860 02d6 9742     		.uleb128 0x2117
ARM GAS  /var/folders/6q/x_mk5n_j3p7_c40r_2k_78980000gn/T//cczQbSnP.s 			page 69


 3861 02d8 19       		.uleb128 0x19
 3862 02d9 01       		.uleb128 0x1
 3863 02da 13       		.uleb128 0x13
 3864 02db 00       		.byte	0
 3865 02dc 00       		.byte	0
 3866 02dd 37       		.uleb128 0x37
 3867 02de 05       		.uleb128 0x5
 3868 02df 00       		.byte	0
 3869 02e0 03       		.uleb128 0x3
 3870 02e1 08       		.uleb128 0x8
 3871 02e2 3A       		.uleb128 0x3a
 3872 02e3 0B       		.uleb128 0xb
 3873 02e4 3B       		.uleb128 0x3b
 3874 02e5 05       		.uleb128 0x5
 3875 02e6 49       		.uleb128 0x49
 3876 02e7 13       		.uleb128 0x13
 3877 02e8 02       		.uleb128 0x2
 3878 02e9 17       		.uleb128 0x17
 3879 02ea 00       		.byte	0
 3880 02eb 00       		.byte	0
 3881 02ec 38       		.uleb128 0x38
 3882 02ed 34       		.uleb128 0x34
 3883 02ee 00       		.byte	0
 3884 02ef 03       		.uleb128 0x3
 3885 02f0 0E       		.uleb128 0xe
 3886 02f1 3A       		.uleb128 0x3a
 3887 02f2 0B       		.uleb128 0xb
 3888 02f3 3B       		.uleb128 0x3b
 3889 02f4 0B       		.uleb128 0xb
 3890 02f5 49       		.uleb128 0x49
 3891 02f6 13       		.uleb128 0x13
 3892 02f7 02       		.uleb128 0x2
 3893 02f8 18       		.uleb128 0x18
 3894 02f9 00       		.byte	0
 3895 02fa 00       		.byte	0
 3896 02fb 39       		.uleb128 0x39
 3897 02fc 34       		.uleb128 0x34
 3898 02fd 00       		.byte	0
 3899 02fe 03       		.uleb128 0x3
 3900 02ff 0E       		.uleb128 0xe
 3901 0300 3A       		.uleb128 0x3a
 3902 0301 0B       		.uleb128 0xb
 3903 0302 3B       		.uleb128 0x3b
 3904 0303 0B       		.uleb128 0xb
 3905 0304 49       		.uleb128 0x49
 3906 0305 13       		.uleb128 0x13
 3907 0306 00       		.byte	0
 3908 0307 00       		.byte	0
 3909 0308 3A       		.uleb128 0x3a
 3910 0309 34       		.uleb128 0x34
 3911 030a 00       		.byte	0
 3912 030b 03       		.uleb128 0x3
 3913 030c 0E       		.uleb128 0xe
 3914 030d 3A       		.uleb128 0x3a
 3915 030e 0B       		.uleb128 0xb
 3916 030f 3B       		.uleb128 0x3b
 3917 0310 0B       		.uleb128 0xb
ARM GAS  /var/folders/6q/x_mk5n_j3p7_c40r_2k_78980000gn/T//cczQbSnP.s 			page 70


 3918 0311 49       		.uleb128 0x49
 3919 0312 13       		.uleb128 0x13
 3920 0313 3F       		.uleb128 0x3f
 3921 0314 19       		.uleb128 0x19
 3922 0315 3C       		.uleb128 0x3c
 3923 0316 19       		.uleb128 0x19
 3924 0317 00       		.byte	0
 3925 0318 00       		.byte	0
 3926 0319 3B       		.uleb128 0x3b
 3927 031a 34       		.uleb128 0x34
 3928 031b 00       		.byte	0
 3929 031c 03       		.uleb128 0x3
 3930 031d 0E       		.uleb128 0xe
 3931 031e 3A       		.uleb128 0x3a
 3932 031f 0B       		.uleb128 0xb
 3933 0320 3B       		.uleb128 0x3b
 3934 0321 05       		.uleb128 0x5
 3935 0322 49       		.uleb128 0x49
 3936 0323 13       		.uleb128 0x13
 3937 0324 3F       		.uleb128 0x3f
 3938 0325 19       		.uleb128 0x19
 3939 0326 3C       		.uleb128 0x3c
 3940 0327 19       		.uleb128 0x19
 3941 0328 00       		.byte	0
 3942 0329 00       		.byte	0
 3943 032a 3C       		.uleb128 0x3c
 3944 032b 2E       		.uleb128 0x2e
 3945 032c 00       		.byte	0
 3946 032d 3F       		.uleb128 0x3f
 3947 032e 19       		.uleb128 0x19
 3948 032f 3C       		.uleb128 0x3c
 3949 0330 19       		.uleb128 0x19
 3950 0331 6E       		.uleb128 0x6e
 3951 0332 0E       		.uleb128 0xe
 3952 0333 03       		.uleb128 0x3
 3953 0334 0E       		.uleb128 0xe
 3954 0335 3A       		.uleb128 0x3a
 3955 0336 0B       		.uleb128 0xb
 3956 0337 3B       		.uleb128 0x3b
 3957 0338 0B       		.uleb128 0xb
 3958 0339 00       		.byte	0
 3959 033a 00       		.byte	0
 3960 033b 3D       		.uleb128 0x3d
 3961 033c 2E       		.uleb128 0x2e
 3962 033d 00       		.byte	0
 3963 033e 3F       		.uleb128 0x3f
 3964 033f 19       		.uleb128 0x19
 3965 0340 3C       		.uleb128 0x3c
 3966 0341 19       		.uleb128 0x19
 3967 0342 6E       		.uleb128 0x6e
 3968 0343 0E       		.uleb128 0xe
 3969 0344 03       		.uleb128 0x3
 3970 0345 0E       		.uleb128 0xe
 3971 0346 3A       		.uleb128 0x3a
 3972 0347 0B       		.uleb128 0xb
 3973 0348 3B       		.uleb128 0x3b
 3974 0349 05       		.uleb128 0x5
ARM GAS  /var/folders/6q/x_mk5n_j3p7_c40r_2k_78980000gn/T//cczQbSnP.s 			page 71


 3975 034a 00       		.byte	0
 3976 034b 00       		.byte	0
 3977 034c 00       		.byte	0
 3978              		.section	.debug_loc,"",%progbits
 3979              	.Ldebug_loc0:
 3980              	.LLST0:
 3981 0000 00000000 		.4byte	.LVL0
 3982 0004 0C000000 		.4byte	.LVL1
 3983 0008 0100     		.2byte	0x1
 3984 000a 50       		.byte	0x50
 3985 000b 0C000000 		.4byte	.LVL1
 3986 000f 5C000000 		.4byte	.LFE65
 3987 0013 0400     		.2byte	0x4
 3988 0015 F3       		.byte	0xf3
 3989 0016 01       		.uleb128 0x1
 3990 0017 50       		.byte	0x50
 3991 0018 9F       		.byte	0x9f
 3992 0019 00000000 		.4byte	0
 3993 001d 00000000 		.4byte	0
 3994              	.LLST1:
 3995 0021 00000000 		.4byte	.LVL0
 3996 0025 12000000 		.4byte	.LVL2
 3997 0029 0100     		.2byte	0x1
 3998 002b 51       		.byte	0x51
 3999 002c 12000000 		.4byte	.LVL2
 4000 0030 5C000000 		.4byte	.LFE65
 4001 0034 0400     		.2byte	0x4
 4002 0036 F3       		.byte	0xf3
 4003 0037 01       		.uleb128 0x1
 4004 0038 51       		.byte	0x51
 4005 0039 9F       		.byte	0x9f
 4006 003a 00000000 		.4byte	0
 4007 003e 00000000 		.4byte	0
 4008              	.LLST2:
 4009 0042 00000000 		.4byte	.LVL3
 4010 0046 2C000000 		.4byte	.LVL4
 4011 004a 0100     		.2byte	0x1
 4012 004c 50       		.byte	0x50
 4013 004d 2C000000 		.4byte	.LVL4
 4014 0051 3A000000 		.4byte	.LVL5
 4015 0055 0400     		.2byte	0x4
 4016 0057 F3       		.byte	0xf3
 4017 0058 01       		.uleb128 0x1
 4018 0059 50       		.byte	0x50
 4019 005a 9F       		.byte	0x9f
 4020 005b 3A000000 		.4byte	.LVL5
 4021 005f 3C000000 		.4byte	.LVL6
 4022 0063 0100     		.2byte	0x1
 4023 0065 50       		.byte	0x50
 4024 0066 3C000000 		.4byte	.LVL6
 4025 006a 74000000 		.4byte	.LFE63
 4026 006e 0400     		.2byte	0x4
 4027 0070 F3       		.byte	0xf3
 4028 0071 01       		.uleb128 0x1
 4029 0072 50       		.byte	0x50
 4030 0073 9F       		.byte	0x9f
 4031 0074 00000000 		.4byte	0
ARM GAS  /var/folders/6q/x_mk5n_j3p7_c40r_2k_78980000gn/T//cczQbSnP.s 			page 72


 4032 0078 00000000 		.4byte	0
 4033              	.LLST3:
 4034 007c 00000000 		.4byte	.LVL9
 4035 0080 18000000 		.4byte	.LVL10
 4036 0084 0100     		.2byte	0x1
 4037 0086 50       		.byte	0x50
 4038 0087 18000000 		.4byte	.LVL10
 4039 008b 78000000 		.4byte	.LFE66
 4040 008f 0400     		.2byte	0x4
 4041 0091 F3       		.byte	0xf3
 4042 0092 01       		.uleb128 0x1
 4043 0093 50       		.byte	0x50
 4044 0094 9F       		.byte	0x9f
 4045 0095 00000000 		.4byte	0
 4046 0099 00000000 		.4byte	0
 4047              	.LLST4:
 4048 009d 00000000 		.4byte	.LVL9
 4049 00a1 1A000000 		.4byte	.LVL11
 4050 00a5 0100     		.2byte	0x1
 4051 00a7 51       		.byte	0x51
 4052 00a8 1A000000 		.4byte	.LVL11
 4053 00ac 78000000 		.4byte	.LFE66
 4054 00b0 0400     		.2byte	0x4
 4055 00b2 F3       		.byte	0xf3
 4056 00b3 01       		.uleb128 0x1
 4057 00b4 51       		.byte	0x51
 4058 00b5 9F       		.byte	0x9f
 4059 00b6 00000000 		.4byte	0
 4060 00ba 00000000 		.4byte	0
 4061              	.LLST5:
 4062 00be 00000000 		.4byte	.LVL9
 4063 00c2 1D000000 		.4byte	.LVL12-1
 4064 00c6 0100     		.2byte	0x1
 4065 00c8 52       		.byte	0x52
 4066 00c9 1D000000 		.4byte	.LVL12-1
 4067 00cd 78000000 		.4byte	.LFE66
 4068 00d1 0400     		.2byte	0x4
 4069 00d3 F3       		.byte	0xf3
 4070 00d4 01       		.uleb128 0x1
 4071 00d5 52       		.byte	0x52
 4072 00d6 9F       		.byte	0x9f
 4073 00d7 00000000 		.4byte	0
 4074 00db 00000000 		.4byte	0
 4075              	.LLST6:
 4076 00df 00000000 		.4byte	.LVL15
 4077 00e3 06000000 		.4byte	.LVL16
 4078 00e7 0100     		.2byte	0x1
 4079 00e9 50       		.byte	0x50
 4080 00ea 06000000 		.4byte	.LVL16
 4081 00ee 20000000 		.4byte	.LFE67
 4082 00f2 0400     		.2byte	0x4
 4083 00f4 F3       		.byte	0xf3
 4084 00f5 01       		.uleb128 0x1
 4085 00f6 50       		.byte	0x50
 4086 00f7 9F       		.byte	0x9f
 4087 00f8 00000000 		.4byte	0
 4088 00fc 00000000 		.4byte	0
ARM GAS  /var/folders/6q/x_mk5n_j3p7_c40r_2k_78980000gn/T//cczQbSnP.s 			page 73


 4089              	.LLST7:
 4090 0100 00000000 		.4byte	.LVL18
 4091 0104 06000000 		.4byte	.LVL19
 4092 0108 0100     		.2byte	0x1
 4093 010a 50       		.byte	0x50
 4094 010b 06000000 		.4byte	.LVL19
 4095 010f 20000000 		.4byte	.LFE68
 4096 0113 0400     		.2byte	0x4
 4097 0115 F3       		.byte	0xf3
 4098 0116 01       		.uleb128 0x1
 4099 0117 50       		.byte	0x50
 4100 0118 9F       		.byte	0x9f
 4101 0119 00000000 		.4byte	0
 4102 011d 00000000 		.4byte	0
 4103              	.LLST8:
 4104 0121 00000000 		.4byte	.LVL21
 4105 0125 08000000 		.4byte	.LVL22
 4106 0129 0200     		.2byte	0x2
 4107 012b 30       		.byte	0x30
 4108 012c 9F       		.byte	0x9f
 4109 012d 00000000 		.4byte	0
 4110 0131 00000000 		.4byte	0
 4111              	.LLST9:
 4112 0135 00000000 		.4byte	.LVL26
 4113 0139 08000000 		.4byte	.LVL27
 4114 013d 0100     		.2byte	0x1
 4115 013f 50       		.byte	0x50
 4116 0140 08000000 		.4byte	.LVL27
 4117 0144 3C000000 		.4byte	.LFE71
 4118 0148 0400     		.2byte	0x4
 4119 014a F3       		.byte	0xf3
 4120 014b 01       		.uleb128 0x1
 4121 014c 50       		.byte	0x50
 4122 014d 9F       		.byte	0x9f
 4123 014e 00000000 		.4byte	0
 4124 0152 00000000 		.4byte	0
 4125              	.LLST10:
 4126 0156 00000000 		.4byte	.LVL30
 4127 015a 1A000000 		.4byte	.LVL31
 4128 015e 0100     		.2byte	0x1
 4129 0160 50       		.byte	0x50
 4130 0161 1A000000 		.4byte	.LVL31
 4131 0165 F8000000 		.4byte	.LFE64
 4132 0169 0400     		.2byte	0x4
 4133 016b F3       		.byte	0xf3
 4134 016c 01       		.uleb128 0x1
 4135 016d 50       		.byte	0x50
 4136 016e 9F       		.byte	0x9f
 4137 016f 00000000 		.4byte	0
 4138 0173 00000000 		.4byte	0
 4139              	.LLST11:
 4140 0177 8E000000 		.4byte	.LVL36
 4141 017b 90000000 		.4byte	.LVL37
 4142 017f 0200     		.2byte	0x2
 4143 0181 30       		.byte	0x30
 4144 0182 9F       		.byte	0x9f
 4145 0183 90000000 		.4byte	.LVL37
ARM GAS  /var/folders/6q/x_mk5n_j3p7_c40r_2k_78980000gn/T//cczQbSnP.s 			page 74


 4146 0187 A8000000 		.4byte	.LVL38
 4147 018b 0500     		.2byte	0x5
 4148 018d 36       		.byte	0x36
 4149 018e 71       		.byte	0x71
 4150 018f 00       		.sleb128 0
 4151 0190 1C       		.byte	0x1c
 4152 0191 9F       		.byte	0x9f
 4153 0192 00000000 		.4byte	0
 4154 0196 00000000 		.4byte	0
 4155              	.LLST12:
 4156 019a 00000000 		.4byte	.LVL39
 4157 019e 06000000 		.4byte	.LVL40
 4158 01a2 0100     		.2byte	0x1
 4159 01a4 50       		.byte	0x50
 4160 01a5 06000000 		.4byte	.LVL40
 4161 01a9 1C000000 		.4byte	.LFE72
 4162 01ad 0400     		.2byte	0x4
 4163 01af F3       		.byte	0xf3
 4164 01b0 01       		.uleb128 0x1
 4165 01b1 50       		.byte	0x50
 4166 01b2 9F       		.byte	0x9f
 4167 01b3 00000000 		.4byte	0
 4168 01b7 00000000 		.4byte	0
 4169              	.LLST13:
 4170 01bb 00000000 		.4byte	.LVL41
 4171 01bf 06000000 		.4byte	.LVL42
 4172 01c3 0100     		.2byte	0x1
 4173 01c5 50       		.byte	0x50
 4174 01c6 06000000 		.4byte	.LVL42
 4175 01ca 1C000000 		.4byte	.LFE73
 4176 01ce 0400     		.2byte	0x4
 4177 01d0 F3       		.byte	0xf3
 4178 01d1 01       		.uleb128 0x1
 4179 01d2 50       		.byte	0x50
 4180 01d3 9F       		.byte	0x9f
 4181 01d4 00000000 		.4byte	0
 4182 01d8 00000000 		.4byte	0
 4183              	.LLST14:
 4184 01dc 00000000 		.4byte	.LVL43
 4185 01e0 0A000000 		.4byte	.LVL44
 4186 01e4 0100     		.2byte	0x1
 4187 01e6 50       		.byte	0x50
 4188 01e7 0A000000 		.4byte	.LVL44
 4189 01eb 42000000 		.4byte	.LVL48
 4190 01ef 0100     		.2byte	0x1
 4191 01f1 56       		.byte	0x56
 4192 01f2 42000000 		.4byte	.LVL48
 4193 01f6 50000000 		.4byte	.LFE74
 4194 01fa 0400     		.2byte	0x4
 4195 01fc F3       		.byte	0xf3
 4196 01fd 01       		.uleb128 0x1
 4197 01fe 50       		.byte	0x50
 4198 01ff 9F       		.byte	0x9f
 4199 0200 00000000 		.4byte	0
 4200 0204 00000000 		.4byte	0
 4201              	.LLST15:
 4202 0208 00000000 		.4byte	.LVL43
ARM GAS  /var/folders/6q/x_mk5n_j3p7_c40r_2k_78980000gn/T//cczQbSnP.s 			page 75


 4203 020c 0A000000 		.4byte	.LVL44
 4204 0210 0100     		.2byte	0x1
 4205 0212 51       		.byte	0x51
 4206 0213 0A000000 		.4byte	.LVL44
 4207 0217 50000000 		.4byte	.LFE74
 4208 021b 0400     		.2byte	0x4
 4209 021d F3       		.byte	0xf3
 4210 021e 01       		.uleb128 0x1
 4211 021f 51       		.byte	0x51
 4212 0220 9F       		.byte	0x9f
 4213 0221 00000000 		.4byte	0
 4214 0225 00000000 		.4byte	0
 4215              	.LLST16:
 4216 0229 00000000 		.4byte	.LVL43
 4217 022d 0A000000 		.4byte	.LVL44
 4218 0231 0100     		.2byte	0x1
 4219 0233 52       		.byte	0x52
 4220 0234 0A000000 		.4byte	.LVL44
 4221 0238 50000000 		.4byte	.LFE74
 4222 023c 0400     		.2byte	0x4
 4223 023e F3       		.byte	0xf3
 4224 023f 01       		.uleb128 0x1
 4225 0240 52       		.byte	0x52
 4226 0241 9F       		.byte	0x9f
 4227 0242 00000000 		.4byte	0
 4228 0246 00000000 		.4byte	0
 4229              	.LLST17:
 4230 024a 00000000 		.4byte	.LVL43
 4231 024e 0A000000 		.4byte	.LVL44
 4232 0252 0200     		.2byte	0x2
 4233 0254 30       		.byte	0x30
 4234 0255 9F       		.byte	0x9f
 4235 0256 0A000000 		.4byte	.LVL44
 4236 025a 2E000000 		.4byte	.LVL46
 4237 025e 0100     		.2byte	0x1
 4238 0260 55       		.byte	0x55
 4239 0261 00000000 		.4byte	0
 4240 0265 00000000 		.4byte	0
 4241              		.section	.debug_aranges,"",%progbits
 4242 0000 74000000 		.4byte	0x74
 4243 0004 0200     		.2byte	0x2
 4244 0006 00000000 		.4byte	.Ldebug_info0
 4245 000a 04       		.byte	0x4
 4246 000b 00       		.byte	0
 4247 000c 0000     		.2byte	0
 4248 000e 0000     		.2byte	0
 4249 0010 00000000 		.4byte	.LFB65
 4250 0014 5C000000 		.4byte	.LFE65-.LFB65
 4251 0018 00000000 		.4byte	.LFB63
 4252 001c 74000000 		.4byte	.LFE63-.LFB63
 4253 0020 00000000 		.4byte	.LFB66
 4254 0024 78000000 		.4byte	.LFE66-.LFB66
 4255 0028 00000000 		.4byte	.LFB67
 4256 002c 20000000 		.4byte	.LFE67-.LFB67
 4257 0030 00000000 		.4byte	.LFB68
 4258 0034 20000000 		.4byte	.LFE68-.LFB68
 4259 0038 00000000 		.4byte	.LFB69
ARM GAS  /var/folders/6q/x_mk5n_j3p7_c40r_2k_78980000gn/T//cczQbSnP.s 			page 76


 4260 003c 2C000000 		.4byte	.LFE69-.LFB69
 4261 0040 00000000 		.4byte	.LFB70
 4262 0044 4C000000 		.4byte	.LFE70-.LFB70
 4263 0048 00000000 		.4byte	.LFB71
 4264 004c 3C000000 		.4byte	.LFE71-.LFB71
 4265 0050 00000000 		.4byte	.LFB64
 4266 0054 F8000000 		.4byte	.LFE64-.LFB64
 4267 0058 00000000 		.4byte	.LFB72
 4268 005c 1C000000 		.4byte	.LFE72-.LFB72
 4269 0060 00000000 		.4byte	.LFB73
 4270 0064 1C000000 		.4byte	.LFE73-.LFB73
 4271 0068 00000000 		.4byte	.LFB74
 4272 006c 50000000 		.4byte	.LFE74-.LFB74
 4273 0070 00000000 		.4byte	0
 4274 0074 00000000 		.4byte	0
 4275              		.section	.debug_ranges,"",%progbits
 4276              	.Ldebug_ranges0:
 4277 0000 2E000000 		.4byte	.LBB5
 4278 0004 34000000 		.4byte	.LBE5
 4279 0008 40000000 		.4byte	.LBB6
 4280 000c 46000000 		.4byte	.LBE6
 4281 0010 00000000 		.4byte	0
 4282 0014 00000000 		.4byte	0
 4283 0018 12000000 		.4byte	.LBB8
 4284 001c 1A000000 		.4byte	.LBE8
 4285 0020 32000000 		.4byte	.LBB9
 4286 0024 3A000000 		.4byte	.LBE9
 4287 0028 5A000000 		.4byte	.LBB10
 4288 002c 74000000 		.4byte	.LBE10
 4289 0030 00000000 		.4byte	0
 4290 0034 00000000 		.4byte	0
 4291 0038 08000000 		.4byte	.LBB11
 4292 003c 10000000 		.4byte	.LBE11
 4293 0040 16000000 		.4byte	.LBB14
 4294 0044 2C000000 		.4byte	.LBE14
 4295 0048 00000000 		.4byte	0
 4296 004c 00000000 		.4byte	0
 4297 0050 00000000 		.4byte	.LFB65
 4298 0054 5C000000 		.4byte	.LFE65
 4299 0058 00000000 		.4byte	.LFB63
 4300 005c 74000000 		.4byte	.LFE63
 4301 0060 00000000 		.4byte	.LFB66
 4302 0064 78000000 		.4byte	.LFE66
 4303 0068 00000000 		.4byte	.LFB67
 4304 006c 20000000 		.4byte	.LFE67
 4305 0070 00000000 		.4byte	.LFB68
 4306 0074 20000000 		.4byte	.LFE68
 4307 0078 00000000 		.4byte	.LFB69
 4308 007c 2C000000 		.4byte	.LFE69
 4309 0080 00000000 		.4byte	.LFB70
 4310 0084 4C000000 		.4byte	.LFE70
 4311 0088 00000000 		.4byte	.LFB71
 4312 008c 3C000000 		.4byte	.LFE71
 4313 0090 00000000 		.4byte	.LFB64
 4314 0094 F8000000 		.4byte	.LFE64
 4315 0098 00000000 		.4byte	.LFB72
 4316 009c 1C000000 		.4byte	.LFE72
ARM GAS  /var/folders/6q/x_mk5n_j3p7_c40r_2k_78980000gn/T//cczQbSnP.s 			page 77


 4317 00a0 00000000 		.4byte	.LFB73
 4318 00a4 1C000000 		.4byte	.LFE73
 4319 00a8 00000000 		.4byte	.LFB74
 4320 00ac 50000000 		.4byte	.LFE74
 4321 00b0 00000000 		.4byte	0
 4322 00b4 00000000 		.4byte	0
 4323              		.section	.debug_line,"",%progbits
 4324              	.Ldebug_line0:
 4325 0000 30050000 		.section	.debug_str,"MS",%progbits,1
 4325      0200A603 
 4325      00000201 
 4325      FB0E0D00 
 4325      01010101 
 4326              	.LASF55:
 4327 0000 54687265 		.ascii	"ThreadsList\000"
 4327      6164734C 
 4327      69737400 
 4328              	.LASF60:
 4329 000c 76746675 		.ascii	"vtfunc_t\000"
 4329      6E635F74 
 4329      00
 4330              	.LASF182:
 4331 0015 6B536F6E 		.ascii	"kSonarStatePing\000"
 4331      61725374 
 4331      61746550 
 4331      696E6700 
 4332              	.LASF46:
 4333 0025 705F7469 		.ascii	"p_time\000"
 4333      6D6500
 4334              	.LASF88:
 4335 002c 42535252 		.ascii	"BSRR\000"
 4335      00
 4336              	.LASF207:
 4337 0031 76657853 		.ascii	"vexSonarGpt\000"
 4337      6F6E6172 
 4337      47707400 
 4338              	.LASF56:
 4339 003d 72656761 		.ascii	"regarm_t\000"
 4339      726D5F74 
 4339      00
 4340              	.LASF37:
 4341 0046 705F7072 		.ascii	"p_prio\000"
 4341      696F00
 4342              	.LASF166:
 4343 004d 666C6167 		.ascii	"flags\000"
 4343      7300
 4344              	.LASF33:
 4345 0053 73797374 		.ascii	"systime_t\000"
 4345      696D655F 
 4345      7400
 4346              	.LASF78:
 4347 005d 6D5F6F77 		.ascii	"m_owner\000"
 4347      6E657200 
 4348              	.LASF67:
 4349 0065 76745F73 		.ascii	"vt_systime\000"
 4349      79737469 
 4349      6D6500
ARM GAS  /var/folders/6q/x_mk5n_j3p7_c40r_2k_78980000gn/T//cczQbSnP.s 			page 78


 4350              	.LASF216:
 4351 0070 67707453 		.ascii	"gptStartOneShotI\000"
 4351      74617274 
 4351      4F6E6553 
 4351      686F7449 
 4351      00
 4352              	.LASF48:
 4353 0081 705F6D73 		.ascii	"p_msgqueue\000"
 4353      67717565 
 4353      756500
 4354              	.LASF0:
 4355 008c 756E7369 		.ascii	"unsigned int\000"
 4355      676E6564 
 4355      20696E74 
 4355      00
 4356              	.LASF109:
 4357 0099 4750545F 		.ascii	"GPT_ONESHOT\000"
 4357      4F4E4553 
 4357      484F5400 
 4358              	.LASF113:
 4359 00a5 67707463 		.ascii	"gptcallback_t\000"
 4359      616C6C62 
 4359      61636B5F 
 4359      7400
 4360              	.LASF130:
 4361 00b3 76657853 		.ascii	"vexStream\000"
 4361      74726561 
 4361      6D00
 4362              	.LASF47:
 4363 00bd 705F7761 		.ascii	"p_waiting\000"
 4363      6974696E 
 4363      6700
 4364              	.LASF152:
 4365 00c7 696F4465 		.ascii	"ioDef\000"
 4365      6600
 4366              	.LASF11:
 4367 00cd 5F5F696E 		.ascii	"__int32_t\000"
 4367      7433325F 
 4367      7400
 4368              	.LASF84:
 4369 00d7 42617365 		.ascii	"BaseSequentialStreamVMT\000"
 4369      53657175 
 4369      656E7469 
 4369      616C5374 
 4369      7265616D 
 4370              	.LASF222:
 4371 00ef 67707453 		.ascii	"gptStartOneShot\000"
 4371      74617274 
 4371      4F6E6553 
 4371      686F7400 
 4372              	.LASF106:
 4373 00ff 4750545F 		.ascii	"GPT_STOP\000"
 4373      53544F50 
 4373      00
 4374              	.LASF82:
 4375 0108 77746F62 		.ascii	"wtobjp\000"
 4375      6A7000
ARM GAS  /var/folders/6q/x_mk5n_j3p7_c40r_2k_78980000gn/T//cczQbSnP.s 			page 79


 4376              	.LASF209:
 4377 010f 76746C69 		.ascii	"vtlist\000"
 4377      737400
 4378              	.LASF129:
 4379 0116 47505443 		.ascii	"GPTConfig\000"
 4379      6F6E6669 
 4379      6700
 4380              	.LASF149:
 4381 0120 5F696F44 		.ascii	"_ioDef\000"
 4381      656600
 4382              	.LASF199:
 4383 0127 76657853 		.ascii	"vexSonarDebug\000"
 4383      6F6E6172 
 4383      44656275 
 4383      6700
 4384              	.LASF101:
 4385 0135 6D6F6465 		.ascii	"mode\000"
 4385      00
 4386              	.LASF96:
 4387 013a 45585444 		.ascii	"EXTDriver\000"
 4387      72697665 
 4387      7200
 4388              	.LASF187:
 4389 0144 65787470 		.ascii	"extp\000"
 4389      00
 4390              	.LASF145:
 4391 0149 74566578 		.ascii	"tVexDigitalPin\000"
 4391      44696769 
 4391      74616C50 
 4391      696E00
 4392              	.LASF189:
 4393 0158 5F76735F 		.ascii	"_vs_echo_cb\000"
 4393      6563686F 
 4393      5F636200 
 4394              	.LASF143:
 4395 0164 6B566578 		.ascii	"kVexDigital_12\000"
 4395      44696769 
 4395      74616C5F 
 4395      313200
 4396              	.LASF64:
 4397 0173 76745F74 		.ascii	"vt_time\000"
 4397      696D6500 
 4398              	.LASF23:
 4399 017b 75696E74 		.ascii	"uint32_t\000"
 4399      33325F74 
 4399      00
 4400              	.LASF164:
 4401 0184 64697374 		.ascii	"distance_cm\000"
 4401      616E6365 
 4401      5F636D00 
 4402              	.LASF168:
 4403 0190 70615F70 		.ascii	"pa_pad\000"
 4403      616400
 4404              	.LASF70:
 4405 0197 725F7072 		.ascii	"r_prio\000"
 4405      696F00
 4406              	.LASF119:
ARM GAS  /var/folders/6q/x_mk5n_j3p7_c40r_2k_78980000gn/T//cczQbSnP.s 			page 80


 4407 019e 42445452 		.ascii	"BDTR\000"
 4407      00
 4408              	.LASF66:
 4409 01a3 76745F70 		.ascii	"vt_par\000"
 4409      617200
 4410              	.LASF228:
 4411 01aa 2E2E2F63 		.ascii	"../convex-vexilla/cortex/fw/vexsonar.c\000"
 4411      6F6E7665 
 4411      782D7665 
 4411      78696C6C 
 4411      612F636F 
 4412              	.LASF144:
 4413 01d1 6B566578 		.ascii	"kVexDigital_Num\000"
 4413      44696769 
 4413      74616C5F 
 4413      4E756D00 
 4414              	.LASF30:
 4415 01e1 74707269 		.ascii	"tprio_t\000"
 4415      6F5F7400 
 4416              	.LASF193:
 4417 01e9 76657853 		.ascii	"vexSonarStop\000"
 4417      6F6E6172 
 4417      53746F70 
 4417      00
 4418              	.LASF122:
 4419 01f6 43435235 		.ascii	"CCR5\000"
 4419      00
 4420              	.LASF123:
 4421 01fb 43435236 		.ascii	"CCR6\000"
 4421      00
 4422              	.LASF116:
 4423 0200 43434D52 		.ascii	"CCMR1\000"
 4423      3100
 4424              	.LASF117:
 4425 0206 43434D52 		.ascii	"CCMR2\000"
 4425      3200
 4426              	.LASF121:
 4427 020c 43434D52 		.ascii	"CCMR3\000"
 4427      3300
 4428              	.LASF20:
 4429 0212 696E7431 		.ascii	"int16_t\000"
 4429      365F7400 
 4430              	.LASF16:
 4431 021a 6C6F6E67 		.ascii	"long long unsigned int\000"
 4431      206C6F6E 
 4431      6720756E 
 4431      7369676E 
 4431      65642069 
 4432              	.LASF203:
 4433 0231 736F6E61 		.ascii	"sonarGpt\000"
 4433      72477074 
 4433      00
 4434              	.LASF219:
 4435 023a 65787443 		.ascii	"extChannelEnable\000"
 4435      68616E6E 
 4435      656C456E 
 4435      61626C65 
ARM GAS  /var/folders/6q/x_mk5n_j3p7_c40r_2k_78980000gn/T//cczQbSnP.s 			page 81


 4435      00
 4436              	.LASF9:
 4437 024b 5F5F7569 		.ascii	"__uint16_t\000"
 4437      6E743136 
 4437      5F7400
 4438              	.LASF163:
 4439 0256 74696D65 		.ascii	"time\000"
 4439      00
 4440              	.LASF39:
 4441 025b 705F6E65 		.ascii	"p_newer\000"
 4441      77657200 
 4442              	.LASF151:
 4443 0263 696E7472 		.ascii	"intrCount\000"
 4443      436F756E 
 4443      7400
 4444              	.LASF133:
 4445 026d 6B566578 		.ascii	"kVexDigital_2\000"
 4445      44696769 
 4445      74616C5F 
 4445      3200
 4446              	.LASF4:
 4447 027b 73697A65 		.ascii	"size_t\000"
 4447      5F7400
 4448              	.LASF80:
 4449 0282 7264796D 		.ascii	"rdymsg\000"
 4449      736700
 4450              	.LASF124:
 4451 0289 73746D33 		.ascii	"stm32_tim_t\000"
 4451      325F7469 
 4451      6D5F7400 
 4452              	.LASF158:
 4453 0295 6B566578 		.ascii	"kVexSonar_Num\000"
 4453      536F6E61 
 4453      725F4E75 
 4453      6D00
 4454              	.LASF25:
 4455 02a3 5F426F6F 		.ascii	"_Bool\000"
 4455      6C00
 4456              	.LASF225:
 4457 02a9 63685468 		.ascii	"chThdSleepUntil\000"
 4457      64536C65 
 4457      6570556E 
 4457      74696C00 
 4458              	.LASF231:
 4459 02b9 56657853 		.ascii	"VexSonarTask\000"
 4459      6F6E6172 
 4459      5461736B 
 4459      00
 4460              	.LASF15:
 4461 02c6 5F5F7569 		.ascii	"__uint64_t\000"
 4461      6E743634 
 4461      5F7400
 4462              	.LASF169:
 4463 02d1 70625F70 		.ascii	"pb_port\000"
 4463      6F727400 
 4464              	.LASF115:
 4465 02d9 44494552 		.ascii	"DIER\000"
ARM GAS  /var/folders/6q/x_mk5n_j3p7_c40r_2k_78980000gn/T//cczQbSnP.s 			page 82


 4465      00
 4466              	.LASF148:
 4467 02de 74566578 		.ascii	"tVexDigitalMode\000"
 4467      44696769 
 4467      74616C4D 
 4467      6F646500 
 4468              	.LASF76:
 4469 02ee 4D757465 		.ascii	"Mutex\000"
 4469      7800
 4470              	.LASF91:
 4471 02f4 696F706F 		.ascii	"ioportid_t\000"
 4471      72746964 
 4471      5F7400
 4472              	.LASF112:
 4473 02ff 636C6F63 		.ascii	"clock\000"
 4473      6B00
 4474              	.LASF107:
 4475 0305 4750545F 		.ascii	"GPT_READY\000"
 4475      52454144 
 4475      5900
 4476              	.LASF87:
 4477 030f 42617365 		.ascii	"BaseSequentialStream\000"
 4477      53657175 
 4477      656E7469 
 4477      616C5374 
 4477      7265616D 
 4478              	.LASF125:
 4479 0324 67707466 		.ascii	"gptfreq_t\000"
 4479      7265715F 
 4479      7400
 4480              	.LASF215:
 4481 032e 76657844 		.ascii	"vexDigitalPinSet\000"
 4481      69676974 
 4481      616C5069 
 4481      6E536574 
 4481      00
 4482              	.LASF180:
 4483 033f 6B496D65 		.ascii	"kImeTotal\000"
 4483      546F7461 
 4483      6C00
 4484              	.LASF186:
 4485 0349 74566578 		.ascii	"tVexSonnarState\000"
 4485      536F6E6E 
 4485      61725374 
 4485      61746500 
 4486              	.LASF118:
 4487 0359 43434552 		.ascii	"CCER\000"
 4487      00
 4488              	.LASF196:
 4489 035e 76657853 		.ascii	"vexSonarPing\000"
 4489      6F6E6172 
 4489      50696E67 
 4489      00
 4490              	.LASF54:
 4491 036b 54687265 		.ascii	"ThreadsQueue\000"
 4491      61647351 
 4491      75657565 
ARM GAS  /var/folders/6q/x_mk5n_j3p7_c40r_2k_78980000gn/T//cczQbSnP.s 			page 83


 4491      00
 4492              	.LASF18:
 4493 0378 63686172 		.ascii	"char\000"
 4493      00
 4494              	.LASF72:
 4495 037d 725F6E65 		.ascii	"r_newer\000"
 4495      77657200 
 4496              	.LASF227:
 4497 0385 474E5520 		.ascii	"GNU C11 5.4.1 20160919 (release) [ARM/embedded-5-br"
 4497      43313120 
 4497      352E342E 
 4497      31203230 
 4497      31363039 
 4498 03b8 616E6368 		.ascii	"anch revision 240496] -mcpu=cortex-m3 -mno-thumb-in"
 4498      20726576 
 4498      6973696F 
 4498      6E203234 
 4498      30343936 
 4499 03eb 74657277 		.ascii	"terwork -mthumb -ggdb -O2 -fomit-frame-pointer -fal"
 4499      6F726B20 
 4499      2D6D7468 
 4499      756D6220 
 4499      2D676764 
 4500 041e 69676E2D 		.ascii	"ign-functions=16 -ffunction-sections -fdata-section"
 4500      66756E63 
 4500      74696F6E 
 4500      733D3136 
 4500      202D6666 
 4501 0451 73202D66 		.ascii	"s -fno-common\000"
 4501      6E6F2D63 
 4501      6F6D6D6F 
 4501      6E00
 4502              	.LASF229:
 4503 045f 2F557365 		.ascii	"/Users/Luca/src/vexilla/src/teamA\000"
 4503      72732F4C 
 4503      7563612F 
 4503      7372632F 
 4503      76657869 
 4504              	.LASF108:
 4505 0481 4750545F 		.ascii	"GPT_CONTINUOUS\000"
 4505      434F4E54 
 4505      494E554F 
 4505      555300
 4506              	.LASF198:
 4507 0490 76657853 		.ascii	"vexSonarGetInch\000"
 4507      6F6E6172 
 4507      47657449 
 4507      6E636800 
 4508              	.LASF27:
 4509 04a0 74737461 		.ascii	"tstate_t\000"
 4509      74655F74 
 4509      00
 4510              	.LASF68:
 4511 04a9 56544C69 		.ascii	"VTList\000"
 4511      737400
 4512              	.LASF104:
 4513 04b0 45585443 		.ascii	"EXTConfig\000"
ARM GAS  /var/folders/6q/x_mk5n_j3p7_c40r_2k_78980000gn/T//cczQbSnP.s 			page 84


 4513      6F6E6669 
 4513      6700
 4514              	.LASF162:
 4515 04ba 74696D65 		.ascii	"time_f\000"
 4515      5F6600
 4516              	.LASF42:
 4517 04c1 705F7374 		.ascii	"p_state\000"
 4517      61746500 
 4518              	.LASF208:
 4519 04c9 77615665 		.ascii	"waVexSonarTask\000"
 4519      78536F6E 
 4519      61725461 
 4519      736B00
 4520              	.LASF19:
 4521 04d8 75696E74 		.ascii	"uint8_t\000"
 4521      385F7400 
 4522              	.LASF161:
 4523 04e0 74696D65 		.ascii	"time_r\000"
 4523      5F7200
 4524              	.LASF53:
 4525 04e7 705F6D70 		.ascii	"p_mpool\000"
 4525      6F6F6C00 
 4526              	.LASF206:
 4527 04ef 76657853 		.ascii	"vexSonarThread\000"
 4527      6F6E6172 
 4527      54687265 
 4527      616400
 4528              	.LASF51:
 4529 04fe 705F6D74 		.ascii	"p_mtxlist\000"
 4529      786C6973 
 4529      7400
 4530              	.LASF171:
 4531 0508 76657853 		.ascii	"vexSonar_t\000"
 4531      6F6E6172 
 4531      5F7400
 4532              	.LASF184:
 4533 0513 6B536F6E 		.ascii	"kSonarStateDone\000"
 4533      61725374 
 4533      61746544 
 4533      6F6E6500 
 4534              	.LASF114:
 4535 0523 534D4352 		.ascii	"SMCR\000"
 4535      00
 4536              	.LASF220:
 4537 0528 65787443 		.ascii	"extChannelDisable\000"
 4537      68616E6E 
 4537      656C4469 
 4537      7361626C 
 4537      6500
 4538              	.LASF100:
 4539 053a 65787463 		.ascii	"extcallback_t\000"
 4539      616C6C62 
 4539      61636B5F 
 4539      7400
 4540              	.LASF213:
 4541 0548 47505444 		.ascii	"GPTD5\000"
 4541      3500
ARM GAS  /var/folders/6q/x_mk5n_j3p7_c40r_2k_78980000gn/T//cczQbSnP.s 			page 85


 4542              	.LASF1:
 4543 054e 6C6F6E67 		.ascii	"long long int\000"
 4543      206C6F6E 
 4543      6720696E 
 4543      7400
 4544              	.LASF85:
 4545 055c 77726974 		.ascii	"write\000"
 4545      6500
 4546              	.LASF69:
 4547 0562 725F7175 		.ascii	"r_queue\000"
 4547      65756500 
 4548              	.LASF103:
 4549 056a 6368616E 		.ascii	"channels\000"
 4549      6E656C73 
 4549      00
 4550              	.LASF32:
 4551 0573 6576656E 		.ascii	"eventmask_t\000"
 4551      746D6173 
 4551      6B5F7400 
 4552              	.LASF212:
 4553 057f 45585444 		.ascii	"EXTD1\000"
 4553      3100
 4554              	.LASF141:
 4555 0585 6B566578 		.ascii	"kVexDigital_10\000"
 4555      44696769 
 4555      74616C5F 
 4555      313000
 4556              	.LASF142:
 4557 0594 6B566578 		.ascii	"kVexDigital_11\000"
 4557      44696769 
 4557      74616C5F 
 4557      313100
 4558              	.LASF31:
 4559 05a3 6D73675F 		.ascii	"msg_t\000"
 4559      7400
 4560              	.LASF59:
 4561 05a9 636F6E74 		.ascii	"context\000"
 4561      65787400 
 4562              	.LASF43:
 4563 05b1 705F666C 		.ascii	"p_flags\000"
 4563      61677300 
 4564              	.LASF7:
 4565 05b9 5F5F696E 		.ascii	"__int16_t\000"
 4565      7431365F 
 4565      7400
 4566              	.LASF147:
 4567 05c3 6B566578 		.ascii	"kVexDigitalOutput\000"
 4567      44696769 
 4567      74616C4F 
 4567      75747075 
 4567      7400
 4568              	.LASF194:
 4569 05d5 76657853 		.ascii	"vexSonarStartAll\000"
 4569      6F6E6172 
 4569      53746172 
 4569      74416C6C 
 4569      00
ARM GAS  /var/folders/6q/x_mk5n_j3p7_c40r_2k_78980000gn/T//cczQbSnP.s 			page 86


 4570              	.LASF128:
 4571 05e6 64696572 		.ascii	"dier\000"
 4571      00
 4572              	.LASF92:
 4573 05eb 4558545F 		.ascii	"EXT_UNINIT\000"
 4573      554E494E 
 4573      495400
 4574              	.LASF94:
 4575 05f6 4558545F 		.ascii	"EXT_ACTIVE\000"
 4575      41435449 
 4575      564500
 4576              	.LASF89:
 4577 0601 4C434B52 		.ascii	"LCKR\000"
 4577      00
 4578              	.LASF29:
 4579 0606 74736C69 		.ascii	"tslices_t\000"
 4579      6365735F 
 4579      7400
 4580              	.LASF73:
 4581 0610 725F6F6C 		.ascii	"r_older\000"
 4581      64657200 
 4582              	.LASF202:
 4583 0618 76657853 		.ascii	"vexSonars\000"
 4583      6F6E6172 
 4583      7300
 4584              	.LASF132:
 4585 0622 6B566578 		.ascii	"kVexDigital_1\000"
 4585      44696769 
 4585      74616C5F 
 4585      3100
 4586              	.LASF159:
 4587 0630 74566578 		.ascii	"tVexSonarChannel\000"
 4587      536F6E61 
 4587      72436861 
 4587      6E6E656C 
 4587      00
 4588              	.LASF134:
 4589 0641 6B566578 		.ascii	"kVexDigital_3\000"
 4589      44696769 
 4589      74616C5F 
 4589      3300
 4590              	.LASF135:
 4591 064f 6B566578 		.ascii	"kVexDigital_4\000"
 4591      44696769 
 4591      74616C5F 
 4591      3400
 4592              	.LASF136:
 4593 065d 6B566578 		.ascii	"kVexDigital_5\000"
 4593      44696769 
 4593      74616C5F 
 4593      3500
 4594              	.LASF137:
 4595 066b 6B566578 		.ascii	"kVexDigital_6\000"
 4595      44696769 
 4595      74616C5F 
 4595      3600
 4596              	.LASF138:
ARM GAS  /var/folders/6q/x_mk5n_j3p7_c40r_2k_78980000gn/T//cczQbSnP.s 			page 87


 4597 0679 6B566578 		.ascii	"kVexDigital_7\000"
 4597      44696769 
 4597      74616C5F 
 4597      3700
 4598              	.LASF139:
 4599 0687 6B566578 		.ascii	"kVexDigital_8\000"
 4599      44696769 
 4599      74616C5F 
 4599      3800
 4600              	.LASF140:
 4601 0695 6B566578 		.ascii	"kVexDigital_9\000"
 4601      44696769 
 4601      74616C5F 
 4601      3900
 4602              	.LASF221:
 4603 06a3 63685468 		.ascii	"chThdCreateStatic\000"
 4603      64437265 
 4603      61746553 
 4603      74617469 
 4603      6300
 4604              	.LASF200:
 4605 06b5 61726763 		.ascii	"argc\000"
 4605      00
 4606              	.LASF49:
 4607 06ba 705F6D73 		.ascii	"p_msg\000"
 4607      6700
 4608              	.LASF26:
 4609 06c0 746D6F64 		.ascii	"tmode_t\000"
 4609      655F7400 
 4610              	.LASF95:
 4611 06c8 65787473 		.ascii	"extstate_t\000"
 4611      74617465 
 4611      5F7400
 4612              	.LASF52:
 4613 06d3 705F7265 		.ascii	"p_realprio\000"
 4613      616C7072 
 4613      696F00
 4614              	.LASF217:
 4615 06de 76657844 		.ascii	"vexDigitalModeSet\000"
 4615      69676974 
 4615      616C4D6F 
 4615      64655365 
 4615      7400
 4616              	.LASF223:
 4617 06f0 67707453 		.ascii	"gptStart\000"
 4617      74617274 
 4617      00
 4618              	.LASF201:
 4619 06f9 61726776 		.ascii	"argv\000"
 4619      00
 4620              	.LASF2:
 4621 06fe 6C6F6E67 		.ascii	"long double\000"
 4621      20646F75 
 4621      626C6500 
 4622              	.LASF41:
 4623 070a 705F6E61 		.ascii	"p_name\000"
 4623      6D6500
ARM GAS  /var/folders/6q/x_mk5n_j3p7_c40r_2k_78980000gn/T//cczQbSnP.s 			page 88


 4624              	.LASF160:
 4625 0711 5F766578 		.ascii	"_vexSonar_t\000"
 4625      536F6E61 
 4625      725F7400 
 4626              	.LASF21:
 4627 071d 75696E74 		.ascii	"uint16_t\000"
 4627      31365F74 
 4627      00
 4628              	.LASF58:
 4629 0726 696E7463 		.ascii	"intctx\000"
 4629      747800
 4630              	.LASF205:
 4631 072d 6E657874 		.ascii	"nextState\000"
 4631      53746174 
 4631      6500
 4632              	.LASF188:
 4633 0737 6368616E 		.ascii	"channel\000"
 4633      6E656C00 
 4634              	.LASF98:
 4635 073f 636F6E66 		.ascii	"config\000"
 4635      696700
 4636              	.LASF172:
 4637 0746 6B496D65 		.ascii	"kImeChannel_1\000"
 4637      4368616E 
 4637      6E656C5F 
 4637      3100
 4638              	.LASF173:
 4639 0754 6B496D65 		.ascii	"kImeChannel_2\000"
 4639      4368616E 
 4639      6E656C5F 
 4639      3200
 4640              	.LASF174:
 4641 0762 6B496D65 		.ascii	"kImeChannel_3\000"
 4641      4368616E 
 4641      6E656C5F 
 4641      3300
 4642              	.LASF175:
 4643 0770 6B496D65 		.ascii	"kImeChannel_4\000"
 4643      4368616E 
 4643      6E656C5F 
 4643      3400
 4644              	.LASF176:
 4645 077e 6B496D65 		.ascii	"kImeChannel_5\000"
 4645      4368616E 
 4645      6E656C5F 
 4645      3500
 4646              	.LASF177:
 4647 078c 6B496D65 		.ascii	"kImeChannel_6\000"
 4647      4368616E 
 4647      6E656C5F 
 4647      3600
 4648              	.LASF178:
 4649 079a 6B496D65 		.ascii	"kImeChannel_7\000"
 4649      4368616E 
 4649      6E656C5F 
 4649      3700
 4650              	.LASF179:
ARM GAS  /var/folders/6q/x_mk5n_j3p7_c40r_2k_78980000gn/T//cczQbSnP.s 			page 89


 4651 07a8 6B496D65 		.ascii	"kImeChannel_8\000"
 4651      4368616E 
 4651      6E656C5F 
 4651      3800
 4652              	.LASF8:
 4653 07b6 73686F72 		.ascii	"short int\000"
 4653      7420696E 
 4653      7400
 4654              	.LASF226:
 4655 07c0 7665785F 		.ascii	"vex_chprintf\000"
 4655      63687072 
 4655      696E7466 
 4655      00
 4656              	.LASF204:
 4657 07cd 6E657874 		.ascii	"nextSonar\000"
 4657      536F6E61 
 4657      7200
 4658              	.LASF74:
 4659 07d7 725F6375 		.ascii	"r_current\000"
 4659      7272656E 
 4659      7400
 4660              	.LASF50:
 4661 07e1 705F6570 		.ascii	"p_epending\000"
 4661      656E6469 
 4661      6E6700
 4662              	.LASF77:
 4663 07ec 6D5F7175 		.ascii	"m_queue\000"
 4663      65756500 
 4664              	.LASF12:
 4665 07f4 6C6F6E67 		.ascii	"long int\000"
 4665      20696E74 
 4665      00
 4666              	.LASF120:
 4667 07fd 444D4152 		.ascii	"DMAR\000"
 4667      00
 4668              	.LASF181:
 4669 0802 6B496D65 		.ascii	"kImeChannelNone\000"
 4669      4368616E 
 4669      6E656C4E 
 4669      6F6E6500 
 4670              	.LASF211:
 4671 0812 49544D5F 		.ascii	"ITM_RxBuffer\000"
 4671      52784275 
 4671      66666572 
 4671      00
 4672              	.LASF102:
 4673 081f 45585443 		.ascii	"EXTChannelConfig\000"
 4673      68616E6E 
 4673      656C436F 
 4673      6E666967 
 4673      00
 4674              	.LASF195:
 4675 0830 76657853 		.ascii	"vexSonarRun\000"
 4675      6F6E6172 
 4675      52756E00 
 4676              	.LASF24:
 4677 083c 75696E74 		.ascii	"uint64_t\000"
ARM GAS  /var/folders/6q/x_mk5n_j3p7_c40r_2k_78980000gn/T//cczQbSnP.s 			page 90


 4677      36345F74 
 4677      00
 4678              	.LASF38:
 4679 0845 705F6374 		.ascii	"p_ctx\000"
 4679      7800
 4680              	.LASF105:
 4681 084b 4750545F 		.ascii	"GPT_UNINIT\000"
 4681      554E494E 
 4681      495400
 4682              	.LASF210:
 4683 0856 726C6973 		.ascii	"rlist\000"
 4683      7400
 4684              	.LASF61:
 4685 085c 56697274 		.ascii	"VirtualTimer\000"
 4685      75616C54 
 4685      696D6572 
 4685      00
 4686              	.LASF83:
 4687 0869 65776D61 		.ascii	"ewmask\000"
 4687      736B00
 4688              	.LASF5:
 4689 0870 5F5F7569 		.ascii	"__uint8_t\000"
 4689      6E74385F 
 4689      7400
 4690              	.LASF131:
 4691 087a 6B566578 		.ascii	"kVexDigital_None\000"
 4691      44696769 
 4691      74616C5F 
 4691      4E6F6E65 
 4691      00
 4692              	.LASF86:
 4693 088b 72656164 		.ascii	"read\000"
 4693      00
 4694              	.LASF90:
 4695 0890 4750494F 		.ascii	"GPIO_TypeDef\000"
 4695      5F547970 
 4695      65446566 
 4695      00
 4696              	.LASF93:
 4697 089d 4558545F 		.ascii	"EXT_STOP\000"
 4697      53544F50 
 4697      00
 4698              	.LASF110:
 4699 08a6 67707473 		.ascii	"gptstate_t\000"
 4699      74617465 
 4699      5F7400
 4700              	.LASF214:
 4701 08b1 76657869 		.ascii	"vexioDefinition\000"
 4701      6F446566 
 4701      696E6974 
 4701      696F6E00 
 4702              	.LASF36:
 4703 08c1 705F7072 		.ascii	"p_prev\000"
 4703      657600
 4704              	.LASF17:
 4705 08c8 73697A65 		.ascii	"sizetype\000"
 4705      74797065 
ARM GAS  /var/folders/6q/x_mk5n_j3p7_c40r_2k_78980000gn/T//cczQbSnP.s 			page 91


 4705      00
 4706              	.LASF28:
 4707 08d1 74726566 		.ascii	"trefs_t\000"
 4707      735F7400 
 4708              	.LASF14:
 4709 08d9 6C6F6E67 		.ascii	"long unsigned int\000"
 4709      20756E73 
 4709      69676E65 
 4709      6420696E 
 4709      7400
 4710              	.LASF99:
 4711 08eb 65787063 		.ascii	"expchannel_t\000"
 4711      68616E6E 
 4711      656C5F74 
 4711      00
 4712              	.LASF230:
 4713 08f8 76657853 		.ascii	"vexSonarStart\000"
 4713      6F6E6172 
 4713      53746172 
 4713      7400
 4714              	.LASF22:
 4715 0906 696E7433 		.ascii	"int32_t\000"
 4715      325F7400 
 4716              	.LASF150:
 4717 090e 706F7274 		.ascii	"port\000"
 4717      00
 4718              	.LASF97:
 4719 0913 73746174 		.ascii	"state\000"
 4719      6500
 4720              	.LASF111:
 4721 0919 47505444 		.ascii	"GPTDriver\000"
 4721      72697665 
 4721      7200
 4722              	.LASF167:
 4723 0923 70615F70 		.ascii	"pa_port\000"
 4723      6F727400 
 4724              	.LASF6:
 4725 092b 756E7369 		.ascii	"unsigned char\000"
 4725      676E6564 
 4725      20636861 
 4725      7200
 4726              	.LASF13:
 4727 0939 5F5F7569 		.ascii	"__uint32_t\000"
 4727      6E743332 
 4727      5F7400
 4728              	.LASF44:
 4729 0944 705F7265 		.ascii	"p_refs\000"
 4729      667300
 4730              	.LASF75:
 4731 094b 52656164 		.ascii	"ReadyList\000"
 4731      794C6973 
 4731      7400
 4732              	.LASF192:
 4733 0955 76657853 		.ascii	"vexSonarAdd\000"
 4733      6F6E6172 
 4733      41646400 
 4734              	.LASF224:
ARM GAS  /var/folders/6q/x_mk5n_j3p7_c40r_2k_78980000gn/T//cczQbSnP.s 			page 92


 4735 0961 63685468 		.ascii	"chThdSleep\000"
 4735      64536C65 
 4735      657000
 4736              	.LASF170:
 4737 096c 70625F70 		.ascii	"pb_pad\000"
 4737      616400
 4738              	.LASF45:
 4739 0973 705F7072 		.ascii	"p_preempt\000"
 4739      65656D70 
 4739      7400
 4740              	.LASF191:
 4741 097d 67707470 		.ascii	"gptp\000"
 4741      00
 4742              	.LASF183:
 4743 0982 6B536F6E 		.ascii	"kSonarStateWait\000"
 4743      61725374 
 4743      61746557 
 4743      61697400 
 4744              	.LASF126:
 4745 0992 66726571 		.ascii	"frequency\000"
 4745      75656E63 
 4745      7900
 4746              	.LASF153:
 4747 099c 6B566578 		.ascii	"kVexSonar_1\000"
 4747      536F6E61 
 4747      725F3100 
 4748              	.LASF154:
 4749 09a8 6B566578 		.ascii	"kVexSonar_2\000"
 4749      536F6E61 
 4749      725F3200 
 4750              	.LASF155:
 4751 09b4 6B566578 		.ascii	"kVexSonar_3\000"
 4751      536F6E61 
 4751      725F3300 
 4752              	.LASF156:
 4753 09c0 6B566578 		.ascii	"kVexSonar_4\000"
 4753      536F6E61 
 4753      725F3400 
 4754              	.LASF157:
 4755 09cc 6B566578 		.ascii	"kVexSonar_5\000"
 4755      536F6E61 
 4755      725F3500 
 4756              	.LASF127:
 4757 09d8 63616C6C 		.ascii	"callback\000"
 4757      6261636B 
 4757      00
 4758              	.LASF190:
 4759 09e1 5F76735F 		.ascii	"_vs_gpt_cb\000"
 4759      6770745F 
 4759      636200
 4760              	.LASF62:
 4761 09ec 76745F6E 		.ascii	"vt_next\000"
 4761      65787400 
 4762              	.LASF35:
 4763 09f4 705F6E65 		.ascii	"p_next\000"
 4763      787400
 4764              	.LASF79:
ARM GAS  /var/folders/6q/x_mk5n_j3p7_c40r_2k_78980000gn/T//cczQbSnP.s 			page 93


 4765 09fb 6D5F6E65 		.ascii	"m_next\000"
 4765      787400
 4766              	.LASF3:
 4767 0a02 7369676E 		.ascii	"signed char\000"
 4767      65642063 
 4767      68617200 
 4768              	.LASF40:
 4769 0a0e 705F6F6C 		.ascii	"p_older\000"
 4769      64657200 
 4770              	.LASF10:
 4771 0a16 73686F72 		.ascii	"short unsigned int\000"
 4771      7420756E 
 4771      7369676E 
 4771      65642069 
 4771      6E7400
 4772              	.LASF71:
 4773 0a29 725F6374 		.ascii	"r_ctx\000"
 4773      7800
 4774              	.LASF146:
 4775 0a2f 6B566578 		.ascii	"kVexDigitalInput\000"
 4775      44696769 
 4775      74616C49 
 4775      6E707574 
 4775      00
 4776              	.LASF57:
 4777 0a40 73746B61 		.ascii	"stkalign_t\000"
 4777      6C69676E 
 4777      5F7400
 4778              	.LASF65:
 4779 0a4b 76745F66 		.ascii	"vt_func\000"
 4779      756E6300 
 4780              	.LASF63:
 4781 0a53 76745F70 		.ascii	"vt_prev\000"
 4781      72657600 
 4782              	.LASF197:
 4783 0a5b 76657853 		.ascii	"vexSonarGetCm\000"
 4783      6F6E6172 
 4783      47657443 
 4783      6D00
 4784              	.LASF218:
 4785 0a69 76657845 		.ascii	"vexExtSet\000"
 4785      78745365 
 4785      7400
 4786              	.LASF81:
 4787 0a73 65786974 		.ascii	"exitcode\000"
 4787      636F6465 
 4787      00
 4788              	.LASF185:
 4789 0a7c 6B536F6E 		.ascii	"kSonarStateError\000"
 4789      61725374 
 4789      61746545 
 4789      72726F72 
 4789      00
 4790              	.LASF34:
 4791 0a8d 54687265 		.ascii	"Thread\000"
 4791      616400
 4792              	.LASF165:
ARM GAS  /var/folders/6q/x_mk5n_j3p7_c40r_2k_78980000gn/T//cczQbSnP.s 			page 94


 4793 0a94 64697374 		.ascii	"distance_inch\000"
 4793      616E6365 
 4793      5F696E63 
 4793      6800
 4794              		.ident	"GCC: (GNU Tools for ARM Embedded Processors) 5.4.1 20160919 (release) [ARM/embedded-5-bran
ARM GAS  /var/folders/6q/x_mk5n_j3p7_c40r_2k_78980000gn/T//cczQbSnP.s 			page 95


DEFINED SYMBOLS
                            *ABS*:0000000000000000 vexsonar.c
/var/folders/6q/x_mk5n_j3p7_c40r_2k_78980000gn/T//cczQbSnP.s:20     .text._vs_echo_cb:0000000000000000 $t
/var/folders/6q/x_mk5n_j3p7_c40r_2k_78980000gn/T//cczQbSnP.s:25     .text._vs_echo_cb:0000000000000000 _vs_echo_cb
/var/folders/6q/x_mk5n_j3p7_c40r_2k_78980000gn/T//cczQbSnP.s:116    .text._vs_echo_cb:000000000000004c $d
/var/folders/6q/x_mk5n_j3p7_c40r_2k_78980000gn/T//cczQbSnP.s:124    .text._vs_gpt_cb:0000000000000000 $t
/var/folders/6q/x_mk5n_j3p7_c40r_2k_78980000gn/T//cczQbSnP.s:129    .text._vs_gpt_cb:0000000000000000 _vs_gpt_cb
/var/folders/6q/x_mk5n_j3p7_c40r_2k_78980000gn/T//cczQbSnP.s:232    .text._vs_gpt_cb:0000000000000064 $d
/var/folders/6q/x_mk5n_j3p7_c40r_2k_78980000gn/T//cczQbSnP.s:241    .text.vexSonarAdd:0000000000000000 $t
/var/folders/6q/x_mk5n_j3p7_c40r_2k_78980000gn/T//cczQbSnP.s:247    .text.vexSonarAdd:0000000000000000 vexSonarAdd
/var/folders/6q/x_mk5n_j3p7_c40r_2k_78980000gn/T//cczQbSnP.s:340    .text.vexSonarAdd:000000000000006c $d
/var/folders/6q/x_mk5n_j3p7_c40r_2k_78980000gn/T//cczQbSnP.s:347    .text.vexSonarStart:0000000000000000 $t
/var/folders/6q/x_mk5n_j3p7_c40r_2k_78980000gn/T//cczQbSnP.s:353    .text.vexSonarStart:0000000000000000 vexSonarStart
/var/folders/6q/x_mk5n_j3p7_c40r_2k_78980000gn/T//cczQbSnP.s:378    .text.vexSonarStart:0000000000000018 $d
/var/folders/6q/x_mk5n_j3p7_c40r_2k_78980000gn/T//cczQbSnP.s:384    .text.vexSonarStop:0000000000000000 $t
/var/folders/6q/x_mk5n_j3p7_c40r_2k_78980000gn/T//cczQbSnP.s:390    .text.vexSonarStop:0000000000000000 vexSonarStop
/var/folders/6q/x_mk5n_j3p7_c40r_2k_78980000gn/T//cczQbSnP.s:415    .text.vexSonarStop:0000000000000018 $d
/var/folders/6q/x_mk5n_j3p7_c40r_2k_78980000gn/T//cczQbSnP.s:421    .text.vexSonarStartAll:0000000000000000 $t
/var/folders/6q/x_mk5n_j3p7_c40r_2k_78980000gn/T//cczQbSnP.s:427    .text.vexSonarStartAll:0000000000000000 vexSonarStartAll
/var/folders/6q/x_mk5n_j3p7_c40r_2k_78980000gn/T//cczQbSnP.s:471    .text.vexSonarStartAll:0000000000000024 $d
/var/folders/6q/x_mk5n_j3p7_c40r_2k_78980000gn/T//cczQbSnP.s:479    .text.vexSonarRun:0000000000000000 $t
/var/folders/6q/x_mk5n_j3p7_c40r_2k_78980000gn/T//cczQbSnP.s:485    .text.vexSonarRun:0000000000000000 vexSonarRun
/var/folders/6q/x_mk5n_j3p7_c40r_2k_78980000gn/T//cczQbSnP.s:544    .text.vexSonarRun:000000000000003c $d
/var/folders/6q/x_mk5n_j3p7_c40r_2k_78980000gn/T//cczQbSnP.s:613    .text.VexSonarTask:0000000000000000 VexSonarTask
/var/folders/6q/x_mk5n_j3p7_c40r_2k_78980000gn/T//cczQbSnP.s:552    .text.vexSonarPing:0000000000000000 $t
/var/folders/6q/x_mk5n_j3p7_c40r_2k_78980000gn/T//cczQbSnP.s:558    .text.vexSonarPing:0000000000000000 vexSonarPing
/var/folders/6q/x_mk5n_j3p7_c40r_2k_78980000gn/T//cczQbSnP.s:601    .text.vexSonarPing:0000000000000030 $d
/var/folders/6q/x_mk5n_j3p7_c40r_2k_78980000gn/T//cczQbSnP.s:608    .text.VexSonarTask:0000000000000000 $t
/var/folders/6q/x_mk5n_j3p7_c40r_2k_78980000gn/T//cczQbSnP.s:762    .text.VexSonarTask:00000000000000d4 $d
/var/folders/6q/x_mk5n_j3p7_c40r_2k_78980000gn/T//cczQbSnP.s:775    .text.vexSonarGetCm:0000000000000000 $t
/var/folders/6q/x_mk5n_j3p7_c40r_2k_78980000gn/T//cczQbSnP.s:781    .text.vexSonarGetCm:0000000000000000 vexSonarGetCm
/var/folders/6q/x_mk5n_j3p7_c40r_2k_78980000gn/T//cczQbSnP.s:805    .text.vexSonarGetCm:0000000000000018 $d
/var/folders/6q/x_mk5n_j3p7_c40r_2k_78980000gn/T//cczQbSnP.s:810    .text.vexSonarGetInch:0000000000000000 $t
/var/folders/6q/x_mk5n_j3p7_c40r_2k_78980000gn/T//cczQbSnP.s:816    .text.vexSonarGetInch:0000000000000000 vexSonarGetInch
/var/folders/6q/x_mk5n_j3p7_c40r_2k_78980000gn/T//cczQbSnP.s:840    .text.vexSonarGetInch:0000000000000018 $d
/var/folders/6q/x_mk5n_j3p7_c40r_2k_78980000gn/T//cczQbSnP.s:845    .text.vexSonarDebug:0000000000000000 $t
/var/folders/6q/x_mk5n_j3p7_c40r_2k_78980000gn/T//cczQbSnP.s:851    .text.vexSonarDebug:0000000000000000 vexSonarDebug
/var/folders/6q/x_mk5n_j3p7_c40r_2k_78980000gn/T//cczQbSnP.s:907    .text.vexSonarDebug:0000000000000044 $d
/var/folders/6q/x_mk5n_j3p7_c40r_2k_78980000gn/T//cczQbSnP.s:914    .bss.vexSonarThread:0000000000000000 $d
/var/folders/6q/x_mk5n_j3p7_c40r_2k_78980000gn/T//cczQbSnP.s:918    .bss.vexSonarThread:0000000000000000 vexSonarThread
/var/folders/6q/x_mk5n_j3p7_c40r_2k_78980000gn/T//cczQbSnP.s:921    .bss.waVexSonarTask:0000000000000000 $d
/var/folders/6q/x_mk5n_j3p7_c40r_2k_78980000gn/T//cczQbSnP.s:925    .bss.waVexSonarTask:0000000000000000 waVexSonarTask
/var/folders/6q/x_mk5n_j3p7_c40r_2k_78980000gn/T//cczQbSnP.s:931    .bss.nextSonar:0000000000000000 nextSonar
/var/folders/6q/x_mk5n_j3p7_c40r_2k_78980000gn/T//cczQbSnP.s:932    .bss.nextSonar:0000000000000000 $d
/var/folders/6q/x_mk5n_j3p7_c40r_2k_78980000gn/T//cczQbSnP.s:934    .bss.vexSonars:0000000000000000 $d
/var/folders/6q/x_mk5n_j3p7_c40r_2k_78980000gn/T//cczQbSnP.s:938    .bss.vexSonars:0000000000000000 vexSonars
/var/folders/6q/x_mk5n_j3p7_c40r_2k_78980000gn/T//cczQbSnP.s:941    .rodata.vexSonarGpt:0000000000000000 $d
/var/folders/6q/x_mk5n_j3p7_c40r_2k_78980000gn/T//cczQbSnP.s:945    .rodata.vexSonarGpt:0000000000000000 vexSonarGpt
/var/folders/6q/x_mk5n_j3p7_c40r_2k_78980000gn/T//cczQbSnP.s:950    .rodata.str1.4:0000000000000000 $d
/var/folders/6q/x_mk5n_j3p7_c40r_2k_78980000gn/T//cczQbSnP.s:962    .bss.nextState:0000000000000000 nextState
/var/folders/6q/x_mk5n_j3p7_c40r_2k_78980000gn/T//cczQbSnP.s:963    .bss.nextState:0000000000000000 $d
                     .debug_frame:0000000000000010 $d

UNDEFINED SYMBOLS
GPTD5
vexDigitalPinSet
gptStartOneShotI
ARM GAS  /var/folders/6q/x_mk5n_j3p7_c40r_2k_78980000gn/T//cczQbSnP.s 			page 96


vexDigitalModeSet
vexExtSet
vexioDefinition
extChannelEnable
EXTD1
extChannelDisable
chThdCreateStatic
gptStartOneShot
gptStart
chThdSleep
chThdSleepUntil
vtlist
rlist
vex_chprintf
