ARM GAS  /var/folders/6q/x_mk5n_j3p7_c40r_2k_78980000gn/T//ccFwykIN.s 			page 1


   1              		.syntax unified
   2              		.cpu cortex-m3
   3              		.fpu softvfp
   4              		.eabi_attribute 20, 1
   5              		.eabi_attribute 21, 1
   6              		.eabi_attribute 23, 3
   7              		.eabi_attribute 24, 1
   8              		.eabi_attribute 25, 1
   9              		.eabi_attribute 26, 1
  10              		.eabi_attribute 30, 2
  11              		.eabi_attribute 34, 1
  12              		.eabi_attribute 18, 4
  13              		.thumb
  14              		.syntax unified
  15              		.file	"vexuser.c"
  16              		.text
  17              	.Ltext0:
  18              		.cfi_sections	.debug_frame
  19              		.section	.text.vexUserSetup,"ax",%progbits
  20              		.align	2
  21              		.p2align 4,,15
  22              		.weak	vexUserSetup
  23              		.thumb
  24              		.thumb_func
  25              		.type	vexUserSetup, %function
  26              	vexUserSetup:
  27              	.LFB63:
  28              		.file 1 "vexuser.c"
  29              		.loc 1 87 0
  30              		.cfi_startproc
  31              		@ args = 0, pretend = 0, frame = 0
  32              		@ frame_needed = 0, uses_anonymous_args = 0
  33 0000 08B5     		push	{r3, lr}
  34              		.cfi_def_cfa_offset 8
  35              		.cfi_offset 3, -8
  36              		.cfi_offset 14, -4
  37              		.loc 1 88 0
  38 0002 0C21     		movs	r1, #12
  39 0004 0448     		ldr	r0, .L3
  40 0006 FFF7FEFF 		bl	vexDigitalConfigure
  41              	.LVL0:
  42              		.loc 1 90 0
  43 000a BDE80840 		pop	{r3, lr}
  44              		.cfi_restore 14
  45              		.cfi_restore 3
  46              		.cfi_def_cfa_offset 0
  47              		.loc 1 89 0
  48 000e 0A21     		movs	r1, #10
  49 0010 0248     		ldr	r0, .L3+4
  50 0012 FFF7FEBF 		b	vexMotorConfigure
  51              	.LVL1:
  52              	.L4:
  53 0016 00BF     		.align	2
  54              	.L3:
  55 0018 00000000 		.word	.LANCHOR0
  56 001c 00000000 		.word	.LANCHOR1
  57              		.cfi_endproc
ARM GAS  /var/folders/6q/x_mk5n_j3p7_c40r_2k_78980000gn/T//ccFwykIN.s 			page 2


  58              	.LFE63:
  59              		.size	vexUserSetup, .-vexUserSetup
  60              		.section	.text.vexUserInit,"ax",%progbits
  61              		.align	2
  62              		.p2align 4,,15
  63              		.weak	vexUserInit
  64              		.thumb
  65              		.thumb_func
  66              		.type	vexUserInit, %function
  67              	vexUserInit:
  68              	.LFB64:
  69              		.loc 1 102 0
  70              		.cfi_startproc
  71              		@ args = 0, pretend = 0, frame = 0
  72              		@ frame_needed = 0, uses_anonymous_args = 0
  73              		@ link register save eliminated.
  74 0000 7047     		bx	lr
  75              		.cfi_endproc
  76              	.LFE64:
  77              		.size	vexUserInit, .-vexUserInit
  78 0002 00BF     		.section	.text.vexAutonomous,"ax",%progbits
  79              		.align	2
  80              		.p2align 4,,15
  81              		.global	vexAutonomous
  82              		.thumb
  83              		.thumb_func
  84              		.type	vexAutonomous, %function
  85              	vexAutonomous:
  86              	.LFB65:
  87              		.loc 1 114 0
  88              		.cfi_startproc
  89              		@ Volatile: function does not return.
  90              		@ args = 0, pretend = 0, frame = 0
  91              		@ frame_needed = 0, uses_anonymous_args = 0
  92              	.LVL2:
  93              		.loc 1 114 0
  94 0000 08B5     		push	{r3, lr}
  95              		.cfi_def_cfa_offset 8
  96              		.cfi_offset 3, -8
  97              		.cfi_offset 14, -4
  98              		.loc 1 118 0
  99 0002 0348     		ldr	r0, .L10
 100              	.LVL3:
 101 0004 FFF7FEFF 		bl	vexTaskRegister
 102              	.LVL4:
 103              	.L7:
 104              		.loc 1 123 0 discriminator 1
 105 0008 1920     		movs	r0, #25
 106 000a FFF7FEFF 		bl	vexSleep
 107              	.LVL5:
 108 000e FBE7     		b	.L7
 109              	.L11:
 110              		.align	2
 111              	.L10:
 112 0010 00000000 		.word	.LC0
 113              		.cfi_endproc
 114              	.LFE65:
ARM GAS  /var/folders/6q/x_mk5n_j3p7_c40r_2k_78980000gn/T//ccFwykIN.s 			page 3


 115              		.size	vexAutonomous, .-vexAutonomous
 116              		.section	.text.vexOperator,"ax",%progbits
 117              		.align	2
 118              		.p2align 4,,15
 119              		.global	vexOperator
 120              		.thumb
 121              		.thumb_func
 122              		.type	vexOperator, %function
 123              	vexOperator:
 124              	.LFB66:
 125              		.loc 1 143 0
 126              		.cfi_startproc
 127              		@ args = 0, pretend = 0, frame = 0
 128              		@ frame_needed = 0, uses_anonymous_args = 0
 129              	.LVL6:
 130 0000 70B5     		push	{r4, r5, r6, lr}
 131              		.cfi_def_cfa_offset 16
 132              		.cfi_offset 4, -16
 133              		.cfi_offset 5, -12
 134              		.cfi_offset 6, -8
 135              		.cfi_offset 14, -4
 136              		.loc 1 152 0
 137 0002 164E     		ldr	r6, .L20
 138              		.loc 1 149 0
 139 0004 1648     		ldr	r0, .L20+4
 140              	.LVL7:
 141 0006 FFF7FEFF 		bl	vexTaskRegister
 142              	.LVL8:
 143              		.loc 1 152 0
 144 000a B369     		ldr	r3, [r6, #24]
 145 000c 5B7F     		ldrb	r3, [r3, #29]	@ zero_extendqisi2
 146 000e 5A07     		lsls	r2, r3, #29
 147 0010 21D4     		bmi	.L18
 148              	.L13:
 149              	.LBB2:
 150              		.loc 1 158 0
 151 0012 0320     		movs	r0, #3
 152 0014 FFF7FEFF 		bl	vexControllerGet
 153              	.LVL9:
 154 0018 0446     		mov	r4, r0
 155              	.LVL10:
 156              		.loc 1 159 0
 157 001a 0220     		movs	r0, #2
 158 001c FFF7FEFF 		bl	vexControllerGet
 159              	.LVL11:
 160              		.loc 1 161 0
 161 0020 E4B2     		uxtb	r4, r4
 162 0022 C0B2     		uxtb	r0, r0
 163 0024 2518     		adds	r5, r4, r0
 164 0026 2946     		mov	r1, r5
 165              		.loc 1 162 0
 166 0028 041B     		subs	r4, r0, r4
 167              	.LVL12:
 168              		.loc 1 161 0
 169 002a 0320     		movs	r0, #3
 170              	.LVL13:
 171 002c FFF7FEFF 		bl	vexMotorSet
ARM GAS  /var/folders/6q/x_mk5n_j3p7_c40r_2k_78980000gn/T//ccFwykIN.s 			page 4


 172              	.LVL14:
 173              		.loc 1 162 0
 174 0030 2146     		mov	r1, r4
 175 0032 0420     		movs	r0, #4
 176 0034 FFF7FEFF 		bl	vexMotorSet
 177              	.LVL15:
 178              		.loc 1 163 0
 179 0038 2946     		mov	r1, r5
 180 003a 0120     		movs	r0, #1
 181 003c FFF7FEFF 		bl	vexMotorSet
 182              	.LVL16:
 183              		.loc 1 164 0
 184 0040 2146     		mov	r1, r4
 185 0042 0220     		movs	r0, #2
 186 0044 FFF7FEFF 		bl	vexMotorSet
 187              	.LVL17:
 188              		.loc 1 169 0
 189 0048 1920     		movs	r0, #25
 190 004a FFF7FEFF 		bl	vexSleep
 191              	.LVL18:
 192              	.LBE2:
 193              		.loc 1 152 0
 194 004e B369     		ldr	r3, [r6, #24]
 195 0050 5B7F     		ldrb	r3, [r3, #29]	@ zero_extendqisi2
 196 0052 5B07     		lsls	r3, r3, #29
 197 0054 DDD5     		bpl	.L13
 198              	.L18:
 199              		.loc 1 173 0
 200 0056 0020     		movs	r0, #0
 201 0058 70BD     		pop	{r4, r5, r6, pc}
 202              	.L21:
 203 005a 00BF     		.align	2
 204              	.L20:
 205 005c 00000000 		.word	rlist
 206 0060 08000000 		.word	.LC1
 207              		.cfi_endproc
 208              	.LFE66:
 209              		.size	vexOperator, .-vexOperator
 210              		.section	.rodata.str1.4,"aMS",%progbits,1
 211              		.align	2
 212              	.LC0:
 213 0000 6175746F 		.ascii	"auton\000"
 213      6E00
 214 0006 0000     		.space	2
 215              	.LC1:
 216 0008 6F706572 		.ascii	"operator\000"
 216      61746F72 
 216      00
 217              		.section	.data.mConfig,"aw",%progbits
 218              		.align	2
 219              		.set	.LANCHOR1,. + 0
 220              		.type	mConfig, %object
 221              		.size	mConfig, 60
 222              	mConfig:
 223 0000 00       		.byte	0
 224 0001 02       		.byte	2
 225 0002 00       		.byte	0
ARM GAS  /var/folders/6q/x_mk5n_j3p7_c40r_2k_78980000gn/T//ccFwykIN.s 			page 5


 226 0003 06       		.byte	6
 227 0004 0000     		.short	0
 228 0006 01       		.byte	1
 229 0007 00       		.byte	0
 230 0008 00       		.byte	0
 231 0009 00       		.byte	0
 232 000a 0000     		.short	0
 233 000c 02       		.byte	2
 234 000d 00       		.byte	0
 235 000e 00       		.byte	0
 236 000f 00       		.byte	0
 237 0010 0000     		.short	0
 238 0012 03       		.byte	3
 239 0013 00       		.byte	0
 240 0014 00       		.byte	0
 241 0015 00       		.byte	0
 242 0016 0000     		.short	0
 243 0018 04       		.byte	4
 244 0019 00       		.byte	0
 245 001a 00       		.byte	0
 246 001b 00       		.byte	0
 247 001c 0000     		.short	0
 248 001e 05       		.byte	5
 249 001f 00       		.byte	0
 250 0020 00       		.byte	0
 251 0021 00       		.byte	0
 252 0022 0000     		.short	0
 253 0024 06       		.byte	6
 254 0025 00       		.byte	0
 255 0026 00       		.byte	0
 256 0027 00       		.byte	0
 257 0028 0000     		.short	0
 258 002a 07       		.byte	7
 259 002b 00       		.byte	0
 260 002c 00       		.byte	0
 261 002d 00       		.byte	0
 262 002e 0000     		.short	0
 263 0030 08       		.byte	8
 264 0031 00       		.byte	0
 265 0032 00       		.byte	0
 266 0033 00       		.byte	0
 267 0034 0000     		.short	0
 268 0036 09       		.byte	9
 269 0037 02       		.byte	2
 270 0038 00       		.byte	0
 271 0039 06       		.byte	6
 272 003a 0100     		.short	1
 273              		.section	.data.dConfig,"aw",%progbits
 274              		.align	2
 275              		.set	.LANCHOR0,. + 0
 276              		.type	dConfig, %object
 277              		.size	dConfig, 72
 278              	dConfig:
 279 0000 00       		.byte	0
 280 0001 02       		.byte	2
 281 0002 01       		.byte	1
 282 0003 00       		.space	1
ARM GAS  /var/folders/6q/x_mk5n_j3p7_c40r_2k_78980000gn/T//ccFwykIN.s 			page 6


 283 0004 0000     		.short	0
 284 0006 01       		.byte	1
 285 0007 02       		.byte	2
 286 0008 01       		.byte	1
 287 0009 00       		.space	1
 288 000a 0000     		.short	0
 289 000c 02       		.byte	2
 290 000d 01       		.byte	1
 291 000e 00       		.byte	0
 292 000f 00       		.space	1
 293 0010 0000     		.short	0
 294 0012 03       		.byte	3
 295 0013 01       		.byte	1
 296 0014 00       		.byte	0
 297 0015 00       		.space	1
 298 0016 0000     		.short	0
 299 0018 04       		.byte	4
 300 0019 01       		.byte	1
 301 001a 00       		.byte	0
 302 001b 00       		.space	1
 303 001c 0000     		.short	0
 304 001e 05       		.byte	5
 305 001f 01       		.byte	1
 306 0020 00       		.byte	0
 307 0021 00       		.space	1
 308 0022 0000     		.short	0
 309 0024 06       		.byte	6
 310 0025 01       		.byte	1
 311 0026 00       		.byte	0
 312 0027 00       		.space	1
 313 0028 0000     		.short	0
 314 002a 07       		.byte	7
 315 002b 01       		.byte	1
 316 002c 00       		.byte	0
 317 002d 00       		.space	1
 318 002e 0000     		.short	0
 319 0030 08       		.byte	8
 320 0031 01       		.byte	1
 321 0032 00       		.byte	0
 322 0033 00       		.space	1
 323 0034 0000     		.short	0
 324 0036 09       		.byte	9
 325 0037 01       		.byte	1
 326 0038 00       		.byte	0
 327 0039 00       		.space	1
 328 003a 0000     		.short	0
 329 003c 0A       		.byte	10
 330 003d 01       		.byte	1
 331 003e 00       		.byte	0
 332 003f 00       		.space	1
 333 0040 0000     		.short	0
 334 0042 0B       		.byte	11
 335 0043 01       		.byte	1
 336 0044 00       		.byte	0
 337 0045 00       		.space	1
 338 0046 0000     		.short	0
 339              		.text
ARM GAS  /var/folders/6q/x_mk5n_j3p7_c40r_2k_78980000gn/T//ccFwykIN.s 			page 7


 340              	.Letext0:
 341              		.file 2 "/Users/Luca/src/vexilla/src/gcc-arm-none-eabi-5_4-2016q3/arm-none-eabi/include/machine/_d
 342              		.file 3 "/Users/Luca/src/vexilla/src/gcc-arm-none-eabi-5_4-2016q3/arm-none-eabi/include/sys/_stdin
 343              		.file 4 "../ChibiOS/os/ports/GCC/ARMCMx/chtypes.h"
 344              		.file 5 "../ChibiOS/os/kernel/include/chlists.h"
 345              		.file 6 "../ChibiOS/os/kernel/include/chthreads.h"
 346              		.file 7 "../ChibiOS/os/ports/GCC/ARMCMx/chcore_v7m.h"
 347              		.file 8 "../ChibiOS/os/kernel/include/chschd.h"
 348              		.file 9 "../ChibiOS/os/kernel/include/chmtx.h"
 349              		.file 10 "../convex-vexilla/cortex/fw/vexdigital.h"
 350              		.file 11 "../convex-vexilla/cortex/fw/vexmotor.h"
 351              		.file 12 "../convex-vexilla/cortex/fw/vexime.h"
 352              		.file 13 "../convex-vexilla/cortex/fw/vexconfig.h"
 353              		.file 14 "../convex-vexilla/cortex/fw/vexctl.h"
 354              		.file 15 "../ChibiOS/os/ports/common/ARMCMx/CMSIS/include/core_cm3.h"
 355              		.file 16 "../convex-vexilla/cortex/fw/vex.h"
 356              		.section	.debug_info,"",%progbits
 357              	.Ldebug_info0:
 358 0000 460A0000 		.4byte	0xa46
 359 0004 0400     		.2byte	0x4
 360 0006 00000000 		.4byte	.Ldebug_abbrev0
 361 000a 04       		.byte	0x4
 362 000b 01       		.uleb128 0x1
 363 000c F7020000 		.4byte	.LASF201
 364 0010 0C       		.byte	0xc
 365 0011 3C020000 		.4byte	.LASF202
 366 0015 8F080000 		.4byte	.LASF203
 367 0019 00000000 		.4byte	.Ldebug_ranges0+0
 368 001d 00000000 		.4byte	0
 369 0021 00000000 		.4byte	.Ldebug_line0
 370 0025 02       		.uleb128 0x2
 371 0026 04       		.byte	0x4
 372 0027 07       		.byte	0x7
 373 0028 46020000 		.4byte	.LASF0
 374 002c 03       		.uleb128 0x3
 375 002d 04       		.byte	0x4
 376 002e 05       		.byte	0x5
 377 002f 696E7400 		.ascii	"int\000"
 378 0033 02       		.uleb128 0x2
 379 0034 08       		.byte	0x8
 380 0035 05       		.byte	0x5
 381 0036 ED000000 		.4byte	.LASF1
 382 003a 02       		.uleb128 0x2
 383 003b 08       		.byte	0x8
 384 003c 04       		.byte	0x4
 385 003d 1A050000 		.4byte	.LASF2
 386 0041 02       		.uleb128 0x2
 387 0042 01       		.byte	0x1
 388 0043 06       		.byte	0x6
 389 0044 FB000000 		.4byte	.LASF3
 390 0048 04       		.uleb128 0x4
 391 0049 32000000 		.4byte	.LASF5
 392 004d 02       		.byte	0x2
 393 004e 1D       		.byte	0x1d
 394 004f 53000000 		.4byte	0x53
 395 0053 02       		.uleb128 0x2
 396 0054 01       		.byte	0x1
ARM GAS  /var/folders/6q/x_mk5n_j3p7_c40r_2k_78980000gn/T//ccFwykIN.s 			page 8


 397 0055 08       		.byte	0x8
 398 0056 22060000 		.4byte	.LASF4
 399 005a 04       		.uleb128 0x4
 400 005b 40090000 		.4byte	.LASF6
 401 005f 02       		.byte	0x2
 402 0060 29       		.byte	0x29
 403 0061 65000000 		.4byte	0x65
 404 0065 02       		.uleb128 0x2
 405 0066 02       		.byte	0x2
 406 0067 05       		.byte	0x5
 407 0068 B1040000 		.4byte	.LASF7
 408 006c 04       		.uleb128 0x4
 409 006d 63070000 		.4byte	.LASF8
 410 0071 02       		.byte	0x2
 411 0072 2B       		.byte	0x2b
 412 0073 77000000 		.4byte	0x77
 413 0077 02       		.uleb128 0x2
 414 0078 02       		.byte	0x2
 415 0079 07       		.byte	0x7
 416 007a D6030000 		.4byte	.LASF9
 417 007e 04       		.uleb128 0x4
 418 007f CF070000 		.4byte	.LASF10
 419 0083 02       		.byte	0x2
 420 0084 3F       		.byte	0x3f
 421 0085 89000000 		.4byte	0x89
 422 0089 02       		.uleb128 0x2
 423 008a 04       		.byte	0x4
 424 008b 05       		.byte	0x5
 425 008c 49010000 		.4byte	.LASF11
 426 0090 04       		.uleb128 0x4
 427 0091 D9070000 		.4byte	.LASF12
 428 0095 02       		.byte	0x2
 429 0096 41       		.byte	0x41
 430 0097 9B000000 		.4byte	0x9b
 431 009b 02       		.uleb128 0x2
 432 009c 04       		.byte	0x4
 433 009d 07       		.byte	0x7
 434 009e EA060000 		.4byte	.LASF13
 435 00a2 02       		.uleb128 0x2
 436 00a3 08       		.byte	0x8
 437 00a4 07       		.byte	0x7
 438 00a5 17010000 		.4byte	.LASF14
 439 00a9 02       		.uleb128 0x2
 440 00aa 04       		.byte	0x4
 441 00ab 07       		.byte	0x7
 442 00ac 03050000 		.4byte	.LASF15
 443 00b0 05       		.uleb128 0x5
 444 00b1 04       		.byte	0x4
 445 00b2 02       		.uleb128 0x2
 446 00b3 01       		.byte	0x1
 447 00b4 08       		.byte	0x8
 448 00b5 FC060000 		.4byte	.LASF16
 449 00b9 06       		.uleb128 0x6
 450 00ba 04       		.byte	0x4
 451 00bb BF000000 		.4byte	0xbf
 452 00bf 07       		.uleb128 0x7
 453 00c0 B2000000 		.4byte	0xb2
ARM GAS  /var/folders/6q/x_mk5n_j3p7_c40r_2k_78980000gn/T//ccFwykIN.s 			page 9


 454 00c4 04       		.uleb128 0x4
 455 00c5 0D090000 		.4byte	.LASF17
 456 00c9 03       		.byte	0x3
 457 00ca 18       		.byte	0x18
 458 00cb 48000000 		.4byte	0x48
 459 00cf 04       		.uleb128 0x4
 460 00d0 E5000000 		.4byte	.LASF18
 461 00d4 03       		.byte	0x3
 462 00d5 20       		.byte	0x20
 463 00d6 5A000000 		.4byte	0x5a
 464 00da 04       		.uleb128 0x4
 465 00db 7A010000 		.4byte	.LASF19
 466 00df 03       		.byte	0x3
 467 00e0 24       		.byte	0x24
 468 00e1 6C000000 		.4byte	0x6c
 469 00e5 04       		.uleb128 0x4
 470 00e6 1A060000 		.4byte	.LASF20
 471 00ea 03       		.byte	0x3
 472 00eb 2C       		.byte	0x2c
 473 00ec 7E000000 		.4byte	0x7e
 474 00f0 04       		.uleb128 0x4
 475 00f1 B7060000 		.4byte	.LASF21
 476 00f5 03       		.byte	0x3
 477 00f6 30       		.byte	0x30
 478 00f7 90000000 		.4byte	0x90
 479 00fb 04       		.uleb128 0x4
 480 00fc D7000000 		.4byte	.LASF22
 481 0100 04       		.byte	0x4
 482 0101 2B       		.byte	0x2b
 483 0102 06010000 		.4byte	0x106
 484 0106 02       		.uleb128 0x2
 485 0107 01       		.byte	0x1
 486 0108 02       		.byte	0x2
 487 0109 14060000 		.4byte	.LASF23
 488 010d 04       		.uleb128 0x4
 489 010e 88060000 		.4byte	.LASF24
 490 0112 04       		.byte	0x4
 491 0113 2C       		.byte	0x2c
 492 0114 C4000000 		.4byte	0xc4
 493 0118 04       		.uleb128 0x4
 494 0119 58010000 		.4byte	.LASF25
 495 011d 04       		.byte	0x4
 496 011e 2D       		.byte	0x2d
 497 011f C4000000 		.4byte	0xc4
 498 0123 04       		.uleb128 0x4
 499 0124 F7050000 		.4byte	.LASF26
 500 0128 04       		.byte	0x4
 501 0129 2E       		.byte	0x2e
 502 012a C4000000 		.4byte	0xc4
 503 012e 04       		.uleb128 0x4
 504 012f 3F010000 		.4byte	.LASF27
 505 0133 04       		.byte	0x4
 506 0134 2F       		.byte	0x2f
 507 0135 C4000000 		.4byte	0xc4
 508 0139 04       		.uleb128 0x4
 509 013a 06060000 		.4byte	.LASF28
 510 013e 04       		.byte	0x4
ARM GAS  /var/folders/6q/x_mk5n_j3p7_c40r_2k_78980000gn/T//ccFwykIN.s 			page 10


 511 013f 30       		.byte	0x30
 512 0140 F0000000 		.4byte	0xf0
 513 0144 04       		.uleb128 0x4
 514 0145 05040000 		.4byte	.LASF29
 515 0149 04       		.byte	0x4
 516 014a 31       		.byte	0x31
 517 014b E5000000 		.4byte	0xe5
 518 014f 04       		.uleb128 0x4
 519 0150 A5040000 		.4byte	.LASF30
 520 0154 04       		.byte	0x4
 521 0155 33       		.byte	0x33
 522 0156 F0000000 		.4byte	0xf0
 523 015a 04       		.uleb128 0x4
 524 015b BA070000 		.4byte	.LASF31
 525 015f 04       		.byte	0x4
 526 0160 35       		.byte	0x35
 527 0161 F0000000 		.4byte	0xf0
 528 0165 04       		.uleb128 0x4
 529 0166 FD010000 		.4byte	.LASF32
 530 016a 05       		.byte	0x5
 531 016b 2A       		.byte	0x2a
 532 016c 70010000 		.4byte	0x170
 533 0170 08       		.uleb128 0x8
 534 0171 FD010000 		.4byte	.LASF32
 535 0175 48       		.byte	0x48
 536 0176 06       		.byte	0x6
 537 0177 5E       		.byte	0x5e
 538 0178 6D020000 		.4byte	0x26d
 539 017c 09       		.uleb128 0x9
 540 017d 81060000 		.4byte	.LASF33
 541 0181 06       		.byte	0x6
 542 0182 5F       		.byte	0x5f
 543 0183 8E020000 		.4byte	0x28e
 544 0187 00       		.byte	0
 545 0188 09       		.uleb128 0x9
 546 0189 FF050000 		.4byte	.LASF34
 547 018d 06       		.byte	0x6
 548 018e 61       		.byte	0x61
 549 018f 8E020000 		.4byte	0x28e
 550 0193 04       		.byte	0x4
 551 0194 09       		.uleb128 0x9
 552 0195 DE000000 		.4byte	.LASF35
 553 0199 06       		.byte	0x6
 554 019a 63       		.byte	0x63
 555 019b 39010000 		.4byte	0x139
 556 019f 08       		.byte	0x8
 557 01a0 09       		.uleb128 0x9
 558 01a1 C3090000 		.4byte	.LASF36
 559 01a5 06       		.byte	0x6
 560 01a6 64       		.byte	0x64
 561 01a7 46030000 		.4byte	0x346
 562 01ab 0C       		.byte	0xc
 563 01ac 09       		.uleb128 0x9
 564 01ad 9E010000 		.4byte	.LASF37
 565 01b1 06       		.byte	0x6
 566 01b2 66       		.byte	0x66
 567 01b3 8E020000 		.4byte	0x28e
ARM GAS  /var/folders/6q/x_mk5n_j3p7_c40r_2k_78980000gn/T//ccFwykIN.s 			page 11


 568 01b7 10       		.byte	0x10
 569 01b8 09       		.uleb128 0x9
 570 01b9 3D050000 		.4byte	.LASF38
 571 01bd 06       		.byte	0x6
 572 01be 67       		.byte	0x67
 573 01bf 8E020000 		.4byte	0x28e
 574 01c3 14       		.byte	0x14
 575 01c4 09       		.uleb128 0x9
 576 01c5 51090000 		.4byte	.LASF39
 577 01c9 06       		.byte	0x6
 578 01ca 6E       		.byte	0x6e
 579 01cb B9000000 		.4byte	0xb9
 580 01cf 18       		.byte	0x18
 581 01d0 09       		.uleb128 0x9
 582 01d1 07010000 		.4byte	.LASF40
 583 01d5 06       		.byte	0x6
 584 01d6 79       		.byte	0x79
 585 01d7 18010000 		.4byte	0x118
 586 01db 1C       		.byte	0x1c
 587 01dc 09       		.uleb128 0x9
 588 01dd 90060000 		.4byte	.LASF41
 589 01e1 06       		.byte	0x6
 590 01e2 7D       		.byte	0x7d
 591 01e3 0D010000 		.4byte	0x10d
 592 01e7 1D       		.byte	0x1d
 593 01e8 09       		.uleb128 0x9
 594 01e9 B1080000 		.4byte	.LASF42
 595 01ed 06       		.byte	0x6
 596 01ee 82       		.byte	0x82
 597 01ef 23010000 		.4byte	0x123
 598 01f3 1E       		.byte	0x1e
 599 01f4 09       		.uleb128 0x9
 600 01f5 56060000 		.4byte	.LASF43
 601 01f9 06       		.byte	0x6
 602 01fa 88       		.byte	0x88
 603 01fb 2E010000 		.4byte	0x12e
 604 01ff 1F       		.byte	0x1f
 605 0200 09       		.uleb128 0x9
 606 0201 17000000 		.4byte	.LASF44
 607 0205 06       		.byte	0x6
 608 0206 8F       		.byte	0x8f
 609 0207 67030000 		.4byte	0x367
 610 020b 20       		.byte	0x20
 611 020c 0A       		.uleb128 0xa
 612 020d 705F7500 		.ascii	"p_u\000"
 613 0211 06       		.byte	0x6
 614 0212 B4       		.byte	0xb4
 615 0213 0A040000 		.4byte	0x40a
 616 0217 24       		.byte	0x24
 617 0218 09       		.uleb128 0x9
 618 0219 C9090000 		.4byte	.LASF45
 619 021d 06       		.byte	0x6
 620 021e B9       		.byte	0xb9
 621 021f B4020000 		.4byte	0x2b4
 622 0223 28       		.byte	0x28
 623 0224 09       		.uleb128 0x9
 624 0225 88020000 		.4byte	.LASF46
ARM GAS  /var/folders/6q/x_mk5n_j3p7_c40r_2k_78980000gn/T//ccFwykIN.s 			page 12


 625 0229 06       		.byte	0x6
 626 022a BF       		.byte	0xbf
 627 022b 94020000 		.4byte	0x294
 628 022f 2C       		.byte	0x2c
 629 0230 09       		.uleb128 0x9
 630 0231 30060000 		.4byte	.LASF47
 631 0235 06       		.byte	0x6
 632 0236 C3       		.byte	0xc3
 633 0237 44010000 		.4byte	0x144
 634 023b 34       		.byte	0x34
 635 023c 09       		.uleb128 0x9
 636 023d AC060000 		.4byte	.LASF48
 637 0241 06       		.byte	0x6
 638 0242 C9       		.byte	0xc9
 639 0243 4F010000 		.4byte	0x14f
 640 0247 38       		.byte	0x38
 641 0248 09       		.uleb128 0x9
 642 0249 46060000 		.4byte	.LASF49
 643 024d 06       		.byte	0x6
 644 024e D0       		.byte	0xd0
 645 024f 3F040000 		.4byte	0x43f
 646 0253 3C       		.byte	0x3c
 647 0254 09       		.uleb128 0x9
 648 0255 C4070000 		.4byte	.LASF50
 649 0259 06       		.byte	0x6
 650 025a D4       		.byte	0xd4
 651 025b 39010000 		.4byte	0x139
 652 025f 40       		.byte	0x40
 653 0260 09       		.uleb128 0x9
 654 0261 0F010000 		.4byte	.LASF51
 655 0265 06       		.byte	0x6
 656 0266 DA       		.byte	0xda
 657 0267 B0000000 		.4byte	0xb0
 658 026b 44       		.byte	0x44
 659 026c 00       		.byte	0
 660 026d 0B       		.uleb128 0xb
 661 026e 08       		.byte	0x8
 662 026f 05       		.byte	0x5
 663 0270 61       		.byte	0x61
 664 0271 8E020000 		.4byte	0x28e
 665 0275 09       		.uleb128 0x9
 666 0276 81060000 		.4byte	.LASF33
 667 027a 05       		.byte	0x5
 668 027b 62       		.byte	0x62
 669 027c 8E020000 		.4byte	0x28e
 670 0280 00       		.byte	0
 671 0281 09       		.uleb128 0x9
 672 0282 FF050000 		.4byte	.LASF34
 673 0286 05       		.byte	0x5
 674 0287 64       		.byte	0x64
 675 0288 8E020000 		.4byte	0x28e
 676 028c 04       		.byte	0x4
 677 028d 00       		.byte	0
 678 028e 06       		.uleb128 0x6
 679 028f 04       		.byte	0x4
 680 0290 65010000 		.4byte	0x165
 681 0294 04       		.uleb128 0x4
ARM GAS  /var/folders/6q/x_mk5n_j3p7_c40r_2k_78980000gn/T//ccFwykIN.s 			page 13


 682 0295 5C050000 		.4byte	.LASF52
 683 0299 05       		.byte	0x5
 684 029a 66       		.byte	0x66
 685 029b 6D020000 		.4byte	0x26d
 686 029f 0B       		.uleb128 0xb
 687 02a0 04       		.byte	0x4
 688 02a1 05       		.byte	0x5
 689 02a2 6B       		.byte	0x6b
 690 02a3 B4020000 		.4byte	0x2b4
 691 02a7 09       		.uleb128 0x9
 692 02a8 81060000 		.4byte	.LASF33
 693 02ac 05       		.byte	0x5
 694 02ad 6D       		.byte	0x6d
 695 02ae 8E020000 		.4byte	0x28e
 696 02b2 00       		.byte	0
 697 02b3 00       		.byte	0
 698 02b4 04       		.uleb128 0x4
 699 02b5 99040000 		.4byte	.LASF53
 700 02b9 05       		.byte	0x5
 701 02ba 70       		.byte	0x70
 702 02bb 9F020000 		.4byte	0x29f
 703 02bf 04       		.uleb128 0x4
 704 02c0 CF010000 		.4byte	.LASF54
 705 02c4 07       		.byte	0x7
 706 02c5 E5       		.byte	0xe5
 707 02c6 B0000000 		.4byte	0xb0
 708 02ca 0C       		.uleb128 0xc
 709 02cb 4C080000 		.4byte	.LASF55
 710 02cf 24       		.byte	0x24
 711 02d0 07       		.byte	0x7
 712 02d1 0C01     		.2byte	0x10c
 713 02d3 46030000 		.4byte	0x346
 714 02d7 0D       		.uleb128 0xd
 715 02d8 723400   		.ascii	"r4\000"
 716 02db 07       		.byte	0x7
 717 02dc 1F01     		.2byte	0x11f
 718 02de BF020000 		.4byte	0x2bf
 719 02e2 00       		.byte	0
 720 02e3 0D       		.uleb128 0xd
 721 02e4 723500   		.ascii	"r5\000"
 722 02e7 07       		.byte	0x7
 723 02e8 2001     		.2byte	0x120
 724 02ea BF020000 		.4byte	0x2bf
 725 02ee 04       		.byte	0x4
 726 02ef 0D       		.uleb128 0xd
 727 02f0 723600   		.ascii	"r6\000"
 728 02f3 07       		.byte	0x7
 729 02f4 2101     		.2byte	0x121
 730 02f6 BF020000 		.4byte	0x2bf
 731 02fa 08       		.byte	0x8
 732 02fb 0D       		.uleb128 0xd
 733 02fc 723700   		.ascii	"r7\000"
 734 02ff 07       		.byte	0x7
 735 0300 2201     		.2byte	0x122
 736 0302 BF020000 		.4byte	0x2bf
 737 0306 0C       		.byte	0xc
 738 0307 0D       		.uleb128 0xd
ARM GAS  /var/folders/6q/x_mk5n_j3p7_c40r_2k_78980000gn/T//ccFwykIN.s 			page 14


 739 0308 723800   		.ascii	"r8\000"
 740 030b 07       		.byte	0x7
 741 030c 2301     		.2byte	0x123
 742 030e BF020000 		.4byte	0x2bf
 743 0312 10       		.byte	0x10
 744 0313 0D       		.uleb128 0xd
 745 0314 723900   		.ascii	"r9\000"
 746 0317 07       		.byte	0x7
 747 0318 2401     		.2byte	0x124
 748 031a BF020000 		.4byte	0x2bf
 749 031e 14       		.byte	0x14
 750 031f 0D       		.uleb128 0xd
 751 0320 72313000 		.ascii	"r10\000"
 752 0324 07       		.byte	0x7
 753 0325 2501     		.2byte	0x125
 754 0327 BF020000 		.4byte	0x2bf
 755 032b 18       		.byte	0x18
 756 032c 0D       		.uleb128 0xd
 757 032d 72313100 		.ascii	"r11\000"
 758 0331 07       		.byte	0x7
 759 0332 2601     		.2byte	0x126
 760 0334 BF020000 		.4byte	0x2bf
 761 0338 1C       		.byte	0x1c
 762 0339 0D       		.uleb128 0xd
 763 033a 6C7200   		.ascii	"lr\000"
 764 033d 07       		.byte	0x7
 765 033e 2701     		.2byte	0x127
 766 0340 BF020000 		.4byte	0x2bf
 767 0344 20       		.byte	0x20
 768 0345 00       		.byte	0
 769 0346 0C       		.uleb128 0xc
 770 0347 27080000 		.4byte	.LASF56
 771 034b 04       		.byte	0x4
 772 034c 07       		.byte	0x7
 773 034d 3101     		.2byte	0x131
 774 034f 61030000 		.4byte	0x361
 775 0353 0D       		.uleb128 0xd
 776 0354 72313300 		.ascii	"r13\000"
 777 0358 07       		.byte	0x7
 778 0359 3201     		.2byte	0x132
 779 035b 61030000 		.4byte	0x361
 780 035f 00       		.byte	0
 781 0360 00       		.byte	0
 782 0361 06       		.uleb128 0x6
 783 0362 04       		.byte	0x4
 784 0363 CA020000 		.4byte	0x2ca
 785 0367 0E       		.uleb128 0xe
 786 0368 5A010000 		.4byte	0x15a
 787 036c 0B       		.uleb128 0xb
 788 036d 1C       		.byte	0x1c
 789 036e 08       		.byte	0x8
 790 036f 5E       		.byte	0x5e
 791 0370 BD030000 		.4byte	0x3bd
 792 0374 09       		.uleb128 0x9
 793 0375 C0060000 		.4byte	.LASF57
 794 0379 08       		.byte	0x8
 795 037a 5F       		.byte	0x5f
ARM GAS  /var/folders/6q/x_mk5n_j3p7_c40r_2k_78980000gn/T//ccFwykIN.s 			page 15


 796 037b 94020000 		.4byte	0x294
 797 037f 00       		.byte	0
 798 0380 09       		.uleb128 0x9
 799 0381 73060000 		.4byte	.LASF58
 800 0385 08       		.byte	0x8
 801 0386 60       		.byte	0x60
 802 0387 39010000 		.4byte	0x139
 803 038b 08       		.byte	0x8
 804 038c 09       		.uleb128 0x9
 805 038d 56050000 		.4byte	.LASF59
 806 0391 08       		.byte	0x8
 807 0392 62       		.byte	0x62
 808 0393 46030000 		.4byte	0x346
 809 0397 0C       		.byte	0xc
 810 0398 09       		.uleb128 0x9
 811 0399 BC010000 		.4byte	.LASF60
 812 039d 08       		.byte	0x8
 813 039e 65       		.byte	0x65
 814 039f 8E020000 		.4byte	0x28e
 815 03a3 10       		.byte	0x10
 816 03a4 09       		.uleb128 0x9
 817 03a5 85050000 		.4byte	.LASF61
 818 03a9 08       		.byte	0x8
 819 03aa 66       		.byte	0x66
 820 03ab 8E020000 		.4byte	0x28e
 821 03af 14       		.byte	0x14
 822 03b0 09       		.uleb128 0x9
 823 03b1 7B050000 		.4byte	.LASF62
 824 03b5 08       		.byte	0x8
 825 03b6 69       		.byte	0x69
 826 03b7 8E020000 		.4byte	0x28e
 827 03bb 18       		.byte	0x18
 828 03bc 00       		.byte	0
 829 03bd 04       		.uleb128 0x4
 830 03be C2080000 		.4byte	.LASF63
 831 03c2 08       		.byte	0x8
 832 03c3 6B       		.byte	0x6b
 833 03c4 6C030000 		.4byte	0x36c
 834 03c8 08       		.uleb128 0x8
 835 03c9 31050000 		.4byte	.LASF64
 836 03cd 10       		.byte	0x10
 837 03ce 09       		.byte	0x9
 838 03cf 2C       		.byte	0x2c
 839 03d0 F9030000 		.4byte	0x3f9
 840 03d4 09       		.uleb128 0x9
 841 03d5 2E010000 		.4byte	.LASF65
 842 03d9 09       		.byte	0x9
 843 03da 2D       		.byte	0x2d
 844 03db 94020000 		.4byte	0x294
 845 03df 00       		.byte	0
 846 03e0 09       		.uleb128 0x9
 847 03e1 A9090000 		.4byte	.LASF66
 848 03e5 09       		.byte	0x9
 849 03e6 2F       		.byte	0x2f
 850 03e7 8E020000 		.4byte	0x28e
 851 03eb 08       		.byte	0x8
 852 03ec 09       		.uleb128 0x9
ARM GAS  /var/folders/6q/x_mk5n_j3p7_c40r_2k_78980000gn/T//ccFwykIN.s 			page 16


 853 03ed B3070000 		.4byte	.LASF67
 854 03f1 09       		.byte	0x9
 855 03f2 31       		.byte	0x31
 856 03f3 F9030000 		.4byte	0x3f9
 857 03f7 0C       		.byte	0xc
 858 03f8 00       		.byte	0
 859 03f9 06       		.uleb128 0x6
 860 03fa 04       		.byte	0x4
 861 03fb C8030000 		.4byte	0x3c8
 862 03ff 04       		.uleb128 0x4
 863 0400 31050000 		.4byte	.LASF64
 864 0404 09       		.byte	0x9
 865 0405 33       		.byte	0x33
 866 0406 C8030000 		.4byte	0x3c8
 867 040a 0F       		.uleb128 0xf
 868 040b 04       		.byte	0x4
 869 040c 06       		.byte	0x6
 870 040d 96       		.byte	0x96
 871 040e 3F040000 		.4byte	0x43f
 872 0412 10       		.uleb128 0x10
 873 0413 2B000000 		.4byte	.LASF68
 874 0417 06       		.byte	0x6
 875 0418 9D       		.byte	0x9d
 876 0419 44010000 		.4byte	0x144
 877 041d 10       		.uleb128 0x10
 878 041e AC010000 		.4byte	.LASF69
 879 0422 06       		.byte	0x6
 880 0423 A4       		.byte	0xa4
 881 0424 44010000 		.4byte	0x144
 882 0428 10       		.uleb128 0x10
 883 0429 4A090000 		.4byte	.LASF70
 884 042d 06       		.byte	0x6
 885 042e AB       		.byte	0xab
 886 042f B0000000 		.4byte	0xb0
 887 0433 10       		.uleb128 0x10
 888 0434 7A060000 		.4byte	.LASF71
 889 0438 06       		.byte	0x6
 890 0439 B2       		.byte	0xb2
 891 043a 4F010000 		.4byte	0x14f
 892 043e 00       		.byte	0
 893 043f 06       		.uleb128 0x6
 894 0440 04       		.byte	0x4
 895 0441 FF030000 		.4byte	0x3ff
 896 0445 0E       		.uleb128 0xe
 897 0446 E5000000 		.4byte	0xe5
 898 044a 11       		.uleb128 0x11
 899 044b 01       		.byte	0x1
 900 044c 41000000 		.4byte	0x41
 901 0450 0A       		.byte	0xa
 902 0451 8D       		.byte	0x8d
 903 0452 AB040000 		.4byte	0x4ab
 904 0456 12       		.uleb128 0x12
 905 0457 A0050000 		.4byte	.LASF72
 906 045b 7F       		.sleb128 -1
 907 045c 13       		.uleb128 0x13
 908 045d 11040000 		.4byte	.LASF73
 909 0461 00       		.byte	0
ARM GAS  /var/folders/6q/x_mk5n_j3p7_c40r_2k_78980000gn/T//ccFwykIN.s 			page 17


 910 0462 13       		.uleb128 0x13
 911 0463 1F040000 		.4byte	.LASF74
 912 0467 01       		.byte	0x1
 913 0468 13       		.uleb128 0x13
 914 0469 2D040000 		.4byte	.LASF75
 915 046d 02       		.byte	0x2
 916 046e 13       		.uleb128 0x13
 917 046f 3B040000 		.4byte	.LASF76
 918 0473 03       		.byte	0x3
 919 0474 13       		.uleb128 0x13
 920 0475 49040000 		.4byte	.LASF77
 921 0479 04       		.byte	0x4
 922 047a 13       		.uleb128 0x13
 923 047b 57040000 		.4byte	.LASF78
 924 047f 05       		.byte	0x5
 925 0480 13       		.uleb128 0x13
 926 0481 65040000 		.4byte	.LASF79
 927 0485 06       		.byte	0x6
 928 0486 13       		.uleb128 0x13
 929 0487 83010000 		.4byte	.LASF80
 930 048b 07       		.byte	0x7
 931 048c 13       		.uleb128 0x13
 932 048d 8B040000 		.4byte	.LASF81
 933 0491 08       		.byte	0x8
 934 0492 13       		.uleb128 0x13
 935 0493 6E070000 		.4byte	.LASF82
 936 0497 09       		.byte	0x9
 937 0498 13       		.uleb128 0x13
 938 0499 7D070000 		.4byte	.LASF83
 939 049d 0A       		.byte	0xa
 940 049e 13       		.uleb128 0x13
 941 049f 8C070000 		.4byte	.LASF84
 942 04a3 0B       		.byte	0xb
 943 04a4 13       		.uleb128 0x13
 944 04a5 9A000000 		.4byte	.LASF85
 945 04a9 0C       		.byte	0xc
 946 04aa 00       		.byte	0
 947 04ab 04       		.uleb128 0x4
 948 04ac E4090000 		.4byte	.LASF86
 949 04b0 0A       		.byte	0xa
 950 04b1 9D       		.byte	0x9d
 951 04b2 4A040000 		.4byte	0x44a
 952 04b6 11       		.uleb128 0x11
 953 04b7 01       		.byte	0x1
 954 04b8 53000000 		.4byte	0x53
 955 04bc 0A       		.byte	0xa
 956 04bd A2       		.byte	0xa2
 957 04be CF040000 		.4byte	0x4cf
 958 04c2 13       		.uleb128 0x13
 959 04c3 D3090000 		.4byte	.LASF87
 960 04c7 00       		.byte	0
 961 04c8 13       		.uleb128 0x13
 962 04c9 7F000000 		.4byte	.LASF88
 963 04cd 01       		.byte	0x1
 964 04ce 00       		.byte	0
 965 04cf 11       		.uleb128 0x11
 966 04d0 01       		.byte	0x1
ARM GAS  /var/folders/6q/x_mk5n_j3p7_c40r_2k_78980000gn/T//ccFwykIN.s 			page 18


 967 04d1 53000000 		.4byte	0x53
 968 04d5 0B       		.byte	0xb
 969 04d6 63       		.byte	0x63
 970 04d7 FA040000 		.4byte	0x4fa
 971 04db 13       		.uleb128 0x13
 972 04dc 8D050000 		.4byte	.LASF89
 973 04e0 00       		.byte	0
 974 04e1 13       		.uleb128 0x13
 975 04e2 45000000 		.4byte	.LASF90
 976 04e6 01       		.byte	0x1
 977 04e7 13       		.uleb128 0x13
 978 04e8 BF050000 		.4byte	.LASF91
 979 04ec 02       		.byte	0x2
 980 04ed 13       		.uleb128 0x13
 981 04ee B1050000 		.4byte	.LASF92
 982 04f2 03       		.byte	0x3
 983 04f3 13       		.uleb128 0x13
 984 04f4 6C010000 		.4byte	.LASF93
 985 04f8 04       		.byte	0x4
 986 04f9 00       		.byte	0
 987 04fa 04       		.uleb128 0x4
 988 04fb E9050000 		.4byte	.LASF94
 989 04ff 0B       		.byte	0xb
 990 0500 69       		.byte	0x69
 991 0501 CF040000 		.4byte	0x4cf
 992 0505 11       		.uleb128 0x11
 993 0506 01       		.byte	0x1
 994 0507 41000000 		.4byte	0x41
 995 050b 0B       		.byte	0xb
 996 050c 6E       		.byte	0x6e
 997 050d 5A050000 		.4byte	0x55a
 998 0511 12       		.uleb128 0x12
 999 0512 21090000 		.4byte	.LASF95
 1000 0516 7F       		.sleb128 -1
 1001 0517 13       		.uleb128 0x13
 1002 0518 70020000 		.4byte	.LASF96
 1003 051c 00       		.byte	0
 1004 051d 13       		.uleb128 0x13
 1005 051e 7C020000 		.4byte	.LASF97
 1006 0522 01       		.byte	0x1
 1007 0523 13       		.uleb128 0x13
 1008 0524 0B000000 		.4byte	.LASF98
 1009 0528 02       		.byte	0x2
 1010 0529 13       		.uleb128 0x13
 1011 052a 93020000 		.4byte	.LASF99
 1012 052e 03       		.byte	0x3
 1013 052f 13       		.uleb128 0x13
 1014 0530 9F020000 		.4byte	.LASF100
 1015 0534 04       		.byte	0x4
 1016 0535 13       		.uleb128 0x13
 1017 0536 AB020000 		.4byte	.LASF101
 1018 053a 05       		.byte	0x5
 1019 053b 13       		.uleb128 0x13
 1020 053c B7020000 		.4byte	.LASF102
 1021 0540 06       		.byte	0x6
 1022 0541 13       		.uleb128 0x13
 1023 0542 C3020000 		.4byte	.LASF103
ARM GAS  /var/folders/6q/x_mk5n_j3p7_c40r_2k_78980000gn/T//ccFwykIN.s 			page 19


 1024 0546 07       		.byte	0x7
 1025 0547 13       		.uleb128 0x13
 1026 0548 CF020000 		.4byte	.LASF104
 1027 054c 08       		.byte	0x8
 1028 054d 13       		.uleb128 0x13
 1029 054e 91010000 		.4byte	.LASF105
 1030 0552 09       		.byte	0x9
 1031 0553 13       		.uleb128 0x13
 1032 0554 E9030000 		.4byte	.LASF106
 1033 0558 0A       		.byte	0xa
 1034 0559 00       		.byte	0
 1035 055a 04       		.uleb128 0x4
 1036 055b D6040000 		.4byte	.LASF107
 1037 055f 0B       		.byte	0xb
 1038 0560 7C       		.byte	0x7c
 1039 0561 05050000 		.4byte	0x505
 1040 0565 11       		.uleb128 0x11
 1041 0566 01       		.byte	0x1
 1042 0567 53000000 		.4byte	0x53
 1043 056b 0C       		.byte	0xc
 1044 056c 46       		.byte	0x46
 1045 056d AE050000 		.4byte	0x5ae
 1046 0571 13       		.uleb128 0x13
 1047 0572 DB050000 		.4byte	.LASF108
 1048 0576 00       		.byte	0
 1049 0577 13       		.uleb128 0x13
 1050 0578 01070000 		.4byte	.LASF109
 1051 057c 01       		.byte	0x1
 1052 057d 13       		.uleb128 0x13
 1053 057e 0F070000 		.4byte	.LASF110
 1054 0582 02       		.byte	0x2
 1055 0583 13       		.uleb128 0x13
 1056 0584 1D070000 		.4byte	.LASF111
 1057 0588 03       		.byte	0x3
 1058 0589 13       		.uleb128 0x13
 1059 058a 2B070000 		.4byte	.LASF112
 1060 058e 04       		.byte	0x4
 1061 058f 13       		.uleb128 0x13
 1062 0590 39070000 		.4byte	.LASF113
 1063 0594 05       		.byte	0x5
 1064 0595 13       		.uleb128 0x13
 1065 0596 47070000 		.4byte	.LASF114
 1066 059a 06       		.byte	0x6
 1067 059b 13       		.uleb128 0x13
 1068 059c 55070000 		.4byte	.LASF115
 1069 05a0 07       		.byte	0x7
 1070 05a1 13       		.uleb128 0x13
 1071 05a2 F3010000 		.4byte	.LASF116
 1072 05a6 08       		.byte	0x8
 1073 05a7 13       		.uleb128 0x13
 1074 05a8 FD080000 		.4byte	.LASF117
 1075 05ac 63       		.byte	0x63
 1076 05ad 00       		.byte	0
 1077 05ae 11       		.uleb128 0x11
 1078 05af 01       		.byte	0x1
 1079 05b0 53000000 		.4byte	0x53
 1080 05b4 0D       		.byte	0xd
ARM GAS  /var/folders/6q/x_mk5n_j3p7_c40r_2k_78980000gn/T//ccFwykIN.s 			page 20


 1081 05b5 3A       		.byte	0x3a
 1082 05b6 F1050000 		.4byte	0x5f1
 1083 05ba 13       		.uleb128 0x13
 1084 05bb D8010000 		.4byte	.LASF118
 1085 05bf 00       		.byte	0
 1086 05c0 13       		.uleb128 0x13
 1087 05c1 68000000 		.4byte	.LASF119
 1088 05c5 01       		.byte	0x1
 1089 05c6 13       		.uleb128 0x13
 1090 05c7 73040000 		.4byte	.LASF120
 1091 05cb 02       		.byte	0x2
 1092 05cc 13       		.uleb128 0x13
 1093 05cd 02080000 		.4byte	.LASF121
 1094 05d1 03       		.byte	0x3
 1095 05d2 13       		.uleb128 0x13
 1096 05d3 2F080000 		.4byte	.LASF122
 1097 05d7 04       		.byte	0x4
 1098 05d8 13       		.uleb128 0x13
 1099 05d9 61090000 		.4byte	.LASF123
 1100 05dd 05       		.byte	0x5
 1101 05de 13       		.uleb128 0x13
 1102 05df CD050000 		.4byte	.LASF124
 1103 05e3 06       		.byte	0x6
 1104 05e4 13       		.uleb128 0x13
 1105 05e5 E4070000 		.4byte	.LASF125
 1106 05e9 07       		.byte	0x7
 1107 05ea 13       		.uleb128 0x13
 1108 05eb 7B080000 		.4byte	.LASF126
 1109 05ef 08       		.byte	0x8
 1110 05f0 00       		.byte	0
 1111 05f1 04       		.uleb128 0x4
 1112 05f2 F6030000 		.4byte	.LASF127
 1113 05f6 0D       		.byte	0xd
 1114 05f7 45       		.byte	0x45
 1115 05f8 AE050000 		.4byte	0x5ae
 1116 05fc 11       		.uleb128 0x11
 1117 05fd 01       		.byte	0x1
 1118 05fe 53000000 		.4byte	0x53
 1119 0602 0D       		.byte	0xd
 1120 0603 50       		.byte	0x50
 1121 0604 33060000 		.4byte	0x633
 1122 0608 13       		.uleb128 0x13
 1123 0609 30090000 		.4byte	.LASF128
 1124 060d 00       		.byte	0
 1125 060e 13       		.uleb128 0x13
 1126 060f 52000000 		.4byte	.LASF129
 1127 0613 01       		.byte	0x1
 1128 0614 13       		.uleb128 0x13
 1129 0615 0A020000 		.4byte	.LASF130
 1130 0619 0A       		.byte	0xa
 1131 061a 13       		.uleb128 0x13
 1132 061b 1D020000 		.4byte	.LASF131
 1133 061f 0B       		.byte	0xb
 1134 0620 13       		.uleb128 0x13
 1135 0621 60060000 		.4byte	.LASF132
 1136 0625 0C       		.byte	0xc
 1137 0626 13       		.uleb128 0x13
ARM GAS  /var/folders/6q/x_mk5n_j3p7_c40r_2k_78980000gn/T//ccFwykIN.s 			page 21


 1138 0627 EB040000 		.4byte	.LASF133
 1139 062b 0D       		.byte	0xd
 1140 062c 13       		.uleb128 0x13
 1141 062d B7000000 		.4byte	.LASF134
 1142 0631 0E       		.byte	0xe
 1143 0632 00       		.byte	0
 1144 0633 04       		.uleb128 0x4
 1145 0634 53020000 		.4byte	.LASF135
 1146 0638 0D       		.byte	0xd
 1147 0639 59       		.byte	0x59
 1148 063a FC050000 		.4byte	0x5fc
 1149 063e 08       		.uleb128 0x8
 1150 063f 98060000 		.4byte	.LASF136
 1151 0643 06       		.byte	0x6
 1152 0644 0D       		.byte	0xd
 1153 0645 5F       		.byte	0x5f
 1154 0646 7B060000 		.4byte	0x67b
 1155 064a 0A       		.uleb128 0xa
 1156 064b 70696E00 		.ascii	"pin\000"
 1157 064f 0D       		.byte	0xd
 1158 0650 60       		.byte	0x60
 1159 0651 AB040000 		.4byte	0x4ab
 1160 0655 00       		.byte	0
 1161 0656 09       		.uleb128 0x9
 1162 0657 63000000 		.4byte	.LASF137
 1163 065b 0D       		.byte	0xd
 1164 065c 61       		.byte	0x61
 1165 065d F1050000 		.4byte	0x5f1
 1166 0661 01       		.byte	0x1
 1167 0662 0A       		.uleb128 0xa
 1168 0663 63666700 		.ascii	"cfg\000"
 1169 0667 0D       		.byte	0xd
 1170 0668 62       		.byte	0x62
 1171 0669 33060000 		.4byte	0x633
 1172 066d 02       		.byte	0x2
 1173 066e 09       		.uleb128 0x9
 1174 066f E5060000 		.4byte	.LASF138
 1175 0673 0D       		.byte	0xd
 1176 0674 63       		.byte	0x63
 1177 0675 DA000000 		.4byte	0xda
 1178 0679 04       		.byte	0x4
 1179 067a 00       		.byte	0
 1180 067b 04       		.uleb128 0x4
 1181 067c 70080000 		.4byte	.LASF139
 1182 0680 0D       		.byte	0xd
 1183 0681 64       		.byte	0x64
 1184 0682 3E060000 		.4byte	0x63e
 1185 0686 08       		.uleb128 0x8
 1186 0687 96090000 		.4byte	.LASF140
 1187 068b 06       		.byte	0x6
 1188 068c 0D       		.byte	0xd
 1189 068d 6F       		.byte	0x6f
 1190 068e CF060000 		.4byte	0x6cf
 1191 0692 09       		.uleb128 0x9
 1192 0693 0C050000 		.4byte	.LASF141
 1193 0697 0D       		.byte	0xd
 1194 0698 70       		.byte	0x70
ARM GAS  /var/folders/6q/x_mk5n_j3p7_c40r_2k_78980000gn/T//ccFwykIN.s 			page 22


 1195 0699 5A050000 		.4byte	0x55a
 1196 069d 00       		.byte	0
 1197 069e 09       		.uleb128 0x9
 1198 069f A6010000 		.4byte	.LASF142
 1199 06a3 0D       		.byte	0xd
 1200 06a4 71       		.byte	0x71
 1201 06a5 FA040000 		.4byte	0x4fa
 1202 06a9 01       		.byte	0x1
 1203 06aa 09       		.uleb128 0x9
 1204 06ab 11050000 		.4byte	.LASF143
 1205 06af 0D       		.byte	0xd
 1206 06b0 72       		.byte	0x72
 1207 06b1 FB000000 		.4byte	0xfb
 1208 06b5 02       		.byte	0x2
 1209 06b6 09       		.uleb128 0x9
 1210 06b7 52010000 		.4byte	.LASF144
 1211 06bb 0D       		.byte	0xd
 1212 06bc 73       		.byte	0x73
 1213 06bd F1050000 		.4byte	0x5f1
 1214 06c1 03       		.byte	0x3
 1215 06c2 09       		.uleb128 0x9
 1216 06c3 A4060000 		.4byte	.LASF145
 1217 06c7 0D       		.byte	0xd
 1218 06c8 74       		.byte	0x74
 1219 06c9 CF000000 		.4byte	0xcf
 1220 06cd 04       		.byte	0x4
 1221 06ce 00       		.byte	0
 1222 06cf 04       		.uleb128 0x4
 1223 06d0 6F050000 		.4byte	.LASF146
 1224 06d4 0D       		.byte	0xd
 1225 06d5 75       		.byte	0x75
 1226 06d6 86060000 		.4byte	0x686
 1227 06da 11       		.uleb128 0x11
 1228 06db 01       		.byte	0x1
 1229 06dc 53000000 		.4byte	0x53
 1230 06e0 0E       		.byte	0xe
 1231 06e1 3F       		.byte	0x3f
 1232 06e2 07080000 		.4byte	0x807
 1233 06e6 14       		.uleb128 0x14
 1234 06e7 43683100 		.ascii	"Ch1\000"
 1235 06eb 00       		.byte	0
 1236 06ec 14       		.uleb128 0x14
 1237 06ed 43683200 		.ascii	"Ch2\000"
 1238 06f1 01       		.byte	0x1
 1239 06f2 14       		.uleb128 0x14
 1240 06f3 43683300 		.ascii	"Ch3\000"
 1241 06f7 02       		.byte	0x2
 1242 06f8 14       		.uleb128 0x14
 1243 06f9 43683400 		.ascii	"Ch4\000"
 1244 06fd 03       		.byte	0x3
 1245 06fe 13       		.uleb128 0x13
 1246 06ff FD040000 		.4byte	.LASF147
 1247 0703 04       		.byte	0x4
 1248 0704 13       		.uleb128 0x13
 1249 0705 A5070000 		.4byte	.LASF148
 1250 0709 05       		.byte	0x5
 1251 070a 13       		.uleb128 0x13
ARM GAS  /var/folders/6q/x_mk5n_j3p7_c40r_2k_78980000gn/T//ccFwykIN.s 			page 23


 1252 070b FC070000 		.4byte	.LASF149
 1253 070f 06       		.byte	0x6
 1254 0710 13       		.uleb128 0x13
 1255 0711 69050000 		.4byte	.LASF150
 1256 0715 07       		.byte	0x7
 1257 0716 13       		.uleb128 0x13
 1258 0717 0E060000 		.4byte	.LASF151
 1259 071b 08       		.byte	0x8
 1260 071c 13       		.uleb128 0x13
 1261 071d 36060000 		.4byte	.LASF152
 1262 0721 09       		.byte	0x9
 1263 0722 13       		.uleb128 0x13
 1264 0723 04020000 		.4byte	.LASF153
 1265 0727 0A       		.byte	0xa
 1266 0728 13       		.uleb128 0x13
 1267 0729 50060000 		.4byte	.LASF154
 1268 072d 0B       		.byte	0xb
 1269 072e 13       		.uleb128 0x13
 1270 072f F1020000 		.4byte	.LASF155
 1271 0733 0C       		.byte	0xc
 1272 0734 13       		.uleb128 0x13
 1273 0735 0B040000 		.4byte	.LASF156
 1274 0739 0D       		.byte	0xd
 1275 073a 13       		.uleb128 0x13
 1276 073b A3090000 		.4byte	.LASF157
 1277 073f 0E       		.byte	0xe
 1278 0740 13       		.uleb128 0x13
 1279 0741 37050000 		.4byte	.LASF158
 1280 0745 0F       		.byte	0xf
 1281 0746 13       		.uleb128 0x13
 1282 0747 D7080000 		.4byte	.LASF159
 1283 074b 10       		.byte	0x10
 1284 074c 13       		.uleb128 0x13
 1285 074d DD080000 		.4byte	.LASF160
 1286 0751 11       		.byte	0x11
 1287 0752 13       		.uleb128 0x13
 1288 0753 E3080000 		.4byte	.LASF161
 1289 0757 12       		.byte	0x12
 1290 0758 13       		.uleb128 0x13
 1291 0759 18080000 		.4byte	.LASF162
 1292 075d 13       		.byte	0x13
 1293 075e 13       		.uleb128 0x13
 1294 075f 1D080000 		.4byte	.LASF163
 1295 0763 14       		.byte	0x14
 1296 0764 13       		.uleb128 0x13
 1297 0765 22080000 		.4byte	.LASF164
 1298 0769 15       		.byte	0x15
 1299 076a 13       		.uleb128 0x13
 1300 076b D1030000 		.4byte	.LASF165
 1301 076f 16       		.byte	0x16
 1302 0770 13       		.uleb128 0x13
 1303 0771 B5010000 		.4byte	.LASF166
 1304 0775 17       		.byte	0x17
 1305 0776 13       		.uleb128 0x13
 1306 0777 91000000 		.4byte	.LASF167
 1307 077b 80       		.byte	0x80
 1308 077c 13       		.uleb128 0x13
ARM GAS  /var/folders/6q/x_mk5n_j3p7_c40r_2k_78980000gn/T//ccFwykIN.s 			page 24


 1309 077d 58090000 		.4byte	.LASF168
 1310 0781 81       		.byte	0x81
 1311 0782 13       		.uleb128 0x13
 1312 0783 3C000000 		.4byte	.LASF169
 1313 0787 82       		.byte	0x82
 1314 0788 13       		.uleb128 0x13
 1315 0789 36010000 		.4byte	.LASF170
 1316 078d 83       		.byte	0x83
 1317 078e 13       		.uleb128 0x13
 1318 078f 00000000 		.4byte	.LASF171
 1319 0793 84       		.byte	0x84
 1320 0794 13       		.uleb128 0x13
 1321 0795 CC080000 		.4byte	.LASF172
 1322 0799 85       		.byte	0x85
 1323 079a 13       		.uleb128 0x13
 1324 079b C4010000 		.4byte	.LASF173
 1325 079f 86       		.byte	0x86
 1326 07a0 13       		.uleb128 0x13
 1327 07a1 61010000 		.4byte	.LASF174
 1328 07a5 87       		.byte	0x87
 1329 07a6 13       		.uleb128 0x13
 1330 07a7 E0040000 		.4byte	.LASF175
 1331 07ab 88       		.byte	0x88
 1332 07ac 13       		.uleb128 0x13
 1333 07ad DB020000 		.4byte	.LASF176
 1334 07b1 89       		.byte	0x89
 1335 07b2 13       		.uleb128 0x13
 1336 07b3 E6020000 		.4byte	.LASF177
 1337 07b7 8A       		.byte	0x8a
 1338 07b8 13       		.uleb128 0x13
 1339 07b9 80090000 		.4byte	.LASF178
 1340 07bd 8B       		.byte	0x8b
 1341 07be 13       		.uleb128 0x13
 1342 07bf CB040000 		.4byte	.LASF179
 1343 07c3 8C       		.byte	0x8c
 1344 07c4 13       		.uleb128 0x13
 1345 07c5 65020000 		.4byte	.LASF180
 1346 07c9 8D       		.byte	0x8d
 1347 07ca 13       		.uleb128 0x13
 1348 07cb 8B090000 		.4byte	.LASF181
 1349 07cf 8E       		.byte	0x8e
 1350 07d0 13       		.uleb128 0x13
 1351 07d1 65080000 		.4byte	.LASF182
 1352 07d5 8F       		.byte	0x8f
 1353 07d6 13       		.uleb128 0x13
 1354 07d7 75090000 		.4byte	.LASF183
 1355 07db 90       		.byte	0x90
 1356 07dc 13       		.uleb128 0x13
 1357 07dd 41080000 		.4byte	.LASF184
 1358 07e1 91       		.byte	0x91
 1359 07e2 13       		.uleb128 0x13
 1360 07e3 26050000 		.4byte	.LASF185
 1361 07e7 92       		.byte	0x92
 1362 07e8 13       		.uleb128 0x13
 1363 07e9 3C060000 		.4byte	.LASF186
 1364 07ed 93       		.byte	0x93
 1365 07ee 13       		.uleb128 0x13
ARM GAS  /var/folders/6q/x_mk5n_j3p7_c40r_2k_78980000gn/T//ccFwykIN.s 			page 25


 1366 07ef 9B070000 		.4byte	.LASF187
 1367 07f3 94       		.byte	0x94
 1368 07f4 13       		.uleb128 0x13
 1369 07f5 B8080000 		.4byte	.LASF188
 1370 07f9 95       		.byte	0x95
 1371 07fa 13       		.uleb128 0x13
 1372 07fb 53080000 		.4byte	.LASF189
 1373 07ff 96       		.byte	0x96
 1374 0800 13       		.uleb128 0x13
 1375 0801 15090000 		.4byte	.LASF190
 1376 0805 97       		.byte	0x97
 1377 0806 00       		.byte	0
 1378 0807 15       		.uleb128 0x15
 1379 0808 1E000000 		.4byte	.LASF204
 1380 080c 01       		.byte	0x1
 1381 080d 56       		.byte	0x56
 1382 080e 00000000 		.4byte	.LFB63
 1383 0812 20000000 		.4byte	.LFE63-.LFB63
 1384 0816 01       		.uleb128 0x1
 1385 0817 9C       		.byte	0x9c
 1386 0818 51080000 		.4byte	0x851
 1387 081c 16       		.uleb128 0x16
 1388 081d 0A000000 		.4byte	.LVL0
 1389 0821 070A0000 		.4byte	0xa07
 1390 0825 38080000 		.4byte	0x838
 1391 0829 17       		.uleb128 0x17
 1392 082a 01       		.uleb128 0x1
 1393 082b 50       		.byte	0x50
 1394 082c 05       		.uleb128 0x5
 1395 082d 03       		.byte	0x3
 1396 082e 00000000 		.4byte	.LANCHOR0
 1397 0832 17       		.uleb128 0x17
 1398 0833 01       		.uleb128 0x1
 1399 0834 51       		.byte	0x51
 1400 0835 01       		.uleb128 0x1
 1401 0836 3C       		.byte	0x3c
 1402 0837 00       		.byte	0
 1403 0838 18       		.uleb128 0x18
 1404 0839 16000000 		.4byte	.LVL1
 1405 083d 120A0000 		.4byte	0xa12
 1406 0841 17       		.uleb128 0x17
 1407 0842 01       		.uleb128 0x1
 1408 0843 50       		.byte	0x50
 1409 0844 05       		.uleb128 0x5
 1410 0845 03       		.byte	0x3
 1411 0846 00000000 		.4byte	.LANCHOR1
 1412 084a 17       		.uleb128 0x17
 1413 084b 01       		.uleb128 0x1
 1414 084c 51       		.byte	0x51
 1415 084d 01       		.uleb128 0x1
 1416 084e 3A       		.byte	0x3a
 1417 084f 00       		.byte	0
 1418 0850 00       		.byte	0
 1419 0851 19       		.uleb128 0x19
 1420 0852 E7010000 		.4byte	.LASF205
 1421 0856 01       		.byte	0x1
 1422 0857 65       		.byte	0x65
ARM GAS  /var/folders/6q/x_mk5n_j3p7_c40r_2k_78980000gn/T//ccFwykIN.s 			page 26


 1423 0858 00000000 		.4byte	.LFB64
 1424 085c 02000000 		.4byte	.LFE64-.LFB64
 1425 0860 01       		.uleb128 0x1
 1426 0861 9C       		.byte	0x9c
 1427 0862 1A       		.uleb128 0x1a
 1428 0863 E9080000 		.4byte	.LASF206
 1429 0867 01       		.byte	0x1
 1430 0868 71       		.byte	0x71
 1431 0869 44010000 		.4byte	0x144
 1432 086d 00000000 		.4byte	.LFB65
 1433 0871 14000000 		.4byte	.LFE65-.LFB65
 1434 0875 01       		.uleb128 0x1
 1435 0876 9C       		.byte	0x9c
 1436 0877 B1080000 		.4byte	0x8b1
 1437 087b 1B       		.uleb128 0x1b
 1438 087c 61726700 		.ascii	"arg\000"
 1439 0880 01       		.byte	0x1
 1440 0881 71       		.byte	0x71
 1441 0882 B0000000 		.4byte	0xb0
 1442 0886 00000000 		.4byte	.LLST0
 1443 088a 16       		.uleb128 0x16
 1444 088b 08000000 		.4byte	.LVL4
 1445 088f 1D0A0000 		.4byte	0xa1d
 1446 0893 A1080000 		.4byte	0x8a1
 1447 0897 17       		.uleb128 0x17
 1448 0898 01       		.uleb128 0x1
 1449 0899 50       		.byte	0x50
 1450 089a 05       		.uleb128 0x5
 1451 089b 03       		.byte	0x3
 1452 089c 00000000 		.4byte	.LC0
 1453 08a0 00       		.byte	0
 1454 08a1 1C       		.uleb128 0x1c
 1455 08a2 0E000000 		.4byte	.LVL5
 1456 08a6 280A0000 		.4byte	0xa28
 1457 08aa 17       		.uleb128 0x17
 1458 08ab 01       		.uleb128 0x1
 1459 08ac 50       		.byte	0x50
 1460 08ad 01       		.uleb128 0x1
 1461 08ae 49       		.byte	0x49
 1462 08af 00       		.byte	0
 1463 08b0 00       		.byte	0
 1464 08b1 1D       		.uleb128 0x1d
 1465 08b2 30020000 		.4byte	.LASF207
 1466 08b6 01       		.byte	0x1
 1467 08b7 8E       		.byte	0x8e
 1468 08b8 44010000 		.4byte	0x144
 1469 08bc 00000000 		.4byte	.LFB66
 1470 08c0 64000000 		.4byte	.LFE66-.LFB66
 1471 08c4 01       		.uleb128 0x1
 1472 08c5 9C       		.byte	0x9c
 1473 08c6 AE090000 		.4byte	0x9ae
 1474 08ca 1B       		.uleb128 0x1b
 1475 08cb 61726700 		.ascii	"arg\000"
 1476 08cf 01       		.byte	0x1
 1477 08d0 8E       		.byte	0x8e
 1478 08d1 B0000000 		.4byte	0xb0
 1479 08d5 21000000 		.4byte	.LLST1
ARM GAS  /var/folders/6q/x_mk5n_j3p7_c40r_2k_78980000gn/T//ccFwykIN.s 			page 27


 1480 08d9 1E       		.uleb128 0x1e
 1481 08da 12000000 		.4byte	.LBB2
 1482 08de 3C000000 		.4byte	.LBE2-.LBB2
 1483 08e2 9A090000 		.4byte	0x99a
 1484 08e6 1F       		.uleb128 0x1f
 1485 08e7 6100     		.ascii	"a\000"
 1486 08e9 01       		.byte	0x1
 1487 08ea 9C       		.byte	0x9c
 1488 08eb B2000000 		.4byte	0xb2
 1489 08ef 42000000 		.4byte	.LLST2
 1490 08f3 1F       		.uleb128 0x1f
 1491 08f4 6200     		.ascii	"b\000"
 1492 08f6 01       		.byte	0x1
 1493 08f7 9C       		.byte	0x9c
 1494 08f8 B2000000 		.4byte	0xb2
 1495 08fc 55000000 		.4byte	.LLST3
 1496 0900 16       		.uleb128 0x16
 1497 0901 18000000 		.4byte	.LVL9
 1498 0905 330A0000 		.4byte	0xa33
 1499 0909 13090000 		.4byte	0x913
 1500 090d 17       		.uleb128 0x17
 1501 090e 01       		.uleb128 0x1
 1502 090f 50       		.byte	0x50
 1503 0910 01       		.uleb128 0x1
 1504 0911 33       		.byte	0x33
 1505 0912 00       		.byte	0
 1506 0913 16       		.uleb128 0x16
 1507 0914 20000000 		.4byte	.LVL11
 1508 0918 330A0000 		.4byte	0xa33
 1509 091c 26090000 		.4byte	0x926
 1510 0920 17       		.uleb128 0x17
 1511 0921 01       		.uleb128 0x1
 1512 0922 50       		.byte	0x50
 1513 0923 01       		.uleb128 0x1
 1514 0924 32       		.byte	0x32
 1515 0925 00       		.byte	0
 1516 0926 16       		.uleb128 0x16
 1517 0927 30000000 		.4byte	.LVL14
 1518 092b 3E0A0000 		.4byte	0xa3e
 1519 092f 3F090000 		.4byte	0x93f
 1520 0933 17       		.uleb128 0x17
 1521 0934 01       		.uleb128 0x1
 1522 0935 50       		.byte	0x50
 1523 0936 01       		.uleb128 0x1
 1524 0937 33       		.byte	0x33
 1525 0938 17       		.uleb128 0x17
 1526 0939 01       		.uleb128 0x1
 1527 093a 51       		.byte	0x51
 1528 093b 02       		.uleb128 0x2
 1529 093c 75       		.byte	0x75
 1530 093d 00       		.sleb128 0
 1531 093e 00       		.byte	0
 1532 093f 16       		.uleb128 0x16
 1533 0940 38000000 		.4byte	.LVL15
 1534 0944 3E0A0000 		.4byte	0xa3e
 1535 0948 58090000 		.4byte	0x958
 1536 094c 17       		.uleb128 0x17
ARM GAS  /var/folders/6q/x_mk5n_j3p7_c40r_2k_78980000gn/T//ccFwykIN.s 			page 28


 1537 094d 01       		.uleb128 0x1
 1538 094e 50       		.byte	0x50
 1539 094f 01       		.uleb128 0x1
 1540 0950 34       		.byte	0x34
 1541 0951 17       		.uleb128 0x17
 1542 0952 01       		.uleb128 0x1
 1543 0953 51       		.byte	0x51
 1544 0954 02       		.uleb128 0x2
 1545 0955 74       		.byte	0x74
 1546 0956 00       		.sleb128 0
 1547 0957 00       		.byte	0
 1548 0958 16       		.uleb128 0x16
 1549 0959 40000000 		.4byte	.LVL16
 1550 095d 3E0A0000 		.4byte	0xa3e
 1551 0961 71090000 		.4byte	0x971
 1552 0965 17       		.uleb128 0x17
 1553 0966 01       		.uleb128 0x1
 1554 0967 50       		.byte	0x50
 1555 0968 01       		.uleb128 0x1
 1556 0969 31       		.byte	0x31
 1557 096a 17       		.uleb128 0x17
 1558 096b 01       		.uleb128 0x1
 1559 096c 51       		.byte	0x51
 1560 096d 02       		.uleb128 0x2
 1561 096e 75       		.byte	0x75
 1562 096f 00       		.sleb128 0
 1563 0970 00       		.byte	0
 1564 0971 16       		.uleb128 0x16
 1565 0972 48000000 		.4byte	.LVL17
 1566 0976 3E0A0000 		.4byte	0xa3e
 1567 097a 8A090000 		.4byte	0x98a
 1568 097e 17       		.uleb128 0x17
 1569 097f 01       		.uleb128 0x1
 1570 0980 50       		.byte	0x50
 1571 0981 01       		.uleb128 0x1
 1572 0982 32       		.byte	0x32
 1573 0983 17       		.uleb128 0x17
 1574 0984 01       		.uleb128 0x1
 1575 0985 51       		.byte	0x51
 1576 0986 02       		.uleb128 0x2
 1577 0987 74       		.byte	0x74
 1578 0988 00       		.sleb128 0
 1579 0989 00       		.byte	0
 1580 098a 1C       		.uleb128 0x1c
 1581 098b 4E000000 		.4byte	.LVL18
 1582 098f 280A0000 		.4byte	0xa28
 1583 0993 17       		.uleb128 0x17
 1584 0994 01       		.uleb128 0x1
 1585 0995 50       		.byte	0x50
 1586 0996 01       		.uleb128 0x1
 1587 0997 49       		.byte	0x49
 1588 0998 00       		.byte	0
 1589 0999 00       		.byte	0
 1590 099a 1C       		.uleb128 0x1c
 1591 099b 0A000000 		.4byte	.LVL8
 1592 099f 1D0A0000 		.4byte	0xa1d
 1593 09a3 17       		.uleb128 0x17
ARM GAS  /var/folders/6q/x_mk5n_j3p7_c40r_2k_78980000gn/T//ccFwykIN.s 			page 29


 1594 09a4 01       		.uleb128 0x1
 1595 09a5 50       		.byte	0x50
 1596 09a6 05       		.uleb128 0x5
 1597 09a7 03       		.byte	0x3
 1598 09a8 08000000 		.4byte	.LC1
 1599 09ac 00       		.byte	0
 1600 09ad 00       		.byte	0
 1601 09ae 20       		.uleb128 0x20
 1602 09af 7B060000 		.4byte	0x67b
 1603 09b3 BE090000 		.4byte	0x9be
 1604 09b7 21       		.uleb128 0x21
 1605 09b8 A9000000 		.4byte	0xa9
 1606 09bc 0B       		.byte	0xb
 1607 09bd 00       		.byte	0
 1608 09be 22       		.uleb128 0x22
 1609 09bf 5D080000 		.4byte	.LASF191
 1610 09c3 01       		.byte	0x1
 1611 09c4 32       		.byte	0x32
 1612 09c5 AE090000 		.4byte	0x9ae
 1613 09c9 05       		.uleb128 0x5
 1614 09ca 03       		.byte	0x3
 1615 09cb 00000000 		.4byte	dConfig
 1616 09cf 20       		.uleb128 0x20
 1617 09d0 CF060000 		.4byte	0x6cf
 1618 09d4 DF090000 		.4byte	0x9df
 1619 09d8 21       		.uleb128 0x21
 1620 09d9 A9000000 		.4byte	0xa9
 1621 09dd 09       		.byte	0x9
 1622 09de 00       		.byte	0
 1623 09df 22       		.uleb128 0x22
 1624 09e0 AB070000 		.4byte	.LASF192
 1625 09e4 01       		.byte	0x1
 1626 09e5 41       		.byte	0x41
 1627 09e6 CF090000 		.4byte	0x9cf
 1628 09ea 05       		.uleb128 0x5
 1629 09eb 03       		.byte	0x3
 1630 09ec 00000000 		.4byte	mConfig
 1631 09f0 23       		.uleb128 0x23
 1632 09f1 F7080000 		.4byte	.LASF193
 1633 09f5 08       		.byte	0x8
 1634 09f6 6F       		.byte	0x6f
 1635 09f7 BD030000 		.4byte	0x3bd
 1636 09fb 24       		.uleb128 0x24
 1637 09fc AA000000 		.4byte	.LASF194
 1638 0a00 0F       		.byte	0xf
 1639 0a01 0706     		.2byte	0x607
 1640 0a03 45040000 		.4byte	0x445
 1641 0a07 25       		.uleb128 0x25
 1642 0a08 D1060000 		.4byte	.LASF195
 1643 0a0c D1060000 		.4byte	.LASF195
 1644 0a10 0D       		.byte	0xd
 1645 0a11 81       		.byte	0x81
 1646 0a12 25       		.uleb128 0x25
 1647 0a13 B1090000 		.4byte	.LASF196
 1648 0a17 B1090000 		.4byte	.LASF196
 1649 0a1b 0D       		.byte	0xd
 1650 0a1c 82       		.byte	0x82
ARM GAS  /var/folders/6q/x_mk5n_j3p7_c40r_2k_78980000gn/T//ccFwykIN.s 			page 30


 1651 0a1d 25       		.uleb128 0x25
 1652 0a1e BB040000 		.4byte	.LASF197
 1653 0a22 BB040000 		.4byte	.LASF197
 1654 0a26 10       		.byte	0x10
 1655 0a27 9E       		.byte	0x9e
 1656 0a28 25       		.uleb128 0x25
 1657 0a29 C8060000 		.4byte	.LASF198
 1658 0a2d C8060000 		.4byte	.LASF198
 1659 0a31 10       		.byte	0x10
 1660 0a32 A5       		.byte	0xa5
 1661 0a33 25       		.uleb128 0x25
 1662 0a34 45050000 		.4byte	.LASF199
 1663 0a38 45050000 		.4byte	.LASF199
 1664 0a3c 0E       		.byte	0xe
 1665 0a3d 67       		.byte	0x67
 1666 0a3e 25       		.uleb128 0x25
 1667 0a3f CB000000 		.4byte	.LASF200
 1668 0a43 CB000000 		.4byte	.LASF200
 1669 0a47 0B       		.byte	0xb
 1670 0a48 92       		.byte	0x92
 1671 0a49 00       		.byte	0
 1672              		.section	.debug_abbrev,"",%progbits
 1673              	.Ldebug_abbrev0:
 1674 0000 01       		.uleb128 0x1
 1675 0001 11       		.uleb128 0x11
 1676 0002 01       		.byte	0x1
 1677 0003 25       		.uleb128 0x25
 1678 0004 0E       		.uleb128 0xe
 1679 0005 13       		.uleb128 0x13
 1680 0006 0B       		.uleb128 0xb
 1681 0007 03       		.uleb128 0x3
 1682 0008 0E       		.uleb128 0xe
 1683 0009 1B       		.uleb128 0x1b
 1684 000a 0E       		.uleb128 0xe
 1685 000b 55       		.uleb128 0x55
 1686 000c 17       		.uleb128 0x17
 1687 000d 11       		.uleb128 0x11
 1688 000e 01       		.uleb128 0x1
 1689 000f 10       		.uleb128 0x10
 1690 0010 17       		.uleb128 0x17
 1691 0011 00       		.byte	0
 1692 0012 00       		.byte	0
 1693 0013 02       		.uleb128 0x2
 1694 0014 24       		.uleb128 0x24
 1695 0015 00       		.byte	0
 1696 0016 0B       		.uleb128 0xb
 1697 0017 0B       		.uleb128 0xb
 1698 0018 3E       		.uleb128 0x3e
 1699 0019 0B       		.uleb128 0xb
 1700 001a 03       		.uleb128 0x3
 1701 001b 0E       		.uleb128 0xe
 1702 001c 00       		.byte	0
 1703 001d 00       		.byte	0
 1704 001e 03       		.uleb128 0x3
 1705 001f 24       		.uleb128 0x24
 1706 0020 00       		.byte	0
 1707 0021 0B       		.uleb128 0xb
ARM GAS  /var/folders/6q/x_mk5n_j3p7_c40r_2k_78980000gn/T//ccFwykIN.s 			page 31


 1708 0022 0B       		.uleb128 0xb
 1709 0023 3E       		.uleb128 0x3e
 1710 0024 0B       		.uleb128 0xb
 1711 0025 03       		.uleb128 0x3
 1712 0026 08       		.uleb128 0x8
 1713 0027 00       		.byte	0
 1714 0028 00       		.byte	0
 1715 0029 04       		.uleb128 0x4
 1716 002a 16       		.uleb128 0x16
 1717 002b 00       		.byte	0
 1718 002c 03       		.uleb128 0x3
 1719 002d 0E       		.uleb128 0xe
 1720 002e 3A       		.uleb128 0x3a
 1721 002f 0B       		.uleb128 0xb
 1722 0030 3B       		.uleb128 0x3b
 1723 0031 0B       		.uleb128 0xb
 1724 0032 49       		.uleb128 0x49
 1725 0033 13       		.uleb128 0x13
 1726 0034 00       		.byte	0
 1727 0035 00       		.byte	0
 1728 0036 05       		.uleb128 0x5
 1729 0037 0F       		.uleb128 0xf
 1730 0038 00       		.byte	0
 1731 0039 0B       		.uleb128 0xb
 1732 003a 0B       		.uleb128 0xb
 1733 003b 00       		.byte	0
 1734 003c 00       		.byte	0
 1735 003d 06       		.uleb128 0x6
 1736 003e 0F       		.uleb128 0xf
 1737 003f 00       		.byte	0
 1738 0040 0B       		.uleb128 0xb
 1739 0041 0B       		.uleb128 0xb
 1740 0042 49       		.uleb128 0x49
 1741 0043 13       		.uleb128 0x13
 1742 0044 00       		.byte	0
 1743 0045 00       		.byte	0
 1744 0046 07       		.uleb128 0x7
 1745 0047 26       		.uleb128 0x26
 1746 0048 00       		.byte	0
 1747 0049 49       		.uleb128 0x49
 1748 004a 13       		.uleb128 0x13
 1749 004b 00       		.byte	0
 1750 004c 00       		.byte	0
 1751 004d 08       		.uleb128 0x8
 1752 004e 13       		.uleb128 0x13
 1753 004f 01       		.byte	0x1
 1754 0050 03       		.uleb128 0x3
 1755 0051 0E       		.uleb128 0xe
 1756 0052 0B       		.uleb128 0xb
 1757 0053 0B       		.uleb128 0xb
 1758 0054 3A       		.uleb128 0x3a
 1759 0055 0B       		.uleb128 0xb
 1760 0056 3B       		.uleb128 0x3b
 1761 0057 0B       		.uleb128 0xb
 1762 0058 01       		.uleb128 0x1
 1763 0059 13       		.uleb128 0x13
 1764 005a 00       		.byte	0
ARM GAS  /var/folders/6q/x_mk5n_j3p7_c40r_2k_78980000gn/T//ccFwykIN.s 			page 32


 1765 005b 00       		.byte	0
 1766 005c 09       		.uleb128 0x9
 1767 005d 0D       		.uleb128 0xd
 1768 005e 00       		.byte	0
 1769 005f 03       		.uleb128 0x3
 1770 0060 0E       		.uleb128 0xe
 1771 0061 3A       		.uleb128 0x3a
 1772 0062 0B       		.uleb128 0xb
 1773 0063 3B       		.uleb128 0x3b
 1774 0064 0B       		.uleb128 0xb
 1775 0065 49       		.uleb128 0x49
 1776 0066 13       		.uleb128 0x13
 1777 0067 38       		.uleb128 0x38
 1778 0068 0B       		.uleb128 0xb
 1779 0069 00       		.byte	0
 1780 006a 00       		.byte	0
 1781 006b 0A       		.uleb128 0xa
 1782 006c 0D       		.uleb128 0xd
 1783 006d 00       		.byte	0
 1784 006e 03       		.uleb128 0x3
 1785 006f 08       		.uleb128 0x8
 1786 0070 3A       		.uleb128 0x3a
 1787 0071 0B       		.uleb128 0xb
 1788 0072 3B       		.uleb128 0x3b
 1789 0073 0B       		.uleb128 0xb
 1790 0074 49       		.uleb128 0x49
 1791 0075 13       		.uleb128 0x13
 1792 0076 38       		.uleb128 0x38
 1793 0077 0B       		.uleb128 0xb
 1794 0078 00       		.byte	0
 1795 0079 00       		.byte	0
 1796 007a 0B       		.uleb128 0xb
 1797 007b 13       		.uleb128 0x13
 1798 007c 01       		.byte	0x1
 1799 007d 0B       		.uleb128 0xb
 1800 007e 0B       		.uleb128 0xb
 1801 007f 3A       		.uleb128 0x3a
 1802 0080 0B       		.uleb128 0xb
 1803 0081 3B       		.uleb128 0x3b
 1804 0082 0B       		.uleb128 0xb
 1805 0083 01       		.uleb128 0x1
 1806 0084 13       		.uleb128 0x13
 1807 0085 00       		.byte	0
 1808 0086 00       		.byte	0
 1809 0087 0C       		.uleb128 0xc
 1810 0088 13       		.uleb128 0x13
 1811 0089 01       		.byte	0x1
 1812 008a 03       		.uleb128 0x3
 1813 008b 0E       		.uleb128 0xe
 1814 008c 0B       		.uleb128 0xb
 1815 008d 0B       		.uleb128 0xb
 1816 008e 3A       		.uleb128 0x3a
 1817 008f 0B       		.uleb128 0xb
 1818 0090 3B       		.uleb128 0x3b
 1819 0091 05       		.uleb128 0x5
 1820 0092 01       		.uleb128 0x1
 1821 0093 13       		.uleb128 0x13
ARM GAS  /var/folders/6q/x_mk5n_j3p7_c40r_2k_78980000gn/T//ccFwykIN.s 			page 33


 1822 0094 00       		.byte	0
 1823 0095 00       		.byte	0
 1824 0096 0D       		.uleb128 0xd
 1825 0097 0D       		.uleb128 0xd
 1826 0098 00       		.byte	0
 1827 0099 03       		.uleb128 0x3
 1828 009a 08       		.uleb128 0x8
 1829 009b 3A       		.uleb128 0x3a
 1830 009c 0B       		.uleb128 0xb
 1831 009d 3B       		.uleb128 0x3b
 1832 009e 05       		.uleb128 0x5
 1833 009f 49       		.uleb128 0x49
 1834 00a0 13       		.uleb128 0x13
 1835 00a1 38       		.uleb128 0x38
 1836 00a2 0B       		.uleb128 0xb
 1837 00a3 00       		.byte	0
 1838 00a4 00       		.byte	0
 1839 00a5 0E       		.uleb128 0xe
 1840 00a6 35       		.uleb128 0x35
 1841 00a7 00       		.byte	0
 1842 00a8 49       		.uleb128 0x49
 1843 00a9 13       		.uleb128 0x13
 1844 00aa 00       		.byte	0
 1845 00ab 00       		.byte	0
 1846 00ac 0F       		.uleb128 0xf
 1847 00ad 17       		.uleb128 0x17
 1848 00ae 01       		.byte	0x1
 1849 00af 0B       		.uleb128 0xb
 1850 00b0 0B       		.uleb128 0xb
 1851 00b1 3A       		.uleb128 0x3a
 1852 00b2 0B       		.uleb128 0xb
 1853 00b3 3B       		.uleb128 0x3b
 1854 00b4 0B       		.uleb128 0xb
 1855 00b5 01       		.uleb128 0x1
 1856 00b6 13       		.uleb128 0x13
 1857 00b7 00       		.byte	0
 1858 00b8 00       		.byte	0
 1859 00b9 10       		.uleb128 0x10
 1860 00ba 0D       		.uleb128 0xd
 1861 00bb 00       		.byte	0
 1862 00bc 03       		.uleb128 0x3
 1863 00bd 0E       		.uleb128 0xe
 1864 00be 3A       		.uleb128 0x3a
 1865 00bf 0B       		.uleb128 0xb
 1866 00c0 3B       		.uleb128 0x3b
 1867 00c1 0B       		.uleb128 0xb
 1868 00c2 49       		.uleb128 0x49
 1869 00c3 13       		.uleb128 0x13
 1870 00c4 00       		.byte	0
 1871 00c5 00       		.byte	0
 1872 00c6 11       		.uleb128 0x11
 1873 00c7 04       		.uleb128 0x4
 1874 00c8 01       		.byte	0x1
 1875 00c9 0B       		.uleb128 0xb
 1876 00ca 0B       		.uleb128 0xb
 1877 00cb 49       		.uleb128 0x49
 1878 00cc 13       		.uleb128 0x13
ARM GAS  /var/folders/6q/x_mk5n_j3p7_c40r_2k_78980000gn/T//ccFwykIN.s 			page 34


 1879 00cd 3A       		.uleb128 0x3a
 1880 00ce 0B       		.uleb128 0xb
 1881 00cf 3B       		.uleb128 0x3b
 1882 00d0 0B       		.uleb128 0xb
 1883 00d1 01       		.uleb128 0x1
 1884 00d2 13       		.uleb128 0x13
 1885 00d3 00       		.byte	0
 1886 00d4 00       		.byte	0
 1887 00d5 12       		.uleb128 0x12
 1888 00d6 28       		.uleb128 0x28
 1889 00d7 00       		.byte	0
 1890 00d8 03       		.uleb128 0x3
 1891 00d9 0E       		.uleb128 0xe
 1892 00da 1C       		.uleb128 0x1c
 1893 00db 0D       		.uleb128 0xd
 1894 00dc 00       		.byte	0
 1895 00dd 00       		.byte	0
 1896 00de 13       		.uleb128 0x13
 1897 00df 28       		.uleb128 0x28
 1898 00e0 00       		.byte	0
 1899 00e1 03       		.uleb128 0x3
 1900 00e2 0E       		.uleb128 0xe
 1901 00e3 1C       		.uleb128 0x1c
 1902 00e4 0B       		.uleb128 0xb
 1903 00e5 00       		.byte	0
 1904 00e6 00       		.byte	0
 1905 00e7 14       		.uleb128 0x14
 1906 00e8 28       		.uleb128 0x28
 1907 00e9 00       		.byte	0
 1908 00ea 03       		.uleb128 0x3
 1909 00eb 08       		.uleb128 0x8
 1910 00ec 1C       		.uleb128 0x1c
 1911 00ed 0B       		.uleb128 0xb
 1912 00ee 00       		.byte	0
 1913 00ef 00       		.byte	0
 1914 00f0 15       		.uleb128 0x15
 1915 00f1 2E       		.uleb128 0x2e
 1916 00f2 01       		.byte	0x1
 1917 00f3 3F       		.uleb128 0x3f
 1918 00f4 19       		.uleb128 0x19
 1919 00f5 03       		.uleb128 0x3
 1920 00f6 0E       		.uleb128 0xe
 1921 00f7 3A       		.uleb128 0x3a
 1922 00f8 0B       		.uleb128 0xb
 1923 00f9 3B       		.uleb128 0x3b
 1924 00fa 0B       		.uleb128 0xb
 1925 00fb 27       		.uleb128 0x27
 1926 00fc 19       		.uleb128 0x19
 1927 00fd 11       		.uleb128 0x11
 1928 00fe 01       		.uleb128 0x1
 1929 00ff 12       		.uleb128 0x12
 1930 0100 06       		.uleb128 0x6
 1931 0101 40       		.uleb128 0x40
 1932 0102 18       		.uleb128 0x18
 1933 0103 9742     		.uleb128 0x2117
 1934 0105 19       		.uleb128 0x19
 1935 0106 01       		.uleb128 0x1
ARM GAS  /var/folders/6q/x_mk5n_j3p7_c40r_2k_78980000gn/T//ccFwykIN.s 			page 35


 1936 0107 13       		.uleb128 0x13
 1937 0108 00       		.byte	0
 1938 0109 00       		.byte	0
 1939 010a 16       		.uleb128 0x16
 1940 010b 898201   		.uleb128 0x4109
 1941 010e 01       		.byte	0x1
 1942 010f 11       		.uleb128 0x11
 1943 0110 01       		.uleb128 0x1
 1944 0111 31       		.uleb128 0x31
 1945 0112 13       		.uleb128 0x13
 1946 0113 01       		.uleb128 0x1
 1947 0114 13       		.uleb128 0x13
 1948 0115 00       		.byte	0
 1949 0116 00       		.byte	0
 1950 0117 17       		.uleb128 0x17
 1951 0118 8A8201   		.uleb128 0x410a
 1952 011b 00       		.byte	0
 1953 011c 02       		.uleb128 0x2
 1954 011d 18       		.uleb128 0x18
 1955 011e 9142     		.uleb128 0x2111
 1956 0120 18       		.uleb128 0x18
 1957 0121 00       		.byte	0
 1958 0122 00       		.byte	0
 1959 0123 18       		.uleb128 0x18
 1960 0124 898201   		.uleb128 0x4109
 1961 0127 01       		.byte	0x1
 1962 0128 11       		.uleb128 0x11
 1963 0129 01       		.uleb128 0x1
 1964 012a 9542     		.uleb128 0x2115
 1965 012c 19       		.uleb128 0x19
 1966 012d 31       		.uleb128 0x31
 1967 012e 13       		.uleb128 0x13
 1968 012f 00       		.byte	0
 1969 0130 00       		.byte	0
 1970 0131 19       		.uleb128 0x19
 1971 0132 2E       		.uleb128 0x2e
 1972 0133 00       		.byte	0
 1973 0134 3F       		.uleb128 0x3f
 1974 0135 19       		.uleb128 0x19
 1975 0136 03       		.uleb128 0x3
 1976 0137 0E       		.uleb128 0xe
 1977 0138 3A       		.uleb128 0x3a
 1978 0139 0B       		.uleb128 0xb
 1979 013a 3B       		.uleb128 0x3b
 1980 013b 0B       		.uleb128 0xb
 1981 013c 27       		.uleb128 0x27
 1982 013d 19       		.uleb128 0x19
 1983 013e 11       		.uleb128 0x11
 1984 013f 01       		.uleb128 0x1
 1985 0140 12       		.uleb128 0x12
 1986 0141 06       		.uleb128 0x6
 1987 0142 40       		.uleb128 0x40
 1988 0143 18       		.uleb128 0x18
 1989 0144 9742     		.uleb128 0x2117
 1990 0146 19       		.uleb128 0x19
 1991 0147 00       		.byte	0
 1992 0148 00       		.byte	0
ARM GAS  /var/folders/6q/x_mk5n_j3p7_c40r_2k_78980000gn/T//ccFwykIN.s 			page 36


 1993 0149 1A       		.uleb128 0x1a
 1994 014a 2E       		.uleb128 0x2e
 1995 014b 01       		.byte	0x1
 1996 014c 3F       		.uleb128 0x3f
 1997 014d 19       		.uleb128 0x19
 1998 014e 03       		.uleb128 0x3
 1999 014f 0E       		.uleb128 0xe
 2000 0150 3A       		.uleb128 0x3a
 2001 0151 0B       		.uleb128 0xb
 2002 0152 3B       		.uleb128 0x3b
 2003 0153 0B       		.uleb128 0xb
 2004 0154 27       		.uleb128 0x27
 2005 0155 19       		.uleb128 0x19
 2006 0156 49       		.uleb128 0x49
 2007 0157 13       		.uleb128 0x13
 2008 0158 8701     		.uleb128 0x87
 2009 015a 19       		.uleb128 0x19
 2010 015b 11       		.uleb128 0x11
 2011 015c 01       		.uleb128 0x1
 2012 015d 12       		.uleb128 0x12
 2013 015e 06       		.uleb128 0x6
 2014 015f 40       		.uleb128 0x40
 2015 0160 18       		.uleb128 0x18
 2016 0161 9742     		.uleb128 0x2117
 2017 0163 19       		.uleb128 0x19
 2018 0164 01       		.uleb128 0x1
 2019 0165 13       		.uleb128 0x13
 2020 0166 00       		.byte	0
 2021 0167 00       		.byte	0
 2022 0168 1B       		.uleb128 0x1b
 2023 0169 05       		.uleb128 0x5
 2024 016a 00       		.byte	0
 2025 016b 03       		.uleb128 0x3
 2026 016c 08       		.uleb128 0x8
 2027 016d 3A       		.uleb128 0x3a
 2028 016e 0B       		.uleb128 0xb
 2029 016f 3B       		.uleb128 0x3b
 2030 0170 0B       		.uleb128 0xb
 2031 0171 49       		.uleb128 0x49
 2032 0172 13       		.uleb128 0x13
 2033 0173 02       		.uleb128 0x2
 2034 0174 17       		.uleb128 0x17
 2035 0175 00       		.byte	0
 2036 0176 00       		.byte	0
 2037 0177 1C       		.uleb128 0x1c
 2038 0178 898201   		.uleb128 0x4109
 2039 017b 01       		.byte	0x1
 2040 017c 11       		.uleb128 0x11
 2041 017d 01       		.uleb128 0x1
 2042 017e 31       		.uleb128 0x31
 2043 017f 13       		.uleb128 0x13
 2044 0180 00       		.byte	0
 2045 0181 00       		.byte	0
 2046 0182 1D       		.uleb128 0x1d
 2047 0183 2E       		.uleb128 0x2e
 2048 0184 01       		.byte	0x1
 2049 0185 3F       		.uleb128 0x3f
ARM GAS  /var/folders/6q/x_mk5n_j3p7_c40r_2k_78980000gn/T//ccFwykIN.s 			page 37


 2050 0186 19       		.uleb128 0x19
 2051 0187 03       		.uleb128 0x3
 2052 0188 0E       		.uleb128 0xe
 2053 0189 3A       		.uleb128 0x3a
 2054 018a 0B       		.uleb128 0xb
 2055 018b 3B       		.uleb128 0x3b
 2056 018c 0B       		.uleb128 0xb
 2057 018d 27       		.uleb128 0x27
 2058 018e 19       		.uleb128 0x19
 2059 018f 49       		.uleb128 0x49
 2060 0190 13       		.uleb128 0x13
 2061 0191 11       		.uleb128 0x11
 2062 0192 01       		.uleb128 0x1
 2063 0193 12       		.uleb128 0x12
 2064 0194 06       		.uleb128 0x6
 2065 0195 40       		.uleb128 0x40
 2066 0196 18       		.uleb128 0x18
 2067 0197 9742     		.uleb128 0x2117
 2068 0199 19       		.uleb128 0x19
 2069 019a 01       		.uleb128 0x1
 2070 019b 13       		.uleb128 0x13
 2071 019c 00       		.byte	0
 2072 019d 00       		.byte	0
 2073 019e 1E       		.uleb128 0x1e
 2074 019f 0B       		.uleb128 0xb
 2075 01a0 01       		.byte	0x1
 2076 01a1 11       		.uleb128 0x11
 2077 01a2 01       		.uleb128 0x1
 2078 01a3 12       		.uleb128 0x12
 2079 01a4 06       		.uleb128 0x6
 2080 01a5 01       		.uleb128 0x1
 2081 01a6 13       		.uleb128 0x13
 2082 01a7 00       		.byte	0
 2083 01a8 00       		.byte	0
 2084 01a9 1F       		.uleb128 0x1f
 2085 01aa 34       		.uleb128 0x34
 2086 01ab 00       		.byte	0
 2087 01ac 03       		.uleb128 0x3
 2088 01ad 08       		.uleb128 0x8
 2089 01ae 3A       		.uleb128 0x3a
 2090 01af 0B       		.uleb128 0xb
 2091 01b0 3B       		.uleb128 0x3b
 2092 01b1 0B       		.uleb128 0xb
 2093 01b2 49       		.uleb128 0x49
 2094 01b3 13       		.uleb128 0x13
 2095 01b4 02       		.uleb128 0x2
 2096 01b5 17       		.uleb128 0x17
 2097 01b6 00       		.byte	0
 2098 01b7 00       		.byte	0
 2099 01b8 20       		.uleb128 0x20
 2100 01b9 01       		.uleb128 0x1
 2101 01ba 01       		.byte	0x1
 2102 01bb 49       		.uleb128 0x49
 2103 01bc 13       		.uleb128 0x13
 2104 01bd 01       		.uleb128 0x1
 2105 01be 13       		.uleb128 0x13
 2106 01bf 00       		.byte	0
ARM GAS  /var/folders/6q/x_mk5n_j3p7_c40r_2k_78980000gn/T//ccFwykIN.s 			page 38


 2107 01c0 00       		.byte	0
 2108 01c1 21       		.uleb128 0x21
 2109 01c2 21       		.uleb128 0x21
 2110 01c3 00       		.byte	0
 2111 01c4 49       		.uleb128 0x49
 2112 01c5 13       		.uleb128 0x13
 2113 01c6 2F       		.uleb128 0x2f
 2114 01c7 0B       		.uleb128 0xb
 2115 01c8 00       		.byte	0
 2116 01c9 00       		.byte	0
 2117 01ca 22       		.uleb128 0x22
 2118 01cb 34       		.uleb128 0x34
 2119 01cc 00       		.byte	0
 2120 01cd 03       		.uleb128 0x3
 2121 01ce 0E       		.uleb128 0xe
 2122 01cf 3A       		.uleb128 0x3a
 2123 01d0 0B       		.uleb128 0xb
 2124 01d1 3B       		.uleb128 0x3b
 2125 01d2 0B       		.uleb128 0xb
 2126 01d3 49       		.uleb128 0x49
 2127 01d4 13       		.uleb128 0x13
 2128 01d5 02       		.uleb128 0x2
 2129 01d6 18       		.uleb128 0x18
 2130 01d7 00       		.byte	0
 2131 01d8 00       		.byte	0
 2132 01d9 23       		.uleb128 0x23
 2133 01da 34       		.uleb128 0x34
 2134 01db 00       		.byte	0
 2135 01dc 03       		.uleb128 0x3
 2136 01dd 0E       		.uleb128 0xe
 2137 01de 3A       		.uleb128 0x3a
 2138 01df 0B       		.uleb128 0xb
 2139 01e0 3B       		.uleb128 0x3b
 2140 01e1 0B       		.uleb128 0xb
 2141 01e2 49       		.uleb128 0x49
 2142 01e3 13       		.uleb128 0x13
 2143 01e4 3F       		.uleb128 0x3f
 2144 01e5 19       		.uleb128 0x19
 2145 01e6 3C       		.uleb128 0x3c
 2146 01e7 19       		.uleb128 0x19
 2147 01e8 00       		.byte	0
 2148 01e9 00       		.byte	0
 2149 01ea 24       		.uleb128 0x24
 2150 01eb 34       		.uleb128 0x34
 2151 01ec 00       		.byte	0
 2152 01ed 03       		.uleb128 0x3
 2153 01ee 0E       		.uleb128 0xe
 2154 01ef 3A       		.uleb128 0x3a
 2155 01f0 0B       		.uleb128 0xb
 2156 01f1 3B       		.uleb128 0x3b
 2157 01f2 05       		.uleb128 0x5
 2158 01f3 49       		.uleb128 0x49
 2159 01f4 13       		.uleb128 0x13
 2160 01f5 3F       		.uleb128 0x3f
 2161 01f6 19       		.uleb128 0x19
 2162 01f7 3C       		.uleb128 0x3c
 2163 01f8 19       		.uleb128 0x19
ARM GAS  /var/folders/6q/x_mk5n_j3p7_c40r_2k_78980000gn/T//ccFwykIN.s 			page 39


 2164 01f9 00       		.byte	0
 2165 01fa 00       		.byte	0
 2166 01fb 25       		.uleb128 0x25
 2167 01fc 2E       		.uleb128 0x2e
 2168 01fd 00       		.byte	0
 2169 01fe 3F       		.uleb128 0x3f
 2170 01ff 19       		.uleb128 0x19
 2171 0200 3C       		.uleb128 0x3c
 2172 0201 19       		.uleb128 0x19
 2173 0202 6E       		.uleb128 0x6e
 2174 0203 0E       		.uleb128 0xe
 2175 0204 03       		.uleb128 0x3
 2176 0205 0E       		.uleb128 0xe
 2177 0206 3A       		.uleb128 0x3a
 2178 0207 0B       		.uleb128 0xb
 2179 0208 3B       		.uleb128 0x3b
 2180 0209 0B       		.uleb128 0xb
 2181 020a 00       		.byte	0
 2182 020b 00       		.byte	0
 2183 020c 00       		.byte	0
 2184              		.section	.debug_loc,"",%progbits
 2185              	.Ldebug_loc0:
 2186              	.LLST0:
 2187 0000 00000000 		.4byte	.LVL2
 2188 0004 04000000 		.4byte	.LVL3
 2189 0008 0100     		.2byte	0x1
 2190 000a 50       		.byte	0x50
 2191 000b 04000000 		.4byte	.LVL3
 2192 000f 14000000 		.4byte	.LFE65
 2193 0013 0400     		.2byte	0x4
 2194 0015 F3       		.byte	0xf3
 2195 0016 01       		.uleb128 0x1
 2196 0017 50       		.byte	0x50
 2197 0018 9F       		.byte	0x9f
 2198 0019 00000000 		.4byte	0
 2199 001d 00000000 		.4byte	0
 2200              	.LLST1:
 2201 0021 00000000 		.4byte	.LVL6
 2202 0025 06000000 		.4byte	.LVL7
 2203 0029 0100     		.2byte	0x1
 2204 002b 50       		.byte	0x50
 2205 002c 06000000 		.4byte	.LVL7
 2206 0030 64000000 		.4byte	.LFE66
 2207 0034 0400     		.2byte	0x4
 2208 0036 F3       		.byte	0xf3
 2209 0037 01       		.uleb128 0x1
 2210 0038 50       		.byte	0x50
 2211 0039 9F       		.byte	0x9f
 2212 003a 00000000 		.4byte	0
 2213 003e 00000000 		.4byte	0
 2214              	.LLST2:
 2215 0042 1A000000 		.4byte	.LVL10
 2216 0046 2A000000 		.4byte	.LVL12
 2217 004a 0100     		.2byte	0x1
 2218 004c 54       		.byte	0x54
 2219 004d 00000000 		.4byte	0
 2220 0051 00000000 		.4byte	0
ARM GAS  /var/folders/6q/x_mk5n_j3p7_c40r_2k_78980000gn/T//ccFwykIN.s 			page 40


 2221              	.LLST3:
 2222 0055 20000000 		.4byte	.LVL11
 2223 0059 2C000000 		.4byte	.LVL13
 2224 005d 0100     		.2byte	0x1
 2225 005f 50       		.byte	0x50
 2226 0060 00000000 		.4byte	0
 2227 0064 00000000 		.4byte	0
 2228              		.section	.debug_aranges,"",%progbits
 2229 0000 34000000 		.4byte	0x34
 2230 0004 0200     		.2byte	0x2
 2231 0006 00000000 		.4byte	.Ldebug_info0
 2232 000a 04       		.byte	0x4
 2233 000b 00       		.byte	0
 2234 000c 0000     		.2byte	0
 2235 000e 0000     		.2byte	0
 2236 0010 00000000 		.4byte	.LFB63
 2237 0014 20000000 		.4byte	.LFE63-.LFB63
 2238 0018 00000000 		.4byte	.LFB64
 2239 001c 02000000 		.4byte	.LFE64-.LFB64
 2240 0020 00000000 		.4byte	.LFB65
 2241 0024 14000000 		.4byte	.LFE65-.LFB65
 2242 0028 00000000 		.4byte	.LFB66
 2243 002c 64000000 		.4byte	.LFE66-.LFB66
 2244 0030 00000000 		.4byte	0
 2245 0034 00000000 		.4byte	0
 2246              		.section	.debug_ranges,"",%progbits
 2247              	.Ldebug_ranges0:
 2248 0000 00000000 		.4byte	.LFB63
 2249 0004 20000000 		.4byte	.LFE63
 2250 0008 00000000 		.4byte	.LFB64
 2251 000c 02000000 		.4byte	.LFE64
 2252 0010 00000000 		.4byte	.LFB65
 2253 0014 14000000 		.4byte	.LFE65
 2254 0018 00000000 		.4byte	.LFB66
 2255 001c 64000000 		.4byte	.LFE66
 2256 0020 00000000 		.4byte	0
 2257 0024 00000000 		.4byte	0
 2258              		.section	.debug_line,"",%progbits
 2259              	.Ldebug_line0:
 2260 0000 83020000 		.section	.debug_str,"MS",%progbits,1
 2260      02001F02 
 2260      00000201 
 2260      FB0E0D00 
 2260      01010101 
 2261              	.LASF171:
 2262 0000 42746E38 		.ascii	"Btn8DXmtr2\000"
 2262      44586D74 
 2262      723200
 2263              	.LASF98:
 2264 000b 6B566578 		.ascii	"kVexMotor_3\000"
 2264      4D6F746F 
 2264      725F3300 
 2265              	.LASF44:
 2266 0017 705F7469 		.ascii	"p_time\000"
 2266      6D6500
 2267              	.LASF204:
 2268 001e 76657855 		.ascii	"vexUserSetup\000"
ARM GAS  /var/folders/6q/x_mk5n_j3p7_c40r_2k_78980000gn/T//ccFwykIN.s 			page 41


 2268      73657253 
 2268      65747570 
 2268      00
 2269              	.LASF68:
 2270 002b 7264796D 		.ascii	"rdymsg\000"
 2270      736700
 2271              	.LASF5:
 2272 0032 5F5F7569 		.ascii	"__uint8_t\000"
 2272      6E74385F 
 2272      7400
 2273              	.LASF169:
 2274 003c 43683358 		.ascii	"Ch3Xmtr2\000"
 2274      6D747232 
 2274      00
 2275              	.LASF90:
 2276 0045 6B566578 		.ascii	"kVexMotor269\000"
 2276      4D6F746F 
 2276      72323639 
 2276      00
 2277              	.LASF129:
 2278 0052 6B566578 		.ascii	"kVexConfigOutput\000"
 2278      436F6E66 
 2278      69674F75 
 2278      74707574 
 2278      00
 2279              	.LASF137:
 2280 0063 74797065 		.ascii	"type\000"
 2280      00
 2281              	.LASF119:
 2282 0068 6B566578 		.ascii	"kVexSensorDigitalInput\000"
 2282      53656E73 
 2282      6F724469 
 2282      67697461 
 2282      6C496E70 
 2283              	.LASF88:
 2284 007f 6B566578 		.ascii	"kVexDigitalOutput\000"
 2284      44696769 
 2284      74616C4F 
 2284      75747075 
 2284      7400
 2285              	.LASF167:
 2286 0091 43683158 		.ascii	"Ch1Xmtr2\000"
 2286      6D747232 
 2286      00
 2287              	.LASF85:
 2288 009a 6B566578 		.ascii	"kVexDigital_Num\000"
 2288      44696769 
 2288      74616C5F 
 2288      4E756D00 
 2289              	.LASF194:
 2290 00aa 49544D5F 		.ascii	"ITM_RxBuffer\000"
 2290      52784275 
 2290      66666572 
 2290      00
 2291              	.LASF134:
 2292 00b7 6B566578 		.ascii	"kVexConfigInterrupt\000"
 2292      436F6E66 
ARM GAS  /var/folders/6q/x_mk5n_j3p7_c40r_2k_78980000gn/T//ccFwykIN.s 			page 42


 2292      6967496E 
 2292      74657272 
 2292      75707400 
 2293              	.LASF200:
 2294 00cb 7665784D 		.ascii	"vexMotorSet\000"
 2294      6F746F72 
 2294      53657400 
 2295              	.LASF22:
 2296 00d7 626F6F6C 		.ascii	"bool_t\000"
 2296      5F7400
 2297              	.LASF35:
 2298 00de 705F7072 		.ascii	"p_prio\000"
 2298      696F00
 2299              	.LASF18:
 2300 00e5 696E7431 		.ascii	"int16_t\000"
 2300      365F7400 
 2301              	.LASF1:
 2302 00ed 6C6F6E67 		.ascii	"long long int\000"
 2302      206C6F6E 
 2302      6720696E 
 2302      7400
 2303              	.LASF3:
 2304 00fb 7369676E 		.ascii	"signed char\000"
 2304      65642063 
 2304      68617200 
 2305              	.LASF40:
 2306 0107 705F7374 		.ascii	"p_state\000"
 2306      61746500 
 2307              	.LASF51:
 2308 010f 705F6D70 		.ascii	"p_mpool\000"
 2308      6F6F6C00 
 2309              	.LASF14:
 2310 0117 6C6F6E67 		.ascii	"long long unsigned int\000"
 2310      206C6F6E 
 2310      6720756E 
 2310      7369676E 
 2310      65642069 
 2311              	.LASF65:
 2312 012e 6D5F7175 		.ascii	"m_queue\000"
 2312      65756500 
 2313              	.LASF170:
 2314 0136 43683458 		.ascii	"Ch4Xmtr2\000"
 2314      6D747232 
 2314      00
 2315              	.LASF27:
 2316 013f 74736C69 		.ascii	"tslices_t\000"
 2316      6365735F 
 2316      7400
 2317              	.LASF11:
 2318 0149 6C6F6E67 		.ascii	"long int\000"
 2318      20696E74 
 2318      00
 2319              	.LASF144:
 2320 0152 73747970 		.ascii	"stype\000"
 2320      6500
 2321              	.LASF25:
 2322 0158 74737461 		.ascii	"tstate_t\000"
ARM GAS  /var/folders/6q/x_mk5n_j3p7_c40r_2k_78980000gn/T//ccFwykIN.s 			page 43


 2322      74655F74 
 2322      00
 2323              	.LASF174:
 2324 0161 42746E38 		.ascii	"Btn8RXmtr2\000"
 2324      52586D74 
 2324      723200
 2325              	.LASF93:
 2326 016c 6B566578 		.ascii	"kVexMotor393R\000"
 2326      4D6F746F 
 2326      72333933 
 2326      5200
 2327              	.LASF19:
 2328 017a 75696E74 		.ascii	"uint16_t\000"
 2328      31365F74 
 2328      00
 2329              	.LASF80:
 2330 0183 6B566578 		.ascii	"kVexDigital_8\000"
 2330      44696769 
 2330      74616C5F 
 2330      3800
 2331              	.LASF105:
 2332 0191 6B566578 		.ascii	"kVexMotor_10\000"
 2332      4D6F746F 
 2332      725F3130 
 2332      00
 2333              	.LASF37:
 2334 019e 705F6E65 		.ascii	"p_newer\000"
 2334      77657200 
 2335              	.LASF142:
 2336 01a6 6D747970 		.ascii	"mtype\000"
 2336      6500
 2337              	.LASF69:
 2338 01ac 65786974 		.ascii	"exitcode\000"
 2338      636F6465 
 2338      00
 2339              	.LASF166:
 2340 01b5 42746E41 		.ascii	"BtnAny\000"
 2340      6E7900
 2341              	.LASF60:
 2342 01bc 725F6E65 		.ascii	"r_newer\000"
 2342      77657200 
 2343              	.LASF173:
 2344 01c4 42746E38 		.ascii	"Btn8UXmtr2\000"
 2344      55586D74 
 2344      723200
 2345              	.LASF54:
 2346 01cf 72656761 		.ascii	"regarm_t\000"
 2346      726D5F74 
 2346      00
 2347              	.LASF118:
 2348 01d8 6B566578 		.ascii	"kVexSensorNone\000"
 2348      53656E73 
 2348      6F724E6F 
 2348      6E6500
 2349              	.LASF205:
 2350 01e7 76657855 		.ascii	"vexUserInit\000"
 2350      73657249 
ARM GAS  /var/folders/6q/x_mk5n_j3p7_c40r_2k_78980000gn/T//ccFwykIN.s 			page 44


 2350      6E697400 
 2351              	.LASF116:
 2352 01f3 6B496D65 		.ascii	"kImeTotal\000"
 2352      546F7461 
 2352      6C00
 2353              	.LASF32:
 2354 01fd 54687265 		.ascii	"Thread\000"
 2354      616400
 2355              	.LASF153:
 2356 0204 42746E37 		.ascii	"Btn7U\000"
 2356      5500
 2357              	.LASF130:
 2358 020a 6B566578 		.ascii	"kVexConfigQuadEnc1\000"
 2358      436F6E66 
 2358      69675175 
 2358      6164456E 
 2358      633100
 2359              	.LASF131:
 2360 021d 6B566578 		.ascii	"kVexConfigQuadEnc2\000"
 2360      436F6E66 
 2360      69675175 
 2360      6164456E 
 2360      633200
 2361              	.LASF207:
 2362 0230 7665784F 		.ascii	"vexOperator\000"
 2362      70657261 
 2362      746F7200 
 2363              	.LASF202:
 2364 023c 76657875 		.ascii	"vexuser.c\000"
 2364      7365722E 
 2364      6300
 2365              	.LASF0:
 2366 0246 756E7369 		.ascii	"unsigned int\000"
 2366      676E6564 
 2366      20696E74 
 2366      00
 2367              	.LASF135:
 2368 0253 74566578 		.ascii	"tVexDigitalConfig\000"
 2368      44696769 
 2368      74616C43 
 2368      6F6E6669 
 2368      6700
 2369              	.LASF180:
 2370 0265 42746E35 		.ascii	"Btn5UXmtr2\000"
 2370      55586D74 
 2370      723200
 2371              	.LASF96:
 2372 0270 6B566578 		.ascii	"kVexMotor_1\000"
 2372      4D6F746F 
 2372      725F3100 
 2373              	.LASF97:
 2374 027c 6B566578 		.ascii	"kVexMotor_2\000"
 2374      4D6F746F 
 2374      725F3200 
 2375              	.LASF46:
 2376 0288 705F6D73 		.ascii	"p_msgqueue\000"
 2376      67717565 
ARM GAS  /var/folders/6q/x_mk5n_j3p7_c40r_2k_78980000gn/T//ccFwykIN.s 			page 45


 2376      756500
 2377              	.LASF99:
 2378 0293 6B566578 		.ascii	"kVexMotor_4\000"
 2378      4D6F746F 
 2378      725F3400 
 2379              	.LASF100:
 2380 029f 6B566578 		.ascii	"kVexMotor_5\000"
 2380      4D6F746F 
 2380      725F3500 
 2381              	.LASF101:
 2382 02ab 6B566578 		.ascii	"kVexMotor_6\000"
 2382      4D6F746F 
 2382      725F3600 
 2383              	.LASF102:
 2384 02b7 6B566578 		.ascii	"kVexMotor_7\000"
 2384      4D6F746F 
 2384      725F3700 
 2385              	.LASF103:
 2386 02c3 6B566578 		.ascii	"kVexMotor_8\000"
 2386      4D6F746F 
 2386      725F3800 
 2387              	.LASF104:
 2388 02cf 6B566578 		.ascii	"kVexMotor_9\000"
 2388      4D6F746F 
 2388      725F3900 
 2389              	.LASF176:
 2390 02db 42746E37 		.ascii	"Btn7LXmtr2\000"
 2390      4C586D74 
 2390      723200
 2391              	.LASF177:
 2392 02e6 42746E37 		.ascii	"Btn7UXmtr2\000"
 2392      55586D74 
 2392      723200
 2393              	.LASF155:
 2394 02f1 42746E35 		.ascii	"Btn5D\000"
 2394      4400
 2395              	.LASF201:
 2396 02f7 474E5520 		.ascii	"GNU C11 5.4.1 20160919 (release) [ARM/embedded-5-br"
 2396      43313120 
 2396      352E342E 
 2396      31203230 
 2396      31363039 
 2397 032a 616E6368 		.ascii	"anch revision 240496] -mcpu=cortex-m3 -mno-thumb-in"
 2397      20726576 
 2397      6973696F 
 2397      6E203234 
 2397      30343936 
 2398 035d 74657277 		.ascii	"terwork -mthumb -ggdb -O2 -fomit-frame-pointer -fal"
 2398      6F726B20 
 2398      2D6D7468 
 2398      756D6220 
 2398      2D676764 
 2399 0390 69676E2D 		.ascii	"ign-functions=16 -ffunction-sections -fdata-section"
 2399      66756E63 
 2399      74696F6E 
 2399      733D3136 
 2399      202D6666 
ARM GAS  /var/folders/6q/x_mk5n_j3p7_c40r_2k_78980000gn/T//ccFwykIN.s 			page 46


 2400 03c3 73202D66 		.ascii	"s -fno-common\000"
 2400      6E6F2D63 
 2400      6F6D6D6F 
 2400      6E00
 2401              	.LASF165:
 2402 03d1 42746E38 		.ascii	"Btn8\000"
 2402      00
 2403              	.LASF9:
 2404 03d6 73686F72 		.ascii	"short unsigned int\000"
 2404      7420756E 
 2404      7369676E 
 2404      65642069 
 2404      6E7400
 2405              	.LASF106:
 2406 03e9 6B566578 		.ascii	"kVexMotorNum\000"
 2406      4D6F746F 
 2406      724E756D 
 2406      00
 2407              	.LASF127:
 2408 03f6 74566578 		.ascii	"tVexSensorType\000"
 2408      53656E73 
 2408      6F725479 
 2408      706500
 2409              	.LASF29:
 2410 0405 6D73675F 		.ascii	"msg_t\000"
 2410      7400
 2411              	.LASF156:
 2412 040b 42746E35 		.ascii	"Btn5U\000"
 2412      5500
 2413              	.LASF73:
 2414 0411 6B566578 		.ascii	"kVexDigital_1\000"
 2414      44696769 
 2414      74616C5F 
 2414      3100
 2415              	.LASF74:
 2416 041f 6B566578 		.ascii	"kVexDigital_2\000"
 2416      44696769 
 2416      74616C5F 
 2416      3200
 2417              	.LASF75:
 2418 042d 6B566578 		.ascii	"kVexDigital_3\000"
 2418      44696769 
 2418      74616C5F 
 2418      3300
 2419              	.LASF76:
 2420 043b 6B566578 		.ascii	"kVexDigital_4\000"
 2420      44696769 
 2420      74616C5F 
 2420      3400
 2421              	.LASF77:
 2422 0449 6B566578 		.ascii	"kVexDigital_5\000"
 2422      44696769 
 2422      74616C5F 
 2422      3500
 2423              	.LASF78:
 2424 0457 6B566578 		.ascii	"kVexDigital_6\000"
 2424      44696769 
ARM GAS  /var/folders/6q/x_mk5n_j3p7_c40r_2k_78980000gn/T//ccFwykIN.s 			page 47


 2424      74616C5F 
 2424      3600
 2425              	.LASF79:
 2426 0465 6B566578 		.ascii	"kVexDigital_7\000"
 2426      44696769 
 2426      74616C5F 
 2426      3700
 2427              	.LASF120:
 2428 0473 6B566578 		.ascii	"kVexSensorDigitalOutput\000"
 2428      53656E73 
 2428      6F724469 
 2428      67697461 
 2428      6C4F7574 
 2429              	.LASF81:
 2430 048b 6B566578 		.ascii	"kVexDigital_9\000"
 2430      44696769 
 2430      74616C5F 
 2430      3900
 2431              	.LASF53:
 2432 0499 54687265 		.ascii	"ThreadsList\000"
 2432      6164734C 
 2432      69737400 
 2433              	.LASF30:
 2434 04a5 6576656E 		.ascii	"eventmask_t\000"
 2434      746D6173 
 2434      6B5F7400 
 2435              	.LASF7:
 2436 04b1 73686F72 		.ascii	"short int\000"
 2436      7420696E 
 2436      7400
 2437              	.LASF197:
 2438 04bb 76657854 		.ascii	"vexTaskRegister\000"
 2438      61736B52 
 2438      65676973 
 2438      74657200 
 2439              	.LASF179:
 2440 04cb 42746E35 		.ascii	"Btn5DXmtr2\000"
 2440      44586D74 
 2440      723200
 2441              	.LASF107:
 2442 04d6 74566578 		.ascii	"tVexMotor\000"
 2442      4D6F746F 
 2442      7200
 2443              	.LASF175:
 2444 04e0 42746E37 		.ascii	"Btn7DXmtr2\000"
 2444      44586D74 
 2444      723200
 2445              	.LASF133:
 2446 04eb 6B566578 		.ascii	"kVexConfigSonarIn\000"
 2446      436F6E66 
 2446      6967536F 
 2446      6E617249 
 2446      6E00
 2447              	.LASF147:
 2448 04fd 42746E38 		.ascii	"Btn8D\000"
 2448      4400
 2449              	.LASF15:
ARM GAS  /var/folders/6q/x_mk5n_j3p7_c40r_2k_78980000gn/T//ccFwykIN.s 			page 48


 2450 0503 73697A65 		.ascii	"sizetype\000"
 2450      74797065 
 2450      00
 2451              	.LASF141:
 2452 050c 706F7274 		.ascii	"port\000"
 2452      00
 2453              	.LASF143:
 2454 0511 72657665 		.ascii	"reversed\000"
 2454      72736564 
 2454      00
 2455              	.LASF2:
 2456 051a 6C6F6E67 		.ascii	"long double\000"
 2456      20646F75 
 2456      626C6500 
 2457              	.LASF185:
 2458 0526 4163636C 		.ascii	"AcclZXmtr2\000"
 2458      5A586D74 
 2458      723200
 2459              	.LASF64:
 2460 0531 4D757465 		.ascii	"Mutex\000"
 2460      7800
 2461              	.LASF158:
 2462 0537 42746E36 		.ascii	"Btn6U\000"
 2462      5500
 2463              	.LASF38:
 2464 053d 705F6F6C 		.ascii	"p_older\000"
 2464      64657200 
 2465              	.LASF199:
 2466 0545 76657843 		.ascii	"vexControllerGet\000"
 2466      6F6E7472 
 2466      6F6C6C65 
 2466      72476574 
 2466      00
 2467              	.LASF59:
 2468 0556 725F6374 		.ascii	"r_ctx\000"
 2468      7800
 2469              	.LASF52:
 2470 055c 54687265 		.ascii	"ThreadsQueue\000"
 2470      61647351 
 2470      75657565 
 2470      00
 2471              	.LASF150:
 2472 0569 42746E38 		.ascii	"Btn8R\000"
 2472      5200
 2473              	.LASF146:
 2474 056f 7665784D 		.ascii	"vexMotorCfg\000"
 2474      6F746F72 
 2474      43666700 
 2475              	.LASF62:
 2476 057b 725F6375 		.ascii	"r_current\000"
 2476      7272656E 
 2476      7400
 2477              	.LASF61:
 2478 0585 725F6F6C 		.ascii	"r_older\000"
 2478      64657200 
 2479              	.LASF89:
 2480 058d 6B566578 		.ascii	"kVexMotorUndefined\000"
ARM GAS  /var/folders/6q/x_mk5n_j3p7_c40r_2k_78980000gn/T//ccFwykIN.s 			page 49


 2480      4D6F746F 
 2480      72556E64 
 2480      6566696E 
 2480      656400
 2481              	.LASF72:
 2482 05a0 6B566578 		.ascii	"kVexDigital_None\000"
 2482      44696769 
 2482      74616C5F 
 2482      4E6F6E65 
 2482      00
 2483              	.LASF92:
 2484 05b1 6B566578 		.ascii	"kVexMotor393S\000"
 2484      4D6F746F 
 2484      72333933 
 2484      5300
 2485              	.LASF91:
 2486 05bf 6B566578 		.ascii	"kVexMotor393T\000"
 2486      4D6F746F 
 2486      72333933 
 2486      5400
 2487              	.LASF124:
 2488 05cd 6B566578 		.ascii	"kVexSensorIME\000"
 2488      53656E73 
 2488      6F72494D 
 2488      4500
 2489              	.LASF108:
 2490 05db 6B496D65 		.ascii	"kImeChannel_1\000"
 2490      4368616E 
 2490      6E656C5F 
 2490      3100
 2491              	.LASF94:
 2492 05e9 74566578 		.ascii	"tVexMotorType\000"
 2492      4D6F746F 
 2492      72547970 
 2492      6500
 2493              	.LASF26:
 2494 05f7 74726566 		.ascii	"trefs_t\000"
 2494      735F7400 
 2495              	.LASF34:
 2496 05ff 705F7072 		.ascii	"p_prev\000"
 2496      657600
 2497              	.LASF28:
 2498 0606 74707269 		.ascii	"tprio_t\000"
 2498      6F5F7400 
 2499              	.LASF151:
 2500 060e 42746E37 		.ascii	"Btn7D\000"
 2500      4400
 2501              	.LASF23:
 2502 0614 5F426F6F 		.ascii	"_Bool\000"
 2502      6C00
 2503              	.LASF20:
 2504 061a 696E7433 		.ascii	"int32_t\000"
 2504      325F7400 
 2505              	.LASF4:
 2506 0622 756E7369 		.ascii	"unsigned char\000"
 2506      676E6564 
 2506      20636861 
ARM GAS  /var/folders/6q/x_mk5n_j3p7_c40r_2k_78980000gn/T//ccFwykIN.s 			page 50


 2506      7200
 2507              	.LASF47:
 2508 0630 705F6D73 		.ascii	"p_msg\000"
 2508      6700
 2509              	.LASF152:
 2510 0636 42746E37 		.ascii	"Btn7L\000"
 2510      4C00
 2511              	.LASF186:
 2512 063c 42746E35 		.ascii	"Btn5Xmtr2\000"
 2512      586D7472 
 2512      3200
 2513              	.LASF49:
 2514 0646 705F6D74 		.ascii	"p_mtxlist\000"
 2514      786C6973 
 2514      7400
 2515              	.LASF154:
 2516 0650 42746E37 		.ascii	"Btn7R\000"
 2516      5200
 2517              	.LASF43:
 2518 0656 705F7072 		.ascii	"p_preempt\000"
 2518      65656D70 
 2518      7400
 2519              	.LASF132:
 2520 0660 6B566578 		.ascii	"kVexConfigSonarOut\000"
 2520      436F6E66 
 2520      6967536F 
 2520      6E61724F 
 2520      757400
 2521              	.LASF58:
 2522 0673 725F7072 		.ascii	"r_prio\000"
 2522      696F00
 2523              	.LASF71:
 2524 067a 65776D61 		.ascii	"ewmask\000"
 2524      736B00
 2525              	.LASF33:
 2526 0681 705F6E65 		.ascii	"p_next\000"
 2526      787400
 2527              	.LASF24:
 2528 0688 746D6F64 		.ascii	"tmode_t\000"
 2528      655F7400 
 2529              	.LASF41:
 2530 0690 705F666C 		.ascii	"p_flags\000"
 2530      61677300 
 2531              	.LASF136:
 2532 0698 5F766578 		.ascii	"_vexDigiCfg\000"
 2532      44696769 
 2532      43666700 
 2533              	.LASF145:
 2534 06a4 6368616E 		.ascii	"channel\000"
 2534      6E656C00 
 2535              	.LASF48:
 2536 06ac 705F6570 		.ascii	"p_epending\000"
 2536      656E6469 
 2536      6E6700
 2537              	.LASF21:
 2538 06b7 75696E74 		.ascii	"uint32_t\000"
 2538      33325F74 
ARM GAS  /var/folders/6q/x_mk5n_j3p7_c40r_2k_78980000gn/T//ccFwykIN.s 			page 51


 2538      00
 2539              	.LASF57:
 2540 06c0 725F7175 		.ascii	"r_queue\000"
 2540      65756500 
 2541              	.LASF198:
 2542 06c8 76657853 		.ascii	"vexSleep\000"
 2542      6C656570 
 2542      00
 2543              	.LASF195:
 2544 06d1 76657844 		.ascii	"vexDigitalConfigure\000"
 2544      69676974 
 2544      616C436F 
 2544      6E666967 
 2544      75726500 
 2545              	.LASF138:
 2546 06e5 6368616E 		.ascii	"chan\000"
 2546      00
 2547              	.LASF13:
 2548 06ea 6C6F6E67 		.ascii	"long unsigned int\000"
 2548      20756E73 
 2548      69676E65 
 2548      6420696E 
 2548      7400
 2549              	.LASF16:
 2550 06fc 63686172 		.ascii	"char\000"
 2550      00
 2551              	.LASF109:
 2552 0701 6B496D65 		.ascii	"kImeChannel_2\000"
 2552      4368616E 
 2552      6E656C5F 
 2552      3200
 2553              	.LASF110:
 2554 070f 6B496D65 		.ascii	"kImeChannel_3\000"
 2554      4368616E 
 2554      6E656C5F 
 2554      3300
 2555              	.LASF111:
 2556 071d 6B496D65 		.ascii	"kImeChannel_4\000"
 2556      4368616E 
 2556      6E656C5F 
 2556      3400
 2557              	.LASF112:
 2558 072b 6B496D65 		.ascii	"kImeChannel_5\000"
 2558      4368616E 
 2558      6E656C5F 
 2558      3500
 2559              	.LASF113:
 2560 0739 6B496D65 		.ascii	"kImeChannel_6\000"
 2560      4368616E 
 2560      6E656C5F 
 2560      3600
 2561              	.LASF114:
 2562 0747 6B496D65 		.ascii	"kImeChannel_7\000"
 2562      4368616E 
 2562      6E656C5F 
 2562      3700
 2563              	.LASF115:
ARM GAS  /var/folders/6q/x_mk5n_j3p7_c40r_2k_78980000gn/T//ccFwykIN.s 			page 52


 2564 0755 6B496D65 		.ascii	"kImeChannel_8\000"
 2564      4368616E 
 2564      6E656C5F 
 2564      3800
 2565              	.LASF8:
 2566 0763 5F5F7569 		.ascii	"__uint16_t\000"
 2566      6E743136 
 2566      5F7400
 2567              	.LASF82:
 2568 076e 6B566578 		.ascii	"kVexDigital_10\000"
 2568      44696769 
 2568      74616C5F 
 2568      313000
 2569              	.LASF83:
 2570 077d 6B566578 		.ascii	"kVexDigital_11\000"
 2570      44696769 
 2570      74616C5F 
 2570      313100
 2571              	.LASF84:
 2572 078c 6B566578 		.ascii	"kVexDigital_12\000"
 2572      44696769 
 2572      74616C5F 
 2572      313200
 2573              	.LASF187:
 2574 079b 42746E36 		.ascii	"Btn6Xmtr2\000"
 2574      586D7472 
 2574      3200
 2575              	.LASF148:
 2576 07a5 42746E38 		.ascii	"Btn8L\000"
 2576      4C00
 2577              	.LASF192:
 2578 07ab 6D436F6E 		.ascii	"mConfig\000"
 2578      66696700 
 2579              	.LASF67:
 2580 07b3 6D5F6E65 		.ascii	"m_next\000"
 2580      787400
 2581              	.LASF31:
 2582 07ba 73797374 		.ascii	"systime_t\000"
 2582      696D655F 
 2582      7400
 2583              	.LASF50:
 2584 07c4 705F7265 		.ascii	"p_realprio\000"
 2584      616C7072 
 2584      696F00
 2585              	.LASF10:
 2586 07cf 5F5F696E 		.ascii	"__int32_t\000"
 2586      7433325F 
 2586      7400
 2587              	.LASF12:
 2588 07d9 5F5F7569 		.ascii	"__uint32_t\000"
 2588      6E743332 
 2588      5F7400
 2589              	.LASF125:
 2590 07e4 6B566578 		.ascii	"kVexSensorPotentiometer\000"
 2590      53656E73 
 2590      6F72506F 
 2590      74656E74 
ARM GAS  /var/folders/6q/x_mk5n_j3p7_c40r_2k_78980000gn/T//ccFwykIN.s 			page 53


 2590      696F6D65 
 2591              	.LASF149:
 2592 07fc 42746E38 		.ascii	"Btn8U\000"
 2592      5500
 2593              	.LASF121:
 2594 0802 6B566578 		.ascii	"kVexSensorQuadEncoder\000"
 2594      53656E73 
 2594      6F725175 
 2594      6164456E 
 2594      636F6465 
 2595              	.LASF162:
 2596 0818 42746E35 		.ascii	"Btn5\000"
 2596      00
 2597              	.LASF163:
 2598 081d 42746E36 		.ascii	"Btn6\000"
 2598      00
 2599              	.LASF164:
 2600 0822 42746E37 		.ascii	"Btn7\000"
 2600      00
 2601              	.LASF56:
 2602 0827 636F6E74 		.ascii	"context\000"
 2602      65787400 
 2603              	.LASF122:
 2604 082f 6B566578 		.ascii	"kVexSensorSonarCm\000"
 2604      53656E73 
 2604      6F72536F 
 2604      6E617243 
 2604      6D00
 2605              	.LASF184:
 2606 0841 4163636C 		.ascii	"AcclYXmtr2\000"
 2606      59586D74 
 2606      723200
 2607              	.LASF55:
 2608 084c 696E7463 		.ascii	"intctx\000"
 2608      747800
 2609              	.LASF189:
 2610 0853 42746E38 		.ascii	"Btn8mXtr2\000"
 2610      6D587472 
 2610      3200
 2611              	.LASF191:
 2612 085d 64436F6E 		.ascii	"dConfig\000"
 2612      66696700 
 2613              	.LASF182:
 2614 0865 42746E36 		.ascii	"Btn6UXmtr2\000"
 2614      55586D74 
 2614      723200
 2615              	.LASF139:
 2616 0870 76657844 		.ascii	"vexDigiCfg\000"
 2616      69676943 
 2616      666700
 2617              	.LASF126:
 2618 087b 6B566578 		.ascii	"kVexSensorInterrupt\000"
 2618      53656E73 
 2618      6F72496E 
 2618      74657272 
 2618      75707400 
 2619              	.LASF203:
ARM GAS  /var/folders/6q/x_mk5n_j3p7_c40r_2k_78980000gn/T//ccFwykIN.s 			page 54


 2620 088f 2F557365 		.ascii	"/Users/Luca/src/vexilla/src/teamA\000"
 2620      72732F4C 
 2620      7563612F 
 2620      7372632F 
 2620      76657869 
 2621              	.LASF42:
 2622 08b1 705F7265 		.ascii	"p_refs\000"
 2622      667300
 2623              	.LASF188:
 2624 08b8 42746E37 		.ascii	"Btn7Xmtr2\000"
 2624      586D7472 
 2624      3200
 2625              	.LASF63:
 2626 08c2 52656164 		.ascii	"ReadyList\000"
 2626      794C6973 
 2626      7400
 2627              	.LASF172:
 2628 08cc 42746E38 		.ascii	"Btn8LXmtr2\000"
 2628      4C586D74 
 2628      723200
 2629              	.LASF159:
 2630 08d7 4163636C 		.ascii	"AcclX\000"
 2630      5800
 2631              	.LASF160:
 2632 08dd 4163636C 		.ascii	"AcclY\000"
 2632      5900
 2633              	.LASF161:
 2634 08e3 4163636C 		.ascii	"AcclZ\000"
 2634      5A00
 2635              	.LASF206:
 2636 08e9 76657841 		.ascii	"vexAutonomous\000"
 2636      75746F6E 
 2636      6F6D6F75 
 2636      7300
 2637              	.LASF193:
 2638 08f7 726C6973 		.ascii	"rlist\000"
 2638      7400
 2639              	.LASF117:
 2640 08fd 6B496D65 		.ascii	"kImeChannelNone\000"
 2640      4368616E 
 2640      6E656C4E 
 2640      6F6E6500 
 2641              	.LASF17:
 2642 090d 75696E74 		.ascii	"uint8_t\000"
 2642      385F7400 
 2643              	.LASF190:
 2644 0915 42746E41 		.ascii	"BtnAnyXmtr2\000"
 2644      6E79586D 
 2644      74723200 
 2645              	.LASF95:
 2646 0921 6B566578 		.ascii	"kVexMotor_None\000"
 2646      4D6F746F 
 2646      725F4E6F 
 2646      6E6500
 2647              	.LASF128:
 2648 0930 6B566578 		.ascii	"kVexConfigInput\000"
 2648      436F6E66 
ARM GAS  /var/folders/6q/x_mk5n_j3p7_c40r_2k_78980000gn/T//ccFwykIN.s 			page 55


 2648      6967496E 
 2648      70757400 
 2649              	.LASF6:
 2650 0940 5F5F696E 		.ascii	"__int16_t\000"
 2650      7431365F 
 2650      7400
 2651              	.LASF70:
 2652 094a 77746F62 		.ascii	"wtobjp\000"
 2652      6A7000
 2653              	.LASF39:
 2654 0951 705F6E61 		.ascii	"p_name\000"
 2654      6D6500
 2655              	.LASF168:
 2656 0958 43683258 		.ascii	"Ch2Xmtr2\000"
 2656      6D747232 
 2656      00
 2657              	.LASF123:
 2658 0961 6B566578 		.ascii	"kVexSensorSonarInch\000"
 2658      53656E73 
 2658      6F72536F 
 2658      6E617249 
 2658      6E636800 
 2659              	.LASF183:
 2660 0975 4163636C 		.ascii	"AcclXXmtr2\000"
 2660      58586D74 
 2660      723200
 2661              	.LASF178:
 2662 0980 42746E37 		.ascii	"Btn7RXmtr2\000"
 2662      52586D74 
 2662      723200
 2663              	.LASF181:
 2664 098b 42746E36 		.ascii	"Btn6DXmtr2\000"
 2664      44586D74 
 2664      723200
 2665              	.LASF140:
 2666 0996 5F766578 		.ascii	"_vexMotorCfg\000"
 2666      4D6F746F 
 2666      72436667 
 2666      00
 2667              	.LASF157:
 2668 09a3 42746E36 		.ascii	"Btn6D\000"
 2668      4400
 2669              	.LASF66:
 2670 09a9 6D5F6F77 		.ascii	"m_owner\000"
 2670      6E657200 
 2671              	.LASF196:
 2672 09b1 7665784D 		.ascii	"vexMotorConfigure\000"
 2672      6F746F72 
 2672      436F6E66 
 2672      69677572 
 2672      6500
 2673              	.LASF36:
 2674 09c3 705F6374 		.ascii	"p_ctx\000"
 2674      7800
 2675              	.LASF45:
 2676 09c9 705F7761 		.ascii	"p_waiting\000"
 2676      6974696E 
ARM GAS  /var/folders/6q/x_mk5n_j3p7_c40r_2k_78980000gn/T//ccFwykIN.s 			page 56


 2676      6700
 2677              	.LASF87:
 2678 09d3 6B566578 		.ascii	"kVexDigitalInput\000"
 2678      44696769 
 2678      74616C49 
 2678      6E707574 
 2678      00
 2679              	.LASF86:
 2680 09e4 74566578 		.ascii	"tVexDigitalPin\000"
 2680      44696769 
 2680      74616C50 
 2680      696E00
 2681              		.ident	"GCC: (GNU Tools for ARM Embedded Processors) 5.4.1 20160919 (release) [ARM/embedded-5-bran
ARM GAS  /var/folders/6q/x_mk5n_j3p7_c40r_2k_78980000gn/T//ccFwykIN.s 			page 57


DEFINED SYMBOLS
                            *ABS*:0000000000000000 vexuser.c
/var/folders/6q/x_mk5n_j3p7_c40r_2k_78980000gn/T//ccFwykIN.s:20     .text.vexUserSetup:0000000000000000 $t
/var/folders/6q/x_mk5n_j3p7_c40r_2k_78980000gn/T//ccFwykIN.s:26     .text.vexUserSetup:0000000000000000 vexUserSetup
/var/folders/6q/x_mk5n_j3p7_c40r_2k_78980000gn/T//ccFwykIN.s:55     .text.vexUserSetup:0000000000000018 $d
/var/folders/6q/x_mk5n_j3p7_c40r_2k_78980000gn/T//ccFwykIN.s:61     .text.vexUserInit:0000000000000000 $t
/var/folders/6q/x_mk5n_j3p7_c40r_2k_78980000gn/T//ccFwykIN.s:67     .text.vexUserInit:0000000000000000 vexUserInit
/var/folders/6q/x_mk5n_j3p7_c40r_2k_78980000gn/T//ccFwykIN.s:79     .text.vexAutonomous:0000000000000000 $t
/var/folders/6q/x_mk5n_j3p7_c40r_2k_78980000gn/T//ccFwykIN.s:85     .text.vexAutonomous:0000000000000000 vexAutonomous
/var/folders/6q/x_mk5n_j3p7_c40r_2k_78980000gn/T//ccFwykIN.s:112    .text.vexAutonomous:0000000000000010 $d
/var/folders/6q/x_mk5n_j3p7_c40r_2k_78980000gn/T//ccFwykIN.s:117    .text.vexOperator:0000000000000000 $t
/var/folders/6q/x_mk5n_j3p7_c40r_2k_78980000gn/T//ccFwykIN.s:123    .text.vexOperator:0000000000000000 vexOperator
/var/folders/6q/x_mk5n_j3p7_c40r_2k_78980000gn/T//ccFwykIN.s:205    .text.vexOperator:000000000000005c $d
/var/folders/6q/x_mk5n_j3p7_c40r_2k_78980000gn/T//ccFwykIN.s:211    .rodata.str1.4:0000000000000000 $d
/var/folders/6q/x_mk5n_j3p7_c40r_2k_78980000gn/T//ccFwykIN.s:218    .data.mConfig:0000000000000000 $d
/var/folders/6q/x_mk5n_j3p7_c40r_2k_78980000gn/T//ccFwykIN.s:222    .data.mConfig:0000000000000000 mConfig
/var/folders/6q/x_mk5n_j3p7_c40r_2k_78980000gn/T//ccFwykIN.s:274    .data.dConfig:0000000000000000 $d
/var/folders/6q/x_mk5n_j3p7_c40r_2k_78980000gn/T//ccFwykIN.s:278    .data.dConfig:0000000000000000 dConfig
                     .debug_frame:0000000000000010 $d

UNDEFINED SYMBOLS
vexDigitalConfigure
vexMotorConfigure
vexTaskRegister
vexSleep
vexControllerGet
vexMotorSet
rlist
