ARM GAS  /var/folders/6q/x_mk5n_j3p7_c40r_2k_78980000gn/T//ccahuSrk.s 			page 1


   1              		.syntax unified
   2              		.cpu cortex-m3
   3              		.fpu softvfp
   4              		.eabi_attribute 20, 1
   5              		.eabi_attribute 21, 1
   6              		.eabi_attribute 23, 3
   7              		.eabi_attribute 24, 1
   8              		.eabi_attribute 25, 1
   9              		.eabi_attribute 26, 1
  10              		.eabi_attribute 30, 2
  11              		.eabi_attribute 34, 1
  12              		.eabi_attribute 18, 4
  13              		.thumb
  14              		.syntax unified
  15              		.file	"vexuser.c"
  16              		.text
  17              	.Ltext0:
  18              		.cfi_sections	.debug_frame
  19              		.section	.text.vexUserSetup,"ax",%progbits
  20              		.align	2
  21              		.p2align 4,,15
  22              		.weak	vexUserSetup
  23              		.thumb
  24              		.thumb_func
  25              		.type	vexUserSetup, %function
  26              	vexUserSetup:
  27              	.LFB63:
  28              		.file 1 "vexuser.c"
  29              		.loc 1 87 0
  30              		.cfi_startproc
  31              		@ args = 0, pretend = 0, frame = 0
  32              		@ frame_needed = 0, uses_anonymous_args = 0
  33 0000 08B5     		push	{r3, lr}
  34              		.cfi_def_cfa_offset 8
  35              		.cfi_offset 3, -8
  36              		.cfi_offset 14, -4
  37              		.loc 1 88 0
  38 0002 0C21     		movs	r1, #12
  39 0004 0448     		ldr	r0, .L3
  40 0006 FFF7FEFF 		bl	vexDigitalConfigure
  41              	.LVL0:
  42              		.loc 1 90 0
  43 000a BDE80840 		pop	{r3, lr}
  44              		.cfi_restore 14
  45              		.cfi_restore 3
  46              		.cfi_def_cfa_offset 0
  47              		.loc 1 89 0
  48 000e 0A21     		movs	r1, #10
  49 0010 0248     		ldr	r0, .L3+4
  50 0012 FFF7FEBF 		b	vexMotorConfigure
  51              	.LVL1:
  52              	.L4:
  53 0016 00BF     		.align	2
  54              	.L3:
  55 0018 00000000 		.word	.LANCHOR0
  56 001c 00000000 		.word	.LANCHOR1
  57              		.cfi_endproc
ARM GAS  /var/folders/6q/x_mk5n_j3p7_c40r_2k_78980000gn/T//ccahuSrk.s 			page 2


  58              	.LFE63:
  59              		.size	vexUserSetup, .-vexUserSetup
  60              		.section	.text.vexUserInit,"ax",%progbits
  61              		.align	2
  62              		.p2align 4,,15
  63              		.weak	vexUserInit
  64              		.thumb
  65              		.thumb_func
  66              		.type	vexUserInit, %function
  67              	vexUserInit:
  68              	.LFB64:
  69              		.loc 1 102 0
  70              		.cfi_startproc
  71              		@ args = 0, pretend = 0, frame = 0
  72              		@ frame_needed = 0, uses_anonymous_args = 0
  73              		@ link register save eliminated.
  74 0000 7047     		bx	lr
  75              		.cfi_endproc
  76              	.LFE64:
  77              		.size	vexUserInit, .-vexUserInit
  78 0002 00BF     		.section	.text.vexAutonomous,"ax",%progbits
  79              		.align	2
  80              		.p2align 4,,15
  81              		.global	vexAutonomous
  82              		.thumb
  83              		.thumb_func
  84              		.type	vexAutonomous, %function
  85              	vexAutonomous:
  86              	.LFB65:
  87              		.loc 1 114 0
  88              		.cfi_startproc
  89              		@ Volatile: function does not return.
  90              		@ args = 0, pretend = 0, frame = 0
  91              		@ frame_needed = 0, uses_anonymous_args = 0
  92              	.LVL2:
  93              		.loc 1 114 0
  94 0000 08B5     		push	{r3, lr}
  95              		.cfi_def_cfa_offset 8
  96              		.cfi_offset 3, -8
  97              		.cfi_offset 14, -4
  98              		.loc 1 118 0
  99 0002 0348     		ldr	r0, .L10
 100              	.LVL3:
 101 0004 FFF7FEFF 		bl	vexTaskRegister
 102              	.LVL4:
 103              	.L7:
 104              		.loc 1 123 0 discriminator 1
 105 0008 1920     		movs	r0, #25
 106 000a FFF7FEFF 		bl	vexSleep
 107              	.LVL5:
 108 000e FBE7     		b	.L7
 109              	.L11:
 110              		.align	2
 111              	.L10:
 112 0010 00000000 		.word	.LC0
 113              		.cfi_endproc
 114              	.LFE65:
ARM GAS  /var/folders/6q/x_mk5n_j3p7_c40r_2k_78980000gn/T//ccahuSrk.s 			page 3


 115              		.size	vexAutonomous, .-vexAutonomous
 116              		.section	.text.vexOperator,"ax",%progbits
 117              		.align	2
 118              		.p2align 4,,15
 119              		.global	vexOperator
 120              		.thumb
 121              		.thumb_func
 122              		.type	vexOperator, %function
 123              	vexOperator:
 124              	.LFB66:
 125              		.loc 1 140 0
 126              		.cfi_startproc
 127              		@ args = 0, pretend = 0, frame = 0
 128              		@ frame_needed = 0, uses_anonymous_args = 0
 129              	.LVL6:
 130 0000 10B5     		push	{r4, lr}
 131              		.cfi_def_cfa_offset 8
 132              		.cfi_offset 4, -8
 133              		.cfi_offset 14, -4
 134              		.loc 1 149 0
 135 0002 0F4C     		ldr	r4, .L20
 136              		.loc 1 146 0
 137 0004 0F48     		ldr	r0, .L20+4
 138              	.LVL7:
 139 0006 FFF7FEFF 		bl	vexTaskRegister
 140              	.LVL8:
 141              		.loc 1 149 0
 142 000a A369     		ldr	r3, [r4, #24]
 143 000c 5B7F     		ldrb	r3, [r3, #29]	@ zero_extendqisi2
 144 000e 5A07     		lsls	r2, r3, #29
 145 0010 14D4     		bmi	.L18
 146              	.L13:
 147              		.loc 1 160 0
 148 0012 0220     		movs	r0, #2
 149 0014 FFF7FEFF 		bl	vexControllerGet
 150              	.LVL9:
 151 0018 0146     		mov	r1, r0
 152 001a 0020     		movs	r0, #0
 153 001c FFF7FEFF 		bl	vexMotorSet
 154              	.LVL10:
 155              		.loc 1 163 0
 156 0020 0120     		movs	r0, #1
 157 0022 FFF7FEFF 		bl	vexControllerGet
 158              	.LVL11:
 159 0026 0146     		mov	r1, r0
 160 0028 0920     		movs	r0, #9
 161 002a FFF7FEFF 		bl	vexMotorSet
 162              	.LVL12:
 163              		.loc 1 166 0
 164 002e 1920     		movs	r0, #25
 165 0030 FFF7FEFF 		bl	vexSleep
 166              	.LVL13:
 167              		.loc 1 149 0
 168 0034 A369     		ldr	r3, [r4, #24]
 169 0036 5B7F     		ldrb	r3, [r3, #29]	@ zero_extendqisi2
 170 0038 5B07     		lsls	r3, r3, #29
 171 003a EAD5     		bpl	.L13
ARM GAS  /var/folders/6q/x_mk5n_j3p7_c40r_2k_78980000gn/T//ccahuSrk.s 			page 4


 172              	.L18:
 173              		.loc 1 170 0
 174 003c 0020     		movs	r0, #0
 175 003e 10BD     		pop	{r4, pc}
 176              	.L21:
 177              		.align	2
 178              	.L20:
 179 0040 00000000 		.word	rlist
 180 0044 08000000 		.word	.LC1
 181              		.cfi_endproc
 182              	.LFE66:
 183              		.size	vexOperator, .-vexOperator
 184              		.section	.rodata.str1.4,"aMS",%progbits,1
 185              		.align	2
 186              	.LC0:
 187 0000 6175746F 		.ascii	"auton\000"
 187      6E00
 188 0006 0000     		.space	2
 189              	.LC1:
 190 0008 6F706572 		.ascii	"operator\000"
 190      61746F72 
 190      00
 191              		.section	.data.mConfig,"aw",%progbits
 192              		.align	2
 193              		.set	.LANCHOR1,. + 0
 194              		.type	mConfig, %object
 195              		.size	mConfig, 60
 196              	mConfig:
 197 0000 00       		.byte	0
 198 0001 02       		.byte	2
 199 0002 00       		.byte	0
 200 0003 06       		.byte	6
 201 0004 0000     		.short	0
 202 0006 01       		.byte	1
 203 0007 00       		.byte	0
 204 0008 00       		.byte	0
 205 0009 00       		.byte	0
 206 000a 0000     		.short	0
 207 000c 02       		.byte	2
 208 000d 00       		.byte	0
 209 000e 00       		.byte	0
 210 000f 00       		.byte	0
 211 0010 0000     		.short	0
 212 0012 03       		.byte	3
 213 0013 00       		.byte	0
 214 0014 00       		.byte	0
 215 0015 00       		.byte	0
 216 0016 0000     		.short	0
 217 0018 04       		.byte	4
 218 0019 00       		.byte	0
 219 001a 00       		.byte	0
 220 001b 00       		.byte	0
 221 001c 0000     		.short	0
 222 001e 05       		.byte	5
 223 001f 00       		.byte	0
 224 0020 00       		.byte	0
 225 0021 00       		.byte	0
ARM GAS  /var/folders/6q/x_mk5n_j3p7_c40r_2k_78980000gn/T//ccahuSrk.s 			page 5


 226 0022 0000     		.short	0
 227 0024 06       		.byte	6
 228 0025 00       		.byte	0
 229 0026 00       		.byte	0
 230 0027 00       		.byte	0
 231 0028 0000     		.short	0
 232 002a 07       		.byte	7
 233 002b 00       		.byte	0
 234 002c 00       		.byte	0
 235 002d 00       		.byte	0
 236 002e 0000     		.short	0
 237 0030 08       		.byte	8
 238 0031 00       		.byte	0
 239 0032 00       		.byte	0
 240 0033 00       		.byte	0
 241 0034 0000     		.short	0
 242 0036 09       		.byte	9
 243 0037 02       		.byte	2
 244 0038 00       		.byte	0
 245 0039 06       		.byte	6
 246 003a 0100     		.short	1
 247              		.section	.data.dConfig,"aw",%progbits
 248              		.align	2
 249              		.set	.LANCHOR0,. + 0
 250              		.type	dConfig, %object
 251              		.size	dConfig, 72
 252              	dConfig:
 253 0000 00       		.byte	0
 254 0001 02       		.byte	2
 255 0002 01       		.byte	1
 256 0003 00       		.space	1
 257 0004 0000     		.short	0
 258 0006 01       		.byte	1
 259 0007 02       		.byte	2
 260 0008 01       		.byte	1
 261 0009 00       		.space	1
 262 000a 0000     		.short	0
 263 000c 02       		.byte	2
 264 000d 01       		.byte	1
 265 000e 00       		.byte	0
 266 000f 00       		.space	1
 267 0010 0000     		.short	0
 268 0012 03       		.byte	3
 269 0013 01       		.byte	1
 270 0014 00       		.byte	0
 271 0015 00       		.space	1
 272 0016 0000     		.short	0
 273 0018 04       		.byte	4
 274 0019 01       		.byte	1
 275 001a 00       		.byte	0
 276 001b 00       		.space	1
 277 001c 0000     		.short	0
 278 001e 05       		.byte	5
 279 001f 01       		.byte	1
 280 0020 00       		.byte	0
 281 0021 00       		.space	1
 282 0022 0000     		.short	0
ARM GAS  /var/folders/6q/x_mk5n_j3p7_c40r_2k_78980000gn/T//ccahuSrk.s 			page 6


 283 0024 06       		.byte	6
 284 0025 01       		.byte	1
 285 0026 00       		.byte	0
 286 0027 00       		.space	1
 287 0028 0000     		.short	0
 288 002a 07       		.byte	7
 289 002b 01       		.byte	1
 290 002c 00       		.byte	0
 291 002d 00       		.space	1
 292 002e 0000     		.short	0
 293 0030 08       		.byte	8
 294 0031 01       		.byte	1
 295 0032 00       		.byte	0
 296 0033 00       		.space	1
 297 0034 0000     		.short	0
 298 0036 09       		.byte	9
 299 0037 01       		.byte	1
 300 0038 00       		.byte	0
 301 0039 00       		.space	1
 302 003a 0000     		.short	0
 303 003c 0A       		.byte	10
 304 003d 01       		.byte	1
 305 003e 00       		.byte	0
 306 003f 00       		.space	1
 307 0040 0000     		.short	0
 308 0042 0B       		.byte	11
 309 0043 01       		.byte	1
 310 0044 00       		.byte	0
 311 0045 00       		.space	1
 312 0046 0000     		.short	0
 313              		.text
 314              	.Letext0:
 315              		.file 2 "/Users/Luca/src/vexilla/src/gcc-arm-none-eabi-5_4-2016q3/arm-none-eabi/include/machine/_d
 316              		.file 3 "/Users/Luca/src/vexilla/src/gcc-arm-none-eabi-5_4-2016q3/arm-none-eabi/include/sys/_stdin
 317              		.file 4 "../ChibiOS/os/ports/GCC/ARMCMx/chtypes.h"
 318              		.file 5 "../ChibiOS/os/kernel/include/chlists.h"
 319              		.file 6 "../ChibiOS/os/kernel/include/chthreads.h"
 320              		.file 7 "../ChibiOS/os/ports/GCC/ARMCMx/chcore_v7m.h"
 321              		.file 8 "../ChibiOS/os/kernel/include/chschd.h"
 322              		.file 9 "../ChibiOS/os/kernel/include/chmtx.h"
 323              		.file 10 "../convex-vexilla/cortex/fw/vexdigital.h"
 324              		.file 11 "../convex-vexilla/cortex/fw/vexmotor.h"
 325              		.file 12 "../convex-vexilla/cortex/fw/vexime.h"
 326              		.file 13 "../convex-vexilla/cortex/fw/vexconfig.h"
 327              		.file 14 "../convex-vexilla/cortex/fw/vexctl.h"
 328              		.file 15 "../ChibiOS/os/ports/common/ARMCMx/CMSIS/include/core_cm3.h"
 329              		.file 16 "../convex-vexilla/cortex/fw/vex.h"